ARM GAS  C:\Users\cypress\AppData\Local\Temp\cczqZZvj.s 			page 1


   1              		.syntax unified
   2              		.cpu cortex-m4
   3              		.eabi_attribute 27, 1
   4              		.fpu fpv4-sp-d16
   5              		.eabi_attribute 20, 1
   6              		.eabi_attribute 21, 1
   7              		.eabi_attribute 23, 3
   8              		.eabi_attribute 24, 1
   9              		.eabi_attribute 25, 1
  10              		.eabi_attribute 26, 1
  11              		.eabi_attribute 30, 1
  12              		.eabi_attribute 34, 1
  13              		.eabi_attribute 18, 4
  14              		.thumb
  15              		.syntax unified
  16              		.file	"cy_dma.c"
  17              		.text
  18              	.Ltext0:
  19              		.cfi_sections	.debug_frame
  20              		.section	.text.Cy_DMA_Descriptor_Init,"ax",%progbits
  21              		.align	2
  22              		.global	Cy_DMA_Descriptor_Init
  23              		.thumb
  24              		.thumb_func
  25              		.type	Cy_DMA_Descriptor_Init, %function
  26              	Cy_DMA_Descriptor_Init:
  27              	.LFB176:
  28              		.file 1 "Generated_Source\\PSoC6\\pdl\\drivers\\peripheral\\dma\\cy_dma.c"
   1:Generated_Source\PSoC6\pdl\drivers\peripheral\dma/cy_dma.c **** /***************************************************************************//**
   2:Generated_Source\PSoC6\pdl\drivers\peripheral\dma/cy_dma.c **** * \file cy_dma.c
   3:Generated_Source\PSoC6\pdl\drivers\peripheral\dma/cy_dma.c **** * \version 2.0.1
   4:Generated_Source\PSoC6\pdl\drivers\peripheral\dma/cy_dma.c **** *
   5:Generated_Source\PSoC6\pdl\drivers\peripheral\dma/cy_dma.c **** * \brief
   6:Generated_Source\PSoC6\pdl\drivers\peripheral\dma/cy_dma.c **** * The source code file for the DMA driver.
   7:Generated_Source\PSoC6\pdl\drivers\peripheral\dma/cy_dma.c **** *
   8:Generated_Source\PSoC6\pdl\drivers\peripheral\dma/cy_dma.c **** ********************************************************************************
   9:Generated_Source\PSoC6\pdl\drivers\peripheral\dma/cy_dma.c **** * \copyright
  10:Generated_Source\PSoC6\pdl\drivers\peripheral\dma/cy_dma.c **** * Copyright 2016-2018, Cypress Semiconductor Corporation. All rights reserved.
  11:Generated_Source\PSoC6\pdl\drivers\peripheral\dma/cy_dma.c **** * You may use this file only in accordance with the license, terms, conditions,
  12:Generated_Source\PSoC6\pdl\drivers\peripheral\dma/cy_dma.c **** * disclaimers, and limitations in the end user license agreement accompanying
  13:Generated_Source\PSoC6\pdl\drivers\peripheral\dma/cy_dma.c **** * the software package with which this file was provided.
  14:Generated_Source\PSoC6\pdl\drivers\peripheral\dma/cy_dma.c **** *******************************************************************************/
  15:Generated_Source\PSoC6\pdl\drivers\peripheral\dma/cy_dma.c **** 
  16:Generated_Source\PSoC6\pdl\drivers\peripheral\dma/cy_dma.c **** #include "cy_dma.h"
  17:Generated_Source\PSoC6\pdl\drivers\peripheral\dma/cy_dma.c **** 
  18:Generated_Source\PSoC6\pdl\drivers\peripheral\dma/cy_dma.c **** #if defined(__cplusplus)
  19:Generated_Source\PSoC6\pdl\drivers\peripheral\dma/cy_dma.c **** extern "C" {
  20:Generated_Source\PSoC6\pdl\drivers\peripheral\dma/cy_dma.c **** #endif
  21:Generated_Source\PSoC6\pdl\drivers\peripheral\dma/cy_dma.c **** 
  22:Generated_Source\PSoC6\pdl\drivers\peripheral\dma/cy_dma.c **** 
  23:Generated_Source\PSoC6\pdl\drivers\peripheral\dma/cy_dma.c **** /*******************************************************************************
  24:Generated_Source\PSoC6\pdl\drivers\peripheral\dma/cy_dma.c **** * Function Name: Cy_DMA_Descriptor_Init
  25:Generated_Source\PSoC6\pdl\drivers\peripheral\dma/cy_dma.c **** ****************************************************************************//**
  26:Generated_Source\PSoC6\pdl\drivers\peripheral\dma/cy_dma.c **** *
  27:Generated_Source\PSoC6\pdl\drivers\peripheral\dma/cy_dma.c **** * Initializes the descriptor structure in SRAM from a pre-initialized
  28:Generated_Source\PSoC6\pdl\drivers\peripheral\dma/cy_dma.c **** * configuration structure.
  29:Generated_Source\PSoC6\pdl\drivers\peripheral\dma/cy_dma.c **** * This function initializes only the descriptor and not the channel.
ARM GAS  C:\Users\cypress\AppData\Local\Temp\cczqZZvj.s 			page 2


  30:Generated_Source\PSoC6\pdl\drivers\peripheral\dma/cy_dma.c **** *
  31:Generated_Source\PSoC6\pdl\drivers\peripheral\dma/cy_dma.c **** * \param descriptor
  32:Generated_Source\PSoC6\pdl\drivers\peripheral\dma/cy_dma.c **** * The descriptor structure instance declared by the user/component.
  33:Generated_Source\PSoC6\pdl\drivers\peripheral\dma/cy_dma.c **** *
  34:Generated_Source\PSoC6\pdl\drivers\peripheral\dma/cy_dma.c **** * \param config
  35:Generated_Source\PSoC6\pdl\drivers\peripheral\dma/cy_dma.c **** * This is a configuration structure that has all initialization information for
  36:Generated_Source\PSoC6\pdl\drivers\peripheral\dma/cy_dma.c **** * the descriptor.
  37:Generated_Source\PSoC6\pdl\drivers\peripheral\dma/cy_dma.c **** *
  38:Generated_Source\PSoC6\pdl\drivers\peripheral\dma/cy_dma.c **** * \return
  39:Generated_Source\PSoC6\pdl\drivers\peripheral\dma/cy_dma.c **** * The status /ref cy_en_dma_status_t.
  40:Generated_Source\PSoC6\pdl\drivers\peripheral\dma/cy_dma.c **** *
  41:Generated_Source\PSoC6\pdl\drivers\peripheral\dma/cy_dma.c **** *******************************************************************************/
  42:Generated_Source\PSoC6\pdl\drivers\peripheral\dma/cy_dma.c **** cy_en_dma_status_t Cy_DMA_Descriptor_Init(cy_stc_dma_descriptor_t * descriptor, const cy_stc_dma_de
  43:Generated_Source\PSoC6\pdl\drivers\peripheral\dma/cy_dma.c **** {
  29              		.loc 1 43 0
  30              		.cfi_startproc
  31              		@ args = 0, pretend = 0, frame = 0
  32              		@ frame_needed = 0, uses_anonymous_args = 0
  33              	.LVL0:
  44:Generated_Source\PSoC6\pdl\drivers\peripheral\dma/cy_dma.c ****     cy_en_dma_status_t retVal = CY_DMA_BAD_PARAM;
  45:Generated_Source\PSoC6\pdl\drivers\peripheral\dma/cy_dma.c **** 
  46:Generated_Source\PSoC6\pdl\drivers\peripheral\dma/cy_dma.c ****     if ((NULL != descriptor) && (NULL != config))
  34              		.loc 1 46 0
  35 0000 0028     		cmp	r0, #0
  36 0002 00F0FF80 		beq	.L24
  43:Generated_Source\PSoC6\pdl\drivers\peripheral\dma/cy_dma.c ****     cy_en_dma_status_t retVal = CY_DMA_BAD_PARAM;
  37              		.loc 1 43 0 discriminator 1
  38 0006 38B5     		push	{r3, r4, r5, lr}
  39              		.cfi_def_cfa_offset 16
  40              		.cfi_offset 3, -16
  41              		.cfi_offset 4, -12
  42              		.cfi_offset 5, -8
  43              		.cfi_offset 14, -4
  44 0008 0546     		mov	r5, r0
  45              		.loc 1 46 0 discriminator 1
  46 000a 0029     		cmp	r1, #0
  47 000c 00F0FC80 		beq	.L25
  48 0010 0C46     		mov	r4, r1
  47:Generated_Source\PSoC6\pdl\drivers\peripheral\dma/cy_dma.c ****     {
  48:Generated_Source\PSoC6\pdl\drivers\peripheral\dma/cy_dma.c ****         CY_ASSERT_L3(CY_DMA_IS_RETRIGGER_VALID(config->retrigger));
  49              		.loc 1 48 0
  50 0012 0B78     		ldrb	r3, [r1]	@ zero_extendqisi2
  51 0014 032B     		cmp	r3, #3
  52 0016 03D9     		bls	.L3
  53              		.loc 1 48 0 is_stmt 0 discriminator 1
  54 0018 3021     		movs	r1, #48
  55              	.LVL1:
  56 001a 7D48     		ldr	r0, .L29
  57              	.LVL2:
  58 001c FFF7FEFF 		bl	Cy_SysLib_AssertFailed
  59              	.LVL3:
  60              	.L3:
  49:Generated_Source\PSoC6\pdl\drivers\peripheral\dma/cy_dma.c ****         CY_ASSERT_L3(CY_DMA_IS_TRIG_TYPE_VALID(config->interruptType));
  61              		.loc 1 49 0 is_stmt 1
  62 0020 6378     		ldrb	r3, [r4, #1]	@ zero_extendqisi2
  63 0022 032B     		cmp	r3, #3
  64 0024 03D9     		bls	.L4
ARM GAS  C:\Users\cypress\AppData\Local\Temp\cczqZZvj.s 			page 3


  65              		.loc 1 49 0 is_stmt 0 discriminator 1
  66 0026 3121     		movs	r1, #49
  67 0028 7948     		ldr	r0, .L29
  68 002a FFF7FEFF 		bl	Cy_SysLib_AssertFailed
  69              	.LVL4:
  70              	.L4:
  50:Generated_Source\PSoC6\pdl\drivers\peripheral\dma/cy_dma.c ****         CY_ASSERT_L3(CY_DMA_IS_TRIG_TYPE_VALID(config->triggerOutType));
  71              		.loc 1 50 0 is_stmt 1
  72 002e A378     		ldrb	r3, [r4, #2]	@ zero_extendqisi2
  73 0030 032B     		cmp	r3, #3
  74 0032 03D9     		bls	.L5
  75              		.loc 1 50 0 is_stmt 0 discriminator 1
  76 0034 3221     		movs	r1, #50
  77 0036 7648     		ldr	r0, .L29
  78 0038 FFF7FEFF 		bl	Cy_SysLib_AssertFailed
  79              	.LVL5:
  80              	.L5:
  51:Generated_Source\PSoC6\pdl\drivers\peripheral\dma/cy_dma.c ****         CY_ASSERT_L3(CY_DMA_IS_TRIG_TYPE_VALID(config->triggerInType));
  81              		.loc 1 51 0 is_stmt 1
  82 003c 2379     		ldrb	r3, [r4, #4]	@ zero_extendqisi2
  83 003e 032B     		cmp	r3, #3
  84 0040 03D9     		bls	.L6
  85              		.loc 1 51 0 is_stmt 0 discriminator 1
  86 0042 3321     		movs	r1, #51
  87 0044 7248     		ldr	r0, .L29
  88 0046 FFF7FEFF 		bl	Cy_SysLib_AssertFailed
  89              	.LVL6:
  90              	.L6:
  52:Generated_Source\PSoC6\pdl\drivers\peripheral\dma/cy_dma.c ****         CY_ASSERT_L3(CY_DMA_IS_XFER_SIZE_VALID(config->srcTransferSize));
  91              		.loc 1 52 0 is_stmt 1
  92 004a A379     		ldrb	r3, [r4, #6]	@ zero_extendqisi2
  93 004c 012B     		cmp	r3, #1
  94 004e 03D9     		bls	.L7
  95              		.loc 1 52 0 is_stmt 0 discriminator 1
  96 0050 3421     		movs	r1, #52
  97 0052 6F48     		ldr	r0, .L29
  98 0054 FFF7FEFF 		bl	Cy_SysLib_AssertFailed
  99              	.LVL7:
 100              	.L7:
  53:Generated_Source\PSoC6\pdl\drivers\peripheral\dma/cy_dma.c ****         CY_ASSERT_L3(CY_DMA_IS_XFER_SIZE_VALID(config->dstTransferSize));
 101              		.loc 1 53 0 is_stmt 1
 102 0058 E379     		ldrb	r3, [r4, #7]	@ zero_extendqisi2
 103 005a 012B     		cmp	r3, #1
 104 005c 03D9     		bls	.L8
 105              		.loc 1 53 0 is_stmt 0 discriminator 1
 106 005e 3521     		movs	r1, #53
 107 0060 6B48     		ldr	r0, .L29
 108 0062 FFF7FEFF 		bl	Cy_SysLib_AssertFailed
 109              	.LVL8:
 110              	.L8:
  54:Generated_Source\PSoC6\pdl\drivers\peripheral\dma/cy_dma.c ****         CY_ASSERT_L3(CY_DMA_IS_CHANNEL_STATE_VALID(config->channelState));
 111              		.loc 1 54 0 is_stmt 1
 112 0066 E378     		ldrb	r3, [r4, #3]	@ zero_extendqisi2
 113 0068 012B     		cmp	r3, #1
 114 006a 03D9     		bls	.L9
 115              		.loc 1 54 0 is_stmt 0 discriminator 1
 116 006c 3621     		movs	r1, #54
ARM GAS  C:\Users\cypress\AppData\Local\Temp\cczqZZvj.s 			page 4


 117 006e 6848     		ldr	r0, .L29
 118 0070 FFF7FEFF 		bl	Cy_SysLib_AssertFailed
 119              	.LVL9:
 120              	.L9:
  55:Generated_Source\PSoC6\pdl\drivers\peripheral\dma/cy_dma.c ****         CY_ASSERT_L3(CY_DMA_IS_DATA_SIZE_VALID(config->dataSize));
 121              		.loc 1 55 0 is_stmt 1
 122 0074 6379     		ldrb	r3, [r4, #5]	@ zero_extendqisi2
 123 0076 022B     		cmp	r3, #2
 124 0078 03D9     		bls	.L10
 125              		.loc 1 55 0 is_stmt 0 discriminator 1
 126 007a 3721     		movs	r1, #55
 127 007c 6448     		ldr	r0, .L29
 128 007e FFF7FEFF 		bl	Cy_SysLib_AssertFailed
 129              	.LVL10:
 130              	.L10:
  56:Generated_Source\PSoC6\pdl\drivers\peripheral\dma/cy_dma.c ****         CY_ASSERT_L3(CY_DMA_IS_TYPE_VALID(config->descriptorType));
 131              		.loc 1 56 0 is_stmt 1
 132 0082 237A     		ldrb	r3, [r4, #8]	@ zero_extendqisi2
 133 0084 022B     		cmp	r3, #2
 134 0086 03D9     		bls	.L11
 135              		.loc 1 56 0 is_stmt 0 discriminator 1
 136 0088 3821     		movs	r1, #56
 137 008a 6148     		ldr	r0, .L29
 138 008c FFF7FEFF 		bl	Cy_SysLib_AssertFailed
 139              	.LVL11:
 140              	.L11:
  57:Generated_Source\PSoC6\pdl\drivers\peripheral\dma/cy_dma.c ****         
  58:Generated_Source\PSoC6\pdl\drivers\peripheral\dma/cy_dma.c ****         descriptor->ctl =
  59:Generated_Source\PSoC6\pdl\drivers\peripheral\dma/cy_dma.c ****             _VAL2FLD(CY_DMA_CTL_RETRIG, config->retrigger) |
 141              		.loc 1 59 0 is_stmt 1
 142 0090 2378     		ldrb	r3, [r4]	@ zero_extendqisi2
 143 0092 03F00301 		and	r1, r3, #3
  60:Generated_Source\PSoC6\pdl\drivers\peripheral\dma/cy_dma.c ****             _VAL2FLD(CY_DMA_CTL_INTR_TYPE, config->interruptType) |
 144              		.loc 1 60 0
 145 0096 6278     		ldrb	r2, [r4, #1]	@ zero_extendqisi2
 146 0098 9300     		lsls	r3, r2, #2
 147 009a 03F00C03 		and	r3, r3, #12
  59:Generated_Source\PSoC6\pdl\drivers\peripheral\dma/cy_dma.c ****             _VAL2FLD(CY_DMA_CTL_INTR_TYPE, config->interruptType) |
 148              		.loc 1 59 0
 149 009e 0B43     		orrs	r3, r3, r1
  61:Generated_Source\PSoC6\pdl\drivers\peripheral\dma/cy_dma.c ****             _VAL2FLD(CY_DMA_CTL_TR_OUT_TYPE, config->triggerOutType) |
 150              		.loc 1 61 0
 151 00a0 A278     		ldrb	r2, [r4, #2]	@ zero_extendqisi2
 152 00a2 1201     		lsls	r2, r2, #4
 153 00a4 02F03002 		and	r2, r2, #48
  60:Generated_Source\PSoC6\pdl\drivers\peripheral\dma/cy_dma.c ****             _VAL2FLD(CY_DMA_CTL_INTR_TYPE, config->interruptType) |
 154              		.loc 1 60 0
 155 00a8 1343     		orrs	r3, r3, r2
  62:Generated_Source\PSoC6\pdl\drivers\peripheral\dma/cy_dma.c ****             _VAL2FLD(CY_DMA_CTL_TR_IN_TYPE, config->triggerInType) |
 156              		.loc 1 62 0
 157 00aa 2279     		ldrb	r2, [r4, #4]	@ zero_extendqisi2
 158 00ac 9201     		lsls	r2, r2, #6
 159 00ae D2B2     		uxtb	r2, r2
  61:Generated_Source\PSoC6\pdl\drivers\peripheral\dma/cy_dma.c ****             _VAL2FLD(CY_DMA_CTL_TR_OUT_TYPE, config->triggerOutType) |
 160              		.loc 1 61 0
 161 00b0 1343     		orrs	r3, r3, r2
  63:Generated_Source\PSoC6\pdl\drivers\peripheral\dma/cy_dma.c ****             _VAL2FLD(CY_DMA_CTL_SRC_SIZE, config->srcTransferSize) |
ARM GAS  C:\Users\cypress\AppData\Local\Temp\cczqZZvj.s 			page 5


 162              		.loc 1 63 0
 163 00b2 A279     		ldrb	r2, [r4, #6]	@ zero_extendqisi2
 164 00b4 9206     		lsls	r2, r2, #26
 165 00b6 02F08062 		and	r2, r2, #67108864
  62:Generated_Source\PSoC6\pdl\drivers\peripheral\dma/cy_dma.c ****             _VAL2FLD(CY_DMA_CTL_TR_IN_TYPE, config->triggerInType) |
 166              		.loc 1 62 0
 167 00ba 1343     		orrs	r3, r3, r2
  64:Generated_Source\PSoC6\pdl\drivers\peripheral\dma/cy_dma.c ****             _VAL2FLD(CY_DMA_CTL_DST_SIZE, config->dstTransferSize) |
 168              		.loc 1 64 0
 169 00bc E279     		ldrb	r2, [r4, #7]	@ zero_extendqisi2
 170 00be D206     		lsls	r2, r2, #27
 171 00c0 02F00062 		and	r2, r2, #134217728
  63:Generated_Source\PSoC6\pdl\drivers\peripheral\dma/cy_dma.c ****             _VAL2FLD(CY_DMA_CTL_SRC_SIZE, config->srcTransferSize) |
 172              		.loc 1 63 0
 173 00c4 1343     		orrs	r3, r3, r2
  65:Generated_Source\PSoC6\pdl\drivers\peripheral\dma/cy_dma.c ****             _VAL2FLD(CY_DMA_CTL_CH_DISABLE, config->channelState) |
 174              		.loc 1 65 0
 175 00c6 E278     		ldrb	r2, [r4, #3]	@ zero_extendqisi2
 176 00c8 1206     		lsls	r2, r2, #24
 177 00ca 02F08072 		and	r2, r2, #16777216
  64:Generated_Source\PSoC6\pdl\drivers\peripheral\dma/cy_dma.c ****             _VAL2FLD(CY_DMA_CTL_DST_SIZE, config->dstTransferSize) |
 178              		.loc 1 64 0
 179 00ce 1343     		orrs	r3, r3, r2
  66:Generated_Source\PSoC6\pdl\drivers\peripheral\dma/cy_dma.c ****             _VAL2FLD(CY_DMA_CTL_DATA_SIZE, config->dataSize) |
 180              		.loc 1 66 0
 181 00d0 6279     		ldrb	r2, [r4, #5]	@ zero_extendqisi2
 182 00d2 1207     		lsls	r2, r2, #28
 183 00d4 02F04052 		and	r2, r2, #805306368
  65:Generated_Source\PSoC6\pdl\drivers\peripheral\dma/cy_dma.c ****             _VAL2FLD(CY_DMA_CTL_CH_DISABLE, config->channelState) |
 184              		.loc 1 65 0
 185 00d8 1343     		orrs	r3, r3, r2
  67:Generated_Source\PSoC6\pdl\drivers\peripheral\dma/cy_dma.c ****             _VAL2FLD(CY_DMA_CTL_TYPE, config->descriptorType);
 186              		.loc 1 67 0
 187 00da 227A     		ldrb	r2, [r4, #8]	@ zero_extendqisi2
  66:Generated_Source\PSoC6\pdl\drivers\peripheral\dma/cy_dma.c ****             _VAL2FLD(CY_DMA_CTL_DATA_SIZE, config->dataSize) |
 188              		.loc 1 66 0
 189 00dc 43EA8273 		orr	r3, r3, r2, lsl #30
  58:Generated_Source\PSoC6\pdl\drivers\peripheral\dma/cy_dma.c ****             _VAL2FLD(CY_DMA_CTL_RETRIG, config->retrigger) |
 190              		.loc 1 58 0
 191 00e0 2B60     		str	r3, [r5]
  68:Generated_Source\PSoC6\pdl\drivers\peripheral\dma/cy_dma.c **** 
  69:Generated_Source\PSoC6\pdl\drivers\peripheral\dma/cy_dma.c ****         descriptor->src = (uint32_t)config->srcAddress;
 192              		.loc 1 69 0
 193 00e2 E368     		ldr	r3, [r4, #12]
 194 00e4 6B60     		str	r3, [r5, #4]
  70:Generated_Source\PSoC6\pdl\drivers\peripheral\dma/cy_dma.c **** 
  71:Generated_Source\PSoC6\pdl\drivers\peripheral\dma/cy_dma.c ****         descriptor->dst = (uint32_t)config->dstAddress;
 195              		.loc 1 71 0
 196 00e6 2369     		ldr	r3, [r4, #16]
 197 00e8 AB60     		str	r3, [r5, #8]
  72:Generated_Source\PSoC6\pdl\drivers\peripheral\dma/cy_dma.c **** 
  73:Generated_Source\PSoC6\pdl\drivers\peripheral\dma/cy_dma.c ****         switch(config->descriptorType)
 198              		.loc 1 73 0
 199 00ea 237A     		ldrb	r3, [r4, #8]	@ zero_extendqisi2
 200 00ec 012B     		cmp	r3, #1
 201 00ee 07D0     		beq	.L12
 202 00f0 13B1     		cbz	r3, .L13
ARM GAS  C:\Users\cypress\AppData\Local\Temp\cczqZZvj.s 			page 6


 203 00f2 022B     		cmp	r3, #2
 204 00f4 31D0     		beq	.L14
 205 00f6 89E0     		b	.L27
 206              	.L13:
  74:Generated_Source\PSoC6\pdl\drivers\peripheral\dma/cy_dma.c ****         {
  75:Generated_Source\PSoC6\pdl\drivers\peripheral\dma/cy_dma.c ****             case CY_DMA_SINGLE_TRANSFER:
  76:Generated_Source\PSoC6\pdl\drivers\peripheral\dma/cy_dma.c ****             {
  77:Generated_Source\PSoC6\pdl\drivers\peripheral\dma/cy_dma.c ****                 descriptor->xCtl = (uint32_t)config->nextDescriptor;
 207              		.loc 1 77 0
 208 00f8 E36A     		ldr	r3, [r4, #44]
 209 00fa EB60     		str	r3, [r5, #12]
  78:Generated_Source\PSoC6\pdl\drivers\peripheral\dma/cy_dma.c ****                 break;
  79:Generated_Source\PSoC6\pdl\drivers\peripheral\dma/cy_dma.c ****             }
  80:Generated_Source\PSoC6\pdl\drivers\peripheral\dma/cy_dma.c ****             case CY_DMA_1D_TRANSFER:
  81:Generated_Source\PSoC6\pdl\drivers\peripheral\dma/cy_dma.c ****             {
  82:Generated_Source\PSoC6\pdl\drivers\peripheral\dma/cy_dma.c ****                 CY_ASSERT_L2(CY_DMA_IS_INCR_VALID(config->srcXincrement));
  83:Generated_Source\PSoC6\pdl\drivers\peripheral\dma/cy_dma.c ****                 CY_ASSERT_L2(CY_DMA_IS_INCR_VALID(config->dstXincrement));
  84:Generated_Source\PSoC6\pdl\drivers\peripheral\dma/cy_dma.c ****                 CY_ASSERT_L2(CY_DMA_IS_COUNT_VALID(config->xCount));
  85:Generated_Source\PSoC6\pdl\drivers\peripheral\dma/cy_dma.c ****                 
  86:Generated_Source\PSoC6\pdl\drivers\peripheral\dma/cy_dma.c ****                 descriptor->xCtl =
  87:Generated_Source\PSoC6\pdl\drivers\peripheral\dma/cy_dma.c ****                     _VAL2FLD(CY_DMA_CTL_SRC_INCR, config->srcXincrement) |
  88:Generated_Source\PSoC6\pdl\drivers\peripheral\dma/cy_dma.c ****                     _VAL2FLD(CY_DMA_CTL_DST_INCR, config->dstXincrement) |
  89:Generated_Source\PSoC6\pdl\drivers\peripheral\dma/cy_dma.c ****     /* Convert the data count from the user's range (1-256) into the machine range (0-255). */
  90:Generated_Source\PSoC6\pdl\drivers\peripheral\dma/cy_dma.c ****                     _VAL2FLD(CY_DMA_CTL_COUNT, config->xCount - 1UL);
  91:Generated_Source\PSoC6\pdl\drivers\peripheral\dma/cy_dma.c ****                     
  92:Generated_Source\PSoC6\pdl\drivers\peripheral\dma/cy_dma.c ****                 descriptor->yCtl = (uint32_t)config->nextDescriptor;
  93:Generated_Source\PSoC6\pdl\drivers\peripheral\dma/cy_dma.c ****                 break;
  94:Generated_Source\PSoC6\pdl\drivers\peripheral\dma/cy_dma.c ****             }
  95:Generated_Source\PSoC6\pdl\drivers\peripheral\dma/cy_dma.c ****             case CY_DMA_2D_TRANSFER:
  96:Generated_Source\PSoC6\pdl\drivers\peripheral\dma/cy_dma.c ****             {                
  97:Generated_Source\PSoC6\pdl\drivers\peripheral\dma/cy_dma.c ****                 CY_ASSERT_L2(CY_DMA_IS_INCR_VALID(config->srcXincrement));
  98:Generated_Source\PSoC6\pdl\drivers\peripheral\dma/cy_dma.c ****                 CY_ASSERT_L2(CY_DMA_IS_INCR_VALID(config->dstXincrement));
  99:Generated_Source\PSoC6\pdl\drivers\peripheral\dma/cy_dma.c ****                 CY_ASSERT_L2(CY_DMA_IS_COUNT_VALID(config->xCount));
 100:Generated_Source\PSoC6\pdl\drivers\peripheral\dma/cy_dma.c ****                 CY_ASSERT_L2(CY_DMA_IS_INCR_VALID(config->srcYincrement));
 101:Generated_Source\PSoC6\pdl\drivers\peripheral\dma/cy_dma.c ****                 CY_ASSERT_L2(CY_DMA_IS_INCR_VALID(config->dstYincrement));
 102:Generated_Source\PSoC6\pdl\drivers\peripheral\dma/cy_dma.c ****                 CY_ASSERT_L2(CY_DMA_IS_COUNT_VALID(config->yCount));
 103:Generated_Source\PSoC6\pdl\drivers\peripheral\dma/cy_dma.c ****                 
 104:Generated_Source\PSoC6\pdl\drivers\peripheral\dma/cy_dma.c ****                 descriptor->xCtl =
 105:Generated_Source\PSoC6\pdl\drivers\peripheral\dma/cy_dma.c ****                     _VAL2FLD(CY_DMA_CTL_SRC_INCR, config->srcXincrement) |
 106:Generated_Source\PSoC6\pdl\drivers\peripheral\dma/cy_dma.c ****                     _VAL2FLD(CY_DMA_CTL_DST_INCR, config->dstXincrement) |
 107:Generated_Source\PSoC6\pdl\drivers\peripheral\dma/cy_dma.c ****     /* Convert the data count from the user's range (1-256) into the machine range (0-255). */
 108:Generated_Source\PSoC6\pdl\drivers\peripheral\dma/cy_dma.c ****                     _VAL2FLD(CY_DMA_CTL_COUNT, config->xCount - 1UL);
 109:Generated_Source\PSoC6\pdl\drivers\peripheral\dma/cy_dma.c ****                     
 110:Generated_Source\PSoC6\pdl\drivers\peripheral\dma/cy_dma.c ****                 descriptor->yCtl =
 111:Generated_Source\PSoC6\pdl\drivers\peripheral\dma/cy_dma.c ****                     _VAL2FLD(CY_DMA_CTL_SRC_INCR, config->srcYincrement) |
 112:Generated_Source\PSoC6\pdl\drivers\peripheral\dma/cy_dma.c ****                     _VAL2FLD(CY_DMA_CTL_DST_INCR, config->dstYincrement) |
 113:Generated_Source\PSoC6\pdl\drivers\peripheral\dma/cy_dma.c ****     /* Convert the data count from the user's range (1-256) into the machine range (0-255). */
 114:Generated_Source\PSoC6\pdl\drivers\peripheral\dma/cy_dma.c ****                     _VAL2FLD(CY_DMA_CTL_COUNT, config->yCount - 1UL);
 115:Generated_Source\PSoC6\pdl\drivers\peripheral\dma/cy_dma.c ****                     
 116:Generated_Source\PSoC6\pdl\drivers\peripheral\dma/cy_dma.c ****                 descriptor->nextPtr = (uint32_t)config->nextDescriptor;
 117:Generated_Source\PSoC6\pdl\drivers\peripheral\dma/cy_dma.c ****                 break;
 118:Generated_Source\PSoC6\pdl\drivers\peripheral\dma/cy_dma.c ****             }
 119:Generated_Source\PSoC6\pdl\drivers\peripheral\dma/cy_dma.c ****             default:
 120:Generated_Source\PSoC6\pdl\drivers\peripheral\dma/cy_dma.c ****             {
 121:Generated_Source\PSoC6\pdl\drivers\peripheral\dma/cy_dma.c ****                 /* An unsupported type of a descriptor */
 122:Generated_Source\PSoC6\pdl\drivers\peripheral\dma/cy_dma.c ****                 break;
 123:Generated_Source\PSoC6\pdl\drivers\peripheral\dma/cy_dma.c ****             }
ARM GAS  C:\Users\cypress\AppData\Local\Temp\cczqZZvj.s 			page 7


 124:Generated_Source\PSoC6\pdl\drivers\peripheral\dma/cy_dma.c ****         }
 125:Generated_Source\PSoC6\pdl\drivers\peripheral\dma/cy_dma.c **** 
 126:Generated_Source\PSoC6\pdl\drivers\peripheral\dma/cy_dma.c ****         retVal = CY_DMA_SUCCESS;
 210              		.loc 1 126 0
 211 00fc 0020     		movs	r0, #0
  78:Generated_Source\PSoC6\pdl\drivers\peripheral\dma/cy_dma.c ****                 break;
 212              		.loc 1 78 0
 213 00fe 38BD     		pop	{r3, r4, r5, pc}
 214              	.LVL12:
 215              	.L12:
  82:Generated_Source\PSoC6\pdl\drivers\peripheral\dma/cy_dma.c ****                 CY_ASSERT_L2(CY_DMA_IS_INCR_VALID(config->dstXincrement));
 216              		.loc 1 82 0
 217 0100 6369     		ldr	r3, [r4, #20]
 218 0102 03F50063 		add	r3, r3, #2048
 219 0106 B3F5805F 		cmp	r3, #4096
 220 010a 03D3     		bcc	.L15
  82:Generated_Source\PSoC6\pdl\drivers\peripheral\dma/cy_dma.c ****                 CY_ASSERT_L2(CY_DMA_IS_INCR_VALID(config->dstXincrement));
 221              		.loc 1 82 0 is_stmt 0 discriminator 1
 222 010c 5221     		movs	r1, #82
 223 010e 4048     		ldr	r0, .L29
 224 0110 FFF7FEFF 		bl	Cy_SysLib_AssertFailed
 225              	.LVL13:
 226              	.L15:
  83:Generated_Source\PSoC6\pdl\drivers\peripheral\dma/cy_dma.c ****                 CY_ASSERT_L2(CY_DMA_IS_COUNT_VALID(config->xCount));
 227              		.loc 1 83 0 is_stmt 1
 228 0114 A369     		ldr	r3, [r4, #24]
 229 0116 03F50063 		add	r3, r3, #2048
 230 011a B3F5805F 		cmp	r3, #4096
 231 011e 03D3     		bcc	.L16
  83:Generated_Source\PSoC6\pdl\drivers\peripheral\dma/cy_dma.c ****                 CY_ASSERT_L2(CY_DMA_IS_COUNT_VALID(config->xCount));
 232              		.loc 1 83 0 is_stmt 0 discriminator 1
 233 0120 5321     		movs	r1, #83
 234 0122 3B48     		ldr	r0, .L29
 235 0124 FFF7FEFF 		bl	Cy_SysLib_AssertFailed
 236              	.LVL14:
 237              	.L16:
  84:Generated_Source\PSoC6\pdl\drivers\peripheral\dma/cy_dma.c ****                 
 238              		.loc 1 84 0 is_stmt 1
 239 0128 E369     		ldr	r3, [r4, #28]
 240 012a 013B     		subs	r3, r3, #1
 241 012c FF2B     		cmp	r3, #255
 242 012e 03D9     		bls	.L17
  84:Generated_Source\PSoC6\pdl\drivers\peripheral\dma/cy_dma.c ****                 
 243              		.loc 1 84 0 is_stmt 0 discriminator 1
 244 0130 5421     		movs	r1, #84
 245 0132 3748     		ldr	r0, .L29
 246 0134 FFF7FEFF 		bl	Cy_SysLib_AssertFailed
 247              	.LVL15:
 248              	.L17:
  87:Generated_Source\PSoC6\pdl\drivers\peripheral\dma/cy_dma.c ****                     _VAL2FLD(CY_DMA_CTL_DST_INCR, config->dstXincrement) |
 249              		.loc 1 87 0 is_stmt 1
 250 0138 6369     		ldr	r3, [r4, #20]
 251 013a C3F30B02 		ubfx	r2, r3, #0, #12
  88:Generated_Source\PSoC6\pdl\drivers\peripheral\dma/cy_dma.c ****     /* Convert the data count from the user's range (1-256) into the machine range (0-255). */
 252              		.loc 1 88 0
 253 013e A369     		ldr	r3, [r4, #24]
 254 0140 3449     		ldr	r1, .L29+4
ARM GAS  C:\Users\cypress\AppData\Local\Temp\cczqZZvj.s 			page 8


 255 0142 01EA0333 		and	r3, r1, r3, lsl #12
  87:Generated_Source\PSoC6\pdl\drivers\peripheral\dma/cy_dma.c ****                     _VAL2FLD(CY_DMA_CTL_DST_INCR, config->dstXincrement) |
 256              		.loc 1 87 0
 257 0146 1A43     		orrs	r2, r2, r3
  90:Generated_Source\PSoC6\pdl\drivers\peripheral\dma/cy_dma.c ****                     
 258              		.loc 1 90 0
 259 0148 E369     		ldr	r3, [r4, #28]
 260 014a 013B     		subs	r3, r3, #1
  88:Generated_Source\PSoC6\pdl\drivers\peripheral\dma/cy_dma.c ****     /* Convert the data count from the user's range (1-256) into the machine range (0-255). */
 261              		.loc 1 88 0
 262 014c 42EA0363 		orr	r3, r2, r3, lsl #24
  86:Generated_Source\PSoC6\pdl\drivers\peripheral\dma/cy_dma.c ****                     _VAL2FLD(CY_DMA_CTL_SRC_INCR, config->srcXincrement) |
 263              		.loc 1 86 0
 264 0150 EB60     		str	r3, [r5, #12]
  92:Generated_Source\PSoC6\pdl\drivers\peripheral\dma/cy_dma.c ****                 break;
 265              		.loc 1 92 0
 266 0152 E36A     		ldr	r3, [r4, #44]
 267 0154 2B61     		str	r3, [r5, #16]
 268              		.loc 1 126 0
 269 0156 0020     		movs	r0, #0
  93:Generated_Source\PSoC6\pdl\drivers\peripheral\dma/cy_dma.c ****             }
 270              		.loc 1 93 0
 271 0158 38BD     		pop	{r3, r4, r5, pc}
 272              	.LVL16:
 273              	.L14:
  97:Generated_Source\PSoC6\pdl\drivers\peripheral\dma/cy_dma.c ****                 CY_ASSERT_L2(CY_DMA_IS_INCR_VALID(config->dstXincrement));
 274              		.loc 1 97 0
 275 015a 6369     		ldr	r3, [r4, #20]
 276 015c 03F50063 		add	r3, r3, #2048
 277 0160 B3F5805F 		cmp	r3, #4096
 278 0164 03D3     		bcc	.L18
  97:Generated_Source\PSoC6\pdl\drivers\peripheral\dma/cy_dma.c ****                 CY_ASSERT_L2(CY_DMA_IS_INCR_VALID(config->dstXincrement));
 279              		.loc 1 97 0 is_stmt 0 discriminator 1
 280 0166 6121     		movs	r1, #97
 281 0168 2948     		ldr	r0, .L29
 282 016a FFF7FEFF 		bl	Cy_SysLib_AssertFailed
 283              	.LVL17:
 284              	.L18:
  98:Generated_Source\PSoC6\pdl\drivers\peripheral\dma/cy_dma.c ****                 CY_ASSERT_L2(CY_DMA_IS_COUNT_VALID(config->xCount));
 285              		.loc 1 98 0 is_stmt 1
 286 016e A369     		ldr	r3, [r4, #24]
 287 0170 03F50063 		add	r3, r3, #2048
 288 0174 B3F5805F 		cmp	r3, #4096
 289 0178 03D3     		bcc	.L19
  98:Generated_Source\PSoC6\pdl\drivers\peripheral\dma/cy_dma.c ****                 CY_ASSERT_L2(CY_DMA_IS_COUNT_VALID(config->xCount));
 290              		.loc 1 98 0 is_stmt 0 discriminator 1
 291 017a 6221     		movs	r1, #98
 292 017c 2448     		ldr	r0, .L29
 293 017e FFF7FEFF 		bl	Cy_SysLib_AssertFailed
 294              	.LVL18:
 295              	.L19:
  99:Generated_Source\PSoC6\pdl\drivers\peripheral\dma/cy_dma.c ****                 CY_ASSERT_L2(CY_DMA_IS_INCR_VALID(config->srcYincrement));
 296              		.loc 1 99 0 is_stmt 1
 297 0182 E369     		ldr	r3, [r4, #28]
 298 0184 013B     		subs	r3, r3, #1
 299 0186 FF2B     		cmp	r3, #255
 300 0188 03D9     		bls	.L20
ARM GAS  C:\Users\cypress\AppData\Local\Temp\cczqZZvj.s 			page 9


  99:Generated_Source\PSoC6\pdl\drivers\peripheral\dma/cy_dma.c ****                 CY_ASSERT_L2(CY_DMA_IS_INCR_VALID(config->srcYincrement));
 301              		.loc 1 99 0 is_stmt 0 discriminator 1
 302 018a 6321     		movs	r1, #99
 303 018c 2048     		ldr	r0, .L29
 304 018e FFF7FEFF 		bl	Cy_SysLib_AssertFailed
 305              	.LVL19:
 306              	.L20:
 100:Generated_Source\PSoC6\pdl\drivers\peripheral\dma/cy_dma.c ****                 CY_ASSERT_L2(CY_DMA_IS_INCR_VALID(config->dstYincrement));
 307              		.loc 1 100 0 is_stmt 1
 308 0192 236A     		ldr	r3, [r4, #32]
 309 0194 03F50063 		add	r3, r3, #2048
 310 0198 B3F5805F 		cmp	r3, #4096
 311 019c 03D3     		bcc	.L21
 100:Generated_Source\PSoC6\pdl\drivers\peripheral\dma/cy_dma.c ****                 CY_ASSERT_L2(CY_DMA_IS_INCR_VALID(config->dstYincrement));
 312              		.loc 1 100 0 is_stmt 0 discriminator 1
 313 019e 6421     		movs	r1, #100
 314 01a0 1B48     		ldr	r0, .L29
 315 01a2 FFF7FEFF 		bl	Cy_SysLib_AssertFailed
 316              	.LVL20:
 317              	.L21:
 101:Generated_Source\PSoC6\pdl\drivers\peripheral\dma/cy_dma.c ****                 CY_ASSERT_L2(CY_DMA_IS_COUNT_VALID(config->yCount));
 318              		.loc 1 101 0 is_stmt 1
 319 01a6 636A     		ldr	r3, [r4, #36]
 320 01a8 03F50063 		add	r3, r3, #2048
 321 01ac B3F5805F 		cmp	r3, #4096
 322 01b0 03D3     		bcc	.L22
 101:Generated_Source\PSoC6\pdl\drivers\peripheral\dma/cy_dma.c ****                 CY_ASSERT_L2(CY_DMA_IS_COUNT_VALID(config->yCount));
 323              		.loc 1 101 0 is_stmt 0 discriminator 1
 324 01b2 6521     		movs	r1, #101
 325 01b4 1648     		ldr	r0, .L29
 326 01b6 FFF7FEFF 		bl	Cy_SysLib_AssertFailed
 327              	.LVL21:
 328              	.L22:
 102:Generated_Source\PSoC6\pdl\drivers\peripheral\dma/cy_dma.c ****                 
 329              		.loc 1 102 0 is_stmt 1
 330 01ba A36A     		ldr	r3, [r4, #40]
 331 01bc 013B     		subs	r3, r3, #1
 332 01be FF2B     		cmp	r3, #255
 333 01c0 03D9     		bls	.L23
 102:Generated_Source\PSoC6\pdl\drivers\peripheral\dma/cy_dma.c ****                 
 334              		.loc 1 102 0 is_stmt 0 discriminator 1
 335 01c2 6621     		movs	r1, #102
 336 01c4 1248     		ldr	r0, .L29
 337 01c6 FFF7FEFF 		bl	Cy_SysLib_AssertFailed
 338              	.LVL22:
 339              	.L23:
 105:Generated_Source\PSoC6\pdl\drivers\peripheral\dma/cy_dma.c ****                     _VAL2FLD(CY_DMA_CTL_DST_INCR, config->dstXincrement) |
 340              		.loc 1 105 0 is_stmt 1
 341 01ca 6269     		ldr	r2, [r4, #20]
 342 01cc C2F30B01 		ubfx	r1, r2, #0, #12
 106:Generated_Source\PSoC6\pdl\drivers\peripheral\dma/cy_dma.c ****     /* Convert the data count from the user's range (1-256) into the machine range (0-255). */
 343              		.loc 1 106 0
 344 01d0 A269     		ldr	r2, [r4, #24]
 345 01d2 104B     		ldr	r3, .L29+4
 346 01d4 03EA0232 		and	r2, r3, r2, lsl #12
 105:Generated_Source\PSoC6\pdl\drivers\peripheral\dma/cy_dma.c ****                     _VAL2FLD(CY_DMA_CTL_DST_INCR, config->dstXincrement) |
 347              		.loc 1 105 0
ARM GAS  C:\Users\cypress\AppData\Local\Temp\cczqZZvj.s 			page 10


 348 01d8 0A43     		orrs	r2, r2, r1
 108:Generated_Source\PSoC6\pdl\drivers\peripheral\dma/cy_dma.c ****                     
 349              		.loc 1 108 0
 350 01da E169     		ldr	r1, [r4, #28]
 351 01dc 0139     		subs	r1, r1, #1
 106:Generated_Source\PSoC6\pdl\drivers\peripheral\dma/cy_dma.c ****     /* Convert the data count from the user's range (1-256) into the machine range (0-255). */
 352              		.loc 1 106 0
 353 01de 42EA0162 		orr	r2, r2, r1, lsl #24
 104:Generated_Source\PSoC6\pdl\drivers\peripheral\dma/cy_dma.c ****                     _VAL2FLD(CY_DMA_CTL_SRC_INCR, config->srcXincrement) |
 354              		.loc 1 104 0
 355 01e2 EA60     		str	r2, [r5, #12]
 111:Generated_Source\PSoC6\pdl\drivers\peripheral\dma/cy_dma.c ****                     _VAL2FLD(CY_DMA_CTL_DST_INCR, config->dstYincrement) |
 356              		.loc 1 111 0
 357 01e4 226A     		ldr	r2, [r4, #32]
 358 01e6 C2F30B02 		ubfx	r2, r2, #0, #12
 112:Generated_Source\PSoC6\pdl\drivers\peripheral\dma/cy_dma.c ****     /* Convert the data count from the user's range (1-256) into the machine range (0-255). */
 359              		.loc 1 112 0
 360 01ea 616A     		ldr	r1, [r4, #36]
 361 01ec 03EA0133 		and	r3, r3, r1, lsl #12
 111:Generated_Source\PSoC6\pdl\drivers\peripheral\dma/cy_dma.c ****                     _VAL2FLD(CY_DMA_CTL_DST_INCR, config->dstYincrement) |
 362              		.loc 1 111 0
 363 01f0 1343     		orrs	r3, r3, r2
 114:Generated_Source\PSoC6\pdl\drivers\peripheral\dma/cy_dma.c ****                     
 364              		.loc 1 114 0
 365 01f2 A26A     		ldr	r2, [r4, #40]
 366 01f4 013A     		subs	r2, r2, #1
 112:Generated_Source\PSoC6\pdl\drivers\peripheral\dma/cy_dma.c ****     /* Convert the data count from the user's range (1-256) into the machine range (0-255). */
 367              		.loc 1 112 0
 368 01f6 43EA0263 		orr	r3, r3, r2, lsl #24
 110:Generated_Source\PSoC6\pdl\drivers\peripheral\dma/cy_dma.c ****                     _VAL2FLD(CY_DMA_CTL_SRC_INCR, config->srcYincrement) |
 369              		.loc 1 110 0
 370 01fa 2B61     		str	r3, [r5, #16]
 116:Generated_Source\PSoC6\pdl\drivers\peripheral\dma/cy_dma.c ****                 break;
 371              		.loc 1 116 0
 372 01fc E36A     		ldr	r3, [r4, #44]
 373 01fe 6B61     		str	r3, [r5, #20]
 374              		.loc 1 126 0
 375 0200 0020     		movs	r0, #0
 117:Generated_Source\PSoC6\pdl\drivers\peripheral\dma/cy_dma.c ****             }
 376              		.loc 1 117 0
 377 0202 38BD     		pop	{r3, r4, r5, pc}
 378              	.LVL23:
 379              	.L24:
 380              		.cfi_def_cfa_offset 0
 381              		.cfi_restore 3
 382              		.cfi_restore 4
 383              		.cfi_restore 5
 384              		.cfi_restore 14
  44:Generated_Source\PSoC6\pdl\drivers\peripheral\dma/cy_dma.c **** 
 385              		.loc 1 44 0
 386 0204 0448     		ldr	r0, .L29+8
 387              	.LVL24:
 127:Generated_Source\PSoC6\pdl\drivers\peripheral\dma/cy_dma.c ****     }
 128:Generated_Source\PSoC6\pdl\drivers\peripheral\dma/cy_dma.c **** 
 129:Generated_Source\PSoC6\pdl\drivers\peripheral\dma/cy_dma.c ****     return retVal;
 130:Generated_Source\PSoC6\pdl\drivers\peripheral\dma/cy_dma.c **** }
 388              		.loc 1 130 0
ARM GAS  C:\Users\cypress\AppData\Local\Temp\cczqZZvj.s 			page 11


 389 0206 7047     		bx	lr
 390              	.LVL25:
 391              	.L25:
 392              		.cfi_def_cfa_offset 16
 393              		.cfi_offset 3, -16
 394              		.cfi_offset 4, -12
 395              		.cfi_offset 5, -8
 396              		.cfi_offset 14, -4
  44:Generated_Source\PSoC6\pdl\drivers\peripheral\dma/cy_dma.c **** 
 397              		.loc 1 44 0
 398 0208 0348     		ldr	r0, .L29+8
 399              	.LVL26:
 400 020a 38BD     		pop	{r3, r4, r5, pc}
 401              	.LVL27:
 402              	.L27:
 126:Generated_Source\PSoC6\pdl\drivers\peripheral\dma/cy_dma.c ****     }
 403              		.loc 1 126 0
 404 020c 0020     		movs	r0, #0
 405              	.LVL28:
 406              		.loc 1 130 0
 407 020e 38BD     		pop	{r3, r4, r5, pc}
 408              	.LVL29:
 409              	.L30:
 410              		.align	2
 411              	.L29:
 412 0210 00000000 		.word	.LC0
 413 0214 00F0FF00 		.word	16773120
 414 0218 01004E00 		.word	5111809
 415              		.cfi_endproc
 416              	.LFE176:
 417              		.size	Cy_DMA_Descriptor_Init, .-Cy_DMA_Descriptor_Init
 418              		.section	.text.Cy_DMA_Descriptor_DeInit,"ax",%progbits
 419              		.align	2
 420              		.global	Cy_DMA_Descriptor_DeInit
 421              		.thumb
 422              		.thumb_func
 423              		.type	Cy_DMA_Descriptor_DeInit, %function
 424              	Cy_DMA_Descriptor_DeInit:
 425              	.LFB177:
 131:Generated_Source\PSoC6\pdl\drivers\peripheral\dma/cy_dma.c **** 
 132:Generated_Source\PSoC6\pdl\drivers\peripheral\dma/cy_dma.c **** 
 133:Generated_Source\PSoC6\pdl\drivers\peripheral\dma/cy_dma.c **** /*******************************************************************************
 134:Generated_Source\PSoC6\pdl\drivers\peripheral\dma/cy_dma.c **** * Function Name: Cy_DMA_Descriptor_DeInit
 135:Generated_Source\PSoC6\pdl\drivers\peripheral\dma/cy_dma.c **** ****************************************************************************//**
 136:Generated_Source\PSoC6\pdl\drivers\peripheral\dma/cy_dma.c **** *
 137:Generated_Source\PSoC6\pdl\drivers\peripheral\dma/cy_dma.c **** * Clears the content of the specified descriptor.
 138:Generated_Source\PSoC6\pdl\drivers\peripheral\dma/cy_dma.c **** *
 139:Generated_Source\PSoC6\pdl\drivers\peripheral\dma/cy_dma.c **** * \param descriptor
 140:Generated_Source\PSoC6\pdl\drivers\peripheral\dma/cy_dma.c **** * The descriptor structure instance declared by the user/component.
 141:Generated_Source\PSoC6\pdl\drivers\peripheral\dma/cy_dma.c **** *
 142:Generated_Source\PSoC6\pdl\drivers\peripheral\dma/cy_dma.c **** *******************************************************************************/
 143:Generated_Source\PSoC6\pdl\drivers\peripheral\dma/cy_dma.c **** void Cy_DMA_Descriptor_DeInit(cy_stc_dma_descriptor_t * descriptor)
 144:Generated_Source\PSoC6\pdl\drivers\peripheral\dma/cy_dma.c **** {
 426              		.loc 1 144 0
 427              		.cfi_startproc
 428              		@ args = 0, pretend = 0, frame = 0
 429              		@ frame_needed = 0, uses_anonymous_args = 0
ARM GAS  C:\Users\cypress\AppData\Local\Temp\cczqZZvj.s 			page 12


 430              		@ link register save eliminated.
 431              	.LVL30:
 145:Generated_Source\PSoC6\pdl\drivers\peripheral\dma/cy_dma.c ****     descriptor->ctl = 0UL;
 432              		.loc 1 145 0
 433 0000 0023     		movs	r3, #0
 434 0002 0360     		str	r3, [r0]
 146:Generated_Source\PSoC6\pdl\drivers\peripheral\dma/cy_dma.c ****     descriptor->src = 0UL;
 435              		.loc 1 146 0
 436 0004 4360     		str	r3, [r0, #4]
 147:Generated_Source\PSoC6\pdl\drivers\peripheral\dma/cy_dma.c ****     descriptor->dst = 0UL;
 437              		.loc 1 147 0
 438 0006 8360     		str	r3, [r0, #8]
 148:Generated_Source\PSoC6\pdl\drivers\peripheral\dma/cy_dma.c ****     descriptor->xCtl = 0UL;
 439              		.loc 1 148 0
 440 0008 C360     		str	r3, [r0, #12]
 149:Generated_Source\PSoC6\pdl\drivers\peripheral\dma/cy_dma.c ****     descriptor->yCtl = 0UL;
 441              		.loc 1 149 0
 442 000a 0361     		str	r3, [r0, #16]
 150:Generated_Source\PSoC6\pdl\drivers\peripheral\dma/cy_dma.c ****     descriptor->nextPtr = 0UL;
 443              		.loc 1 150 0
 444 000c 4361     		str	r3, [r0, #20]
 445 000e 7047     		bx	lr
 446              		.cfi_endproc
 447              	.LFE177:
 448              		.size	Cy_DMA_Descriptor_DeInit, .-Cy_DMA_Descriptor_DeInit
 449              		.section	.text.Cy_DMA_Channel_Init,"ax",%progbits
 450              		.align	2
 451              		.global	Cy_DMA_Channel_Init
 452              		.thumb
 453              		.thumb_func
 454              		.type	Cy_DMA_Channel_Init, %function
 455              	Cy_DMA_Channel_Init:
 456              	.LFB178:
 151:Generated_Source\PSoC6\pdl\drivers\peripheral\dma/cy_dma.c **** }
 152:Generated_Source\PSoC6\pdl\drivers\peripheral\dma/cy_dma.c **** 
 153:Generated_Source\PSoC6\pdl\drivers\peripheral\dma/cy_dma.c **** 
 154:Generated_Source\PSoC6\pdl\drivers\peripheral\dma/cy_dma.c **** /*******************************************************************************
 155:Generated_Source\PSoC6\pdl\drivers\peripheral\dma/cy_dma.c **** * Function Name: Cy_DMA_Channel_Init
 156:Generated_Source\PSoC6\pdl\drivers\peripheral\dma/cy_dma.c **** ****************************************************************************//**
 157:Generated_Source\PSoC6\pdl\drivers\peripheral\dma/cy_dma.c **** *
 158:Generated_Source\PSoC6\pdl\drivers\peripheral\dma/cy_dma.c **** * Initializes the DMA channel with a descriptor and other parameters.
 159:Generated_Source\PSoC6\pdl\drivers\peripheral\dma/cy_dma.c **** *
 160:Generated_Source\PSoC6\pdl\drivers\peripheral\dma/cy_dma.c **** * \param base
 161:Generated_Source\PSoC6\pdl\drivers\peripheral\dma/cy_dma.c **** * The pointer to the hardware DMA block.
 162:Generated_Source\PSoC6\pdl\drivers\peripheral\dma/cy_dma.c **** *
 163:Generated_Source\PSoC6\pdl\drivers\peripheral\dma/cy_dma.c **** * \param channel
 164:Generated_Source\PSoC6\pdl\drivers\peripheral\dma/cy_dma.c **** * A channel number.
 165:Generated_Source\PSoC6\pdl\drivers\peripheral\dma/cy_dma.c **** *
 166:Generated_Source\PSoC6\pdl\drivers\peripheral\dma/cy_dma.c **** * \param channelConfig
 167:Generated_Source\PSoC6\pdl\drivers\peripheral\dma/cy_dma.c **** * The structure that has the initialization information for the
 168:Generated_Source\PSoC6\pdl\drivers\peripheral\dma/cy_dma.c **** * channel.
 169:Generated_Source\PSoC6\pdl\drivers\peripheral\dma/cy_dma.c **** *
 170:Generated_Source\PSoC6\pdl\drivers\peripheral\dma/cy_dma.c **** * \return
 171:Generated_Source\PSoC6\pdl\drivers\peripheral\dma/cy_dma.c **** * The status /ref cy_en_dma_status_t.
 172:Generated_Source\PSoC6\pdl\drivers\peripheral\dma/cy_dma.c **** *
 173:Generated_Source\PSoC6\pdl\drivers\peripheral\dma/cy_dma.c **** *******************************************************************************/
 174:Generated_Source\PSoC6\pdl\drivers\peripheral\dma/cy_dma.c **** cy_en_dma_status_t Cy_DMA_Channel_Init(DW_Type * base, uint32_t channel, cy_stc_dma_channel_config_
ARM GAS  C:\Users\cypress\AppData\Local\Temp\cczqZZvj.s 			page 13


 175:Generated_Source\PSoC6\pdl\drivers\peripheral\dma/cy_dma.c **** {
 457              		.loc 1 175 0
 458              		.cfi_startproc
 459              		@ args = 0, pretend = 0, frame = 0
 460              		@ frame_needed = 0, uses_anonymous_args = 0
 461              	.LVL31:
 176:Generated_Source\PSoC6\pdl\drivers\peripheral\dma/cy_dma.c ****     cy_en_dma_status_t retVal = CY_DMA_BAD_PARAM;
 177:Generated_Source\PSoC6\pdl\drivers\peripheral\dma/cy_dma.c **** 
 178:Generated_Source\PSoC6\pdl\drivers\peripheral\dma/cy_dma.c ****     if (((CY_DMA_IS_DW_CH_NR_VALID(base, channel)) && (NULL != channelConfig) && (NULL != channelCo
 462              		.loc 1 178 0
 463 0000 214B     		ldr	r3, .L48
 464 0002 9842     		cmp	r0, r3
 465 0004 03D0     		beq	.L33
 466              		.loc 1 178 0 is_stmt 0 discriminator 2
 467 0006 03F58053 		add	r3, r3, #4096
 468 000a 9842     		cmp	r0, r3
 469 000c 34D1     		bne	.L39
 470              	.L33:
 471              		.loc 1 178 0 discriminator 3
 472 000e 0F29     		cmp	r1, #15
 473 0010 34D8     		bhi	.L40
 474              		.loc 1 178 0 discriminator 4
 475 0012 002A     		cmp	r2, #0
 476 0014 34D0     		beq	.L41
 477              		.loc 1 178 0 discriminator 5
 478 0016 1368     		ldr	r3, [r2]
 479 0018 002B     		cmp	r3, #0
 480 001a 33D0     		beq	.L42
 175:Generated_Source\PSoC6\pdl\drivers\peripheral\dma/cy_dma.c ****     cy_en_dma_status_t retVal = CY_DMA_BAD_PARAM;
 481              		.loc 1 175 0 is_stmt 1
 482 001c 70B5     		push	{r4, r5, r6, lr}
 483              		.cfi_def_cfa_offset 16
 484              		.cfi_offset 4, -16
 485              		.cfi_offset 5, -12
 486              		.cfi_offset 6, -8
 487              		.cfi_offset 14, -4
 488 001e 1646     		mov	r6, r2
 489 0020 0D46     		mov	r5, r1
 490 0022 0446     		mov	r4, r0
 179:Generated_Source\PSoC6\pdl\drivers\peripheral\dma/cy_dma.c ****     {
 180:Generated_Source\PSoC6\pdl\drivers\peripheral\dma/cy_dma.c ****         CY_ASSERT_L2(CY_DMA_IS_PRIORITY_VALID(channelConfig->priority));
 491              		.loc 1 180 0
 492 0024 9368     		ldr	r3, [r2, #8]
 493 0026 032B     		cmp	r3, #3
 494 0028 03D9     		bls	.L35
 495              		.loc 1 180 0 is_stmt 0 discriminator 1
 496 002a B421     		movs	r1, #180
 497              	.LVL32:
 498 002c 1748     		ldr	r0, .L48+4
 499              	.LVL33:
 500 002e FFF7FEFF 		bl	Cy_SysLib_AssertFailed
 501              	.LVL34:
 502              	.L35:
 181:Generated_Source\PSoC6\pdl\drivers\peripheral\dma/cy_dma.c ****         
 182:Generated_Source\PSoC6\pdl\drivers\peripheral\dma/cy_dma.c ****         /* Set the current descriptor */
 183:Generated_Source\PSoC6\pdl\drivers\peripheral\dma/cy_dma.c ****         base->CH_STRUCT[channel].CH_CURR_PTR = (uint32_t)channelConfig->descriptor;
 503              		.loc 1 183 0 is_stmt 1
ARM GAS  C:\Users\cypress\AppData\Local\Temp\cczqZZvj.s 			page 14


 504 0032 3268     		ldr	r2, [r6]
 505 0034 04EB4513 		add	r3, r4, r5, lsl #5
 506 0038 C3F80C28 		str	r2, [r3, #2060]
 184:Generated_Source\PSoC6\pdl\drivers\peripheral\dma/cy_dma.c **** 
 185:Generated_Source\PSoC6\pdl\drivers\peripheral\dma/cy_dma.c ****         /* Set the channel configuration */
 186:Generated_Source\PSoC6\pdl\drivers\peripheral\dma/cy_dma.c ****         base->CH_STRUCT[channel].CH_CTL = _BOOL2FLD(DW_CH_STRUCT_CH_CTL_PREEMPTABLE, channelConfig-
 507              		.loc 1 186 0
 508 003c 3379     		ldrb	r3, [r6, #4]	@ zero_extendqisi2
 509 003e 13B1     		cbz	r3, .L43
 510 0040 4FF48022 		mov	r2, #262144
 511 0044 00E0     		b	.L36
 512              	.L43:
 513 0046 0022     		movs	r2, #0
 514              	.L36:
 187:Generated_Source\PSoC6\pdl\drivers\peripheral\dma/cy_dma.c ****                                            _VAL2FLD(DW_CH_STRUCT_CH_CTL_PRIO,        channelConfig-
 515              		.loc 1 187 0
 516 0048 B368     		ldr	r3, [r6, #8]
 517 004a 1B04     		lsls	r3, r3, #16
 518 004c 03F44033 		and	r3, r3, #196608
 186:Generated_Source\PSoC6\pdl\drivers\peripheral\dma/cy_dma.c ****                                            _VAL2FLD(DW_CH_STRUCT_CH_CTL_PRIO,        channelConfig-
 519              		.loc 1 186 0
 520 0050 1343     		orrs	r3, r3, r2
 188:Generated_Source\PSoC6\pdl\drivers\peripheral\dma/cy_dma.c ****                                           _BOOL2FLD(DW_CH_STRUCT_CH_CTL_ENABLED,     channelConfig-
 521              		.loc 1 188 0
 522 0052 327B     		ldrb	r2, [r6, #12]	@ zero_extendqisi2
 523 0054 12B1     		cbz	r2, .L44
 524 0056 4FF00042 		mov	r2, #-2147483648
 525 005a 00E0     		b	.L37
 526              	.L44:
 527 005c 0022     		movs	r2, #0
 528              	.L37:
 187:Generated_Source\PSoC6\pdl\drivers\peripheral\dma/cy_dma.c ****                                            _VAL2FLD(DW_CH_STRUCT_CH_CTL_PRIO,        channelConfig-
 529              		.loc 1 187 0
 530 005e 1343     		orrs	r3, r3, r2
 189:Generated_Source\PSoC6\pdl\drivers\peripheral\dma/cy_dma.c ****                                           _BOOL2FLD(DW_CH_STRUCT_CH_CTL_B,           channelConfig-
 531              		.loc 1 189 0
 532 0060 727B     		ldrb	r2, [r6, #13]	@ zero_extendqisi2
 533 0062 0AB1     		cbz	r2, .L45
 534 0064 0422     		movs	r2, #4
 535 0066 00E0     		b	.L38
 536              	.L45:
 537 0068 0022     		movs	r2, #0
 538              	.L38:
 188:Generated_Source\PSoC6\pdl\drivers\peripheral\dma/cy_dma.c ****                                           _BOOL2FLD(DW_CH_STRUCT_CH_CTL_ENABLED,     channelConfig-
 539              		.loc 1 188 0
 540 006a 1343     		orrs	r3, r3, r2
 186:Generated_Source\PSoC6\pdl\drivers\peripheral\dma/cy_dma.c ****                                            _VAL2FLD(DW_CH_STRUCT_CH_CTL_PRIO,        channelConfig-
 541              		.loc 1 186 0
 542 006c 05F14001 		add	r1, r5, #64
 543 0070 4901     		lsls	r1, r1, #5
 544 0072 6350     		str	r3, [r4, r1]
 545              	.LVL35:
 190:Generated_Source\PSoC6\pdl\drivers\peripheral\dma/cy_dma.c ****         retVal = CY_DMA_SUCCESS;
 546              		.loc 1 190 0
 547 0074 0020     		movs	r0, #0
 548 0076 70BD     		pop	{r4, r5, r6, pc}
 549              	.LVL36:
ARM GAS  C:\Users\cypress\AppData\Local\Temp\cczqZZvj.s 			page 15


 550              	.L39:
 551              		.cfi_def_cfa_offset 0
 552              		.cfi_restore 4
 553              		.cfi_restore 5
 554              		.cfi_restore 6
 555              		.cfi_restore 14
 176:Generated_Source\PSoC6\pdl\drivers\peripheral\dma/cy_dma.c **** 
 556              		.loc 1 176 0
 557 0078 0548     		ldr	r0, .L48+8
 558              	.LVL37:
 559 007a 7047     		bx	lr
 560              	.LVL38:
 561              	.L40:
 562 007c 0448     		ldr	r0, .L48+8
 563              	.LVL39:
 191:Generated_Source\PSoC6\pdl\drivers\peripheral\dma/cy_dma.c ****     }
 192:Generated_Source\PSoC6\pdl\drivers\peripheral\dma/cy_dma.c **** 
 193:Generated_Source\PSoC6\pdl\drivers\peripheral\dma/cy_dma.c ****     return (retVal);
 194:Generated_Source\PSoC6\pdl\drivers\peripheral\dma/cy_dma.c **** }
 564              		.loc 1 194 0
 565 007e 7047     		bx	lr
 566              	.LVL40:
 567              	.L41:
 176:Generated_Source\PSoC6\pdl\drivers\peripheral\dma/cy_dma.c **** 
 568              		.loc 1 176 0
 569 0080 0348     		ldr	r0, .L48+8
 570              	.LVL41:
 571 0082 7047     		bx	lr
 572              	.LVL42:
 573              	.L42:
 574 0084 0248     		ldr	r0, .L48+8
 575              	.LVL43:
 576 0086 7047     		bx	lr
 577              	.L49:
 578              		.align	2
 579              	.L48:
 580 0088 00002840 		.word	1076363264
 581 008c 00000000 		.word	.LC0
 582 0090 01004E00 		.word	5111809
 583              		.cfi_endproc
 584              	.LFE178:
 585              		.size	Cy_DMA_Channel_Init, .-Cy_DMA_Channel_Init
 586              		.section	.text.Cy_DMA_Channel_DeInit,"ax",%progbits
 587              		.align	2
 588              		.global	Cy_DMA_Channel_DeInit
 589              		.thumb
 590              		.thumb_func
 591              		.type	Cy_DMA_Channel_DeInit, %function
 592              	Cy_DMA_Channel_DeInit:
 593              	.LFB179:
 195:Generated_Source\PSoC6\pdl\drivers\peripheral\dma/cy_dma.c **** 
 196:Generated_Source\PSoC6\pdl\drivers\peripheral\dma/cy_dma.c **** 
 197:Generated_Source\PSoC6\pdl\drivers\peripheral\dma/cy_dma.c **** /*******************************************************************************
 198:Generated_Source\PSoC6\pdl\drivers\peripheral\dma/cy_dma.c **** * Function Name: Cy_DMA_Channel_DeInit
 199:Generated_Source\PSoC6\pdl\drivers\peripheral\dma/cy_dma.c **** ****************************************************************************//**
 200:Generated_Source\PSoC6\pdl\drivers\peripheral\dma/cy_dma.c **** *
 201:Generated_Source\PSoC6\pdl\drivers\peripheral\dma/cy_dma.c **** * Clears the content of registers corresponding to the channel.
ARM GAS  C:\Users\cypress\AppData\Local\Temp\cczqZZvj.s 			page 16


 202:Generated_Source\PSoC6\pdl\drivers\peripheral\dma/cy_dma.c **** *
 203:Generated_Source\PSoC6\pdl\drivers\peripheral\dma/cy_dma.c **** * \param base
 204:Generated_Source\PSoC6\pdl\drivers\peripheral\dma/cy_dma.c **** * The pointer to the hardware DMA block.
 205:Generated_Source\PSoC6\pdl\drivers\peripheral\dma/cy_dma.c **** *
 206:Generated_Source\PSoC6\pdl\drivers\peripheral\dma/cy_dma.c **** * \param channel
 207:Generated_Source\PSoC6\pdl\drivers\peripheral\dma/cy_dma.c **** * A channel number.
 208:Generated_Source\PSoC6\pdl\drivers\peripheral\dma/cy_dma.c **** *
 209:Generated_Source\PSoC6\pdl\drivers\peripheral\dma/cy_dma.c **** *******************************************************************************/
 210:Generated_Source\PSoC6\pdl\drivers\peripheral\dma/cy_dma.c **** void Cy_DMA_Channel_DeInit(DW_Type * base, uint32_t channel)
 211:Generated_Source\PSoC6\pdl\drivers\peripheral\dma/cy_dma.c **** {
 594              		.loc 1 211 0
 595              		.cfi_startproc
 596              		@ args = 0, pretend = 0, frame = 0
 597              		@ frame_needed = 0, uses_anonymous_args = 0
 598              	.LVL44:
 599 0000 38B5     		push	{r3, r4, r5, lr}
 600              		.cfi_def_cfa_offset 16
 601              		.cfi_offset 3, -16
 602              		.cfi_offset 4, -12
 603              		.cfi_offset 5, -8
 604              		.cfi_offset 14, -4
 605 0002 0446     		mov	r4, r0
 606 0004 0D46     		mov	r5, r1
 212:Generated_Source\PSoC6\pdl\drivers\peripheral\dma/cy_dma.c ****     CY_ASSERT_L1(CY_DMA_IS_DW_CH_NR_VALID(base, channel));
 607              		.loc 1 212 0
 608 0006 0D4B     		ldr	r3, .L55
 609 0008 9842     		cmp	r0, r3
 610 000a 03D0     		beq	.L51
 611              		.loc 1 212 0 is_stmt 0 discriminator 1
 612 000c 03F58053 		add	r3, r3, #4096
 613 0010 9842     		cmp	r0, r3
 614 0012 01D1     		bne	.L52
 615              	.L51:
 616              		.loc 1 212 0 discriminator 4
 617 0014 0F2D     		cmp	r5, #15
 618 0016 03D9     		bls	.L53
 619              	.L52:
 620              		.loc 1 212 0 discriminator 5
 621 0018 D421     		movs	r1, #212
 622              	.LVL45:
 623 001a 0948     		ldr	r0, .L55+4
 624              	.LVL46:
 625 001c FFF7FEFF 		bl	Cy_SysLib_AssertFailed
 626              	.LVL47:
 627              	.L53:
 213:Generated_Source\PSoC6\pdl\drivers\peripheral\dma/cy_dma.c ****     
 214:Generated_Source\PSoC6\pdl\drivers\peripheral\dma/cy_dma.c ****     base->CH_STRUCT[channel].CH_CTL = 0UL;
 628              		.loc 1 214 0 is_stmt 1
 629 0020 05F14002 		add	r2, r5, #64
 630 0024 5201     		lsls	r2, r2, #5
 631 0026 0023     		movs	r3, #0
 632 0028 A350     		str	r3, [r4, r2]
 215:Generated_Source\PSoC6\pdl\drivers\peripheral\dma/cy_dma.c ****     base->CH_STRUCT[channel].CH_IDX = 0UL;
 633              		.loc 1 215 0
 634 002a 04EB4514 		add	r4, r4, r5, lsl #5
 635              	.LVL48:
 636 002e C4F80838 		str	r3, [r4, #2056]
ARM GAS  C:\Users\cypress\AppData\Local\Temp\cczqZZvj.s 			page 17


 216:Generated_Source\PSoC6\pdl\drivers\peripheral\dma/cy_dma.c ****     base->CH_STRUCT[channel].CH_CURR_PTR = 0UL;
 637              		.loc 1 216 0
 638 0032 C4F80C38 		str	r3, [r4, #2060]
 217:Generated_Source\PSoC6\pdl\drivers\peripheral\dma/cy_dma.c ****     base->CH_STRUCT[channel].INTR_MASK = 0UL;
 639              		.loc 1 217 0
 640 0036 C4F81838 		str	r3, [r4, #2072]
 641 003a 38BD     		pop	{r3, r4, r5, pc}
 642              	.LVL49:
 643              	.L56:
 644              		.align	2
 645              	.L55:
 646 003c 00002840 		.word	1076363264
 647 0040 00000000 		.word	.LC0
 648              		.cfi_endproc
 649              	.LFE179:
 650              		.size	Cy_DMA_Channel_DeInit, .-Cy_DMA_Channel_DeInit
 651              		.section	.text.Cy_DMA_Descriptor_SetNextDescriptor,"ax",%progbits
 652              		.align	2
 653              		.global	Cy_DMA_Descriptor_SetNextDescriptor
 654              		.thumb
 655              		.thumb_func
 656              		.type	Cy_DMA_Descriptor_SetNextDescriptor, %function
 657              	Cy_DMA_Descriptor_SetNextDescriptor:
 658              	.LFB180:
 218:Generated_Source\PSoC6\pdl\drivers\peripheral\dma/cy_dma.c **** }
 219:Generated_Source\PSoC6\pdl\drivers\peripheral\dma/cy_dma.c **** 
 220:Generated_Source\PSoC6\pdl\drivers\peripheral\dma/cy_dma.c **** 
 221:Generated_Source\PSoC6\pdl\drivers\peripheral\dma/cy_dma.c **** /*******************************************************************************
 222:Generated_Source\PSoC6\pdl\drivers\peripheral\dma/cy_dma.c **** * Function Name: Cy_DMA_Descriptor_SetNextDescriptor
 223:Generated_Source\PSoC6\pdl\drivers\peripheral\dma/cy_dma.c **** ****************************************************************************//**
 224:Generated_Source\PSoC6\pdl\drivers\peripheral\dma/cy_dma.c **** *
 225:Generated_Source\PSoC6\pdl\drivers\peripheral\dma/cy_dma.c **** * Sets a Next Descriptor parameter for the specified descriptor.
 226:Generated_Source\PSoC6\pdl\drivers\peripheral\dma/cy_dma.c **** *
 227:Generated_Source\PSoC6\pdl\drivers\peripheral\dma/cy_dma.c **** * Based on the descriptor type, the offset of the address for the next descriptor may
 228:Generated_Source\PSoC6\pdl\drivers\peripheral\dma/cy_dma.c **** * vary. For the single-transfer descriptor type, this register is at offset 0x0c.
 229:Generated_Source\PSoC6\pdl\drivers\peripheral\dma/cy_dma.c **** * For the 1D-transfer descriptor type, this register is at offset 0x10. 
 230:Generated_Source\PSoC6\pdl\drivers\peripheral\dma/cy_dma.c **** * For the 2D-transfer descriptor type, this register is at offset 0x14.  
 231:Generated_Source\PSoC6\pdl\drivers\peripheral\dma/cy_dma.c **** *
 232:Generated_Source\PSoC6\pdl\drivers\peripheral\dma/cy_dma.c **** * \param descriptor
 233:Generated_Source\PSoC6\pdl\drivers\peripheral\dma/cy_dma.c **** * The descriptor structure instance declared by the user/component.
 234:Generated_Source\PSoC6\pdl\drivers\peripheral\dma/cy_dma.c **** *
 235:Generated_Source\PSoC6\pdl\drivers\peripheral\dma/cy_dma.c **** * \param nextDescriptor
 236:Generated_Source\PSoC6\pdl\drivers\peripheral\dma/cy_dma.c **** * The pointer to the next descriptor.
 237:Generated_Source\PSoC6\pdl\drivers\peripheral\dma/cy_dma.c **** *
 238:Generated_Source\PSoC6\pdl\drivers\peripheral\dma/cy_dma.c **** *******************************************************************************/
 239:Generated_Source\PSoC6\pdl\drivers\peripheral\dma/cy_dma.c **** void Cy_DMA_Descriptor_SetNextDescriptor(cy_stc_dma_descriptor_t * descriptor, cy_stc_dma_descripto
 240:Generated_Source\PSoC6\pdl\drivers\peripheral\dma/cy_dma.c **** {
 659              		.loc 1 240 0
 660              		.cfi_startproc
 661              		@ args = 0, pretend = 0, frame = 0
 662              		@ frame_needed = 0, uses_anonymous_args = 0
 663              	.LVL50:
 664 0000 38B5     		push	{r3, r4, r5, lr}
 665              		.cfi_def_cfa_offset 16
 666              		.cfi_offset 3, -16
 667              		.cfi_offset 4, -12
 668              		.cfi_offset 5, -8
ARM GAS  C:\Users\cypress\AppData\Local\Temp\cczqZZvj.s 			page 18


 669              		.cfi_offset 14, -4
 670 0002 0D46     		mov	r5, r1
 241:Generated_Source\PSoC6\pdl\drivers\peripheral\dma/cy_dma.c ****     CY_ASSERT_L1(NULL != descriptor);
 671              		.loc 1 241 0
 672 0004 0446     		mov	r4, r0
 673 0006 18B9     		cbnz	r0, .L58
 674              		.loc 1 241 0 is_stmt 0 discriminator 1
 675 0008 F121     		movs	r1, #241
 676              	.LVL51:
 677 000a 0848     		ldr	r0, .L64
 678              	.LVL52:
 679 000c FFF7FEFF 		bl	Cy_SysLib_AssertFailed
 680              	.LVL53:
 681              	.L58:
 242:Generated_Source\PSoC6\pdl\drivers\peripheral\dma/cy_dma.c ****     
 243:Generated_Source\PSoC6\pdl\drivers\peripheral\dma/cy_dma.c ****     switch((cy_en_dma_descriptor_type_t) _FLD2VAL(CY_DMA_CTL_TYPE, descriptor->ctl))
 682              		.loc 1 243 0 is_stmt 1
 683 0010 2368     		ldr	r3, [r4]
 684 0012 9B0F     		lsrs	r3, r3, #30
 685 0014 012B     		cmp	r3, #1
 686 0016 05D0     		beq	.L60
 687 0018 13B1     		cbz	r3, .L61
 688 001a 022B     		cmp	r3, #2
 689 001c 04D0     		beq	.L62
 690 001e 38BD     		pop	{r3, r4, r5, pc}
 691              	.LVL54:
 692              	.L61:
 244:Generated_Source\PSoC6\pdl\drivers\peripheral\dma/cy_dma.c ****     {
 245:Generated_Source\PSoC6\pdl\drivers\peripheral\dma/cy_dma.c ****         case CY_DMA_SINGLE_TRANSFER:
 246:Generated_Source\PSoC6\pdl\drivers\peripheral\dma/cy_dma.c ****             descriptor->xCtl = (uint32_t)nextDescriptor;
 693              		.loc 1 246 0
 694 0020 E560     		str	r5, [r4, #12]
 247:Generated_Source\PSoC6\pdl\drivers\peripheral\dma/cy_dma.c ****             break;
 695              		.loc 1 247 0
 696 0022 38BD     		pop	{r3, r4, r5, pc}
 697              	.LVL55:
 698              	.L60:
 248:Generated_Source\PSoC6\pdl\drivers\peripheral\dma/cy_dma.c ****             
 249:Generated_Source\PSoC6\pdl\drivers\peripheral\dma/cy_dma.c ****         case CY_DMA_1D_TRANSFER:
 250:Generated_Source\PSoC6\pdl\drivers\peripheral\dma/cy_dma.c ****             descriptor->yCtl = (uint32_t)nextDescriptor;
 699              		.loc 1 250 0
 700 0024 2561     		str	r5, [r4, #16]
 251:Generated_Source\PSoC6\pdl\drivers\peripheral\dma/cy_dma.c ****             break;
 701              		.loc 1 251 0
 702 0026 38BD     		pop	{r3, r4, r5, pc}
 703              	.LVL56:
 704              	.L62:
 252:Generated_Source\PSoC6\pdl\drivers\peripheral\dma/cy_dma.c ****             
 253:Generated_Source\PSoC6\pdl\drivers\peripheral\dma/cy_dma.c ****         case CY_DMA_2D_TRANSFER:
 254:Generated_Source\PSoC6\pdl\drivers\peripheral\dma/cy_dma.c ****             descriptor->nextPtr = (uint32_t)nextDescriptor;
 705              		.loc 1 254 0
 706 0028 6561     		str	r5, [r4, #20]
 707 002a 38BD     		pop	{r3, r4, r5, pc}
 708              	.LVL57:
 709              	.L65:
 710              		.align	2
 711              	.L64:
ARM GAS  C:\Users\cypress\AppData\Local\Temp\cczqZZvj.s 			page 19


 712 002c 00000000 		.word	.LC0
 713              		.cfi_endproc
 714              	.LFE180:
 715              		.size	Cy_DMA_Descriptor_SetNextDescriptor, .-Cy_DMA_Descriptor_SetNextDescriptor
 716              		.section	.text.Cy_DMA_Descriptor_GetNextDescriptor,"ax",%progbits
 717              		.align	2
 718              		.global	Cy_DMA_Descriptor_GetNextDescriptor
 719              		.thumb
 720              		.thumb_func
 721              		.type	Cy_DMA_Descriptor_GetNextDescriptor, %function
 722              	Cy_DMA_Descriptor_GetNextDescriptor:
 723              	.LFB181:
 255:Generated_Source\PSoC6\pdl\drivers\peripheral\dma/cy_dma.c ****             break;
 256:Generated_Source\PSoC6\pdl\drivers\peripheral\dma/cy_dma.c ****             
 257:Generated_Source\PSoC6\pdl\drivers\peripheral\dma/cy_dma.c ****         default:
 258:Generated_Source\PSoC6\pdl\drivers\peripheral\dma/cy_dma.c ****             /* Unsupported type of descriptor */
 259:Generated_Source\PSoC6\pdl\drivers\peripheral\dma/cy_dma.c ****             break;
 260:Generated_Source\PSoC6\pdl\drivers\peripheral\dma/cy_dma.c ****     }
 261:Generated_Source\PSoC6\pdl\drivers\peripheral\dma/cy_dma.c **** }
 262:Generated_Source\PSoC6\pdl\drivers\peripheral\dma/cy_dma.c **** 
 263:Generated_Source\PSoC6\pdl\drivers\peripheral\dma/cy_dma.c **** 
 264:Generated_Source\PSoC6\pdl\drivers\peripheral\dma/cy_dma.c **** /*******************************************************************************
 265:Generated_Source\PSoC6\pdl\drivers\peripheral\dma/cy_dma.c **** * Function Name: Cy_DMA_Descriptor_GetNextDescriptor
 266:Generated_Source\PSoC6\pdl\drivers\peripheral\dma/cy_dma.c **** ****************************************************************************//**
 267:Generated_Source\PSoC6\pdl\drivers\peripheral\dma/cy_dma.c **** *
 268:Generated_Source\PSoC6\pdl\drivers\peripheral\dma/cy_dma.c **** * Returns a next descriptor address of the specified descriptor.
 269:Generated_Source\PSoC6\pdl\drivers\peripheral\dma/cy_dma.c **** *
 270:Generated_Source\PSoC6\pdl\drivers\peripheral\dma/cy_dma.c **** * Based on the descriptor type, the offset of the address for the next descriptor may
 271:Generated_Source\PSoC6\pdl\drivers\peripheral\dma/cy_dma.c **** * vary. For a single-transfer descriptor type, this register is at offset 0x0c.
 272:Generated_Source\PSoC6\pdl\drivers\peripheral\dma/cy_dma.c **** * For the 1D-transfer descriptor type, this register is at offset 0x10. 
 273:Generated_Source\PSoC6\pdl\drivers\peripheral\dma/cy_dma.c **** * For the 2D-transfer descriptor type, this register is at offset 0x14.  
 274:Generated_Source\PSoC6\pdl\drivers\peripheral\dma/cy_dma.c **** *
 275:Generated_Source\PSoC6\pdl\drivers\peripheral\dma/cy_dma.c **** * \param descriptor
 276:Generated_Source\PSoC6\pdl\drivers\peripheral\dma/cy_dma.c **** * The descriptor structure instance declared by the user/component.
 277:Generated_Source\PSoC6\pdl\drivers\peripheral\dma/cy_dma.c **** *
 278:Generated_Source\PSoC6\pdl\drivers\peripheral\dma/cy_dma.c **** * \return
 279:Generated_Source\PSoC6\pdl\drivers\peripheral\dma/cy_dma.c **** * The pointer to the next descriptor.
 280:Generated_Source\PSoC6\pdl\drivers\peripheral\dma/cy_dma.c **** *
 281:Generated_Source\PSoC6\pdl\drivers\peripheral\dma/cy_dma.c **** *******************************************************************************/
 282:Generated_Source\PSoC6\pdl\drivers\peripheral\dma/cy_dma.c **** cy_stc_dma_descriptor_t * Cy_DMA_Descriptor_GetNextDescriptor(cy_stc_dma_descriptor_t const * descr
 283:Generated_Source\PSoC6\pdl\drivers\peripheral\dma/cy_dma.c **** {
 724              		.loc 1 283 0
 725              		.cfi_startproc
 726              		@ args = 0, pretend = 0, frame = 0
 727              		@ frame_needed = 0, uses_anonymous_args = 0
 728              	.LVL58:
 729 0000 10B5     		push	{r4, lr}
 730              		.cfi_def_cfa_offset 8
 731              		.cfi_offset 4, -8
 732              		.cfi_offset 14, -4
 733              	.LVL59:
 284:Generated_Source\PSoC6\pdl\drivers\peripheral\dma/cy_dma.c ****     cy_stc_dma_descriptor_t * retVal = NULL;
 285:Generated_Source\PSoC6\pdl\drivers\peripheral\dma/cy_dma.c ****     
 286:Generated_Source\PSoC6\pdl\drivers\peripheral\dma/cy_dma.c ****     CY_ASSERT_L1(NULL != descriptor);
 734              		.loc 1 286 0
 735 0002 0446     		mov	r4, r0
 736 0004 20B9     		cbnz	r0, .L67
ARM GAS  C:\Users\cypress\AppData\Local\Temp\cczqZZvj.s 			page 20


 737              		.loc 1 286 0 is_stmt 0 discriminator 1
 738 0006 4FF48F71 		mov	r1, #286
 739 000a 0948     		ldr	r0, .L75
 740              	.LVL60:
 741 000c FFF7FEFF 		bl	Cy_SysLib_AssertFailed
 742              	.LVL61:
 743              	.L67:
 287:Generated_Source\PSoC6\pdl\drivers\peripheral\dma/cy_dma.c ****     
 288:Generated_Source\PSoC6\pdl\drivers\peripheral\dma/cy_dma.c ****     switch((cy_en_dma_descriptor_type_t) _FLD2VAL(CY_DMA_CTL_TYPE, descriptor->ctl))
 744              		.loc 1 288 0 is_stmt 1
 745 0010 2368     		ldr	r3, [r4]
 746 0012 9B0F     		lsrs	r3, r3, #30
 747 0014 012B     		cmp	r3, #1
 748 0016 05D0     		beq	.L69
 749 0018 13B1     		cbz	r3, .L70
 750 001a 022B     		cmp	r3, #2
 751 001c 04D0     		beq	.L71
 752 001e 05E0     		b	.L73
 753              	.L70:
 289:Generated_Source\PSoC6\pdl\drivers\peripheral\dma/cy_dma.c ****     {
 290:Generated_Source\PSoC6\pdl\drivers\peripheral\dma/cy_dma.c ****         case CY_DMA_SINGLE_TRANSFER:
 291:Generated_Source\PSoC6\pdl\drivers\peripheral\dma/cy_dma.c ****             retVal = (cy_stc_dma_descriptor_t*) descriptor->xCtl;
 754              		.loc 1 291 0
 755 0020 E068     		ldr	r0, [r4, #12]
 756              	.LVL62:
 292:Generated_Source\PSoC6\pdl\drivers\peripheral\dma/cy_dma.c ****             break;
 757              		.loc 1 292 0
 758 0022 10BD     		pop	{r4, pc}
 759              	.LVL63:
 760              	.L69:
 293:Generated_Source\PSoC6\pdl\drivers\peripheral\dma/cy_dma.c ****             
 294:Generated_Source\PSoC6\pdl\drivers\peripheral\dma/cy_dma.c ****         case CY_DMA_1D_TRANSFER:
 295:Generated_Source\PSoC6\pdl\drivers\peripheral\dma/cy_dma.c ****             retVal = (cy_stc_dma_descriptor_t*) descriptor->yCtl;
 761              		.loc 1 295 0
 762 0024 2069     		ldr	r0, [r4, #16]
 763              	.LVL64:
 296:Generated_Source\PSoC6\pdl\drivers\peripheral\dma/cy_dma.c ****             break;
 764              		.loc 1 296 0
 765 0026 10BD     		pop	{r4, pc}
 766              	.LVL65:
 767              	.L71:
 297:Generated_Source\PSoC6\pdl\drivers\peripheral\dma/cy_dma.c ****             
 298:Generated_Source\PSoC6\pdl\drivers\peripheral\dma/cy_dma.c ****         case CY_DMA_2D_TRANSFER:
 299:Generated_Source\PSoC6\pdl\drivers\peripheral\dma/cy_dma.c ****             retVal = (cy_stc_dma_descriptor_t*) descriptor->nextPtr;
 768              		.loc 1 299 0
 769 0028 6069     		ldr	r0, [r4, #20]
 770              	.LVL66:
 300:Generated_Source\PSoC6\pdl\drivers\peripheral\dma/cy_dma.c ****             break;
 771              		.loc 1 300 0
 772 002a 10BD     		pop	{r4, pc}
 773              	.LVL67:
 774              	.L73:
 284:Generated_Source\PSoC6\pdl\drivers\peripheral\dma/cy_dma.c ****     
 775              		.loc 1 284 0
 776 002c 0020     		movs	r0, #0
 777              	.LVL68:
 301:Generated_Source\PSoC6\pdl\drivers\peripheral\dma/cy_dma.c ****             
ARM GAS  C:\Users\cypress\AppData\Local\Temp\cczqZZvj.s 			page 21


 302:Generated_Source\PSoC6\pdl\drivers\peripheral\dma/cy_dma.c ****         default:
 303:Generated_Source\PSoC6\pdl\drivers\peripheral\dma/cy_dma.c ****             /* An unsupported type of the descriptor */
 304:Generated_Source\PSoC6\pdl\drivers\peripheral\dma/cy_dma.c ****             break;
 305:Generated_Source\PSoC6\pdl\drivers\peripheral\dma/cy_dma.c ****     }
 306:Generated_Source\PSoC6\pdl\drivers\peripheral\dma/cy_dma.c ****     
 307:Generated_Source\PSoC6\pdl\drivers\peripheral\dma/cy_dma.c ****     return (retVal);
 308:Generated_Source\PSoC6\pdl\drivers\peripheral\dma/cy_dma.c **** }
 778              		.loc 1 308 0
 779 002e 10BD     		pop	{r4, pc}
 780              	.LVL69:
 781              	.L76:
 782              		.align	2
 783              	.L75:
 784 0030 00000000 		.word	.LC0
 785              		.cfi_endproc
 786              	.LFE181:
 787              		.size	Cy_DMA_Descriptor_GetNextDescriptor, .-Cy_DMA_Descriptor_GetNextDescriptor
 788              		.section	.text.Cy_DMA_Descriptor_SetDescriptorType,"ax",%progbits
 789              		.align	2
 790              		.global	Cy_DMA_Descriptor_SetDescriptorType
 791              		.thumb
 792              		.thumb_func
 793              		.type	Cy_DMA_Descriptor_SetDescriptorType, %function
 794              	Cy_DMA_Descriptor_SetDescriptorType:
 795              	.LFB182:
 309:Generated_Source\PSoC6\pdl\drivers\peripheral\dma/cy_dma.c **** 
 310:Generated_Source\PSoC6\pdl\drivers\peripheral\dma/cy_dma.c **** 
 311:Generated_Source\PSoC6\pdl\drivers\peripheral\dma/cy_dma.c **** /*******************************************************************************
 312:Generated_Source\PSoC6\pdl\drivers\peripheral\dma/cy_dma.c **** * Function Name: Cy_DMA_Descriptor_SetDescriptorType
 313:Generated_Source\PSoC6\pdl\drivers\peripheral\dma/cy_dma.c **** ****************************************************************************//**
 314:Generated_Source\PSoC6\pdl\drivers\peripheral\dma/cy_dma.c **** *
 315:Generated_Source\PSoC6\pdl\drivers\peripheral\dma/cy_dma.c **** * Sets the descriptor's type for the specified descriptor.
 316:Generated_Source\PSoC6\pdl\drivers\peripheral\dma/cy_dma.c **** * Moves the next descriptor register value into the proper place in accordance
 317:Generated_Source\PSoC6\pdl\drivers\peripheral\dma/cy_dma.c **** * to the actual descriptor type.
 318:Generated_Source\PSoC6\pdl\drivers\peripheral\dma/cy_dma.c **** * During the descriptor's type changing, the Xloop and Yloop settings, such as 
 319:Generated_Source\PSoC6\pdl\drivers\peripheral\dma/cy_dma.c **** * data count and source/destination increment (i.e. the content of the 
 320:Generated_Source\PSoC6\pdl\drivers\peripheral\dma/cy_dma.c **** * xCtl and yCtl descriptor registers) might be lost (overriden by the 
 321:Generated_Source\PSoC6\pdl\drivers\peripheral\dma/cy_dma.c **** * next descriptor value) because of the different descriptor registers structures
 322:Generated_Source\PSoC6\pdl\drivers\peripheral\dma/cy_dma.c **** * for different descriptor types. Set up carefully the Xloop
 323:Generated_Source\PSoC6\pdl\drivers\peripheral\dma/cy_dma.c **** * (and Yloop, if used) data count and source/destination increment if the
 324:Generated_Source\PSoC6\pdl\drivers\peripheral\dma/cy_dma.c **** * descriptor type is changed from a simpler to a more complicated type 
 325:Generated_Source\PSoC6\pdl\drivers\peripheral\dma/cy_dma.c **** * ("single transfer" -> "1D", "1D" -> "2D", etc.).
 326:Generated_Source\PSoC6\pdl\drivers\peripheral\dma/cy_dma.c **** * 
 327:Generated_Source\PSoC6\pdl\drivers\peripheral\dma/cy_dma.c **** * \param descriptor
 328:Generated_Source\PSoC6\pdl\drivers\peripheral\dma/cy_dma.c **** * The descriptor structure instance declared by the user/component.
 329:Generated_Source\PSoC6\pdl\drivers\peripheral\dma/cy_dma.c **** *
 330:Generated_Source\PSoC6\pdl\drivers\peripheral\dma/cy_dma.c **** * \param descriptorType 
 331:Generated_Source\PSoC6\pdl\drivers\peripheral\dma/cy_dma.c **** * The descriptor type \ref cy_en_dma_descriptor_type_t.
 332:Generated_Source\PSoC6\pdl\drivers\peripheral\dma/cy_dma.c **** *
 333:Generated_Source\PSoC6\pdl\drivers\peripheral\dma/cy_dma.c **** *******************************************************************************/
 334:Generated_Source\PSoC6\pdl\drivers\peripheral\dma/cy_dma.c **** void Cy_DMA_Descriptor_SetDescriptorType(cy_stc_dma_descriptor_t * descriptor, cy_en_dma_descriptor
 335:Generated_Source\PSoC6\pdl\drivers\peripheral\dma/cy_dma.c **** {
 796              		.loc 1 335 0
 797              		.cfi_startproc
 798              		@ args = 0, pretend = 0, frame = 0
 799              		@ frame_needed = 0, uses_anonymous_args = 0
 800              	.LVL70:
ARM GAS  C:\Users\cypress\AppData\Local\Temp\cczqZZvj.s 			page 22


 801 0000 38B5     		push	{r3, r4, r5, lr}
 802              		.cfi_def_cfa_offset 16
 803              		.cfi_offset 3, -16
 804              		.cfi_offset 4, -12
 805              		.cfi_offset 5, -8
 806              		.cfi_offset 14, -4
 807 0002 0D46     		mov	r5, r1
 336:Generated_Source\PSoC6\pdl\drivers\peripheral\dma/cy_dma.c ****     CY_ASSERT_L1(NULL != descriptor);
 808              		.loc 1 336 0
 809 0004 0446     		mov	r4, r0
 810 0006 20B9     		cbnz	r0, .L78
 811              		.loc 1 336 0 is_stmt 0 discriminator 1
 812 0008 4FF4A871 		mov	r1, #336
 813              	.LVL71:
 814 000c 1048     		ldr	r0, .L83
 815              	.LVL72:
 816 000e FFF7FEFF 		bl	Cy_SysLib_AssertFailed
 817              	.LVL73:
 818              	.L78:
 337:Generated_Source\PSoC6\pdl\drivers\peripheral\dma/cy_dma.c ****     CY_ASSERT_L3(CY_DMA_IS_TYPE_VALID(descriptorType));
 819              		.loc 1 337 0 is_stmt 1
 820 0012 022D     		cmp	r5, #2
 821 0014 04D9     		bls	.L79
 822              		.loc 1 337 0 is_stmt 0 discriminator 1
 823 0016 40F25111 		movw	r1, #337
 824 001a 0D48     		ldr	r0, .L83
 825 001c FFF7FEFF 		bl	Cy_SysLib_AssertFailed
 826              	.LVL74:
 827              	.L79:
 828              	.LBB5:
 829              	.LBB6:
 830              		.file 2 "Generated_Source\\PSoC6\\pdl\\drivers\\peripheral\\dma\\cy_dma.h"
   1:Generated_Source\PSoC6\pdl\drivers\peripheral\dma/cy_dma.h **** /***************************************************************************//**
   2:Generated_Source\PSoC6\pdl\drivers\peripheral\dma/cy_dma.h **** * \file cy_dma.h
   3:Generated_Source\PSoC6\pdl\drivers\peripheral\dma/cy_dma.h **** * \version 2.0.1
   4:Generated_Source\PSoC6\pdl\drivers\peripheral\dma/cy_dma.h **** *
   5:Generated_Source\PSoC6\pdl\drivers\peripheral\dma/cy_dma.h **** * \brief
   6:Generated_Source\PSoC6\pdl\drivers\peripheral\dma/cy_dma.h **** * The header file of the DMA driver.
   7:Generated_Source\PSoC6\pdl\drivers\peripheral\dma/cy_dma.h **** *
   8:Generated_Source\PSoC6\pdl\drivers\peripheral\dma/cy_dma.h **** ********************************************************************************
   9:Generated_Source\PSoC6\pdl\drivers\peripheral\dma/cy_dma.h **** * \copyright
  10:Generated_Source\PSoC6\pdl\drivers\peripheral\dma/cy_dma.h **** * Copyright 2016-2018, Cypress Semiconductor Corporation. All rights reserved.
  11:Generated_Source\PSoC6\pdl\drivers\peripheral\dma/cy_dma.h **** * You may use this file only in accordance with the license, terms, conditions,
  12:Generated_Source\PSoC6\pdl\drivers\peripheral\dma/cy_dma.h **** * disclaimers, and limitations in the end user license agreement accompanying
  13:Generated_Source\PSoC6\pdl\drivers\peripheral\dma/cy_dma.h **** * the software package with which this file was provided.
  14:Generated_Source\PSoC6\pdl\drivers\peripheral\dma/cy_dma.h **** *******************************************************************************/
  15:Generated_Source\PSoC6\pdl\drivers\peripheral\dma/cy_dma.h **** 
  16:Generated_Source\PSoC6\pdl\drivers\peripheral\dma/cy_dma.h **** /**
  17:Generated_Source\PSoC6\pdl\drivers\peripheral\dma/cy_dma.h **** * \defgroup group_dma Direct Memory Access (DMA)
  18:Generated_Source\PSoC6\pdl\drivers\peripheral\dma/cy_dma.h **** * \{
  19:Generated_Source\PSoC6\pdl\drivers\peripheral\dma/cy_dma.h **** * Configures a DMA channel and its descriptor(s).
  20:Generated_Source\PSoC6\pdl\drivers\peripheral\dma/cy_dma.h **** *
  21:Generated_Source\PSoC6\pdl\drivers\peripheral\dma/cy_dma.h **** * The DMA channel can be used in any project to transfer data
  22:Generated_Source\PSoC6\pdl\drivers\peripheral\dma/cy_dma.h **** * without CPU intervention basing on a hardware trigger signal from another component.
  23:Generated_Source\PSoC6\pdl\drivers\peripheral\dma/cy_dma.h **** *
  24:Generated_Source\PSoC6\pdl\drivers\peripheral\dma/cy_dma.h **** * A device may support more than one DMA hardware block. Each block has a set of 
  25:Generated_Source\PSoC6\pdl\drivers\peripheral\dma/cy_dma.h **** * registers, a base hardware address, and supports multiple channels. 
ARM GAS  C:\Users\cypress\AppData\Local\Temp\cczqZZvj.s 			page 23


  26:Generated_Source\PSoC6\pdl\drivers\peripheral\dma/cy_dma.h **** * Many API functions for the DMA driver require a base hardware address and  
  27:Generated_Source\PSoC6\pdl\drivers\peripheral\dma/cy_dma.h **** * channel number. Ensure that you use the correct hardware address for the DMA block in use.
  28:Generated_Source\PSoC6\pdl\drivers\peripheral\dma/cy_dma.h **** * 
  29:Generated_Source\PSoC6\pdl\drivers\peripheral\dma/cy_dma.h **** * Features:
  30:Generated_Source\PSoC6\pdl\drivers\peripheral\dma/cy_dma.h **** * * Devices support up to two DMA hardware blocks
  31:Generated_Source\PSoC6\pdl\drivers\peripheral\dma/cy_dma.h **** * * Each DMA block supports up to 16 DMA channels
  32:Generated_Source\PSoC6\pdl\drivers\peripheral\dma/cy_dma.h **** * * Supports channel descriptors in SRAM
  33:Generated_Source\PSoC6\pdl\drivers\peripheral\dma/cy_dma.h **** * * Four priority levels for each channel
  34:Generated_Source\PSoC6\pdl\drivers\peripheral\dma/cy_dma.h **** * * Byte, half-word (2-byte), and word (4-byte) transfers
  35:Generated_Source\PSoC6\pdl\drivers\peripheral\dma/cy_dma.h **** * * Configurable source and destination addresses
  36:Generated_Source\PSoC6\pdl\drivers\peripheral\dma/cy_dma.h **** *
  37:Generated_Source\PSoC6\pdl\drivers\peripheral\dma/cy_dma.h **** * \section group_dma_configuration Configuration Considerations
  38:Generated_Source\PSoC6\pdl\drivers\peripheral\dma/cy_dma.h **** *
  39:Generated_Source\PSoC6\pdl\drivers\peripheral\dma/cy_dma.h **** * To set up a DMA driver, initialize a descriptor,
  40:Generated_Source\PSoC6\pdl\drivers\peripheral\dma/cy_dma.h **** * intialize and enable a channel, and enable the DMA block.
  41:Generated_Source\PSoC6\pdl\drivers\peripheral\dma/cy_dma.h **** * 
  42:Generated_Source\PSoC6\pdl\drivers\peripheral\dma/cy_dma.h **** * To set up a descriptor, provide the configuration parameters for the 
  43:Generated_Source\PSoC6\pdl\drivers\peripheral\dma/cy_dma.h **** * descriptor in the \ref cy_stc_dma_descriptor_config_t structure. Then call the 
  44:Generated_Source\PSoC6\pdl\drivers\peripheral\dma/cy_dma.h **** * \ref Cy_DMA_Descriptor_Init function to initialize the descriptor in SRAM. You can 
  45:Generated_Source\PSoC6\pdl\drivers\peripheral\dma/cy_dma.h **** * modify the source and destination addresses dynamically by calling 
  46:Generated_Source\PSoC6\pdl\drivers\peripheral\dma/cy_dma.h **** * \ref Cy_DMA_Descriptor_SetSrcAddress and \ref Cy_DMA_Descriptor_SetDstAddress.
  47:Generated_Source\PSoC6\pdl\drivers\peripheral\dma/cy_dma.h **** * 
  48:Generated_Source\PSoC6\pdl\drivers\peripheral\dma/cy_dma.h **** * To set up a DMA channel, provide a filled \ref cy_stc_dma_channel_config_t 
  49:Generated_Source\PSoC6\pdl\drivers\peripheral\dma/cy_dma.h **** * structure. Call the \ref Cy_DMA_Channel_Init function, specifying the channel
  50:Generated_Source\PSoC6\pdl\drivers\peripheral\dma/cy_dma.h **** * number. Use \ref Cy_DMA_Channel_Enable to enable the configured DMA channel.
  51:Generated_Source\PSoC6\pdl\drivers\peripheral\dma/cy_dma.h **** *
  52:Generated_Source\PSoC6\pdl\drivers\peripheral\dma/cy_dma.h **** * Call \ref Cy_DMA_Channel_Enable for each DMA channel in use.
  53:Generated_Source\PSoC6\pdl\drivers\peripheral\dma/cy_dma.h **** *
  54:Generated_Source\PSoC6\pdl\drivers\peripheral\dma/cy_dma.h **** * When configured, another peripheral typically triggers the DMA. The trigger is
  55:Generated_Source\PSoC6\pdl\drivers\peripheral\dma/cy_dma.h **** * connected to the DMA using the trigger multiplexer. The trigger multiplexer
  56:Generated_Source\PSoC6\pdl\drivers\peripheral\dma/cy_dma.h **** * driver has a software trigger you can use in firmware to trigger the DMA. See the
  57:Generated_Source\PSoC6\pdl\drivers\peripheral\dma/cy_dma.h **** * <a href="group__group__trigmux.html">Trigger Multiplexer</a> documentation.
  58:Generated_Source\PSoC6\pdl\drivers\peripheral\dma/cy_dma.h **** *
  59:Generated_Source\PSoC6\pdl\drivers\peripheral\dma/cy_dma.h **** * The following is a simplified structure of the DMA driver API interdependencies
  60:Generated_Source\PSoC6\pdl\drivers\peripheral\dma/cy_dma.h **** * in a typical user application:
  61:Generated_Source\PSoC6\pdl\drivers\peripheral\dma/cy_dma.h **** * \image html dma.png
  62:Generated_Source\PSoC6\pdl\drivers\peripheral\dma/cy_dma.h **** *
  63:Generated_Source\PSoC6\pdl\drivers\peripheral\dma/cy_dma.h **** * <B>NOTE:</B> Even if a DMA channel is enabled, it is not operational until 
  64:Generated_Source\PSoC6\pdl\drivers\peripheral\dma/cy_dma.h **** * the DMA block is enabled using function \ref Cy_DMA_Enable.\n
  65:Generated_Source\PSoC6\pdl\drivers\peripheral\dma/cy_dma.h **** * <B>NOTE:</B> if the DMA descriptor is configured to generate an interrupt, 
  66:Generated_Source\PSoC6\pdl\drivers\peripheral\dma/cy_dma.h **** * the interrupt must be enabled using the \ref Cy_DMA_Channel_SetInterruptMask 
  67:Generated_Source\PSoC6\pdl\drivers\peripheral\dma/cy_dma.h **** * function for each DMA channel.
  68:Generated_Source\PSoC6\pdl\drivers\peripheral\dma/cy_dma.h **** *
  69:Generated_Source\PSoC6\pdl\drivers\peripheral\dma/cy_dma.h **** * For example:
  70:Generated_Source\PSoC6\pdl\drivers\peripheral\dma/cy_dma.h **** * \snippet dma/dma_v2_0_sut_00.cydsn/main_cm4.c Cy_DMA_Snippet
  71:Generated_Source\PSoC6\pdl\drivers\peripheral\dma/cy_dma.h **** * 
  72:Generated_Source\PSoC6\pdl\drivers\peripheral\dma/cy_dma.h **** * \section group_dma_more_information More Information.
  73:Generated_Source\PSoC6\pdl\drivers\peripheral\dma/cy_dma.h **** * See: the DMA chapter of the device technical reference manual (TRM);
  74:Generated_Source\PSoC6\pdl\drivers\peripheral\dma/cy_dma.h **** *      the DMA Component datasheet;
  75:Generated_Source\PSoC6\pdl\drivers\peripheral\dma/cy_dma.h **** *      CE219940 - PSoC 6 MCU Multiple DMA Concatenation.
  76:Generated_Source\PSoC6\pdl\drivers\peripheral\dma/cy_dma.h **** *
  77:Generated_Source\PSoC6\pdl\drivers\peripheral\dma/cy_dma.h **** * \section group_dma_MISRA MISRA-C Compliance
  78:Generated_Source\PSoC6\pdl\drivers\peripheral\dma/cy_dma.h **** * The DMA driver has the following specific deviations:
  79:Generated_Source\PSoC6\pdl\drivers\peripheral\dma/cy_dma.h **** *
  80:Generated_Source\PSoC6\pdl\drivers\peripheral\dma/cy_dma.h **** * <table class="doxtable">
  81:Generated_Source\PSoC6\pdl\drivers\peripheral\dma/cy_dma.h **** *   <tr>
  82:Generated_Source\PSoC6\pdl\drivers\peripheral\dma/cy_dma.h **** *     <th>MISRA Rule</th>
ARM GAS  C:\Users\cypress\AppData\Local\Temp\cczqZZvj.s 			page 24


  83:Generated_Source\PSoC6\pdl\drivers\peripheral\dma/cy_dma.h **** *     <th>Rule Class (Required/Advisory)</th>
  84:Generated_Source\PSoC6\pdl\drivers\peripheral\dma/cy_dma.h **** *     <th>Rule Description</th>
  85:Generated_Source\PSoC6\pdl\drivers\peripheral\dma/cy_dma.h **** *     <th>Description of Deviation(s)</th>
  86:Generated_Source\PSoC6\pdl\drivers\peripheral\dma/cy_dma.h **** *   </tr>
  87:Generated_Source\PSoC6\pdl\drivers\peripheral\dma/cy_dma.h **** *   <tr>
  88:Generated_Source\PSoC6\pdl\drivers\peripheral\dma/cy_dma.h **** *     <td>10.3</td>
  89:Generated_Source\PSoC6\pdl\drivers\peripheral\dma/cy_dma.h **** *     <td>R</td>
  90:Generated_Source\PSoC6\pdl\drivers\peripheral\dma/cy_dma.h **** *     <td>A composite expression of the "essentially unsigned" type is being
  91:Generated_Source\PSoC6\pdl\drivers\peripheral\dma/cy_dma.h **** *         cast to a different type category.</td>
  92:Generated_Source\PSoC6\pdl\drivers\peripheral\dma/cy_dma.h **** *     <td>The value got from the bitfield physically cannot exceed the enumeration
  93:Generated_Source\PSoC6\pdl\drivers\peripheral\dma/cy_dma.h **** *         that describes this bitfield. So, the code is safe by design.</td>
  94:Generated_Source\PSoC6\pdl\drivers\peripheral\dma/cy_dma.h **** *   </tr>
  95:Generated_Source\PSoC6\pdl\drivers\peripheral\dma/cy_dma.h **** *   <tr>
  96:Generated_Source\PSoC6\pdl\drivers\peripheral\dma/cy_dma.h **** *     <td>14.2</td>
  97:Generated_Source\PSoC6\pdl\drivers\peripheral\dma/cy_dma.h **** *     <td>R</td>
  98:Generated_Source\PSoC6\pdl\drivers\peripheral\dma/cy_dma.h **** *     <td>All non-null statements will either:
  99:Generated_Source\PSoC6\pdl\drivers\peripheral\dma/cy_dma.h **** *       a) have at least one-side effect however executed;
 100:Generated_Source\PSoC6\pdl\drivers\peripheral\dma/cy_dma.h **** *       b) cause the control flow to change</td>
 101:Generated_Source\PSoC6\pdl\drivers\peripheral\dma/cy_dma.h **** *     <td>A Read operation result is ignored when this read is just intended
 102:Generated_Source\PSoC6\pdl\drivers\peripheral\dma/cy_dma.h **** *         to ensure the previous Write operation is flushed out to the hardware.</td>
 103:Generated_Source\PSoC6\pdl\drivers\peripheral\dma/cy_dma.h **** *   </tr>
 104:Generated_Source\PSoC6\pdl\drivers\peripheral\dma/cy_dma.h **** * </table>
 105:Generated_Source\PSoC6\pdl\drivers\peripheral\dma/cy_dma.h **** *
 106:Generated_Source\PSoC6\pdl\drivers\peripheral\dma/cy_dma.h **** * \section group_dma_changelog Changelog
 107:Generated_Source\PSoC6\pdl\drivers\peripheral\dma/cy_dma.h **** *
 108:Generated_Source\PSoC6\pdl\drivers\peripheral\dma/cy_dma.h **** * <table class="doxtable">
 109:Generated_Source\PSoC6\pdl\drivers\peripheral\dma/cy_dma.h **** *   <tr><th>Version</th><th>Changes</th><th>Reason for Change</th></tr>
 110:Generated_Source\PSoC6\pdl\drivers\peripheral\dma/cy_dma.h **** *   <tr>
 111:Generated_Source\PSoC6\pdl\drivers\peripheral\dma/cy_dma.h **** *     <td>2.0.1</td>
 112:Generated_Source\PSoC6\pdl\drivers\peripheral\dma/cy_dma.h **** *     <td>Changed \ref CY_DMA_BWC macro values from Boolean to numeric</td>
 113:Generated_Source\PSoC6\pdl\drivers\peripheral\dma/cy_dma.h **** *     <td>Improvements made based on usability feedback</td>
 114:Generated_Source\PSoC6\pdl\drivers\peripheral\dma/cy_dma.h **** *   </tr>
 115:Generated_Source\PSoC6\pdl\drivers\peripheral\dma/cy_dma.h **** *   <tr>
 116:Generated_Source\PSoC6\pdl\drivers\peripheral\dma/cy_dma.h **** *     <td>2.0</td>
 117:Generated_Source\PSoC6\pdl\drivers\peripheral\dma/cy_dma.h **** *     <td>* All the API is refactored to be consistent within itself and with the
 118:Generated_Source\PSoC6\pdl\drivers\peripheral\dma/cy_dma.h **** *           rest of the PDL content.
 119:Generated_Source\PSoC6\pdl\drivers\peripheral\dma/cy_dma.h **** *         * The descriptor API is updated as follows:
 120:Generated_Source\PSoC6\pdl\drivers\peripheral\dma/cy_dma.h **** *           The \ref Cy_DMA_Descriptor_Init function sets a full bunch of descriptor
 121:Generated_Source\PSoC6\pdl\drivers\peripheral\dma/cy_dma.h **** *           settings, and the rest of the descriptor API is a get/set interface
 122:Generated_Source\PSoC6\pdl\drivers\peripheral\dma/cy_dma.h **** *           to each of the descriptor settings.
 123:Generated_Source\PSoC6\pdl\drivers\peripheral\dma/cy_dma.h **** *         * There is a group of macros to support the backward compatibility with most 
 124:Generated_Source\PSoC6\pdl\drivers\peripheral\dma/cy_dma.h **** *           of the driver version 1.0 API. But, it is strongly recommended to use
 125:Generated_Source\PSoC6\pdl\drivers\peripheral\dma/cy_dma.h **** *           the new v2.0 interface in new designs (do not just copy-paste from old
 126:Generated_Source\PSoC6\pdl\drivers\peripheral\dma/cy_dma.h **** *           projects). To enable the backward compatibility support, the CY_DMA_BWC 
 127:Generated_Source\PSoC6\pdl\drivers\peripheral\dma/cy_dma.h **** *           definition should be changed to "1".</td>
 128:Generated_Source\PSoC6\pdl\drivers\peripheral\dma/cy_dma.h **** *     <td></td>
 129:Generated_Source\PSoC6\pdl\drivers\peripheral\dma/cy_dma.h **** *   </tr>
 130:Generated_Source\PSoC6\pdl\drivers\peripheral\dma/cy_dma.h **** *   <tr>
 131:Generated_Source\PSoC6\pdl\drivers\peripheral\dma/cy_dma.h **** *     <td>1.0</td>
 132:Generated_Source\PSoC6\pdl\drivers\peripheral\dma/cy_dma.h **** *     <td>Initial version</td>
 133:Generated_Source\PSoC6\pdl\drivers\peripheral\dma/cy_dma.h **** *     <td></td>
 134:Generated_Source\PSoC6\pdl\drivers\peripheral\dma/cy_dma.h **** *   </tr>
 135:Generated_Source\PSoC6\pdl\drivers\peripheral\dma/cy_dma.h **** * </table>
 136:Generated_Source\PSoC6\pdl\drivers\peripheral\dma/cy_dma.h **** *
 137:Generated_Source\PSoC6\pdl\drivers\peripheral\dma/cy_dma.h **** 
 138:Generated_Source\PSoC6\pdl\drivers\peripheral\dma/cy_dma.h **** * \defgroup group_dma_macros Macros
 139:Generated_Source\PSoC6\pdl\drivers\peripheral\dma/cy_dma.h **** * \defgroup group_dma_functions Functions
ARM GAS  C:\Users\cypress\AppData\Local\Temp\cczqZZvj.s 			page 25


 140:Generated_Source\PSoC6\pdl\drivers\peripheral\dma/cy_dma.h **** * \{
 141:Generated_Source\PSoC6\pdl\drivers\peripheral\dma/cy_dma.h **** * \defgroup group_dma_block_functions Block Functions
 142:Generated_Source\PSoC6\pdl\drivers\peripheral\dma/cy_dma.h **** * \defgroup group_dma_descriptor_functions Descriptor Functions
 143:Generated_Source\PSoC6\pdl\drivers\peripheral\dma/cy_dma.h **** * \defgroup group_dma_channel_functions Channel Functions
 144:Generated_Source\PSoC6\pdl\drivers\peripheral\dma/cy_dma.h **** * \}
 145:Generated_Source\PSoC6\pdl\drivers\peripheral\dma/cy_dma.h **** * \defgroup group_dma_data_structures Data Structures
 146:Generated_Source\PSoC6\pdl\drivers\peripheral\dma/cy_dma.h **** * \defgroup group_dma_enums Enumerated Types
 147:Generated_Source\PSoC6\pdl\drivers\peripheral\dma/cy_dma.h **** */
 148:Generated_Source\PSoC6\pdl\drivers\peripheral\dma/cy_dma.h **** 
 149:Generated_Source\PSoC6\pdl\drivers\peripheral\dma/cy_dma.h **** #if !defined(CY_DMA_H)
 150:Generated_Source\PSoC6\pdl\drivers\peripheral\dma/cy_dma.h **** #define CY_DMA_H
 151:Generated_Source\PSoC6\pdl\drivers\peripheral\dma/cy_dma.h **** 
 152:Generated_Source\PSoC6\pdl\drivers\peripheral\dma/cy_dma.h **** #include <stdint.h>
 153:Generated_Source\PSoC6\pdl\drivers\peripheral\dma/cy_dma.h **** #include <stdbool.h>
 154:Generated_Source\PSoC6\pdl\drivers\peripheral\dma/cy_dma.h **** #include <stddef.h>
 155:Generated_Source\PSoC6\pdl\drivers\peripheral\dma/cy_dma.h **** #include "syslib/cy_syslib.h"
 156:Generated_Source\PSoC6\pdl\drivers\peripheral\dma/cy_dma.h **** #include "cy_device_headers.h"
 157:Generated_Source\PSoC6\pdl\drivers\peripheral\dma/cy_dma.h **** 
 158:Generated_Source\PSoC6\pdl\drivers\peripheral\dma/cy_dma.h **** #ifndef CY_IP_M4CPUSS_DMA
 159:Generated_Source\PSoC6\pdl\drivers\peripheral\dma/cy_dma.h ****     #error "The DMA driver is not supported on this device"
 160:Generated_Source\PSoC6\pdl\drivers\peripheral\dma/cy_dma.h **** #endif
 161:Generated_Source\PSoC6\pdl\drivers\peripheral\dma/cy_dma.h **** 
 162:Generated_Source\PSoC6\pdl\drivers\peripheral\dma/cy_dma.h **** #if defined(__cplusplus)
 163:Generated_Source\PSoC6\pdl\drivers\peripheral\dma/cy_dma.h **** extern "C" {
 164:Generated_Source\PSoC6\pdl\drivers\peripheral\dma/cy_dma.h **** #endif
 165:Generated_Source\PSoC6\pdl\drivers\peripheral\dma/cy_dma.h **** 
 166:Generated_Source\PSoC6\pdl\drivers\peripheral\dma/cy_dma.h **** /******************************************************************************
 167:Generated_Source\PSoC6\pdl\drivers\peripheral\dma/cy_dma.h ****  * Macro definitions                                                          *
 168:Generated_Source\PSoC6\pdl\drivers\peripheral\dma/cy_dma.h ****  ******************************************************************************/
 169:Generated_Source\PSoC6\pdl\drivers\peripheral\dma/cy_dma.h **** 
 170:Generated_Source\PSoC6\pdl\drivers\peripheral\dma/cy_dma.h **** /**
 171:Generated_Source\PSoC6\pdl\drivers\peripheral\dma/cy_dma.h **** * \addtogroup group_dma_macros
 172:Generated_Source\PSoC6\pdl\drivers\peripheral\dma/cy_dma.h **** * \{
 173:Generated_Source\PSoC6\pdl\drivers\peripheral\dma/cy_dma.h **** */
 174:Generated_Source\PSoC6\pdl\drivers\peripheral\dma/cy_dma.h **** 
 175:Generated_Source\PSoC6\pdl\drivers\peripheral\dma/cy_dma.h **** /** The driver major version */
 176:Generated_Source\PSoC6\pdl\drivers\peripheral\dma/cy_dma.h **** #define CY_DMA_DRV_VERSION_MAJOR       2
 177:Generated_Source\PSoC6\pdl\drivers\peripheral\dma/cy_dma.h **** 
 178:Generated_Source\PSoC6\pdl\drivers\peripheral\dma/cy_dma.h **** /** The driver minor version */
 179:Generated_Source\PSoC6\pdl\drivers\peripheral\dma/cy_dma.h **** #define CY_DMA_DRV_VERSION_MINOR       0
 180:Generated_Source\PSoC6\pdl\drivers\peripheral\dma/cy_dma.h **** 
 181:Generated_Source\PSoC6\pdl\drivers\peripheral\dma/cy_dma.h **** /** The DMA driver identifier */
 182:Generated_Source\PSoC6\pdl\drivers\peripheral\dma/cy_dma.h **** #define CY_DMA_ID                      (CY_PDL_DRV_ID(0x13U))
 183:Generated_Source\PSoC6\pdl\drivers\peripheral\dma/cy_dma.h ****  
 184:Generated_Source\PSoC6\pdl\drivers\peripheral\dma/cy_dma.h **** /** The DMA channel interrupt mask */
 185:Generated_Source\PSoC6\pdl\drivers\peripheral\dma/cy_dma.h **** #define CY_DMA_INTR_MASK               (0x01UL)
 186:Generated_Source\PSoC6\pdl\drivers\peripheral\dma/cy_dma.h **** 
 187:Generated_Source\PSoC6\pdl\drivers\peripheral\dma/cy_dma.h **** /** The backward compatibility flag. Enables a group of macros which provide 
 188:Generated_Source\PSoC6\pdl\drivers\peripheral\dma/cy_dma.h **** * the backward compatibility with most of the DMA driver version 1.0 interface. */
 189:Generated_Source\PSoC6\pdl\drivers\peripheral\dma/cy_dma.h **** #ifndef CY_DMA_BWC
 190:Generated_Source\PSoC6\pdl\drivers\peripheral\dma/cy_dma.h ****     #define CY_DMA_BWC                 (0U)
 191:Generated_Source\PSoC6\pdl\drivers\peripheral\dma/cy_dma.h **** #endif
 192:Generated_Source\PSoC6\pdl\drivers\peripheral\dma/cy_dma.h **** 
 193:Generated_Source\PSoC6\pdl\drivers\peripheral\dma/cy_dma.h **** /** \} group_dma_macros */
 194:Generated_Source\PSoC6\pdl\drivers\peripheral\dma/cy_dma.h **** 
 195:Generated_Source\PSoC6\pdl\drivers\peripheral\dma/cy_dma.h **** 
 196:Generated_Source\PSoC6\pdl\drivers\peripheral\dma/cy_dma.h **** /**
ARM GAS  C:\Users\cypress\AppData\Local\Temp\cczqZZvj.s 			page 26


 197:Generated_Source\PSoC6\pdl\drivers\peripheral\dma/cy_dma.h **** * \addtogroup group_dma_enums
 198:Generated_Source\PSoC6\pdl\drivers\peripheral\dma/cy_dma.h **** * \{
 199:Generated_Source\PSoC6\pdl\drivers\peripheral\dma/cy_dma.h **** */
 200:Generated_Source\PSoC6\pdl\drivers\peripheral\dma/cy_dma.h **** 
 201:Generated_Source\PSoC6\pdl\drivers\peripheral\dma/cy_dma.h **** /** Contains the possible interrupt cause values */
 202:Generated_Source\PSoC6\pdl\drivers\peripheral\dma/cy_dma.h **** typedef enum
 203:Generated_Source\PSoC6\pdl\drivers\peripheral\dma/cy_dma.h **** {
 204:Generated_Source\PSoC6\pdl\drivers\peripheral\dma/cy_dma.h ****     CY_DMA_INTR_CAUSE_NO_INTR            = 0U, /**< No interrupt                         */
 205:Generated_Source\PSoC6\pdl\drivers\peripheral\dma/cy_dma.h ****     CY_DMA_INTR_CAUSE_COMPLETION         = 1U, /**< Completion                           */
 206:Generated_Source\PSoC6\pdl\drivers\peripheral\dma/cy_dma.h ****     CY_DMA_INTR_CAUSE_SRC_BUS_ERROR      = 2U, /**< Source bus error                     */
 207:Generated_Source\PSoC6\pdl\drivers\peripheral\dma/cy_dma.h ****     CY_DMA_INTR_CAUSE_DST_BUS_ERROR      = 3U, /**< Destination bus error                */
 208:Generated_Source\PSoC6\pdl\drivers\peripheral\dma/cy_dma.h ****     CY_DMA_INTR_CAUSE_SRC_MISAL          = 4U, /**< Source address is not aligned        */
 209:Generated_Source\PSoC6\pdl\drivers\peripheral\dma/cy_dma.h ****     CY_DMA_INTR_CAUSE_DST_MISAL          = 5U, /**< Destination address is not aligned   */
 210:Generated_Source\PSoC6\pdl\drivers\peripheral\dma/cy_dma.h ****     CY_DMA_INTR_CAUSE_CURR_PTR_NULL      = 6U, /**< Current descripror pointer is NULL   */
 211:Generated_Source\PSoC6\pdl\drivers\peripheral\dma/cy_dma.h ****     CY_DMA_INTR_CAUSE_ACTIVE_CH_DISABLED = 7U, /**< Active channel is disabled           */
 212:Generated_Source\PSoC6\pdl\drivers\peripheral\dma/cy_dma.h ****     CY_DMA_INTR_CAUSE_DESCR_BUS_ERROR    = 8U  /**< Descriptor bus error                 */
 213:Generated_Source\PSoC6\pdl\drivers\peripheral\dma/cy_dma.h **** } cy_en_dma_intr_cause_t;
 214:Generated_Source\PSoC6\pdl\drivers\peripheral\dma/cy_dma.h **** 
 215:Generated_Source\PSoC6\pdl\drivers\peripheral\dma/cy_dma.h **** /** Contains the options for the descriptor type */
 216:Generated_Source\PSoC6\pdl\drivers\peripheral\dma/cy_dma.h **** typedef enum
 217:Generated_Source\PSoC6\pdl\drivers\peripheral\dma/cy_dma.h **** {
 218:Generated_Source\PSoC6\pdl\drivers\peripheral\dma/cy_dma.h ****     CY_DMA_SINGLE_TRANSFER = 0UL,          /**< Single transfer. */
 219:Generated_Source\PSoC6\pdl\drivers\peripheral\dma/cy_dma.h ****     CY_DMA_1D_TRANSFER     = 1UL,          /**< 1D transfer.     */
 220:Generated_Source\PSoC6\pdl\drivers\peripheral\dma/cy_dma.h ****     CY_DMA_2D_TRANSFER     = 2UL           /**< 2D transfer.     */
 221:Generated_Source\PSoC6\pdl\drivers\peripheral\dma/cy_dma.h **** } cy_en_dma_descriptor_type_t;
 222:Generated_Source\PSoC6\pdl\drivers\peripheral\dma/cy_dma.h **** 
 223:Generated_Source\PSoC6\pdl\drivers\peripheral\dma/cy_dma.h **** /** Contains the options for the interrupt, trig-in and trig-out type parameters of the descriptor 
 224:Generated_Source\PSoC6\pdl\drivers\peripheral\dma/cy_dma.h **** typedef enum
 225:Generated_Source\PSoC6\pdl\drivers\peripheral\dma/cy_dma.h **** {
 226:Generated_Source\PSoC6\pdl\drivers\peripheral\dma/cy_dma.h ****     CY_DMA_1ELEMENT    = 0UL,               /**< One element transfer.             */
 227:Generated_Source\PSoC6\pdl\drivers\peripheral\dma/cy_dma.h ****     CY_DMA_X_LOOP      = 1UL,               /**< One X loop transfer.              */
 228:Generated_Source\PSoC6\pdl\drivers\peripheral\dma/cy_dma.h ****     CY_DMA_DESCR       = 2UL,               /**< One descriptor transfer.          */
 229:Generated_Source\PSoC6\pdl\drivers\peripheral\dma/cy_dma.h ****     CY_DMA_DESCR_CHAIN = 3UL                /**< Entire descriptor chain transfer. */
 230:Generated_Source\PSoC6\pdl\drivers\peripheral\dma/cy_dma.h **** } cy_en_dma_trigger_type_t;
 231:Generated_Source\PSoC6\pdl\drivers\peripheral\dma/cy_dma.h **** 
 232:Generated_Source\PSoC6\pdl\drivers\peripheral\dma/cy_dma.h **** /** This enum has the options for the data size */
 233:Generated_Source\PSoC6\pdl\drivers\peripheral\dma/cy_dma.h **** typedef enum
 234:Generated_Source\PSoC6\pdl\drivers\peripheral\dma/cy_dma.h **** {
 235:Generated_Source\PSoC6\pdl\drivers\peripheral\dma/cy_dma.h ****     CY_DMA_BYTE     = 0UL,                 /**< One byte               */
 236:Generated_Source\PSoC6\pdl\drivers\peripheral\dma/cy_dma.h ****     CY_DMA_HALFWORD = 1UL,                 /**< Half word (two bytes)  */
 237:Generated_Source\PSoC6\pdl\drivers\peripheral\dma/cy_dma.h ****     CY_DMA_WORD     = 2UL                  /**< Full word (four bytes) */
 238:Generated_Source\PSoC6\pdl\drivers\peripheral\dma/cy_dma.h **** } cy_en_dma_data_size_t;
 239:Generated_Source\PSoC6\pdl\drivers\peripheral\dma/cy_dma.h **** 
 240:Generated_Source\PSoC6\pdl\drivers\peripheral\dma/cy_dma.h **** /** This enum has the options for descriptor retriggering */
 241:Generated_Source\PSoC6\pdl\drivers\peripheral\dma/cy_dma.h **** typedef enum
 242:Generated_Source\PSoC6\pdl\drivers\peripheral\dma/cy_dma.h **** {
 243:Generated_Source\PSoC6\pdl\drivers\peripheral\dma/cy_dma.h ****     CY_DMA_RETRIG_IM    = 0UL,             /**< Retrigger immediatelly            */
 244:Generated_Source\PSoC6\pdl\drivers\peripheral\dma/cy_dma.h ****     CY_DMA_RETRIG_4CYC  = 1UL,             /**< Retrigger after 4 Clk_Slow cycles  */
 245:Generated_Source\PSoC6\pdl\drivers\peripheral\dma/cy_dma.h ****     CY_DMA_RETRIG_16CYC = 2UL,             /**< Retrigger after 16 Clk_Slow cycles */
 246:Generated_Source\PSoC6\pdl\drivers\peripheral\dma/cy_dma.h ****     CY_DMA_WAIT_FOR_REACT = 3UL            /**< Wait for trigger reactivation     */
 247:Generated_Source\PSoC6\pdl\drivers\peripheral\dma/cy_dma.h **** } cy_en_dma_retrigger_t;
 248:Generated_Source\PSoC6\pdl\drivers\peripheral\dma/cy_dma.h **** 
 249:Generated_Source\PSoC6\pdl\drivers\peripheral\dma/cy_dma.h **** /** This enum has the options for the transfer size */
 250:Generated_Source\PSoC6\pdl\drivers\peripheral\dma/cy_dma.h **** typedef enum
 251:Generated_Source\PSoC6\pdl\drivers\peripheral\dma/cy_dma.h **** {
 252:Generated_Source\PSoC6\pdl\drivers\peripheral\dma/cy_dma.h ****     CY_DMA_TRANSFER_SIZE_DATA = 0UL,           /**< As specified by dataSize. */
 253:Generated_Source\PSoC6\pdl\drivers\peripheral\dma/cy_dma.h ****     CY_DMA_TRANSFER_SIZE_WORD = 1UL,           /**< A full word (four bytes). */
ARM GAS  C:\Users\cypress\AppData\Local\Temp\cczqZZvj.s 			page 27


 254:Generated_Source\PSoC6\pdl\drivers\peripheral\dma/cy_dma.h **** } cy_en_dma_transfer_size_t;
 255:Generated_Source\PSoC6\pdl\drivers\peripheral\dma/cy_dma.h **** 
 256:Generated_Source\PSoC6\pdl\drivers\peripheral\dma/cy_dma.h **** /** This enum has the options for the state of the channel when the descriptor is completed   */
 257:Generated_Source\PSoC6\pdl\drivers\peripheral\dma/cy_dma.h **** typedef enum
 258:Generated_Source\PSoC6\pdl\drivers\peripheral\dma/cy_dma.h **** {
 259:Generated_Source\PSoC6\pdl\drivers\peripheral\dma/cy_dma.h ****     CY_DMA_CHANNEL_ENABLED  = 0UL,         /**< Channel stays enabled  */
 260:Generated_Source\PSoC6\pdl\drivers\peripheral\dma/cy_dma.h ****     CY_DMA_CHANNEL_DISABLED = 1UL          /**< Channel is disabled */
 261:Generated_Source\PSoC6\pdl\drivers\peripheral\dma/cy_dma.h **** } cy_en_dma_channel_state_t;
 262:Generated_Source\PSoC6\pdl\drivers\peripheral\dma/cy_dma.h **** 
 263:Generated_Source\PSoC6\pdl\drivers\peripheral\dma/cy_dma.h **** /** This enum has the return values of the DMA driver */
 264:Generated_Source\PSoC6\pdl\drivers\peripheral\dma/cy_dma.h **** typedef enum 
 265:Generated_Source\PSoC6\pdl\drivers\peripheral\dma/cy_dma.h **** {
 266:Generated_Source\PSoC6\pdl\drivers\peripheral\dma/cy_dma.h ****     CY_DMA_SUCCESS          = 0x00UL, /**< Success. */
 267:Generated_Source\PSoC6\pdl\drivers\peripheral\dma/cy_dma.h ****     CY_DMA_BAD_PARAM        = CY_DMA_ID | CY_PDL_STATUS_ERROR | 0x01UL /**< The input parameters pa
 268:Generated_Source\PSoC6\pdl\drivers\peripheral\dma/cy_dma.h **** } cy_en_dma_status_t;
 269:Generated_Source\PSoC6\pdl\drivers\peripheral\dma/cy_dma.h **** 
 270:Generated_Source\PSoC6\pdl\drivers\peripheral\dma/cy_dma.h **** /** \} group_dma_enums */
 271:Generated_Source\PSoC6\pdl\drivers\peripheral\dma/cy_dma.h **** 
 272:Generated_Source\PSoC6\pdl\drivers\peripheral\dma/cy_dma.h **** 
 273:Generated_Source\PSoC6\pdl\drivers\peripheral\dma/cy_dma.h **** /** \cond Macros for the conditions used by CY_ASSERT calls */
 274:Generated_Source\PSoC6\pdl\drivers\peripheral\dma/cy_dma.h **** 
 275:Generated_Source\PSoC6\pdl\drivers\peripheral\dma/cy_dma.h **** #define CY_DMA_IS_COUNT_VALID(count)          (((count) >= 1UL) && ((count) <= 256UL))
 276:Generated_Source\PSoC6\pdl\drivers\peripheral\dma/cy_dma.h **** #define CY_DMA_IS_INCR_VALID(incr)            (((incr) >= -2048L) && ((incr) <= 2047L))
 277:Generated_Source\PSoC6\pdl\drivers\peripheral\dma/cy_dma.h **** #define CY_DMA_IS_PRIORITY_VALID(prio)        ((prio) <= 3UL)
 278:Generated_Source\PSoC6\pdl\drivers\peripheral\dma/cy_dma.h **** #define CY_DMA_IS_INTR_MASK_VALID(interrupt)  (0UL == ((interrupt) & ((uint32_t) ~CY_DMA_INTR_MASK)
 279:Generated_Source\PSoC6\pdl\drivers\peripheral\dma/cy_dma.h **** 
 280:Generated_Source\PSoC6\pdl\drivers\peripheral\dma/cy_dma.h **** #define CY_DMA_IS_RETRIGGER_VALID(retrigger)  ((CY_DMA_RETRIG_IM      == (retrigger)) || \
 281:Generated_Source\PSoC6\pdl\drivers\peripheral\dma/cy_dma.h ****                                                (CY_DMA_RETRIG_4CYC    == (retrigger)) || \
 282:Generated_Source\PSoC6\pdl\drivers\peripheral\dma/cy_dma.h ****                                                (CY_DMA_RETRIG_16CYC   == (retrigger)) || \
 283:Generated_Source\PSoC6\pdl\drivers\peripheral\dma/cy_dma.h ****                                                (CY_DMA_WAIT_FOR_REACT == (retrigger)))
 284:Generated_Source\PSoC6\pdl\drivers\peripheral\dma/cy_dma.h ****                                               
 285:Generated_Source\PSoC6\pdl\drivers\peripheral\dma/cy_dma.h **** #define CY_DMA_IS_TRIG_TYPE_VALID(trigType)   ((CY_DMA_1ELEMENT    == (trigType)) || \
 286:Generated_Source\PSoC6\pdl\drivers\peripheral\dma/cy_dma.h ****                                                (CY_DMA_X_LOOP      == (trigType)) || \
 287:Generated_Source\PSoC6\pdl\drivers\peripheral\dma/cy_dma.h ****                                                (CY_DMA_DESCR       == (trigType)) || \
 288:Generated_Source\PSoC6\pdl\drivers\peripheral\dma/cy_dma.h ****                                                (CY_DMA_DESCR_CHAIN == (trigType)))
 289:Generated_Source\PSoC6\pdl\drivers\peripheral\dma/cy_dma.h ****                                               
 290:Generated_Source\PSoC6\pdl\drivers\peripheral\dma/cy_dma.h **** #define CY_DMA_IS_XFER_SIZE_VALID(xferSize)   ((CY_DMA_TRANSFER_SIZE_DATA == (xferSize)) || \
 291:Generated_Source\PSoC6\pdl\drivers\peripheral\dma/cy_dma.h ****                                                (CY_DMA_TRANSFER_SIZE_WORD == (xferSize)))
 292:Generated_Source\PSoC6\pdl\drivers\peripheral\dma/cy_dma.h ****                                               
 293:Generated_Source\PSoC6\pdl\drivers\peripheral\dma/cy_dma.h **** #define CY_DMA_IS_CHANNEL_STATE_VALID(state)  ((CY_DMA_CHANNEL_ENABLED  == (state)) || \
 294:Generated_Source\PSoC6\pdl\drivers\peripheral\dma/cy_dma.h ****                                                (CY_DMA_CHANNEL_DISABLED == (state)))
 295:Generated_Source\PSoC6\pdl\drivers\peripheral\dma/cy_dma.h ****                                                
 296:Generated_Source\PSoC6\pdl\drivers\peripheral\dma/cy_dma.h **** #define CY_DMA_IS_DATA_SIZE_VALID(dataSize)   ((CY_DMA_BYTE     == (dataSize)) || \
 297:Generated_Source\PSoC6\pdl\drivers\peripheral\dma/cy_dma.h ****                                                (CY_DMA_HALFWORD == (dataSize)) || \
 298:Generated_Source\PSoC6\pdl\drivers\peripheral\dma/cy_dma.h ****                                                (CY_DMA_WORD     == (dataSize)))
 299:Generated_Source\PSoC6\pdl\drivers\peripheral\dma/cy_dma.h ****                                                
 300:Generated_Source\PSoC6\pdl\drivers\peripheral\dma/cy_dma.h **** #define CY_DMA_IS_TYPE_VALID(descrType)       ((CY_DMA_SINGLE_TRANSFER == (descrType)) || \
 301:Generated_Source\PSoC6\pdl\drivers\peripheral\dma/cy_dma.h ****                                                (CY_DMA_1D_TRANSFER     == (descrType)) || \
 302:Generated_Source\PSoC6\pdl\drivers\peripheral\dma/cy_dma.h ****                                                (CY_DMA_2D_TRANSFER     == (descrType)))
 303:Generated_Source\PSoC6\pdl\drivers\peripheral\dma/cy_dma.h ****                                                
 304:Generated_Source\PSoC6\pdl\drivers\peripheral\dma/cy_dma.h **** #define CY_DMA_IS_DW_CH_NR_VALID(dwNr, chNr)  (((0U != CPUSS_DW0_PRESENT) && (DW0 == (dwNr)) && ((c
 305:Generated_Source\PSoC6\pdl\drivers\peripheral\dma/cy_dma.h ****                                                ((0U != CPUSS_DW1_PRESENT) && (DW1 == (dwNr)) && ((c
 306:Generated_Source\PSoC6\pdl\drivers\peripheral\dma/cy_dma.h **** 
 307:Generated_Source\PSoC6\pdl\drivers\peripheral\dma/cy_dma.h **** /* The descriptor structure bit-filed definitions */
 308:Generated_Source\PSoC6\pdl\drivers\peripheral\dma/cy_dma.h **** #define CY_DMA_CTL_RETRIG_Pos      0UL
 309:Generated_Source\PSoC6\pdl\drivers\peripheral\dma/cy_dma.h **** #define CY_DMA_CTL_RETRIG_Msk      0x3UL
 310:Generated_Source\PSoC6\pdl\drivers\peripheral\dma/cy_dma.h **** #define CY_DMA_CTL_INTR_TYPE_Pos   2UL
ARM GAS  C:\Users\cypress\AppData\Local\Temp\cczqZZvj.s 			page 28


 311:Generated_Source\PSoC6\pdl\drivers\peripheral\dma/cy_dma.h **** #define CY_DMA_CTL_INTR_TYPE_Msk   0xCUL
 312:Generated_Source\PSoC6\pdl\drivers\peripheral\dma/cy_dma.h **** #define CY_DMA_CTL_TR_OUT_TYPE_Pos 4UL
 313:Generated_Source\PSoC6\pdl\drivers\peripheral\dma/cy_dma.h **** #define CY_DMA_CTL_TR_OUT_TYPE_Msk 0x30UL
 314:Generated_Source\PSoC6\pdl\drivers\peripheral\dma/cy_dma.h **** #define CY_DMA_CTL_TR_IN_TYPE_Pos  6UL
 315:Generated_Source\PSoC6\pdl\drivers\peripheral\dma/cy_dma.h **** #define CY_DMA_CTL_TR_IN_TYPE_Msk  0xC0UL
 316:Generated_Source\PSoC6\pdl\drivers\peripheral\dma/cy_dma.h **** #define CY_DMA_CTL_CH_DISABLE_Pos  24UL
 317:Generated_Source\PSoC6\pdl\drivers\peripheral\dma/cy_dma.h **** #define CY_DMA_CTL_CH_DISABLE_Msk  0x1000000UL
 318:Generated_Source\PSoC6\pdl\drivers\peripheral\dma/cy_dma.h **** #define CY_DMA_CTL_SRC_SIZE_Pos    26UL
 319:Generated_Source\PSoC6\pdl\drivers\peripheral\dma/cy_dma.h **** #define CY_DMA_CTL_SRC_SIZE_Msk    0x4000000UL
 320:Generated_Source\PSoC6\pdl\drivers\peripheral\dma/cy_dma.h **** #define CY_DMA_CTL_DST_SIZE_Pos    27UL
 321:Generated_Source\PSoC6\pdl\drivers\peripheral\dma/cy_dma.h **** #define CY_DMA_CTL_DST_SIZE_Msk    0x8000000UL
 322:Generated_Source\PSoC6\pdl\drivers\peripheral\dma/cy_dma.h **** #define CY_DMA_CTL_DATA_SIZE_Pos   28UL
 323:Generated_Source\PSoC6\pdl\drivers\peripheral\dma/cy_dma.h **** #define CY_DMA_CTL_DATA_SIZE_Msk   0x30000000UL
 324:Generated_Source\PSoC6\pdl\drivers\peripheral\dma/cy_dma.h **** #define CY_DMA_CTL_TYPE_Pos        30UL
 325:Generated_Source\PSoC6\pdl\drivers\peripheral\dma/cy_dma.h **** #define CY_DMA_CTL_TYPE_Msk        0xC0000000UL
 326:Generated_Source\PSoC6\pdl\drivers\peripheral\dma/cy_dma.h **** 
 327:Generated_Source\PSoC6\pdl\drivers\peripheral\dma/cy_dma.h **** #define CY_DMA_CTL_SRC_INCR_Pos    0UL
 328:Generated_Source\PSoC6\pdl\drivers\peripheral\dma/cy_dma.h **** #define CY_DMA_CTL_SRC_INCR_Msk    0xFFFUL
 329:Generated_Source\PSoC6\pdl\drivers\peripheral\dma/cy_dma.h **** #define CY_DMA_CTL_DST_INCR_Pos    12UL
 330:Generated_Source\PSoC6\pdl\drivers\peripheral\dma/cy_dma.h **** #define CY_DMA_CTL_DST_INCR_Msk    0xFFF000UL
 331:Generated_Source\PSoC6\pdl\drivers\peripheral\dma/cy_dma.h **** #define CY_DMA_CTL_COUNT_Pos       24UL
 332:Generated_Source\PSoC6\pdl\drivers\peripheral\dma/cy_dma.h **** #define CY_DMA_CTL_COUNT_Msk       0xFF000000UL
 333:Generated_Source\PSoC6\pdl\drivers\peripheral\dma/cy_dma.h **** 
 334:Generated_Source\PSoC6\pdl\drivers\peripheral\dma/cy_dma.h **** /** \endcond */
 335:Generated_Source\PSoC6\pdl\drivers\peripheral\dma/cy_dma.h **** 
 336:Generated_Source\PSoC6\pdl\drivers\peripheral\dma/cy_dma.h **** 
 337:Generated_Source\PSoC6\pdl\drivers\peripheral\dma/cy_dma.h **** /**
 338:Generated_Source\PSoC6\pdl\drivers\peripheral\dma/cy_dma.h **** * \addtogroup group_dma_data_structures
 339:Generated_Source\PSoC6\pdl\drivers\peripheral\dma/cy_dma.h **** * \{
 340:Generated_Source\PSoC6\pdl\drivers\peripheral\dma/cy_dma.h **** */
 341:Generated_Source\PSoC6\pdl\drivers\peripheral\dma/cy_dma.h **** 
 342:Generated_Source\PSoC6\pdl\drivers\peripheral\dma/cy_dma.h **** /** 
 343:Generated_Source\PSoC6\pdl\drivers\peripheral\dma/cy_dma.h **** * DMA descriptor structure type. It is a user/component-declared structure 
 344:Generated_Source\PSoC6\pdl\drivers\peripheral\dma/cy_dma.h **** * allocated in RAM. The DMA HW requires a pointer to this structure to work with it.
 345:Generated_Source\PSoC6\pdl\drivers\peripheral\dma/cy_dma.h **** *
 346:Generated_Source\PSoC6\pdl\drivers\peripheral\dma/cy_dma.h **** * For advanced users: the descriptor can be allocated even in Flash, then the user
 347:Generated_Source\PSoC6\pdl\drivers\peripheral\dma/cy_dma.h **** * manually predefines all the structure items with constants, 
 348:Generated_Source\PSoC6\pdl\drivers\peripheral\dma/cy_dma.h **** * bacause most of the driver's API (especially functions modifying
 349:Generated_Source\PSoC6\pdl\drivers\peripheral\dma/cy_dma.h **** * descriptors, including \ref Cy_DMA_Descriptor_Init()) can't work with 
 350:Generated_Source\PSoC6\pdl\drivers\peripheral\dma/cy_dma.h **** * read-only descriptors.
 351:Generated_Source\PSoC6\pdl\drivers\peripheral\dma/cy_dma.h **** */
 352:Generated_Source\PSoC6\pdl\drivers\peripheral\dma/cy_dma.h **** typedef struct
 353:Generated_Source\PSoC6\pdl\drivers\peripheral\dma/cy_dma.h **** {
 354:Generated_Source\PSoC6\pdl\drivers\peripheral\dma/cy_dma.h ****     uint32_t ctl;                    /*!< 0x00000000 Descriptor control */
 355:Generated_Source\PSoC6\pdl\drivers\peripheral\dma/cy_dma.h ****     uint32_t src;                    /*!< 0x00000004 Descriptor source */
 356:Generated_Source\PSoC6\pdl\drivers\peripheral\dma/cy_dma.h ****     uint32_t dst;                    /*!< 0x00000008 Descriptor destination */
 357:Generated_Source\PSoC6\pdl\drivers\peripheral\dma/cy_dma.h ****     uint32_t xCtl;                   /*!< 0x0000000C Descriptor X loop control */
 358:Generated_Source\PSoC6\pdl\drivers\peripheral\dma/cy_dma.h ****     uint32_t yCtl;                   /*!< 0x00000010 Descriptor Y loop control */
 359:Generated_Source\PSoC6\pdl\drivers\peripheral\dma/cy_dma.h ****     uint32_t nextPtr;                /*!< 0x00000014 Descriptor next pointer */
 360:Generated_Source\PSoC6\pdl\drivers\peripheral\dma/cy_dma.h **** } cy_stc_dma_descriptor_t;
 361:Generated_Source\PSoC6\pdl\drivers\peripheral\dma/cy_dma.h **** 
 362:Generated_Source\PSoC6\pdl\drivers\peripheral\dma/cy_dma.h **** /**
 363:Generated_Source\PSoC6\pdl\drivers\peripheral\dma/cy_dma.h **** * This structure is a configuration structure pre-initialized by the user and
 364:Generated_Source\PSoC6\pdl\drivers\peripheral\dma/cy_dma.h **** * passed as a parameter to the \ref Cy_DMA_Descriptor_Init().
 365:Generated_Source\PSoC6\pdl\drivers\peripheral\dma/cy_dma.h **** * It can be allocated in RAM/Flash (on user's choice).
 366:Generated_Source\PSoC6\pdl\drivers\peripheral\dma/cy_dma.h **** * In case of Flash allocation there is a possibility to reinitialize the descriptor in runtime.
 367:Generated_Source\PSoC6\pdl\drivers\peripheral\dma/cy_dma.h **** * This structure has all the parameters of the descriptor as separate parameters.
ARM GAS  C:\Users\cypress\AppData\Local\Temp\cczqZZvj.s 			page 29


 368:Generated_Source\PSoC6\pdl\drivers\peripheral\dma/cy_dma.h **** * Most of these parameters are represented in the \ref cy_stc_dma_descriptor_t structure as bit fie
 369:Generated_Source\PSoC6\pdl\drivers\peripheral\dma/cy_dma.h **** */
 370:Generated_Source\PSoC6\pdl\drivers\peripheral\dma/cy_dma.h **** typedef struct
 371:Generated_Source\PSoC6\pdl\drivers\peripheral\dma/cy_dma.h **** {
 372:Generated_Source\PSoC6\pdl\drivers\peripheral\dma/cy_dma.h ****     cy_en_dma_retrigger_t       retrigger;       /**< Specifies whether the DW controller should wa
 373:Generated_Source\PSoC6\pdl\drivers\peripheral\dma/cy_dma.h ****     cy_en_dma_trigger_type_t    interruptType;   /**< Sets the event that triggers an interrupt, se
 374:Generated_Source\PSoC6\pdl\drivers\peripheral\dma/cy_dma.h ****     cy_en_dma_trigger_type_t    triggerOutType;  /**< Sets the event that triggers an output,    se
 375:Generated_Source\PSoC6\pdl\drivers\peripheral\dma/cy_dma.h ****     cy_en_dma_channel_state_t   channelState;    /**< Specifies if the channel is enabled or disabl
 376:Generated_Source\PSoC6\pdl\drivers\peripheral\dma/cy_dma.h ****     cy_en_dma_trigger_type_t    triggerInType;   /**< Sets what type of transfer is triggered,   se
 377:Generated_Source\PSoC6\pdl\drivers\peripheral\dma/cy_dma.h ****     cy_en_dma_data_size_t       dataSize;        /**< The size of the data bus for transfer,     se
 378:Generated_Source\PSoC6\pdl\drivers\peripheral\dma/cy_dma.h ****     cy_en_dma_transfer_size_t   srcTransferSize; /**< The source transfer size. */
 379:Generated_Source\PSoC6\pdl\drivers\peripheral\dma/cy_dma.h ****     cy_en_dma_transfer_size_t   dstTransferSize; /**< The destination transfer size. */
 380:Generated_Source\PSoC6\pdl\drivers\peripheral\dma/cy_dma.h ****     cy_en_dma_descriptor_type_t descriptorType;  /**< The type of the descriptor                 se
 381:Generated_Source\PSoC6\pdl\drivers\peripheral\dma/cy_dma.h ****     void *                      srcAddress;      /**< The source address of the transfer. */
 382:Generated_Source\PSoC6\pdl\drivers\peripheral\dma/cy_dma.h ****     void *                      dstAddress;      /**< The destination address of the transfer. */
 383:Generated_Source\PSoC6\pdl\drivers\peripheral\dma/cy_dma.h ****     int32_t                     srcXincrement;   /**< The address increment of the source after eac
 384:Generated_Source\PSoC6\pdl\drivers\peripheral\dma/cy_dma.h ****     int32_t                     dstXincrement;   /**< The address increment of the destination afte
 385:Generated_Source\PSoC6\pdl\drivers\peripheral\dma/cy_dma.h ****     uint32_t                    xCount;          /**< The number of transfers in an X-loop. Valid r
 386:Generated_Source\PSoC6\pdl\drivers\peripheral\dma/cy_dma.h ****     int32_t                     srcYincrement;   /**< The address increment of the source after eac
 387:Generated_Source\PSoC6\pdl\drivers\peripheral\dma/cy_dma.h ****     int32_t                     dstYincrement;   /**< The address increment of the destination afte
 388:Generated_Source\PSoC6\pdl\drivers\peripheral\dma/cy_dma.h ****     uint32_t                    yCount;          /**< The number of X-loops in the Y-loop. Valid ra
 389:Generated_Source\PSoC6\pdl\drivers\peripheral\dma/cy_dma.h ****     cy_stc_dma_descriptor_t *   nextDescriptor;  /**< The next descriptor to chain after completion
 390:Generated_Source\PSoC6\pdl\drivers\peripheral\dma/cy_dma.h **** } cy_stc_dma_descriptor_config_t;
 391:Generated_Source\PSoC6\pdl\drivers\peripheral\dma/cy_dma.h **** 
 392:Generated_Source\PSoC6\pdl\drivers\peripheral\dma/cy_dma.h **** /** This structure holds the initialization values for the DMA channel */
 393:Generated_Source\PSoC6\pdl\drivers\peripheral\dma/cy_dma.h **** typedef struct
 394:Generated_Source\PSoC6\pdl\drivers\peripheral\dma/cy_dma.h **** {
 395:Generated_Source\PSoC6\pdl\drivers\peripheral\dma/cy_dma.h ****     cy_stc_dma_descriptor_t * descriptor;      /**< The DMA descriptor associated with the channel 
 396:Generated_Source\PSoC6\pdl\drivers\peripheral\dma/cy_dma.h ****     bool     preemptable;                      /**< Specifies if the channel is preemptable by anot
 397:Generated_Source\PSoC6\pdl\drivers\peripheral\dma/cy_dma.h ****     uint32_t priority;                         /**< This parameter specifies the channel's priority
 398:Generated_Source\PSoC6\pdl\drivers\peripheral\dma/cy_dma.h ****     bool     enable;                           /**< This parameter specifies if the channel is enab
 399:Generated_Source\PSoC6\pdl\drivers\peripheral\dma/cy_dma.h ****     bool     bufferable;                       /**< This parameter specifies whether a write transa
 400:Generated_Source\PSoC6\pdl\drivers\peripheral\dma/cy_dma.h ****                                                     without waiting for the destination to accept t
 401:Generated_Source\PSoC6\pdl\drivers\peripheral\dma/cy_dma.h **** } cy_stc_dma_channel_config_t;
 402:Generated_Source\PSoC6\pdl\drivers\peripheral\dma/cy_dma.h **** 
 403:Generated_Source\PSoC6\pdl\drivers\peripheral\dma/cy_dma.h **** /** \} group_dma_data_structures */
 404:Generated_Source\PSoC6\pdl\drivers\peripheral\dma/cy_dma.h **** 
 405:Generated_Source\PSoC6\pdl\drivers\peripheral\dma/cy_dma.h **** 
 406:Generated_Source\PSoC6\pdl\drivers\peripheral\dma/cy_dma.h **** /**
 407:Generated_Source\PSoC6\pdl\drivers\peripheral\dma/cy_dma.h **** * \addtogroup group_dma_functions
 408:Generated_Source\PSoC6\pdl\drivers\peripheral\dma/cy_dma.h **** * \{
 409:Generated_Source\PSoC6\pdl\drivers\peripheral\dma/cy_dma.h **** */
 410:Generated_Source\PSoC6\pdl\drivers\peripheral\dma/cy_dma.h **** 
 411:Generated_Source\PSoC6\pdl\drivers\peripheral\dma/cy_dma.h **** __STATIC_INLINE void     Cy_DMA_Enable             (DW_Type * base);
 412:Generated_Source\PSoC6\pdl\drivers\peripheral\dma/cy_dma.h **** __STATIC_INLINE void     Cy_DMA_Disable            (DW_Type * base);
 413:Generated_Source\PSoC6\pdl\drivers\peripheral\dma/cy_dma.h **** __STATIC_INLINE uint32_t Cy_DMA_GetActiveChannel   (DW_Type const * base);
 414:Generated_Source\PSoC6\pdl\drivers\peripheral\dma/cy_dma.h **** __STATIC_INLINE void *   Cy_DMA_GetActiveSrcAddress(DW_Type const * base);
 415:Generated_Source\PSoC6\pdl\drivers\peripheral\dma/cy_dma.h **** __STATIC_INLINE void *   Cy_DMA_GetActiveDstAddress(DW_Type const * base);
 416:Generated_Source\PSoC6\pdl\drivers\peripheral\dma/cy_dma.h **** 
 417:Generated_Source\PSoC6\pdl\drivers\peripheral\dma/cy_dma.h **** 
 418:Generated_Source\PSoC6\pdl\drivers\peripheral\dma/cy_dma.h **** /**
 419:Generated_Source\PSoC6\pdl\drivers\peripheral\dma/cy_dma.h **** * \addtogroup group_dma_descriptor_functions
 420:Generated_Source\PSoC6\pdl\drivers\peripheral\dma/cy_dma.h **** * \{
 421:Generated_Source\PSoC6\pdl\drivers\peripheral\dma/cy_dma.h **** */
 422:Generated_Source\PSoC6\pdl\drivers\peripheral\dma/cy_dma.h **** 
 423:Generated_Source\PSoC6\pdl\drivers\peripheral\dma/cy_dma.h ****   cy_en_dma_status_t Cy_DMA_Descriptor_Init  (cy_stc_dma_descriptor_t * descriptor, cy_stc_dma_desc
 424:Generated_Source\PSoC6\pdl\drivers\peripheral\dma/cy_dma.h ****                 void Cy_DMA_Descriptor_DeInit(cy_stc_dma_descriptor_t * descriptor);
ARM GAS  C:\Users\cypress\AppData\Local\Temp\cczqZZvj.s 			page 30


 425:Generated_Source\PSoC6\pdl\drivers\peripheral\dma/cy_dma.h ****                 
 426:Generated_Source\PSoC6\pdl\drivers\peripheral\dma/cy_dma.h ****                 void Cy_DMA_Descriptor_SetNextDescriptor   (cy_stc_dma_descriptor_t * descriptor, c
 427:Generated_Source\PSoC6\pdl\drivers\peripheral\dma/cy_dma.h ****                 void Cy_DMA_Descriptor_SetDescriptorType   (cy_stc_dma_descriptor_t * descriptor, c
 428:Generated_Source\PSoC6\pdl\drivers\peripheral\dma/cy_dma.h **** __STATIC_INLINE void Cy_DMA_Descriptor_SetSrcAddress       (cy_stc_dma_descriptor_t * descriptor, v
 429:Generated_Source\PSoC6\pdl\drivers\peripheral\dma/cy_dma.h **** __STATIC_INLINE void Cy_DMA_Descriptor_SetDstAddress       (cy_stc_dma_descriptor_t * descriptor, v
 430:Generated_Source\PSoC6\pdl\drivers\peripheral\dma/cy_dma.h **** __STATIC_INLINE void Cy_DMA_Descriptor_SetXloopDataCount   (cy_stc_dma_descriptor_t * descriptor, u
 431:Generated_Source\PSoC6\pdl\drivers\peripheral\dma/cy_dma.h **** __STATIC_INLINE void Cy_DMA_Descriptor_SetYloopDataCount   (cy_stc_dma_descriptor_t * descriptor, u
 432:Generated_Source\PSoC6\pdl\drivers\peripheral\dma/cy_dma.h **** __STATIC_INLINE void Cy_DMA_Descriptor_SetXloopSrcIncrement(cy_stc_dma_descriptor_t * descriptor, i
 433:Generated_Source\PSoC6\pdl\drivers\peripheral\dma/cy_dma.h **** __STATIC_INLINE void Cy_DMA_Descriptor_SetXloopDstIncrement(cy_stc_dma_descriptor_t * descriptor, i
 434:Generated_Source\PSoC6\pdl\drivers\peripheral\dma/cy_dma.h **** __STATIC_INLINE void Cy_DMA_Descriptor_SetYloopSrcIncrement(cy_stc_dma_descriptor_t * descriptor, i
 435:Generated_Source\PSoC6\pdl\drivers\peripheral\dma/cy_dma.h **** __STATIC_INLINE void Cy_DMA_Descriptor_SetYloopDstIncrement(cy_stc_dma_descriptor_t * descriptor, i
 436:Generated_Source\PSoC6\pdl\drivers\peripheral\dma/cy_dma.h **** __STATIC_INLINE void Cy_DMA_Descriptor_SetInterruptType    (cy_stc_dma_descriptor_t * descriptor, c
 437:Generated_Source\PSoC6\pdl\drivers\peripheral\dma/cy_dma.h **** __STATIC_INLINE void Cy_DMA_Descriptor_SetTriggerInType    (cy_stc_dma_descriptor_t * descriptor, c
 438:Generated_Source\PSoC6\pdl\drivers\peripheral\dma/cy_dma.h **** __STATIC_INLINE void Cy_DMA_Descriptor_SetTriggerOutType   (cy_stc_dma_descriptor_t * descriptor, c
 439:Generated_Source\PSoC6\pdl\drivers\peripheral\dma/cy_dma.h **** __STATIC_INLINE void Cy_DMA_Descriptor_SetDataSize         (cy_stc_dma_descriptor_t * descriptor, c
 440:Generated_Source\PSoC6\pdl\drivers\peripheral\dma/cy_dma.h **** __STATIC_INLINE void Cy_DMA_Descriptor_SetSrcTransferSize  (cy_stc_dma_descriptor_t * descriptor, c
 441:Generated_Source\PSoC6\pdl\drivers\peripheral\dma/cy_dma.h **** __STATIC_INLINE void Cy_DMA_Descriptor_SetDstTransferSize  (cy_stc_dma_descriptor_t * descriptor, c
 442:Generated_Source\PSoC6\pdl\drivers\peripheral\dma/cy_dma.h **** __STATIC_INLINE void Cy_DMA_Descriptor_SetRetrigger        (cy_stc_dma_descriptor_t * descriptor, c
 443:Generated_Source\PSoC6\pdl\drivers\peripheral\dma/cy_dma.h **** __STATIC_INLINE void Cy_DMA_Descriptor_SetChannelState     (cy_stc_dma_descriptor_t * descriptor, c
 444:Generated_Source\PSoC6\pdl\drivers\peripheral\dma/cy_dma.h **** 
 445:Generated_Source\PSoC6\pdl\drivers\peripheral\dma/cy_dma.h ****                 cy_stc_dma_descriptor_t *   Cy_DMA_Descriptor_GetNextDescriptor   (cy_stc_dma_descr
 446:Generated_Source\PSoC6\pdl\drivers\peripheral\dma/cy_dma.h **** __STATIC_INLINE cy_en_dma_descriptor_type_t Cy_DMA_Descriptor_GetDescriptorType   (cy_stc_dma_descr
 447:Generated_Source\PSoC6\pdl\drivers\peripheral\dma/cy_dma.h **** __STATIC_INLINE void *                      Cy_DMA_Descriptor_GetSrcAddress       (cy_stc_dma_descr
 448:Generated_Source\PSoC6\pdl\drivers\peripheral\dma/cy_dma.h **** __STATIC_INLINE void *                      Cy_DMA_Descriptor_GetDstAddress       (cy_stc_dma_descr
 449:Generated_Source\PSoC6\pdl\drivers\peripheral\dma/cy_dma.h **** __STATIC_INLINE uint32_t                    Cy_DMA_Descriptor_GetXloopDataCount   (cy_stc_dma_descr
 450:Generated_Source\PSoC6\pdl\drivers\peripheral\dma/cy_dma.h **** __STATIC_INLINE uint32_t                    Cy_DMA_Descriptor_GetYloopDataCount   (cy_stc_dma_descr
 451:Generated_Source\PSoC6\pdl\drivers\peripheral\dma/cy_dma.h **** __STATIC_INLINE int32_t                     Cy_DMA_Descriptor_GetXloopSrcIncrement(cy_stc_dma_descr
 452:Generated_Source\PSoC6\pdl\drivers\peripheral\dma/cy_dma.h **** __STATIC_INLINE int32_t                     Cy_DMA_Descriptor_GetXloopDstIncrement(cy_stc_dma_descr
 453:Generated_Source\PSoC6\pdl\drivers\peripheral\dma/cy_dma.h **** __STATIC_INLINE int32_t                     Cy_DMA_Descriptor_GetYloopSrcIncrement(cy_stc_dma_descr
 454:Generated_Source\PSoC6\pdl\drivers\peripheral\dma/cy_dma.h **** __STATIC_INLINE int32_t                     Cy_DMA_Descriptor_GetYloopDstIncrement(cy_stc_dma_descr
 455:Generated_Source\PSoC6\pdl\drivers\peripheral\dma/cy_dma.h **** __STATIC_INLINE cy_en_dma_trigger_type_t    Cy_DMA_Descriptor_GetInterruptType    (cy_stc_dma_descr
 456:Generated_Source\PSoC6\pdl\drivers\peripheral\dma/cy_dma.h **** __STATIC_INLINE cy_en_dma_trigger_type_t    Cy_DMA_Descriptor_GetTriggerInType    (cy_stc_dma_descr
 457:Generated_Source\PSoC6\pdl\drivers\peripheral\dma/cy_dma.h **** __STATIC_INLINE cy_en_dma_trigger_type_t    Cy_DMA_Descriptor_GetTriggerOutType   (cy_stc_dma_descr
 458:Generated_Source\PSoC6\pdl\drivers\peripheral\dma/cy_dma.h **** __STATIC_INLINE cy_en_dma_data_size_t       Cy_DMA_Descriptor_GetDataSize         (cy_stc_dma_descr
 459:Generated_Source\PSoC6\pdl\drivers\peripheral\dma/cy_dma.h **** __STATIC_INLINE cy_en_dma_transfer_size_t   Cy_DMA_Descriptor_GetSrcTransferSize  (cy_stc_dma_descr
 460:Generated_Source\PSoC6\pdl\drivers\peripheral\dma/cy_dma.h **** __STATIC_INLINE cy_en_dma_transfer_size_t   Cy_DMA_Descriptor_GetDstTransferSize  (cy_stc_dma_descr
 461:Generated_Source\PSoC6\pdl\drivers\peripheral\dma/cy_dma.h **** __STATIC_INLINE cy_en_dma_retrigger_t       Cy_DMA_Descriptor_GetRetrigger        (cy_stc_dma_descr
 462:Generated_Source\PSoC6\pdl\drivers\peripheral\dma/cy_dma.h **** __STATIC_INLINE cy_en_dma_channel_state_t   Cy_DMA_Descriptor_GetChannelState     (cy_stc_dma_descr
 463:Generated_Source\PSoC6\pdl\drivers\peripheral\dma/cy_dma.h **** 
 464:Generated_Source\PSoC6\pdl\drivers\peripheral\dma/cy_dma.h **** /** \} group_dma_descriptor_functions */
 465:Generated_Source\PSoC6\pdl\drivers\peripheral\dma/cy_dma.h **** 
 466:Generated_Source\PSoC6\pdl\drivers\peripheral\dma/cy_dma.h **** 
 467:Generated_Source\PSoC6\pdl\drivers\peripheral\dma/cy_dma.h **** /**
 468:Generated_Source\PSoC6\pdl\drivers\peripheral\dma/cy_dma.h **** * \addtogroup group_dma_channel_functions
 469:Generated_Source\PSoC6\pdl\drivers\peripheral\dma/cy_dma.h **** * \{
 470:Generated_Source\PSoC6\pdl\drivers\peripheral\dma/cy_dma.h **** */
 471:Generated_Source\PSoC6\pdl\drivers\peripheral\dma/cy_dma.h **** 
 472:Generated_Source\PSoC6\pdl\drivers\peripheral\dma/cy_dma.h ****       cy_en_dma_status_t Cy_DMA_Channel_Init         (DW_Type * base, uint32_t channel, cy_stc_dma_
 473:Generated_Source\PSoC6\pdl\drivers\peripheral\dma/cy_dma.h ****                 void     Cy_DMA_Channel_DeInit       (DW_Type * base, uint32_t channel);
 474:Generated_Source\PSoC6\pdl\drivers\peripheral\dma/cy_dma.h **** __STATIC_INLINE void     Cy_DMA_Channel_SetDescriptor(DW_Type * base, uint32_t channel, cy_stc_dma_
 475:Generated_Source\PSoC6\pdl\drivers\peripheral\dma/cy_dma.h **** __STATIC_INLINE void     Cy_DMA_Channel_Enable       (DW_Type * base, uint32_t channel);
 476:Generated_Source\PSoC6\pdl\drivers\peripheral\dma/cy_dma.h **** __STATIC_INLINE void     Cy_DMA_Channel_Disable      (DW_Type * base, uint32_t channel);
 477:Generated_Source\PSoC6\pdl\drivers\peripheral\dma/cy_dma.h **** __STATIC_INLINE void     Cy_DMA_Channel_SetPriority  (DW_Type * base, uint32_t channel, uint32_t pr
 478:Generated_Source\PSoC6\pdl\drivers\peripheral\dma/cy_dma.h **** __STATIC_INLINE uint32_t Cy_DMA_Channel_GetPriority  (DW_Type const * base, uint32_t channel);
 479:Generated_Source\PSoC6\pdl\drivers\peripheral\dma/cy_dma.h **** __STATIC_INLINE cy_en_dma_intr_cause_t Cy_DMA_Channel_GetStatus(DW_Type const * base, uint32_t chan
 480:Generated_Source\PSoC6\pdl\drivers\peripheral\dma/cy_dma.h **** __STATIC_INLINE cy_stc_dma_descriptor_t * Cy_DMA_Channel_GetCurrentDescriptor(DW_Type const * base,
 481:Generated_Source\PSoC6\pdl\drivers\peripheral\dma/cy_dma.h **** 
ARM GAS  C:\Users\cypress\AppData\Local\Temp\cczqZZvj.s 			page 31


 482:Generated_Source\PSoC6\pdl\drivers\peripheral\dma/cy_dma.h **** __STATIC_INLINE uint32_t Cy_DMA_Channel_GetInterruptStatus      (DW_Type const * base, uint32_t cha
 483:Generated_Source\PSoC6\pdl\drivers\peripheral\dma/cy_dma.h **** __STATIC_INLINE void     Cy_DMA_Channel_ClearInterrupt          (DW_Type       * base, uint32_t cha
 484:Generated_Source\PSoC6\pdl\drivers\peripheral\dma/cy_dma.h **** __STATIC_INLINE void     Cy_DMA_Channel_SetInterrupt            (DW_Type       * base, uint32_t cha
 485:Generated_Source\PSoC6\pdl\drivers\peripheral\dma/cy_dma.h **** __STATIC_INLINE uint32_t Cy_DMA_Channel_GetInterruptMask        (DW_Type const * base, uint32_t cha
 486:Generated_Source\PSoC6\pdl\drivers\peripheral\dma/cy_dma.h **** __STATIC_INLINE void     Cy_DMA_Channel_SetInterruptMask        (DW_Type       * base, uint32_t cha
 487:Generated_Source\PSoC6\pdl\drivers\peripheral\dma/cy_dma.h **** __STATIC_INLINE uint32_t Cy_DMA_Channel_GetInterruptStatusMasked(DW_Type const * base, uint32_t cha
 488:Generated_Source\PSoC6\pdl\drivers\peripheral\dma/cy_dma.h **** 
 489:Generated_Source\PSoC6\pdl\drivers\peripheral\dma/cy_dma.h **** /** \} group_dma_channel_functions */
 490:Generated_Source\PSoC6\pdl\drivers\peripheral\dma/cy_dma.h **** 
 491:Generated_Source\PSoC6\pdl\drivers\peripheral\dma/cy_dma.h **** 
 492:Generated_Source\PSoC6\pdl\drivers\peripheral\dma/cy_dma.h **** /***************************************
 493:Generated_Source\PSoC6\pdl\drivers\peripheral\dma/cy_dma.h **** *    In-line Function Implementation
 494:Generated_Source\PSoC6\pdl\drivers\peripheral\dma/cy_dma.h **** ***************************************/
 495:Generated_Source\PSoC6\pdl\drivers\peripheral\dma/cy_dma.h **** 
 496:Generated_Source\PSoC6\pdl\drivers\peripheral\dma/cy_dma.h **** 
 497:Generated_Source\PSoC6\pdl\drivers\peripheral\dma/cy_dma.h **** /**
 498:Generated_Source\PSoC6\pdl\drivers\peripheral\dma/cy_dma.h **** * \addtogroup group_dma_block_functions
 499:Generated_Source\PSoC6\pdl\drivers\peripheral\dma/cy_dma.h **** * \{
 500:Generated_Source\PSoC6\pdl\drivers\peripheral\dma/cy_dma.h **** */
 501:Generated_Source\PSoC6\pdl\drivers\peripheral\dma/cy_dma.h **** 
 502:Generated_Source\PSoC6\pdl\drivers\peripheral\dma/cy_dma.h **** 
 503:Generated_Source\PSoC6\pdl\drivers\peripheral\dma/cy_dma.h **** /*******************************************************************************
 504:Generated_Source\PSoC6\pdl\drivers\peripheral\dma/cy_dma.h **** * Function Name: Cy_DMA_Enable
 505:Generated_Source\PSoC6\pdl\drivers\peripheral\dma/cy_dma.h **** ****************************************************************************//**
 506:Generated_Source\PSoC6\pdl\drivers\peripheral\dma/cy_dma.h **** *
 507:Generated_Source\PSoC6\pdl\drivers\peripheral\dma/cy_dma.h **** * Enables the DMA block.
 508:Generated_Source\PSoC6\pdl\drivers\peripheral\dma/cy_dma.h **** *
 509:Generated_Source\PSoC6\pdl\drivers\peripheral\dma/cy_dma.h **** * \param base
 510:Generated_Source\PSoC6\pdl\drivers\peripheral\dma/cy_dma.h **** * The pointer to the hardware DMA block.
 511:Generated_Source\PSoC6\pdl\drivers\peripheral\dma/cy_dma.h **** *
 512:Generated_Source\PSoC6\pdl\drivers\peripheral\dma/cy_dma.h **** *******************************************************************************/
 513:Generated_Source\PSoC6\pdl\drivers\peripheral\dma/cy_dma.h **** __STATIC_INLINE void Cy_DMA_Enable(DW_Type * base)
 514:Generated_Source\PSoC6\pdl\drivers\peripheral\dma/cy_dma.h **** {
 515:Generated_Source\PSoC6\pdl\drivers\peripheral\dma/cy_dma.h ****     base->CTL |= DW_CTL_ENABLED_Msk;
 516:Generated_Source\PSoC6\pdl\drivers\peripheral\dma/cy_dma.h **** }
 517:Generated_Source\PSoC6\pdl\drivers\peripheral\dma/cy_dma.h **** 
 518:Generated_Source\PSoC6\pdl\drivers\peripheral\dma/cy_dma.h **** 
 519:Generated_Source\PSoC6\pdl\drivers\peripheral\dma/cy_dma.h **** /*******************************************************************************
 520:Generated_Source\PSoC6\pdl\drivers\peripheral\dma/cy_dma.h **** * Function Name: Cy_DMA_Disable
 521:Generated_Source\PSoC6\pdl\drivers\peripheral\dma/cy_dma.h **** ****************************************************************************//**
 522:Generated_Source\PSoC6\pdl\drivers\peripheral\dma/cy_dma.h **** *
 523:Generated_Source\PSoC6\pdl\drivers\peripheral\dma/cy_dma.h **** * Disables the DMA block.
 524:Generated_Source\PSoC6\pdl\drivers\peripheral\dma/cy_dma.h **** *
 525:Generated_Source\PSoC6\pdl\drivers\peripheral\dma/cy_dma.h **** * \param base
 526:Generated_Source\PSoC6\pdl\drivers\peripheral\dma/cy_dma.h **** * The pointer to the hardware DMA block.
 527:Generated_Source\PSoC6\pdl\drivers\peripheral\dma/cy_dma.h **** *
 528:Generated_Source\PSoC6\pdl\drivers\peripheral\dma/cy_dma.h **** *******************************************************************************/
 529:Generated_Source\PSoC6\pdl\drivers\peripheral\dma/cy_dma.h **** __STATIC_INLINE void Cy_DMA_Disable(DW_Type * base)
 530:Generated_Source\PSoC6\pdl\drivers\peripheral\dma/cy_dma.h **** {
 531:Generated_Source\PSoC6\pdl\drivers\peripheral\dma/cy_dma.h ****     base->CTL &= (uint32_t) ~DW_CTL_ENABLED_Msk;
 532:Generated_Source\PSoC6\pdl\drivers\peripheral\dma/cy_dma.h **** }
 533:Generated_Source\PSoC6\pdl\drivers\peripheral\dma/cy_dma.h **** 
 534:Generated_Source\PSoC6\pdl\drivers\peripheral\dma/cy_dma.h **** 
 535:Generated_Source\PSoC6\pdl\drivers\peripheral\dma/cy_dma.h **** /*******************************************************************************
 536:Generated_Source\PSoC6\pdl\drivers\peripheral\dma/cy_dma.h **** * Function Name: Cy_DMA_GetActiveChannel
 537:Generated_Source\PSoC6\pdl\drivers\peripheral\dma/cy_dma.h **** ****************************************************************************//**
 538:Generated_Source\PSoC6\pdl\drivers\peripheral\dma/cy_dma.h **** *
ARM GAS  C:\Users\cypress\AppData\Local\Temp\cczqZZvj.s 			page 32


 539:Generated_Source\PSoC6\pdl\drivers\peripheral\dma/cy_dma.h **** * Returns the status of the active/pending channels.
 540:Generated_Source\PSoC6\pdl\drivers\peripheral\dma/cy_dma.h **** * the DMA block.
 541:Generated_Source\PSoC6\pdl\drivers\peripheral\dma/cy_dma.h **** *
 542:Generated_Source\PSoC6\pdl\drivers\peripheral\dma/cy_dma.h **** * \param base
 543:Generated_Source\PSoC6\pdl\drivers\peripheral\dma/cy_dma.h **** * The pointer to the hardware DMA block.
 544:Generated_Source\PSoC6\pdl\drivers\peripheral\dma/cy_dma.h **** *
 545:Generated_Source\PSoC6\pdl\drivers\peripheral\dma/cy_dma.h **** * \return
 546:Generated_Source\PSoC6\pdl\drivers\peripheral\dma/cy_dma.h **** * Returns a bit-field with all of the currently active/pending channels in the
 547:Generated_Source\PSoC6\pdl\drivers\peripheral\dma/cy_dma.h **** * DMA block.
 548:Generated_Source\PSoC6\pdl\drivers\peripheral\dma/cy_dma.h **** *
 549:Generated_Source\PSoC6\pdl\drivers\peripheral\dma/cy_dma.h **** *******************************************************************************/
 550:Generated_Source\PSoC6\pdl\drivers\peripheral\dma/cy_dma.h **** __STATIC_INLINE uint32_t Cy_DMA_GetActiveChannel(DW_Type const * base)
 551:Generated_Source\PSoC6\pdl\drivers\peripheral\dma/cy_dma.h **** {
 552:Generated_Source\PSoC6\pdl\drivers\peripheral\dma/cy_dma.h ****     return(_FLD2VAL(DW_STATUS_CH_IDX, base->STATUS));
 553:Generated_Source\PSoC6\pdl\drivers\peripheral\dma/cy_dma.h **** }
 554:Generated_Source\PSoC6\pdl\drivers\peripheral\dma/cy_dma.h **** 
 555:Generated_Source\PSoC6\pdl\drivers\peripheral\dma/cy_dma.h **** 
 556:Generated_Source\PSoC6\pdl\drivers\peripheral\dma/cy_dma.h **** /*******************************************************************************
 557:Generated_Source\PSoC6\pdl\drivers\peripheral\dma/cy_dma.h **** * Function Name: Cy_DMA_GetActiveSrcAddress
 558:Generated_Source\PSoC6\pdl\drivers\peripheral\dma/cy_dma.h **** ****************************************************************************//**
 559:Generated_Source\PSoC6\pdl\drivers\peripheral\dma/cy_dma.h **** *
 560:Generated_Source\PSoC6\pdl\drivers\peripheral\dma/cy_dma.h **** * Returns the source address being used for the current transfer.
 561:Generated_Source\PSoC6\pdl\drivers\peripheral\dma/cy_dma.h **** *
 562:Generated_Source\PSoC6\pdl\drivers\peripheral\dma/cy_dma.h **** * \param base
 563:Generated_Source\PSoC6\pdl\drivers\peripheral\dma/cy_dma.h **** * The pointer to the hardware DMA block.
 564:Generated_Source\PSoC6\pdl\drivers\peripheral\dma/cy_dma.h **** *
 565:Generated_Source\PSoC6\pdl\drivers\peripheral\dma/cy_dma.h **** * \return
 566:Generated_Source\PSoC6\pdl\drivers\peripheral\dma/cy_dma.h **** * Returns the pointer to the source of transfer.
 567:Generated_Source\PSoC6\pdl\drivers\peripheral\dma/cy_dma.h **** *
 568:Generated_Source\PSoC6\pdl\drivers\peripheral\dma/cy_dma.h **** *******************************************************************************/
 569:Generated_Source\PSoC6\pdl\drivers\peripheral\dma/cy_dma.h **** __STATIC_INLINE void * Cy_DMA_GetActiveSrcAddress(DW_Type const * base)
 570:Generated_Source\PSoC6\pdl\drivers\peripheral\dma/cy_dma.h **** {
 571:Generated_Source\PSoC6\pdl\drivers\peripheral\dma/cy_dma.h ****     return ((void *)base->ACT_DESCR_SRC);
 572:Generated_Source\PSoC6\pdl\drivers\peripheral\dma/cy_dma.h **** }
 573:Generated_Source\PSoC6\pdl\drivers\peripheral\dma/cy_dma.h **** 
 574:Generated_Source\PSoC6\pdl\drivers\peripheral\dma/cy_dma.h **** 
 575:Generated_Source\PSoC6\pdl\drivers\peripheral\dma/cy_dma.h **** /*******************************************************************************
 576:Generated_Source\PSoC6\pdl\drivers\peripheral\dma/cy_dma.h **** * Function Name: Cy_DMA_GetActiveDstAddress
 577:Generated_Source\PSoC6\pdl\drivers\peripheral\dma/cy_dma.h **** ****************************************************************************//**
 578:Generated_Source\PSoC6\pdl\drivers\peripheral\dma/cy_dma.h **** *
 579:Generated_Source\PSoC6\pdl\drivers\peripheral\dma/cy_dma.h **** * Returns the destination address being used for the current transfer.
 580:Generated_Source\PSoC6\pdl\drivers\peripheral\dma/cy_dma.h **** *
 581:Generated_Source\PSoC6\pdl\drivers\peripheral\dma/cy_dma.h **** * \param base
 582:Generated_Source\PSoC6\pdl\drivers\peripheral\dma/cy_dma.h **** * The pointer to the hardware DMA block.
 583:Generated_Source\PSoC6\pdl\drivers\peripheral\dma/cy_dma.h **** *
 584:Generated_Source\PSoC6\pdl\drivers\peripheral\dma/cy_dma.h **** * \return
 585:Generated_Source\PSoC6\pdl\drivers\peripheral\dma/cy_dma.h **** * Returns the pointer to the destination of transfer.
 586:Generated_Source\PSoC6\pdl\drivers\peripheral\dma/cy_dma.h **** *
 587:Generated_Source\PSoC6\pdl\drivers\peripheral\dma/cy_dma.h **** *******************************************************************************/
 588:Generated_Source\PSoC6\pdl\drivers\peripheral\dma/cy_dma.h **** __STATIC_INLINE void * Cy_DMA_GetActiveDstAddress(DW_Type const * base)
 589:Generated_Source\PSoC6\pdl\drivers\peripheral\dma/cy_dma.h **** {
 590:Generated_Source\PSoC6\pdl\drivers\peripheral\dma/cy_dma.h ****     return ((void *) base->ACT_DESCR_DST);
 591:Generated_Source\PSoC6\pdl\drivers\peripheral\dma/cy_dma.h **** }
 592:Generated_Source\PSoC6\pdl\drivers\peripheral\dma/cy_dma.h **** 
 593:Generated_Source\PSoC6\pdl\drivers\peripheral\dma/cy_dma.h **** /** \} group_dma_block_functions */
 594:Generated_Source\PSoC6\pdl\drivers\peripheral\dma/cy_dma.h **** 
 595:Generated_Source\PSoC6\pdl\drivers\peripheral\dma/cy_dma.h **** 
ARM GAS  C:\Users\cypress\AppData\Local\Temp\cczqZZvj.s 			page 33


 596:Generated_Source\PSoC6\pdl\drivers\peripheral\dma/cy_dma.h **** /**
 597:Generated_Source\PSoC6\pdl\drivers\peripheral\dma/cy_dma.h **** * \addtogroup group_dma_descriptor_functions
 598:Generated_Source\PSoC6\pdl\drivers\peripheral\dma/cy_dma.h **** * \{
 599:Generated_Source\PSoC6\pdl\drivers\peripheral\dma/cy_dma.h **** */
 600:Generated_Source\PSoC6\pdl\drivers\peripheral\dma/cy_dma.h **** 
 601:Generated_Source\PSoC6\pdl\drivers\peripheral\dma/cy_dma.h **** 
 602:Generated_Source\PSoC6\pdl\drivers\peripheral\dma/cy_dma.h **** /*******************************************************************************
 603:Generated_Source\PSoC6\pdl\drivers\peripheral\dma/cy_dma.h **** * Function Name: Cy_DMA_Descriptor_SetSrcAddress
 604:Generated_Source\PSoC6\pdl\drivers\peripheral\dma/cy_dma.h **** ****************************************************************************//**
 605:Generated_Source\PSoC6\pdl\drivers\peripheral\dma/cy_dma.h **** *
 606:Generated_Source\PSoC6\pdl\drivers\peripheral\dma/cy_dma.h **** * Sets the source address parameter for the specified descriptor.
 607:Generated_Source\PSoC6\pdl\drivers\peripheral\dma/cy_dma.h **** *
 608:Generated_Source\PSoC6\pdl\drivers\peripheral\dma/cy_dma.h **** * \param descriptor
 609:Generated_Source\PSoC6\pdl\drivers\peripheral\dma/cy_dma.h **** * The descriptor structure instance declared by the user/component.
 610:Generated_Source\PSoC6\pdl\drivers\peripheral\dma/cy_dma.h **** *
 611:Generated_Source\PSoC6\pdl\drivers\peripheral\dma/cy_dma.h **** * \param srcAddress
 612:Generated_Source\PSoC6\pdl\drivers\peripheral\dma/cy_dma.h **** * The source address value for the descriptor.
 613:Generated_Source\PSoC6\pdl\drivers\peripheral\dma/cy_dma.h **** *
 614:Generated_Source\PSoC6\pdl\drivers\peripheral\dma/cy_dma.h **** *******************************************************************************/
 615:Generated_Source\PSoC6\pdl\drivers\peripheral\dma/cy_dma.h **** __STATIC_INLINE void Cy_DMA_Descriptor_SetSrcAddress(cy_stc_dma_descriptor_t * descriptor, void con
 616:Generated_Source\PSoC6\pdl\drivers\peripheral\dma/cy_dma.h **** {
 617:Generated_Source\PSoC6\pdl\drivers\peripheral\dma/cy_dma.h ****     descriptor->src = (uint32_t) srcAddress;
 618:Generated_Source\PSoC6\pdl\drivers\peripheral\dma/cy_dma.h **** }
 619:Generated_Source\PSoC6\pdl\drivers\peripheral\dma/cy_dma.h **** 
 620:Generated_Source\PSoC6\pdl\drivers\peripheral\dma/cy_dma.h **** 
 621:Generated_Source\PSoC6\pdl\drivers\peripheral\dma/cy_dma.h **** /*******************************************************************************
 622:Generated_Source\PSoC6\pdl\drivers\peripheral\dma/cy_dma.h **** * Function Name: Cy_DMA_Descriptor_GetSrcAddress
 623:Generated_Source\PSoC6\pdl\drivers\peripheral\dma/cy_dma.h **** ****************************************************************************//**
 624:Generated_Source\PSoC6\pdl\drivers\peripheral\dma/cy_dma.h **** *
 625:Generated_Source\PSoC6\pdl\drivers\peripheral\dma/cy_dma.h **** * Returns the source address parameter of the specified descriptor.
 626:Generated_Source\PSoC6\pdl\drivers\peripheral\dma/cy_dma.h **** * 
 627:Generated_Source\PSoC6\pdl\drivers\peripheral\dma/cy_dma.h **** * \param descriptor
 628:Generated_Source\PSoC6\pdl\drivers\peripheral\dma/cy_dma.h **** * The descriptor structure instance declared by the user/component.
 629:Generated_Source\PSoC6\pdl\drivers\peripheral\dma/cy_dma.h **** *
 630:Generated_Source\PSoC6\pdl\drivers\peripheral\dma/cy_dma.h **** * \return
 631:Generated_Source\PSoC6\pdl\drivers\peripheral\dma/cy_dma.h **** * The source address value of the descriptor.
 632:Generated_Source\PSoC6\pdl\drivers\peripheral\dma/cy_dma.h **** *
 633:Generated_Source\PSoC6\pdl\drivers\peripheral\dma/cy_dma.h **** *******************************************************************************/
 634:Generated_Source\PSoC6\pdl\drivers\peripheral\dma/cy_dma.h **** __STATIC_INLINE void * Cy_DMA_Descriptor_GetSrcAddress(cy_stc_dma_descriptor_t const * descriptor)
 635:Generated_Source\PSoC6\pdl\drivers\peripheral\dma/cy_dma.h **** {
 636:Generated_Source\PSoC6\pdl\drivers\peripheral\dma/cy_dma.h ****     return ((void *) descriptor->src);
 637:Generated_Source\PSoC6\pdl\drivers\peripheral\dma/cy_dma.h **** }
 638:Generated_Source\PSoC6\pdl\drivers\peripheral\dma/cy_dma.h **** 
 639:Generated_Source\PSoC6\pdl\drivers\peripheral\dma/cy_dma.h **** 
 640:Generated_Source\PSoC6\pdl\drivers\peripheral\dma/cy_dma.h **** /*******************************************************************************
 641:Generated_Source\PSoC6\pdl\drivers\peripheral\dma/cy_dma.h **** * Function Name: Cy_DMA_Descriptor_SetDstAddress
 642:Generated_Source\PSoC6\pdl\drivers\peripheral\dma/cy_dma.h **** ****************************************************************************//**
 643:Generated_Source\PSoC6\pdl\drivers\peripheral\dma/cy_dma.h **** *
 644:Generated_Source\PSoC6\pdl\drivers\peripheral\dma/cy_dma.h **** * Sets the destination address parameter for the specified descriptor.
 645:Generated_Source\PSoC6\pdl\drivers\peripheral\dma/cy_dma.h **** *
 646:Generated_Source\PSoC6\pdl\drivers\peripheral\dma/cy_dma.h **** * \param descriptor
 647:Generated_Source\PSoC6\pdl\drivers\peripheral\dma/cy_dma.h **** * The descriptor structure instance declared by the user/component.
 648:Generated_Source\PSoC6\pdl\drivers\peripheral\dma/cy_dma.h **** *
 649:Generated_Source\PSoC6\pdl\drivers\peripheral\dma/cy_dma.h **** * \param dstAddress
 650:Generated_Source\PSoC6\pdl\drivers\peripheral\dma/cy_dma.h **** * The destination address value for the descriptor.
 651:Generated_Source\PSoC6\pdl\drivers\peripheral\dma/cy_dma.h **** *
 652:Generated_Source\PSoC6\pdl\drivers\peripheral\dma/cy_dma.h **** *******************************************************************************/
ARM GAS  C:\Users\cypress\AppData\Local\Temp\cczqZZvj.s 			page 34


 653:Generated_Source\PSoC6\pdl\drivers\peripheral\dma/cy_dma.h **** __STATIC_INLINE void Cy_DMA_Descriptor_SetDstAddress(cy_stc_dma_descriptor_t * descriptor, void con
 654:Generated_Source\PSoC6\pdl\drivers\peripheral\dma/cy_dma.h **** {
 655:Generated_Source\PSoC6\pdl\drivers\peripheral\dma/cy_dma.h ****     descriptor->dst = (uint32_t) dstAddress;
 656:Generated_Source\PSoC6\pdl\drivers\peripheral\dma/cy_dma.h **** }
 657:Generated_Source\PSoC6\pdl\drivers\peripheral\dma/cy_dma.h **** 
 658:Generated_Source\PSoC6\pdl\drivers\peripheral\dma/cy_dma.h **** 
 659:Generated_Source\PSoC6\pdl\drivers\peripheral\dma/cy_dma.h **** /*******************************************************************************
 660:Generated_Source\PSoC6\pdl\drivers\peripheral\dma/cy_dma.h **** * Function Name: Cy_DMA_Descriptor_GetDstAddress
 661:Generated_Source\PSoC6\pdl\drivers\peripheral\dma/cy_dma.h **** ****************************************************************************//**
 662:Generated_Source\PSoC6\pdl\drivers\peripheral\dma/cy_dma.h **** *
 663:Generated_Source\PSoC6\pdl\drivers\peripheral\dma/cy_dma.h **** * Returns the destination address parameter of the specified descriptor.
 664:Generated_Source\PSoC6\pdl\drivers\peripheral\dma/cy_dma.h **** * 
 665:Generated_Source\PSoC6\pdl\drivers\peripheral\dma/cy_dma.h **** * \param descriptor
 666:Generated_Source\PSoC6\pdl\drivers\peripheral\dma/cy_dma.h **** * The descriptor structure instance declared by the user/component.
 667:Generated_Source\PSoC6\pdl\drivers\peripheral\dma/cy_dma.h **** *
 668:Generated_Source\PSoC6\pdl\drivers\peripheral\dma/cy_dma.h **** * \return
 669:Generated_Source\PSoC6\pdl\drivers\peripheral\dma/cy_dma.h **** * The destination address value of the descriptor.
 670:Generated_Source\PSoC6\pdl\drivers\peripheral\dma/cy_dma.h **** *
 671:Generated_Source\PSoC6\pdl\drivers\peripheral\dma/cy_dma.h **** *******************************************************************************/
 672:Generated_Source\PSoC6\pdl\drivers\peripheral\dma/cy_dma.h **** __STATIC_INLINE void * Cy_DMA_Descriptor_GetDstAddress(cy_stc_dma_descriptor_t const * descriptor)
 673:Generated_Source\PSoC6\pdl\drivers\peripheral\dma/cy_dma.h **** {
 674:Generated_Source\PSoC6\pdl\drivers\peripheral\dma/cy_dma.h ****     return ((void *) descriptor->dst);
 675:Generated_Source\PSoC6\pdl\drivers\peripheral\dma/cy_dma.h **** }
 676:Generated_Source\PSoC6\pdl\drivers\peripheral\dma/cy_dma.h **** 
 677:Generated_Source\PSoC6\pdl\drivers\peripheral\dma/cy_dma.h **** 
 678:Generated_Source\PSoC6\pdl\drivers\peripheral\dma/cy_dma.h **** /*******************************************************************************
 679:Generated_Source\PSoC6\pdl\drivers\peripheral\dma/cy_dma.h **** * Function Name: Cy_DMA_Descriptor_SetInterruptType
 680:Generated_Source\PSoC6\pdl\drivers\peripheral\dma/cy_dma.h **** ****************************************************************************//**
 681:Generated_Source\PSoC6\pdl\drivers\peripheral\dma/cy_dma.h **** *
 682:Generated_Source\PSoC6\pdl\drivers\peripheral\dma/cy_dma.h **** * Sets the interrupt type parameter for the specified descriptor.
 683:Generated_Source\PSoC6\pdl\drivers\peripheral\dma/cy_dma.h **** *
 684:Generated_Source\PSoC6\pdl\drivers\peripheral\dma/cy_dma.h **** * \param descriptor
 685:Generated_Source\PSoC6\pdl\drivers\peripheral\dma/cy_dma.h **** * The descriptor structure instance declared by the user/component.
 686:Generated_Source\PSoC6\pdl\drivers\peripheral\dma/cy_dma.h **** *
 687:Generated_Source\PSoC6\pdl\drivers\peripheral\dma/cy_dma.h **** * \param interruptType
 688:Generated_Source\PSoC6\pdl\drivers\peripheral\dma/cy_dma.h **** * The interrupt type set for the descriptor. \ref cy_en_dma_trigger_type_t
 689:Generated_Source\PSoC6\pdl\drivers\peripheral\dma/cy_dma.h **** *
 690:Generated_Source\PSoC6\pdl\drivers\peripheral\dma/cy_dma.h **** *******************************************************************************/
 691:Generated_Source\PSoC6\pdl\drivers\peripheral\dma/cy_dma.h **** __STATIC_INLINE void Cy_DMA_Descriptor_SetInterruptType(cy_stc_dma_descriptor_t * descriptor, cy_en
 692:Generated_Source\PSoC6\pdl\drivers\peripheral\dma/cy_dma.h **** {
 693:Generated_Source\PSoC6\pdl\drivers\peripheral\dma/cy_dma.h ****     CY_ASSERT_L1(NULL != descriptor);
 694:Generated_Source\PSoC6\pdl\drivers\peripheral\dma/cy_dma.h ****     CY_ASSERT_L3(CY_DMA_IS_TRIG_TYPE_VALID(interruptType));
 695:Generated_Source\PSoC6\pdl\drivers\peripheral\dma/cy_dma.h ****     
 696:Generated_Source\PSoC6\pdl\drivers\peripheral\dma/cy_dma.h ****     descriptor->ctl = _CLR_SET_FLD32U(descriptor->ctl, CY_DMA_CTL_INTR_TYPE, interruptType);
 697:Generated_Source\PSoC6\pdl\drivers\peripheral\dma/cy_dma.h **** }
 698:Generated_Source\PSoC6\pdl\drivers\peripheral\dma/cy_dma.h **** 
 699:Generated_Source\PSoC6\pdl\drivers\peripheral\dma/cy_dma.h **** 
 700:Generated_Source\PSoC6\pdl\drivers\peripheral\dma/cy_dma.h **** /*******************************************************************************
 701:Generated_Source\PSoC6\pdl\drivers\peripheral\dma/cy_dma.h **** * Function Name: Cy_DMA_Descriptor_GetInterruptType
 702:Generated_Source\PSoC6\pdl\drivers\peripheral\dma/cy_dma.h **** ****************************************************************************//**
 703:Generated_Source\PSoC6\pdl\drivers\peripheral\dma/cy_dma.h **** *
 704:Generated_Source\PSoC6\pdl\drivers\peripheral\dma/cy_dma.h **** * Returns the Interrupt-Type of the specified descriptor.
 705:Generated_Source\PSoC6\pdl\drivers\peripheral\dma/cy_dma.h **** *
 706:Generated_Source\PSoC6\pdl\drivers\peripheral\dma/cy_dma.h **** * \param descriptor
 707:Generated_Source\PSoC6\pdl\drivers\peripheral\dma/cy_dma.h **** * The descriptor structure instance declared by the user/component.
 708:Generated_Source\PSoC6\pdl\drivers\peripheral\dma/cy_dma.h **** *
 709:Generated_Source\PSoC6\pdl\drivers\peripheral\dma/cy_dma.h **** * \return
ARM GAS  C:\Users\cypress\AppData\Local\Temp\cczqZZvj.s 			page 35


 710:Generated_Source\PSoC6\pdl\drivers\peripheral\dma/cy_dma.h **** * The Interrupt-Type \ref cy_en_dma_trigger_type_t.
 711:Generated_Source\PSoC6\pdl\drivers\peripheral\dma/cy_dma.h **** *  
 712:Generated_Source\PSoC6\pdl\drivers\peripheral\dma/cy_dma.h **** *******************************************************************************/
 713:Generated_Source\PSoC6\pdl\drivers\peripheral\dma/cy_dma.h **** __STATIC_INLINE cy_en_dma_trigger_type_t Cy_DMA_Descriptor_GetInterruptType(cy_stc_dma_descriptor_t
 714:Generated_Source\PSoC6\pdl\drivers\peripheral\dma/cy_dma.h **** {
 715:Generated_Source\PSoC6\pdl\drivers\peripheral\dma/cy_dma.h ****     CY_ASSERT_L1(NULL != descriptor);
 716:Generated_Source\PSoC6\pdl\drivers\peripheral\dma/cy_dma.h ****     
 717:Generated_Source\PSoC6\pdl\drivers\peripheral\dma/cy_dma.h ****     return((cy_en_dma_trigger_type_t) _FLD2VAL(CY_DMA_CTL_INTR_TYPE, descriptor->ctl));
 718:Generated_Source\PSoC6\pdl\drivers\peripheral\dma/cy_dma.h **** }
 719:Generated_Source\PSoC6\pdl\drivers\peripheral\dma/cy_dma.h **** 
 720:Generated_Source\PSoC6\pdl\drivers\peripheral\dma/cy_dma.h **** 
 721:Generated_Source\PSoC6\pdl\drivers\peripheral\dma/cy_dma.h **** /*******************************************************************************
 722:Generated_Source\PSoC6\pdl\drivers\peripheral\dma/cy_dma.h **** * Function Name: Cy_DMA_Descriptor_SetTriggerInType
 723:Generated_Source\PSoC6\pdl\drivers\peripheral\dma/cy_dma.h **** ****************************************************************************//**
 724:Generated_Source\PSoC6\pdl\drivers\peripheral\dma/cy_dma.h **** *
 725:Generated_Source\PSoC6\pdl\drivers\peripheral\dma/cy_dma.h **** * Sets the Trigger-In-Type parameter for the specified descriptor.
 726:Generated_Source\PSoC6\pdl\drivers\peripheral\dma/cy_dma.h **** *
 727:Generated_Source\PSoC6\pdl\drivers\peripheral\dma/cy_dma.h **** * \param descriptor
 728:Generated_Source\PSoC6\pdl\drivers\peripheral\dma/cy_dma.h **** * The descriptor structure instance declared by the user/component.
 729:Generated_Source\PSoC6\pdl\drivers\peripheral\dma/cy_dma.h **** *
 730:Generated_Source\PSoC6\pdl\drivers\peripheral\dma/cy_dma.h **** * \param triggerInType
 731:Generated_Source\PSoC6\pdl\drivers\peripheral\dma/cy_dma.h **** * The Trigger In Type parameter \ref cy_en_dma_trigger_type_t
 732:Generated_Source\PSoC6\pdl\drivers\peripheral\dma/cy_dma.h **** *
 733:Generated_Source\PSoC6\pdl\drivers\peripheral\dma/cy_dma.h **** *******************************************************************************/
 734:Generated_Source\PSoC6\pdl\drivers\peripheral\dma/cy_dma.h **** __STATIC_INLINE void Cy_DMA_Descriptor_SetTriggerInType(cy_stc_dma_descriptor_t * descriptor, cy_en
 735:Generated_Source\PSoC6\pdl\drivers\peripheral\dma/cy_dma.h **** {
 736:Generated_Source\PSoC6\pdl\drivers\peripheral\dma/cy_dma.h ****     CY_ASSERT_L1(NULL != descriptor);
 737:Generated_Source\PSoC6\pdl\drivers\peripheral\dma/cy_dma.h ****     CY_ASSERT_L3(CY_DMA_IS_TRIG_TYPE_VALID(triggerInType));
 738:Generated_Source\PSoC6\pdl\drivers\peripheral\dma/cy_dma.h ****     
 739:Generated_Source\PSoC6\pdl\drivers\peripheral\dma/cy_dma.h ****     descriptor->ctl = _CLR_SET_FLD32U(descriptor->ctl, CY_DMA_CTL_TR_IN_TYPE, triggerInType);
 740:Generated_Source\PSoC6\pdl\drivers\peripheral\dma/cy_dma.h **** }
 741:Generated_Source\PSoC6\pdl\drivers\peripheral\dma/cy_dma.h **** 
 742:Generated_Source\PSoC6\pdl\drivers\peripheral\dma/cy_dma.h **** 
 743:Generated_Source\PSoC6\pdl\drivers\peripheral\dma/cy_dma.h **** /*******************************************************************************
 744:Generated_Source\PSoC6\pdl\drivers\peripheral\dma/cy_dma.h **** * Function Name: Cy_DMA_Descriptor_GetTriggerInType
 745:Generated_Source\PSoC6\pdl\drivers\peripheral\dma/cy_dma.h **** ****************************************************************************//**
 746:Generated_Source\PSoC6\pdl\drivers\peripheral\dma/cy_dma.h **** *
 747:Generated_Source\PSoC6\pdl\drivers\peripheral\dma/cy_dma.h **** * Returns the Trigger-In-Type parameter of the specified descriptor.
 748:Generated_Source\PSoC6\pdl\drivers\peripheral\dma/cy_dma.h **** *
 749:Generated_Source\PSoC6\pdl\drivers\peripheral\dma/cy_dma.h **** * \param descriptor
 750:Generated_Source\PSoC6\pdl\drivers\peripheral\dma/cy_dma.h **** * The descriptor structure instance declared by the user/component.
 751:Generated_Source\PSoC6\pdl\drivers\peripheral\dma/cy_dma.h **** *
 752:Generated_Source\PSoC6\pdl\drivers\peripheral\dma/cy_dma.h **** * \return
 753:Generated_Source\PSoC6\pdl\drivers\peripheral\dma/cy_dma.h **** * The Trigger-In-Type \ref cy_en_dma_trigger_type_t
 754:Generated_Source\PSoC6\pdl\drivers\peripheral\dma/cy_dma.h **** *  
 755:Generated_Source\PSoC6\pdl\drivers\peripheral\dma/cy_dma.h **** *******************************************************************************/
 756:Generated_Source\PSoC6\pdl\drivers\peripheral\dma/cy_dma.h **** __STATIC_INLINE cy_en_dma_trigger_type_t Cy_DMA_Descriptor_GetTriggerInType(cy_stc_dma_descriptor_t
 757:Generated_Source\PSoC6\pdl\drivers\peripheral\dma/cy_dma.h **** {
 758:Generated_Source\PSoC6\pdl\drivers\peripheral\dma/cy_dma.h ****     CY_ASSERT_L1(NULL != descriptor);
 759:Generated_Source\PSoC6\pdl\drivers\peripheral\dma/cy_dma.h ****     
 760:Generated_Source\PSoC6\pdl\drivers\peripheral\dma/cy_dma.h ****     return((cy_en_dma_trigger_type_t) _FLD2VAL(CY_DMA_CTL_TR_IN_TYPE, descriptor->ctl));
 761:Generated_Source\PSoC6\pdl\drivers\peripheral\dma/cy_dma.h **** }
 762:Generated_Source\PSoC6\pdl\drivers\peripheral\dma/cy_dma.h **** 
 763:Generated_Source\PSoC6\pdl\drivers\peripheral\dma/cy_dma.h **** 
 764:Generated_Source\PSoC6\pdl\drivers\peripheral\dma/cy_dma.h **** /*******************************************************************************
 765:Generated_Source\PSoC6\pdl\drivers\peripheral\dma/cy_dma.h **** * Function Name: Cy_DMA_Descriptor_SetTriggerOutType
 766:Generated_Source\PSoC6\pdl\drivers\peripheral\dma/cy_dma.h **** ****************************************************************************//**
ARM GAS  C:\Users\cypress\AppData\Local\Temp\cczqZZvj.s 			page 36


 767:Generated_Source\PSoC6\pdl\drivers\peripheral\dma/cy_dma.h **** *
 768:Generated_Source\PSoC6\pdl\drivers\peripheral\dma/cy_dma.h **** * Sets the Trigger-Out-Type parameter for the specified descriptor.
 769:Generated_Source\PSoC6\pdl\drivers\peripheral\dma/cy_dma.h **** *
 770:Generated_Source\PSoC6\pdl\drivers\peripheral\dma/cy_dma.h **** * \param descriptor
 771:Generated_Source\PSoC6\pdl\drivers\peripheral\dma/cy_dma.h **** * The descriptor structure instance declared by the user/component.
 772:Generated_Source\PSoC6\pdl\drivers\peripheral\dma/cy_dma.h **** *
 773:Generated_Source\PSoC6\pdl\drivers\peripheral\dma/cy_dma.h **** * \param triggerOutType
 774:Generated_Source\PSoC6\pdl\drivers\peripheral\dma/cy_dma.h **** * The Trigger-Out-Type set for the descriptor. \ref cy_en_dma_trigger_type_t
 775:Generated_Source\PSoC6\pdl\drivers\peripheral\dma/cy_dma.h **** *
 776:Generated_Source\PSoC6\pdl\drivers\peripheral\dma/cy_dma.h **** *******************************************************************************/
 777:Generated_Source\PSoC6\pdl\drivers\peripheral\dma/cy_dma.h **** __STATIC_INLINE void Cy_DMA_Descriptor_SetTriggerOutType(cy_stc_dma_descriptor_t * descriptor, cy_e
 778:Generated_Source\PSoC6\pdl\drivers\peripheral\dma/cy_dma.h **** {
 779:Generated_Source\PSoC6\pdl\drivers\peripheral\dma/cy_dma.h ****     CY_ASSERT_L1(NULL != descriptor);
 780:Generated_Source\PSoC6\pdl\drivers\peripheral\dma/cy_dma.h ****     CY_ASSERT_L3(CY_DMA_IS_TRIG_TYPE_VALID(triggerOutType));
 781:Generated_Source\PSoC6\pdl\drivers\peripheral\dma/cy_dma.h ****     
 782:Generated_Source\PSoC6\pdl\drivers\peripheral\dma/cy_dma.h ****     descriptor->ctl = _CLR_SET_FLD32U(descriptor->ctl, CY_DMA_CTL_TR_OUT_TYPE, triggerOutType);
 783:Generated_Source\PSoC6\pdl\drivers\peripheral\dma/cy_dma.h **** }
 784:Generated_Source\PSoC6\pdl\drivers\peripheral\dma/cy_dma.h **** 
 785:Generated_Source\PSoC6\pdl\drivers\peripheral\dma/cy_dma.h **** 
 786:Generated_Source\PSoC6\pdl\drivers\peripheral\dma/cy_dma.h **** /*******************************************************************************
 787:Generated_Source\PSoC6\pdl\drivers\peripheral\dma/cy_dma.h **** * Function Name: Cy_DMA_Descriptor_GetTriggerOutType
 788:Generated_Source\PSoC6\pdl\drivers\peripheral\dma/cy_dma.h **** ****************************************************************************//**
 789:Generated_Source\PSoC6\pdl\drivers\peripheral\dma/cy_dma.h **** *
 790:Generated_Source\PSoC6\pdl\drivers\peripheral\dma/cy_dma.h **** * Returns the Trigger-Out-Type parameter of the specified descriptor.
 791:Generated_Source\PSoC6\pdl\drivers\peripheral\dma/cy_dma.h **** *
 792:Generated_Source\PSoC6\pdl\drivers\peripheral\dma/cy_dma.h **** * \param descriptor
 793:Generated_Source\PSoC6\pdl\drivers\peripheral\dma/cy_dma.h **** * The descriptor structure instance declared by the user/component.
 794:Generated_Source\PSoC6\pdl\drivers\peripheral\dma/cy_dma.h **** *
 795:Generated_Source\PSoC6\pdl\drivers\peripheral\dma/cy_dma.h **** * \return
 796:Generated_Source\PSoC6\pdl\drivers\peripheral\dma/cy_dma.h **** * The Trigger-Out-Type parameter \ref cy_en_dma_trigger_type_t.
 797:Generated_Source\PSoC6\pdl\drivers\peripheral\dma/cy_dma.h **** *  
 798:Generated_Source\PSoC6\pdl\drivers\peripheral\dma/cy_dma.h **** *******************************************************************************/
 799:Generated_Source\PSoC6\pdl\drivers\peripheral\dma/cy_dma.h **** __STATIC_INLINE cy_en_dma_trigger_type_t Cy_DMA_Descriptor_GetTriggerOutType(cy_stc_dma_descriptor_
 800:Generated_Source\PSoC6\pdl\drivers\peripheral\dma/cy_dma.h **** {
 801:Generated_Source\PSoC6\pdl\drivers\peripheral\dma/cy_dma.h ****     CY_ASSERT_L1(NULL != descriptor);
 802:Generated_Source\PSoC6\pdl\drivers\peripheral\dma/cy_dma.h ****     
 803:Generated_Source\PSoC6\pdl\drivers\peripheral\dma/cy_dma.h ****     return((cy_en_dma_trigger_type_t) _FLD2VAL(CY_DMA_CTL_TR_OUT_TYPE, descriptor->ctl));
 804:Generated_Source\PSoC6\pdl\drivers\peripheral\dma/cy_dma.h **** }
 805:Generated_Source\PSoC6\pdl\drivers\peripheral\dma/cy_dma.h **** 
 806:Generated_Source\PSoC6\pdl\drivers\peripheral\dma/cy_dma.h **** 
 807:Generated_Source\PSoC6\pdl\drivers\peripheral\dma/cy_dma.h **** /*******************************************************************************
 808:Generated_Source\PSoC6\pdl\drivers\peripheral\dma/cy_dma.h **** * Function Name: Cy_DMA_Descriptor_SetDataSize
 809:Generated_Source\PSoC6\pdl\drivers\peripheral\dma/cy_dma.h **** ****************************************************************************//**
 810:Generated_Source\PSoC6\pdl\drivers\peripheral\dma/cy_dma.h **** *
 811:Generated_Source\PSoC6\pdl\drivers\peripheral\dma/cy_dma.h **** * Sets the Data Element Size parameter for the specified descriptor.
 812:Generated_Source\PSoC6\pdl\drivers\peripheral\dma/cy_dma.h **** *
 813:Generated_Source\PSoC6\pdl\drivers\peripheral\dma/cy_dma.h **** * \param descriptor
 814:Generated_Source\PSoC6\pdl\drivers\peripheral\dma/cy_dma.h **** * The descriptor structure instance declared by the user/component.
 815:Generated_Source\PSoC6\pdl\drivers\peripheral\dma/cy_dma.h **** *
 816:Generated_Source\PSoC6\pdl\drivers\peripheral\dma/cy_dma.h **** * \param dataSize
 817:Generated_Source\PSoC6\pdl\drivers\peripheral\dma/cy_dma.h **** * The Data Element Size \ref cy_en_dma_data_size_t
 818:Generated_Source\PSoC6\pdl\drivers\peripheral\dma/cy_dma.h **** *  
 819:Generated_Source\PSoC6\pdl\drivers\peripheral\dma/cy_dma.h **** *******************************************************************************/
 820:Generated_Source\PSoC6\pdl\drivers\peripheral\dma/cy_dma.h **** __STATIC_INLINE void Cy_DMA_Descriptor_SetDataSize(cy_stc_dma_descriptor_t * descriptor, cy_en_dma_
 821:Generated_Source\PSoC6\pdl\drivers\peripheral\dma/cy_dma.h **** {
 822:Generated_Source\PSoC6\pdl\drivers\peripheral\dma/cy_dma.h ****     CY_ASSERT_L1(NULL != descriptor);
 823:Generated_Source\PSoC6\pdl\drivers\peripheral\dma/cy_dma.h ****     CY_ASSERT_L3(CY_DMA_IS_DATA_SIZE_VALID(dataSize));
ARM GAS  C:\Users\cypress\AppData\Local\Temp\cczqZZvj.s 			page 37


 824:Generated_Source\PSoC6\pdl\drivers\peripheral\dma/cy_dma.h ****     
 825:Generated_Source\PSoC6\pdl\drivers\peripheral\dma/cy_dma.h ****     descriptor->ctl = _CLR_SET_FLD32U(descriptor->ctl, CY_DMA_CTL_DATA_SIZE, dataSize);
 826:Generated_Source\PSoC6\pdl\drivers\peripheral\dma/cy_dma.h **** }
 827:Generated_Source\PSoC6\pdl\drivers\peripheral\dma/cy_dma.h **** 
 828:Generated_Source\PSoC6\pdl\drivers\peripheral\dma/cy_dma.h **** 
 829:Generated_Source\PSoC6\pdl\drivers\peripheral\dma/cy_dma.h **** /*******************************************************************************
 830:Generated_Source\PSoC6\pdl\drivers\peripheral\dma/cy_dma.h **** * Function Name: Cy_DMA_Descriptor_GetDataSize
 831:Generated_Source\PSoC6\pdl\drivers\peripheral\dma/cy_dma.h **** ****************************************************************************//**
 832:Generated_Source\PSoC6\pdl\drivers\peripheral\dma/cy_dma.h **** *
 833:Generated_Source\PSoC6\pdl\drivers\peripheral\dma/cy_dma.h **** * Returns the Data Element Size parameter of the specified descriptor.
 834:Generated_Source\PSoC6\pdl\drivers\peripheral\dma/cy_dma.h **** *
 835:Generated_Source\PSoC6\pdl\drivers\peripheral\dma/cy_dma.h **** * \param descriptor
 836:Generated_Source\PSoC6\pdl\drivers\peripheral\dma/cy_dma.h **** * The descriptor structure instance declared by the user/component.
 837:Generated_Source\PSoC6\pdl\drivers\peripheral\dma/cy_dma.h **** *
 838:Generated_Source\PSoC6\pdl\drivers\peripheral\dma/cy_dma.h **** * \return
 839:Generated_Source\PSoC6\pdl\drivers\peripheral\dma/cy_dma.h **** * The Data Element Size \ref cy_en_dma_data_size_t.
 840:Generated_Source\PSoC6\pdl\drivers\peripheral\dma/cy_dma.h **** *  
 841:Generated_Source\PSoC6\pdl\drivers\peripheral\dma/cy_dma.h **** *******************************************************************************/
 842:Generated_Source\PSoC6\pdl\drivers\peripheral\dma/cy_dma.h **** __STATIC_INLINE cy_en_dma_data_size_t Cy_DMA_Descriptor_GetDataSize(cy_stc_dma_descriptor_t const *
 843:Generated_Source\PSoC6\pdl\drivers\peripheral\dma/cy_dma.h **** {
 844:Generated_Source\PSoC6\pdl\drivers\peripheral\dma/cy_dma.h ****     CY_ASSERT_L1(NULL != descriptor);
 845:Generated_Source\PSoC6\pdl\drivers\peripheral\dma/cy_dma.h ****     
 846:Generated_Source\PSoC6\pdl\drivers\peripheral\dma/cy_dma.h ****     return((cy_en_dma_data_size_t) _FLD2VAL(CY_DMA_CTL_DATA_SIZE, descriptor->ctl));
 847:Generated_Source\PSoC6\pdl\drivers\peripheral\dma/cy_dma.h **** }
 848:Generated_Source\PSoC6\pdl\drivers\peripheral\dma/cy_dma.h **** 
 849:Generated_Source\PSoC6\pdl\drivers\peripheral\dma/cy_dma.h **** 
 850:Generated_Source\PSoC6\pdl\drivers\peripheral\dma/cy_dma.h **** /*******************************************************************************
 851:Generated_Source\PSoC6\pdl\drivers\peripheral\dma/cy_dma.h **** * Function Name: Cy_DMA_Descriptor_SetSrcTransferSize
 852:Generated_Source\PSoC6\pdl\drivers\peripheral\dma/cy_dma.h **** ****************************************************************************//**
 853:Generated_Source\PSoC6\pdl\drivers\peripheral\dma/cy_dma.h **** *
 854:Generated_Source\PSoC6\pdl\drivers\peripheral\dma/cy_dma.h **** * Sets the Source Transfer Size parameter for the specified descriptor.
 855:Generated_Source\PSoC6\pdl\drivers\peripheral\dma/cy_dma.h **** *
 856:Generated_Source\PSoC6\pdl\drivers\peripheral\dma/cy_dma.h **** * \param descriptor
 857:Generated_Source\PSoC6\pdl\drivers\peripheral\dma/cy_dma.h **** * The descriptor structure instance declared by the user/component.
 858:Generated_Source\PSoC6\pdl\drivers\peripheral\dma/cy_dma.h **** *
 859:Generated_Source\PSoC6\pdl\drivers\peripheral\dma/cy_dma.h **** * \param srcTransferSize
 860:Generated_Source\PSoC6\pdl\drivers\peripheral\dma/cy_dma.h **** * The Source Transfer Size \ref cy_en_dma_transfer_size_t.
 861:Generated_Source\PSoC6\pdl\drivers\peripheral\dma/cy_dma.h **** *
 862:Generated_Source\PSoC6\pdl\drivers\peripheral\dma/cy_dma.h **** *******************************************************************************/
 863:Generated_Source\PSoC6\pdl\drivers\peripheral\dma/cy_dma.h **** __STATIC_INLINE void Cy_DMA_Descriptor_SetSrcTransferSize(cy_stc_dma_descriptor_t * descriptor, cy_
 864:Generated_Source\PSoC6\pdl\drivers\peripheral\dma/cy_dma.h **** {
 865:Generated_Source\PSoC6\pdl\drivers\peripheral\dma/cy_dma.h ****     CY_ASSERT_L1(NULL != descriptor);
 866:Generated_Source\PSoC6\pdl\drivers\peripheral\dma/cy_dma.h ****     CY_ASSERT_L3(CY_DMA_IS_XFER_SIZE_VALID(srcTransferSize));
 867:Generated_Source\PSoC6\pdl\drivers\peripheral\dma/cy_dma.h **** 
 868:Generated_Source\PSoC6\pdl\drivers\peripheral\dma/cy_dma.h ****     descriptor->ctl = _CLR_SET_FLD32U(descriptor->ctl, CY_DMA_CTL_SRC_SIZE, srcTransferSize);
 869:Generated_Source\PSoC6\pdl\drivers\peripheral\dma/cy_dma.h **** }
 870:Generated_Source\PSoC6\pdl\drivers\peripheral\dma/cy_dma.h **** 
 871:Generated_Source\PSoC6\pdl\drivers\peripheral\dma/cy_dma.h **** 
 872:Generated_Source\PSoC6\pdl\drivers\peripheral\dma/cy_dma.h **** /*******************************************************************************
 873:Generated_Source\PSoC6\pdl\drivers\peripheral\dma/cy_dma.h **** * Function Name: Cy_DMA_Descriptor_GetSrcTransferSize
 874:Generated_Source\PSoC6\pdl\drivers\peripheral\dma/cy_dma.h **** ****************************************************************************//**
 875:Generated_Source\PSoC6\pdl\drivers\peripheral\dma/cy_dma.h **** *
 876:Generated_Source\PSoC6\pdl\drivers\peripheral\dma/cy_dma.h **** * Returns the Source Transfer Size parameter of the specified descriptor.
 877:Generated_Source\PSoC6\pdl\drivers\peripheral\dma/cy_dma.h **** *
 878:Generated_Source\PSoC6\pdl\drivers\peripheral\dma/cy_dma.h **** * \param descriptor
 879:Generated_Source\PSoC6\pdl\drivers\peripheral\dma/cy_dma.h **** * The descriptor structure instance declared by the user/component.
 880:Generated_Source\PSoC6\pdl\drivers\peripheral\dma/cy_dma.h **** *
ARM GAS  C:\Users\cypress\AppData\Local\Temp\cczqZZvj.s 			page 38


 881:Generated_Source\PSoC6\pdl\drivers\peripheral\dma/cy_dma.h **** * \return
 882:Generated_Source\PSoC6\pdl\drivers\peripheral\dma/cy_dma.h **** * The Source Transfer Size \ref cy_en_dma_transfer_size_t.
 883:Generated_Source\PSoC6\pdl\drivers\peripheral\dma/cy_dma.h **** *  
 884:Generated_Source\PSoC6\pdl\drivers\peripheral\dma/cy_dma.h **** *******************************************************************************/
 885:Generated_Source\PSoC6\pdl\drivers\peripheral\dma/cy_dma.h **** __STATIC_INLINE cy_en_dma_transfer_size_t Cy_DMA_Descriptor_GetSrcTransferSize(cy_stc_dma_descripto
 886:Generated_Source\PSoC6\pdl\drivers\peripheral\dma/cy_dma.h **** {
 887:Generated_Source\PSoC6\pdl\drivers\peripheral\dma/cy_dma.h ****     CY_ASSERT_L1(NULL != descriptor);
 888:Generated_Source\PSoC6\pdl\drivers\peripheral\dma/cy_dma.h ****     
 889:Generated_Source\PSoC6\pdl\drivers\peripheral\dma/cy_dma.h ****     return((cy_en_dma_transfer_size_t) _FLD2VAL(CY_DMA_CTL_SRC_SIZE, descriptor->ctl));
 890:Generated_Source\PSoC6\pdl\drivers\peripheral\dma/cy_dma.h **** }
 891:Generated_Source\PSoC6\pdl\drivers\peripheral\dma/cy_dma.h **** 
 892:Generated_Source\PSoC6\pdl\drivers\peripheral\dma/cy_dma.h **** 
 893:Generated_Source\PSoC6\pdl\drivers\peripheral\dma/cy_dma.h **** /*******************************************************************************
 894:Generated_Source\PSoC6\pdl\drivers\peripheral\dma/cy_dma.h **** * Function Name: Cy_DMA_Descriptor_SetDstTransferSize
 895:Generated_Source\PSoC6\pdl\drivers\peripheral\dma/cy_dma.h **** ****************************************************************************//**
 896:Generated_Source\PSoC6\pdl\drivers\peripheral\dma/cy_dma.h **** *
 897:Generated_Source\PSoC6\pdl\drivers\peripheral\dma/cy_dma.h **** * Sets the Destination Transfer Size parameter for the specified descriptor.
 898:Generated_Source\PSoC6\pdl\drivers\peripheral\dma/cy_dma.h **** *
 899:Generated_Source\PSoC6\pdl\drivers\peripheral\dma/cy_dma.h **** * \param descriptor
 900:Generated_Source\PSoC6\pdl\drivers\peripheral\dma/cy_dma.h **** * The descriptor structure instance declared by the user/component.
 901:Generated_Source\PSoC6\pdl\drivers\peripheral\dma/cy_dma.h **** *
 902:Generated_Source\PSoC6\pdl\drivers\peripheral\dma/cy_dma.h **** * \param dstTransferSize
 903:Generated_Source\PSoC6\pdl\drivers\peripheral\dma/cy_dma.h **** * The Destination Transfer Size \ref cy_en_dma_transfer_size_t.
 904:Generated_Source\PSoC6\pdl\drivers\peripheral\dma/cy_dma.h **** *
 905:Generated_Source\PSoC6\pdl\drivers\peripheral\dma/cy_dma.h **** *******************************************************************************/
 906:Generated_Source\PSoC6\pdl\drivers\peripheral\dma/cy_dma.h **** __STATIC_INLINE void Cy_DMA_Descriptor_SetDstTransferSize(cy_stc_dma_descriptor_t * descriptor, cy_
 907:Generated_Source\PSoC6\pdl\drivers\peripheral\dma/cy_dma.h **** {
 908:Generated_Source\PSoC6\pdl\drivers\peripheral\dma/cy_dma.h ****     CY_ASSERT_L1(NULL != descriptor);
 909:Generated_Source\PSoC6\pdl\drivers\peripheral\dma/cy_dma.h ****     CY_ASSERT_L3(CY_DMA_IS_XFER_SIZE_VALID(dstTransferSize));
 910:Generated_Source\PSoC6\pdl\drivers\peripheral\dma/cy_dma.h ****     
 911:Generated_Source\PSoC6\pdl\drivers\peripheral\dma/cy_dma.h ****     descriptor->ctl = _CLR_SET_FLD32U(descriptor->ctl, CY_DMA_CTL_DST_SIZE, dstTransferSize);
 912:Generated_Source\PSoC6\pdl\drivers\peripheral\dma/cy_dma.h **** }
 913:Generated_Source\PSoC6\pdl\drivers\peripheral\dma/cy_dma.h **** 
 914:Generated_Source\PSoC6\pdl\drivers\peripheral\dma/cy_dma.h **** 
 915:Generated_Source\PSoC6\pdl\drivers\peripheral\dma/cy_dma.h **** /*******************************************************************************
 916:Generated_Source\PSoC6\pdl\drivers\peripheral\dma/cy_dma.h **** * Function Name: Cy_DMA_Descriptor_GetDstTransferSize
 917:Generated_Source\PSoC6\pdl\drivers\peripheral\dma/cy_dma.h **** ****************************************************************************//**
 918:Generated_Source\PSoC6\pdl\drivers\peripheral\dma/cy_dma.h **** *
 919:Generated_Source\PSoC6\pdl\drivers\peripheral\dma/cy_dma.h **** * Returns the Destination Transfer Size parameter of the specified descriptor.
 920:Generated_Source\PSoC6\pdl\drivers\peripheral\dma/cy_dma.h **** *
 921:Generated_Source\PSoC6\pdl\drivers\peripheral\dma/cy_dma.h **** * \param descriptor
 922:Generated_Source\PSoC6\pdl\drivers\peripheral\dma/cy_dma.h **** * The descriptor structure instance declared by the user/component.
 923:Generated_Source\PSoC6\pdl\drivers\peripheral\dma/cy_dma.h **** *
 924:Generated_Source\PSoC6\pdl\drivers\peripheral\dma/cy_dma.h **** * \return
 925:Generated_Source\PSoC6\pdl\drivers\peripheral\dma/cy_dma.h **** * The Destination Transfer Size \ref cy_en_dma_transfer_size_t
 926:Generated_Source\PSoC6\pdl\drivers\peripheral\dma/cy_dma.h **** *  
 927:Generated_Source\PSoC6\pdl\drivers\peripheral\dma/cy_dma.h **** *******************************************************************************/
 928:Generated_Source\PSoC6\pdl\drivers\peripheral\dma/cy_dma.h **** __STATIC_INLINE cy_en_dma_transfer_size_t Cy_DMA_Descriptor_GetDstTransferSize(cy_stc_dma_descripto
 929:Generated_Source\PSoC6\pdl\drivers\peripheral\dma/cy_dma.h **** {
 930:Generated_Source\PSoC6\pdl\drivers\peripheral\dma/cy_dma.h ****     CY_ASSERT_L1(NULL != descriptor);
 931:Generated_Source\PSoC6\pdl\drivers\peripheral\dma/cy_dma.h ****     
 932:Generated_Source\PSoC6\pdl\drivers\peripheral\dma/cy_dma.h ****     return((cy_en_dma_transfer_size_t) _FLD2VAL(CY_DMA_CTL_DST_SIZE, descriptor->ctl));
 933:Generated_Source\PSoC6\pdl\drivers\peripheral\dma/cy_dma.h **** }
 934:Generated_Source\PSoC6\pdl\drivers\peripheral\dma/cy_dma.h **** 
 935:Generated_Source\PSoC6\pdl\drivers\peripheral\dma/cy_dma.h **** 
 936:Generated_Source\PSoC6\pdl\drivers\peripheral\dma/cy_dma.h **** /*******************************************************************************
 937:Generated_Source\PSoC6\pdl\drivers\peripheral\dma/cy_dma.h **** * Function Name: Cy_DMA_Descriptor_SetRetrigger
ARM GAS  C:\Users\cypress\AppData\Local\Temp\cczqZZvj.s 			page 39


 938:Generated_Source\PSoC6\pdl\drivers\peripheral\dma/cy_dma.h **** ****************************************************************************//**
 939:Generated_Source\PSoC6\pdl\drivers\peripheral\dma/cy_dma.h **** *
 940:Generated_Source\PSoC6\pdl\drivers\peripheral\dma/cy_dma.h **** * Sets the retrigger value which specifies whether the controller should 
 941:Generated_Source\PSoC6\pdl\drivers\peripheral\dma/cy_dma.h **** * wait for the input trigger to be deactivated.
 942:Generated_Source\PSoC6\pdl\drivers\peripheral\dma/cy_dma.h **** *
 943:Generated_Source\PSoC6\pdl\drivers\peripheral\dma/cy_dma.h **** * \param descriptor
 944:Generated_Source\PSoC6\pdl\drivers\peripheral\dma/cy_dma.h **** * The descriptor structure instance declared by the user/component.
 945:Generated_Source\PSoC6\pdl\drivers\peripheral\dma/cy_dma.h **** *
 946:Generated_Source\PSoC6\pdl\drivers\peripheral\dma/cy_dma.h **** * \param retrigger 
 947:Generated_Source\PSoC6\pdl\drivers\peripheral\dma/cy_dma.h **** * The \ref cy_en_dma_retrigger_t parameter specifies whether the controller
 948:Generated_Source\PSoC6\pdl\drivers\peripheral\dma/cy_dma.h **** * should wait for the input trigger to be deactivated.
 949:Generated_Source\PSoC6\pdl\drivers\peripheral\dma/cy_dma.h **** *
 950:Generated_Source\PSoC6\pdl\drivers\peripheral\dma/cy_dma.h **** *******************************************************************************/
 951:Generated_Source\PSoC6\pdl\drivers\peripheral\dma/cy_dma.h **** __STATIC_INLINE void Cy_DMA_Descriptor_SetRetrigger(cy_stc_dma_descriptor_t * descriptor, cy_en_dma
 952:Generated_Source\PSoC6\pdl\drivers\peripheral\dma/cy_dma.h **** {
 953:Generated_Source\PSoC6\pdl\drivers\peripheral\dma/cy_dma.h ****     CY_ASSERT_L1(NULL != descriptor);
 954:Generated_Source\PSoC6\pdl\drivers\peripheral\dma/cy_dma.h ****     CY_ASSERT_L3(CY_DMA_IS_RETRIGGER_VALID(retrigger));
 955:Generated_Source\PSoC6\pdl\drivers\peripheral\dma/cy_dma.h ****     
 956:Generated_Source\PSoC6\pdl\drivers\peripheral\dma/cy_dma.h ****     descriptor->ctl = _CLR_SET_FLD32U(descriptor->ctl, CY_DMA_CTL_RETRIG, retrigger);
 957:Generated_Source\PSoC6\pdl\drivers\peripheral\dma/cy_dma.h **** }
 958:Generated_Source\PSoC6\pdl\drivers\peripheral\dma/cy_dma.h **** 
 959:Generated_Source\PSoC6\pdl\drivers\peripheral\dma/cy_dma.h **** 
 960:Generated_Source\PSoC6\pdl\drivers\peripheral\dma/cy_dma.h **** /*******************************************************************************
 961:Generated_Source\PSoC6\pdl\drivers\peripheral\dma/cy_dma.h **** * Function Name: Cy_DMA_Descriptor_GetRetrigger
 962:Generated_Source\PSoC6\pdl\drivers\peripheral\dma/cy_dma.h **** ****************************************************************************//**
 963:Generated_Source\PSoC6\pdl\drivers\peripheral\dma/cy_dma.h **** *
 964:Generated_Source\PSoC6\pdl\drivers\peripheral\dma/cy_dma.h **** * Returns a value which specifies whether the controller should 
 965:Generated_Source\PSoC6\pdl\drivers\peripheral\dma/cy_dma.h **** * wait for the input trigger to be deactivated.
 966:Generated_Source\PSoC6\pdl\drivers\peripheral\dma/cy_dma.h **** *
 967:Generated_Source\PSoC6\pdl\drivers\peripheral\dma/cy_dma.h **** * \param descriptor
 968:Generated_Source\PSoC6\pdl\drivers\peripheral\dma/cy_dma.h **** * The descriptor structure instance declared by the user/component.
 969:Generated_Source\PSoC6\pdl\drivers\peripheral\dma/cy_dma.h **** *
 970:Generated_Source\PSoC6\pdl\drivers\peripheral\dma/cy_dma.h **** * \return
 971:Generated_Source\PSoC6\pdl\drivers\peripheral\dma/cy_dma.h **** * The Retrigger setting \ref cy_en_dma_retrigger_t.
 972:Generated_Source\PSoC6\pdl\drivers\peripheral\dma/cy_dma.h **** *  
 973:Generated_Source\PSoC6\pdl\drivers\peripheral\dma/cy_dma.h **** *******************************************************************************/
 974:Generated_Source\PSoC6\pdl\drivers\peripheral\dma/cy_dma.h **** __STATIC_INLINE cy_en_dma_retrigger_t Cy_DMA_Descriptor_GetRetrigger(cy_stc_dma_descriptor_t const 
 975:Generated_Source\PSoC6\pdl\drivers\peripheral\dma/cy_dma.h **** {
 976:Generated_Source\PSoC6\pdl\drivers\peripheral\dma/cy_dma.h ****     CY_ASSERT_L1(NULL != descriptor);
 977:Generated_Source\PSoC6\pdl\drivers\peripheral\dma/cy_dma.h ****     
 978:Generated_Source\PSoC6\pdl\drivers\peripheral\dma/cy_dma.h ****     return((cy_en_dma_retrigger_t) _FLD2VAL(CY_DMA_CTL_RETRIG, descriptor->ctl));
 979:Generated_Source\PSoC6\pdl\drivers\peripheral\dma/cy_dma.h **** }
 980:Generated_Source\PSoC6\pdl\drivers\peripheral\dma/cy_dma.h **** 
 981:Generated_Source\PSoC6\pdl\drivers\peripheral\dma/cy_dma.h **** 
 982:Generated_Source\PSoC6\pdl\drivers\peripheral\dma/cy_dma.h **** /*******************************************************************************
 983:Generated_Source\PSoC6\pdl\drivers\peripheral\dma/cy_dma.h **** * Function Name: Cy_DMA_Descriptor_GetDescriptorType
 984:Generated_Source\PSoC6\pdl\drivers\peripheral\dma/cy_dma.h **** ****************************************************************************//**
 985:Generated_Source\PSoC6\pdl\drivers\peripheral\dma/cy_dma.h **** *
 986:Generated_Source\PSoC6\pdl\drivers\peripheral\dma/cy_dma.h **** * Returns the descriptor's type of the specified descriptor.
 987:Generated_Source\PSoC6\pdl\drivers\peripheral\dma/cy_dma.h **** *
 988:Generated_Source\PSoC6\pdl\drivers\peripheral\dma/cy_dma.h **** * \param descriptor
 989:Generated_Source\PSoC6\pdl\drivers\peripheral\dma/cy_dma.h **** * The descriptor structure instance declared by the user/component.
 990:Generated_Source\PSoC6\pdl\drivers\peripheral\dma/cy_dma.h **** *
 991:Generated_Source\PSoC6\pdl\drivers\peripheral\dma/cy_dma.h **** * \return
 992:Generated_Source\PSoC6\pdl\drivers\peripheral\dma/cy_dma.h **** * The descriptor type \ref cy_en_dma_descriptor_type_t
 993:Generated_Source\PSoC6\pdl\drivers\peripheral\dma/cy_dma.h **** *  
 994:Generated_Source\PSoC6\pdl\drivers\peripheral\dma/cy_dma.h **** *******************************************************************************/
ARM GAS  C:\Users\cypress\AppData\Local\Temp\cczqZZvj.s 			page 40


 995:Generated_Source\PSoC6\pdl\drivers\peripheral\dma/cy_dma.h **** __STATIC_INLINE cy_en_dma_descriptor_type_t Cy_DMA_Descriptor_GetDescriptorType(cy_stc_dma_descript
 996:Generated_Source\PSoC6\pdl\drivers\peripheral\dma/cy_dma.h **** {
 997:Generated_Source\PSoC6\pdl\drivers\peripheral\dma/cy_dma.h ****     CY_ASSERT_L1(NULL != descriptor);
 831              		.loc 2 997 0 is_stmt 1
 832 0020 24B9     		cbnz	r4, .L80
 833 0022 40F2E531 		movw	r1, #997
 834 0026 0B48     		ldr	r0, .L83+4
 835 0028 FFF7FEFF 		bl	Cy_SysLib_AssertFailed
 836              	.LVL75:
 837              	.L80:
 998:Generated_Source\PSoC6\pdl\drivers\peripheral\dma/cy_dma.h ****     
 999:Generated_Source\PSoC6\pdl\drivers\peripheral\dma/cy_dma.h ****     return((cy_en_dma_descriptor_type_t) _FLD2VAL(CY_DMA_CTL_TYPE, descriptor->ctl));
 838              		.loc 2 999 0
 839 002c 2368     		ldr	r3, [r4]
 840              	.LVL76:
 841              	.LBE6:
 842              	.LBE5:
 338:Generated_Source\PSoC6\pdl\drivers\peripheral\dma/cy_dma.c ****     
 339:Generated_Source\PSoC6\pdl\drivers\peripheral\dma/cy_dma.c ****     if (descriptorType != Cy_DMA_Descriptor_GetDescriptorType(descriptor)) /* Don't perform if the 
 843              		.loc 1 339 0
 844 002e B5EB937F 		cmp	r5, r3, lsr #30
 845 0032 0CD0     		beq	.L77
 846              	.LBB7:
 340:Generated_Source\PSoC6\pdl\drivers\peripheral\dma/cy_dma.c ****     {
 341:Generated_Source\PSoC6\pdl\drivers\peripheral\dma/cy_dma.c ****         /* Store the current nextDescriptor pointer. */
 342:Generated_Source\PSoC6\pdl\drivers\peripheral\dma/cy_dma.c ****         cy_stc_dma_descriptor_t * locNextDescriptor = Cy_DMA_Descriptor_GetNextDescriptor(descripto
 847              		.loc 1 342 0
 848 0034 2046     		mov	r0, r4
 849 0036 FFF7FEFF 		bl	Cy_DMA_Descriptor_GetNextDescriptor
 850              	.LVL77:
 343:Generated_Source\PSoC6\pdl\drivers\peripheral\dma/cy_dma.c ****         /* Change the descriptor type. */
 344:Generated_Source\PSoC6\pdl\drivers\peripheral\dma/cy_dma.c ****         descriptor->ctl = _CLR_SET_FLD32U(descriptor->ctl, CY_DMA_CTL_TYPE, descriptorType);
 851              		.loc 1 344 0
 852 003a 2168     		ldr	r1, [r4]
 853 003c 21F04041 		bic	r1, r1, #-1073741824
 854 0040 41EA8571 		orr	r1, r1, r5, lsl #30
 855 0044 2160     		str	r1, [r4]
 345:Generated_Source\PSoC6\pdl\drivers\peripheral\dma/cy_dma.c ****         /* Restore the nextDescriptor pointer into the proper place. */
 346:Generated_Source\PSoC6\pdl\drivers\peripheral\dma/cy_dma.c ****         Cy_DMA_Descriptor_SetNextDescriptor(descriptor, locNextDescriptor);
 856              		.loc 1 346 0
 857 0046 0146     		mov	r1, r0
 858 0048 2046     		mov	r0, r4
 859              	.LVL78:
 860 004a FFF7FEFF 		bl	Cy_DMA_Descriptor_SetNextDescriptor
 861              	.LVL79:
 862              	.L77:
 863 004e 38BD     		pop	{r3, r4, r5, pc}
 864              	.LVL80:
 865              	.L84:
 866              		.align	2
 867              	.L83:
 868 0050 00000000 		.word	.LC0
 869 0054 3C000000 		.word	.LC1
 870              	.LBE7:
 871              		.cfi_endproc
 872              	.LFE182:
 873              		.size	Cy_DMA_Descriptor_SetDescriptorType, .-Cy_DMA_Descriptor_SetDescriptorType
ARM GAS  C:\Users\cypress\AppData\Local\Temp\cczqZZvj.s 			page 41


 874              		.section	.rodata.str1.4,"aMS",%progbits,1
 875              		.align	2
 876              	.LC0:
 877 0000 47656E65 		.ascii	"Generated_Source\\PSoC6\\pdl\\drivers\\peripheral\\"
 877      72617465 
 877      645F536F 
 877      75726365 
 877      5C50536F 
 878 002e 646D615C 		.ascii	"dma\\cy_dma.c\000"
 878      63795F64 
 878      6D612E63 
 878      00
 879 003b 00       		.space	1
 880              	.LC1:
 881 003c 47656E65 		.ascii	"Generated_Source\\PSoC6\\pdl\\drivers\\peripheral\\"
 881      72617465 
 881      645F536F 
 881      75726365 
 881      5C50536F 
 882 006a 646D615C 		.ascii	"dma\\cy_dma.h\000"
 882      63795F64 
 882      6D612E68 
 882      00
 883              		.text
 884              	.Letext0:
 885              		.file 3 "c:\\program files (x86)\\cypress\\psoc creator\\4.2\\psoc creator\\import\\gnu\\arm\\5.4.
 886              		.file 4 "c:\\program files (x86)\\cypress\\psoc creator\\4.2\\psoc creator\\import\\gnu\\arm\\5.4.
 887              		.file 5 "Generated_Source\\PSoC6\\pdl\\devices/psoc6/ip/cyip_dw.h"
 888              		.file 6 "Generated_Source\\PSoC6\\pdl\\drivers/peripheral/syslib/cy_syslib.h"
 889              		.file 7 "Generated_Source\\PSoC6\\pdl\\cmsis/include/core_cm4.h"
 890              		.section	.debug_info,"",%progbits
 891              	.Ldebug_info0:
 892 0000 8A0A0000 		.4byte	0xa8a
 893 0004 0400     		.2byte	0x4
 894 0006 00000000 		.4byte	.Ldebug_abbrev0
 895 000a 04       		.byte	0x4
 896 000b 01       		.uleb128 0x1
 897 000c 59040000 		.4byte	.LASF117
 898 0010 0C       		.byte	0xc
 899 0011 D6050000 		.4byte	.LASF118
 900 0015 95030000 		.4byte	.LASF119
 901 0019 00000000 		.4byte	.Ldebug_ranges0+0
 902 001d 00000000 		.4byte	0
 903 0021 00000000 		.4byte	.Ldebug_line0
 904 0025 02       		.uleb128 0x2
 905 0026 01       		.byte	0x1
 906 0027 06       		.byte	0x6
 907 0028 D1000000 		.4byte	.LASF0
 908 002c 02       		.uleb128 0x2
 909 002d 01       		.byte	0x1
 910 002e 08       		.byte	0x8
 911 002f 84050000 		.4byte	.LASF1
 912 0033 02       		.uleb128 0x2
 913 0034 02       		.byte	0x2
 914 0035 05       		.byte	0x5
 915 0036 9D050000 		.4byte	.LASF2
 916 003a 02       		.uleb128 0x2
ARM GAS  C:\Users\cypress\AppData\Local\Temp\cczqZZvj.s 			page 42


 917 003b 02       		.byte	0x2
 918 003c 07       		.byte	0x7
 919 003d 9F020000 		.4byte	.LASF3
 920 0041 03       		.uleb128 0x3
 921 0042 BD060000 		.4byte	.LASF5
 922 0046 03       		.byte	0x3
 923 0047 3F       		.byte	0x3f
 924 0048 4C000000 		.4byte	0x4c
 925 004c 02       		.uleb128 0x2
 926 004d 04       		.byte	0x4
 927 004e 05       		.byte	0x5
 928 004f 1D010000 		.4byte	.LASF4
 929 0053 03       		.uleb128 0x3
 930 0054 95010000 		.4byte	.LASF6
 931 0058 03       		.byte	0x3
 932 0059 41       		.byte	0x41
 933 005a 5E000000 		.4byte	0x5e
 934 005e 02       		.uleb128 0x2
 935 005f 04       		.byte	0x4
 936 0060 07       		.byte	0x7
 937 0061 41020000 		.4byte	.LASF7
 938 0065 02       		.uleb128 0x2
 939 0066 08       		.byte	0x8
 940 0067 05       		.byte	0x5
 941 0068 C3000000 		.4byte	.LASF8
 942 006c 02       		.uleb128 0x2
 943 006d 08       		.byte	0x8
 944 006e 07       		.byte	0x7
 945 006f 6A000000 		.4byte	.LASF9
 946 0073 04       		.uleb128 0x4
 947 0074 04       		.byte	0x4
 948 0075 05       		.byte	0x5
 949 0076 696E7400 		.ascii	"int\000"
 950 007a 02       		.uleb128 0x2
 951 007b 04       		.byte	0x4
 952 007c 07       		.byte	0x7
 953 007d 26010000 		.4byte	.LASF10
 954 0081 03       		.uleb128 0x3
 955 0082 7C050000 		.4byte	.LASF11
 956 0086 04       		.byte	0x4
 957 0087 2C       		.byte	0x2c
 958 0088 41000000 		.4byte	0x41
 959 008c 03       		.uleb128 0x3
 960 008d 77060000 		.4byte	.LASF12
 961 0091 04       		.byte	0x4
 962 0092 30       		.byte	0x30
 963 0093 53000000 		.4byte	0x53
 964 0097 02       		.uleb128 0x2
 965 0098 08       		.byte	0x8
 966 0099 04       		.byte	0x4
 967 009a 8B060000 		.4byte	.LASF13
 968 009e 02       		.uleb128 0x2
 969 009f 04       		.byte	0x4
 970 00a0 07       		.byte	0x7
 971 00a1 79030000 		.4byte	.LASF14
 972 00a5 05       		.uleb128 0x5
 973 00a6 8C000000 		.4byte	0x8c
ARM GAS  C:\Users\cypress\AppData\Local\Temp\cczqZZvj.s 			page 43


 974 00aa 06       		.uleb128 0x6
 975 00ab A5000000 		.4byte	0xa5
 976 00af 07       		.uleb128 0x7
 977 00b0 AA000000 		.4byte	0xaa
 978 00b4 BF000000 		.4byte	0xbf
 979 00b8 08       		.uleb128 0x8
 980 00b9 9E000000 		.4byte	0x9e
 981 00bd 01       		.byte	0x1
 982 00be 00       		.byte	0
 983 00bf 09       		.uleb128 0x9
 984 00c0 20       		.byte	0x20
 985 00c1 05       		.byte	0x5
 986 00c2 22       		.byte	0x22
 987 00c3 28010000 		.4byte	0x128
 988 00c7 0A       		.uleb128 0xa
 989 00c8 C7060000 		.4byte	.LASF15
 990 00cc 05       		.byte	0x5
 991 00cd 23       		.byte	0x23
 992 00ce A5000000 		.4byte	0xa5
 993 00d2 00       		.byte	0
 994 00d3 0A       		.uleb128 0xa
 995 00d4 F0010000 		.4byte	.LASF16
 996 00d8 05       		.byte	0x5
 997 00d9 24       		.byte	0x24
 998 00da AA000000 		.4byte	0xaa
 999 00de 04       		.byte	0x4
 1000 00df 0A       		.uleb128 0xa
 1001 00e0 E9010000 		.4byte	.LASF17
 1002 00e4 05       		.byte	0x5
 1003 00e5 25       		.byte	0x25
 1004 00e6 A5000000 		.4byte	0xa5
 1005 00ea 08       		.byte	0x8
 1006 00eb 0A       		.uleb128 0xa
 1007 00ec 6E020000 		.4byte	.LASF18
 1008 00f0 05       		.byte	0x5
 1009 00f1 26       		.byte	0x26
 1010 00f2 A5000000 		.4byte	0xa5
 1011 00f6 0C       		.byte	0xc
 1012 00f7 0A       		.uleb128 0xa
 1013 00f8 14040000 		.4byte	.LASF19
 1014 00fc 05       		.byte	0x5
 1015 00fd 27       		.byte	0x27
 1016 00fe A5000000 		.4byte	0xa5
 1017 0102 10       		.byte	0x10
 1018 0103 0A       		.uleb128 0xa
 1019 0104 4D030000 		.4byte	.LASF20
 1020 0108 05       		.byte	0x5
 1021 0109 28       		.byte	0x28
 1022 010a A5000000 		.4byte	0xa5
 1023 010e 14       		.byte	0x14
 1024 010f 0A       		.uleb128 0xa
 1025 0110 53020000 		.4byte	.LASF21
 1026 0114 05       		.byte	0x5
 1027 0115 29       		.byte	0x29
 1028 0116 A5000000 		.4byte	0xa5
 1029 011a 18       		.byte	0x18
 1030 011b 0A       		.uleb128 0xa
ARM GAS  C:\Users\cypress\AppData\Local\Temp\cczqZZvj.s 			page 44


 1031 011c 22050000 		.4byte	.LASF22
 1032 0120 05       		.byte	0x5
 1033 0121 2A       		.byte	0x2a
 1034 0122 AA000000 		.4byte	0xaa
 1035 0126 1C       		.byte	0x1c
 1036 0127 00       		.byte	0
 1037 0128 03       		.uleb128 0x3
 1038 0129 B0070000 		.4byte	.LASF23
 1039 012d 05       		.byte	0x5
 1040 012e 2B       		.byte	0x2b
 1041 012f BF000000 		.4byte	0xbf
 1042 0133 0B       		.uleb128 0xb
 1043 0134 000C     		.2byte	0xc00
 1044 0136 05       		.byte	0x5
 1045 0137 30       		.byte	0x30
 1046 0138 22020000 		.4byte	0x222
 1047 013c 0C       		.uleb128 0xc
 1048 013d 43544C00 		.ascii	"CTL\000"
 1049 0141 05       		.byte	0x5
 1050 0142 31       		.byte	0x31
 1051 0143 A5000000 		.4byte	0xa5
 1052 0147 00       		.byte	0
 1053 0148 0A       		.uleb128 0xa
 1054 0149 36070000 		.4byte	.LASF24
 1055 014d 05       		.byte	0x5
 1056 014e 32       		.byte	0x32
 1057 014f AA000000 		.4byte	0xaa
 1058 0153 04       		.byte	0x4
 1059 0154 0A       		.uleb128 0xa
 1060 0155 0E080000 		.4byte	.LASF25
 1061 0159 05       		.byte	0x5
 1062 015a 33       		.byte	0x33
 1063 015b AA000000 		.4byte	0xaa
 1064 015f 08       		.byte	0x8
 1065 0160 0A       		.uleb128 0xa
 1066 0161 B7050000 		.4byte	.LASF26
 1067 0165 05       		.byte	0x5
 1068 0166 34       		.byte	0x34
 1069 0167 AA000000 		.4byte	0xaa
 1070 016b 0C       		.byte	0xc
 1071 016c 0A       		.uleb128 0xa
 1072 016d 2A070000 		.4byte	.LASF27
 1073 0171 05       		.byte	0x5
 1074 0172 35       		.byte	0x35
 1075 0173 AA000000 		.4byte	0xaa
 1076 0177 10       		.byte	0x10
 1077 0178 0A       		.uleb128 0xa
 1078 0179 CE060000 		.4byte	.LASF28
 1079 017d 05       		.byte	0x5
 1080 017e 36       		.byte	0x36
 1081 017f AA000000 		.4byte	0xaa
 1082 0183 14       		.byte	0x14
 1083 0184 0A       		.uleb128 0xa
 1084 0185 58050000 		.4byte	.LASF29
 1085 0189 05       		.byte	0x5
 1086 018a 37       		.byte	0x37
 1087 018b 27020000 		.4byte	0x227
ARM GAS  C:\Users\cypress\AppData\Local\Temp\cczqZZvj.s 			page 45


 1088 018f 18       		.byte	0x18
 1089 0190 0A       		.uleb128 0xa
 1090 0191 52010000 		.4byte	.LASF30
 1091 0195 05       		.byte	0x5
 1092 0196 38       		.byte	0x38
 1093 0197 AA000000 		.4byte	0xaa
 1094 019b 20       		.byte	0x20
 1095 019c 0A       		.uleb128 0xa
 1096 019d 33020000 		.4byte	.LASF31
 1097 01a1 05       		.byte	0x5
 1098 01a2 39       		.byte	0x39
 1099 01a3 AA000000 		.4byte	0xaa
 1100 01a7 24       		.byte	0x24
 1101 01a8 0A       		.uleb128 0xa
 1102 01a9 B5000000 		.4byte	.LASF32
 1103 01ad 05       		.byte	0x5
 1104 01ae 3A       		.byte	0x3a
 1105 01af AA000000 		.4byte	0xaa
 1106 01b3 28       		.byte	0x28
 1107 01b4 0A       		.uleb128 0xa
 1108 01b5 59060000 		.4byte	.LASF33
 1109 01b9 05       		.byte	0x5
 1110 01ba 3B       		.byte	0x3b
 1111 01bb AA000000 		.4byte	0xaa
 1112 01bf 2C       		.byte	0x2c
 1113 01c0 0A       		.uleb128 0xa
 1114 01c1 A7050000 		.4byte	.LASF34
 1115 01c5 05       		.byte	0x5
 1116 01c6 3C       		.byte	0x3c
 1117 01c7 AA000000 		.4byte	0xaa
 1118 01cb 30       		.byte	0x30
 1119 01cc 0A       		.uleb128 0xa
 1120 01cd C8010000 		.4byte	.LASF35
 1121 01d1 05       		.byte	0x5
 1122 01d2 3D       		.byte	0x3d
 1123 01d3 AA000000 		.4byte	0xaa
 1124 01d7 34       		.byte	0x34
 1125 01d8 0A       		.uleb128 0xa
 1126 01d9 82030000 		.4byte	.LASF36
 1127 01dd 05       		.byte	0x5
 1128 01de 3E       		.byte	0x3e
 1129 01df AA000000 		.4byte	0xaa
 1130 01e3 38       		.byte	0x38
 1131 01e4 0A       		.uleb128 0xa
 1132 01e5 62050000 		.4byte	.LASF37
 1133 01e9 05       		.byte	0x5
 1134 01ea 3F       		.byte	0x3f
 1135 01eb AA000000 		.4byte	0xaa
 1136 01ef 3C       		.byte	0x3c
 1137 01f0 0A       		.uleb128 0xa
 1138 01f1 67010000 		.4byte	.LASF38
 1139 01f5 05       		.byte	0x5
 1140 01f6 40       		.byte	0x40
 1141 01f7 AA000000 		.4byte	0xaa
 1142 01fb 40       		.byte	0x40
 1143 01fc 0A       		.uleb128 0xa
 1144 01fd AD000000 		.4byte	.LASF39
ARM GAS  C:\Users\cypress\AppData\Local\Temp\cczqZZvj.s 			page 46


 1145 0201 05       		.byte	0x5
 1146 0202 41       		.byte	0x41
 1147 0203 AA000000 		.4byte	0xaa
 1148 0207 44       		.byte	0x44
 1149 0208 0A       		.uleb128 0xa
 1150 0209 6C050000 		.4byte	.LASF40
 1151 020d 05       		.byte	0x5
 1152 020e 42       		.byte	0x42
 1153 020f 42020000 		.4byte	0x242
 1154 0213 48       		.byte	0x48
 1155 0214 0D       		.uleb128 0xd
 1156 0215 A6070000 		.4byte	.LASF41
 1157 0219 05       		.byte	0x5
 1158 021a 43       		.byte	0x43
 1159 021b 47020000 		.4byte	0x247
 1160 021f 0008     		.2byte	0x800
 1161 0221 00       		.byte	0
 1162 0222 05       		.uleb128 0x5
 1163 0223 AF000000 		.4byte	0xaf
 1164 0227 06       		.uleb128 0x6
 1165 0228 22020000 		.4byte	0x222
 1166 022c 07       		.uleb128 0x7
 1167 022d AA000000 		.4byte	0xaa
 1168 0231 3D020000 		.4byte	0x23d
 1169 0235 0E       		.uleb128 0xe
 1170 0236 9E000000 		.4byte	0x9e
 1171 023a ED01     		.2byte	0x1ed
 1172 023c 00       		.byte	0
 1173 023d 05       		.uleb128 0x5
 1174 023e 2C020000 		.4byte	0x22c
 1175 0242 06       		.uleb128 0x6
 1176 0243 3D020000 		.4byte	0x23d
 1177 0247 07       		.uleb128 0x7
 1178 0248 28010000 		.4byte	0x128
 1179 024c 57020000 		.4byte	0x257
 1180 0250 08       		.uleb128 0x8
 1181 0251 9E000000 		.4byte	0x9e
 1182 0255 1F       		.byte	0x1f
 1183 0256 00       		.byte	0
 1184 0257 03       		.uleb128 0x3
 1185 0258 E1010000 		.4byte	.LASF42
 1186 025c 05       		.byte	0x5
 1187 025d 44       		.byte	0x44
 1188 025e 33010000 		.4byte	0x133
 1189 0262 0F       		.uleb128 0xf
 1190 0263 2C020000 		.4byte	.LASF43
 1191 0267 06       		.byte	0x6
 1192 0268 C401     		.2byte	0x1c4
 1193 026a 6E020000 		.4byte	0x26e
 1194 026e 02       		.uleb128 0x2
 1195 026f 01       		.byte	0x1
 1196 0270 08       		.byte	0x8
 1197 0271 97060000 		.4byte	.LASF44
 1198 0275 02       		.uleb128 0x2
 1199 0276 04       		.byte	0x4
 1200 0277 04       		.byte	0x4
 1201 0278 2E050000 		.4byte	.LASF45
ARM GAS  C:\Users\cypress\AppData\Local\Temp\cczqZZvj.s 			page 47


 1202 027c 02       		.uleb128 0x2
 1203 027d 08       		.byte	0x8
 1204 027e 04       		.byte	0x4
 1205 027f 60010000 		.4byte	.LASF46
 1206 0283 10       		.uleb128 0x10
 1207 0284 01       		.byte	0x1
 1208 0285 2C000000 		.4byte	0x2c
 1209 0289 02       		.byte	0x2
 1210 028a D9       		.byte	0xd9
 1211 028b A2020000 		.4byte	0x2a2
 1212 028f 11       		.uleb128 0x11
 1213 0290 CC020000 		.4byte	.LASF47
 1214 0294 00       		.byte	0
 1215 0295 11       		.uleb128 0x11
 1216 0296 E0030000 		.4byte	.LASF48
 1217 029a 01       		.byte	0x1
 1218 029b 11       		.uleb128 0x11
 1219 029c 82010000 		.4byte	.LASF49
 1220 02a0 02       		.byte	0x2
 1221 02a1 00       		.byte	0
 1222 02a2 03       		.uleb128 0x3
 1223 02a3 3D040000 		.4byte	.LASF50
 1224 02a7 02       		.byte	0x2
 1225 02a8 DD       		.byte	0xdd
 1226 02a9 83020000 		.4byte	0x283
 1227 02ad 10       		.uleb128 0x10
 1228 02ae 01       		.byte	0x1
 1229 02af 2C000000 		.4byte	0x2c
 1230 02b3 02       		.byte	0x2
 1231 02b4 E1       		.byte	0xe1
 1232 02b5 D2020000 		.4byte	0x2d2
 1233 02b9 11       		.uleb128 0x11
 1234 02ba B8010000 		.4byte	.LASF51
 1235 02be 00       		.byte	0
 1236 02bf 11       		.uleb128 0x11
 1237 02c0 1E020000 		.4byte	.LASF52
 1238 02c4 01       		.byte	0x1
 1239 02c5 11       		.uleb128 0x11
 1240 02c6 40030000 		.4byte	.LASF53
 1241 02ca 02       		.byte	0x2
 1242 02cb 11       		.uleb128 0x11
 1243 02cc 2F060000 		.4byte	.LASF54
 1244 02d0 03       		.byte	0x3
 1245 02d1 00       		.byte	0
 1246 02d2 03       		.uleb128 0x3
 1247 02d3 35000000 		.4byte	.LASF55
 1248 02d7 02       		.byte	0x2
 1249 02d8 E6       		.byte	0xe6
 1250 02d9 AD020000 		.4byte	0x2ad
 1251 02dd 10       		.uleb128 0x10
 1252 02de 01       		.byte	0x1
 1253 02df 2C000000 		.4byte	0x2c
 1254 02e3 02       		.byte	0x2
 1255 02e4 EA       		.byte	0xea
 1256 02e5 FC020000 		.4byte	0x2fc
 1257 02e9 11       		.uleb128 0x11
 1258 02ea 19040000 		.4byte	.LASF56
ARM GAS  C:\Users\cypress\AppData\Local\Temp\cczqZZvj.s 			page 48


 1259 02ee 00       		.byte	0
 1260 02ef 11       		.uleb128 0x11
 1261 02f0 90000000 		.4byte	.LASF57
 1262 02f4 01       		.byte	0x1
 1263 02f5 11       		.uleb128 0x11
 1264 02f6 B1060000 		.4byte	.LASF58
 1265 02fa 02       		.byte	0x2
 1266 02fb 00       		.byte	0
 1267 02fc 03       		.uleb128 0x3
 1268 02fd F3030000 		.4byte	.LASF59
 1269 0301 02       		.byte	0x2
 1270 0302 EE       		.byte	0xee
 1271 0303 DD020000 		.4byte	0x2dd
 1272 0307 10       		.uleb128 0x10
 1273 0308 01       		.byte	0x1
 1274 0309 2C000000 		.4byte	0x2c
 1275 030d 02       		.byte	0x2
 1276 030e F2       		.byte	0xf2
 1277 030f 2C030000 		.4byte	0x32c
 1278 0313 11       		.uleb128 0x11
 1279 0314 5D020000 		.4byte	.LASF60
 1280 0318 00       		.byte	0
 1281 0319 11       		.uleb128 0x11
 1282 031a 6F010000 		.4byte	.LASF61
 1283 031e 01       		.byte	0x1
 1284 031f 11       		.uleb128 0x11
 1285 0320 63060000 		.4byte	.LASF62
 1286 0324 02       		.byte	0x2
 1287 0325 11       		.uleb128 0x11
 1288 0326 C0050000 		.4byte	.LASF63
 1289 032a 03       		.byte	0x3
 1290 032b 00       		.byte	0
 1291 032c 03       		.uleb128 0x3
 1292 032d 0C050000 		.4byte	.LASF64
 1293 0331 02       		.byte	0x2
 1294 0332 F7       		.byte	0xf7
 1295 0333 07030000 		.4byte	0x307
 1296 0337 10       		.uleb128 0x10
 1297 0338 01       		.byte	0x1
 1298 0339 2C000000 		.4byte	0x2c
 1299 033d 02       		.byte	0x2
 1300 033e FB       		.byte	0xfb
 1301 033f 50030000 		.4byte	0x350
 1302 0343 11       		.uleb128 0x11
 1303 0344 B2020000 		.4byte	.LASF65
 1304 0348 00       		.byte	0
 1305 0349 11       		.uleb128 0x11
 1306 034a C6030000 		.4byte	.LASF66
 1307 034e 01       		.byte	0x1
 1308 034f 00       		.byte	0
 1309 0350 03       		.uleb128 0x3
 1310 0351 7A020000 		.4byte	.LASF67
 1311 0355 02       		.byte	0x2
 1312 0356 FE       		.byte	0xfe
 1313 0357 37030000 		.4byte	0x337
 1314 035b 12       		.uleb128 0x12
 1315 035c 01       		.byte	0x1
ARM GAS  C:\Users\cypress\AppData\Local\Temp\cczqZZvj.s 			page 49


 1316 035d 2C000000 		.4byte	0x2c
 1317 0361 02       		.byte	0x2
 1318 0362 0201     		.2byte	0x102
 1319 0364 75030000 		.4byte	0x375
 1320 0368 11       		.uleb128 0x11
 1321 0369 1E000000 		.4byte	.LASF68
 1322 036d 00       		.byte	0
 1323 036e 11       		.uleb128 0x11
 1324 036f A0010000 		.4byte	.LASF69
 1325 0373 01       		.byte	0x1
 1326 0374 00       		.byte	0
 1327 0375 0F       		.uleb128 0xf
 1328 0376 E8070000 		.4byte	.LASF70
 1329 037a 02       		.byte	0x2
 1330 037b 0501     		.2byte	0x105
 1331 037d 5B030000 		.4byte	0x35b
 1332 0381 12       		.uleb128 0x12
 1333 0382 04       		.byte	0x4
 1334 0383 7A000000 		.4byte	0x7a
 1335 0387 02       		.byte	0x2
 1336 0388 0901     		.2byte	0x109
 1337 038a 9E030000 		.4byte	0x39e
 1338 038e 11       		.uleb128 0x11
 1339 038f 20060000 		.4byte	.LASF71
 1340 0393 00       		.byte	0
 1341 0394 13       		.uleb128 0x13
 1342 0395 3D070000 		.4byte	.LASF72
 1343 0399 01004E00 		.4byte	0x4e0001
 1344 039d 00       		.byte	0
 1345 039e 0F       		.uleb128 0xf
 1346 039f 25040000 		.4byte	.LASF73
 1347 03a3 02       		.byte	0x2
 1348 03a4 0C01     		.2byte	0x10c
 1349 03a6 81030000 		.4byte	0x381
 1350 03aa 14       		.uleb128 0x14
 1351 03ab 18       		.byte	0x18
 1352 03ac 02       		.byte	0x2
 1353 03ad 6001     		.2byte	0x160
 1354 03af 02040000 		.4byte	0x402
 1355 03b3 15       		.uleb128 0x15
 1356 03b4 63746C00 		.ascii	"ctl\000"
 1357 03b8 02       		.byte	0x2
 1358 03b9 6201     		.2byte	0x162
 1359 03bb 8C000000 		.4byte	0x8c
 1360 03bf 00       		.byte	0
 1361 03c0 15       		.uleb128 0x15
 1362 03c1 73726300 		.ascii	"src\000"
 1363 03c5 02       		.byte	0x2
 1364 03c6 6301     		.2byte	0x163
 1365 03c8 8C000000 		.4byte	0x8c
 1366 03cc 04       		.byte	0x4
 1367 03cd 15       		.uleb128 0x15
 1368 03ce 64737400 		.ascii	"dst\000"
 1369 03d2 02       		.byte	0x2
 1370 03d3 6401     		.2byte	0x164
 1371 03d5 8C000000 		.4byte	0x8c
 1372 03d9 08       		.byte	0x8
ARM GAS  C:\Users\cypress\AppData\Local\Temp\cczqZZvj.s 			page 50


 1373 03da 16       		.uleb128 0x16
 1374 03db 38040000 		.4byte	.LASF74
 1375 03df 02       		.byte	0x2
 1376 03e0 6501     		.2byte	0x165
 1377 03e2 8C000000 		.4byte	0x8c
 1378 03e6 0C       		.byte	0xc
 1379 03e7 16       		.uleb128 0x16
 1380 03e8 E1060000 		.4byte	.LASF75
 1381 03ec 02       		.byte	0x2
 1382 03ed 6601     		.2byte	0x166
 1383 03ef 8C000000 		.4byte	0x8c
 1384 03f3 10       		.byte	0x10
 1385 03f4 16       		.uleb128 0x16
 1386 03f5 33010000 		.4byte	.LASF76
 1387 03f9 02       		.byte	0x2
 1388 03fa 6701     		.2byte	0x167
 1389 03fc 8C000000 		.4byte	0x8c
 1390 0400 14       		.byte	0x14
 1391 0401 00       		.byte	0
 1392 0402 0F       		.uleb128 0xf
 1393 0403 8E070000 		.4byte	.LASF77
 1394 0407 02       		.byte	0x2
 1395 0408 6801     		.2byte	0x168
 1396 040a AA030000 		.4byte	0x3aa
 1397 040e 14       		.uleb128 0x14
 1398 040f 30       		.byte	0x30
 1399 0410 02       		.byte	0x2
 1400 0411 7201     		.2byte	0x172
 1401 0413 02050000 		.4byte	0x502
 1402 0417 16       		.uleb128 0x16
 1403 0418 0E030000 		.4byte	.LASF78
 1404 041c 02       		.byte	0x2
 1405 041d 7401     		.2byte	0x174
 1406 041f 2C030000 		.4byte	0x32c
 1407 0423 00       		.byte	0
 1408 0424 16       		.uleb128 0x16
 1409 0425 EB000000 		.4byte	.LASF79
 1410 0429 02       		.byte	0x2
 1411 042a 7501     		.2byte	0x175
 1412 042c D2020000 		.4byte	0x2d2
 1413 0430 01       		.byte	0x1
 1414 0431 16       		.uleb128 0x16
 1415 0432 81000000 		.4byte	.LASF80
 1416 0436 02       		.byte	0x2
 1417 0437 7601     		.2byte	0x176
 1418 0439 D2020000 		.4byte	0x2d2
 1419 043d 02       		.byte	0x2
 1420 043e 16       		.uleb128 0x16
 1421 043f C2070000 		.4byte	.LASF81
 1422 0443 02       		.byte	0x2
 1423 0444 7701     		.2byte	0x177
 1424 0446 75030000 		.4byte	0x375
 1425 044a 03       		.byte	0x3
 1426 044b 16       		.uleb128 0x16
 1427 044c EC020000 		.4byte	.LASF82
 1428 0450 02       		.byte	0x2
 1429 0451 7801     		.2byte	0x178
ARM GAS  C:\Users\cypress\AppData\Local\Temp\cczqZZvj.s 			page 51


 1430 0453 D2020000 		.4byte	0x2d2
 1431 0457 04       		.byte	0x4
 1432 0458 16       		.uleb128 0x16
 1433 0459 D8010000 		.4byte	.LASF83
 1434 045d 02       		.byte	0x2
 1435 045e 7901     		.2byte	0x179
 1436 0460 FC020000 		.4byte	0x2fc
 1437 0464 05       		.byte	0x5
 1438 0465 16       		.uleb128 0x16
 1439 0466 3B010000 		.4byte	.LASF84
 1440 046a 02       		.byte	0x2
 1441 046b 7A01     		.2byte	0x17a
 1442 046d 50030000 		.4byte	0x350
 1443 0471 06       		.byte	0x6
 1444 0472 16       		.uleb128 0x16
 1445 0473 5B030000 		.4byte	.LASF85
 1446 0477 02       		.byte	0x2
 1447 0478 7B01     		.2byte	0x17b
 1448 047a 50030000 		.4byte	0x350
 1449 047e 07       		.byte	0x7
 1450 047f 16       		.uleb128 0x16
 1451 0480 11060000 		.4byte	.LASF86
 1452 0484 02       		.byte	0x2
 1453 0485 7C01     		.2byte	0x17c
 1454 0487 A2020000 		.4byte	0x2a2
 1455 048b 08       		.byte	0x8
 1456 048c 16       		.uleb128 0x16
 1457 048d 09040000 		.4byte	.LASF87
 1458 0491 02       		.byte	0x2
 1459 0492 7D01     		.2byte	0x17d
 1460 0494 02050000 		.4byte	0x502
 1461 0498 0C       		.byte	0xc
 1462 0499 16       		.uleb128 0x16
 1463 049a 94020000 		.4byte	.LASF88
 1464 049e 02       		.byte	0x2
 1465 049f 7E01     		.2byte	0x17e
 1466 04a1 02050000 		.4byte	0x502
 1467 04a5 10       		.byte	0x10
 1468 04a6 16       		.uleb128 0x16
 1469 04a7 4E070000 		.4byte	.LASF89
 1470 04ab 02       		.byte	0x2
 1471 04ac 7F01     		.2byte	0x17f
 1472 04ae 81000000 		.4byte	0x81
 1473 04b2 14       		.byte	0x14
 1474 04b3 16       		.uleb128 0x16
 1475 04b4 DD000000 		.4byte	.LASF90
 1476 04b8 02       		.byte	0x2
 1477 04b9 8001     		.2byte	0x180
 1478 04bb 81000000 		.4byte	0x81
 1479 04bf 18       		.byte	0x18
 1480 04c0 16       		.uleb128 0x16
 1481 04c1 AA060000 		.4byte	.LASF91
 1482 04c5 02       		.byte	0x2
 1483 04c6 8101     		.2byte	0x181
 1484 04c8 8C000000 		.4byte	0x8c
 1485 04cc 1C       		.byte	0x1c
 1486 04cd 16       		.uleb128 0x16
ARM GAS  C:\Users\cypress\AppData\Local\Temp\cczqZZvj.s 			page 52


 1487 04ce 80070000 		.4byte	.LASF92
 1488 04d2 02       		.byte	0x2
 1489 04d3 8201     		.2byte	0x182
 1490 04d5 81000000 		.4byte	0x81
 1491 04d9 20       		.byte	0x20
 1492 04da 16       		.uleb128 0x16
 1493 04db FD060000 		.4byte	.LASF93
 1494 04df 02       		.byte	0x2
 1495 04e0 8301     		.2byte	0x183
 1496 04e2 81000000 		.4byte	0x81
 1497 04e6 24       		.byte	0x24
 1498 04e7 16       		.uleb128 0x16
 1499 04e8 9C060000 		.4byte	.LASF94
 1500 04ec 02       		.byte	0x2
 1501 04ed 8401     		.2byte	0x184
 1502 04ef 8C000000 		.4byte	0x8c
 1503 04f3 28       		.byte	0x28
 1504 04f4 16       		.uleb128 0x16
 1505 04f5 42060000 		.4byte	.LASF95
 1506 04f9 02       		.byte	0x2
 1507 04fa 8501     		.2byte	0x185
 1508 04fc 04050000 		.4byte	0x504
 1509 0500 2C       		.byte	0x2c
 1510 0501 00       		.byte	0
 1511 0502 17       		.uleb128 0x17
 1512 0503 04       		.byte	0x4
 1513 0504 18       		.uleb128 0x18
 1514 0505 04       		.byte	0x4
 1515 0506 02040000 		.4byte	0x402
 1516 050a 0F       		.uleb128 0xf
 1517 050b 0B070000 		.4byte	.LASF96
 1518 050f 02       		.byte	0x2
 1519 0510 8601     		.2byte	0x186
 1520 0512 0E040000 		.4byte	0x40e
 1521 0516 14       		.uleb128 0x14
 1522 0517 10       		.byte	0x10
 1523 0518 02       		.byte	0x2
 1524 0519 8901     		.2byte	0x189
 1525 051b 61050000 		.4byte	0x561
 1526 051f 16       		.uleb128 0x16
 1527 0520 80060000 		.4byte	.LASF97
 1528 0524 02       		.byte	0x2
 1529 0525 8B01     		.2byte	0x18b
 1530 0527 04050000 		.4byte	0x504
 1531 052b 00       		.byte	0
 1532 052c 16       		.uleb128 0x16
 1533 052d 02080000 		.4byte	.LASF98
 1534 0531 02       		.byte	0x2
 1535 0532 8C01     		.2byte	0x18c
 1536 0534 61050000 		.4byte	0x561
 1537 0538 04       		.byte	0x4
 1538 0539 16       		.uleb128 0x16
 1539 053a E3020000 		.4byte	.LASF99
 1540 053e 02       		.byte	0x2
 1541 053f 8D01     		.2byte	0x18d
 1542 0541 8C000000 		.4byte	0x8c
 1543 0545 08       		.byte	0x8
ARM GAS  C:\Users\cypress\AppData\Local\Temp\cczqZZvj.s 			page 53


 1544 0546 16       		.uleb128 0x16
 1545 0547 4B010000 		.4byte	.LASF100
 1546 054b 02       		.byte	0x2
 1547 054c 8E01     		.2byte	0x18e
 1548 054e 61050000 		.4byte	0x561
 1549 0552 0C       		.byte	0xc
 1550 0553 16       		.uleb128 0x16
 1551 0554 92050000 		.4byte	.LASF101
 1552 0558 02       		.byte	0x2
 1553 0559 8F01     		.2byte	0x18f
 1554 055b 61050000 		.4byte	0x561
 1555 055f 0D       		.byte	0xd
 1556 0560 00       		.byte	0
 1557 0561 02       		.uleb128 0x2
 1558 0562 01       		.byte	0x1
 1559 0563 02       		.byte	0x2
 1560 0564 76050000 		.4byte	.LASF102
 1561 0568 0F       		.uleb128 0xf
 1562 0569 4E000000 		.4byte	.LASF103
 1563 056d 02       		.byte	0x2
 1564 056e 9101     		.2byte	0x191
 1565 0570 16050000 		.4byte	0x516
 1566 0574 19       		.uleb128 0x19
 1567 0575 5C070000 		.4byte	.LASF120
 1568 0579 02       		.byte	0x2
 1569 057a E303     		.2byte	0x3e3
 1570 057c A2020000 		.4byte	0x2a2
 1571 0580 03       		.byte	0x3
 1572 0581 92050000 		.4byte	0x592
 1573 0585 1A       		.uleb128 0x1a
 1574 0586 80060000 		.4byte	.LASF97
 1575 058a 02       		.byte	0x2
 1576 058b E303     		.2byte	0x3e3
 1577 058d 92050000 		.4byte	0x592
 1578 0591 00       		.byte	0
 1579 0592 18       		.uleb128 0x18
 1580 0593 04       		.byte	0x4
 1581 0594 98050000 		.4byte	0x598
 1582 0598 06       		.uleb128 0x6
 1583 0599 02040000 		.4byte	0x402
 1584 059d 1B       		.uleb128 0x1b
 1585 059e 07000000 		.4byte	.LASF105
 1586 05a2 01       		.byte	0x1
 1587 05a3 2A       		.byte	0x2a
 1588 05a4 9E030000 		.4byte	0x39e
 1589 05a8 00000000 		.4byte	.LFB176
 1590 05ac 1C020000 		.4byte	.LFE176-.LFB176
 1591 05b0 01       		.uleb128 0x1
 1592 05b1 9C       		.byte	0x9c
 1593 05b2 EA070000 		.4byte	0x7ea
 1594 05b6 1C       		.uleb128 0x1c
 1595 05b7 80060000 		.4byte	.LASF97
 1596 05bb 01       		.byte	0x1
 1597 05bc 2A       		.byte	0x2a
 1598 05bd 04050000 		.4byte	0x504
 1599 05c1 00000000 		.4byte	.LLST0
 1600 05c5 1C       		.uleb128 0x1c
ARM GAS  C:\Users\cypress\AppData\Local\Temp\cczqZZvj.s 			page 54


 1601 05c6 A3060000 		.4byte	.LASF104
 1602 05ca 01       		.byte	0x1
 1603 05cb 2A       		.byte	0x2a
 1604 05cc EA070000 		.4byte	0x7ea
 1605 05d0 5B000000 		.4byte	.LLST1
 1606 05d4 1D       		.uleb128 0x1d
 1607 05d5 00000000 		.4byte	.LASF110
 1608 05d9 01       		.byte	0x1
 1609 05da 2C       		.byte	0x2c
 1610 05db 9E030000 		.4byte	0x39e
 1611 05df 9D000000 		.4byte	.LLST2
 1612 05e3 1E       		.uleb128 0x1e
 1613 05e4 20000000 		.4byte	.LVL3
 1614 05e8 810A0000 		.4byte	0xa81
 1615 05ec 00060000 		.4byte	0x600
 1616 05f0 1F       		.uleb128 0x1f
 1617 05f1 01       		.uleb128 0x1
 1618 05f2 50       		.byte	0x50
 1619 05f3 05       		.uleb128 0x5
 1620 05f4 03       		.byte	0x3
 1621 05f5 00000000 		.4byte	.LC0
 1622 05f9 1F       		.uleb128 0x1f
 1623 05fa 01       		.uleb128 0x1
 1624 05fb 51       		.byte	0x51
 1625 05fc 02       		.uleb128 0x2
 1626 05fd 08       		.byte	0x8
 1627 05fe 30       		.byte	0x30
 1628 05ff 00       		.byte	0
 1629 0600 1E       		.uleb128 0x1e
 1630 0601 2E000000 		.4byte	.LVL4
 1631 0605 810A0000 		.4byte	0xa81
 1632 0609 1D060000 		.4byte	0x61d
 1633 060d 1F       		.uleb128 0x1f
 1634 060e 01       		.uleb128 0x1
 1635 060f 50       		.byte	0x50
 1636 0610 05       		.uleb128 0x5
 1637 0611 03       		.byte	0x3
 1638 0612 00000000 		.4byte	.LC0
 1639 0616 1F       		.uleb128 0x1f
 1640 0617 01       		.uleb128 0x1
 1641 0618 51       		.byte	0x51
 1642 0619 02       		.uleb128 0x2
 1643 061a 08       		.byte	0x8
 1644 061b 31       		.byte	0x31
 1645 061c 00       		.byte	0
 1646 061d 1E       		.uleb128 0x1e
 1647 061e 3C000000 		.4byte	.LVL5
 1648 0622 810A0000 		.4byte	0xa81
 1649 0626 3A060000 		.4byte	0x63a
 1650 062a 1F       		.uleb128 0x1f
 1651 062b 01       		.uleb128 0x1
 1652 062c 50       		.byte	0x50
 1653 062d 05       		.uleb128 0x5
 1654 062e 03       		.byte	0x3
 1655 062f 00000000 		.4byte	.LC0
 1656 0633 1F       		.uleb128 0x1f
 1657 0634 01       		.uleb128 0x1
ARM GAS  C:\Users\cypress\AppData\Local\Temp\cczqZZvj.s 			page 55


 1658 0635 51       		.byte	0x51
 1659 0636 02       		.uleb128 0x2
 1660 0637 08       		.byte	0x8
 1661 0638 32       		.byte	0x32
 1662 0639 00       		.byte	0
 1663 063a 1E       		.uleb128 0x1e
 1664 063b 4A000000 		.4byte	.LVL6
 1665 063f 810A0000 		.4byte	0xa81
 1666 0643 57060000 		.4byte	0x657
 1667 0647 1F       		.uleb128 0x1f
 1668 0648 01       		.uleb128 0x1
 1669 0649 50       		.byte	0x50
 1670 064a 05       		.uleb128 0x5
 1671 064b 03       		.byte	0x3
 1672 064c 00000000 		.4byte	.LC0
 1673 0650 1F       		.uleb128 0x1f
 1674 0651 01       		.uleb128 0x1
 1675 0652 51       		.byte	0x51
 1676 0653 02       		.uleb128 0x2
 1677 0654 08       		.byte	0x8
 1678 0655 33       		.byte	0x33
 1679 0656 00       		.byte	0
 1680 0657 1E       		.uleb128 0x1e
 1681 0658 58000000 		.4byte	.LVL7
 1682 065c 810A0000 		.4byte	0xa81
 1683 0660 74060000 		.4byte	0x674
 1684 0664 1F       		.uleb128 0x1f
 1685 0665 01       		.uleb128 0x1
 1686 0666 50       		.byte	0x50
 1687 0667 05       		.uleb128 0x5
 1688 0668 03       		.byte	0x3
 1689 0669 00000000 		.4byte	.LC0
 1690 066d 1F       		.uleb128 0x1f
 1691 066e 01       		.uleb128 0x1
 1692 066f 51       		.byte	0x51
 1693 0670 02       		.uleb128 0x2
 1694 0671 08       		.byte	0x8
 1695 0672 34       		.byte	0x34
 1696 0673 00       		.byte	0
 1697 0674 1E       		.uleb128 0x1e
 1698 0675 66000000 		.4byte	.LVL8
 1699 0679 810A0000 		.4byte	0xa81
 1700 067d 91060000 		.4byte	0x691
 1701 0681 1F       		.uleb128 0x1f
 1702 0682 01       		.uleb128 0x1
 1703 0683 50       		.byte	0x50
 1704 0684 05       		.uleb128 0x5
 1705 0685 03       		.byte	0x3
 1706 0686 00000000 		.4byte	.LC0
 1707 068a 1F       		.uleb128 0x1f
 1708 068b 01       		.uleb128 0x1
 1709 068c 51       		.byte	0x51
 1710 068d 02       		.uleb128 0x2
 1711 068e 08       		.byte	0x8
 1712 068f 35       		.byte	0x35
 1713 0690 00       		.byte	0
 1714 0691 1E       		.uleb128 0x1e
ARM GAS  C:\Users\cypress\AppData\Local\Temp\cczqZZvj.s 			page 56


 1715 0692 74000000 		.4byte	.LVL9
 1716 0696 810A0000 		.4byte	0xa81
 1717 069a AE060000 		.4byte	0x6ae
 1718 069e 1F       		.uleb128 0x1f
 1719 069f 01       		.uleb128 0x1
 1720 06a0 50       		.byte	0x50
 1721 06a1 05       		.uleb128 0x5
 1722 06a2 03       		.byte	0x3
 1723 06a3 00000000 		.4byte	.LC0
 1724 06a7 1F       		.uleb128 0x1f
 1725 06a8 01       		.uleb128 0x1
 1726 06a9 51       		.byte	0x51
 1727 06aa 02       		.uleb128 0x2
 1728 06ab 08       		.byte	0x8
 1729 06ac 36       		.byte	0x36
 1730 06ad 00       		.byte	0
 1731 06ae 1E       		.uleb128 0x1e
 1732 06af 82000000 		.4byte	.LVL10
 1733 06b3 810A0000 		.4byte	0xa81
 1734 06b7 CB060000 		.4byte	0x6cb
 1735 06bb 1F       		.uleb128 0x1f
 1736 06bc 01       		.uleb128 0x1
 1737 06bd 50       		.byte	0x50
 1738 06be 05       		.uleb128 0x5
 1739 06bf 03       		.byte	0x3
 1740 06c0 00000000 		.4byte	.LC0
 1741 06c4 1F       		.uleb128 0x1f
 1742 06c5 01       		.uleb128 0x1
 1743 06c6 51       		.byte	0x51
 1744 06c7 02       		.uleb128 0x2
 1745 06c8 08       		.byte	0x8
 1746 06c9 37       		.byte	0x37
 1747 06ca 00       		.byte	0
 1748 06cb 1E       		.uleb128 0x1e
 1749 06cc 90000000 		.4byte	.LVL11
 1750 06d0 810A0000 		.4byte	0xa81
 1751 06d4 E8060000 		.4byte	0x6e8
 1752 06d8 1F       		.uleb128 0x1f
 1753 06d9 01       		.uleb128 0x1
 1754 06da 50       		.byte	0x50
 1755 06db 05       		.uleb128 0x5
 1756 06dc 03       		.byte	0x3
 1757 06dd 00000000 		.4byte	.LC0
 1758 06e1 1F       		.uleb128 0x1f
 1759 06e2 01       		.uleb128 0x1
 1760 06e3 51       		.byte	0x51
 1761 06e4 02       		.uleb128 0x2
 1762 06e5 08       		.byte	0x8
 1763 06e6 38       		.byte	0x38
 1764 06e7 00       		.byte	0
 1765 06e8 1E       		.uleb128 0x1e
 1766 06e9 14010000 		.4byte	.LVL13
 1767 06ed 810A0000 		.4byte	0xa81
 1768 06f1 05070000 		.4byte	0x705
 1769 06f5 1F       		.uleb128 0x1f
 1770 06f6 01       		.uleb128 0x1
 1771 06f7 50       		.byte	0x50
ARM GAS  C:\Users\cypress\AppData\Local\Temp\cczqZZvj.s 			page 57


 1772 06f8 05       		.uleb128 0x5
 1773 06f9 03       		.byte	0x3
 1774 06fa 00000000 		.4byte	.LC0
 1775 06fe 1F       		.uleb128 0x1f
 1776 06ff 01       		.uleb128 0x1
 1777 0700 51       		.byte	0x51
 1778 0701 02       		.uleb128 0x2
 1779 0702 08       		.byte	0x8
 1780 0703 52       		.byte	0x52
 1781 0704 00       		.byte	0
 1782 0705 1E       		.uleb128 0x1e
 1783 0706 28010000 		.4byte	.LVL14
 1784 070a 810A0000 		.4byte	0xa81
 1785 070e 22070000 		.4byte	0x722
 1786 0712 1F       		.uleb128 0x1f
 1787 0713 01       		.uleb128 0x1
 1788 0714 50       		.byte	0x50
 1789 0715 05       		.uleb128 0x5
 1790 0716 03       		.byte	0x3
 1791 0717 00000000 		.4byte	.LC0
 1792 071b 1F       		.uleb128 0x1f
 1793 071c 01       		.uleb128 0x1
 1794 071d 51       		.byte	0x51
 1795 071e 02       		.uleb128 0x2
 1796 071f 08       		.byte	0x8
 1797 0720 53       		.byte	0x53
 1798 0721 00       		.byte	0
 1799 0722 1E       		.uleb128 0x1e
 1800 0723 38010000 		.4byte	.LVL15
 1801 0727 810A0000 		.4byte	0xa81
 1802 072b 3F070000 		.4byte	0x73f
 1803 072f 1F       		.uleb128 0x1f
 1804 0730 01       		.uleb128 0x1
 1805 0731 50       		.byte	0x50
 1806 0732 05       		.uleb128 0x5
 1807 0733 03       		.byte	0x3
 1808 0734 00000000 		.4byte	.LC0
 1809 0738 1F       		.uleb128 0x1f
 1810 0739 01       		.uleb128 0x1
 1811 073a 51       		.byte	0x51
 1812 073b 02       		.uleb128 0x2
 1813 073c 08       		.byte	0x8
 1814 073d 54       		.byte	0x54
 1815 073e 00       		.byte	0
 1816 073f 1E       		.uleb128 0x1e
 1817 0740 6E010000 		.4byte	.LVL17
 1818 0744 810A0000 		.4byte	0xa81
 1819 0748 5C070000 		.4byte	0x75c
 1820 074c 1F       		.uleb128 0x1f
 1821 074d 01       		.uleb128 0x1
 1822 074e 50       		.byte	0x50
 1823 074f 05       		.uleb128 0x5
 1824 0750 03       		.byte	0x3
 1825 0751 00000000 		.4byte	.LC0
 1826 0755 1F       		.uleb128 0x1f
 1827 0756 01       		.uleb128 0x1
 1828 0757 51       		.byte	0x51
ARM GAS  C:\Users\cypress\AppData\Local\Temp\cczqZZvj.s 			page 58


 1829 0758 02       		.uleb128 0x2
 1830 0759 08       		.byte	0x8
 1831 075a 61       		.byte	0x61
 1832 075b 00       		.byte	0
 1833 075c 1E       		.uleb128 0x1e
 1834 075d 82010000 		.4byte	.LVL18
 1835 0761 810A0000 		.4byte	0xa81
 1836 0765 79070000 		.4byte	0x779
 1837 0769 1F       		.uleb128 0x1f
 1838 076a 01       		.uleb128 0x1
 1839 076b 50       		.byte	0x50
 1840 076c 05       		.uleb128 0x5
 1841 076d 03       		.byte	0x3
 1842 076e 00000000 		.4byte	.LC0
 1843 0772 1F       		.uleb128 0x1f
 1844 0773 01       		.uleb128 0x1
 1845 0774 51       		.byte	0x51
 1846 0775 02       		.uleb128 0x2
 1847 0776 08       		.byte	0x8
 1848 0777 62       		.byte	0x62
 1849 0778 00       		.byte	0
 1850 0779 1E       		.uleb128 0x1e
 1851 077a 92010000 		.4byte	.LVL19
 1852 077e 810A0000 		.4byte	0xa81
 1853 0782 96070000 		.4byte	0x796
 1854 0786 1F       		.uleb128 0x1f
 1855 0787 01       		.uleb128 0x1
 1856 0788 50       		.byte	0x50
 1857 0789 05       		.uleb128 0x5
 1858 078a 03       		.byte	0x3
 1859 078b 00000000 		.4byte	.LC0
 1860 078f 1F       		.uleb128 0x1f
 1861 0790 01       		.uleb128 0x1
 1862 0791 51       		.byte	0x51
 1863 0792 02       		.uleb128 0x2
 1864 0793 08       		.byte	0x8
 1865 0794 63       		.byte	0x63
 1866 0795 00       		.byte	0
 1867 0796 1E       		.uleb128 0x1e
 1868 0797 A6010000 		.4byte	.LVL20
 1869 079b 810A0000 		.4byte	0xa81
 1870 079f B3070000 		.4byte	0x7b3
 1871 07a3 1F       		.uleb128 0x1f
 1872 07a4 01       		.uleb128 0x1
 1873 07a5 50       		.byte	0x50
 1874 07a6 05       		.uleb128 0x5
 1875 07a7 03       		.byte	0x3
 1876 07a8 00000000 		.4byte	.LC0
 1877 07ac 1F       		.uleb128 0x1f
 1878 07ad 01       		.uleb128 0x1
 1879 07ae 51       		.byte	0x51
 1880 07af 02       		.uleb128 0x2
 1881 07b0 08       		.byte	0x8
 1882 07b1 64       		.byte	0x64
 1883 07b2 00       		.byte	0
 1884 07b3 1E       		.uleb128 0x1e
 1885 07b4 BA010000 		.4byte	.LVL21
ARM GAS  C:\Users\cypress\AppData\Local\Temp\cczqZZvj.s 			page 59


 1886 07b8 810A0000 		.4byte	0xa81
 1887 07bc D0070000 		.4byte	0x7d0
 1888 07c0 1F       		.uleb128 0x1f
 1889 07c1 01       		.uleb128 0x1
 1890 07c2 50       		.byte	0x50
 1891 07c3 05       		.uleb128 0x5
 1892 07c4 03       		.byte	0x3
 1893 07c5 00000000 		.4byte	.LC0
 1894 07c9 1F       		.uleb128 0x1f
 1895 07ca 01       		.uleb128 0x1
 1896 07cb 51       		.byte	0x51
 1897 07cc 02       		.uleb128 0x2
 1898 07cd 08       		.byte	0x8
 1899 07ce 65       		.byte	0x65
 1900 07cf 00       		.byte	0
 1901 07d0 20       		.uleb128 0x20
 1902 07d1 CA010000 		.4byte	.LVL22
 1903 07d5 810A0000 		.4byte	0xa81
 1904 07d9 1F       		.uleb128 0x1f
 1905 07da 01       		.uleb128 0x1
 1906 07db 50       		.byte	0x50
 1907 07dc 05       		.uleb128 0x5
 1908 07dd 03       		.byte	0x3
 1909 07de 00000000 		.4byte	.LC0
 1910 07e2 1F       		.uleb128 0x1f
 1911 07e3 01       		.uleb128 0x1
 1912 07e4 51       		.byte	0x51
 1913 07e5 02       		.uleb128 0x2
 1914 07e6 08       		.byte	0x8
 1915 07e7 66       		.byte	0x66
 1916 07e8 00       		.byte	0
 1917 07e9 00       		.byte	0
 1918 07ea 18       		.uleb128 0x18
 1919 07eb 04       		.byte	0x4
 1920 07ec F0070000 		.4byte	0x7f0
 1921 07f0 06       		.uleb128 0x6
 1922 07f1 0A050000 		.4byte	0x50a
 1923 07f5 21       		.uleb128 0x21
 1924 07f6 CF070000 		.4byte	.LASF111
 1925 07fa 01       		.byte	0x1
 1926 07fb 8F       		.byte	0x8f
 1927 07fc 00000000 		.4byte	.LFB177
 1928 0800 10000000 		.4byte	.LFE177-.LFB177
 1929 0804 01       		.uleb128 0x1
 1930 0805 9C       		.byte	0x9c
 1931 0806 18080000 		.4byte	0x818
 1932 080a 22       		.uleb128 0x22
 1933 080b 80060000 		.4byte	.LASF97
 1934 080f 01       		.byte	0x1
 1935 0810 8F       		.byte	0x8f
 1936 0811 04050000 		.4byte	0x504
 1937 0815 01       		.uleb128 0x1
 1938 0816 50       		.byte	0x50
 1939 0817 00       		.byte	0
 1940 0818 1B       		.uleb128 0x1b
 1941 0819 FA020000 		.4byte	.LASF106
 1942 081d 01       		.byte	0x1
ARM GAS  C:\Users\cypress\AppData\Local\Temp\cczqZZvj.s 			page 60


 1943 081e AE       		.byte	0xae
 1944 081f 9E030000 		.4byte	0x39e
 1945 0823 00000000 		.4byte	.LFB178
 1946 0827 94000000 		.4byte	.LFE178-.LFB178
 1947 082b 01       		.uleb128 0x1
 1948 082c 9C       		.byte	0x9c
 1949 082d 87080000 		.4byte	0x887
 1950 0831 1C       		.uleb128 0x1c
 1951 0832 56030000 		.4byte	.LASF107
 1952 0836 01       		.byte	0x1
 1953 0837 AE       		.byte	0xae
 1954 0838 87080000 		.4byte	0x887
 1955 083c DB000000 		.4byte	.LLST3
 1956 0840 1C       		.uleb128 0x1c
 1957 0841 51060000 		.4byte	.LASF108
 1958 0845 01       		.byte	0x1
 1959 0846 AE       		.byte	0xae
 1960 0847 8C000000 		.4byte	0x8c
 1961 084b 5D010000 		.4byte	.LLST4
 1962 084f 1C       		.uleb128 0x1c
 1963 0850 6B030000 		.4byte	.LASF109
 1964 0854 01       		.byte	0x1
 1965 0855 AE       		.byte	0xae
 1966 0856 8D080000 		.4byte	0x88d
 1967 085a 86010000 		.4byte	.LLST5
 1968 085e 1D       		.uleb128 0x1d
 1969 085f 00000000 		.4byte	.LASF110
 1970 0863 01       		.byte	0x1
 1971 0864 B0       		.byte	0xb0
 1972 0865 9E030000 		.4byte	0x39e
 1973 0869 AF010000 		.4byte	.LLST6
 1974 086d 20       		.uleb128 0x20
 1975 086e 32000000 		.4byte	.LVL34
 1976 0872 810A0000 		.4byte	0xa81
 1977 0876 1F       		.uleb128 0x1f
 1978 0877 01       		.uleb128 0x1
 1979 0878 50       		.byte	0x50
 1980 0879 05       		.uleb128 0x5
 1981 087a 03       		.byte	0x3
 1982 087b 00000000 		.4byte	.LC0
 1983 087f 1F       		.uleb128 0x1f
 1984 0880 01       		.uleb128 0x1
 1985 0881 51       		.byte	0x51
 1986 0882 02       		.uleb128 0x2
 1987 0883 08       		.byte	0x8
 1988 0884 B4       		.byte	0xb4
 1989 0885 00       		.byte	0
 1990 0886 00       		.byte	0
 1991 0887 18       		.uleb128 0x18
 1992 0888 04       		.byte	0x4
 1993 0889 57020000 		.4byte	0x257
 1994 088d 18       		.uleb128 0x18
 1995 088e 04       		.byte	0x4
 1996 088f 93080000 		.4byte	0x893
 1997 0893 06       		.uleb128 0x6
 1998 0894 68050000 		.4byte	0x568
 1999 0898 21       		.uleb128 0x21
ARM GAS  C:\Users\cypress\AppData\Local\Temp\cczqZZvj.s 			page 61


 2000 0899 2A030000 		.4byte	.LASF112
 2001 089d 01       		.byte	0x1
 2002 089e D2       		.byte	0xd2
 2003 089f 00000000 		.4byte	.LFB179
 2004 08a3 44000000 		.4byte	.LFE179-.LFB179
 2005 08a7 01       		.uleb128 0x1
 2006 08a8 9C       		.byte	0x9c
 2007 08a9 E5080000 		.4byte	0x8e5
 2008 08ad 1C       		.uleb128 0x1c
 2009 08ae 56030000 		.4byte	.LASF107
 2010 08b2 01       		.byte	0x1
 2011 08b3 D2       		.byte	0xd2
 2012 08b4 87080000 		.4byte	0x887
 2013 08b8 FE010000 		.4byte	.LLST7
 2014 08bc 1C       		.uleb128 0x1c
 2015 08bd 51060000 		.4byte	.LASF108
 2016 08c1 01       		.byte	0x1
 2017 08c2 D2       		.byte	0xd2
 2018 08c3 8C000000 		.4byte	0x8c
 2019 08c7 2A020000 		.4byte	.LLST8
 2020 08cb 20       		.uleb128 0x20
 2021 08cc 20000000 		.4byte	.LVL47
 2022 08d0 810A0000 		.4byte	0xa81
 2023 08d4 1F       		.uleb128 0x1f
 2024 08d5 01       		.uleb128 0x1
 2025 08d6 50       		.byte	0x50
 2026 08d7 05       		.uleb128 0x5
 2027 08d8 03       		.byte	0x3
 2028 08d9 00000000 		.4byte	.LC0
 2029 08dd 1F       		.uleb128 0x1f
 2030 08de 01       		.uleb128 0x1
 2031 08df 51       		.byte	0x51
 2032 08e0 02       		.uleb128 0x2
 2033 08e1 08       		.byte	0x8
 2034 08e2 D4       		.byte	0xd4
 2035 08e3 00       		.byte	0
 2036 08e4 00       		.byte	0
 2037 08e5 21       		.uleb128 0x21
 2038 08e6 F9000000 		.4byte	.LASF113
 2039 08ea 01       		.byte	0x1
 2040 08eb EF       		.byte	0xef
 2041 08ec 00000000 		.4byte	.LFB180
 2042 08f0 30000000 		.4byte	.LFE180-.LFB180
 2043 08f4 01       		.uleb128 0x1
 2044 08f5 9C       		.byte	0x9c
 2045 08f6 32090000 		.4byte	0x932
 2046 08fa 1C       		.uleb128 0x1c
 2047 08fb 80060000 		.4byte	.LASF97
 2048 08ff 01       		.byte	0x1
 2049 0900 EF       		.byte	0xef
 2050 0901 04050000 		.4byte	0x504
 2051 0905 56020000 		.4byte	.LLST9
 2052 0909 1C       		.uleb128 0x1c
 2053 090a 42060000 		.4byte	.LASF95
 2054 090e 01       		.byte	0x1
 2055 090f EF       		.byte	0xef
 2056 0910 92050000 		.4byte	0x592
ARM GAS  C:\Users\cypress\AppData\Local\Temp\cczqZZvj.s 			page 62


 2057 0914 82020000 		.4byte	.LLST10
 2058 0918 20       		.uleb128 0x20
 2059 0919 10000000 		.4byte	.LVL53
 2060 091d 810A0000 		.4byte	0xa81
 2061 0921 1F       		.uleb128 0x1f
 2062 0922 01       		.uleb128 0x1
 2063 0923 50       		.byte	0x50
 2064 0924 05       		.uleb128 0x5
 2065 0925 03       		.byte	0x3
 2066 0926 00000000 		.4byte	.LC0
 2067 092a 1F       		.uleb128 0x1f
 2068 092b 01       		.uleb128 0x1
 2069 092c 51       		.byte	0x51
 2070 092d 02       		.uleb128 0x2
 2071 092e 08       		.byte	0x8
 2072 092f F1       		.byte	0xf1
 2073 0930 00       		.byte	0
 2074 0931 00       		.byte	0
 2075 0932 23       		.uleb128 0x23
 2076 0933 34050000 		.4byte	.LASF114
 2077 0937 01       		.byte	0x1
 2078 0938 1A01     		.2byte	0x11a
 2079 093a 04050000 		.4byte	0x504
 2080 093e 00000000 		.4byte	.LFB181
 2081 0942 34000000 		.4byte	.LFE181-.LFB181
 2082 0946 01       		.uleb128 0x1
 2083 0947 9C       		.byte	0x9c
 2084 0948 87090000 		.4byte	0x987
 2085 094c 24       		.uleb128 0x24
 2086 094d 80060000 		.4byte	.LASF97
 2087 0951 01       		.byte	0x1
 2088 0952 1A01     		.2byte	0x11a
 2089 0954 92050000 		.4byte	0x592
 2090 0958 AF020000 		.4byte	.LLST11
 2091 095c 25       		.uleb128 0x25
 2092 095d 00000000 		.4byte	.LASF110
 2093 0961 01       		.byte	0x1
 2094 0962 1C01     		.2byte	0x11c
 2095 0964 04050000 		.4byte	0x504
 2096 0968 DB020000 		.4byte	.LLST12
 2097 096c 20       		.uleb128 0x20
 2098 096d 10000000 		.4byte	.LVL61
 2099 0971 810A0000 		.4byte	0xa81
 2100 0975 1F       		.uleb128 0x1f
 2101 0976 01       		.uleb128 0x1
 2102 0977 50       		.byte	0x50
 2103 0978 05       		.uleb128 0x5
 2104 0979 03       		.byte	0x3
 2105 097a 00000000 		.4byte	.LC0
 2106 097e 1F       		.uleb128 0x1f
 2107 097f 01       		.uleb128 0x1
 2108 0980 51       		.byte	0x51
 2109 0981 03       		.uleb128 0x3
 2110 0982 0A       		.byte	0xa
 2111 0983 1E01     		.2byte	0x11e
 2112 0985 00       		.byte	0
 2113 0986 00       		.byte	0
ARM GAS  C:\Users\cypress\AppData\Local\Temp\cczqZZvj.s 			page 63


 2114 0987 26       		.uleb128 0x26
 2115 0988 FA010000 		.4byte	.LASF115
 2116 098c 01       		.byte	0x1
 2117 098d 4E01     		.2byte	0x14e
 2118 098f 00000000 		.4byte	.LFB182
 2119 0993 58000000 		.4byte	.LFE182-.LFB182
 2120 0997 01       		.uleb128 0x1
 2121 0998 9C       		.byte	0x9c
 2122 0999 700A0000 		.4byte	0xa70
 2123 099d 24       		.uleb128 0x24
 2124 099e 80060000 		.4byte	.LASF97
 2125 09a2 01       		.byte	0x1
 2126 09a3 4E01     		.2byte	0x14e
 2127 09a5 04050000 		.4byte	0x504
 2128 09a9 3F030000 		.4byte	.LLST13
 2129 09ad 24       		.uleb128 0x24
 2130 09ae 11060000 		.4byte	.LASF86
 2131 09b2 01       		.byte	0x1
 2132 09b3 4E01     		.2byte	0x14e
 2133 09b5 A2020000 		.4byte	0x2a2
 2134 09b9 6B030000 		.4byte	.LLST14
 2135 09bd 27       		.uleb128 0x27
 2136 09be 74050000 		.4byte	0x574
 2137 09c2 20000000 		.4byte	.LBB5
 2138 09c6 0E000000 		.4byte	.LBE5-.LBB5
 2139 09ca 01       		.byte	0x1
 2140 09cb 5301     		.2byte	0x153
 2141 09cd F5090000 		.4byte	0x9f5
 2142 09d1 28       		.uleb128 0x28
 2143 09d2 85050000 		.4byte	0x585
 2144 09d6 8C030000 		.4byte	.LLST15
 2145 09da 20       		.uleb128 0x20
 2146 09db 2C000000 		.4byte	.LVL75
 2147 09df 810A0000 		.4byte	0xa81
 2148 09e3 1F       		.uleb128 0x1f
 2149 09e4 01       		.uleb128 0x1
 2150 09e5 50       		.byte	0x50
 2151 09e6 05       		.uleb128 0x5
 2152 09e7 03       		.byte	0x3
 2153 09e8 3C000000 		.4byte	.LC1
 2154 09ec 1F       		.uleb128 0x1f
 2155 09ed 01       		.uleb128 0x1
 2156 09ee 51       		.byte	0x51
 2157 09ef 03       		.uleb128 0x3
 2158 09f0 0A       		.byte	0xa
 2159 09f1 E503     		.2byte	0x3e5
 2160 09f3 00       		.byte	0
 2161 09f4 00       		.byte	0
 2162 09f5 29       		.uleb128 0x29
 2163 09f6 34000000 		.4byte	.LBB7
 2164 09fa 24000000 		.4byte	.LBE7-.LBB7
 2165 09fe 370A0000 		.4byte	0xa37
 2166 0a02 25       		.uleb128 0x25
 2167 0a03 18030000 		.4byte	.LASF116
 2168 0a07 01       		.byte	0x1
 2169 0a08 5601     		.2byte	0x156
 2170 0a0a 04050000 		.4byte	0x504
ARM GAS  C:\Users\cypress\AppData\Local\Temp\cczqZZvj.s 			page 64


 2171 0a0e 9F030000 		.4byte	.LLST16
 2172 0a12 1E       		.uleb128 0x1e
 2173 0a13 3A000000 		.4byte	.LVL77
 2174 0a17 32090000 		.4byte	0x932
 2175 0a1b 260A0000 		.4byte	0xa26
 2176 0a1f 1F       		.uleb128 0x1f
 2177 0a20 01       		.uleb128 0x1
 2178 0a21 50       		.byte	0x50
 2179 0a22 02       		.uleb128 0x2
 2180 0a23 74       		.byte	0x74
 2181 0a24 00       		.sleb128 0
 2182 0a25 00       		.byte	0
 2183 0a26 20       		.uleb128 0x20
 2184 0a27 4E000000 		.4byte	.LVL79
 2185 0a2b E5080000 		.4byte	0x8e5
 2186 0a2f 1F       		.uleb128 0x1f
 2187 0a30 01       		.uleb128 0x1
 2188 0a31 50       		.byte	0x50
 2189 0a32 02       		.uleb128 0x2
 2190 0a33 74       		.byte	0x74
 2191 0a34 00       		.sleb128 0
 2192 0a35 00       		.byte	0
 2193 0a36 00       		.byte	0
 2194 0a37 1E       		.uleb128 0x1e
 2195 0a38 12000000 		.4byte	.LVL73
 2196 0a3c 810A0000 		.4byte	0xa81
 2197 0a40 550A0000 		.4byte	0xa55
 2198 0a44 1F       		.uleb128 0x1f
 2199 0a45 01       		.uleb128 0x1
 2200 0a46 50       		.byte	0x50
 2201 0a47 05       		.uleb128 0x5
 2202 0a48 03       		.byte	0x3
 2203 0a49 00000000 		.4byte	.LC0
 2204 0a4d 1F       		.uleb128 0x1f
 2205 0a4e 01       		.uleb128 0x1
 2206 0a4f 51       		.byte	0x51
 2207 0a50 03       		.uleb128 0x3
 2208 0a51 0A       		.byte	0xa
 2209 0a52 5001     		.2byte	0x150
 2210 0a54 00       		.byte	0
 2211 0a55 20       		.uleb128 0x20
 2212 0a56 20000000 		.4byte	.LVL74
 2213 0a5a 810A0000 		.4byte	0xa81
 2214 0a5e 1F       		.uleb128 0x1f
 2215 0a5f 01       		.uleb128 0x1
 2216 0a60 50       		.byte	0x50
 2217 0a61 05       		.uleb128 0x5
 2218 0a62 03       		.byte	0x3
 2219 0a63 00000000 		.4byte	.LC0
 2220 0a67 1F       		.uleb128 0x1f
 2221 0a68 01       		.uleb128 0x1
 2222 0a69 51       		.byte	0x51
 2223 0a6a 03       		.uleb128 0x3
 2224 0a6b 0A       		.byte	0xa
 2225 0a6c 5101     		.2byte	0x151
 2226 0a6e 00       		.byte	0
 2227 0a6f 00       		.byte	0
ARM GAS  C:\Users\cypress\AppData\Local\Temp\cczqZZvj.s 			page 65


 2228 0a70 2A       		.uleb128 0x2a
 2229 0a71 A0000000 		.4byte	.LASF121
 2230 0a75 07       		.byte	0x7
 2231 0a76 EA07     		.2byte	0x7ea
 2232 0a78 7C0A0000 		.4byte	0xa7c
 2233 0a7c 05       		.uleb128 0x5
 2234 0a7d 81000000 		.4byte	0x81
 2235 0a81 2B       		.uleb128 0x2b
 2236 0a82 E6060000 		.4byte	.LASF122
 2237 0a86 E6060000 		.4byte	.LASF122
 2238 0a8a 06       		.byte	0x6
 2239 0a8b 2A03     		.2byte	0x32a
 2240 0a8d 00       		.byte	0
 2241              		.section	.debug_abbrev,"",%progbits
 2242              	.Ldebug_abbrev0:
 2243 0000 01       		.uleb128 0x1
 2244 0001 11       		.uleb128 0x11
 2245 0002 01       		.byte	0x1
 2246 0003 25       		.uleb128 0x25
 2247 0004 0E       		.uleb128 0xe
 2248 0005 13       		.uleb128 0x13
 2249 0006 0B       		.uleb128 0xb
 2250 0007 03       		.uleb128 0x3
 2251 0008 0E       		.uleb128 0xe
 2252 0009 1B       		.uleb128 0x1b
 2253 000a 0E       		.uleb128 0xe
 2254 000b 55       		.uleb128 0x55
 2255 000c 17       		.uleb128 0x17
 2256 000d 11       		.uleb128 0x11
 2257 000e 01       		.uleb128 0x1
 2258 000f 10       		.uleb128 0x10
 2259 0010 17       		.uleb128 0x17
 2260 0011 00       		.byte	0
 2261 0012 00       		.byte	0
 2262 0013 02       		.uleb128 0x2
 2263 0014 24       		.uleb128 0x24
 2264 0015 00       		.byte	0
 2265 0016 0B       		.uleb128 0xb
 2266 0017 0B       		.uleb128 0xb
 2267 0018 3E       		.uleb128 0x3e
 2268 0019 0B       		.uleb128 0xb
 2269 001a 03       		.uleb128 0x3
 2270 001b 0E       		.uleb128 0xe
 2271 001c 00       		.byte	0
 2272 001d 00       		.byte	0
 2273 001e 03       		.uleb128 0x3
 2274 001f 16       		.uleb128 0x16
 2275 0020 00       		.byte	0
 2276 0021 03       		.uleb128 0x3
 2277 0022 0E       		.uleb128 0xe
 2278 0023 3A       		.uleb128 0x3a
 2279 0024 0B       		.uleb128 0xb
 2280 0025 3B       		.uleb128 0x3b
 2281 0026 0B       		.uleb128 0xb
 2282 0027 49       		.uleb128 0x49
 2283 0028 13       		.uleb128 0x13
 2284 0029 00       		.byte	0
ARM GAS  C:\Users\cypress\AppData\Local\Temp\cczqZZvj.s 			page 66


 2285 002a 00       		.byte	0
 2286 002b 04       		.uleb128 0x4
 2287 002c 24       		.uleb128 0x24
 2288 002d 00       		.byte	0
 2289 002e 0B       		.uleb128 0xb
 2290 002f 0B       		.uleb128 0xb
 2291 0030 3E       		.uleb128 0x3e
 2292 0031 0B       		.uleb128 0xb
 2293 0032 03       		.uleb128 0x3
 2294 0033 08       		.uleb128 0x8
 2295 0034 00       		.byte	0
 2296 0035 00       		.byte	0
 2297 0036 05       		.uleb128 0x5
 2298 0037 35       		.uleb128 0x35
 2299 0038 00       		.byte	0
 2300 0039 49       		.uleb128 0x49
 2301 003a 13       		.uleb128 0x13
 2302 003b 00       		.byte	0
 2303 003c 00       		.byte	0
 2304 003d 06       		.uleb128 0x6
 2305 003e 26       		.uleb128 0x26
 2306 003f 00       		.byte	0
 2307 0040 49       		.uleb128 0x49
 2308 0041 13       		.uleb128 0x13
 2309 0042 00       		.byte	0
 2310 0043 00       		.byte	0
 2311 0044 07       		.uleb128 0x7
 2312 0045 01       		.uleb128 0x1
 2313 0046 01       		.byte	0x1
 2314 0047 49       		.uleb128 0x49
 2315 0048 13       		.uleb128 0x13
 2316 0049 01       		.uleb128 0x1
 2317 004a 13       		.uleb128 0x13
 2318 004b 00       		.byte	0
 2319 004c 00       		.byte	0
 2320 004d 08       		.uleb128 0x8
 2321 004e 21       		.uleb128 0x21
 2322 004f 00       		.byte	0
 2323 0050 49       		.uleb128 0x49
 2324 0051 13       		.uleb128 0x13
 2325 0052 2F       		.uleb128 0x2f
 2326 0053 0B       		.uleb128 0xb
 2327 0054 00       		.byte	0
 2328 0055 00       		.byte	0
 2329 0056 09       		.uleb128 0x9
 2330 0057 13       		.uleb128 0x13
 2331 0058 01       		.byte	0x1
 2332 0059 0B       		.uleb128 0xb
 2333 005a 0B       		.uleb128 0xb
 2334 005b 3A       		.uleb128 0x3a
 2335 005c 0B       		.uleb128 0xb
 2336 005d 3B       		.uleb128 0x3b
 2337 005e 0B       		.uleb128 0xb
 2338 005f 01       		.uleb128 0x1
 2339 0060 13       		.uleb128 0x13
 2340 0061 00       		.byte	0
 2341 0062 00       		.byte	0
ARM GAS  C:\Users\cypress\AppData\Local\Temp\cczqZZvj.s 			page 67


 2342 0063 0A       		.uleb128 0xa
 2343 0064 0D       		.uleb128 0xd
 2344 0065 00       		.byte	0
 2345 0066 03       		.uleb128 0x3
 2346 0067 0E       		.uleb128 0xe
 2347 0068 3A       		.uleb128 0x3a
 2348 0069 0B       		.uleb128 0xb
 2349 006a 3B       		.uleb128 0x3b
 2350 006b 0B       		.uleb128 0xb
 2351 006c 49       		.uleb128 0x49
 2352 006d 13       		.uleb128 0x13
 2353 006e 38       		.uleb128 0x38
 2354 006f 0B       		.uleb128 0xb
 2355 0070 00       		.byte	0
 2356 0071 00       		.byte	0
 2357 0072 0B       		.uleb128 0xb
 2358 0073 13       		.uleb128 0x13
 2359 0074 01       		.byte	0x1
 2360 0075 0B       		.uleb128 0xb
 2361 0076 05       		.uleb128 0x5
 2362 0077 3A       		.uleb128 0x3a
 2363 0078 0B       		.uleb128 0xb
 2364 0079 3B       		.uleb128 0x3b
 2365 007a 0B       		.uleb128 0xb
 2366 007b 01       		.uleb128 0x1
 2367 007c 13       		.uleb128 0x13
 2368 007d 00       		.byte	0
 2369 007e 00       		.byte	0
 2370 007f 0C       		.uleb128 0xc
 2371 0080 0D       		.uleb128 0xd
 2372 0081 00       		.byte	0
 2373 0082 03       		.uleb128 0x3
 2374 0083 08       		.uleb128 0x8
 2375 0084 3A       		.uleb128 0x3a
 2376 0085 0B       		.uleb128 0xb
 2377 0086 3B       		.uleb128 0x3b
 2378 0087 0B       		.uleb128 0xb
 2379 0088 49       		.uleb128 0x49
 2380 0089 13       		.uleb128 0x13
 2381 008a 38       		.uleb128 0x38
 2382 008b 0B       		.uleb128 0xb
 2383 008c 00       		.byte	0
 2384 008d 00       		.byte	0
 2385 008e 0D       		.uleb128 0xd
 2386 008f 0D       		.uleb128 0xd
 2387 0090 00       		.byte	0
 2388 0091 03       		.uleb128 0x3
 2389 0092 0E       		.uleb128 0xe
 2390 0093 3A       		.uleb128 0x3a
 2391 0094 0B       		.uleb128 0xb
 2392 0095 3B       		.uleb128 0x3b
 2393 0096 0B       		.uleb128 0xb
 2394 0097 49       		.uleb128 0x49
 2395 0098 13       		.uleb128 0x13
 2396 0099 38       		.uleb128 0x38
 2397 009a 05       		.uleb128 0x5
 2398 009b 00       		.byte	0
ARM GAS  C:\Users\cypress\AppData\Local\Temp\cczqZZvj.s 			page 68


 2399 009c 00       		.byte	0
 2400 009d 0E       		.uleb128 0xe
 2401 009e 21       		.uleb128 0x21
 2402 009f 00       		.byte	0
 2403 00a0 49       		.uleb128 0x49
 2404 00a1 13       		.uleb128 0x13
 2405 00a2 2F       		.uleb128 0x2f
 2406 00a3 05       		.uleb128 0x5
 2407 00a4 00       		.byte	0
 2408 00a5 00       		.byte	0
 2409 00a6 0F       		.uleb128 0xf
 2410 00a7 16       		.uleb128 0x16
 2411 00a8 00       		.byte	0
 2412 00a9 03       		.uleb128 0x3
 2413 00aa 0E       		.uleb128 0xe
 2414 00ab 3A       		.uleb128 0x3a
 2415 00ac 0B       		.uleb128 0xb
 2416 00ad 3B       		.uleb128 0x3b
 2417 00ae 05       		.uleb128 0x5
 2418 00af 49       		.uleb128 0x49
 2419 00b0 13       		.uleb128 0x13
 2420 00b1 00       		.byte	0
 2421 00b2 00       		.byte	0
 2422 00b3 10       		.uleb128 0x10
 2423 00b4 04       		.uleb128 0x4
 2424 00b5 01       		.byte	0x1
 2425 00b6 0B       		.uleb128 0xb
 2426 00b7 0B       		.uleb128 0xb
 2427 00b8 49       		.uleb128 0x49
 2428 00b9 13       		.uleb128 0x13
 2429 00ba 3A       		.uleb128 0x3a
 2430 00bb 0B       		.uleb128 0xb
 2431 00bc 3B       		.uleb128 0x3b
 2432 00bd 0B       		.uleb128 0xb
 2433 00be 01       		.uleb128 0x1
 2434 00bf 13       		.uleb128 0x13
 2435 00c0 00       		.byte	0
 2436 00c1 00       		.byte	0
 2437 00c2 11       		.uleb128 0x11
 2438 00c3 28       		.uleb128 0x28
 2439 00c4 00       		.byte	0
 2440 00c5 03       		.uleb128 0x3
 2441 00c6 0E       		.uleb128 0xe
 2442 00c7 1C       		.uleb128 0x1c
 2443 00c8 0B       		.uleb128 0xb
 2444 00c9 00       		.byte	0
 2445 00ca 00       		.byte	0
 2446 00cb 12       		.uleb128 0x12
 2447 00cc 04       		.uleb128 0x4
 2448 00cd 01       		.byte	0x1
 2449 00ce 0B       		.uleb128 0xb
 2450 00cf 0B       		.uleb128 0xb
 2451 00d0 49       		.uleb128 0x49
 2452 00d1 13       		.uleb128 0x13
 2453 00d2 3A       		.uleb128 0x3a
 2454 00d3 0B       		.uleb128 0xb
 2455 00d4 3B       		.uleb128 0x3b
ARM GAS  C:\Users\cypress\AppData\Local\Temp\cczqZZvj.s 			page 69


 2456 00d5 05       		.uleb128 0x5
 2457 00d6 01       		.uleb128 0x1
 2458 00d7 13       		.uleb128 0x13
 2459 00d8 00       		.byte	0
 2460 00d9 00       		.byte	0
 2461 00da 13       		.uleb128 0x13
 2462 00db 28       		.uleb128 0x28
 2463 00dc 00       		.byte	0
 2464 00dd 03       		.uleb128 0x3
 2465 00de 0E       		.uleb128 0xe
 2466 00df 1C       		.uleb128 0x1c
 2467 00e0 06       		.uleb128 0x6
 2468 00e1 00       		.byte	0
 2469 00e2 00       		.byte	0
 2470 00e3 14       		.uleb128 0x14
 2471 00e4 13       		.uleb128 0x13
 2472 00e5 01       		.byte	0x1
 2473 00e6 0B       		.uleb128 0xb
 2474 00e7 0B       		.uleb128 0xb
 2475 00e8 3A       		.uleb128 0x3a
 2476 00e9 0B       		.uleb128 0xb
 2477 00ea 3B       		.uleb128 0x3b
 2478 00eb 05       		.uleb128 0x5
 2479 00ec 01       		.uleb128 0x1
 2480 00ed 13       		.uleb128 0x13
 2481 00ee 00       		.byte	0
 2482 00ef 00       		.byte	0
 2483 00f0 15       		.uleb128 0x15
 2484 00f1 0D       		.uleb128 0xd
 2485 00f2 00       		.byte	0
 2486 00f3 03       		.uleb128 0x3
 2487 00f4 08       		.uleb128 0x8
 2488 00f5 3A       		.uleb128 0x3a
 2489 00f6 0B       		.uleb128 0xb
 2490 00f7 3B       		.uleb128 0x3b
 2491 00f8 05       		.uleb128 0x5
 2492 00f9 49       		.uleb128 0x49
 2493 00fa 13       		.uleb128 0x13
 2494 00fb 38       		.uleb128 0x38
 2495 00fc 0B       		.uleb128 0xb
 2496 00fd 00       		.byte	0
 2497 00fe 00       		.byte	0
 2498 00ff 16       		.uleb128 0x16
 2499 0100 0D       		.uleb128 0xd
 2500 0101 00       		.byte	0
 2501 0102 03       		.uleb128 0x3
 2502 0103 0E       		.uleb128 0xe
 2503 0104 3A       		.uleb128 0x3a
 2504 0105 0B       		.uleb128 0xb
 2505 0106 3B       		.uleb128 0x3b
 2506 0107 05       		.uleb128 0x5
 2507 0108 49       		.uleb128 0x49
 2508 0109 13       		.uleb128 0x13
 2509 010a 38       		.uleb128 0x38
 2510 010b 0B       		.uleb128 0xb
 2511 010c 00       		.byte	0
 2512 010d 00       		.byte	0
ARM GAS  C:\Users\cypress\AppData\Local\Temp\cczqZZvj.s 			page 70


 2513 010e 17       		.uleb128 0x17
 2514 010f 0F       		.uleb128 0xf
 2515 0110 00       		.byte	0
 2516 0111 0B       		.uleb128 0xb
 2517 0112 0B       		.uleb128 0xb
 2518 0113 00       		.byte	0
 2519 0114 00       		.byte	0
 2520 0115 18       		.uleb128 0x18
 2521 0116 0F       		.uleb128 0xf
 2522 0117 00       		.byte	0
 2523 0118 0B       		.uleb128 0xb
 2524 0119 0B       		.uleb128 0xb
 2525 011a 49       		.uleb128 0x49
 2526 011b 13       		.uleb128 0x13
 2527 011c 00       		.byte	0
 2528 011d 00       		.byte	0
 2529 011e 19       		.uleb128 0x19
 2530 011f 2E       		.uleb128 0x2e
 2531 0120 01       		.byte	0x1
 2532 0121 03       		.uleb128 0x3
 2533 0122 0E       		.uleb128 0xe
 2534 0123 3A       		.uleb128 0x3a
 2535 0124 0B       		.uleb128 0xb
 2536 0125 3B       		.uleb128 0x3b
 2537 0126 05       		.uleb128 0x5
 2538 0127 27       		.uleb128 0x27
 2539 0128 19       		.uleb128 0x19
 2540 0129 49       		.uleb128 0x49
 2541 012a 13       		.uleb128 0x13
 2542 012b 20       		.uleb128 0x20
 2543 012c 0B       		.uleb128 0xb
 2544 012d 01       		.uleb128 0x1
 2545 012e 13       		.uleb128 0x13
 2546 012f 00       		.byte	0
 2547 0130 00       		.byte	0
 2548 0131 1A       		.uleb128 0x1a
 2549 0132 05       		.uleb128 0x5
 2550 0133 00       		.byte	0
 2551 0134 03       		.uleb128 0x3
 2552 0135 0E       		.uleb128 0xe
 2553 0136 3A       		.uleb128 0x3a
 2554 0137 0B       		.uleb128 0xb
 2555 0138 3B       		.uleb128 0x3b
 2556 0139 05       		.uleb128 0x5
 2557 013a 49       		.uleb128 0x49
 2558 013b 13       		.uleb128 0x13
 2559 013c 00       		.byte	0
 2560 013d 00       		.byte	0
 2561 013e 1B       		.uleb128 0x1b
 2562 013f 2E       		.uleb128 0x2e
 2563 0140 01       		.byte	0x1
 2564 0141 3F       		.uleb128 0x3f
 2565 0142 19       		.uleb128 0x19
 2566 0143 03       		.uleb128 0x3
 2567 0144 0E       		.uleb128 0xe
 2568 0145 3A       		.uleb128 0x3a
 2569 0146 0B       		.uleb128 0xb
ARM GAS  C:\Users\cypress\AppData\Local\Temp\cczqZZvj.s 			page 71


 2570 0147 3B       		.uleb128 0x3b
 2571 0148 0B       		.uleb128 0xb
 2572 0149 27       		.uleb128 0x27
 2573 014a 19       		.uleb128 0x19
 2574 014b 49       		.uleb128 0x49
 2575 014c 13       		.uleb128 0x13
 2576 014d 11       		.uleb128 0x11
 2577 014e 01       		.uleb128 0x1
 2578 014f 12       		.uleb128 0x12
 2579 0150 06       		.uleb128 0x6
 2580 0151 40       		.uleb128 0x40
 2581 0152 18       		.uleb128 0x18
 2582 0153 9742     		.uleb128 0x2117
 2583 0155 19       		.uleb128 0x19
 2584 0156 01       		.uleb128 0x1
 2585 0157 13       		.uleb128 0x13
 2586 0158 00       		.byte	0
 2587 0159 00       		.byte	0
 2588 015a 1C       		.uleb128 0x1c
 2589 015b 05       		.uleb128 0x5
 2590 015c 00       		.byte	0
 2591 015d 03       		.uleb128 0x3
 2592 015e 0E       		.uleb128 0xe
 2593 015f 3A       		.uleb128 0x3a
 2594 0160 0B       		.uleb128 0xb
 2595 0161 3B       		.uleb128 0x3b
 2596 0162 0B       		.uleb128 0xb
 2597 0163 49       		.uleb128 0x49
 2598 0164 13       		.uleb128 0x13
 2599 0165 02       		.uleb128 0x2
 2600 0166 17       		.uleb128 0x17
 2601 0167 00       		.byte	0
 2602 0168 00       		.byte	0
 2603 0169 1D       		.uleb128 0x1d
 2604 016a 34       		.uleb128 0x34
 2605 016b 00       		.byte	0
 2606 016c 03       		.uleb128 0x3
 2607 016d 0E       		.uleb128 0xe
 2608 016e 3A       		.uleb128 0x3a
 2609 016f 0B       		.uleb128 0xb
 2610 0170 3B       		.uleb128 0x3b
 2611 0171 0B       		.uleb128 0xb
 2612 0172 49       		.uleb128 0x49
 2613 0173 13       		.uleb128 0x13
 2614 0174 02       		.uleb128 0x2
 2615 0175 17       		.uleb128 0x17
 2616 0176 00       		.byte	0
 2617 0177 00       		.byte	0
 2618 0178 1E       		.uleb128 0x1e
 2619 0179 898201   		.uleb128 0x4109
 2620 017c 01       		.byte	0x1
 2621 017d 11       		.uleb128 0x11
 2622 017e 01       		.uleb128 0x1
 2623 017f 31       		.uleb128 0x31
 2624 0180 13       		.uleb128 0x13
 2625 0181 01       		.uleb128 0x1
 2626 0182 13       		.uleb128 0x13
ARM GAS  C:\Users\cypress\AppData\Local\Temp\cczqZZvj.s 			page 72


 2627 0183 00       		.byte	0
 2628 0184 00       		.byte	0
 2629 0185 1F       		.uleb128 0x1f
 2630 0186 8A8201   		.uleb128 0x410a
 2631 0189 00       		.byte	0
 2632 018a 02       		.uleb128 0x2
 2633 018b 18       		.uleb128 0x18
 2634 018c 9142     		.uleb128 0x2111
 2635 018e 18       		.uleb128 0x18
 2636 018f 00       		.byte	0
 2637 0190 00       		.byte	0
 2638 0191 20       		.uleb128 0x20
 2639 0192 898201   		.uleb128 0x4109
 2640 0195 01       		.byte	0x1
 2641 0196 11       		.uleb128 0x11
 2642 0197 01       		.uleb128 0x1
 2643 0198 31       		.uleb128 0x31
 2644 0199 13       		.uleb128 0x13
 2645 019a 00       		.byte	0
 2646 019b 00       		.byte	0
 2647 019c 21       		.uleb128 0x21
 2648 019d 2E       		.uleb128 0x2e
 2649 019e 01       		.byte	0x1
 2650 019f 3F       		.uleb128 0x3f
 2651 01a0 19       		.uleb128 0x19
 2652 01a1 03       		.uleb128 0x3
 2653 01a2 0E       		.uleb128 0xe
 2654 01a3 3A       		.uleb128 0x3a
 2655 01a4 0B       		.uleb128 0xb
 2656 01a5 3B       		.uleb128 0x3b
 2657 01a6 0B       		.uleb128 0xb
 2658 01a7 27       		.uleb128 0x27
 2659 01a8 19       		.uleb128 0x19
 2660 01a9 11       		.uleb128 0x11
 2661 01aa 01       		.uleb128 0x1
 2662 01ab 12       		.uleb128 0x12
 2663 01ac 06       		.uleb128 0x6
 2664 01ad 40       		.uleb128 0x40
 2665 01ae 18       		.uleb128 0x18
 2666 01af 9742     		.uleb128 0x2117
 2667 01b1 19       		.uleb128 0x19
 2668 01b2 01       		.uleb128 0x1
 2669 01b3 13       		.uleb128 0x13
 2670 01b4 00       		.byte	0
 2671 01b5 00       		.byte	0
 2672 01b6 22       		.uleb128 0x22
 2673 01b7 05       		.uleb128 0x5
 2674 01b8 00       		.byte	0
 2675 01b9 03       		.uleb128 0x3
 2676 01ba 0E       		.uleb128 0xe
 2677 01bb 3A       		.uleb128 0x3a
 2678 01bc 0B       		.uleb128 0xb
 2679 01bd 3B       		.uleb128 0x3b
 2680 01be 0B       		.uleb128 0xb
 2681 01bf 49       		.uleb128 0x49
 2682 01c0 13       		.uleb128 0x13
 2683 01c1 02       		.uleb128 0x2
ARM GAS  C:\Users\cypress\AppData\Local\Temp\cczqZZvj.s 			page 73


 2684 01c2 18       		.uleb128 0x18
 2685 01c3 00       		.byte	0
 2686 01c4 00       		.byte	0
 2687 01c5 23       		.uleb128 0x23
 2688 01c6 2E       		.uleb128 0x2e
 2689 01c7 01       		.byte	0x1
 2690 01c8 3F       		.uleb128 0x3f
 2691 01c9 19       		.uleb128 0x19
 2692 01ca 03       		.uleb128 0x3
 2693 01cb 0E       		.uleb128 0xe
 2694 01cc 3A       		.uleb128 0x3a
 2695 01cd 0B       		.uleb128 0xb
 2696 01ce 3B       		.uleb128 0x3b
 2697 01cf 05       		.uleb128 0x5
 2698 01d0 27       		.uleb128 0x27
 2699 01d1 19       		.uleb128 0x19
 2700 01d2 49       		.uleb128 0x49
 2701 01d3 13       		.uleb128 0x13
 2702 01d4 11       		.uleb128 0x11
 2703 01d5 01       		.uleb128 0x1
 2704 01d6 12       		.uleb128 0x12
 2705 01d7 06       		.uleb128 0x6
 2706 01d8 40       		.uleb128 0x40
 2707 01d9 18       		.uleb128 0x18
 2708 01da 9742     		.uleb128 0x2117
 2709 01dc 19       		.uleb128 0x19
 2710 01dd 01       		.uleb128 0x1
 2711 01de 13       		.uleb128 0x13
 2712 01df 00       		.byte	0
 2713 01e0 00       		.byte	0
 2714 01e1 24       		.uleb128 0x24
 2715 01e2 05       		.uleb128 0x5
 2716 01e3 00       		.byte	0
 2717 01e4 03       		.uleb128 0x3
 2718 01e5 0E       		.uleb128 0xe
 2719 01e6 3A       		.uleb128 0x3a
 2720 01e7 0B       		.uleb128 0xb
 2721 01e8 3B       		.uleb128 0x3b
 2722 01e9 05       		.uleb128 0x5
 2723 01ea 49       		.uleb128 0x49
 2724 01eb 13       		.uleb128 0x13
 2725 01ec 02       		.uleb128 0x2
 2726 01ed 17       		.uleb128 0x17
 2727 01ee 00       		.byte	0
 2728 01ef 00       		.byte	0
 2729 01f0 25       		.uleb128 0x25
 2730 01f1 34       		.uleb128 0x34
 2731 01f2 00       		.byte	0
 2732 01f3 03       		.uleb128 0x3
 2733 01f4 0E       		.uleb128 0xe
 2734 01f5 3A       		.uleb128 0x3a
 2735 01f6 0B       		.uleb128 0xb
 2736 01f7 3B       		.uleb128 0x3b
 2737 01f8 05       		.uleb128 0x5
 2738 01f9 49       		.uleb128 0x49
 2739 01fa 13       		.uleb128 0x13
 2740 01fb 02       		.uleb128 0x2
ARM GAS  C:\Users\cypress\AppData\Local\Temp\cczqZZvj.s 			page 74


 2741 01fc 17       		.uleb128 0x17
 2742 01fd 00       		.byte	0
 2743 01fe 00       		.byte	0
 2744 01ff 26       		.uleb128 0x26
 2745 0200 2E       		.uleb128 0x2e
 2746 0201 01       		.byte	0x1
 2747 0202 3F       		.uleb128 0x3f
 2748 0203 19       		.uleb128 0x19
 2749 0204 03       		.uleb128 0x3
 2750 0205 0E       		.uleb128 0xe
 2751 0206 3A       		.uleb128 0x3a
 2752 0207 0B       		.uleb128 0xb
 2753 0208 3B       		.uleb128 0x3b
 2754 0209 05       		.uleb128 0x5
 2755 020a 27       		.uleb128 0x27
 2756 020b 19       		.uleb128 0x19
 2757 020c 11       		.uleb128 0x11
 2758 020d 01       		.uleb128 0x1
 2759 020e 12       		.uleb128 0x12
 2760 020f 06       		.uleb128 0x6
 2761 0210 40       		.uleb128 0x40
 2762 0211 18       		.uleb128 0x18
 2763 0212 9742     		.uleb128 0x2117
 2764 0214 19       		.uleb128 0x19
 2765 0215 01       		.uleb128 0x1
 2766 0216 13       		.uleb128 0x13
 2767 0217 00       		.byte	0
 2768 0218 00       		.byte	0
 2769 0219 27       		.uleb128 0x27
 2770 021a 1D       		.uleb128 0x1d
 2771 021b 01       		.byte	0x1
 2772 021c 31       		.uleb128 0x31
 2773 021d 13       		.uleb128 0x13
 2774 021e 11       		.uleb128 0x11
 2775 021f 01       		.uleb128 0x1
 2776 0220 12       		.uleb128 0x12
 2777 0221 06       		.uleb128 0x6
 2778 0222 58       		.uleb128 0x58
 2779 0223 0B       		.uleb128 0xb
 2780 0224 59       		.uleb128 0x59
 2781 0225 05       		.uleb128 0x5
 2782 0226 01       		.uleb128 0x1
 2783 0227 13       		.uleb128 0x13
 2784 0228 00       		.byte	0
 2785 0229 00       		.byte	0
 2786 022a 28       		.uleb128 0x28
 2787 022b 05       		.uleb128 0x5
 2788 022c 00       		.byte	0
 2789 022d 31       		.uleb128 0x31
 2790 022e 13       		.uleb128 0x13
 2791 022f 02       		.uleb128 0x2
 2792 0230 17       		.uleb128 0x17
 2793 0231 00       		.byte	0
 2794 0232 00       		.byte	0
 2795 0233 29       		.uleb128 0x29
 2796 0234 0B       		.uleb128 0xb
 2797 0235 01       		.byte	0x1
ARM GAS  C:\Users\cypress\AppData\Local\Temp\cczqZZvj.s 			page 75


 2798 0236 11       		.uleb128 0x11
 2799 0237 01       		.uleb128 0x1
 2800 0238 12       		.uleb128 0x12
 2801 0239 06       		.uleb128 0x6
 2802 023a 01       		.uleb128 0x1
 2803 023b 13       		.uleb128 0x13
 2804 023c 00       		.byte	0
 2805 023d 00       		.byte	0
 2806 023e 2A       		.uleb128 0x2a
 2807 023f 34       		.uleb128 0x34
 2808 0240 00       		.byte	0
 2809 0241 03       		.uleb128 0x3
 2810 0242 0E       		.uleb128 0xe
 2811 0243 3A       		.uleb128 0x3a
 2812 0244 0B       		.uleb128 0xb
 2813 0245 3B       		.uleb128 0x3b
 2814 0246 05       		.uleb128 0x5
 2815 0247 49       		.uleb128 0x49
 2816 0248 13       		.uleb128 0x13
 2817 0249 3F       		.uleb128 0x3f
 2818 024a 19       		.uleb128 0x19
 2819 024b 3C       		.uleb128 0x3c
 2820 024c 19       		.uleb128 0x19
 2821 024d 00       		.byte	0
 2822 024e 00       		.byte	0
 2823 024f 2B       		.uleb128 0x2b
 2824 0250 2E       		.uleb128 0x2e
 2825 0251 00       		.byte	0
 2826 0252 3F       		.uleb128 0x3f
 2827 0253 19       		.uleb128 0x19
 2828 0254 3C       		.uleb128 0x3c
 2829 0255 19       		.uleb128 0x19
 2830 0256 6E       		.uleb128 0x6e
 2831 0257 0E       		.uleb128 0xe
 2832 0258 03       		.uleb128 0x3
 2833 0259 0E       		.uleb128 0xe
 2834 025a 3A       		.uleb128 0x3a
 2835 025b 0B       		.uleb128 0xb
 2836 025c 3B       		.uleb128 0x3b
 2837 025d 05       		.uleb128 0x5
 2838 025e 00       		.byte	0
 2839 025f 00       		.byte	0
 2840 0260 00       		.byte	0
 2841              		.section	.debug_loc,"",%progbits
 2842              	.Ldebug_loc0:
 2843              	.LLST0:
 2844 0000 00000000 		.4byte	.LVL0
 2845 0004 1C000000 		.4byte	.LVL2
 2846 0008 0100     		.2byte	0x1
 2847 000a 50       		.byte	0x50
 2848 000b 1C000000 		.4byte	.LVL2
 2849 000f 04020000 		.4byte	.LVL23
 2850 0013 0100     		.2byte	0x1
 2851 0015 55       		.byte	0x55
 2852 0016 04020000 		.4byte	.LVL23
 2853 001a 06020000 		.4byte	.LVL24
 2854 001e 0100     		.2byte	0x1
ARM GAS  C:\Users\cypress\AppData\Local\Temp\cczqZZvj.s 			page 76


 2855 0020 50       		.byte	0x50
 2856 0021 06020000 		.4byte	.LVL24
 2857 0025 08020000 		.4byte	.LVL25
 2858 0029 0400     		.2byte	0x4
 2859 002b F3       		.byte	0xf3
 2860 002c 01       		.uleb128 0x1
 2861 002d 50       		.byte	0x50
 2862 002e 9F       		.byte	0x9f
 2863 002f 08020000 		.4byte	.LVL25
 2864 0033 0A020000 		.4byte	.LVL26
 2865 0037 0100     		.2byte	0x1
 2866 0039 50       		.byte	0x50
 2867 003a 0A020000 		.4byte	.LVL26
 2868 003e 10020000 		.4byte	.LVL29
 2869 0042 0100     		.2byte	0x1
 2870 0044 55       		.byte	0x55
 2871 0045 10020000 		.4byte	.LVL29
 2872 0049 1C020000 		.4byte	.LFE176
 2873 004d 0400     		.2byte	0x4
 2874 004f F3       		.byte	0xf3
 2875 0050 01       		.uleb128 0x1
 2876 0051 50       		.byte	0x50
 2877 0052 9F       		.byte	0x9f
 2878 0053 00000000 		.4byte	0
 2879 0057 00000000 		.4byte	0
 2880              	.LLST1:
 2881 005b 00000000 		.4byte	.LVL0
 2882 005f 1A000000 		.4byte	.LVL1
 2883 0063 0100     		.2byte	0x1
 2884 0065 51       		.byte	0x51
 2885 0066 1A000000 		.4byte	.LVL1
 2886 006a 04020000 		.4byte	.LVL23
 2887 006e 0100     		.2byte	0x1
 2888 0070 54       		.byte	0x54
 2889 0071 04020000 		.4byte	.LVL23
 2890 0075 0C020000 		.4byte	.LVL27
 2891 0079 0100     		.2byte	0x1
 2892 007b 51       		.byte	0x51
 2893 007c 0C020000 		.4byte	.LVL27
 2894 0080 10020000 		.4byte	.LVL29
 2895 0084 0100     		.2byte	0x1
 2896 0086 54       		.byte	0x54
 2897 0087 10020000 		.4byte	.LVL29
 2898 008b 1C020000 		.4byte	.LFE176
 2899 008f 0400     		.2byte	0x4
 2900 0091 F3       		.byte	0xf3
 2901 0092 01       		.uleb128 0x1
 2902 0093 51       		.byte	0x51
 2903 0094 9F       		.byte	0x9f
 2904 0095 00000000 		.4byte	0
 2905 0099 00000000 		.4byte	0
 2906              	.LLST2:
 2907 009d 00000000 		.4byte	.LVL0
 2908 00a1 06020000 		.4byte	.LVL24
 2909 00a5 0600     		.2byte	0x6
 2910 00a7 0C       		.byte	0xc
 2911 00a8 01004E00 		.4byte	0x4e0001
ARM GAS  C:\Users\cypress\AppData\Local\Temp\cczqZZvj.s 			page 77


 2912 00ac 9F       		.byte	0x9f
 2913 00ad 06020000 		.4byte	.LVL24
 2914 00b1 08020000 		.4byte	.LVL25
 2915 00b5 0100     		.2byte	0x1
 2916 00b7 50       		.byte	0x50
 2917 00b8 08020000 		.4byte	.LVL25
 2918 00bc 0E020000 		.4byte	.LVL28
 2919 00c0 0600     		.2byte	0x6
 2920 00c2 0C       		.byte	0xc
 2921 00c3 01004E00 		.4byte	0x4e0001
 2922 00c7 9F       		.byte	0x9f
 2923 00c8 0E020000 		.4byte	.LVL28
 2924 00cc 1C020000 		.4byte	.LFE176
 2925 00d0 0100     		.2byte	0x1
 2926 00d2 50       		.byte	0x50
 2927 00d3 00000000 		.4byte	0
 2928 00d7 00000000 		.4byte	0
 2929              	.LLST3:
 2930 00db 00000000 		.4byte	.LVL31
 2931 00df 2E000000 		.4byte	.LVL33
 2932 00e3 0100     		.2byte	0x1
 2933 00e5 50       		.byte	0x50
 2934 00e6 2E000000 		.4byte	.LVL33
 2935 00ea 78000000 		.4byte	.LVL36
 2936 00ee 0100     		.2byte	0x1
 2937 00f0 54       		.byte	0x54
 2938 00f1 78000000 		.4byte	.LVL36
 2939 00f5 7A000000 		.4byte	.LVL37
 2940 00f9 0100     		.2byte	0x1
 2941 00fb 50       		.byte	0x50
 2942 00fc 7A000000 		.4byte	.LVL37
 2943 0100 7C000000 		.4byte	.LVL38
 2944 0104 0400     		.2byte	0x4
 2945 0106 F3       		.byte	0xf3
 2946 0107 01       		.uleb128 0x1
 2947 0108 50       		.byte	0x50
 2948 0109 9F       		.byte	0x9f
 2949 010a 7C000000 		.4byte	.LVL38
 2950 010e 7E000000 		.4byte	.LVL39
 2951 0112 0100     		.2byte	0x1
 2952 0114 50       		.byte	0x50
 2953 0115 7E000000 		.4byte	.LVL39
 2954 0119 80000000 		.4byte	.LVL40
 2955 011d 0400     		.2byte	0x4
 2956 011f F3       		.byte	0xf3
 2957 0120 01       		.uleb128 0x1
 2958 0121 50       		.byte	0x50
 2959 0122 9F       		.byte	0x9f
 2960 0123 80000000 		.4byte	.LVL40
 2961 0127 82000000 		.4byte	.LVL41
 2962 012b 0100     		.2byte	0x1
 2963 012d 50       		.byte	0x50
 2964 012e 82000000 		.4byte	.LVL41
 2965 0132 84000000 		.4byte	.LVL42
 2966 0136 0400     		.2byte	0x4
 2967 0138 F3       		.byte	0xf3
 2968 0139 01       		.uleb128 0x1
ARM GAS  C:\Users\cypress\AppData\Local\Temp\cczqZZvj.s 			page 78


 2969 013a 50       		.byte	0x50
 2970 013b 9F       		.byte	0x9f
 2971 013c 84000000 		.4byte	.LVL42
 2972 0140 86000000 		.4byte	.LVL43
 2973 0144 0100     		.2byte	0x1
 2974 0146 50       		.byte	0x50
 2975 0147 86000000 		.4byte	.LVL43
 2976 014b 94000000 		.4byte	.LFE178
 2977 014f 0400     		.2byte	0x4
 2978 0151 F3       		.byte	0xf3
 2979 0152 01       		.uleb128 0x1
 2980 0153 50       		.byte	0x50
 2981 0154 9F       		.byte	0x9f
 2982 0155 00000000 		.4byte	0
 2983 0159 00000000 		.4byte	0
 2984              	.LLST4:
 2985 015d 00000000 		.4byte	.LVL31
 2986 0161 2C000000 		.4byte	.LVL32
 2987 0165 0100     		.2byte	0x1
 2988 0167 51       		.byte	0x51
 2989 0168 2C000000 		.4byte	.LVL32
 2990 016c 78000000 		.4byte	.LVL36
 2991 0170 0100     		.2byte	0x1
 2992 0172 55       		.byte	0x55
 2993 0173 78000000 		.4byte	.LVL36
 2994 0177 94000000 		.4byte	.LFE178
 2995 017b 0100     		.2byte	0x1
 2996 017d 51       		.byte	0x51
 2997 017e 00000000 		.4byte	0
 2998 0182 00000000 		.4byte	0
 2999              	.LLST5:
 3000 0186 00000000 		.4byte	.LVL31
 3001 018a 31000000 		.4byte	.LVL34-1
 3002 018e 0100     		.2byte	0x1
 3003 0190 52       		.byte	0x52
 3004 0191 31000000 		.4byte	.LVL34-1
 3005 0195 78000000 		.4byte	.LVL36
 3006 0199 0100     		.2byte	0x1
 3007 019b 56       		.byte	0x56
 3008 019c 78000000 		.4byte	.LVL36
 3009 01a0 94000000 		.4byte	.LFE178
 3010 01a4 0100     		.2byte	0x1
 3011 01a6 52       		.byte	0x52
 3012 01a7 00000000 		.4byte	0
 3013 01ab 00000000 		.4byte	0
 3014              	.LLST6:
 3015 01af 00000000 		.4byte	.LVL31
 3016 01b3 74000000 		.4byte	.LVL35
 3017 01b7 0600     		.2byte	0x6
 3018 01b9 0C       		.byte	0xc
 3019 01ba 01004E00 		.4byte	0x4e0001
 3020 01be 9F       		.byte	0x9f
 3021 01bf 74000000 		.4byte	.LVL35
 3022 01c3 78000000 		.4byte	.LVL36
 3023 01c7 0200     		.2byte	0x2
 3024 01c9 30       		.byte	0x30
 3025 01ca 9F       		.byte	0x9f
ARM GAS  C:\Users\cypress\AppData\Local\Temp\cczqZZvj.s 			page 79


 3026 01cb 78000000 		.4byte	.LVL36
 3027 01cf 7E000000 		.4byte	.LVL39
 3028 01d3 0600     		.2byte	0x6
 3029 01d5 0C       		.byte	0xc
 3030 01d6 01004E00 		.4byte	0x4e0001
 3031 01da 9F       		.byte	0x9f
 3032 01db 7E000000 		.4byte	.LVL39
 3033 01df 80000000 		.4byte	.LVL40
 3034 01e3 0100     		.2byte	0x1
 3035 01e5 50       		.byte	0x50
 3036 01e6 80000000 		.4byte	.LVL40
 3037 01ea 94000000 		.4byte	.LFE178
 3038 01ee 0600     		.2byte	0x6
 3039 01f0 0C       		.byte	0xc
 3040 01f1 01004E00 		.4byte	0x4e0001
 3041 01f5 9F       		.byte	0x9f
 3042 01f6 00000000 		.4byte	0
 3043 01fa 00000000 		.4byte	0
 3044              	.LLST7:
 3045 01fe 00000000 		.4byte	.LVL44
 3046 0202 1C000000 		.4byte	.LVL46
 3047 0206 0100     		.2byte	0x1
 3048 0208 50       		.byte	0x50
 3049 0209 1C000000 		.4byte	.LVL46
 3050 020d 2E000000 		.4byte	.LVL48
 3051 0211 0100     		.2byte	0x1
 3052 0213 54       		.byte	0x54
 3053 0214 2E000000 		.4byte	.LVL48
 3054 0218 44000000 		.4byte	.LFE179
 3055 021c 0400     		.2byte	0x4
 3056 021e F3       		.byte	0xf3
 3057 021f 01       		.uleb128 0x1
 3058 0220 50       		.byte	0x50
 3059 0221 9F       		.byte	0x9f
 3060 0222 00000000 		.4byte	0
 3061 0226 00000000 		.4byte	0
 3062              	.LLST8:
 3063 022a 00000000 		.4byte	.LVL44
 3064 022e 1A000000 		.4byte	.LVL45
 3065 0232 0100     		.2byte	0x1
 3066 0234 51       		.byte	0x51
 3067 0235 1A000000 		.4byte	.LVL45
 3068 0239 3C000000 		.4byte	.LVL49
 3069 023d 0100     		.2byte	0x1
 3070 023f 55       		.byte	0x55
 3071 0240 3C000000 		.4byte	.LVL49
 3072 0244 44000000 		.4byte	.LFE179
 3073 0248 0400     		.2byte	0x4
 3074 024a F3       		.byte	0xf3
 3075 024b 01       		.uleb128 0x1
 3076 024c 51       		.byte	0x51
 3077 024d 9F       		.byte	0x9f
 3078 024e 00000000 		.4byte	0
 3079 0252 00000000 		.4byte	0
 3080              	.LLST9:
 3081 0256 00000000 		.4byte	.LVL50
 3082 025a 0C000000 		.4byte	.LVL52
ARM GAS  C:\Users\cypress\AppData\Local\Temp\cczqZZvj.s 			page 80


 3083 025e 0100     		.2byte	0x1
 3084 0260 50       		.byte	0x50
 3085 0261 0C000000 		.4byte	.LVL52
 3086 0265 2C000000 		.4byte	.LVL57
 3087 0269 0100     		.2byte	0x1
 3088 026b 54       		.byte	0x54
 3089 026c 2C000000 		.4byte	.LVL57
 3090 0270 30000000 		.4byte	.LFE180
 3091 0274 0400     		.2byte	0x4
 3092 0276 F3       		.byte	0xf3
 3093 0277 01       		.uleb128 0x1
 3094 0278 50       		.byte	0x50
 3095 0279 9F       		.byte	0x9f
 3096 027a 00000000 		.4byte	0
 3097 027e 00000000 		.4byte	0
 3098              	.LLST10:
 3099 0282 00000000 		.4byte	.LVL50
 3100 0286 0A000000 		.4byte	.LVL51
 3101 028a 0100     		.2byte	0x1
 3102 028c 51       		.byte	0x51
 3103 028d 0A000000 		.4byte	.LVL51
 3104 0291 2C000000 		.4byte	.LVL57
 3105 0295 0100     		.2byte	0x1
 3106 0297 55       		.byte	0x55
 3107 0298 2C000000 		.4byte	.LVL57
 3108 029c 30000000 		.4byte	.LFE180
 3109 02a0 0500     		.2byte	0x5
 3110 02a2 F3       		.byte	0xf3
 3111 02a3 01       		.uleb128 0x1
 3112 02a4 50       		.byte	0x50
 3113 02a5 23       		.byte	0x23
 3114 02a6 14       		.uleb128 0x14
 3115 02a7 00000000 		.4byte	0
 3116 02ab 00000000 		.4byte	0
 3117              	.LLST11:
 3118 02af 00000000 		.4byte	.LVL58
 3119 02b3 0C000000 		.4byte	.LVL60
 3120 02b7 0100     		.2byte	0x1
 3121 02b9 50       		.byte	0x50
 3122 02ba 0C000000 		.4byte	.LVL60
 3123 02be 30000000 		.4byte	.LVL69
 3124 02c2 0100     		.2byte	0x1
 3125 02c4 54       		.byte	0x54
 3126 02c5 30000000 		.4byte	.LVL69
 3127 02c9 34000000 		.4byte	.LFE181
 3128 02cd 0400     		.2byte	0x4
 3129 02cf F3       		.byte	0xf3
 3130 02d0 01       		.uleb128 0x1
 3131 02d1 50       		.byte	0x50
 3132 02d2 9F       		.byte	0x9f
 3133 02d3 00000000 		.4byte	0
 3134 02d7 00000000 		.4byte	0
 3135              	.LLST12:
 3136 02db 02000000 		.4byte	.LVL59
 3137 02df 22000000 		.4byte	.LVL62
 3138 02e3 0200     		.2byte	0x2
 3139 02e5 30       		.byte	0x30
ARM GAS  C:\Users\cypress\AppData\Local\Temp\cczqZZvj.s 			page 81


 3140 02e6 9F       		.byte	0x9f
 3141 02e7 22000000 		.4byte	.LVL62
 3142 02eb 24000000 		.4byte	.LVL63
 3143 02ef 0100     		.2byte	0x1
 3144 02f1 50       		.byte	0x50
 3145 02f2 24000000 		.4byte	.LVL63
 3146 02f6 26000000 		.4byte	.LVL64
 3147 02fa 0200     		.2byte	0x2
 3148 02fc 30       		.byte	0x30
 3149 02fd 9F       		.byte	0x9f
 3150 02fe 26000000 		.4byte	.LVL64
 3151 0302 28000000 		.4byte	.LVL65
 3152 0306 0100     		.2byte	0x1
 3153 0308 50       		.byte	0x50
 3154 0309 28000000 		.4byte	.LVL65
 3155 030d 2A000000 		.4byte	.LVL66
 3156 0311 0200     		.2byte	0x2
 3157 0313 30       		.byte	0x30
 3158 0314 9F       		.byte	0x9f
 3159 0315 2A000000 		.4byte	.LVL66
 3160 0319 2C000000 		.4byte	.LVL67
 3161 031d 0100     		.2byte	0x1
 3162 031f 50       		.byte	0x50
 3163 0320 2C000000 		.4byte	.LVL67
 3164 0324 2E000000 		.4byte	.LVL68
 3165 0328 0200     		.2byte	0x2
 3166 032a 30       		.byte	0x30
 3167 032b 9F       		.byte	0x9f
 3168 032c 2E000000 		.4byte	.LVL68
 3169 0330 34000000 		.4byte	.LFE181
 3170 0334 0100     		.2byte	0x1
 3171 0336 50       		.byte	0x50
 3172 0337 00000000 		.4byte	0
 3173 033b 00000000 		.4byte	0
 3174              	.LLST13:
 3175 033f 00000000 		.4byte	.LVL70
 3176 0343 0E000000 		.4byte	.LVL72
 3177 0347 0100     		.2byte	0x1
 3178 0349 50       		.byte	0x50
 3179 034a 0E000000 		.4byte	.LVL72
 3180 034e 50000000 		.4byte	.LVL80
 3181 0352 0100     		.2byte	0x1
 3182 0354 54       		.byte	0x54
 3183 0355 50000000 		.4byte	.LVL80
 3184 0359 58000000 		.4byte	.LFE182
 3185 035d 0400     		.2byte	0x4
 3186 035f F3       		.byte	0xf3
 3187 0360 01       		.uleb128 0x1
 3188 0361 50       		.byte	0x50
 3189 0362 9F       		.byte	0x9f
 3190 0363 00000000 		.4byte	0
 3191 0367 00000000 		.4byte	0
 3192              	.LLST14:
 3193 036b 00000000 		.4byte	.LVL70
 3194 036f 0C000000 		.4byte	.LVL71
 3195 0373 0100     		.2byte	0x1
 3196 0375 51       		.byte	0x51
ARM GAS  C:\Users\cypress\AppData\Local\Temp\cczqZZvj.s 			page 82


 3197 0376 0C000000 		.4byte	.LVL71
 3198 037a 58000000 		.4byte	.LFE182
 3199 037e 0400     		.2byte	0x4
 3200 0380 F3       		.byte	0xf3
 3201 0381 01       		.uleb128 0x1
 3202 0382 51       		.byte	0x51
 3203 0383 9F       		.byte	0x9f
 3204 0384 00000000 		.4byte	0
 3205 0388 00000000 		.4byte	0
 3206              	.LLST15:
 3207 038c 20000000 		.4byte	.LVL74
 3208 0390 2E000000 		.4byte	.LVL76
 3209 0394 0100     		.2byte	0x1
 3210 0396 54       		.byte	0x54
 3211 0397 00000000 		.4byte	0
 3212 039b 00000000 		.4byte	0
 3213              	.LLST16:
 3214 039f 3A000000 		.4byte	.LVL77
 3215 03a3 4A000000 		.4byte	.LVL78
 3216 03a7 0100     		.2byte	0x1
 3217 03a9 50       		.byte	0x50
 3218 03aa 4A000000 		.4byte	.LVL78
 3219 03ae 4D000000 		.4byte	.LVL79-1
 3220 03b2 0100     		.2byte	0x1
 3221 03b4 51       		.byte	0x51
 3222 03b5 00000000 		.4byte	0
 3223 03b9 00000000 		.4byte	0
 3224              		.section	.debug_aranges,"",%progbits
 3225 0000 4C000000 		.4byte	0x4c
 3226 0004 0200     		.2byte	0x2
 3227 0006 00000000 		.4byte	.Ldebug_info0
 3228 000a 04       		.byte	0x4
 3229 000b 00       		.byte	0
 3230 000c 0000     		.2byte	0
 3231 000e 0000     		.2byte	0
 3232 0010 00000000 		.4byte	.LFB176
 3233 0014 1C020000 		.4byte	.LFE176-.LFB176
 3234 0018 00000000 		.4byte	.LFB177
 3235 001c 10000000 		.4byte	.LFE177-.LFB177
 3236 0020 00000000 		.4byte	.LFB178
 3237 0024 94000000 		.4byte	.LFE178-.LFB178
 3238 0028 00000000 		.4byte	.LFB179
 3239 002c 44000000 		.4byte	.LFE179-.LFB179
 3240 0030 00000000 		.4byte	.LFB180
 3241 0034 30000000 		.4byte	.LFE180-.LFB180
 3242 0038 00000000 		.4byte	.LFB181
 3243 003c 34000000 		.4byte	.LFE181-.LFB181
 3244 0040 00000000 		.4byte	.LFB182
 3245 0044 58000000 		.4byte	.LFE182-.LFB182
 3246 0048 00000000 		.4byte	0
 3247 004c 00000000 		.4byte	0
 3248              		.section	.debug_ranges,"",%progbits
 3249              	.Ldebug_ranges0:
 3250 0000 00000000 		.4byte	.LFB176
 3251 0004 1C020000 		.4byte	.LFE176
 3252 0008 00000000 		.4byte	.LFB177
 3253 000c 10000000 		.4byte	.LFE177
ARM GAS  C:\Users\cypress\AppData\Local\Temp\cczqZZvj.s 			page 83


 3254 0010 00000000 		.4byte	.LFB178
 3255 0014 94000000 		.4byte	.LFE178
 3256 0018 00000000 		.4byte	.LFB179
 3257 001c 44000000 		.4byte	.LFE179
 3258 0020 00000000 		.4byte	.LFB180
 3259 0024 30000000 		.4byte	.LFE180
 3260 0028 00000000 		.4byte	.LFB181
 3261 002c 34000000 		.4byte	.LFE181
 3262 0030 00000000 		.4byte	.LFB182
 3263 0034 58000000 		.4byte	.LFE182
 3264 0038 00000000 		.4byte	0
 3265 003c 00000000 		.4byte	0
 3266              		.section	.debug_line,"",%progbits
 3267              	.Ldebug_line0:
 3268 0000 01040000 		.section	.debug_str,"MS",%progbits,1
 3268      02000E02 
 3268      00000201 
 3268      FB0E0D00 
 3268      01010101 
 3269              	.LASF110:
 3270 0000 72657456 		.ascii	"retVal\000"
 3270      616C00
 3271              	.LASF105:
 3272 0007 43795F44 		.ascii	"Cy_DMA_Descriptor_Init\000"
 3272      4D415F44 
 3272      65736372 
 3272      6970746F 
 3272      725F496E 
 3273              	.LASF68:
 3274 001e 43595F44 		.ascii	"CY_DMA_CHANNEL_ENABLED\000"
 3274      4D415F43 
 3274      48414E4E 
 3274      454C5F45 
 3274      4E41424C 
 3275              	.LASF55:
 3276 0035 63795F65 		.ascii	"cy_en_dma_trigger_type_t\000"
 3276      6E5F646D 
 3276      615F7472 
 3276      69676765 
 3276      725F7479 
 3277              	.LASF103:
 3278 004e 63795F73 		.ascii	"cy_stc_dma_channel_config_t\000"
 3278      74635F64 
 3278      6D615F63 
 3278      68616E6E 
 3278      656C5F63 
 3279              	.LASF9:
 3280 006a 6C6F6E67 		.ascii	"long long unsigned int\000"
 3280      206C6F6E 
 3280      6720756E 
 3280      7369676E 
 3280      65642069 
 3281              	.LASF80:
 3282 0081 74726967 		.ascii	"triggerOutType\000"
 3282      6765724F 
 3282      75745479 
 3282      706500
ARM GAS  C:\Users\cypress\AppData\Local\Temp\cczqZZvj.s 			page 84


 3283              	.LASF57:
 3284 0090 43595F44 		.ascii	"CY_DMA_HALFWORD\000"
 3284      4D415F48 
 3284      414C4657 
 3284      4F524400 
 3285              	.LASF121:
 3286 00a0 49544D5F 		.ascii	"ITM_RxBuffer\000"
 3286      52784275 
 3286      66666572 
 3286      00
 3287              	.LASF39:
 3288 00ad 4143545F 		.ascii	"ACT_DST\000"
 3288      44535400 
 3289              	.LASF32:
 3290 00b5 4143545F 		.ascii	"ACT_DESCR_DST\000"
 3290      44455343 
 3290      525F4453 
 3290      5400
 3291              	.LASF8:
 3292 00c3 6C6F6E67 		.ascii	"long long int\000"
 3292      206C6F6E 
 3292      6720696E 
 3292      7400
 3293              	.LASF0:
 3294 00d1 7369676E 		.ascii	"signed char\000"
 3294      65642063 
 3294      68617200 
 3295              	.LASF90:
 3296 00dd 64737458 		.ascii	"dstXincrement\000"
 3296      696E6372 
 3296      656D656E 
 3296      7400
 3297              	.LASF79:
 3298 00eb 696E7465 		.ascii	"interruptType\000"
 3298      72727570 
 3298      74547970 
 3298      6500
 3299              	.LASF113:
 3300 00f9 43795F44 		.ascii	"Cy_DMA_Descriptor_SetNextDescriptor\000"
 3300      4D415F44 
 3300      65736372 
 3300      6970746F 
 3300      725F5365 
 3301              	.LASF4:
 3302 011d 6C6F6E67 		.ascii	"long int\000"
 3302      20696E74 
 3302      00
 3303              	.LASF10:
 3304 0126 756E7369 		.ascii	"unsigned int\000"
 3304      676E6564 
 3304      20696E74 
 3304      00
 3305              	.LASF76:
 3306 0133 6E657874 		.ascii	"nextPtr\000"
 3306      50747200 
 3307              	.LASF84:
 3308 013b 73726354 		.ascii	"srcTransferSize\000"
ARM GAS  C:\Users\cypress\AppData\Local\Temp\cczqZZvj.s 			page 85


 3308      72616E73 
 3308      66657253 
 3308      697A6500 
 3309              	.LASF100:
 3310 014b 656E6162 		.ascii	"enable\000"
 3310      6C6500
 3311              	.LASF30:
 3312 0152 4143545F 		.ascii	"ACT_DESCR_CTL\000"
 3312      44455343 
 3312      525F4354 
 3312      4C00
 3313              	.LASF46:
 3314 0160 646F7562 		.ascii	"double\000"
 3314      6C6500
 3315              	.LASF38:
 3316 0167 4143545F 		.ascii	"ACT_SRC\000"
 3316      53524300 
 3317              	.LASF61:
 3318 016f 43595F44 		.ascii	"CY_DMA_RETRIG_4CYC\000"
 3318      4D415F52 
 3318      45545249 
 3318      475F3443 
 3318      594300
 3319              	.LASF49:
 3320 0182 43595F44 		.ascii	"CY_DMA_2D_TRANSFER\000"
 3320      4D415F32 
 3320      445F5452 
 3320      414E5346 
 3320      455200
 3321              	.LASF6:
 3322 0195 5F5F7569 		.ascii	"__uint32_t\000"
 3322      6E743332 
 3322      5F7400
 3323              	.LASF69:
 3324 01a0 43595F44 		.ascii	"CY_DMA_CHANNEL_DISABLED\000"
 3324      4D415F43 
 3324      48414E4E 
 3324      454C5F44 
 3324      49534142 
 3325              	.LASF51:
 3326 01b8 43595F44 		.ascii	"CY_DMA_1ELEMENT\000"
 3326      4D415F31 
 3326      454C454D 
 3326      454E5400 
 3327              	.LASF35:
 3328 01c8 4143545F 		.ascii	"ACT_DESCR_Y_CTL\000"
 3328      44455343 
 3328      525F595F 
 3328      43544C00 
 3329              	.LASF83:
 3330 01d8 64617461 		.ascii	"dataSize\000"
 3330      53697A65 
 3330      00
 3331              	.LASF42:
 3332 01e1 44575F54 		.ascii	"DW_Type\000"
 3332      79706500 
 3333              	.LASF17:
ARM GAS  C:\Users\cypress\AppData\Local\Temp\cczqZZvj.s 			page 86


 3334 01e9 43485F49 		.ascii	"CH_IDX\000"
 3334      445800
 3335              	.LASF16:
 3336 01f0 43485F53 		.ascii	"CH_STATUS\000"
 3336      54415455 
 3336      5300
 3337              	.LASF115:
 3338 01fa 43795F44 		.ascii	"Cy_DMA_Descriptor_SetDescriptorType\000"
 3338      4D415F44 
 3338      65736372 
 3338      6970746F 
 3338      725F5365 
 3339              	.LASF52:
 3340 021e 43595F44 		.ascii	"CY_DMA_X_LOOP\000"
 3340      4D415F58 
 3340      5F4C4F4F 
 3340      5000
 3341              	.LASF43:
 3342 022c 63686172 		.ascii	"char_t\000"
 3342      5F7400
 3343              	.LASF31:
 3344 0233 4143545F 		.ascii	"ACT_DESCR_SRC\000"
 3344      44455343 
 3344      525F5352 
 3344      4300
 3345              	.LASF7:
 3346 0241 6C6F6E67 		.ascii	"long unsigned int\000"
 3346      20756E73 
 3346      69676E65 
 3346      6420696E 
 3346      7400
 3347              	.LASF21:
 3348 0253 494E5452 		.ascii	"INTR_MASK\000"
 3348      5F4D4153 
 3348      4B00
 3349              	.LASF60:
 3350 025d 43595F44 		.ascii	"CY_DMA_RETRIG_IM\000"
 3350      4D415F52 
 3350      45545249 
 3350      475F494D 
 3350      00
 3351              	.LASF18:
 3352 026e 43485F43 		.ascii	"CH_CURR_PTR\000"
 3352      5552525F 
 3352      50545200 
 3353              	.LASF67:
 3354 027a 63795F65 		.ascii	"cy_en_dma_transfer_size_t\000"
 3354      6E5F646D 
 3354      615F7472 
 3354      616E7366 
 3354      65725F73 
 3355              	.LASF88:
 3356 0294 64737441 		.ascii	"dstAddress\000"
 3356      64647265 
 3356      737300
 3357              	.LASF3:
 3358 029f 73686F72 		.ascii	"short unsigned int\000"
ARM GAS  C:\Users\cypress\AppData\Local\Temp\cczqZZvj.s 			page 87


 3358      7420756E 
 3358      7369676E 
 3358      65642069 
 3358      6E7400
 3359              	.LASF65:
 3360 02b2 43595F44 		.ascii	"CY_DMA_TRANSFER_SIZE_DATA\000"
 3360      4D415F54 
 3360      52414E53 
 3360      4645525F 
 3360      53495A45 
 3361              	.LASF47:
 3362 02cc 43595F44 		.ascii	"CY_DMA_SINGLE_TRANSFER\000"
 3362      4D415F53 
 3362      494E474C 
 3362      455F5452 
 3362      414E5346 
 3363              	.LASF99:
 3364 02e3 7072696F 		.ascii	"priority\000"
 3364      72697479 
 3364      00
 3365              	.LASF82:
 3366 02ec 74726967 		.ascii	"triggerInType\000"
 3366      67657249 
 3366      6E547970 
 3366      6500
 3367              	.LASF106:
 3368 02fa 43795F44 		.ascii	"Cy_DMA_Channel_Init\000"
 3368      4D415F43 
 3368      68616E6E 
 3368      656C5F49 
 3368      6E697400 
 3369              	.LASF78:
 3370 030e 72657472 		.ascii	"retrigger\000"
 3370      69676765 
 3370      7200
 3371              	.LASF116:
 3372 0318 6C6F634E 		.ascii	"locNextDescriptor\000"
 3372      65787444 
 3372      65736372 
 3372      6970746F 
 3372      7200
 3373              	.LASF112:
 3374 032a 43795F44 		.ascii	"Cy_DMA_Channel_DeInit\000"
 3374      4D415F43 
 3374      68616E6E 
 3374      656C5F44 
 3374      65496E69 
 3375              	.LASF53:
 3376 0340 43595F44 		.ascii	"CY_DMA_DESCR\000"
 3376      4D415F44 
 3376      45534352 
 3376      00
 3377              	.LASF20:
 3378 034d 494E5452 		.ascii	"INTR_SET\000"
 3378      5F534554 
 3378      00
 3379              	.LASF107:
ARM GAS  C:\Users\cypress\AppData\Local\Temp\cczqZZvj.s 			page 88


 3380 0356 62617365 		.ascii	"base\000"
 3380      00
 3381              	.LASF85:
 3382 035b 64737454 		.ascii	"dstTransferSize\000"
 3382      72616E73 
 3382      66657253 
 3382      697A6500 
 3383              	.LASF109:
 3384 036b 6368616E 		.ascii	"channelConfig\000"
 3384      6E656C43 
 3384      6F6E6669 
 3384      6700
 3385              	.LASF14:
 3386 0379 73697A65 		.ascii	"sizetype\000"
 3386      74797065 
 3386      00
 3387              	.LASF36:
 3388 0382 4143545F 		.ascii	"ACT_DESCR_NEXT_PTR\000"
 3388      44455343 
 3388      525F4E45 
 3388      58545F50 
 3388      545200
 3389              	.LASF119:
 3390 0395 443A5C73 		.ascii	"D:\\student\\FeS-31\\Stepaniuk\\lab9\\lab9\\lab9.cy"
 3390      74756465 
 3390      6E745C46 
 3390      65532D33 
 3390      315C5374 
 3391 03c2 64736E00 		.ascii	"dsn\000"
 3392              	.LASF66:
 3393 03c6 43595F44 		.ascii	"CY_DMA_TRANSFER_SIZE_WORD\000"
 3393      4D415F54 
 3393      52414E53 
 3393      4645525F 
 3393      53495A45 
 3394              	.LASF48:
 3395 03e0 43595F44 		.ascii	"CY_DMA_1D_TRANSFER\000"
 3395      4D415F31 
 3395      445F5452 
 3395      414E5346 
 3395      455200
 3396              	.LASF59:
 3397 03f3 63795F65 		.ascii	"cy_en_dma_data_size_t\000"
 3397      6E5F646D 
 3397      615F6461 
 3397      74615F73 
 3397      697A655F 
 3398              	.LASF87:
 3399 0409 73726341 		.ascii	"srcAddress\000"
 3399      64647265 
 3399      737300
 3400              	.LASF19:
 3401 0414 494E5452 		.ascii	"INTR\000"
 3401      00
 3402              	.LASF56:
 3403 0419 43595F44 		.ascii	"CY_DMA_BYTE\000"
 3403      4D415F42 
ARM GAS  C:\Users\cypress\AppData\Local\Temp\cczqZZvj.s 			page 89


 3403      59544500 
 3404              	.LASF73:
 3405 0425 63795F65 		.ascii	"cy_en_dma_status_t\000"
 3405      6E5F646D 
 3405      615F7374 
 3405      61747573 
 3405      5F7400
 3406              	.LASF74:
 3407 0438 7843746C 		.ascii	"xCtl\000"
 3407      00
 3408              	.LASF50:
 3409 043d 63795F65 		.ascii	"cy_en_dma_descriptor_type_t\000"
 3409      6E5F646D 
 3409      615F6465 
 3409      73637269 
 3409      70746F72 
 3410              	.LASF117:
 3411 0459 474E5520 		.ascii	"GNU C11 5.4.1 20160609 (release) [ARM/embedded-5-br"
 3411      43313120 
 3411      352E342E 
 3411      31203230 
 3411      31363036 
 3412 048c 616E6368 		.ascii	"anch revision 237715] -mcpu=cortex-m4 -mfloat-abi=s"
 3412      20726576 
 3412      6973696F 
 3412      6E203233 
 3412      37373135 
 3413 04bf 6F667466 		.ascii	"oftfp -mfpu=fpv4-sp-d16 -mthumb -g -Og -ffunction-s"
 3413      70202D6D 
 3413      6670753D 
 3413      66707634 
 3413      2D73702D 
 3414 04f2 65637469 		.ascii	"ections -ffat-lto-objects\000"
 3414      6F6E7320 
 3414      2D666661 
 3414      742D6C74 
 3414      6F2D6F62 
 3415              	.LASF64:
 3416 050c 63795F65 		.ascii	"cy_en_dma_retrigger_t\000"
 3416      6E5F646D 
 3416      615F7265 
 3416      74726967 
 3416      6765725F 
 3417              	.LASF22:
 3418 0522 494E5452 		.ascii	"INTR_MASKED\000"
 3418      5F4D4153 
 3418      4B454400 
 3419              	.LASF45:
 3420 052e 666C6F61 		.ascii	"float\000"
 3420      7400
 3421              	.LASF114:
 3422 0534 43795F44 		.ascii	"Cy_DMA_Descriptor_GetNextDescriptor\000"
 3422      4D415F44 
 3422      65736372 
 3422      6970746F 
 3422      725F4765 
 3423              	.LASF29:
ARM GAS  C:\Users\cypress\AppData\Local\Temp\cczqZZvj.s 			page 90


 3424 0558 52455345 		.ascii	"RESERVED1\000"
 3424      52564544 
 3424      3100
 3425              	.LASF37:
 3426 0562 52455345 		.ascii	"RESERVED3\000"
 3426      52564544 
 3426      3300
 3427              	.LASF40:
 3428 056c 52455345 		.ascii	"RESERVED4\000"
 3428      52564544 
 3428      3400
 3429              	.LASF102:
 3430 0576 5F426F6F 		.ascii	"_Bool\000"
 3430      6C00
 3431              	.LASF11:
 3432 057c 696E7433 		.ascii	"int32_t\000"
 3432      325F7400 
 3433              	.LASF1:
 3434 0584 756E7369 		.ascii	"unsigned char\000"
 3434      676E6564 
 3434      20636861 
 3434      7200
 3435              	.LASF101:
 3436 0592 62756666 		.ascii	"bufferable\000"
 3436      65726162 
 3436      6C6500
 3437              	.LASF2:
 3438 059d 73686F72 		.ascii	"short int\000"
 3438      7420696E 
 3438      7400
 3439              	.LASF34:
 3440 05a7 4143545F 		.ascii	"ACT_DESCR_X_CTL\000"
 3440      44455343 
 3440      525F585F 
 3440      43544C00 
 3441              	.LASF26:
 3442 05b7 52455345 		.ascii	"RESERVED\000"
 3442      52564544 
 3442      00
 3443              	.LASF63:
 3444 05c0 43595F44 		.ascii	"CY_DMA_WAIT_FOR_REACT\000"
 3444      4D415F57 
 3444      4149545F 
 3444      464F525F 
 3444      52454143 
 3445              	.LASF118:
 3446 05d6 47656E65 		.ascii	"Generated_Source\\PSoC6\\pdl\\drivers\\peripheral\\"
 3446      72617465 
 3446      645F536F 
 3446      75726365 
 3446      5C50536F 
 3447 0604 646D615C 		.ascii	"dma\\cy_dma.c\000"
 3447      63795F64 
 3447      6D612E63 
 3447      00
 3448              	.LASF86:
 3449 0611 64657363 		.ascii	"descriptorType\000"
ARM GAS  C:\Users\cypress\AppData\Local\Temp\cczqZZvj.s 			page 91


 3449      72697074 
 3449      6F725479 
 3449      706500
 3450              	.LASF71:
 3451 0620 43595F44 		.ascii	"CY_DMA_SUCCESS\000"
 3451      4D415F53 
 3451      55434345 
 3451      535300
 3452              	.LASF54:
 3453 062f 43595F44 		.ascii	"CY_DMA_DESCR_CHAIN\000"
 3453      4D415F44 
 3453      45534352 
 3453      5F434841 
 3453      494E00
 3454              	.LASF95:
 3455 0642 6E657874 		.ascii	"nextDescriptor\000"
 3455      44657363 
 3455      72697074 
 3455      6F7200
 3456              	.LASF108:
 3457 0651 6368616E 		.ascii	"channel\000"
 3457      6E656C00 
 3458              	.LASF33:
 3459 0659 52455345 		.ascii	"RESERVED2\000"
 3459      52564544 
 3459      3200
 3460              	.LASF62:
 3461 0663 43595F44 		.ascii	"CY_DMA_RETRIG_16CYC\000"
 3461      4D415F52 
 3461      45545249 
 3461      475F3136 
 3461      43594300 
 3462              	.LASF12:
 3463 0677 75696E74 		.ascii	"uint32_t\000"
 3463      33325F74 
 3463      00
 3464              	.LASF97:
 3465 0680 64657363 		.ascii	"descriptor\000"
 3465      72697074 
 3465      6F7200
 3466              	.LASF13:
 3467 068b 6C6F6E67 		.ascii	"long double\000"
 3467      20646F75 
 3467      626C6500 
 3468              	.LASF44:
 3469 0697 63686172 		.ascii	"char\000"
 3469      00
 3470              	.LASF94:
 3471 069c 79436F75 		.ascii	"yCount\000"
 3471      6E7400
 3472              	.LASF104:
 3473 06a3 636F6E66 		.ascii	"config\000"
 3473      696700
 3474              	.LASF91:
 3475 06aa 78436F75 		.ascii	"xCount\000"
 3475      6E7400
 3476              	.LASF58:
ARM GAS  C:\Users\cypress\AppData\Local\Temp\cczqZZvj.s 			page 92


 3477 06b1 43595F44 		.ascii	"CY_DMA_WORD\000"
 3477      4D415F57 
 3477      4F524400 
 3478              	.LASF5:
 3479 06bd 5F5F696E 		.ascii	"__int32_t\000"
 3479      7433325F 
 3479      7400
 3480              	.LASF15:
 3481 06c7 43485F43 		.ascii	"CH_CTL\000"
 3481      544C00
 3482              	.LASF28:
 3483 06ce 53544154 		.ascii	"STATUS_INTR_MASKED\000"
 3483      55535F49 
 3483      4E54525F 
 3483      4D41534B 
 3483      454400
 3484              	.LASF75:
 3485 06e1 7943746C 		.ascii	"yCtl\000"
 3485      00
 3486              	.LASF122:
 3487 06e6 43795F53 		.ascii	"Cy_SysLib_AssertFailed\000"
 3487      79734C69 
 3487      625F4173 
 3487      73657274 
 3487      4661696C 
 3488              	.LASF93:
 3489 06fd 64737459 		.ascii	"dstYincrement\000"
 3489      696E6372 
 3489      656D656E 
 3489      7400
 3490              	.LASF96:
 3491 070b 63795F73 		.ascii	"cy_stc_dma_descriptor_config_t\000"
 3491      74635F64 
 3491      6D615F64 
 3491      65736372 
 3491      6970746F 
 3492              	.LASF27:
 3493 072a 53544154 		.ascii	"STATUS_INTR\000"
 3493      55535F49 
 3493      4E545200 
 3494              	.LASF24:
 3495 0736 53544154 		.ascii	"STATUS\000"
 3495      555300
 3496              	.LASF72:
 3497 073d 43595F44 		.ascii	"CY_DMA_BAD_PARAM\000"
 3497      4D415F42 
 3497      41445F50 
 3497      4152414D 
 3497      00
 3498              	.LASF89:
 3499 074e 73726358 		.ascii	"srcXincrement\000"
 3499      696E6372 
 3499      656D656E 
 3499      7400
 3500              	.LASF120:
 3501 075c 43795F44 		.ascii	"Cy_DMA_Descriptor_GetDescriptorType\000"
 3501      4D415F44 
ARM GAS  C:\Users\cypress\AppData\Local\Temp\cczqZZvj.s 			page 93


 3501      65736372 
 3501      6970746F 
 3501      725F4765 
 3502              	.LASF92:
 3503 0780 73726359 		.ascii	"srcYincrement\000"
 3503      696E6372 
 3503      656D656E 
 3503      7400
 3504              	.LASF77:
 3505 078e 63795F73 		.ascii	"cy_stc_dma_descriptor_t\000"
 3505      74635F64 
 3505      6D615F64 
 3505      65736372 
 3505      6970746F 
 3506              	.LASF41:
 3507 07a6 43485F53 		.ascii	"CH_STRUCT\000"
 3507      54525543 
 3507      5400
 3508              	.LASF23:
 3509 07b0 44575F43 		.ascii	"DW_CH_STRUCT_Type\000"
 3509      485F5354 
 3509      52554354 
 3509      5F547970 
 3509      6500
 3510              	.LASF81:
 3511 07c2 6368616E 		.ascii	"channelState\000"
 3511      6E656C53 
 3511      74617465 
 3511      00
 3512              	.LASF111:
 3513 07cf 43795F44 		.ascii	"Cy_DMA_Descriptor_DeInit\000"
 3513      4D415F44 
 3513      65736372 
 3513      6970746F 
 3513      725F4465 
 3514              	.LASF70:
 3515 07e8 63795F65 		.ascii	"cy_en_dma_channel_state_t\000"
 3515      6E5F646D 
 3515      615F6368 
 3515      616E6E65 
 3515      6C5F7374 
 3516              	.LASF98:
 3517 0802 70726565 		.ascii	"preemptable\000"
 3517      6D707461 
 3517      626C6500 
 3518              	.LASF25:
 3519 080e 50454E44 		.ascii	"PENDING\000"
 3519      494E4700 
 3520              		.ident	"GCC: (GNU Tools for ARM Embedded Processors) 5.4.1 20160609 (release) [ARM/embedded-5-bran
