ARM GAS  C:\Users\cypress\AppData\Local\Temp\cczqZZvj.s 			page 1


   1              		.syntax unified
   2              		.cpu cortex-m4
   3              		.eabi_attribute 27, 1
   4              		.fpu fpv4-sp-d16
   5              		.eabi_attribute 20, 1
   6              		.eabi_attribute 21, 1
   7              		.eabi_attribute 23, 3
   8              		.eabi_attribute 24, 1
   9              		.eabi_attribute 25, 1
  10              		.eabi_attribute 26, 1
  11              		.eabi_attribute 30, 1
  12              		.eabi_attribute 34, 1
  13              		.eabi_attribute 18, 4
  14              		.thumb
  15              		.syntax unified
  16              		.file	"cy_dma.c"
  17              		.text
  18              	.Ltext0:
  19              		.cfi_sections	.debug_frame
  20              		.section	.text.Cy_DMA_Descriptor_Init,"ax",%progbits
  21              		.align	2
  22              		.global	Cy_DMA_Descriptor_Init
  23              		.thumb
  24              		.thumb_func
  25              		.type	Cy_DMA_Descriptor_Init, %function
  26              	Cy_DMA_Descriptor_Init:
  27              	.LFB176:
  28              		.file 1 "Generated_Source\\PSoC6\\pdl\\drivers\\peripheral\\dma\\cy_dma.c"
   1:Generated_Source\PSoC6\pdl\drivers\peripheral\dma/cy_dma.c **** /***************************************************************************//**
   2:Generated_Source\PSoC6\pdl\drivers\peripheral\dma/cy_dma.c **** * \file cy_dma.c
   3:Generated_Source\PSoC6\pdl\drivers\peripheral\dma/cy_dma.c **** * \version 2.0.1
   4:Generated_Source\PSoC6\pdl\drivers\peripheral\dma/cy_dma.c **** *
   5:Generated_Source\PSoC6\pdl\drivers\peripheral\dma/cy_dma.c **** * \brief
   6:Generated_Source\PSoC6\pdl\drivers\peripheral\dma/cy_dma.c **** * The source code file for the DMA driver.
   7:Generated_Source\PSoC6\pdl\drivers\peripheral\dma/cy_dma.c **** *
   8:Generated_Source\PSoC6\pdl\drivers\peripheral\dma/cy_dma.c **** ********************************************************************************
   9:Generated_Source\PSoC6\pdl\drivers\peripheral\dma/cy_dma.c **** * \copyright
  10:Generated_Source\PSoC6\pdl\drivers\peripheral\dma/cy_dma.c **** * Copyright 2016-2018, Cypress Semiconductor Corporation. All rights reserved.
  11:Generated_Source\PSoC6\pdl\drivers\peripheral\dma/cy_dma.c **** * You may use this file only in accordance with the license, terms, conditions,
  12:Generated_Source\PSoC6\pdl\drivers\peripheral\dma/cy_dma.c **** * disclaimers, and limitations in the end user license agreement accompanying
  13:Generated_Source\PSoC6\pdl\drivers\peripheral\dma/cy_dma.c **** * the software package with which this file was provided.
  14:Generated_Source\PSoC6\pdl\drivers\peripheral\dma/cy_dma.c **** *******************************************************************************/
  15:Generated_Source\PSoC6\pdl\drivers\peripheral\dma/cy_dma.c **** 
  16:Generated_Source\PSoC6\pdl\drivers\peripheral\dma/cy_dma.c **** #include "cy_dma.h"
  17:Generated_Source\PSoC6\pdl\drivers\peripheral\dma/cy_dma.c **** 
  18:Generated_Source\PSoC6\pdl\drivers\peripheral\dma/cy_dma.c **** #if defined(__cplusplus)
  19:Generated_Source\PSoC6\pdl\drivers\peripheral\dma/cy_dma.c **** extern "C" {
  20:Generated_Source\PSoC6\pdl\drivers\peripheral\dma/cy_dma.c **** #endif
  21:Generated_Source\PSoC6\pdl\drivers\peripheral\dma/cy_dma.c **** 
  22:Generated_Source\PSoC6\pdl\drivers\peripheral\dma/cy_dma.c **** 
  23:Generated_Source\PSoC6\pdl\drivers\peripheral\dma/cy_dma.c **** /*******************************************************************************
  24:Generated_Source\PSoC6\pdl\drivers\peripheral\dma/cy_dma.c **** * Function Name: Cy_DMA_Descriptor_Init
  25:Generated_Source\PSoC6\pdl\drivers\peripheral\dma/cy_dma.c **** ****************************************************************************//**
  26:Generated_Source\PSoC6\pdl\drivers\peripheral\dma/cy_dma.c **** *
  27:Generated_Source\PSoC6\pdl\drivers\peripheral\dma/cy_dma.c **** * Initializes the descriptor structure in SRAM from a pre-initialized
  28:Generated_Source\PSoC6\pdl\drivers\peripheral\dma/cy_dma.c **** * configuration structure.
  29:Generated_Source\PSoC6\pdl\drivers\peripheral\dma/cy_dma.c **** * This function initializes only the descriptor and not the channel.
ARM GAS  C:\Users\cypress\AppData\Local\Temp\cczqZZvj.s 			page 2


  30:Generated_Source\PSoC6\pdl\drivers\peripheral\dma/cy_dma.c **** *
  31:Generated_Source\PSoC6\pdl\drivers\peripheral\dma/cy_dma.c **** * \param descriptor
  32:Generated_Source\PSoC6\pdl\drivers\peripheral\dma/cy_dma.c **** * The descriptor structure instance declared by the user/component.
  33:Generated_Source\PSoC6\pdl\drivers\peripheral\dma/cy_dma.c **** *
  34:Generated_Source\PSoC6\pdl\drivers\peripheral\dma/cy_dma.c **** * \param config
  35:Generated_Source\PSoC6\pdl\drivers\peripheral\dma/cy_dma.c **** * This is a configuration structure that has all initialization information for
  36:Generated_Source\PSoC6\pdl\drivers\peripheral\dma/cy_dma.c **** * the descriptor.
  37:Generated_Source\PSoC6\pdl\drivers\peripheral\dma/cy_dma.c **** *
  38:Generated_Source\PSoC6\pdl\drivers\peripheral\dma/cy_dma.c **** * \return
  39:Generated_Source\PSoC6\pdl\drivers\peripheral\dma/cy_dma.c **** * The status /ref cy_en_dma_status_t.
  40:Generated_Source\PSoC6\pdl\drivers\peripheral\dma/cy_dma.c **** *
  41:Generated_Source\PSoC6\pdl\drivers\peripheral\dma/cy_dma.c **** *******************************************************************************/
  42:Generated_Source\PSoC6\pdl\drivers\peripheral\dma/cy_dma.c **** cy_en_dma_status_t Cy_DMA_Descriptor_Init(cy_stc_dma_descriptor_t * descriptor, const cy_stc_dma_de
  43:Generated_Source\PSoC6\pdl\drivers\peripheral\dma/cy_dma.c **** {
  29              		.loc 1 43 0
  30              		.cfi_startproc
  31              		@ args = 0, pretend = 0, frame = 0
  32              		@ frame_needed = 0, uses_anonymous_args = 0
  33              	.LVL0:
  44:Generated_Source\PSoC6\pdl\drivers\peripheral\dma/cy_dma.c ****     cy_en_dma_status_t retVal = CY_DMA_BAD_PARAM;
  45:Generated_Source\PSoC6\pdl\drivers\peripheral\dma/cy_dma.c **** 
  46:Generated_Source\PSoC6\pdl\drivers\peripheral\dma/cy_dma.c ****     if ((NULL != descriptor) && (NULL != config))
  34              		.loc 1 46 0
  35 0000 0028     		cmp	r0, #0
  36 0002 00F0FF80 		beq	.L24
  43:Generated_Source\PSoC6\pdl\drivers\peripheral\dma/cy_dma.c ****     cy_en_dma_status_t retVal = CY_DMA_BAD_PARAM;
  37              		.loc 1 43 0 discriminator 1
  38 0006 38B5     		push	{r3, r4, r5, lr}
  39              		.cfi_def_cfa_offset 16
  40              		.cfi_offset 3, -16
  41              		.cfi_offset 4, -12
  42              		.cfi_offset 5, -8
  43              		.cfi_offset 14, -4
  44 0008 0546     		mov	r5, r0
  45              		.loc 1 46 0 discriminator 1
  46 000a 0029     		cmp	r1, #0
  47 000c 00F0FC80 		beq	.L25
  48 0010 0C46     		mov	r4, r1
  47:Generated_Source\PSoC6\pdl\drivers\peripheral\dma/cy_dma.c ****     {
  48:Generated_Source\PSoC6\pdl\drivers\peripheral\dma/cy_dma.c ****         CY_ASSERT_L3(CY_DMA_IS_RETRIGGER_VALID(config->retrigger));
  49              		.loc 1 48 0
  50 0012 0B78     		ldrb	r3, [r1]	@ zero_extendqisi2
  51 0014 032B     		cmp	r3, #3
  52 0016 03D9     		bls	.L3
  53              		.loc 1 48 0 is_stmt 0 discriminator 1
  54 0018 3021     		movs	r1, #48
  55              	.LVL1:
  56 001a 7D48     		ldr	r0, .L29
  57              	.LVL2:
  58 001c FFF7FEFF 		bl	Cy_SysLib_AssertFailed
  59              	.LVL3:
  60              	.L3:
  49:Generated_Source\PSoC6\pdl\drivers\peripheral\dma/cy_dma.c ****         CY_ASSERT_L3(CY_DMA_IS_TRIG_TYPE_VALID(config->interruptType));
  61              		.loc 1 49 0 is_stmt 1
  62 0020 6378     		ldrb	r3, [r4, #1]	@ zero_extendqisi2
  63 0022 032B     		cmp	r3, #3
  64 0024 03D9     		bls	.L4
ARM GAS  C:\Users\cypress\AppData\Local\Temp\cczqZZvj.s 			page 3


  65              		.loc 1 49 0 is_stmt 0 discriminator 1
  66 0026 3121     		movs	r1, #49
  67 0028 7948     		ldr	r0, .L29
  68 002a FFF7FEFF 		bl	Cy_SysLib_AssertFailed
  69              	.LVL4:
  70              	.L4:
  50:Generated_Source\PSoC6\pdl\drivers\peripheral\dma/cy_dma.c ****         CY_ASSERT_L3(CY_DMA_IS_TRIG_TYPE_VALID(config->triggerOutType));
  71              		.loc 1 50 0 is_stmt 1
  72 002e A378     		ldrb	r3, [r4, #2]	@ zero_extendqisi2
  73 0030 032B     		cmp	r3, #3
  74 0032 03D9     		bls	.L5
  75              		.loc 1 50 0 is_stmt 0 discriminator 1
  76 0034 3221     		movs	r1, #50
  77 0036 7648     		ldr	r0, .L29
  78 0038 FFF7FEFF 		bl	Cy_SysLib_AssertFailed
  79              	.LVL5:
  80              	.L5:
  51:Generated_Source\PSoC6\pdl\drivers\peripheral\dma/cy_dma.c ****         CY_ASSERT_L3(CY_DMA_IS_TRIG_TYPE_VALID(config->triggerInType));
  81              		.loc 1 51 0 is_stmt 1
  82 003c 2379     		ldrb	r3, [r4, #4]	@ zero_extendqisi2
  83 003e 032B     		cmp	r3, #3
  84 0040 03D9     		bls	.L6
  85              		.loc 1 51 0 is_stmt 0 discriminator 1
  86 0042 3321     		movs	r1, #51
  87 0044 7248     		ldr	r0, .L29
  88 0046 FFF7FEFF 		bl	Cy_SysLib_AssertFailed
  89              	.LVL6:
  90              	.L6:
  52:Generated_Source\PSoC6\pdl\drivers\peripheral\dma/cy_dma.c ****         CY_ASSERT_L3(CY_DMA_IS_XFER_SIZE_VALID(config->srcTransferSize));
  91              		.loc 1 52 0 is_stmt 1
  92 004a A379     		ldrb	r3, [r4, #6]	@ zero_extendqisi2
  93 004c 012B     		cmp	r3, #1
  94 004e 03D9     		bls	.L7
  95              		.loc 1 52 0 is_stmt 0 discriminator 1
  96 0050 3421     		movs	r1, #52
  97 0052 6F48     		ldr	r0, .L29
  98 0054 FFF7FEFF 		bl	Cy_SysLib_AssertFailed
  99              	.LVL7:
 100              	.L7:
  53:Generated_Source\PSoC6\pdl\drivers\peripheral\dma/cy_dma.c ****         CY_ASSERT_L3(CY_DMA_IS_XFER_SIZE_VALID(config->dstTransferSize));
 101              		.loc 1 53 0 is_stmt 1
 102 0058 E379     		ldrb	r3, [r4, #7]	@ zero_extendqisi2
 103 005a 012B     		cmp	r3, #1
 104 005c 03D9     		bls	.L8
 105              		.loc 1 53 0 is_stmt 0 discriminator 1
 106 005e 3521     		movs	r1, #53
 107 0060 6B48     		ldr	r0, .L29
 108 0062 FFF7FEFF 		bl	Cy_SysLib_AssertFailed
 109              	.LVL8:
 110              	.L8:
  54:Generated_Source\PSoC6\pdl\drivers\peripheral\dma/cy_dma.c ****         CY_ASSERT_L3(CY_DMA_IS_CHANNEL_STATE_VALID(config->channelState));
 111              		.loc 1 54 0 is_stmt 1
 112 0066 E378     		ldrb	r3, [r4, #3]	@ zero_extendqisi2
 113 0068 012B     		cmp	r3, #1
 114 006a 03D9     		bls	.L9
 115              		.loc 1 54 0 is_stmt 0 discriminator 1
 116 006c 3621     		movs	r1, #54
ARM GAS  C:\Users\cypress\AppData\Local\Temp\cczqZZvj.s 			page 4


 117 006e 6848     		ldr	r0, .L29
 118 0070 FFF7FEFF 		bl	Cy_SysLib_AssertFailed
 119              	.LVL9:
 120              	.L9:
  55:Generated_Source\PSoC6\pdl\drivers\peripheral\dma/cy_dma.c ****         CY_ASSERT_L3(CY_DMA_IS_DATA_SIZE_VALID(config->dataSize));
 121              		.loc 1 55 0 is_stmt 1
 122 0074 6379     		ldrb	r3, [r4, #5]	@ zero_extendqisi2
 123 0076 022B     		cmp	r3, #2
 124 0078 03D9     		bls	.L10
 125              		.loc 1 55 0 is_stmt 0 discriminator 1
 126 007a 3721     		movs	r1, #55
 127 007c 6448     		ldr	r0, .L29
 128 007e FFF7FEFF 		bl	Cy_SysLib_AssertFailed
 129              	.LVL10:
 130              	.L10:
  56:Generated_Source\PSoC6\pdl\drivers\peripheral\dma/cy_dma.c ****         CY_ASSERT_L3(CY_DMA_IS_TYPE_VALID(config->descriptorType));
 131              		.loc 1 56 0 is_stmt 1
 132 0082 237A     		ldrb	r3, [r4, #8]	@ zero_extendqisi2
 133 0084 022B     		cmp	r3, #2
 134 0086 03D9     		bls	.L11
 135              		.loc 1 56 0 is_stmt 0 discriminator 1
 136 0088 3821     		movs	r1, #56
 137 008a 6148     		ldr	r0, .L29
 138 008c FFF7FEFF 		bl	Cy_SysLib_AssertFailed
 139              	.LVL11:
 140              	.L11:
  57:Generated_Source\PSoC6\pdl\drivers\peripheral\dma/cy_dma.c ****         
  58:Generated_Source\PSoC6\pdl\drivers\peripheral\dma/cy_dma.c ****         descriptor->ctl =
  59:Generated_Source\PSoC6\pdl\drivers\peripheral\dma/cy_dma.c ****             _VAL2FLD(CY_DMA_CTL_RETRIG, config->retrigger) |
 141              		.loc 1 59 0 is_stmt 1
 142 0090 2378     		ldrb	r3, [r4]	@ zero_extendqisi2
 143 0092 03F00301 		and	r1, r3, #3
  60:Generated_Source\PSoC6\pdl\drivers\peripheral\dma/cy_dma.c ****             _VAL2FLD(CY_DMA_CTL_INTR_TYPE, config->interruptType) |
 144              		.loc 1 60 0
 145 0096 6278     		ldrb	r2, [r4, #1]	@ zero_extendqisi2
 146 0098 9300     		lsls	r3, r2, #2
 147 009a 03F00C03 		and	r3, r3, #12
  59:Generated_Source\PSoC6\pdl\drivers\peripheral\dma/cy_dma.c ****             _VAL2FLD(CY_DMA_CTL_INTR_TYPE, config->interruptType) |
 148              		.loc 1 59 0
 149 009e 0B43     		orrs	r3, r3, r1
  61:Generated_Source\PSoC6\pdl\drivers\peripheral\dma/cy_dma.c ****             _VAL2FLD(CY_DMA_CTL_TR_OUT_TYPE, config->triggerOutType) |
 150              		.loc 1 61 0
 151 00a0 A278     		ldrb	r2, [r4, #2]	@ zero_extendqisi2
 152 00a2 1201     		lsls	r2, r2, #4
 153 00a4 02F03002 		and	r2, r2, #48
  60:Generated_Source\PSoC6\pdl\drivers\peripheral\dma/cy_dma.c ****             _VAL2FLD(CY_DMA_CTL_INTR_TYPE, config->interruptType) |
 154              		.loc 1 60 0
 155 00a8 1343     		orrs	r3, r3, r2
  62:Generated_Source\PSoC6\pdl\drivers\peripheral\dma/cy_dma.c ****             _VAL2FLD(CY_DMA_CTL_TR_IN_TYPE, config->triggerInType) |
 156              		.loc 1 62 0
 157 00aa 2279     		ldrb	r2, [r4, #4]	@ zero_extendqisi2
 158 00ac 9201     		lsls	r2, r2, #6
 159 00ae D2B2     		uxtb	r2, r2
  61:Generated_Source\PSoC6\pdl\drivers\peripheral\dma/cy_dma.c ****             _VAL2FLD(CY_DMA_CTL_TR_OUT_TYPE, config->triggerOutType) |
 160              		.loc 1 61 0
 161 00b0 1343     		orrs	r3, r3, r2
  63:Generated_Source\PSoC6\pdl\drivers\peripheral\dma/cy_dma.c ****             _VAL2FLD(CY_DMA_CTL_SRC_SIZE, config->srcTransferSize) |
ARM GAS  C:\Users\cypress\AppData\Local\Temp\cczqZZvj.s 			page 5


 162              		.loc 1 63 0
 163 00b2 A279     		ldrb	r2, [r4, #6]	@ zero_extendqisi2
 164 00b4 9206     		lsls	r2, r2, #26
 165 00b6 02F08062 		and	r2, r2, #67108864
  62:Generated_Source\PSoC6\pdl\drivers\peripheral\dma/cy_dma.c ****             _VAL2FLD(CY_DMA_CTL_TR_IN_TYPE, config->triggerInType) |
 166              		.loc 1 62 0
 167 00ba 1343     		orrs	r3, r3, r2
  64:Generated_Source\PSoC6\pdl\drivers\peripheral\dma/cy_dma.c ****             _VAL2FLD(CY_DMA_CTL_DST_SIZE, config->dstTransferSize) |
 168              		.loc 1 64 0
 169 00bc E279     		ldrb	r2, [r4, #7]	@ zero_extendqisi2
 170 00be D206     		lsls	r2, r2, #27
 171 00c0 02F00062 		and	r2, r2, #134217728
  63:Generated_Source\PSoC6\pdl\drivers\peripheral\dma/cy_dma.c ****             _VAL2FLD(CY_DMA_CTL_SRC_SIZE, config->srcTransferSize) |
 172              		.loc 1 63 0
 173 00c4 1343     		orrs	r3, r3, r2
  65:Generated_Source\PSoC6\pdl\drivers\peripheral\dma/cy_dma.c ****             _VAL2FLD(CY_DMA_CTL_CH_DISABLE, config->channelState) |
 174              		.loc 1 65 0
 175 00c6 E278     		ldrb	r2, [r4, #3]	@ zero_extendqisi2
 176 00c8 1206     		lsls	r2, r2, #24
 177 00ca 02F08072 		and	r2, r2, #16777216
  64:Generated_Source\PSoC6\pdl\drivers\peripheral\dma/cy_dma.c ****             _VAL2FLD(CY_DMA_CTL_DST_SIZE, config->dstTransferSize) |
 178              		.loc 1 64 0
 179 00ce 1343     		orrs	r3, r3, r2
  66:Generated_Source\PSoC6\pdl\drivers\peripheral\dma/cy_dma.c ****             _VAL2FLD(CY_DMA_CTL_DATA_SIZE, config->dataSize) |
 180              		.loc 1 66 0
 181 00d0 6279     		ldrb	r2, [r4, #5]	@ zero_extendqisi2
 182 00d2 1207     		lsls	r2, r2, #28
 183 00d4 02F04052 		and	r2, r2, #805306368
  65:Generated_Source\PSoC6\pdl\drivers\peripheral\dma/cy_dma.c ****             _VAL2FLD(CY_DMA_CTL_CH_DISABLE, config->channelState) |
 184              		.loc 1 65 0
 185 00d8 1343     		orrs	r3, r3, r2
  67:Generated_Source\PSoC6\pdl\drivers\peripheral\dma/cy_dma.c ****             _VAL2FLD(CY_DMA_CTL_TYPE, config->descriptorType);
 186              		.loc 1 67 0
 187 00da 227A     		ldrb	r2, [r4, #8]	@ zero_extendqisi2
  66:Generated_Source\PSoC6\pdl\drivers\peripheral\dma/cy_dma.c ****             _VAL2FLD(CY_DMA_CTL_DATA_SIZE, config->dataSize) |
 188              		.loc 1 66 0
 189 00dc 43EA8273 		orr	r3, r3, r2, lsl #30
  58:Generated_Source\PSoC6\pdl\drivers\peripheral\dma/cy_dma.c ****             _VAL2FLD(CY_DMA_CTL_RETRIG, config->retrigger) |
 190              		.loc 1 58 0
 191 00e0 2B60     		str	r3, [r5]
  68:Generated_Source\PSoC6\pdl\drivers\peripheral\dma/cy_dma.c **** 
  69:Generated_Source\PSoC6\pdl\drivers\peripheral\dma/cy_dma.c ****         descriptor->src = (uint32_t)config->srcAddress;
 192              		.loc 1 69 0
 193 00e2 E368     		ldr	r3, [r4, #12]
 194 00e4 6B60     		str	r3, [r5, #4]
  70:Generated_Source\PSoC6\pdl\drivers\peripheral\dma/cy_dma.c **** 
  71:Generated_Source\PSoC6\pdl\drivers\peripheral\dma/cy_dma.c ****         descriptor->dst = (uint32_t)config->dstAddress;
 195              		.loc 1 71 0
 196 00e6 2369     		ldr	r3, [r4, #16]
 197 00e8 AB60     		str	r3, [r5, #8]
  72:Generated_Source\PSoC6\pdl\drivers\peripheral\dma/cy_dma.c **** 
  73:Generated_Source\PSoC6\pdl\drivers\peripheral\dma/cy_dma.c ****         switch(config->descriptorType)
 198              		.loc 1 73 0
 199 00ea 237A     		ldrb	r3, [r4, #8]	@ zero_extendqisi2
 200 00ec 012B     		cmp	r3, #1
 201 00ee 07D0     		beq	.L12
 202 00f0 13B1     		cbz	r3, .L13
ARM GAS  C:\Users\cypress\AppData\Local\Temp\cczqZZvj.s 			page 6


 203 00f2 022B     		cmp	r3, #2
 204 00f4 31D0     		beq	.L14
 205 00f6 89E0     		b	.L27
 206              	.L13:
  74:Generated_Source\PSoC6\pdl\drivers\peripheral\dma/cy_dma.c ****         {
  75:Generated_Source\PSoC6\pdl\drivers\peripheral\dma/cy_dma.c ****             case CY_DMA_SINGLE_TRANSFER:
  76:Generated_Source\PSoC6\pdl\drivers\peripheral\dma/cy_dma.c ****             {
  77:Generated_Source\PSoC6\pdl\drivers\peripheral\dma/cy_dma.c ****                 descriptor->xCtl = (uint32_t)config->nextDescriptor;
 207              		.loc 1 77 0
 208 00f8 E36A     		ldr	r3, [r4, #44]
 209 00fa EB60     		str	r3, [r5, #12]
  78:Generated_Source\PSoC6\pdl\drivers\peripheral\dma/cy_dma.c ****                 break;
  79:Generated_Source\PSoC6\pdl\drivers\peripheral\dma/cy_dma.c ****             }
  80:Generated_Source\PSoC6\pdl\drivers\peripheral\dma/cy_dma.c ****             case CY_DMA_1D_TRANSFER:
  81:Generated_Source\PSoC6\pdl\drivers\peripheral\dma/cy_dma.c ****             {
  82:Generated_Source\PSoC6\pdl\drivers\peripheral\dma/cy_dma.c ****                 CY_ASSERT_L2(CY_DMA_IS_INCR_VALID(config->srcXincrement));
  83:Generated_Source\PSoC6\pdl\drivers\peripheral\dma/cy_dma.c ****                 CY_ASSERT_L2(CY_DMA_IS_INCR_VALID(config->dstXincrement));
  84:Generated_Source\PSoC6\pdl\drivers\peripheral\dma/cy_dma.c ****                 CY_ASSERT_L2(CY_DMA_IS_COUNT_VALID(config->xCount));
  85:Generated_Source\PSoC6\pdl\drivers\peripheral\dma/cy_dma.c ****                 
  86:Generated_Source\PSoC6\pdl\drivers\peripheral\dma/cy_dma.c ****                 descriptor->xCtl =
  87:Generated_Source\PSoC6\pdl\drivers\peripheral\dma/cy_dma.c ****                     _VAL2FLD(CY_DMA_CTL_SRC_INCR, config->srcXincrement) |
  88:Generated_Source\PSoC6\pdl\drivers\peripheral\dma/cy_dma.c ****                     _VAL2FLD(CY_DMA_CTL_DST_INCR, config->dstXincrement) |
  89:Generated_Source\PSoC6\pdl\drivers\peripheral\dma/cy_dma.c ****     /* Convert the data count from the user's range (1-256) into the machine range (0-255). */
  90:Generated_Source\PSoC6\pdl\drivers\peripheral\dma/cy_dma.c ****                     _VAL2FLD(CY_DMA_CTL_COUNT, config->xCount - 1UL);
  91:Generated_Source\PSoC6\pdl\drivers\peripheral\dma/cy_dma.c ****                     
  92:Generated_Source\PSoC6\pdl\drivers\peripheral\dma/cy_dma.c ****                 descriptor->yCtl = (uint32_t)config->nextDescriptor;
  93:Generated_Source\PSoC6\pdl\drivers\peripheral\dma/cy_dma.c ****                 break;
  94:Generated_Source\PSoC6\pdl\drivers\peripheral\dma/cy_dma.c ****             }
  95:Generated_Source\PSoC6\pdl\drivers\peripheral\dma/cy_dma.c ****             case CY_DMA_2D_TRANSFER:
  96:Generated_Source\PSoC6\pdl\drivers\peripheral\dma/cy_dma.c ****             {                
  97:Generated_Source\PSoC6\pdl\drivers\peripheral\dma/cy_dma.c ****                 CY_ASSERT_L2(CY_DMA_IS_INCR_VALID(config->srcXincrement));
  98:Generated_Source\PSoC6\pdl\drivers\peripheral\dma/cy_dma.c ****                 CY_ASSERT_L2(CY_DMA_IS_INCR_VALID(config->dstXincrement));
  99:Generated_Source\PSoC6\pdl\drivers\peripheral\dma/cy_dma.c ****                 CY_ASSERT_L2(CY_DMA_IS_COUNT_VALID(config->xCount));
 100:Generated_Source\PSoC6\pdl\drivers\peripheral\dma/cy_dma.c ****                 CY_ASSERT_L2(CY_DMA_IS_INCR_VALID(config->srcYincrement));
 101:Generated_Source\PSoC6\pdl\drivers\peripheral\dma/cy_dma.c ****                 CY_ASSERT_L2(CY_DMA_IS_INCR_VALID(config->dstYincrement));
 102:Generated_Source\PSoC6\pdl\drivers\peripheral\dma/cy_dma.c ****                 CY_ASSERT_L2(CY_DMA_IS_COUNT_VALID(config->yCount));
 103:Generated_Source\PSoC6\pdl\drivers\peripheral\dma/cy_dma.c ****                 
 104:Generated_Source\PSoC6\pdl\drivers\peripheral\dma/cy_dma.c ****                 descriptor->xCtl =
 105:Generated_Source\PSoC6\pdl\drivers\peripheral\dma/cy_dma.c ****                     _VAL2FLD(CY_DMA_CTL_SRC_INCR, config->srcXincrement) |
 106:Generated_Source\PSoC6\pdl\drivers\peripheral\dma/cy_dma.c ****                     _VAL2FLD(CY_DMA_CTL_DST_INCR, config->dstXincrement) |
 107:Generated_Source\PSoC6\pdl\drivers\peripheral\dma/cy_dma.c ****     /* Convert the data count from the user's range (1-256) into the machine range (0-255). */
 108:Generated_Source\PSoC6\pdl\drivers\peripheral\dma/cy_dma.c ****                     _VAL2FLD(CY_DMA_CTL_COUNT, config->xCount - 1UL);
 109:Generated_Source\PSoC6\pdl\drivers\peripheral\dma/cy_dma.c ****                     
 110:Generated_Source\PSoC6\pdl\drivers\peripheral\dma/cy_dma.c ****                 descriptor->yCtl =
 111:Generated_Source\PSoC6\pdl\drivers\peripheral\dma/cy_dma.c ****                     _VAL2FLD(CY_DMA_CTL_SRC_INCR, config->srcYincrement) |
 112:Generated_Source\PSoC6\pdl\drivers\peripheral\dma/cy_dma.c ****                     _VAL2FLD(CY_DMA_CTL_DST_INCR, config->dstYincrement) |
 113:Generated_Source\PSoC6\pdl\drivers\peripheral\dma/cy_dma.c ****     /* Convert the data count from the user's range (1-256) into the machine range (0-255). */
 114:Generated_Source\PSoC6\pdl\drivers\peripheral\dma/cy_dma.c ****                     _VAL2FLD(CY_DMA_CTL_COUNT, config->yCount - 1UL);
 115:Generated_Source\PSoC6\pdl\drivers\peripheral\dma/cy_dma.c ****                     
 116:Generated_Source\PSoC6\pdl\drivers\peripheral\dma/cy_dma.c ****                 descriptor->nextPtr = (uint32_t)config->nextDescriptor;
 117:Generated_Source\PSoC6\pdl\drivers\peripheral\dma/cy_dma.c ****                 break;
 118:Generated_Source\PSoC6\pdl\drivers\peripheral\dma/cy_dma.c ****             }
 119:Generated_Source\PSoC6\pdl\drivers\peripheral\dma/cy_dma.c ****             default:
 120:Generated_Source\PSoC6\pdl\drivers\peripheral\dma/cy_dma.c ****             {
 121:Generated_Source\PSoC6\pdl\drivers\peripheral\dma/cy_dma.c ****                 /* An unsupported type of a descriptor */
 122:Generated_Source\PSoC6\pdl\drivers\peripheral\dma/cy_dma.c ****                 break;
 123:Generated_Source\PSoC6\pdl\drivers\peripheral\dma/cy_dma.c ****             }
ARM GAS  C:\Users\cypress\AppData\Local\Temp\cczqZZvj.s 			page 7


 124:Generated_Source\PSoC6\pdl\drivers\peripheral\dma/cy_dma.c ****         }
 125:Generated_Source\PSoC6\pdl\drivers\peripheral\dma/cy_dma.c **** 
 126:Generated_Source\PSoC6\pdl\drivers\peripheral\dma/cy_dma.c ****         retVal = CY_DMA_SUCCESS;
 210              		.loc 1 126 0
 211 00fc 0020     		movs	r0, #0
  78:Generated_Source\PSoC6\pdl\drivers\peripheral\dma/cy_dma.c ****                 break;
 212              		.loc 1 78 0
 213 00fe 38BD     		pop	{r3, r4, r5, pc}
 214              	.LVL12:
 215              	.L12:
  82:Generated_Source\PSoC6\pdl\drivers\peripheral\dma/cy_dma.c ****                 CY_ASSERT_L2(CY_DMA_IS_INCR_VALID(config->dstXincrement));
 216              		.loc 1 82 0
 217 0100 6369     		ldr	r3, [r4, #20]
 218 0102 03F50063 		add	r3, r3, #2048
 219 0106 B3F5805F 		cmp	r3, #4096
 220 010a 03D3     		bcc	.L15
  82:Generated_Source\PSoC6\pdl\drivers\peripheral\dma/cy_dma.c ****                 CY_ASSERT_L2(CY_DMA_IS_INCR_VALID(config->dstXincrement));
 221              		.loc 1 82 0 is_stmt 0 discriminator 1
 222 010c 5221     		movs	r1, #82
 223 010e 4048     		ldr	r0, .L29
 224 0110 FFF7FEFF 		bl	Cy_SysLib_AssertFailed
 225              	.LVL13:
 226              	.L15:
  83:Generated_Source\PSoC6\pdl\drivers\peripheral\dma/cy_dma.c ****                 CY_ASSERT_L2(CY_DMA_IS_COUNT_VALID(config->xCount));
 227              		.loc 1 83 0 is_stmt 1
 228 0114 A369     		ldr	r3, [r4, #24]
 229 0116 03F50063 		add	r3, r3, #2048
 230 011a B3F5805F 		cmp	r3, #4096
 231 011e 03D3     		bcc	.L16
  83:Generated_Source\PSoC6\pdl\drivers\peripheral\dma/cy_dma.c ****                 CY_ASSERT_L2(CY_DMA_IS_COUNT_VALID(config->xCount));
 232              		.loc 1 83 0 is_stmt 0 discriminator 1
 233 0120 5321     		movs	r1, #83
 234 0122 3B48     		ldr	r0, .L29
 235 0124 FFF7FEFF 		bl	Cy_SysLib_AssertFailed
 236              	.LVL14:
 237              	.L16:
  84:Generated_Source\PSoC6\pdl\drivers\peripheral\dma/cy_dma.c ****                 
 238              		.loc 1 84 0 is_stmt 1
 239 0128 E369     		ldr	r3, [r4, #28]
 240 012a 013B     		subs	r3, r3, #1
 241 012c FF2B     		cmp	r3, #255
 242 012e 03D9     		bls	.L17
  84:Generated_Source\PSoC6\pdl\drivers\peripheral\dma/cy_dma.c ****                 
 243              		.loc 1 84 0 is_stmt 0 discriminator 1
 244 0130 5421     		movs	r1, #84
 245 0132 3748     		ldr	r0, .L29
 246 0134 FFF7FEFF 		bl	Cy_SysLib_AssertFailed
 247              	.LVL15:
 248              	.L17:
  87:Generated_Source\PSoC6\pdl\drivers\peripheral\dma/cy_dma.c ****                     _VAL2FLD(CY_DMA_CTL_DST_INCR, config->dstXincrement) |
 249              		.loc 1 87 0 is_stmt 1
 250 0138 6369     		ldr	r3, [r4, #20]
 251 013a C3F30B02 		ubfx	r2, r3, #0, #12
  88:Generated_Source\PSoC6\pdl\drivers\peripheral\dma/cy_dma.c ****     /* Convert the data count from the user's range (1-256) into the machine range (0-255). */
 252              		.loc 1 88 0
 253 013e A369     		ldr	r3, [r4, #24]
 254 0140 3449     		ldr	r1, .L29+4
ARM GAS  C:\Users\cypress\AppData\Local\Temp\cczqZZvj.s 			page 8


 255 0142 01EA0333 		and	r3, r1, r3, lsl #12
  87:Generated_Source\PSoC6\pdl\drivers\peripheral\dma/cy_dma.c ****                     _VAL2FLD(CY_DMA_CTL_DST_INCR, config->dstXincrement) |
 256              		.loc 1 87 0
 257 0146 1A43     		orrs	r2, r2, r3
  90:Generated_Source\PSoC6\pdl\drivers\peripheral\dma/cy_dma.c ****                     
 258              		.loc 1 90 0
 259 0148 E369     		ldr	r3, [r4, #28]
 260 014a 013B     		subs	r3, r3, #1
  88:Generated_Source\PSoC6\pdl\drivers\peripheral\dma/cy_dma.c ****     /* Convert the data count from the user's range (1-256) into the machine range (0-255). */
 261              		.loc 1 88 0
 262 014c 42EA0363 		orr	r3, r2, r3, lsl #24
  86:Generated_Source\PSoC6\pdl\drivers\peripheral\dma/cy_dma.c ****                     _VAL2FLD(CY_DMA_CTL_SRC_INCR, config->srcXincrement) |
 263              		.loc 1 86 0
 264 0150 EB60     		str	r3, [r5, #12]
  92:Generated_Source\PSoC6\pdl\drivers\peripheral\dma/cy_dma.c ****                 break;
 265              		.loc 1 92 0
 266 0152 E36A     		ldr	r3, [r4, #44]
 267 0154 2B61     		str	r3, [r5, #16]
 268              		.loc 1 126 0
 269 0156 0020     		movs	r0, #0
  93:Generated_Source\PSoC6\pdl\drivers\peripheral\dma/cy_dma.c ****             }
 270              		.loc 1 93 0
 271 0158 38BD     		pop	{r3, r4, r5, pc}
 272              	.LVL16:
 273              	.L14:
  97:Generated_Source\PSoC6\pdl\drivers\peripheral\dma/cy_dma.c ****                 CY_ASSERT_L2(CY_DMA_IS_INCR_VALID(config->dstXincrement));
 274              		.loc 1 97 0
 275 015a 6369     		ldr	r3, [r4, #20]
 276 015c 03F50063 		add	r3, r3, #2048
 277 0160 B3F5805F 		cmp	r3, #4096
 278 0164 03D3     		bcc	.L18
  97:Generated_Source\PSoC6\pdl\drivers\peripheral\dma/cy_dma.c ****                 CY_ASSERT_L2(CY_DMA_IS_INCR_VALID(config->dstXincrement));
 279              		.loc 1 97 0 is_stmt 0 discriminator 1
 280 0166 6121     		movs	r1, #97
 281 0168 2948     		ldr	r0, .L29
 282 016a FFF7FEFF 		bl	Cy_SysLib_AssertFailed
 283              	.LVL17:
 284              	.L18:
  98:Generated_Source\PSoC6\pdl\drivers\peripheral\dma/cy_dma.c ****                 CY_ASSERT_L2(CY_DMA_IS_COUNT_VALID(config->xCount));
 285              		.loc 1 98 0 is_stmt 1
 286 016e A369     		ldr	r3, [r4, #24]
 287 0170 03F50063 		add	r3, r3, #2048
 288 0174 B3F5805F 		cmp	r3, #4096
 289 0178 03D3     		bcc	.L19
  98:Generated_Source\PSoC6\pdl\drivers\peripheral\dma/cy_dma.c ****                 CY_ASSERT_L2(CY_DMA_IS_COUNT_VALID(config->xCount));
 290              		.loc 1 98 0 is_stmt 0 discriminator 1
 291 017a 6221     		movs	r1, #98
 292 017c 2448     		ldr	r0, .L29
 293 017e FFF7FEFF 		bl	Cy_SysLib_AssertFailed
 294              	.LVL18:
 295              	.L19:
  99:Generated_Source\PSoC6\pdl\drivers\peripheral\dma/cy_dma.c ****                 CY_ASSERT_L2(CY_DMA_IS_INCR_VALID(config->srcYincrement));
 296              		.loc 1 99 0 is_stmt 1
 297 0182 E369     		ldr	r3, [r4, #28]
 298 0184 013B     		subs	r3, r3, #1
 299 0186 FF2B     		cmp	r3, #255
 300 0188 03D9     		bls	.L20
ARM GAS  C:\Users\cypress\AppData\Local\Temp\cczqZZvj.s 			page 9


  99:Generated_Source\PSoC6\pdl\drivers\peripheral\dma/cy_dma.c ****                 CY_ASSERT_L2(CY_DMA_IS_INCR_VALID(config->srcYincrement));
 301              		.loc 1 99 0 is_stmt 0 discriminator 1
 302 018a 6321     		movs	r1, #99
 303 018c 2048     		ldr	r0, .L29
 304 018e FFF7FEFF 		bl	Cy_SysLib_AssertFailed
 305              	.LVL19:
 306              	.L20:
 100:Generated_Source\PSoC6\pdl\drivers\peripheral\dma/cy_dma.c ****                 CY_ASSERT_L2(CY_DMA_IS_INCR_VALID(config->dstYincrement));
 307              		.loc 1 100 0 is_stmt 1
 308 0192 236A     		ldr	r3, [r4, #32]
 309 0194 03F50063 		add	r3, r3, #2048
 310 0198 B3F5805F 		cmp	r3, #4096
 311 019c 03D3     		bcc	.L21
 100:Generated_Source\PSoC6\pdl\drivers\peripheral\dma/cy_dma.c ****                 CY_ASSERT_L2(CY_DMA_IS_INCR_VALID(config->dstYincrement));
 312              		.loc 1 100 0 is_stmt 0 discriminator 1
 313 019e 6421     		movs	r1, #100
 314 01a0 1B48     		ldr	r0, .L29
 315 01a2 FFF7FEFF 		bl	Cy_SysLib_AssertFailed
 316              	.LVL20:
 317              	.L21:
 101:Generated_Source\PSoC6\pdl\drivers\peripheral\dma/cy_dma.c ****                 CY_ASSERT_L2(CY_DMA_IS_COUNT_VALID(config->yCount));
 318              		.loc 1 101 0 is_stmt 1
 319 01a6 636A     		ldr	r3, [r4, #36]
 320 01a8 03F50063 		add	r3, r3, #2048
 321 01ac B3F5805F 		cmp	r3, #4096
 322 01b0 03D3     		bcc	.L22
 101:Generated_Source\PSoC6\pdl\drivers\peripheral\dma/cy_dma.c ****                 CY_ASSERT_L2(CY_DMA_IS_COUNT_VALID(config->yCount));
 323              		.loc 1 101 0 is_stmt 0 discriminator 1
 324 01b2 6521     		movs	r1, #101
 325 01b4 1648     		ldr	r0, .L29
 326 01b6 FFF7FEFF 		bl	Cy_SysLib_AssertFailed
 327              	.LVL21:
 328              	.L22:
 102:Generated_Source\PSoC6\pdl\drivers\peripheral\dma/cy_dma.c ****                 
 329              		.loc 1 102 0 is_stmt 1
 330 01ba A36A     		ldr	r3, [r4, #40]
 331 01bc 013B     		subs	r3, r3, #1
 332 01be FF2B     		cmp	r3, #255
 333 01c0 03D9     		bls	.L23
 102:Generated_Source\PSoC6\pdl\drivers\peripheral\dma/cy_dma.c ****                 
 334              		.loc 1 102 0 is_stmt 0 discriminator 1
 335 01c2 6621     		movs	r1, #102
 336 01c4 1248     		ldr	r0, .L29
 337 01c6 FFF7FEFF 		bl	Cy_SysLib_AssertFailed
 338              	.LVL22:
 339              	.L23:
 105:Generated_Source\PSoC6\pdl\drivers\peripheral\dma/cy_dma.c ****                     _VAL2FLD(CY_DMA_CTL_DST_INCR, config->dstXincrement) |
 340              		.loc 1 105 0 is_stmt 1
 341 01ca 6269     		ldr	r2, [r4, #20]
 342 01cc C2F30B01 		ubfx	r1, r2, #0, #12
 106:Generated_Source\PSoC6\pdl\drivers\peripheral\dma/cy_dma.c ****     /* Convert the data count from the user's range (1-256) into the machine range (0-255). */
 343              		.loc 1 106 0
 344 01d0 A269     		ldr	r2, [r4, #24]
 345 01d2 104B     		ldr	r3, .L29+4
 346 01d4 03EA0232 		and	r2, r3, r2, lsl #12
 105:Generated_Source\PSoC6\pdl\drivers\peripheral\dma/cy_dma.c ****                     _VAL2FLD(CY_DMA_CTL_DST_INCR, config->dstXincrement) |
 347              		.loc 1 105 0
ARM GAS  C:\Users\cypress\AppData\Local\Temp\cczqZZvj.s 			page 10


 348 01d8 0A43     		orrs	r2, r2, r1
 108:Generated_Source\PSoC6\pdl\drivers\peripheral\dma/cy_dma.c ****                     
 349              		.loc 1 108 0
 350 01da E169     		ldr	r1, [r4, #28]
 351 01dc 0139     		subs	r1, r1, #1
 106:Generated_Source\PSoC6\pdl\drivers\peripheral\dma/cy_dma.c ****     /* Convert the data count from the user's range (1-256) into the machine range (0-255). */
 352              		.loc 1 106 0
 353 01de 42EA0162 		orr	r2, r2, r1, lsl #24
 104:Generated_Source\PSoC6\pdl\drivers\peripheral\dma/cy_dma.c ****                     _VAL2FLD(CY_DMA_CTL_SRC_INCR, config->srcXincrement) |
 354              		.loc 1 104 0
 355 01e2 EA60     		str	r2, [r5, #12]
 111:Generated_Source\PSoC6\pdl\drivers\peripheral\dma/cy_dma.c ****                     _VAL2FLD(CY_DMA_CTL_DST_INCR, config->dstYincrement) |
 356              		.loc 1 111 0
 357 01e4 226A     		ldr	r2, [r4, #32]
 358 01e6 C2F30B02 		ubfx	r2, r2, #0, #12
 112:Generated_Source\PSoC6\pdl\drivers\peripheral\dma/cy_dma.c ****     /* Convert the data count from the user's range (1-256) into the machine range (0-255). */
 359              		.loc 1 112 0
 360 01ea 616A     		ldr	r1, [r4, #36]
 361 01ec 03EA0133 		and	r3, r3, r1, lsl #12
 111:Generated_Source\PSoC6\pdl\drivers\peripheral\dma/cy_dma.c ****                     _VAL2FLD(CY_DMA_CTL_DST_INCR, config->dstYincrement) |
 362              		.loc 1 111 0
 363 01f0 1343     		orrs	r3, r3, r2
 114:Generated_Source\PSoC6\pdl\drivers\peripheral\dma/cy_dma.c ****                     
 364              		.loc 1 114 0
 365 01f2 A26A     		ldr	r2, [r4, #40]
 366 01f4 013A     		subs	r2, r2, #1
 112:Generated_Source\PSoC6\pdl\drivers\peripheral\dma/cy_dma.c ****     /* Convert the data count from the user's range (1-256) into the machine range (0-255). */
 367              		.loc 1 112 0
 368 01f6 43EA0263 		orr	r3, r3, r2, lsl #24
 110:Generated_Source\PSoC6\pdl\drivers\peripheral\dma/cy_dma.c ****                     _VAL2FLD(CY_DMA_CTL_SRC_INCR, config->srcYincrement) |
 369              		.loc 1 110 0
 370 01fa 2B61     		str	r3, [r5, #16]
 116:Generated_Source\PSoC6\pdl\drivers\peripheral\dma/cy_dma.c ****                 break;
 371              		.loc 1 116 0
 372 01fc E36A     		ldr	r3, [r4, #44]
 373 01fe 6B61     		str	r3, [r5, #20]
 374              		.loc 1 126 0
 375 0200 0020     		movs	r0, #0
 117:Generated_Source\PSoC6\pdl\drivers\peripheral\dma/cy_dma.c ****             }
 376              		.loc 1 117 0
 377 0202 38BD     		pop	{r3, r4, r5, pc}
 378              	.LVL23:
 379              	.L24:
 380              		.cfi_def_cfa_offset 0
 381              		.cfi_restore 3
 382              		.cfi_restore 4
 383              		.cfi_restore 5
 384              		.cfi_restore 14
  44:Generated_Source\PSoC6\pdl\drivers\peripheral\dma/cy_dma.c **** 
 385              		.loc 1 44 0
 386 0204 0448     		ldr	r0, .L29+8
 387              	.LVL24:
 127:Generated_Source\PSoC6\pdl\drivers\peripheral\dma/cy_dma.c ****     }
 128:Generated_Source\PSoC6\pdl\drivers\peripheral\dma/cy_dma.c **** 
 129:Generated_Source\PSoC6\pdl\drivers\peripheral\dma/cy_dma.c ****     return retVal;
 130:Generated_Source\PSoC6\pdl\drivers\peripheral\dma/cy_dma.c **** }
 388              		.loc 1 130 0
ARM GAS  C:\Users\cypress\AppData\Local\Temp\cczqZZvj.s 			page 11


 389 0206 7047     		bx	lr
 390              	.LVL25:
 391              	.L25:
 392              		.cfi_def_cfa_offset 16
 393              		.cfi_offset 3, -16
 394              		.cfi_offset 4, -12
 395              		.cfi_offset 5, -8
 396              		.cfi_offset 14, -4
  44:Generated_Source\PSoC6\pdl\drivers\peripheral\dma/cy_dma.c **** 
 397              		.loc 1 44 0
 398 0208 0348     		ldr	r0, .L29+8
 399              	.LVL26:
 400 020a 38BD     		pop	{r3, r4, r5, pc}
 401              	.LVL27:
 402              	.L27:
 126:Generated_Source\PSoC6\pdl\drivers\peripheral\dma/cy_dma.c ****     }
 403              		.loc 1 126 0
 404 020c 0020     		movs	r0, #0
 405              	.LVL28:
 406              		.loc 1 130 0
 407 020e 38BD     		pop	{r3, r4, r5, pc}
 408              	.LVL29:
 409              	.L30:
 410              		.align	2
 411              	.L29:
 412 0210 00000000 		.word	.LC0
 413 0214 00F0FF00 		.word	16773120
 414 0218 01004E00 		.word	5111809
 415              		.cfi_endproc
 416              	.LFE176:
 417              		.size	Cy_DMA_Descriptor_Init, .-Cy_DMA_Descriptor_Init
 418              		.section	.text.Cy_DMA_Descriptor_DeInit,"ax",%progbits
 419              		.align	2
 420              		.global	Cy_DMA_Descriptor_DeInit
 421              		.thumb
 422              		.thumb_func
 423              		.type	Cy_DMA_Descriptor_DeInit, %function
 424              	Cy_DMA_Descriptor_DeInit:
 425              	.LFB177:
 131:Generated_Source\PSoC6\pdl\drivers\peripheral\dma/cy_dma.c **** 
 132:Generated_Source\PSoC6\pdl\drivers\peripheral\dma/cy_dma.c **** 
 133:Generated_Source\PSoC6\pdl\drivers\peripheral\dma/cy_dma.c **** /*******************************************************************************
 134:Generated_Source\PSoC6\pdl\drivers\peripheral\dma/cy_dma.c **** * Function Name: Cy_DMA_Descriptor_DeInit
 135:Generated_Source\PSoC6\pdl\drivers\peripheral\dma/cy_dma.c **** ****************************************************************************//**
 136:Generated_Source\PSoC6\pdl\drivers\peripheral\dma/cy_dma.c **** *
 137:Generated_Source\PSoC6\pdl\drivers\peripheral\dma/cy_dma.c **** * Clears the content of the specified descriptor.
 138:Generated_Source\PSoC6\pdl\drivers\peripheral\dma/cy_dma.c **** *
 139:Generated_Source\PSoC6\pdl\drivers\peripheral\dma/cy_dma.c **** * \param descriptor
 140:Generated_Source\PSoC6\pdl\drivers\peripheral\dma/cy_dma.c **** * The descriptor structure instance declared by the user/component.
 141:Generated_Source\PSoC6\pdl\drivers\peripheral\dma/cy_dma.c **** *
 142:Generated_Source\PSoC6\pdl\drivers\peripheral\dma/cy_dma.c **** *******************************************************************************/
 143:Generated_Source\PSoC6\pdl\drivers\peripheral\dma/cy_dma.c **** void Cy_DMA_Descriptor_DeInit(cy_stc_dma_descriptor_t * descriptor)
 144:Generated_Source\PSoC6\pdl\drivers\peripheral\dma/cy_dma.c **** {
 426              		.loc 1 144 0
 427              		.cfi_startproc
 428              		@ args = 0, pretend = 0, frame = 0
 429              		@ frame_needed = 0, uses_anonymous_args = 0
ARM GAS  C:\Users\cypress\AppData\Local\Temp\cczqZZvj.s 			page 12


 430              		@ link register save eliminated.
 431              	.LVL30:
 145:Generated_Source\PSoC6\pdl\drivers\peripheral\dma/cy_dma.c ****     descriptor->ctl = 0UL;
 432              		.loc 1 145 0
 433 0000 0023     		movs	r3, #0
 434 0002 0360     		str	r3, [r0]
 146:Generated_Source\PSoC6\pdl\drivers\peripheral\dma/cy_dma.c ****     descriptor->src = 0UL;
 435              		.loc 1 146 0
 436 0004 4360     		str	r3, [r0, #4]
 147:Generated_Source\PSoC6\pdl\drivers\peripheral\dma/cy_dma.c ****     descriptor->dst = 0UL;
 437              		.loc 1 147 0
 438 0006 8360     		str	r3, [r0, #8]
 148:Generated_Source\PSoC6\pdl\drivers\peripheral\dma/cy_dma.c ****     descriptor->xCtl = 0UL;
 439              		.loc 1 148 0
 440 0008 C360     		str	r3, [r0, #12]
 149:Generated_Source\PSoC6\pdl\drivers\peripheral\dma/cy_dma.c ****     descriptor->yCtl = 0UL;
 441              		.loc 1 149 0
 442 000a 0361     		str	r3, [r0, #16]
 150:Generated_Source\PSoC6\pdl\drivers\peripheral\dma/cy_dma.c ****     descriptor->nextPtr = 0UL;
 443              		.loc 1 150 0
 444 000c 4361     		str	r3, [r0, #20]
 445 000e 7047     		bx	lr
 446              		.cfi_endproc
 447              	.LFE177:
 448              		.size	Cy_DMA_Descriptor_DeInit, .-Cy_DMA_Descriptor_DeInit
 449              		.section	.text.Cy_DMA_Channel_Init,"ax",%progbits
 450              		.align	2
 451              		.global	Cy_DMA_Channel_Init
 452              		.thumb
 453              		.thumb_func
 454              		.type	Cy_DMA_Channel_Init, %function
 455              	Cy_DMA_Channel_Init:
 456              	.LFB178:
 151:Generated_Source\PSoC6\pdl\drivers\peripheral\dma/cy_dma.c **** }
 152:Generated_Source\PSoC6\pdl\drivers\peripheral\dma/cy_dma.c **** 
 153:Generated_Source\PSoC6\pdl\drivers\peripheral\dma/cy_dma.c **** 
 154:Generated_Source\PSoC6\pdl\drivers\peripheral\dma/cy_dma.c **** /*******************************************************************************
 155:Generated_Source\PSoC6\pdl\drivers\peripheral\dma/cy_dma.c **** * Function Name: Cy_DMA_Channel_Init
 156:Generated_Source\PSoC6\pdl\drivers\peripheral\dma/cy_dma.c **** ****************************************************************************//**
 157:Generated_Source\PSoC6\pdl\drivers\peripheral\dma/cy_dma.c **** *
 158:Generated_Source\PSoC6\pdl\drivers\peripheral\dma/cy_dma.c **** * Initializes the DMA channel with a descriptor and other parameters.
 159:Generated_Source\PSoC6\pdl\drivers\peripheral\dma/cy_dma.c **** *
 160:Generated_Source\PSoC6\pdl\drivers\peripheral\dma/cy_dma.c **** * \param base
 161:Generated_Source\PSoC6\pdl\drivers\peripheral\dma/cy_dma.c **** * The pointer to the hardware DMA block.
 162:Generated_Source\PSoC6\pdl\drivers\peripheral\dma/cy_dma.c **** *
 163:Generated_Source\PSoC6\pdl\drivers\peripheral\dma/cy_dma.c **** * \param channel
 164:Generated_Source\PSoC6\pdl\drivers\peripheral\dma/cy_dma.c **** * A channel number.
 165:Generated_Source\PSoC6\pdl\drivers\peripheral\dma/cy_dma.c **** *
 166:Generated_Source\PSoC6\pdl\drivers\peripheral\dma/cy_dma.c **** * \param channelConfig
 167:Generated_Source\PSoC6\pdl\drivers\peripheral\dma/cy_dma.c **** * The structure that has the initialization information for the
 168:Generated_Source\PSoC6\pdl\drivers\peripheral\dma/cy_dma.c **** * channel.
 169:Generated_Source\PSoC6\pdl\drivers\peripheral\dma/cy_dma.c **** *
 170:Generated_Source\PSoC6\pdl\drivers\peripheral\dma/cy_dma.c **** * \return
 171:Generated_Source\PSoC6\pdl\drivers\peripheral\dma/cy_dma.c **** * The status /ref cy_en_dma_status_t.
 172:Generated_Source\PSoC6\pdl\drivers\peripheral\dma/cy_dma.c **** *
 173:Generated_Source\PSoC6\pdl\drivers\peripheral\dma/cy_dma.c **** *******************************************************************************/
 174:Generated_Source\PSoC6\pdl\drivers\peripheral\dma/cy_dma.c **** cy_en_dma_status_t Cy_DMA_Channel_Init(DW_Type * base, uint32_t channel, cy_stc_dma_channel_config_
ARM GAS  C:\Users\cypress\AppData\Local\Temp\cczqZZvj.s 			page 13


 175:Generated_Source\PSoC6\pdl\drivers\peripheral\dma/cy_dma.c **** {
 457              		.loc 1 175 0
 458              		.cfi_startproc
 459              		@ args = 0, pretend = 0, frame = 0
 460              		@ frame_needed = 0, uses_anonymous_args = 0
 461              	.LVL31:
 176:Generated_Source\PSoC6\pdl\drivers\peripheral\dma/cy_dma.c ****     cy_en_dma_status_t retVal = CY_DMA_BAD_PARAM;
 177:Generated_Source\PSoC6\pdl\drivers\peripheral\dma/cy_dma.c **** 
 178:Generated_Source\PSoC6\pdl\drivers\peripheral\dma/cy_dma.c ****     if (((CY_DMA_IS_DW_CH_NR_VALID(base, channel)) && (NULL != channelConfig) && (NULL != channelCo
 462              		.loc 1 178 0
 463 0000 214B     		ldr	r3, .L48
 464 0002 9842     		cmp	r0, r3
 465 0004 03D0     		beq	.L33
 466              		.loc 1 178 0 is_stmt 0 discriminator 2
 467 0006 03F58053 		add	r3, r3, #4096
 468 000a 9842     		cmp	r0, r3
 469 000c 34D1     		bne	.L39
 470              	.L33:
 471              		.loc 1 178 0 discriminator 3
 472 000e 0F29     		cmp	r1, #15
 473 0010 34D8     		bhi	.L40
 474              		.loc 1 178 0 discriminator 4
 475 0012 002A     		cmp	r2, #0
 476 0014 34D0     		beq	.L41
 477              		.loc 1 178 0 discriminator 5
 478 0016 1368     		ldr	r3, [r2]
 479 0018 002B     		cmp	r3, #0
 480 001a 33D0     		beq	.L42
 175:Generated_Source\PSoC6\pdl\drivers\peripheral\dma/cy_dma.c ****     cy_en_dma_status_t retVal = CY_DMA_BAD_PARAM;
 481              		.loc 1 175 0 is_stmt 1
 482 001c 70B5     		push	{r4, r5, r6, lr}
 483              		.cfi_def_cfa_offset 16
 484              		.cfi_offset 4, -16
 485              		.cfi_offset 5, -12
 486              		.cfi_offset 6, -8
 487              		.cfi_offset 14, -4
 488 001e 1646     		mov	r6, r2
 489 0020 0D46     		mov	r5, r1
 490 0022 0446     		mov	r4, r0
 179:Generated_Source\PSoC6\pdl\drivers\peripheral\dma/cy_dma.c ****     {
 180:Generated_Source\PSoC6\pdl\drivers\peripheral\dma/cy_dma.c ****         CY_ASSERT_L2(CY_DMA_IS_PRIORITY_VALID(channelConfig->priority));
 491              		.loc 1 180 0
 492 0024 9368     		ldr	r3, [r2, #8]
 493 0026 032B     		cmp	r3, #3
 494 0028 03D9     		bls	.L35
 495              		.loc 1 180 0 is_stmt 0 discriminator 1
 496 002a B421     		movs	r1, #180
 497              	.LVL32:
 498 002c 1748     		ldr	r0, .L48+4
 499              	.LVL33:
 500 002e FFF7FEFF 		bl	Cy_SysLib_AssertFailed
 501              	.LVL34:
 502              	.L35:
 181:Generated_Source\PSoC6\pdl\drivers\peripheral\dma/cy_dma.c ****         
 182:Generated_Source\PSoC6\pdl\drivers\peripheral\dma/cy_dma.c ****         /* Set the current descriptor */
 183:Generated_Source\PSoC6\pdl\drivers\peripheral\dma/cy_dma.c ****         base->CH_STRUCT[channel].CH_CURR_PTR = (uint32_t)channelConfig->descriptor;
 503              		.loc 1 183 0 is_stmt 1
ARM GAS  C:\Users\cypress\AppData\Local\Temp\cczqZZvj.s 			page 14


 504 0032 3268     		ldr	r2, [r6]
 505 0034 04EB4513 		add	r3, r4, r5, lsl #5
 506 0038 C3F80C28 		str	r2, [r3, #2060]
 184:Generated_Source\PSoC6\pdl\drivers\peripheral\dma/cy_dma.c **** 
 185:Generated_Source\PSoC6\pdl\drivers\peripheral\dma/cy_dma.c ****         /* Set the channel configuration */
 186:Generated_Source\PSoC6\pdl\drivers\peripheral\dma/cy_dma.c ****         base->CH_STRUCT[channel].CH_CTL = _BOOL2FLD(DW_CH_STRUCT_CH_CTL_PREEMPTABLE, channelConfig-
 507              		.loc 1 186 0
 508 003c 3379     		ldrb	r3, [r6, #4]	@ zero_extendqisi2
 509 003e 13B1     		cbz	r3, .L43
 510 0040 4FF48022 		mov	r2, #262144
 511 0044 00E0     		b	.L36
 512              	.L43:
 513 0046 0022     		movs	r2, #0
 514              	.L36:
 187:Generated_Source\PSoC6\pdl\drivers\peripheral\dma/cy_dma.c ****                                            _VAL2FLD(DW_CH_STRUCT_CH_CTL_PRIO,        channelConfig-
 515              		.loc 1 187 0
 516 0048 B368     		ldr	r3, [r6, #8]
 517 004a 1B04     		lsls	r3, r3, #16
 518 004c 03F44033 		and	r3, r3, #196608
 186:Generated_Source\PSoC6\pdl\drivers\peripheral\dma/cy_dma.c ****                                            _VAL2FLD(DW_CH_STRUCT_CH_CTL_PRIO,        channelConfig-
 519              		.loc 1 186 0
 520 0050 1343     		orrs	r3, r3, r2
 188:Generated_Source\PSoC6\pdl\drivers\peripheral\dma/cy_dma.c ****                                           _BOOL2FLD(DW_CH_STRUCT_CH_CTL_ENABLED,     channelConfig-
 521              		.loc 1 188 0
 522 0052 327B     		ldrb	r2, [r6, #12]	@ zero_extendqisi2
 523 0054 12B1     		cbz	r2, .L44
 524 0056 4FF00042 		mov	r2, #-2147483648
 525 005a 00E0     		b	.L37
 526              	.L44:
 527 005c 0022     		movs	r2, #0
 528              	.L37:
 187:Generated_Source\PSoC6\pdl\drivers\peripheral\dma/cy_dma.c ****                                            _VAL2FLD(DW_CH_STRUCT_CH_CTL_PRIO,        channelConfig-
 529              		.loc 1 187 0
 530 005e 1343     		orrs	r3, r3, r2
 189:Generated_Source\PSoC6\pdl\drivers\peripheral\dma/cy_dma.c ****                                           _BOOL2FLD(DW_CH_STRUCT_CH_CTL_B,           channelConfig-
 531              		.loc 1 189 0
 532 0060 727B     		ldrb	r2, [r6, #13]	@ zero_extendqisi2
 533 0062 0AB1     		cbz	r2, .L45
 534 0064 0422     		movs	r2, #4
 535 0066 00E0     		b	.L38
 536              	.L45:
 537 0068 0022     		movs	r2, #0
 538              	.L38:
 188:Generated_Source\PSoC6\pdl\drivers\peripheral\dma/cy_dma.c ****                                           _BOOL2FLD(DW_CH_STRUCT_CH_CTL_ENABLED,     channelConfig-
 539              		.loc 1 188 0
 540 006a 1343     		orrs	r3, r3, r2
 186:Generated_Source\PSoC6\pdl\drivers\peripheral\dma/cy_dma.c ****                                            _VAL2FLD(DW_CH_STRUCT_CH_CTL_PRIO,        channelConfig-
 541              		.loc 1 186 0
 542 006c 05F14001 		add	r1, r5, #64
 543 0070 4901     		lsls	r1, r1, #5
 544 0072 6350     		str	r3, [r4, r1]
 545              	.LVL35:
 190:Generated_Source\PSoC6\pdl\drivers\peripheral\dma/cy_dma.c ****         retVal = CY_DMA_SUCCESS;
 546              		.loc 1 190 0
 547 0074 0020     		movs	r0, #0
 548 0076 70BD     		pop	{r4, r5, r6, pc}
 549              	.LVL36:
ARM GAS  C:\Users\cypress\AppData\Local\Temp\cczqZZvj.s 			page 15


 550              	.L39:
 551              		.cfi_def_cfa_offset 0
 552              		.cfi_restore 4
 553              		.cfi_restore 5
 554              		.cfi_restore 6
 555              		.cfi_restore 14
 176:Generated_Source\PSoC6\pdl\drivers\peripheral\dma/cy_dma.c **** 
 556              		.loc 1 176 0
 557 0078 0548     		ldr	r0, .L48+8
 558              	.LVL37:
 559 007a 7047     		bx	lr
 560              	.LVL38:
 561              	.L40:
 562 007c 0448     		ldr	r0, .L48+8
 563              	.LVL39:
 191:Generated_Source\PSoC6\pdl\drivers\peripheral\dma/cy_dma.c ****     }
 192:Generated_Source\PSoC6\pdl\drivers\peripheral\dma/cy_dma.c **** 
 193:Generated_Source\PSoC6\pdl\drivers\peripheral\dma/cy_dma.c ****     return (retVal);
 194:Generated_Source\PSoC6\pdl\drivers\peripheral\dma/cy_dma.c **** }
 564              		.loc 1 194 0
 565 007e 7047     		bx	lr
 566              	.LVL40:
 567              	.L41:
 176:Generated_Source\PSoC6\pdl\drivers\peripheral\dma/cy_dma.c **** 
 568              		.loc 1 176 0
 569 0080 0348     		ldr	r0, .L48+8
 570              	.LVL41:
 571 0082 7047     		bx	lr
 572              	.LVL42:
 573              	.L42:
 574 0084 0248     		ldr	r0, .L48+8
 575              	.LVL43:
 576 0086 7047     		bx	lr
 577              	.L49:
 578              		.align	2
 579              	.L48:
 580 0088 00002840 		.word	1076363264
 581 008c 00000000 		.word	.LC0
 582 0090 01004E00 		.word	5111809
 583              		.cfi_endproc
 584              	.LFE178:
 585              		.size	Cy_DMA_Channel_Init, .-Cy_DMA_Channel_Init
 586              		.section	.text.Cy_DMA_Channel_DeInit,"ax",%progbits
 587              		.align	2
 588              		.global	Cy_DMA_Channel_DeInit
 589              		.thumb
 590              		.thumb_func
 591              		.type	Cy_DMA_Channel_DeInit, %function
 592              	Cy_DMA_Channel_DeInit:
 593              	.LFB179:
 195:Generated_Source\PSoC6\pdl\drivers\peripheral\dma/cy_dma.c **** 
 196:Generated_Source\PSoC6\pdl\drivers\peripheral\dma/cy_dma.c **** 
 197:Generated_Source\PSoC6\pdl\drivers\peripheral\dma/cy_dma.c **** /*******************************************************************************
 198:Generated_Source\PSoC6\pdl\drivers\peripheral\dma/cy_dma.c **** * Function Name: Cy_DMA_Channel_DeInit
 199:Generated_Source\PSoC6\pdl\drivers\peripheral\dma/cy_dma.c **** ****************************************************************************//**
 200:Generated_Source\PSoC6\pdl\drivers\peripheral\dma/cy_dma.c **** *
 201:Generated_Source\PSoC6\pdl\drivers\peripheral\dma/cy_dma.c **** * Clears the content of registers corresponding to the channel.
ARM GAS  C:\Users\cypress\AppData\Local\Temp\cczqZZvj.s 			page 16


 202:Generated_Source\PSoC6\pdl\drivers\peripheral\dma/cy_dma.c **** *
 203:Generated_Source\PSoC6\pdl\drivers\peripheral\dma/cy_dma.c **** * \param base
 204:Generated_Source\PSoC6\pdl\drivers\peripheral\dma/cy_dma.c **** * The pointer to the hardware DMA block.
 205:Generated_Source\PSoC6\pdl\drivers\peripheral\dma/cy_dma.c **** *
 206:Generated_Source\PSoC6\pdl\drivers\peripheral\dma/cy_dma.c **** * \param channel
 207:Generated_Source\PSoC6\pdl\drivers\peripheral\dma/cy_dma.c **** * A channel number.
 208:Generated_Source\PSoC6\pdl\drivers\peripheral\dma/cy_dma.c **** *
 209:Generated_Source\PSoC6\pdl\drivers\peripheral\dma/cy_dma.c **** *******************************************************************************/
 210:Generated_Source\PSoC6\pdl\drivers\peripheral\dma/cy_dma.c **** void Cy_DMA_Channel_DeInit(DW_Type * base, uint32_t channel)
 211:Generated_Source\PSoC6\pdl\drivers\peripheral\dma/cy_dma.c **** {
 594              		.loc 1 211 0
 595              		.cfi_startproc
 596              		@ args = 0, pretend = 0, frame = 0
 597              		@ frame_needed = 0, uses_anonymous_args = 0
 598              	.LVL44:
 599 0000 38B5     		push	{r3, r4, r5, lr}
 600              		.cfi_def_cfa_offset 16
 601              		.cfi_offset 3, -16
 602              		.cfi_offset 4, -12
 603              		.cfi_offset 5, -8
 604              		.cfi_offset 14, -4
 605 0002 0446     		mov	r4, r0
 606 0004 0D46     		mov	r5, r1
 212:Generated_Source\PSoC6\pdl\drivers\peripheral\dma/cy_dma.c ****     CY_ASSERT_L1(CY_DMA_IS_DW_CH_NR_VALID(base, channel));
 607              		.loc 1 212 0
 608 0006 0D4B     		ldr	r3, .L55
 609 0008 9842     		cmp	r0, r3
 610 000a 03D0     		beq	.L51
 611              		.loc 1 212 0 is_stmt 0 discriminator 1
 612 000c 03F58053 		add	r3, r3, #4096
 613 0010 9842     		cmp	r0, r3
 614 0012 01D1     		bne	.L52
 615              	.L51:
 616              		.loc 1 212 0 discriminator 4
 617 0014 0F2D     		cmp	r5, #15
 618 0016 03D9     		bls	.L53
 619              	.L52:
 620              		.loc 1 212 0 discriminator 5
 621 0018 D421     		movs	r1, #212
 622              	.LVL45:
 623 001a 0948     		ldr	r0, .L55+4
 624              	.LVL46:
 625 001c FFF7FEFF 		bl	Cy_SysLib_AssertFailed
 626              	.LVL47:
 627              	.L53:
 213:Generated_Source\PSoC6\pdl\drivers\peripheral\dma/cy_dma.c ****     
 214:Generated_Source\PSoC6\pdl\drivers\peripheral\dma/cy_dma.c ****     base->CH_STRUCT[channel].CH_CTL = 0UL;
 628              		.loc 1 214 0 is_stmt 1
 629 0020 05F14002 		add	r2, r5, #64
 630 0024 5201     		lsls	r2, r2, #5
 631 0026 0023     		movs	r3, #0
 632 0028 A350     		str	r3, [r4, r2]
 215:Generated_Source\PSoC6\pdl\drivers\peripheral\dma/cy_dma.c ****     base->CH_STRUCT[channel].CH_IDX = 0UL;
 633              		.loc 1 215 0
 634 002a 04EB4514 		add	r4, r4, r5, lsl #5
 635              	.LVL48:
 636 002e C4F80838 		str	r3, [r4, #2056]
ARM GAS  C:\Users\cypress\AppData\Local\Temp\cczqZZvj.s 			page 17


 216:Generated_Source\PSoC6\pdl\drivers\peripheral\dma/cy_dma.c ****     base->CH_STRUCT[channel].CH_CURR_PTR = 0UL;
 637              		.loc 1 216 0
 638 0032 C4F80C38 		str	r3, [r4, #2060]
 217:Generated_Source\PSoC6\pdl\drivers\peripheral\dma/cy_dma.c ****     base->CH_STRUCT[channel].INTR_MASK = 0UL;
 639              		.loc 1 217 0
 640 0036 C4F81838 		str	r3, [r4, #2072]
 641 003a 38BD     		pop	{r3, r4, r5, pc}
 642              	.LVL49:
 643              	.L56:
 644              		.align	2
 645              	.L55:
 646 003c 00002840 		.word	1076363264
 647 0040 00000000 		.word	.LC0
 648              		.cfi_endproc
 649              	.LFE179:
 650              		.size	Cy_DMA_Channel_DeInit, .-Cy_DMA_Channel_DeInit
 651              		.section	.text.Cy_DMA_Descriptor_SetNextDescriptor,"ax",%progbits
 652              		.align	2
 653              		.global	Cy_DMA_Descriptor_SetNextDescriptor
 654              		.thumb
 655              		.thumb_func
 656              		.type	Cy_DMA_Descriptor_SetNextDescriptor, %function
 657              	Cy_DMA_Descriptor_SetNextDescriptor:
 658              	.LFB180:
 218:Generated_Source\PSoC6\pdl\drivers\peripheral\dma/cy_dma.c **** }
 219:Generated_Source\PSoC6\pdl\drivers\peripheral\dma/cy_dma.c **** 
 220:Generated_Source\PSoC6\pdl\drivers\peripheral\dma/cy_dma.c **** 
 221:Generated_Source\PSoC6\pdl\drivers\peripheral\dma/cy_dma.c **** /*******************************************************************************
 222:Generated_Source\PSoC6\pdl\drivers\peripheral\dma/cy_dma.c **** * Function Name: Cy_DMA_Descriptor_SetNextDescriptor
 223:Generated_Source\PSoC6\pdl\drivers\peripheral\dma/cy_dma.c **** ****************************************************************************//**
 224:Generated_Source\PSoC6\pdl\drivers\peripheral\dma/cy_dma.c **** *
 225:Generated_Source\PSoC6\pdl\drivers\peripheral\dma/cy_dma.c **** * Sets a Next Descriptor parameter for the specified descriptor.
 226:Generated_Source\PSoC6\pdl\drivers\peripheral\dma/cy_dma.c **** *
 227:Generated_Source\PSoC6\pdl\drivers\peripheral\dma/cy_dma.c **** * Based on the descriptor type, the offset of the address for the next descriptor may
 228:Generated_Source\PSoC6\pdl\drivers\peripheral\dma/cy_dma.c **** * vary. For the single-transfer descriptor type, this register is at offset 0x0c.
 229:Generated_Source\PSoC6\pdl\drivers\peripheral\dma/cy_dma.c **** * For the 1D-transfer descriptor type, this register is at offset 0x10. 
 230:Generated_Source\PSoC6\pdl\drivers\peripheral\dma/cy_dma.c **** * For the 2D-transfer descriptor type, this register is at offset 0x14.  
 231:Generated_Source\PSoC6\pdl\drivers\peripheral\dma/cy_dma.c **** *
 232:Generated_Source\PSoC6\pdl\drivers\peripheral\dma/cy_dma.c **** * \param descriptor
 233:Generated_Source\PSoC6\pdl\drivers\peripheral\dma/cy_dma.c **** * The descriptor structure instance declared by the user/component.
 234:Generated_Source\PSoC6\pdl\drivers\peripheral\dma/cy_dma.c **** *
 235:Generated_Source\PSoC6\pdl\drivers\peripheral\dma/cy_dma.c **** * \param nextDescriptor
 236:Generated_Source\PSoC6\pdl\drivers\peripheral\dma/cy_dma.c **** * The pointer to the next descriptor.
 237:Generated_Source\PSoC6\pdl\drivers\peripheral\dma/cy_dma.c **** *
 238:Generated_Source\PSoC6\pdl\drivers\peripheral\dma/cy_dma.c **** *******************************************************************************/
 239:Generated_Source\PSoC6\pdl\drivers\peripheral\dma/cy_dma.c **** void Cy_DMA_Descriptor_SetNextDescriptor(cy_stc_dma_descriptor_t * descriptor, cy_stc_dma_descripto
 240:Generated_Source\PSoC6\pdl\drivers\peripheral\dma/cy_dma.c **** {
 659              		.loc 1 240 0
 660              		.cfi_startproc
 661              		@ args = 0, pretend = 0, frame = 0
 662              		@ frame_needed = 0, uses_anonymous_args = 0
 663              	.LVL50:
 664 0000 38B5     		push	{r3, r4, r5, lr}
 665              		.cfi_def_cfa_offset 16
 666              		.cfi_offset 3, -16
 667              		.cfi_offset 4, -12
 668              		.cfi_offset 5, -8
ARM GAS  C:\Users\cypress\AppData\Local\Temp\cczqZZvj.s 			page 18


 669              		.cfi_offset 14, -4
 670 0002 0D46     		mov	r5, r1
 241:Generated_Source\PSoC6\pdl\drivers\peripheral\dma/cy_dma.c ****     CY_ASSERT_L1(NULL != descriptor);
 671              		.loc 1 241 0
 672 0004 0446     		mov	r4, r0
 673 0006 18B9     		cbnz	r0, .L58
 674              		.loc 1 241 0 is_stmt 0 discriminator 1
 675 0008 F121     		movs	r1, #241
 676              	.LVL51:
 677 000a 0848     		ldr	r0, .L64
 678              	.LVL52:
 679 000c FFF7FEFF 		bl	Cy_SysLib_AssertFailed
 680              	.LVL53:
 681              	.L58:
 242:Generated_Source\PSoC6\pdl\drivers\peripheral\dma/cy_dma.c ****     
 243:Generated_Source\PSoC6\pdl\drivers\peripheral\dma/cy_dma.c ****     switch((cy_en_dma_descriptor_type_t) _FLD2VAL(CY_DMA_CTL_TYPE, descriptor->ctl))
 682              		.loc 1 243 0 is_stmt 1
 683 0010 2368     		ldr	r3, [r4]
 684 0012 9B0F     		lsrs	r3, r3, #30
 685 0014 012B     		cmp	r3, #1
 686 0016 05D0     		beq	.L60
 687 0018 13B1     		cbz	r3, .L61
 688 001a 022B     		cmp	r3, #2
 689 001c 04D0     		beq	.L62
 690 001e 38BD     		pop	{r3, r4, r5, pc}
 691              	.LVL54:
 692              	.L61:
 244:Generated_Source\PSoC6\pdl\drivers\peripheral\dma/cy_dma.c ****     {
 245:Generated_Source\PSoC6\pdl\drivers\peripheral\dma/cy_dma.c ****         case CY_DMA_SINGLE_TRANSFER:
 246:Generated_Source\PSoC6\pdl\drivers\peripheral\dma/cy_dma.c ****             descriptor->xCtl = (uint32_t)nextDescriptor;
 693              		.loc 1 246 0
 694 0020 E560     		str	r5, [r4, #12]
 247:Generated_Source\PSoC6\pdl\drivers\peripheral\dma/cy_dma.c ****             break;
 695              		.loc 1 247 0
 696 0022 38BD     		pop	{r3, r4, r5, pc}
 697              	.LVL55:
 698              	.L60:
 248:Generated_Source\PSoC6\pdl\drivers\peripheral\dma/cy_dma.c ****             
 249:Generated_Source\PSoC6\pdl\drivers\peripheral\dma/cy_dma.c ****         case CY_DMA_1D_TRANSFER:
 250:Generated_Source\PSoC6\pdl\drivers\peripheral\dma/cy_dma.c ****             descriptor->yCtl = (uint32_t)nextDescriptor;
 699              		.loc 1 250 0
 700 0024 2561     		str	r5, [r4, #16]
 251:Generated_Source\PSoC6\pdl\drivers\peripheral\dma/cy_dma.c ****             break;
 701              		.loc 1 251 0
 702 0026 38BD     		pop	{r3, r4, r5, pc}
 703              	.LVL56:
 704              	.L62:
 252:Generated_Source\PSoC6\pdl\drivers\peripheral\dma/cy_dma.c ****             
 253:Generated_Source\PSoC6\pdl\drivers\peripheral\dma/cy_dma.c ****         case CY_DMA_2D_TRANSFER:
 254:Generated_Source\PSoC6\pdl\drivers\peripheral\dma/cy_dma.c ****             descriptor->nextPtr = (uint32_t)nextDescriptor;
 705              		.loc 1 254 0
 706 0028 6561     		str	r5, [r4, #20]
 707 002a 38BD     		pop	{r3, r4, r5, pc}
 708              	.LVL57:
 709              	.L65:
 710              		.align	2
 711              	.L64:
ARM GAS  C:\Users\cypress\AppData\Local\Temp\cczqZZvj.s 			page 19


 712 002c 00000000 		.word	.LC0
 713              		.cfi_endproc
 714              	.LFE180:
 715              		.size	Cy_DMA_Descriptor_SetNextDescriptor, .-Cy_DMA_Descriptor_SetNextDescriptor
 716              		.section	.text.Cy_DMA_Descriptor_GetNextDescriptor,"ax",%progbits
 717              		.align	2
 718              		.global	Cy_DMA_Descriptor_GetNextDescriptor
 719              		.thumb
 720              		.thumb_func
 721              		.type	Cy_DMA_Descriptor_GetNextDescriptor, %function
 722              	Cy_DMA_Descriptor_GetNextDescriptor:
 723              	.LFB181:
 255:Generated_Source\PSoC6\pdl\drivers\peripheral\dma/cy_dma.c ****             break;
 256:Generated_Source\PSoC6\pdl\drivers\peripheral\dma/cy_dma.c ****             
 257:Generated_Source\PSoC6\pdl\drivers\peripheral\dma/cy_dma.c ****         default:
 258:Generated_Source\PSoC6\pdl\drivers\peripheral\dma/cy_dma.c ****             /* Unsupported type of descriptor */
 259:Generated_Source\PSoC6\pdl\drivers\peripheral\dma/cy_dma.c ****             break;
 260:Generated_Source\PSoC6\pdl\drivers\peripheral\dma/cy_dma.c ****     }
 261:Generated_Source\PSoC6\pdl\drivers\peripheral\dma/cy_dma.c **** }
 262:Generated_Source\PSoC6\pdl\drivers\peripheral\dma/cy_dma.c **** 
 263:Generated_Source\PSoC6\pdl\drivers\peripheral\dma/cy_dma.c **** 
 264:Generated_Source\PSoC6\pdl\drivers\peripheral\dma/cy_dma.c **** /*******************************************************************************
 265:Generated_Source\PSoC6\pdl\drivers\peripheral\dma/cy_dma.c **** * Function Name: Cy_DMA_Descriptor_GetNextDescriptor
 266:Generated_Source\PSoC6\pdl\drivers\peripheral\dma/cy_dma.c **** ****************************************************************************//**
 267:Generated_Source\PSoC6\pdl\drivers\peripheral\dma/cy_dma.c **** *
 268:Generated_Source\PSoC6\pdl\drivers\peripheral\dma/cy_dma.c **** * Returns a next descriptor address of the specified descriptor.
 269:Generated_Source\PSoC6\pdl\drivers\peripheral\dma/cy_dma.c **** *
 270:Generated_Source\PSoC6\pdl\drivers\peripheral\dma/cy_dma.c **** * Based on the descriptor type, the offset of the address for the next descriptor may
 271:Generated_Source\PSoC6\pdl\drivers\peripheral\dma/cy_dma.c **** * vary. For a single-transfer descriptor type, this register is at offset 0x0c.
 272:Generated_Source\PSoC6\pdl\drivers\peripheral\dma/cy_dma.c **** * For the 1D-transfer descriptor type, this register is at offset 0x10. 
 273:Generated_Source\PSoC6\pdl\drivers\peripheral\dma/cy_dma.c **** * For the 2D-transfer descriptor type, this register is at offset 0x14.  
 274:Generated_Source\PSoC6\pdl\drivers\peripheral\dma/cy_dma.c **** *
 275:Generated_Source\PSoC6\pdl\drivers\peripheral\dma/cy_dma.c **** * \param descriptor
 276:Generated_Source\PSoC6\pdl\drivers\peripheral\dma/cy_dma.c **** * The descriptor structure instance declared by the user/component.
 277:Generated_Source\PSoC6\pdl\drivers\peripheral\dma/cy_dma.c **** *
 278:Generated_Source\PSoC6\pdl\drivers\peripheral\dma/cy_dma.c **** * \return
 279:Generated_Source\PSoC6\pdl\drivers\peripheral\dma/cy_dma.c **** * The pointer to the next descriptor.
 280:Generated_Source\PSoC6\pdl\drivers\peripheral\dma/cy_dma.c **** *
 281:Generated_Source\PSoC6\pdl\drivers\peripheral\dma/cy_dma.c **** *******************************************************************************/
 282:Generated_Source\PSoC6\pdl\drivers\peripheral\dma/cy_dma.c **** cy_stc_dma_descriptor_t * Cy_DMA_Descriptor_GetNextDescriptor(cy_stc_dma_descriptor_t const * descr
 283:Generated_Source\PSoC6\pdl\drivers\peripheral\dma/cy_dma.c **** {
 724              		.loc 1 283 0
 725              		.cfi_startproc
 726              		@ args = 0, pretend = 0, frame = 0
 727              		@ frame_needed = 0, uses_anonymous_args = 0
 728              	.LVL58:
 729 0000 10B5     		push	{r4, lr}
 730              		.cfi_def_cfa_offset 8
 731              		.cfi_offset 4, -8
 732              		.cfi_offset 14, -4
 733              	.LVL59:
 284:Generated_Source\PSoC6\pdl\drivers\peripheral\dma/cy_dma.c ****     cy_stc_dma_descriptor_t * retVal = NULL;
 285:Generated_Source\PSoC6\pdl\drivers\peripheral\dma/cy_dma.c ****     
 286:Generated_Source\PSoC6\pdl\drivers\peripheral\dma/cy_dma.c ****     CY_ASSERT_L1(NULL != descriptor);
 734              		.loc 1 286 0
 735 0002 0446     		mov	r4, r0
 736 0004 20B9     		cbnz	r0, .L67
ARM GAS  C:\Users\cypress\AppData\Local\Temp\cczqZZvj.s 			page 20


 737              		.loc 1 286 0 is_stmt 0 discriminator 1
 738 0006 4FF48F71 		mov	r1, #286
 739 000a 0948     		ldr	r0, .L75
 740              	.LVL60:
 741 000c FFF7FEFF 		bl	Cy_SysLib_AssertFailed
 742              	.LVL61:
 743              	.L67:
 287:Generated_Source\PSoC6\pdl\drivers\peripheral\dma/cy_dma.c ****     
 288:Generated_Source\PSoC6\pdl\drivers\peripheral\dma/cy_dma.c ****     switch((cy_en_dma_descriptor_type_t) _FLD2VAL(CY_DMA_CTL_TYPE, descriptor->ctl))
 744              		.loc 1 288 0 is_stmt 1
 745 0010 2368     		ldr	r3, [r4]
 746 0012 9B0F     		lsrs	r3, r3, #30
 747 0014 012B     		cmp	r3, #1
 748 0016 05D0     		beq	.L69
 749 0018 13B1     		cbz	r3, .L70
 750 001a 022B     		cmp	r3, #2
 751 001c 04D0     		beq	.L71
 752 001e 05E0     		b	.L73
 753              	.L70:
 289:Generated_Source\PSoC6\pdl\drivers\peripheral\dma/cy_dma.c ****     {
 290:Generated_Source\PSoC6\pdl\drivers\peripheral\dma/cy_dma.c ****         case CY_DMA_SINGLE_TRANSFER:
 291:Generated_Source\PSoC6\pdl\drivers\peripheral\dma/cy_dma.c ****             retVal = (cy_stc_dma_descriptor_t*) descriptor->xCtl;
 754              		.loc 1 291 0
 755 0020 E068     		ldr	r0, [r4, #12]
 756              	.LVL62:
 292:Generated_Source\PSoC6\pdl\drivers\peripheral\dma/cy_dma.c ****             break;
 757              		.loc 1 292 0
 758 0022 10BD     		pop	{r4, pc}
 759              	.LVL63:
 760              	.L69:
 293:Generated_Source\PSoC6\pdl\drivers\peripheral\dma/cy_dma.c ****             
 294:Generated_Source\PSoC6\pdl\drivers\peripheral\dma/cy_dma.c ****         case CY_DMA_1D_TRANSFER:
 295:Generated_Source\PSoC6\pdl\drivers\peripheral\dma/cy_dma.c ****             retVal = (cy_stc_dma_descriptor_t*) descriptor->yCtl;
 761              		.loc 1 295 0
 762 0024 2069     		ldr	r0, [r4, #16]
 763              	.LVL64:
 296:Generated_Source\PSoC6\pdl\drivers\peripheral\dma/cy_dma.c ****             break;
 764              		.loc 1 296 0
 765 0026 10BD     		pop	{r4, pc}
 766              	.LVL65:
 767              	.L71:
 297:Generated_Source\PSoC6\pdl\drivers\peripheral\dma/cy_dma.c ****             
 298:Generated_Source\PSoC6\pdl\drivers\peripheral\dma/cy_dma.c ****         case CY_DMA_2D_TRANSFER:
 299:Generated_Source\PSoC6\pdl\drivers\peripheral\dma/cy_dma.c ****             retVal = (cy_stc_dma_descriptor_t*) descriptor->nextPtr;
 768              		.loc 1 299 0
 769 0028 6069     		ldr	r0, [r4, #20]
 770              	.LVL66:
 300:Generated_Source\PSoC6\pdl\drivers\peripheral\dma/cy_dma.c ****             break;
 771              		.loc 1 300 0
 772 002a 10BD     		pop	{r4, pc}
 773              	.LVL67:
 774              	.L73:
 284:Generated_Source\PSoC6\pdl\drivers\peripheral\dma/cy_dma.c ****     
 775              		.loc 1 284 0
 776 002c 0020     		movs	r0, #0
 777              	.LVL68:
 301:Generated_Source\PSoC6\pdl\drivers\peripheral\dma/cy_dma.c ****             
ARM GAS  C:\Users\cypress\AppData\Local\Temp\cczqZZvj.s 			page 21


 302:Generated_Source\PSoC6\pdl\drivers\peripheral\dma/cy_dma.c ****         default:
 303:Generated_Source\PSoC6\pdl\drivers\peripheral\dma/cy_dma.c ****             /* An unsupported type of the descriptor */
 304:Generated_Source\PSoC6\pdl\drivers\peripheral\dma/cy_dma.c ****             break;
 305:Generated_Source\PSoC6\pdl\drivers\peripheral\dma/cy_dma.c ****     }
 306:Generated_Source\PSoC6\pdl\drivers\peripheral\dma/cy_dma.c ****     
 307:Generated_Source\PSoC6\pdl\drivers\peripheral\dma/cy_dma.c ****     return (retVal);
 308:Generated_Source\PSoC6\pdl\drivers\peripheral\dma/cy_dma.c **** }
 778              		.loc 1 308 0
 779 002e 10BD     		pop	{r4, pc}
 780              	.LVL69:
 781              	.L76:
 782              		.align	2
 783              	.L75:
 784 0030 00000000 		.word	.LC0
 785              		.cfi_endproc
 786              	.LFE181:
 787              		.size	Cy_DMA_Descriptor_GetNextDescriptor, .-Cy_DMA_Descriptor_GetNextDescriptor
 788              		.section	.text.Cy_DMA_Descriptor_SetDescriptorType,"ax",%progbits
 789              		.align	2
 790              		.global	Cy_DMA_Descriptor_SetDescriptorType
 791              		.thumb
 792              		.thumb_func
 793              		.type	Cy_DMA_Descriptor_SetDescriptorType, %function
 794              	Cy_DMA_Descriptor_SetDescriptorType:
 795              	.LFB182:
 309:Generated_Source\PSoC6\pdl\drivers\peripheral\dma/cy_dma.c **** 
 310:Generated_Source\PSoC6\pdl\drivers\peripheral\dma/cy_dma.c **** 
 311:Generated_Source\PSoC6\pdl\drivers\peripheral\dma/cy_dma.c **** /*******************************************************************************
 312:Generated_Source\PSoC6\pdl\drivers\peripheral\dma/cy_dma.c **** * Function Name: Cy_DMA_Descriptor_SetDescriptorType
 313:Generated_Source\PSoC6\pdl\drivers\peripheral\dma/cy_dma.c **** ****************************************************************************//**
 314:Generated_Source\PSoC6\pdl\drivers\peripheral\dma/cy_dma.c **** *
 315:Generated_Source\PSoC6\pdl\drivers\peripheral\dma/cy_dma.c **** * Sets the descriptor's type for the specified descriptor.
 316:Generated_Source\PSoC6\pdl\drivers\peripheral\dma/cy_dma.c **** * Moves the next descriptor register value into the proper place in accordance
 317:Generated_Source\PSoC6\pdl\drivers\peripheral\dma/cy_dma.c **** * to the actual descriptor type.
 318:Generated_Source\PSoC6\pdl\drivers\peripheral\dma/cy_dma.c **** * During the descriptor's type changing, the Xloop and Yloop settings, such as 
 319:Generated_Source\PSoC6\pdl\drivers\peripheral\dma/cy_dma.c **** * data count and source/destination increment (i.e. the content of the 
 320:Generated_Source\PSoC6\pdl\drivers\peripheral\dma/cy_dma.c **** * xCtl and yCtl descriptor registers) might be lost (overriden by the 
 321:Generated_Source\PSoC6\pdl\drivers\peripheral\dma/cy_dma.c **** * next descriptor value) because of the different descriptor registers structures
 322:Generated_Source\PSoC6\pdl\drivers\peripheral\dma/cy_dma.c **** * for different descriptor types. Set up carefully the Xloop
 323:Generated_Source\PSoC6\pdl\drivers\peripheral\dma/cy_dma.c **** * (and Yloop, if used) data count and source/destination increment if the
 324:Generated_Source\PSoC6\pdl\drivers\peripheral\dma/cy_dma.c **** * descriptor type is changed from a simpler to a more complicated type 
 325:Generated_Source\PSoC6\pdl\drivers\peripheral\dma/cy_dma.c **** * ("single transfer" -> "1D", "1D" -> "2D", etc.).
 326:Generated_Source\PSoC6\pdl\drivers\peripheral\dma/cy_dma.c **** * 
 327:Generated_Source\PSoC6\pdl\drivers\peripheral\dma/cy_dma.c **** * \param descriptor
 328:Generated_Source\PSoC6\pdl\drivers\peripheral\dma/cy_dma.c **** * The descriptor structure instance declared by the user/component.
 329:Generated_Source\PSoC6\pdl\drivers\peripheral\dma/cy_dma.c **** *
 330:Generated_Source\PSoC6\pdl\drivers\peripheral\dma/cy_dma.c **** * \param descriptorType 
 331:Generated_Source\PSoC6\pdl\drivers\peripheral\dma/cy_dma.c **** * The descriptor type \ref cy_en_dma_descriptor_type_t.
 332:Generated_Source\PSoC6\pdl\drivers\peripheral\dma/cy_dma.c **** *
 333:Generated_Source\PSoC6\pdl\drivers\peripheral\dma/cy_dma.c **** *******************************************************************************/
 334:Generated_Source\PSoC6\pdl\drivers\peripheral\dma/cy_dma.c **** void Cy_DMA_Descriptor_SetDescriptorType(cy_stc_dma_descriptor_t * descriptor, cy_en_dma_descriptor
 335:Generated_Source\PSoC6\pdl\drivers\peripheral\dma/cy_dma.c **** {
 796              		.loc 1 335 0
 797              		.cfi_startproc
 798              		@ args = 0, pretend = 0, frame = 0
 799              		@ frame_needed = 0, uses_anonymous_args = 0
 800              	.LVL70:
ARM GAS  C:\Users\cypress\AppData\Local\Temp\cczqZZvj.s 			page 22


 801 0000 38B5     		push	{r3, r4, r5, lr}
 802              		.cfi_def_cfa_offset 16
 803              		.cfi_offset 3, -16
 804              		.cfi_offset 4, -12
 805              		.cfi_offset 5, -8
 806              		.cfi_offset 14, -4
 807 0002 0D46     		mov	r5, r1
 336:Generated_Source\PSoC6\pdl\drivers\peripheral\dma/cy_dma.c ****     CY_ASSERT_L1(NULL != descriptor);
 808              		.loc 1 336 0
 809 0004 0446     		mov	r4, r0
 810 0006 20B9     		cbnz	r0, .L78
 811              		.loc 1 336 0 is_stmt 0 discriminator 1
 812 0008 4FF4A871 		mov	r1, #336
 813              	.LVL71:
 814 000c 1048     		ldr	r0, .L83
 815              	.LVL72:
 816 000e FFF7FEFF 		bl	Cy_SysLib_AssertFailed
 817              	.LVL73:
 818              	.L78:
 337:Generated_Source\PSoC6\pdl\drivers\peripheral\dma/cy_dma.c ****     CY_ASSERT_L3(CY_DMA_IS_TYPE_VALID(descriptorType));
 819              		.loc 1 337 0 is_stmt 1
 820 0012 022D     		cmp	r5, #2
 821 0014 04D9     		bls	.L79
 822              		.loc 1 337 0 is_stmt 0 discriminator 1
 823 0016 40F25111 		movw	r1, #337
 824 001a 0D48     		ldr	r0, .L83
 825 001c FFF7FEFF 		bl	Cy_SysLib_AssertFailed
 826              	.LVL74:
 827              	.L79:
 828              	.LBB5:
 829              	.LBB6:
 830              		.file 2 "Generated_Source\\PSoC6\\pdl\\drivers\\peripheral\\dma\\cy_dma.h"
   1:Generated_Source\PSoC6\pdl\drivers\peripheral\dma/cy_dma.h **** /***************************************************************************//**
   2:Generated_Source\PSoC6\pdl\drivers\peripheral\dma/cy_dma.h **** * \file cy_dma.h
   3:Generated_Source\PSoC6\pdl\drivers\peripheral\dma/cy_dma.h **** * \version 2.0.1
   4:Generated_Source\PSoC6\pdl\drivers\peripheral\dma/cy_dma.h **** *
   5:Generated_Source\PSoC6\pdl\drivers\peripheral\dma/cy_dma.h **** * \brief
   6:Generated_Source\PSoC6\pdl\drivers\peripheral\dma/cy_dma.h **** * The header file of the DMA driver.
   7:Generated_Source\PSoC6\pdl\drivers\peripheral\dma/cy_dma.h **** *
   8:Generated_Source\PSoC6\pdl\drivers\peripheral\dma/cy_dma.h **** ********************************************************************************
   9:Generated_Source\PSoC6\pdl\drivers\peripheral\dma/cy_dma.h **** * \copyright
  10:Generated_Source\PSoC6\pdl\drivers\peripheral\dma/cy_dma.h **** * Copyright 2016-2018, Cypress Semiconductor Corporation. All rights reserved.
  11:Generated_Source\PSoC6\pdl\drivers\peripheral\dma/cy_dma.h **** * You may use this file only in accordance with the license, terms, conditions,
  12:Generated_Source\PSoC6\pdl\drivers\peripheral\dma/cy_dma.h **** * disclaimers, and limitations in the end user license agreement accompanying
  13:Generated_Source\PSoC6\pdl\drivers\peripheral\dma/cy_dma.h **** * the software package with which this file was provided.
  14:Generated_Source\PSoC6\pdl\drivers\peripheral\dma/cy_dma.h **** *******************************************************************************/
  15:Generated_Source\PSoC6\pdl\drivers\peripheral\dma/cy_dma.h **** 
  16:Generated_Source\PSoC6\pdl\drivers\peripheral\dma/cy_dma.h **** /**
  17:Generated_Source\PSoC6\pdl\drivers\peripheral\dma/cy_dma.h **** * \defgroup group_dma Direct Memory Access (DMA)
  18:Generated_Source\PSoC6\pdl\drivers\peripheral\dma/cy_dma.h **** * \{
  19:Generated_Source\PSoC6\pdl\drivers\peripheral\dma/cy_dma.h **** * Configures a DMA channel and its descriptor(s).
  20:Generated_Source\PSoC6\pdl\drivers\peripheral\dma/cy_dma.h **** *
  21:Generated_Source\PSoC6\pdl\drivers\peripheral\dma/cy_dma.h **** * The DMA channel can be used in any project to transfer data
  22:Generated_Source\PSoC6\pdl\drivers\peripheral\dma/cy_dma.h **** * without CPU intervention basing on a hardware trigger signal from another component.
  23:Generated_Source\PSoC6\pdl\drivers\peripheral\dma/cy_dma.h **** *
  24:Generated_Source\PSoC6\pdl\drivers\peripheral\dma/cy_dma.h **** * A device may support more than one DMA hardware block. Each block has a set of 
  25:Generated_Source\PSoC6\pdl\drivers\peripheral\dma/cy_dma.h **** * registers, a base hardware address, and supports multiple channels. 
ARM GAS  C:\Users\cypress\AppData\Local\Temp\cczqZZvj.s 			page 23


  26:Generated_Source\PSoC6\pdl\drivers\peripheral\dma/cy_dma.h **** * Many API functions for the DMA driver require a base hardware address and  
  27:Generated_Source\PSoC6\pdl\drivers\peripheral\dma/cy_dma.h **** * channel number. Ensure that you use the correct hardware address for the DMA block in use.
  28:Generated_Source\PSoC6\pdl\drivers\peripheral\dma/cy_dma.h **** * 
  29:Generated_Source\PSoC6\pdl\drivers\peripheral\dma/cy_dma.h **** * Features:
  30:Generated_Source\PSoC6\pdl\drivers\peripheral\dma/cy_dma.h **** * * Devices support up to two DMA hardware blocks
  31:Generated_Source\PSoC6\pdl\drivers\peripheral\dma/cy_dma.h **** * * Each DMA block supports up to 16 DMA channels
  32:Generated_Source\PSoC6\pdl\drivers\peripheral\dma/cy_dma.h **** * * Supports channel descriptors in SRAM
  33:Generated_Source\PSoC6\pdl\drivers\peripheral\dma/cy_dma.h **** * * Four priority levels for each channel
  34:Generated_Source\PSoC6\pdl\drivers\peripheral\dma/cy_dma.h **** * * Byte, half-word (2-byte), and word (4-byte) transfers
  35:Generated_Source\PSoC6\pdl\drivers\peripheral\dma/cy_dma.h **** * * Configurable source and destination addresses
  36:Generated_Source\PSoC6\pdl\drivers\peripheral\dma/cy_dma.h **** *
  37:Generated_Source\PSoC6\pdl\drivers\peripheral\dma/cy_dma.h **** * \section group_dma_configuration Configuration Considerations
  38:Generated_Source\PSoC6\pdl\drivers\peripheral\dma/cy_dma.h **** *
  39:Generated_Source\PSoC6\pdl\drivers\peripheral\dma/cy_dma.h **** * To set up a DMA driver, initialize a descriptor,
  40:Generated_Source\PSoC6\pdl\drivers\peripheral\dma/cy_dma.h **** * intialize and enable a channel, and enable the DMA block.
  41:Generated_Source\PSoC6\pdl\drivers\peripheral\dma/cy_dma.h **** * 
  42:Generated_Source\PSoC6\pdl\drivers\peripheral\dma/cy_dma.h **** * To set up a descriptor, provide the configuration parameters for the 
  43:Generated_Source\PSoC6\pdl\drivers\peripheral\dma/cy_dma.h **** * descriptor in the \ref cy_stc_dma_descriptor_config_t structure. Then call the 
  44:Generated_Source\PSoC6\pdl\drivers\peripheral\dma/cy_dma.h **** * \ref Cy_DMA_Descriptor_Init function to initialize the descriptor in SRAM. You can 
  45:Generated_Source\PSoC6\pdl\drivers\peripheral\dma/cy_dma.h **** * modify the source and destination addresses dynamically by calling 
  46:Generated_Source\PSoC6\pdl\drivers\peripheral\dma/cy_dma.h **** * \ref Cy_DMA_Descriptor_SetSrcAddress and \ref Cy_DMA_Descriptor_SetDstAddress.
  47:Generated_Source\PSoC6\pdl\drivers\peripheral\dma/cy_dma.h **** * 
  48:Generated_Source\PSoC6\pdl\drivers\peripheral\dma/cy_dma.h **** * To set up a DMA channel, provide a filled \ref cy_stc_dma_channel_config_t 
  49:Generated_Source\PSoC6\pdl\drivers\peripheral\dma/cy_dma.h **** * structure. Call the \ref Cy_DMA_Channel_Init function, specifying the channel
  50:Generated_Source\PSoC6\pdl\drivers\peripheral\dma/cy_dma.h **** * number. Use \ref Cy_DMA_Channel_Enable to enable the configured DMA channel.
  51:Generated_Source\PSoC6\pdl\drivers\peripheral\dma/cy_dma.h **** *
  52:Generated_Source\PSoC6\pdl\drivers\peripheral\dma/cy_dma.h **** * Call \ref Cy_DMA_Channel_Enable for each DMA channel in use.
  53:Generated_Source\PSoC6\pdl\drivers\peripheral\dma/cy_dma.h **** *
  54:Generated_Source\PSoC6\pdl\drivers\peripheral\dma/cy_dma.h **** * When configured, another peripheral typically triggers the DMA. The trigger is
  55:Generated_Source\PSoC6\pdl\drivers\peripheral\dma/cy_dma.h **** * connected to the DMA using the trigger multiplexer. The trigger multiplexer
  56:Generated_Source\PSoC6\pdl\drivers\peripheral\dma/cy_dma.h **** * driver has a software trigger you can use in firmware to trigger the DMA. See the
  57:Generated_Source\PSoC6\pdl\drivers\peripheral\dma/cy_dma.h **** * <a href="group__group__trigmux.html">Trigger Multiplexer</a> documentation.
  58:Generated_Source\PSoC6\pdl\drivers\peripheral\dma/cy_dma.h **** *
  59:Generated_Source\PSoC6\pdl\drivers\peripheral\dma/cy_dma.h **** * The following is a simplified structure of the DMA driver API interdependencies
  60:Generated_Source\PSoC6\pdl\drivers\peripheral\dma/cy_dma.h **** * in a typical user application:
  61:Generated_Source\PSoC6\pdl\drivers\peripheral\dma/cy_dma.h **** * \image html dma.png
  62:Generated_Source\PSoC6\pdl\drivers\peripheral\dma/cy_dma.h **** *
  63:Generated_Source\PSoC6\pdl\drivers\peripheral\dma/cy_dma.h **** * <B>NOTE:</B> Even if a DMA channel is enabled, it is not operational until 
  64:Generated_Source\PSoC6\pdl\drivers\peripheral\dma/cy_dma.h **** * the DMA block is enabled using function \ref Cy_DMA_Enable.\n
  65:Generated_Source\PSoC6\pdl\drivers\peripheral\dma/cy_dma.h **** * <B>NOTE:</B> if the DMA descriptor is configured to generate an interrupt, 
  66:Generated_Source\PSoC6\pdl\drivers\peripheral\dma/cy_dma.h **** * the interrupt must be enabled using the \ref Cy_DMA_Channel_SetInterruptMask 
  67:Generated_Source\PSoC6\pdl\drivers\peripheral\dma/cy_dma.h **** * function for each DMA channel.
  68:Generated_Source\PSoC6\pdl\drivers\peripheral\dma/cy_dma.h **** *
  69:Generated_Source\PSoC6\pdl\drivers\peripheral\dma/cy_dma.h **** * For example:
  70:Generated_Source\PSoC6\pdl\drivers\peripheral\dma/cy_dma.h **** * \snippet dma/dma_v2_0_sut_00.cydsn/main_cm4.c Cy_DMA_Snippet
  71:Generated_Source\PSoC6\pdl\drivers\peripheral\dma/cy_dma.h **** * 
  72:Generated_Source\PSoC6\pdl\drivers\peripheral\dma/cy_dma.h **** * \section group_dma_more_information More Information.
  73:Generated_Source\PSoC6\pdl\drivers\peripheral\dma/cy_dma.h **** * See: the DMA chapter of the device technical reference manual (TRM);
  74:Generated_Source\PSoC6\pdl\drivers\peripheral\dma/cy_dma.h **** *      the DMA Component datasheet;
  75:Generated_Source\PSoC6\pdl\drivers\peripheral\dma/cy_dma.h **** *      CE219940 - PSoC 6 MCU Multiple DMA Concatenation.
  76:Generated_Source\PSoC6\pdl\drivers\peripheral\dma/cy_dma.h **** *
  77:Generated_Source\PSoC6\pdl\drivers\peripheral\dma/cy_dma.h **** * \section group_dma_MISRA MISRA-C Compliance
  78:Generated_Source\PSoC6\pdl\drivers\peripheral\dma/cy_dma.h **** * The DMA driver has the following specific deviations:
  79:Generated_Source\PSoC6\pdl\drivers\peripheral\dma/cy_dma.h **** *
  80:Generated_Source\PSoC6\pdl\drivers\peripheral\dma/cy_dma.h **** * <table class="doxtable">
  81:Generated_Source\PSoC6\pdl\drivers\peripheral\dma/cy_dma.h **** *   <tr>
  82:Generated_Source\PSoC6\pdl\drivers\peripheral\dma/cy_dma.h **** *     <th>MISRA Rule</th>
ARM GAS  C:\Users\cypress\AppData\Local\Temp\cczqZZvj.s 			page 24


  83:Generated_Source\PSoC6\pdl\drivers\peripheral\dma/cy_dma.h **** *     <th>Rule Class (Required/Advisory)</th>
  84:Generated_Source\PSoC6\pdl\drivers\peripheral\dma/cy_dma.h **** *     <th>Rule Description</th>
  85:Generated_Source\PSoC6\pdl\drivers\peripheral\dma/cy_dma.h **** *     <th>Description of Deviation(s)</th>
  86:Generated_Source\PSoC6\pdl\drivers\peripheral\dma/cy_dma.h **** *   </tr>
  87:Generated_Source\PSoC6\pdl\drivers\peripheral\dma/cy_dma.h **** *   <tr>
  88:Generated_Source\PSoC6\pdl\drivers\peripheral\dma/cy_dma.h **** *     <td>10.3</td>
  89:Generated_Source\PSoC6\pdl\drivers\peripheral\dma/cy_dma.h **** *     <td>R</td>
  90:Generated_Source\PSoC6\pdl\drivers\peripheral\dma/cy_dma.h **** *     <td>A composite expression of the "essentially unsigned" type is being
  91:Generated_Source\PSoC6\pdl\drivers\peripheral\dma/cy_dma.h **** *         cast to a different type category.</td>
  92:Generated_Source\PSoC6\pdl\drivers\peripheral\dma/cy_dma.h **** *     <td>The value got from the bitfield physically cannot exceed the enumeration
  93:Generated_Source\PSoC6\pdl\drivers\peripheral\dma/cy_dma.h **** *         that describes this bitfield. So, the code is safe by design.</td>
  94:Generated_Source\PSoC6\pdl\drivers\peripheral\dma/cy_dma.h **** *   </tr>
  95:Generated_Source\PSoC6\pdl\drivers\peripheral\dma/cy_dma.h **** *   <tr>
  96:Generated_Source\PSoC6\pdl\drivers\peripheral\dma/cy_dma.h **** *     <td>14.2</td>
  97:Generated_Source\PSoC6\pdl\drivers\peripheral\dma/cy_dma.h **** *     <td>R</td>
  98:Generated_Source\PSoC6\pdl\drivers\peripheral\dma/cy_dma.h **** *     <td>All non-null statements will either:
  99:Generated_Source\PSoC6\pdl\drivers\peripheral\dma/cy_dma.h **** *       a) have at least one-side effect however executed;
 100:Generated_Source\PSoC6\pdl\drivers\peripheral\dma/cy_dma.h **** *       b) cause the control flow to change</td>
 101:Generated_Source\PSoC6\pdl\drivers\peripheral\dma/cy_dma.h **** *     <td>A Read operation result is ignored when this read is just intended
 102:Generated_Source\PSoC6\pdl\drivers\peripheral\dma/cy_dma.h **** *         to ensure the previous Write operation is flushed out to the hardware.</td>
 103:Generated_Source\PSoC6\pdl\drivers\peripheral\dma/cy_dma.h **** *   </tr>
 104:Generated_Source\PSoC6\pdl\drivers\peripheral\dma/cy_dma.h **** * </table>
 105:Generated_Source\PSoC6\pdl\drivers\peripheral\dma/cy_dma.h **** *
 106:Generated_Source\PSoC6\pdl\drivers\peripheral\dma/cy_dma.h **** * \section group_dma_changelog Changelog
 107:Generated_Source\PSoC6\pdl\drivers\peripheral\dma/cy_dma.h **** *
 108:Generated_Source\PSoC6\pdl\drivers\peripheral\dma/cy_dma.h **** * <table class="doxtable">
 109:Generated_Source\PSoC6\pdl\drivers\peripheral\dma/cy_dma.h **** *   <tr><th>Version</th><th>Changes</th><th>Reason for Change</th></tr>
 110:Generated_Source\PSoC6\pdl\drivers\peripheral\dma/cy_dma.h **** *   <tr>
 111:Generated_Source\PSoC6\pdl\drivers\peripheral\dma/cy_dma.h **** *     <td>2.0.1</td>
 112:Generated_Source\PSoC6\pdl\drivers\peripheral\dma/cy_dma.h **** *     <td>Changed \ref CY_DMA_BWC macro values from Boolean to numeric</td>
 113:Generated_Source\PSoC6\pdl\drivers\peripheral\dma/cy_dma.h **** *     <td>Improvements made based on usability feedback</td>
 114:Generated_Source\PSoC6\pdl\drivers\peripheral\dma/cy_dma.h **** *   </tr>
 115:Generated_Source\PSoC6\pdl\drivers\peripheral\dma/cy_dma.h **** *   <tr>
 116:Generated_Source\PSoC6\pdl\drivers\peripheral\dma/cy_dma.h **** *     <td>2.0</td>
 117:Generated_Source\PSoC6\pdl\drivers\peripheral\dma/cy_dma.h **** *     <td>* All the API is refactored to be consistent within itself and with the
 118:Generated_Source\PSoC6\pdl\drivers\peripheral\dma/cy_dma.h **** *           rest of the PDL content.
 119:Generated_Source\PSoC6\pdl\drivers\peripheral\dma/cy_dma.h **** *         * The descriptor API is updated as follows:
 120:Generated_Source\PSoC6\pdl\drivers\peripheral\dma/cy_dma.h **** *           The \ref Cy_DMA_Descriptor_Init function sets a full bunch of descriptor
 121:Generated_Source\PSoC6\pdl\drivers\peripheral\dma/cy_dma.h **** *           settings, and the rest of the descriptor API is a get/set interface
 122:Generated_Source\PSoC6\pdl\drivers\peripheral\dma/cy_dma.h **** *           to each of the descriptor settings.
 123:Generated_Source\PSoC6\pdl\drivers\peripheral\dma/cy_dma.h **** *         * There is a group of macros to support the backward compatibility with most 
 124:Generated_Source\PSoC6\pdl\drivers\peripheral\dma/cy_dma.h **** *           of the driver version 1.0 API. But, it is strongly recommended to use
 125:Generated_Source\PSoC6\pdl\drivers\peripheral\dma/cy_dma.h **** *           the new v2.0 interface in new designs (do not just copy-paste from old
 126:Generated_Source\PSoC6\pdl\drivers\peripheral\dma/cy_dma.h **** *           projects). To enable the backward compatibility support, the CY_DMA_BWC 
 127:Generated_Source\PSoC6\pdl\drivers\peripheral\dma/cy_dma.h **** *           definition should be changed to "1".</td>
 128:Generated_Source\PSoC6\pdl\drivers\peripheral\dma/cy_dma.h **** *     <td></td>
 129:Generated_Source\PSoC6\pdl\drivers\peripheral\dma/cy_dma.h **** *   </tr>
 130:Generated_Source\PSoC6\pdl\drivers\peripheral\dma/cy_dma.h **** *   <tr>
 131:Generated_Source\PSoC6\pdl\drivers\peripheral\dma/cy_dma.h **** *     <td>1.0</td>
 132:Generated_Source\PSoC6\pdl\drivers\peripheral\dma/cy_dma.h **** *     <td>Initial version</td>
 133:Generated_Source\PSoC6\pdl\drivers\peripheral\dma/cy_dma.h **** *     <td></td>
 134:Generated_Source\PSoC6\pdl\drivers\peripheral\dma/cy_dma.h **** *   </tr>
 135:Generated_Source\PSoC6\pdl\drivers\peripheral\dma/cy_dma.h **** * </table>
 136:Generated_Source\PSoC6\pdl\drivers\peripheral\dma/cy_dma.h **** *
 137:Generated_Source\PSoC6\pdl\drivers\peripheral\dma/cy_dma.h **** 
 138:Generated_Source\PSoC6\pdl\drivers\peripheral\dma/cy_dma.h **** * \defgroup group_dma_macros Macros
 139:Generated_Source\PSoC6\pdl\drivers\peripheral\dma/cy_dma.h **** * \defgroup group_dma_functions Functions
ARM GAS  C:\Users\cypress\AppData\Local\Temp\cczqZZvj.s 			page 25


 140:Generated_Source\PSoC6\pdl\drivers\peripheral\dma/cy_dma.h **** * \{
 141:Generated_Source\PSoC6\pdl\drivers\peripheral\dma/cy_dma.h **** * \defgroup group_dma_block_functions Block Functions
 142:Generated_Source\PSoC6\pdl\drivers\peripheral\dma/cy_dma.h **** * \defgroup group_dma_descriptor_functions Descriptor Functions
 143:Generated_Source\PSoC6\pdl\drivers\peripheral\dma/cy_dma.h **** * \defgroup group_dma_channel_functions Channel Functions
 144:Generated_Source\PSoC6\pdl\drivers\peripheral\dma/cy_dma.h **** * \}
 145:Generated_Source\PSoC6\pdl\drivers\peripheral\dma/cy_dma.h **** * \defgroup group_dma_data_structures Data Structures
 146:Generated_Source\PSoC6\pdl\drivers\peripheral\dma/cy_dma.h **** * \defgroup group_dma_enums Enumerated Types
 147:Generated_Source\PSoC6\pdl\drivers\peripheral\dma/cy_dma.h **** */
 148:Generated_Source\PSoC6\pdl\drivers\peripheral\dma/cy_dma.h **** 
 149:Generated_Source\PSoC6\pdl\drivers\peripheral\dma/cy_dma.h **** #if !defined(CY_DMA_H)
 150:Generated_Source\PSoC6\pdl\drivers\peripheral\dma/cy_dma.h **** #define CY_DMA_H
 151:Generated_Source\PSoC6\pdl\drivers\peripheral\dma/cy_dma.h **** 
 152:Generated_Source\PSoC6\pdl\drivers\peripheral\dma/cy_dma.h **** #include <stdint.h>
 153:Generated_Source\PSoC6\pdl\drivers\peripheral\dma/cy_dma.h **** #include <stdbool.h>
 154:Generated_Source\PSoC6\pdl\drivers\peripheral\dma/cy_dma.h **** #include <stddef.h>
 155:Generated_Source\PSoC6\pdl\drivers\peripheral\dma/cy_dma.h **** #include "syslib/cy_syslib.h"
 156:Generated_Source\PSoC6\pdl\drivers\peripheral\dma/cy_dma.h **** #include "cy_device_headers.h"
 157:Generated_Source\PSoC6\pdl\drivers\peripheral\dma/cy_dma.h **** 
 158:Generated_Source\PSoC6\pdl\drivers\peripheral\dma/cy_dma.h **** #ifndef CY_IP_M4CPUSS_DMA
 159:Generated_Source\PSoC6\pdl\drivers\peripheral\dma/cy_dma.h ****     #error "The DMA driver is not supported on this device"
 160:Generated_Source\PSoC6\pdl\drivers\peripheral\dma/cy_dma.h **** #endif
 161:Generated_Source\PSoC6\pdl\drivers\peripheral\dma/cy_dma.h **** 
 162:Generated_Source\PSoC6\pdl\drivers\peripheral\dma/cy_dma.h **** #if defined(__cplusplus)
 163:Generated_Source\PSoC6\pdl\drivers\peripheral\dma/cy_dma.h **** extern "C" {
 164:Generated_Source\PSoC6\pdl\drivers\peripheral\dma/cy_dma.h **** #endif
 165:Generated_Source\PSoC6\pdl\drivers\peripheral\dma/cy_dma.h **** 
 166:Generated_Source\PSoC6\pdl\drivers\peripheral\dma/cy_dma.h **** /******************************************************************************
 167:Generated_Source\PSoC6\pdl\drivers\peripheral\dma/cy_dma.h ****  * Macro definitions                                                          *
 168:Generated_Source\PSoC6\pdl\drivers\peripheral\dma/cy_dma.h ****  ******************************************************************************/
 169:Generated_Source\PSoC6\pdl\drivers\peripheral\dma/cy_dma.h **** 
 170:Generated_Source\PSoC6\pdl\drivers\peripheral\dma/cy_dma.h **** /**
 171:Generated_Source\PSoC6\pdl\drivers\peripheral\dma/cy_dma.h **** * \addtogroup group_dma_macros
 172:Generated_Source\PSoC6\pdl\drivers\peripheral\dma/cy_dma.h **** * \{
 173:Generated_Source\PSoC6\pdl\drivers\peripheral\dma/cy_dma.h **** */
 174:Generated_Source\PSoC6\pdl\drivers\peripheral\dma/cy_dma.h **** 
 175:Generated_Source\PSoC6\pdl\drivers\peripheral\dma/cy_dma.h **** /** The driver major version */
 176:Generated_Source\PSoC6\pdl\drivers\peripheral\dma/cy_dma.h **** #define CY_DMA_DRV_VERSION_MAJOR       2
 177:Generated_Source\PSoC6\pdl\drivers\peripheral\dma/cy_dma.h **** 
 178:Generated_Source\PSoC6\pdl\drivers\peripheral\dma/cy_dma.h **** /** The driver minor version */
 179:Generated_Source\PSoC6\pdl\drivers\peripheral\dma/cy_dma.h **** #define CY_DMA_DRV_VERSION_MINOR       0
 180:Generated_Source\PSoC6\pdl\drivers\peripheral\dma/cy_dma.h **** 
 181:Generated_Source\PSoC6\pdl\drivers\peripheral\dma/cy_dma.h **** /** The DMA driver identifier */
 182:Generated_Source\PSoC6\pdl\drivers\peripheral\dma/cy_dma.h **** #define CY_DMA_ID                      (CY_PDL_DRV_ID(0x13U))
 183:Generated_Source\PSoC6\pdl\drivers\peripheral\dma/cy_dma.h ****  
 184:Generated_Source\PSoC6\pdl\drivers\peripheral\dma/cy_dma.h **** /** The DMA channel interrupt mask */
 185:Generated_Source\PSoC6\pdl\drivers\peripheral\dma/cy_dma.h **** #define CY_DMA_INTR_MASK               (0x01UL)
 186:Generated_Source\PSoC6\pdl\drivers\peripheral\dma/cy_dma.h **** 
 187:Generated_Source\PSoC6\pdl\drivers\peripheral\dma/cy_dma.h **** /** The backward compatibility flag. Enables a group of macros which provide 
 188:Generated_Source\PSoC6\pdl\drivers\peripheral\dma/cy_dma.h **** * the backward compatibility with most of the DMA driver version 1.0 interface. */
 189:Generated_Source\PSoC6\pdl\drivers\peripheral\dma/cy_dma.h **** #ifndef CY_DMA_BWC
 190:Generated_Source\PSoC6\pdl\drivers\peripheral\dma/cy_dma.h ****     #define CY_DMA_BWC                 (0U)
 191:Generated_Source\PSoC6\pdl\drivers\peripheral\dma/cy_dma.h **** #endif
 192:Generated_Source\PSoC6\pdl\drivers\peripheral\dma/cy_dma.h **** 
 193:Generated_Source\PSoC6\pdl\drivers\peripheral\dma/cy_dma.h **** /** \} group_dma_macros */
 194:Generated_Source\PSoC6\pdl\drivers\peripheral\dma/cy_dma.h **** 
 195:Generated_Source\PSoC6\pdl\drivers\peripheral\dma/cy_dma.h **** 
 196:Generated_Source\PSoC6\pdl\drivers\peripheral\dma/cy_dma.h **** /**
ARM GAS  C:\Users\cypress\AppData\Local\Temp\cczqZZvj.s 			page 26


 197:Generated_Source\PSoC6\pdl\drivers\peripheral\dma/cy_dma.h **** * \addtogroup group_dma_enums
 198:Generated_Source\PSoC6\pdl\drivers\peripheral\dma/cy_dma.h **** * \{
 199:Generated_Source\PSoC6\pdl\drivers\peripheral\dma/cy_dma.h **** */
 200:Generated_Source\PSoC6\pdl\drivers\peripheral\dma/cy_dma.h **** 
 201:Generated_Source\PSoC6\pdl\drivers\peripheral\dma/cy_dma.h **** /** Contains the possible interrupt cause values */
 202:Generated_Source\PSoC6\pdl\drivers\peripheral\dma/cy_dma.h **** typedef enum
 203:Generated_Source\PSoC6\pdl\drivers\peripheral\dma/cy_dma.h **** {
 204:Generated_Source\PSoC6\pdl\drivers\peripheral\dma/cy_dma.h ****     CY_DMA_INTR_CAUSE_NO_INTR            = 0U, /**< No interrupt                         */
 205:Generated_Source\PSoC6\pdl\drivers\peripheral\dma/cy_dma.h ****     CY_DMA_INTR_CAUSE_COMPLETION         = 1U, /**< Completion                           */
 206:Generated_Source\PSoC6\pdl\drivers\peripheral\dma/cy_dma.h ****     CY_DMA_INTR_CAUSE_SRC_BUS_ERROR      = 2U, /**< Source bus error                     */
 207:Generated_Source\PSoC6\pdl\drivers\peripheral\dma/cy_dma.h ****     CY_DMA_INTR_CAUSE_DST_BUS_ERROR      = 3U, /**< Destination bus error                */
 208:Generated_Source\PSoC6\pdl\drivers\peripheral\dma/cy_dma.h ****     CY_DMA_INTR_CAUSE_SRC_MISAL          = 4U, /**< Source address is not aligned        */
 209:Generated_Source\PSoC6\pdl\drivers\peripheral\dma/cy_dma.h ****     CY_DMA_INTR_CAUSE_DST_MISAL          = 5U, /**< Destination address is not aligned   */
 210:Generated_Source\PSoC6\pdl\drivers\peripheral\dma/cy_dma.h ****     CY_DMA_INTR_CAUSE_CURR_PTR_NULL      = 6U, /**< Current descripror pointer is NULL   */
 211:Generated_Source\PSoC6\pdl\drivers\peripheral\dma/cy_dma.h ****     CY_DMA_INTR_CAUSE_ACTIVE_CH_DISABLED = 7U, /**< Active channel is disabled           */
 212:Generated_Source\PSoC6\pdl\drivers\peripheral\dma/cy_dma.h ****     CY_DMA_INTR_CAUSE_DESCR_BUS_ERROR    = 8U  /**< Descriptor bus error                 */
 213:Generated_Source\PSoC6\pdl\drivers\peripheral\dma/cy_dma.h **** } cy_en_dma_intr_cause_t;
 214:Generated_Source\PSoC6\pdl\drivers\peripheral\dma/cy_dma.h **** 
 215:Generated_Source\PSoC6\pdl\drivers\peripheral\dma/cy_dma.h **** /** Contains the options for the descriptor type */
 216:Generated_Source\PSoC6\pdl\drivers\peripheral\dma/cy_dma.h **** typedef enum
 217:Generated_Source\PSoC6\pdl\drivers\peripheral\dma/cy_dma.h **** {
 218:Generated_Source\PSoC6\pdl\drivers\peripheral\dma/cy_dma.h ****     CY_DMA_SINGLE_TRANSFER = 0UL,          /**< Single transfer. */
 219:Generated_Source\PSoC6\pdl\drivers\peripheral\dma/cy_dma.h ****     CY_DMA_1D_TRANSFER     = 1UL,          /**< 1D transfer.     */
 220:Generated_Source\PSoC6\pdl\drivers\peripheral\dma/cy_dma.h ****     CY_DMA_2D_TRANSFER     = 2UL           /**< 2D transfer.     */
 221:Generated_Source\PSoC6\pdl\drivers\peripheral\dma/cy_dma.h **** } cy_en_dma_descriptor_type_t;
 222:Generated_Source\PSoC6\pdl\drivers\peripheral\dma/cy_dma.h **** 
 223:Generated_Source\PSoC6\pdl\drivers\peripheral\dma/cy_dma.h **** /** Contains the options for the interrupt, trig-in and trig-out type parameters of the descriptor 
 224:Generated_Source\PSoC6\pdl\drivers\peripheral\dma/cy_dma.h **** typedef enum
 225:Generated_Source\PSoC6\pdl\drivers\peripheral\dma/cy_dma.h **** {
 226:Generated_Source\PSoC6\pdl\drivers\peripheral\dma/cy_dma.h ****     CY_DMA_1ELEMENT    = 0UL,               /**< One element transfer.             */
 227:Generated_Source\PSoC6\pdl\drivers\peripheral\dma/cy_dma.h ****     CY_DMA_X_LOOP      = 1UL,               /**< One X loop transfer.              */
 228:Generated_Source\PSoC6\pdl\drivers\peripheral\dma/cy_dma.h ****     CY_DMA_DESCR       = 2UL,               /**< One descriptor transfer.          */
 229:Generated_Source\PSoC6\pdl\drivers\peripheral\dma/cy_dma.h ****     CY_DMA_DESCR_CHAIN = 3UL                /**< Entire descriptor chain transfer. */
 230:Generated_Source\PSoC6\pdl\drivers\peripheral\dma/cy_dma.h **** } cy_en_dma_trigger_type_t;
 231:Generated_Source\PSoC6\pdl\drivers\peripheral\dma/cy_dma.h **** 
 232:Generated_Source\PSoC6\pdl\drivers\peripheral\dma/cy_dma.h **** /** This enum has the options for the data size */
 233:Generated_Source\PSoC6\pdl\drivers\peripheral\dma/cy_dma.h **** typedef enum
 234:Generated_Source\PSoC6\pdl\drivers\peripheral\dma/cy_dma.h **** {
 235:Generated_Source\PSoC6\pdl\drivers\peripheral\dma/cy_dma.h ****     CY_DMA_BYTE     = 0UL,                 /**< One byte               */
 236:Generated_Source\PSoC6\pdl\drivers\peripheral\dma/cy_dma.h ****     CY_DMA_HALFWORD = 1UL,                 /**< Half word (two bytes)  */
 237:Generated_Source\PSoC6\pdl\drivers\peripheral\dma/cy_dma.h ****     CY_DMA_WORD     = 2UL                  /**< Full word (four bytes) */
 238:Generated_Source\PSoC6\pdl\drivers\peripheral\dma/cy_dma.h **** } cy_en_dma_data_size_t;
 239:Generated_Source\PSoC6\pdl\drivers\peripheral\dma/cy_dma.h **** 
 240:Generated_Source\PSoC6\pdl\drivers\peripheral\dma/cy_dma.h **** /** This enum has the options for descriptor retriggering */
 241:Generated_Source\PSoC6\pdl\drivers\peripheral\dma/cy_dma.h **** typedef enum
 242:Generated_Source\PSoC6\pdl\drivers\peripheral\dma/cy_dma.h **** {
 243:Generated_Source\PSoC6\pdl\drivers\peripheral\dma/cy_dma.h ****     CY_DMA_RETRIG_IM    = 0UL,             /**< Retrigger immediatelly            */
 244:Generated_Source\PSoC6\pdl\drivers\peripheral\dma/cy_dma.h ****     CY_DMA_RETRIG_4CYC  = 1UL,             /**< Retrigger after 4 Clk_Slow cycles  */
 245:Generated_Source\PSoC6\pdl\drivers\peripheral\dma/cy_dma.h ****     CY_DMA_RETRIG_16CYC = 2UL,             /**< Retrigger after 16 Clk_Slow cycles */
 246:Generated_Source\PSoC6\pdl\drivers\peripheral\dma/cy_dma.h ****     CY_DMA_WAIT_FOR_REACT = 3UL            /**< Wait for trigger reactivation     */
 247:Generated_Source\PSoC6\pdl\drivers\peripheral\dma/cy_dma.h **** } cy_en_dma_retrigger_t;
 248:Generated_Source\PSoC6\pdl\drivers\peripheral\dma/cy_dma.h **** 
 249:Generated_Source\PSoC6\pdl\drivers\peripheral\dma/cy_dma.h **** /** This enum has the options for the transfer size */
 250:Generated_Source\PSoC6\pdl\drivers\peripheral\dma/cy_dma.h **** typedef enum
 251:Generated_Source\PSoC6\pdl\drivers\peripheral\dma/cy_dma.h **** {
 252:Generated_Source\PSoC6\pdl\drivers\peripheral\dma/cy_dma.h ****     CY_DMA_TRANSFER_SIZE_DATA = 0UL,           /**< As specified by dataSize. */
 253:Generated_Source\PSoC6\pdl\drivers\peripheral\dma/cy_dma.h ****     CY_DMA_TRANSFER_SIZE_WORD = 1UL,           /**< A full word (four bytes). */
ARM GAS  C:\Users\cypress\AppData\Local\Temp\cczqZZvj.s 			page 27


 254:Generated_Source\PSoC6\pdl\drivers\peripheral\dma/cy_dma.h **** } cy_en_dma_transfer_size_t;
 255:Generated_Source\PSoC6\pdl\drivers\peripheral\dma/cy_dma.h **** 
 256:Generated_Source\PSoC6\pdl\drivers\peripheral\dma/cy_dma.h **** /** This enum has the options for the state of the channel when the descriptor is completed   */
 257:Generated_Source\PSoC6\pdl\drivers\peripheral\dma/cy_dma.h **** typedef enum
 258:Generated_Source\PSoC6\pdl\drivers\peripheral\dma/cy_dma.h **** {
 259:Generated_Source\PSoC6\pdl\drivers\peripheral\dma/cy_dma.h ****     CY_DMA_CHANNEL_ENABLED  = 0UL,         /**< Channel stays enabled  */
 260:Generated_Source\PSoC6\pdl\drivers\peripheral\dma/cy_dma.h ****     CY_DMA_CHANNEL_DISABLED = 1UL          /**< Channel is disabled */
 261:Generated_Source\PSoC6\pdl\drivers\peripheral\dma/cy_dma.h **** } cy_en_dma_channel_state_t;
 262:Generated_Source\PSoC6\pdl\drivers\peripheral\dma/cy_dma.h **** 
 263:Generated_Source\PSoC6\pdl\drivers\peripheral\dma/cy_dma.h **** /** This enum has the return values of the DMA driver */
 264:Generated_Source\PSoC6\pdl\drivers\peripheral\dma/cy_dma.h **** typedef enum 
 265:Generated_Source\PSoC6\pdl\drivers\peripheral\dma/cy_dma.h **** {
 266:Generated_Source\PSoC6\pdl\drivers\peripheral\dma/cy_dma.h ****     CY_DMA_SUCCESS          = 0x00UL, /**< Success. */
 267:Generated_Source\PSoC6\pdl\drivers\peripheral\dma/cy_dma.h ****     CY_DMA_BAD_PARAM        = CY_DMA_ID | CY_PDL_STATUS_ERROR | 0x01UL /**< The input parameters pa
 268:Generated_Source\PSoC6\pdl\drivers\peripheral\dma/cy_dma.h **** } cy_en_dma_status_t;
 269:Generated_Source\PSoC6\pdl\drivers\peripheral\dma/cy_dma.h **** 
 270:Generated_Source\PSoC6\pdl\drivers\peripheral\dma/cy_dma.h **** /** \} group_dma_enums */
 271:Generated_Source\PSoC6\pdl\drivers\peripheral\dma/cy_dma.h **** 
 272:Generated_Source\PSoC6\pdl\drivers\peripheral\dma/cy_dma.h **** 
 273:Generated_Source\PSoC6\pdl\drivers\peripheral\dma/cy_dma.h **** /** \cond Macros for the conditions used by CY_ASSERT calls */
 274:Generated_Source\PSoC6\pdl\drivers\peripheral\dma/cy_dma.h **** 
 275:Generated_Source\PSoC6\pdl\drivers\peripheral\dma/cy_dma.h **** #define CY_DMA_IS_COUNT_VALID(count)          (((count) >= 1UL) && ((count) <= 256UL))
 276:Generated_Source\PSoC6\pdl\drivers\peripheral\dma/cy_dma.h **** #define CY_DMA_IS_INCR_VALID(incr)            (((incr) >= -2048L) && ((incr) <= 2047L))
 277:Generated_Source\PSoC6\pdl\drivers\peripheral\dma/cy_dma.h **** #define CY_DMA_IS_PRIORITY_VALID(prio)        ((prio) <= 3UL)
 278:Generated_Source\PSoC6\pdl\drivers\peripheral\dma/cy_dma.h **** #define CY_DMA_IS_INTR_MASK_VALID(interrupt)  (0UL == ((interrupt) & ((uint32_t) ~CY_DMA_INTR_MASK)
 279:Generated_Source\PSoC6\pdl\drivers\peripheral\dma/cy_dma.h **** 
 280:Generated_Source\PSoC6\pdl\drivers\peripheral\dma/cy_dma.h **** #define CY_DMA_IS_RETRIGGER_VALID(retrigger)  ((CY_DMA_RETRIG_IM      == (retrigger)) || \
 281:Generated_Source\PSoC6\pdl\drivers\peripheral\dma/cy_dma.h ****                                                (CY_DMA_RETRIG_4CYC    == (retrigger)) || \
 282:Generated_Source\PSoC6\pdl\drivers\peripheral\dma/cy_dma.h ****                                                (CY_DMA_RETRIG_16CYC   == (retrigger)) || \
 283:Generated_Source\PSoC6\pdl\drivers\peripheral\dma/cy_dma.h ****                                                (CY_DMA_WAIT_FOR_REACT == (retrigger)))
 284:Generated_Source\PSoC6\pdl\drivers\peripheral\dma/cy_dma.h ****                                               
 285:Generated_Source\PSoC6\pdl\drivers\peripheral\dma/cy_dma.h **** #define CY_DMA_IS_TRIG_TYPE_VALID(trigType)   ((CY_DMA_1ELEMENT    == (trigType)) || \
 286:Generated_Source\PSoC6\pdl\drivers\peripheral\dma/cy_dma.h ****                                                (CY_DMA_X_LOOP      == (trigType)) || \
 287:Generated_Source\PSoC6\pdl\drivers\peripheral\dma/cy_dma.h ****                                                (CY_DMA_DESCR       == (trigType)) || \
 288:Generated_Source\PSoC6\pdl\drivers\peripheral\dma/cy_dma.h ****                                                (CY_DMA_DESCR_CHAIN == (trigType)))
 289:Generated_Source\PSoC6\pdl\drivers\peripheral\dma/cy_dma.h ****                                               
 290:Generated_Source\PSoC6\pdl\drivers\peripheral\dma/cy_dma.h **** #define CY_DMA_IS_XFER_SIZE_VALID(xferSize)   ((CY_DMA_TRANSFER_SIZE_DATA == (xferSize)) || \
 291:Generated_Source\PSoC6\pdl\drivers\peripheral\dma/cy_dma.h ****                                                (CY_DMA_TRANSFER_SIZE_WORD == (xferSize)))
 292:Generated_Source\PSoC6\pdl\drivers\peripheral\dma/cy_dma.h ****                                               
 293:Generated_Source\PSoC6\pdl\drivers\peripheral\dma/cy_dma.h **** #define CY_DMA_IS_CHANNEL_STATE_VALID(state)  ((CY_DMA_CHANNEL_ENABLED  == (state)) || \
 294:Generated_Source\PSoC6\pdl\drivers\peripheral\dma/cy_dma.h ****                                                (CY_DMA_CHANNEL_DISABLED == (state)))
 295:Generated_Source\PSoC6\pdl\drivers\peripheral\dma/cy_dma.h ****                                                
 296:Generated_Source\PSoC6\pdl\drivers\peripheral\dma/cy_dma.h **** #define CY_DMA_IS_DATA_SIZE_VALID(dataSize)   ((CY_DMA_BYTE     == (dataSize)) || \
 297:Generated_Source\PSoC6\pdl\drivers\peripheral\dma/cy_dma.h ****                                                (CY_DMA_HALFWORD == (dataSize)) || \
 298:Generated_Source\PSoC6\pdl\drivers\peripheral\dma/cy_dma.h ****                                                (CY_DMA_WORD     == (dataSize)))
 299:Generated_Source\PSoC6\pdl\drivers\peripheral\dma/cy_dma.h ****                                                
 300:Generated_Source\PSoC6\pdl\drivers\peripheral\dma/cy_dma.h **** #define CY_DMA_IS_TYPE_VALID(descrType)       ((CY_DMA_SINGLE_TRANSFER == (descrType)) || \
 301:Generated_Source\PSoC6\pdl\drivers\peripheral\dma/cy_dma.h ****                                                (CY_DMA_1D_TRANSFER     == (descrType)) || \
 302:Generated_Source\PSoC6\pdl\drivers\peripheral\dma/cy_dma.h ****                                                (CY_DMA_2D_TRANSFER     == (descrType)))
 303:Generated_Source\PSoC6\pdl\drivers\peripheral\dma/cy_dma.h ****                                                
 304:Generated_Source\PSoC6\pdl\drivers\peripheral\dma/cy_dma.h **** #define CY_DMA_IS_DW_CH_NR_VALID(dwNr, chNr)  (((0U != CPUSS_DW0_PRESENT) && (DW0 == (dwNr)) && ((c
 305:Generated_Source\PSoC6\pdl\drivers\peripheral\dma/cy_dma.h ****                                                ((0U != CPUSS_DW1_PRESENT) && (DW1 == (dwNr)) && ((c
 306:Generated_Source\PSoC6\pdl\drivers\peripheral\dma/cy_dma.h **** 
 307:Generated_Source\PSoC6\pdl\drivers\peripheral\dma/cy_dma.h **** /* The descriptor structure bit-filed definitions */
 308:Generated_Source\PSoC6\pdl\drivers\peripheral\dma/cy_dma.h **** #define CY_DMA_CTL_RETRIG_Pos      0UL
 309:Generated_Source\PSoC6\pdl\drivers\peripheral\dma/cy_dma.h **** #define CY_DMA_CTL_RETRIG_Msk      0x3UL
 310:Generated_Source\PSoC6\pdl\drivers\peripheral\dma/cy_dma.h **** #define CY_DMA_CTL_INTR_TYPE_Pos   2UL
ARM GAS  C:\Users\cypress\AppData\Local\Temp\cczqZZvj.s 			page 28


 311:Generated_Source\PSoC6\pdl\drivers\peripheral\dma/cy_dma.h **** #define CY_DMA_CTL_INTR_TYPE_Msk   0xCUL
 312:Generated_Source\PSoC6\pdl\drivers\peripheral\dma/cy_dma.h **** #define CY_DMA_CTL_TR_OUT_TYPE_Pos 4UL
 313:Generated_Source\PSoC6\pdl\drivers\peripheral\dma/cy_dma.h **** #define CY_DMA_CTL_TR_OUT_TYPE_Msk 0x30UL
 314:Generated_Source\PSoC6\pdl\drivers\peripheral\dma/cy_dma.h **** #define CY_DMA_CTL_TR_IN_TYPE_Pos  6UL
 315:Generated_Source\PSoC6\pdl\drivers\peripheral\dma/cy_dma.h **** #define CY_DMA_CTL_TR_IN_TYPE_Msk  0xC0UL
 316:Generated_Source\PSoC6\pdl\drivers\peripheral\dma/cy_dma.h **** #define CY_DMA_CTL_CH_DISABLE_Pos  24UL
 317:Generated_Source\PSoC6\pdl\drivers\peripheral\dma/cy_dma.h **** #define CY_DMA_CTL_CH_DISABLE_Msk  0x1000000UL
 318:Generated_Source\PSoC6\pdl\drivers\peripheral\dma/cy_dma.h **** #define CY_DMA_CTL_SRC_SIZE_Pos    26UL
 319:Generated_Source\PSoC6\pdl\drivers\peripheral\dma/cy_dma.h **** #define CY_DMA_CTL_SRC_SIZE_Msk    0x4000000UL
 320:Generated_Source\PSoC6\pdl\drivers\peripheral\dma/cy_dma.h **** #define CY_DMA_CTL_DST_SIZE_Pos    27UL
 321:Generated_Source\PSoC6\pdl\drivers\peripheral\dma/cy_dma.h **** #define CY_DMA_CTL_DST_SIZE_Msk    0x8000000UL
 322:Generated_Source\PSoC6\pdl\drivers\peripheral\dma/cy_dma.h **** #define CY_DMA_CTL_DATA_SIZE_Pos   28UL
 323:Generated_Source\PSoC6\pdl\drivers\peripheral\dma/cy_dma.h **** #define CY_DMA_CTL_DATA_SIZE_Msk   0x30000000UL
 324:Generated_Source\PSoC6\pdl\drivers\peripheral\dma/cy_dma.h **** #define CY_DMA_CTL_TYPE_Pos        30UL
 325:Generated_Source\PSoC6\pdl\drivers\peripheral\dma/cy_dma.h **** #define CY_DMA_CTL_TYPE_Msk        0xC0000000UL
 326:Generated_Source\PSoC6\pdl\drivers\peripheral\dma/cy_dma.h **** 
 327:Generated_Source\PSoC6\pdl\drivers\peripheral\dma/cy_dma.h **** #define CY_DMA_CTL_SRC_INCR_Pos    0UL
 328:Generated_Source\PSoC6\pdl\drivers\peripheral\dma/cy_dma.h **** #define CY_DMA_CTL_SRC_INCR_Msk    0xFFFUL
 329:Generated_Source\PSoC6\pdl\drivers\peripheral\dma/cy_dma.h **** #define CY_DMA_CTL_DST_INCR_Pos    12UL
 330:Generated_Source\PSoC6\pdl\drivers\peripheral\dma/cy_dma.h **** #define CY_DMA_CTL_DST_INCR_Msk    0xFFF000UL
 331:Generated_Source\PSoC6\pdl\drivers\peripheral\dma/cy_dma.h **** #define CY_DMA_CTL_COUNT_Pos       24UL
 332:Generated_Source\PSoC6\pdl\drivers\peripheral\dma/cy_dma.h **** #define CY_DMA_CTL_COUNT_Msk       0xFF000000UL
 333:Generated_Source\PSoC6\pdl\drivers\peripheral\dma/cy_dma.h **** 
 334:Generated_Source\PSoC6\pdl\drivers\peripheral\dma/cy_dma.h **** /** \endcond */
 335:Generated_Source\PSoC6\pdl\drivers\peripheral\dma/cy_dma.h **** 
 336:Generated_Source\PSoC6\pdl\drivers\peripheral\dma/cy_dma.h **** 
 337:Generated_Source\PSoC6\pdl\drivers\peripheral\dma/cy_dma.h **** /**
 338:Generated_Source\PSoC6\pdl\drivers\peripheral\dma/cy_dma.h **** * \addtogroup group_dma_data_structures
 339:Generated_Source\PSoC6\pdl\drivers\peripheral\dma/cy_dma.h **** * \{
 340:Generated_Source\PSoC6\pdl\drivers\peripheral\dma/cy_dma.h **** */
 341:Generated_Source\PSoC6\pdl\drivers\peripheral\dma/cy_dma.h **** 
 342:Generated_Source\PSoC6\pdl\drivers\peripheral\dma/cy_dma.h **** /** 
 343:Generated_Source\PSoC6\pdl\drivers\peripheral\dma/cy_dma.h **** * DMA descriptor structure type. It is a user/component-declared structure 
 344:Generated_Source\PSoC6\pdl\drivers\peripheral\dma/cy_dma.h **** * allocated in RAM. The DMA HW requires a pointer to this structure to work with it.
 345:Generated_Source\PSoC6\pdl\drivers\peripheral\dma/cy_dma.h **** *
 346:Generated_Source\PSoC6\pdl\drivers\peripheral\dma/cy_dma.h **** * For advanced users: the descriptor can be allocated even in Flash, then the user
 347:Generated_Source\PSoC6\pdl\drivers\peripheral\dma/cy_dma.h **** * manually predefines all the structure items with constants, 
 348:Generated_Source\PSoC6\pdl\drivers\peripheral\dma/cy_dma.h **** * bacause most of the driver's API (especially functions modifying
 349:Generated_Source\PSoC6\pdl\drivers\peripheral\dma/cy_dma.h **** * descriptors, including \ref Cy_DMA_Descriptor_Init()) can't work with 
 350:Generated_Source\PSoC6\pdl\drivers\peripheral\dma/cy_dma.h **** * read-only descriptors.
 351:Generated_Source\PSoC6\pdl\drivers\peripheral\dma/cy_dma.h **** */
 352:Generated_Source\PSoC6\pdl\drivers\peripheral\dma/cy_dma.h **** typedef struct
 353:Generated_Source\PSoC6\pdl\drivers\peripheral\dma/cy_dma.h **** {
 354:Generated_Source\PSoC6\pdl\drivers\peripheral\dma/cy_dma.h ****     uint32_t ctl;                    /*!< 0x00000000 Descriptor control */
 355:Generated_Source\PSoC6\pdl\drivers\peripheral\dma/cy_dma.h ****     uint32_t src;                    /*!< 0x00000004 Descriptor source */
 356:Generated_Source\PSoC6\pdl\drivers\peripheral\dma/cy_dma.h ****     uint32_t dst;                    /*!< 0x00000008 Descriptor destination */
 357:Generated_Source\PSoC6\pdl\drivers\peripheral\dma/cy_dma.h ****     uint32_t xCtl;                   /*!< 0x0000000C Descriptor X loop control */
 358:Generated_Source\PSoC6\pdl\drivers\peripheral\dma/cy_dma.h ****     uint32_t yCtl;                   /*!< 0x00000010 Descriptor Y loop control */
 359:Generated_Source\PSoC6\pdl\drivers\peripheral\dma/cy_dma.h ****     uint32_t nextPtr;                /*!< 0x00000014 Descriptor next pointer */
 360:Generated_Source\PSoC6\pdl\drivers\peripheral\dma/cy_dma.h **** } cy_stc_dma_descriptor_t;
 361:Generated_Source\PSoC6\pdl\drivers\peripheral\dma/cy_dma.h **** 
 362:Generated_Source\PSoC6\pdl\drivers\peripheral\dma/cy_dma.h **** /**
 363:Generated_Source\PSoC6\pdl\drivers\peripheral\dma/cy_dma.h **** * This structure is a configuration structure pre-initialized by the user and
 364:Generated_Source\PSoC6\pdl\drivers\peripheral\dma/cy_dma.h **** * passed as a parameter to the \ref Cy_DMA_Descriptor_Init().
 365:Generated_Source\PSoC6\pdl\drivers\peripheral\dma/cy_dma.h **** * It can be allocated in RAM/Flash (on user's choice).
 366:Generated_Source\PSoC6\pdl\drivers\peripheral\dma/cy_dma.h **** * In case of Flash allocation there is a possibility to reinitialize the descriptor in runtime.
 367:Generated_Source\PSoC6\pdl\drivers\peripheral\dma/cy_dma.h **** * This structure has all the parameters of the descriptor as separate parameters.
ARM GAS  C:\Users\cypress\AppData\Local\Temp\cczqZZvj.s 			page 29


 368:Generated_Source\PSoC6\pdl\drivers\peripheral\dma/cy_dma.h **** * Most of these parameters are represented in the \ref cy_stc_dma_descriptor_t structure as bit fie
 369:Generated_Source\PSoC6\pdl\drivers\peripheral\dma/cy_dma.h **** */
 370:Generated_Source\PSoC6\pdl\drivers\peripheral\dma/cy_dma.h **** typedef struct
 371:Generated_Source\PSoC6\pdl\drivers\peripheral\dma/cy_dma.h **** {
 372:Generated_Source\PSoC6\pdl\drivers\peripheral\dma/cy_dma.h ****     cy_en_dma_retrigger_t       retrigger;       /**< Specifies whether the DW controller should wa
 373:Generated_Source\PSoC6\pdl\drivers\peripheral\dma/cy_dma.h ****     cy_en_dma_trigger_type_t    interruptType;   /**< Sets the event that triggers an interrupt, se
 374:Generated_Source\PSoC6\pdl\drivers\peripheral\dma/cy_dma.h ****     cy_en_dma_trigger_type_t    triggerOutType;  /**< Sets the event that triggers an output,    se
 375:Generated_Source\PSoC6\pdl\drivers\peripheral\dma/cy_dma.h ****     cy_en_dma_channel_state_t   channelState;    /**< Specifies if the channel is enabled or disabl
 376:Generated_Source\PSoC6\pdl\drivers\peripheral\dma/cy_dma.h ****     cy_en_dma_trigger_type_t    triggerInType;   /**< Sets what type of transfer is triggered,   se
 377:Generated_Source\PSoC6\pdl\drivers\peripheral\dma/cy_dma.h ****     cy_en_dma_data_size_t       dataSize;        /**< The size of the data bus for transfer,     se
 378:Generated_Source\PSoC6\pdl\drivers\peripheral\dma/cy_dma.h ****     cy_en_dma_transfer_size_t   srcTransferSize; /**< The source transfer size. */
 379:Generated_Source\PSoC6\pdl\drivers\peripheral\dma/cy_dma.h ****     cy_en_dma_transfer_size_t   dstTransferSize; /**< The destination transfer size. */
 380:Generated_Source\PSoC6\pdl\drivers\peripheral\dma/cy_dma.h ****     cy_en_dma_descriptor_type_t descriptorType;  /**< The type of the descriptor                 se
 381:Generated_Source\PSoC6\pdl\drivers\peripheral\dma/cy_dma.h ****     void *                      srcAddress;      /**< The source address of the transfer. */
 382:Generated_Source\PSoC6\pdl\drivers\peripheral\dma/cy_dma.h ****     void *                      dstAddress;      /**< The destination address of the transfer. */
 383:Generated_Source\PSoC6\pdl\drivers\peripheral\dma/cy_dma.h ****     int32_t                     srcXincrement;   /**< The address increment of the source after eac
 384:Generated_Source\PSoC6\pdl\drivers\peripheral\dma/cy_dma.h ****     int32_t                     dstXincrement;   /**< The address increment of the destination afte
 385:Generated_Source\PSoC6\pdl\drivers\peripheral\dma/cy_dma.h ****     uint32_t                    xCount;          /**< The number of transfers in an X-loop. Valid r
 386:Generated_Source\PSoC6\pdl\drivers\peripheral\dma/cy_dma.h ****     int32_t                     srcYincrement;   /**< The address increment of the source after eac
 387:Generated_Source\PSoC6\pdl\drivers\peripheral\dma/cy_dma.h ****     int32_t                     dstYincrement;   /**< The address increment of the destination afte
 388:Generated_Source\PSoC6\pdl\drivers\peripheral\dma/cy_dma.h ****     uint32_t                    yCount;          /**< The number of X-loops in the Y-loop. Valid ra
 389:Generated_Source\PSoC6\pdl\drivers\peripheral\dma/cy_dma.h ****     cy_stc_dma_descriptor_t *   nextDescriptor;  /**< The next descriptor to chain after completion
 390:Generated_Source\PSoC6\pdl\drivers\peripheral\dma/cy_dma.h **** } cy_stc_dma_descriptor_config_t;
 391:Generated_Source\PSoC6\pdl\drivers\peripheral\dma/cy_dma.h **** 
 392:Generated_Source\PSoC6\pdl\drivers\peripheral\dma/cy_dma.h **** /** This structure holds the initialization values for the DMA channel */
 393:Generated_Source\PSoC6\pdl\drivers\peripheral\dma/cy_dma.h **** typedef struct
 394:Generated_Source\PSoC6\pdl\drivers\peripheral\dma/cy_dma.h **** {
 395:Generated_Source\PSoC6\pdl\drivers\peripheral\dma/cy_dma.h ****     cy_stc_dma_descriptor_t * descriptor;      /**< The DMA descriptor associated with the channel 
 396:Generated_Source\PSoC6\pdl\drivers\peripheral\dma/cy_dma.h ****     bool     preemptable;                      /**< Specifies if the channel is preemptable by anot
 397:Generated_Source\PSoC6\pdl\drivers\peripheral\dma/cy_dma.h ****     uint32_t priority;                         /**< This parameter specifies the channel's priority
 398:Generated_Source\PSoC6\pdl\drivers\peripheral\dma/cy_dma.h ****     bool     enable;                           /**< This parameter specifies if the channel is enab
 399:Generated_Source\PSoC6\pdl\drivers\peripheral\dma/cy_dma.h ****     bool     bufferable;                       /**< This parameter specifies whether a write transa
 400:Generated_Source\PSoC6\pdl\drivers\peripheral\dma/cy_dma.h ****                                                     without waiting for the destination to accept t
 401:Generated_Source\PSoC6\pdl\drivers\peripheral\dma/cy_dma.h **** } cy_stc_dma_channel_config_t;
 402:Generated_Source\PSoC6\pdl\drivers\peripheral\dma/cy_dma.h **** 
 403:Generated_Source\PSoC6\pdl\drivers\peripheral\dma/cy_dma.h **** /** \} group_dma_data_structures */
 404:Generated_Source\PSoC6\pdl\drivers\peripheral\dma/cy_dma.h **** 
 405:Generated_Source\PSoC6\pdl\drivers\peripheral\dma/cy_dma.h **** 
 406:Generated_Source\PSoC6\pdl\drivers\peripheral\dma/cy_dma.h **** /**
 407:Generated_Source\PSoC6\pdl\drivers\peripheral\dma/cy_dma.h **** * \addtogroup group_dma_functions
 408:Generated_Source\PSoC6\pdl\drivers\peripheral\dma/cy_dma.h **** * \{
 409:Generated_Source\PSoC6\pdl\drivers\peripheral\dma/cy_dma.h **** */
 410:Generated_Source\PSoC6\pdl\drivers\peripheral\dma/cy_dma.h **** 
 411:Generated_Source\PSoC6\pdl\drivers\peripheral\dma/cy_dma.h **** __STATIC_INLINE void     Cy_DMA_Enable             (DW_Type * base);
 412:Generated_Source\PSoC6\pdl\drivers\peripheral\dma/cy_dma.h **** __STATIC_INLINE void     Cy_DMA_Disable            (DW_Type * base);
 413:Generated_Source\PSoC6\pdl\drivers\peripheral\dma/cy_dma.h **** __STATIC_INLINE uint32_t Cy_DMA_GetActiveChannel   (DW_Type const * base);
 414:Generated_Source\PSoC6\pdl\drivers\peripheral\dma/cy_dma.h **** __STATIC_INLINE void *   Cy_DMA_GetActiveSrcAddress(DW_Type const * base);
 415:Generated_Source\PSoC6\pdl\drivers\peripheral\dma/cy_dma.h **** __STATIC_INLINE void *   Cy_DMA_GetActiveDstAddress(DW_Type const * base);
 416:Generated_Source\PSoC6\pdl\drivers\peripheral\dma/cy_dma.h **** 
 417:Generated_Source\PSoC6\pdl\drivers\peripheral\dma/cy_dma.h **** 
 418:Generated_Source\PSoC6\pdl\drivers\peripheral\dma/cy_dma.h **** /**
 419:Generated_Source\PSoC6\pdl\drivers\peripheral\dma/cy_dma.h **** * \addtogroup group_dma_descriptor_functions
 420:Generated_Source\PSoC6\pdl\drivers\peripheral\dma/cy_dma.h **** * \{
 421:Generated_Source\PSoC6\pdl\drivers\peripheral\dma/cy_dma.h **** */
 422:Generated_Source\PSoC6\pdl\drivers\peripheral\dma/cy_dma.h **** 
 423:Generated_Source\PSoC6\pdl\drivers\peripheral\dma/cy_dma.h ****   cy_en_dma_status_t Cy_DMA_Descriptor_Init  (cy_stc_dma_descriptor_t * descriptor, cy_stc_dma_desc
 424:Generated_Source\PSoC6\pdl\drivers\peripheral\dma/cy_dma.h ****                 void Cy_DMA_Descriptor_DeInit(cy_stc_dma_descriptor_t * descriptor);
ARM GAS  C:\Users\cypress\AppData\Local\Temp\cczqZZvj.s 			page 30


 425:Generated_Source\PSoC6\pdl\drivers\peripheral\dma/cy_dma.h ****                 
 426:Generated_Source\PSoC6\pdl\drivers\peripheral\dma/cy_dma.h ****                 void Cy_DMA_Descriptor_SetNextDescriptor   (cy_stc_dma_descriptor_t * descriptor, c
 427:Generated_Source\PSoC6\pdl\drivers\peripheral\dma/cy_dma.h ****                 void Cy_DMA_Descriptor_SetDescriptorType   (cy_stc_dma_descriptor_t * descriptor, c
 428:Generated_Source\PSoC6\pdl\drivers\peripheral\dma/cy_dma.h **** __STATIC_INLINE void Cy_DMA_Descriptor_SetSrcAddress       (cy_stc_dma_descriptor_t * descriptor, v
 429:Generated_Source\PSoC6\pdl\drivers\peripheral\dma/cy_dma.h **** __STATIC_INLINE void Cy_DMA_Descriptor_SetDstAddress       (cy_stc_dma_descriptor_t * descriptor, v
 430:Generated_Source\PSoC6\pdl\drivers\peripheral\dma/cy_dma.h **** __STATIC_INLINE void Cy_DMA_Descriptor_SetXloopDataCount   (cy_stc_dma_descriptor_t * descriptor, u
 431:Generated_Source\PSoC6\pdl\drivers\peripheral\dma/cy_dma.h **** __STATIC_INLINE void Cy_DMA_Descriptor_SetYloopDataCount   (cy_stc_dma_descriptor_t * descriptor, u
 432:Generated_Source\PSoC6\pdl\drivers\peripheral\dma/cy_dma.h **** __STATIC_INLINE void Cy_DMA_Descriptor_SetXloopSrcIncrement(cy_stc_dma_descriptor_t * descriptor, i
 433:Generated_Source\PSoC6\pdl\drivers\peripheral\dma/cy_dma.h **** __STATIC_INLINE void Cy_DMA_Descriptor_SetXloopDstIncrement(cy_stc_dma_descriptor_t * descriptor, i
 434:Generated_Source\PSoC6\pdl\drivers\peripheral\dma/cy_dma.h **** __STATIC_INLINE void Cy_DMA_Descriptor_SetYloopSrcIncrement(cy_stc_dma_descriptor_t * descriptor, i
 435:Generated_Source\PSoC6\pdl\drivers\peripheral\dma/cy_dma.h **** __STATIC_INLINE void Cy_DMA_Descriptor_SetYloopDstIncrement(cy_stc_dma_descriptor_t * descriptor, i
 436:Generated_Source\PSoC6\pdl\drivers\peripheral\dma/cy_dma.h **** __STATIC_INLINE void Cy_DMA_Descriptor_SetInterruptType    (cy_stc_dma_descriptor_t * descriptor, c
 437:Generated_Source\PSoC6\pdl\drivers\peripheral\dma/cy_dma.h **** __STATIC_INLINE void Cy_DMA_Descriptor_SetTriggerInType    (cy_stc_dma_descriptor_t * descriptor, c
 438:Generated_Source\PSoC6\pdl\drivers\peripheral\dma/cy_dma.h **** __STATIC_INLINE void Cy_DMA_Descriptor_SetTriggerOutType   (cy_stc_dma_descriptor_t * descriptor, c
 439:Generated_Source\PSoC6\pdl\drivers\peripheral\dma/cy_dma.h **** __STATIC_INLINE void Cy_DMA_Descriptor_SetDataSize         (cy_stc_dma_descriptor_t * descriptor, c
 440:Generated_Source\PSoC6\pdl\drivers\peripheral\dma/cy_dma.h **** __STATIC_INLINE void Cy_DMA_Descriptor_SetSrcTransferSize  (cy_stc_dma_descriptor_t * descriptor, c
 441:Generated_Source\PSoC6\pdl\drivers\peripheral\dma/cy_dma.h **** __STATIC_INLINE void Cy_DMA_Descriptor_SetDstTransferSize  (cy_stc_dma_descriptor_t * descriptor, c
 442:Generated_Source\PSoC6\pdl\drivers\peripheral\dma/cy_dma.h **** __STATIC_INLINE void Cy_DMA_Descriptor_SetRetrigger        (cy_stc_dma_descriptor_t * descriptor, c
 443:Generated_Source\PSoC6\pdl\drivers\peripheral\dma/cy_dma.h **** __STATIC_INLINE void Cy_DMA_Descriptor_SetChannelState     (cy_stc_dma_descriptor_t * descriptor, c
 444:Generated_Source\PSoC6\pdl\drivers\peripheral\dma/cy_dma.h **** 
 445:Generated_Source\PSoC6\pdl\drivers\peripheral\dma/cy_dma.h ****                 cy_stc_dma_descriptor_t *   Cy_DMA_Descriptor_GetNextDescriptor   (cy_stc_dma_descr
 446:Generated_Source\PSoC6\pdl\drivers\peripheral\dma/cy_dma.h **** __STATIC_INLINE cy_en_dma_descriptor_type_t Cy_DMA_Descriptor_GetDescriptorType   (cy_stc_dma_descr
 447:Generated_Source\PSoC6\pdl\drivers\peripheral\dma/cy_dma.h **** __STATIC_INLINE void *                      Cy_DMA_Descriptor_GetSrcAddress       (cy_stc_dma_descr
 448:Generated_Source\PSoC6\pdl\drivers\peripheral\dma/cy_dma.h **** __STATIC_INLINE void *                      Cy_DMA_Descriptor_GetDstAddress       (cy_stc_dma_descr
 449:Generated_Source\PSoC6\pdl\drivers\peripheral\dma/cy_dma.h **** __STATIC_INLINE uint32_t                    Cy_DMA_Descriptor_GetXloopDataCount   (cy_stc_dma_descr
 450:Generated_Source\PSoC6\pdl\drivers\peripheral\dma/cy_dma.h **** __STATIC_INLINE uint32_t                    Cy_DMA_Descriptor_GetYloopDataCount   (cy_stc_dma_descr
 451:Generated_Source\PSoC6\pdl\drivers\peripheral\dma/cy_dma.h **** __STATIC_INLINE int32_t                     Cy_DMA_Descriptor_GetXloopSrcIncrement(cy_stc_dma_descr
 452:Generated_Source\PSoC6\pdl\drivers\peripheral\dma/cy_dma.h **** __STATIC_INLINE int32_t                     Cy_DMA_Descriptor_GetXloopDstIncrement(cy_stc_dma_descr
 453:Generated_Source\PSoC6\pdl\drivers\peripheral\dma/cy_dma.h **** __STATIC_INLINE int32_t                     Cy_DMA_Descriptor_GetYloopSrcIncrement(cy_stc_dma_descr
 454:Generated_Source\PSoC6\pdl\drivers\peripheral\dma/cy_dma.h **** __STATIC_INLINE int32_t                     Cy_DMA_Descriptor_GetYloopDstIncrement(cy_stc_dma_descr
 455:Generated_Source\PSoC6\pdl\drivers\peripheral\dma/cy_dma.h **** __STATIC_INLINE cy_en_dma_trigger_type_t    Cy_DMA_Descriptor_GetInterruptType    (cy_stc_dma_descr
 456:Generated_Source\PSoC6\pdl\drivers\peripheral\dma/cy_dma.h **** __STATIC_INLINE cy_en_dma_trigger_type_t    Cy_DMA_Descriptor_GetTriggerInType    (cy_stc_dma_descr
 457:Generated_Source\PSoC6\pdl\drivers\peripheral\dma/cy_dma.h **** __STATIC_INLINE cy_en_dma_trigger_type_t    Cy_DMA_Descriptor_GetTriggerOutType   (cy_stc_dma_descr
 458:Generated_Source\PSoC6\pdl\drivers\peripheral\dma/cy_dma.h **** __STATIC_INLINE cy_en_dma_data_size_t       Cy_DMA_Descriptor_GetDataSize         (cy_stc_dma_descr
 459:Generated_Source\PSoC6\pdl\drivers\peripheral\dma/cy_dma.h **** __STATIC_INLINE cy_en_dma_transfer_size_t   Cy_DMA_Descriptor_GetSrcTransferSize  (cy_stc_dma_descr
 460:Generated_Source\PSoC6\pdl\drivers\peripheral\dma/cy_dma.h **** __STATIC_INLINE cy_en_dma_transfer_size_t   Cy_DMA_Descriptor_GetDstTransferSize  (cy_stc_dma_descr
 461:Generated_Source\PSoC6\pdl\drivers\peripheral\dma/cy_dma.h **** __STATIC_INLINE cy_en_dma_retrigger_t       Cy_DMA_Descriptor_GetRetrigger        (cy_stc_dma_descr
 462:Generated_Source\PSoC6\pdl\drivers\peripheral\dma/cy_dma.h **** __STATIC_INLINE cy_en_dma_channel_state_t   Cy_DMA_Descriptor_GetChannelState     (cy_stc_dma_descr
 463:Generated_Source\PSoC6\pdl\drivers\peripheral\dma/cy_dma.h **** 
 464:Generated_Source\PSoC6\pdl\drivers\peripheral\dma/cy_dma.h **** /** \} group_dma_descriptor_functions */
 465:Generated_Source\PSoC6\pdl\drivers\peripheral\dma/cy_dma.h **** 
 466:Generated_Source\PSoC6\pdl\drivers\peripheral\dma/cy_dma.h **** 
 467:Generated_Source\PSoC6\pdl\drivers\peripheral\dma/cy_dma.h **** /**
 468:Generated_Source\PSoC6\pdl\drivers\peripheral\dma/cy_dma.h **** * \addtogroup group_dma_channel_functions
 469:Generated_Source\PSoC6\pdl\drivers\peripheral\dma/cy_dma.h **** * \{
 470:Generated_Source\PSoC6\pdl\drivers\peripheral\dma/cy_dma.h **** */
 471:Generated_Source\PSoC6\pdl\drivers\peripheral\dma/cy_dma.h **** 
 472:Generated_Source\PSoC6\pdl\drivers\peripheral\dma/cy_dma.h ****       cy_en_dma_status_t Cy_DMA_Channel_Init         (DW_Type * base, uint32_t channel, cy_stc_dma_
 473:Generated_Source\PSoC6\pdl\drivers\peripheral\dma/cy_dma.h ****                 void     Cy_DMA_Channel_DeInit       (DW_Type * base, uint32_t channel);
 474:Generated_Source\PSoC6\pdl\drivers\peripheral\dma/cy_dma.h **** __STATIC_INLINE void     Cy_DMA_Channel_SetDescriptor(DW_Type * base, uint32_t channel, cy_stc_dma_
 475:Generated_Source\PSoC6\pdl\drivers\peripheral\dma/cy_dma.h **** __STATIC_INLINE void     Cy_DMA_Channel_Enable       (DW_Type * base, uint32_t channel);
 476:Generated_Source\PSoC6\pdl\drivers\peripheral\dma/cy_dma.h **** __STATIC_INLINE void     Cy_DMA_Channel_Disable      (DW_Type * base, uint32_t channel);
 477:Generated_Source\PSoC6\pdl\drivers\peripheral\dma/cy_dma.h **** __STATIC_INLINE void     Cy_DMA_Channel_SetPriority  (DW_Type * base, uint32_t channel, uint32_t pr
 478:Generated_Source\PSoC6\pdl\drivers\peripheral\dma/cy_dma.h **** __STATIC_INLINE uint32_t Cy_DMA_Channel_GetPriority  (DW_Type const * base, uint32_t channel);
 479:Generated_Source\PSoC6\pdl\drivers\peripheral\dma/cy_dma.h **** __STATIC_INLINE cy_en_dma_intr_cause_t Cy_DMA_Channel_GetStatus(DW_Type const * base, uint32_t chan
 480:Generated_Source\PSoC6\pdl\drivers\peripheral\dma/cy_dma.h **** __STATIC_INLINE cy_stc_dma_descriptor_t * Cy_DMA_Channel_GetCurrentDescriptor(DW_Type const * base,
 481:Generated_Source\PSoC6\pdl\drivers\peripheral\dma/cy_dma.h **** 
ARM GAS  C:\Users\cypress\AppData\Local\Temp\cczqZZvj.s 			page 31


 482:Generated_Source\PSoC6\pdl\drivers\peripheral\dma/cy_dma.h **** __STATIC_INLINE uint32_t Cy_DMA_Channel_GetInterruptStatus      (DW_Type const * base, uint32_t cha
 483:Generated_Source\PSoC6\pdl\drivers\peripheral\dma/cy_dma.h **** __STATIC_INLINE void     Cy_DMA_Channel_ClearInterrupt          (DW_Type       * base, uint32_t cha
 484:Generated_Source\PSoC6\pdl\drivers\peripheral\dma/cy_dma.h **** __STATIC_INLINE void     Cy_DMA_Channel_SetInterrupt            (DW_Type       * base, uint32_t cha
 485:Generated_Source\PSoC6\pdl\drivers\peripheral\dma/cy_dma.h **** __STATIC_INLINE uint32_t Cy_DMA_Channel_GetInterruptMask        (DW_Type const * base, uint32_t cha
 486:Generated_Source\PSoC6\pdl\drivers\peripheral\dma/cy_dma.h **** __STATIC_INLINE void     Cy_DMA_Channel_SetInterruptMask        (DW_Type       * base, uint32_t cha
 487:Generated_Source\PSoC6\pdl\drivers\peripheral\dma/cy_dma.h **** __STATIC_INLINE uint32_t Cy_DMA_Channel_GetInterruptStatusMasked(DW_Type const * base, uint32_t cha
 488:Generated_Source\PSoC6\pdl\drivers\peripheral\dma/cy_dma.h **** 
 489:Generated_Source\PSoC6\pdl\drivers\peripheral\dma/cy_dma.h **** /** \} group_dma_channel_functions */
 490:Generated_Source\PSoC6\pdl\drivers\peripheral\dma/cy_dma.h **** 
 491:Generated_Source\PSoC6\pdl\drivers\peripheral\dma/cy_dma.h **** 
 492:Generated_Source\PSoC6\pdl\drivers\peripheral\dma/cy_dma.h **** /***************************************
 493:Generated_Source\PSoC6\pdl\drivers\peripheral\dma/cy_dma.h **** *    In-line Function Implementation
 494:Generated_Source\PSoC6\pdl\drivers\peripheral\dma/cy_dma.h **** ***************************************/
 495:Generated_Source\PSoC6\pdl\drivers\peripheral\dma/cy_dma.h **** 
 496:Generated_Source\PSoC6\pdl\drivers\peripheral\dma/cy_dma.h **** 
 497:Generated_Source\PSoC6\pdl\drivers\peripheral\dma/cy_dma.h **** /**
 498:Generated_Source\PSoC6\pdl\drivers\peripheral\dma/cy_dma.h **** * \addtogroup group_dma_block_functions
 499:Generated_Source\PSoC6\pdl\drivers\peripheral\dma/cy_dma.h **** * \{
 500:Generated_Source\PSoC6\pdl\drivers\peripheral\dma/cy_dma.h **** */
 501:Generated_Source\PSoC6\pdl\drivers\peripheral\dma/cy_dma.h **** 
 502:Generated_Source\PSoC6\pdl\drivers\peripheral\dma/cy_dma.h **** 
 503:Generated_Source\PSoC6\pdl\drivers\peripheral\dma/cy_dma.h **** /*******************************************************************************
 504:Generated_Source\PSoC6\pdl\drivers\peripheral\dma/cy_dma.h **** * Function Name: Cy_DMA_Enable
 505:Generated_Source\PSoC6\pdl\drivers\peripheral\dma/cy_dma.h **** ****************************************************************************//**
 506:Generated_Source\PSoC6\pdl\drivers\peripheral\dma/cy_dma.h **** *
 507:Generated_Source\PSoC6\pdl\drivers\peripheral\dma/cy_dma.h **** * Enables the DMA block.
 508:Generated_Source\PSoC6\pdl\drivers\peripheral\dma/cy_dma.h **** *
 509:Generated_Source\PSoC6\pdl\drivers\peripheral\dma/cy_dma.h **** * \param base
 510:Generated_Source\PSoC6\pdl\drivers\peripheral\dma/cy_dma.h **** * The pointer to the hardware DMA block.
 511:Generated_Source\PSoC6\pdl\drivers\peripheral\dma/cy_dma.h **** *
 512:Generated_Source\PSoC6\pdl\drivers\peripheral\dma/cy_dma.h **** *******************************************************************************/
 513:Generated_Source\PSoC6\pdl\drivers\peripheral\dma/cy_dma.h **** __STATIC_INLINE void Cy_DMA_Enable(DW_Type * base)
 514:Generated_Source\PSoC6\pdl\drivers\peripheral\dma/cy_dma.h **** {
 515:Generated_Source\PSoC6\pdl\drivers\peripheral\dma/cy_dma.h ****     base->CTL |= DW_CTL_ENABLED_Msk;
 516:Generated_Source\PSoC6\pdl\drivers\peripheral\dma/cy_dma.h **** }
 517:Generated_Source\PSoC6\pdl\drivers\peripheral\dma/cy_dma.h **** 
 518:Generated_Source\PSoC6\pdl\drivers\peripheral\dma/cy_dma.h **** 
 519:Generated_Source\PSoC6\pdl\drivers\peripheral\dma/cy_dma.h **** /*******************************************************************************
 520:Generated_Source\PSoC6\pdl\drivers\peripheral\dma/cy_dma.h **** * Function Name: Cy_DMA_Disable
 521:Generated_Source\PSoC6\pdl\drivers\peripheral\dma/cy_dma.h **** ****************************************************************************//**
 522:Generated_Source\PSoC6\pdl\drivers\peripheral\dma/cy_dma.h **** *
 523:Generated_Source\PSoC6\pdl\drivers\peripheral\dma/cy_dma.h **** * Disables the DMA block.
 524:Generated_Source\PSoC6\pdl\drivers\peripheral\dma/cy_dma.h **** *
 525:Generated_Source\PSoC6\pdl\drivers\peripheral\dma/cy_dma.h **** * \param base
 526:Generated_Source\PSoC6\pdl\drivers\peripheral\dma/cy_dma.h **** * The pointer to the hardware DMA block.
 527:Generated_Source\PSoC6\pdl\drivers\peripheral\dma/cy_dma.h **** *
 528:Generated_Source\PSoC6\pdl\drivers\peripheral\dma/cy_dma.h **** *******************************************************************************/
 529:Generated_Source\PSoC6\pdl\drivers\peripheral\dma/cy_dma.h **** __STATIC_INLINE void Cy_DMA_Disable(DW_Type * base)
 530:Generated_Source\PSoC6\pdl\drivers\peripheral\dma/cy_dma.h **** {
 531:Generated_Source\PSoC6\pdl\drivers\peripheral\dma/cy_dma.h ****     base->CTL &= (uint32_t) ~DW_CTL_ENABLED_Msk;
 532:Generated_Source\PSoC6\pdl\drivers\peripheral\dma/cy_dma.h **** }
 533:Generated_Source\PSoC6\pdl\drivers\peripheral\dma/cy_dma.h **** 
 534:Generated_Source\PSoC6\pdl\drivers\peripheral\dma/cy_dma.h **** 
 535:Generated_Source\PSoC6\pdl\drivers\peripheral\dma/cy_dma.h **** /*******************************************************************************
 536:Generated_Source\PSoC6\pdl\drivers\peripheral\dma/cy_dma.h **** * Function Name: Cy_DMA_GetActiveChannel
 537:Generated_Source\PSoC6\pdl\drivers\peripheral\dma/cy_dma.h **** ****************************************************************************//**
 538:Generated_Source\PSoC6\pdl\drivers\peripheral\dma/cy_dma.h **** *
ARM GAS  C:\Users\cypress\AppData\Local\Temp\cczqZZvj.s 			page 32


 539:Generated_Source\PSoC6\pdl\drivers\peripheral\dma/cy_dma.h **** * Returns the status of the active/pending channels.
 540:Generated_Source\PSoC6\pdl\drivers\peripheral\dma/cy_dma.h **** * the DMA block.
 541:Generated_Source\PSoC6\pdl\drivers\peripheral\dma/cy_dma.h **** *
 542:Generated_Source\PSoC6\pdl\drivers\peripheral\dma/cy_dma.h **** * \param base
 543:Generated_Source\PSoC6\pdl\drivers\peripheral\dma/cy_dma.h **** * The pointer to the hardware DMA block.
 544:Generated_Source\PSoC6\pdl\drivers\peripheral\dma/cy_dma.h **** *
 545:Generated_Source\PSoC6\pdl\drivers\peripheral\dma/cy_dma.h **** * \return
 546:Generated_Source\PSoC6\pdl\drivers\peripheral\dma/cy_dma.h **** * Returns a bit-field with all of the currently active/pending channels in the
 547:Generated_Source\PSoC6\pdl\drivers\peripheral\dma/cy_dma.h **** * DMA block.
 548:Generated_Source\PSoC6\pdl\drivers\peripheral\dma/cy_dma.h **** *
 549:Generated_Source\PSoC6\pdl\drivers\peripheral\dma/cy_dma.h **** *******************************************************************************/
 550:Generated_Source\PSoC6\pdl\drivers\peripheral\dma/cy_dma.h **** __STATIC_INLINE uint32_t Cy_DMA_GetActiveChannel(DW_Type const * base)
 551:Generated_Source\PSoC6\pdl\drivers\peripheral\dma/cy_dma.h **** {
 552:Generated_Source\PSoC6\pdl\drivers\peripheral\dma/cy_dma.h ****     return(_FLD2VAL(DW_STATUS_CH_IDX, base->STATUS));
 553:Generated_Source\PSoC6\pdl\drivers\peripheral\dma/cy_dma.h **** }
 554:Generated_Source\PSoC6\pdl\drivers\peripheral\dma/cy_dma.h **** 
 555:Generated_Source\PSoC6\pdl\drivers\peripheral\dma/cy_dma.h **** 
 556:Generated_Source\PSoC6\pdl\drivers\peripheral\dma/cy_dma.h **** /*******************************************************************************
 557:Generated_Source\PSoC6\pdl\drivers\peripheral\dma/cy_dma.h **** * Function Name: Cy_DMA_GetActiveSrcAddress
 558:Generated_Source\PSoC6\pdl\drivers\peripheral\dma/cy_dma.h **** ****************************************************************************//**
 559:Generated_Source\PSoC6\pdl\drivers\peripheral\dma/cy_dma.h **** *
 560:Generated_Source\PSoC6\pdl\drivers\peripheral\dma/cy_dma.h **** * Returns the source address being used for the current transfer.
 561:Generated_Source\PSoC6\pdl\drivers\peripheral\dma/cy_dma.h **** *
 562:Generated_Source\PSoC6\pdl\drivers\peripheral\dma/cy_dma.h **** * \param base
 563:Generated_Source\PSoC6\pdl\drivers\peripheral\dma/cy_dma.h **** * The pointer to the hardware DMA block.
 564:Generated_Source\PSoC6\pdl\drivers\peripheral\dma/cy_dma.h **** *
 565:Generated_Source\PSoC6\pdl\drivers\peripheral\dma/cy_dma.h **** * \return
 566:Generated_Source\PSoC6\pdl\drivers\peripheral\dma/cy_dma.h **** * Returns the pointer to the source of transfer.
 567:Generated_Source\PSoC6\pdl\drivers\peripheral\dma/cy_dma.h **** *
 568:Generated_Source\PSoC6\pdl\drivers\peripheral\dma/cy_dma.h **** *******************************************************************************/
 569:Generated_Source\PSoC6\pdl\drivers\peripheral\dma/cy_dma.h **** __STATIC_INLINE void * Cy_DMA_GetActiveSrcAddress(DW_Type const * base)
 570:Generated_Source\PSoC6\pdl\drivers\peripheral\dma/cy_dma.h **** {
 571:Generated_Source\PSoC6\pdl\drivers\peripheral\dma/cy_dma.h ****     return ((void *)base->ACT_DESCR_SRC);
 572:Generated_Source\PSoC6\pdl\drivers\peripheral\dma/cy_dma.h **** }
 573:Generated_Source\PSoC6\pdl\drivers\peripheral\dma/cy_dma.h **** 
 574:Generated_Source\PSoC6\pdl\drivers\peripheral\dma/cy_dma.h **** 
 575:Generated_Source\PSoC6\pdl\drivers\peripheral\dma/cy_dma.h **** /*******************************************************************************
 576:Generated_Source\PSoC6\pdl\drivers\peripheral\dma/cy_dma.h **** * Function Name: Cy_DMA_GetActiveDstAddress
 577:Generated_Source\PSoC6\pdl\drivers\peripheral\dma/cy_dma.h **** ****************************************************************************//**
 578:Generated_Source\PSoC6\pdl\drivers\peripheral\dma/cy_dma.h **** *
 579:Generated_Source\PSoC6\pdl\drivers\peripheral\dma/cy_dma.h **** * Returns the destination address being used for the current transfer.
 580:Generated_Source\PSoC6\pdl\drivers\peripheral\dma/cy_dma.h **** *
 581:Generated_Source\PSoC6\pdl\drivers\peripheral\dma/cy_dma.h **** * \param base
 582:Generated_Source\PSoC6\pdl\drivers\peripheral\dma/cy_dma.h **** * The pointer to the hardware DMA block.
 583:Generated_Source\PSoC6\pdl\drivers\peripheral\dma/cy_dma.h **** *
 584:Generated_Source\PSoC6\pdl\drivers\peripheral\dma/cy_dma.h **** * \return
 585:Generated_Source\PSoC6\pdl\drivers\peripheral\dma/cy_dma.h **** * Returns the pointer to the destination of transfer.
 586:Generated_Source\PSoC6\pdl\drivers\peripheral\dma/cy_dma.h **** *
 587:Generated_Source\PSoC6\pdl\drivers\peripheral\dma/cy_dma.h **** *******************************************************************************/
 588:Generated_Source\PSoC6\pdl\drivers\peripheral\dma/cy_dma.h **** __STATIC_INLINE void * Cy_DMA_GetActiveDstAddress(DW_Type const * base)
 589:Generated_Source\PSoC6\pdl\drivers\peripheral\dma/cy_dma.h **** {
 590:Generated_Source\PSoC6\pdl\drivers\peripheral\dma/cy_dma.h ****     return ((void *) base->ACT_DESCR_DST);
 591:Generated_Source\PSoC6\pdl\drivers\peripheral\dma/cy_dma.h **** }
 592:Generated_Source\PSoC6\pdl\drivers\peripheral\dma/cy_dma.h **** 
 593:Generated_Source\PSoC6\pdl\drivers\peripheral\dma/cy_dma.h **** /** \} group_dma_block_functions */
 594:Generated_Source\PSoC6\pdl\drivers\peripheral\dma/cy_dma.h **** 
 595:Generated_Source\PSoC6\pdl\drivers\peripheral\dma/cy_dma.h **** 
ARM GAS  C:\Users\cypress\AppData\Local\Temp\cczqZZvj.s 			page 33


 596:Generated_Source\PSoC6\pdl\drivers\peripheral\dma/cy_dma.h **** /**
 597:Generated_Source\PSoC6\pdl\drivers\peripheral\dma/cy_dma.h **** * \addtogroup group_dma_descriptor_functions
 598:Generated_Source\PSoC6\pdl\drivers\peripheral\dma/cy_dma.h **** * \{
 599:Generated_Source\PSoC6\pdl\drivers\peripheral\dma/cy_dma.h **** */
 600:Generated_Source\PSoC6\pdl\drivers\peripheral\dma/cy_dma.h **** 
 601:Generated_Source\PSoC6\pdl\drivers\peripheral\dma/cy_dma.h **** 
 602:Generated_Source\PSoC6\pdl\drivers\peripheral\dma/cy_dma.h **** /*******************************************************************************
 603:Generated_Source\PSoC6\pdl\drivers\peripheral\dma/cy_dma.h **** * Function Name: Cy_DMA_Descriptor_SetSrcAddress
 604:Generated_Source\PSoC6\pdl\drivers\peripheral\dma/cy_dma.h **** ****************************************************************************//**
 605:Generated_Source\PSoC6\pdl\drivers\peripheral\dma/cy_dma.h **** *
 606:Generated_Source\PSoC6\pdl\drivers\peripheral\dma/cy_dma.h **** * Sets the source address parameter for the specified descriptor.
 607:Generated_Source\PSoC6\pdl\drivers\peripheral\dma/cy_dma.h **** *
 608:Generated_Source\PSoC6\pdl\drivers\peripheral\dma/cy_dma.h **** * \param descriptor
 609:Generated_Source\PSoC6\pdl\drivers\peripheral\dma/cy_dma.h **** * The descriptor structure instance declared by the user/component.
 610:Generated_Source\PSoC6\pdl\drivers\peripheral\dma/cy_dma.h **** *
 611:Generated_Source\PSoC6\pdl\drivers\peripheral\dma/cy_dma.h **** * \param srcAddress
 612:Generated_Source\PSoC6\pdl\drivers\peripheral\dma/cy_dma.h **** * The source address value for the descriptor.
 613:Generated_Source\PSoC6\pdl\drivers\peripheral\dma/cy_dma.h **** *
 614:Generated_Source\PSoC6\pdl\drivers\peripheral\dma/cy_dma.h **** *******************************************************************************/
 615:Generated_Source\PSoC6\pdl\drivers\peripheral\dma/cy_dma.h **** __STATIC_INLINE void Cy_DMA_Descriptor_SetSrcAddress(cy_stc_dma_descriptor_t * descriptor, void con
 616:Generated_Source\PSoC6\pdl\drivers\peripheral\dma/cy_dma.h **** {
 617:Generated_Source\PSoC6\pdl\drivers\peripheral\dma/cy_dma.h ****     descriptor->src = (uint32_t) srcAddress;
 618:Generated_Source\PSoC6\pdl\drivers\peripheral\dma/cy_dma.h **** }
 619:Generated_Source\PSoC6\pdl\drivers\peripheral\dma/cy_dma.h **** 
 620:Generated_Source\PSoC6\pdl\drivers\peripheral\dma/cy_dma.h **** 
 621:Generated_Source\PSoC6\pdl\drivers\peripheral\dma/cy_dma.h **** /*******************************************************************************
 622:Generated_Source\PSoC6\pdl\drivers\peripheral\dma/cy_dma.h **** * Function Name: Cy_DMA_Descriptor_GetSrcAddress
 623:Generated_Source\PSoC6\pdl\drivers\peripheral\dma/cy_dma.h **** ****************************************************************************//**
 624:Generated_Source\PSoC6\pdl\drivers\peripheral\dma/cy_dma.h **** *
 625:Generated_Source\PSoC6\pdl\drivers\peripheral\dma/cy_dma.h **** * Returns the source address parameter of the specified descriptor.
 626:Generated_Source\PSoC6\pdl\drivers\peripheral\dma/cy_dma.h **** * 
 627:Generated_Source\PSoC6\pdl\drivers\peripheral\dma/cy_dma.h **** * \param descriptor
 628:Generated_Source\PSoC6\pdl\drivers\peripheral\dma/cy_dma.h **** * The descriptor structure instance declared by the user/component.
 629:Generated_Source\PSoC6\pdl\drivers\peripheral\dma/cy_dma.h **** *
 630:Generated_Source\PSoC6\pdl\drivers\peripheral\dma/cy_dma.h **** * \return
 631:Generated_Source\PSoC6\pdl\drivers\peripheral\dma/cy_dma.h **** * The source address value of the descriptor.
 632:Generated_Source\PSoC6\pdl\drivers\peripheral\dma/cy_dma.h **** *
 633:Generated_Source\PSoC6\pdl\drivers\peripheral\dma/cy_dma.h **** *******************************************************************************/
 634:Generated_Source\PSoC6\pdl\drivers\peripheral\dma/cy_dma.h **** __STATIC_INLINE void * Cy_DMA_Descriptor_GetSrcAddress(cy_stc_dma_descriptor_t const * descriptor)
 635:Generated_Source\PSoC6\pdl\drivers\peripheral\dma/cy_dma.h **** {
 636:Generated_Source\PSoC6\pdl\drivers\peripheral\dma/cy_dma.h ****     return ((void *) descriptor->src);
 637:Generated_Source\PSoC6\pdl\drivers\peripheral\dma/cy_dma.h **** }
 638:Generated_Source\PSoC6\pdl\drivers\peripheral\dma/cy_dma.h **** 
 639:Generated_Source\PSoC6\pdl\drivers\peripheral\dma/cy_dma.h **** 
 640:Generated_Source\PSoC6\pdl\drivers\peripheral\dma/cy_dma.h **** /*******************************************************************************
 641:Generated_Source\PSoC6\pdl\drivers\peripheral\dma/cy_dma.h **** * Function Name: Cy_DMA_Descriptor_SetDstAddress
 642:Generated_Source\PSoC6\pdl\drivers\peripheral\dma/cy_dma.h **** ****************************************************************************//**
 643:Generated_Source\PSoC6\pdl\drivers\peripheral\dma/cy_dma.h **** *
 644:Generated_Source\PSoC6\pdl\drivers\peripheral\dma/cy_dma.h **** * Sets the destination address parameter for the specified descriptor.
 645:Generated_Source\PSoC6\pdl\drivers\peripheral\dma/cy_dma.h **** *
 646:Generated_Source\PSoC6\pdl\drivers\peripheral\dma/cy_dma.h **** * \param descriptor
 647:Generated_Source\PSoC6\pdl\drivers\peripheral\dma/cy_dma.h **** * The descriptor structure instance declared by the user/component.
 648:Generated_Source\PSoC6\pdl\drivers\peripheral\dma/cy_dma.h **** *
 649:Generated_Source\PSoC6\pdl\drivers\peripheral\dma/cy_dma.h **** * \param dstAddress
 650:Generated_Source\PSoC6\pdl\drivers\peripheral\dma/cy_dma.h **** * The destination address value for the descriptor.
 651:Generated_Source\PSoC6\pdl\drivers\peripheral\dma/cy_dma.h **** *
 652:Generated_Source\PSoC6\pdl\drivers\peripheral\dma/cy_dma.h **** *******************************************************************************/
ARM GAS  C:\Users\cypress\AppData\Local\Temp\cczqZZvj.s 			page 34


 653:Generated_Source\PSoC6\pdl\drivers\peripheral\dma/cy_dma.h **** __STATIC_INLINE void Cy_DMA_Descriptor_SetDstAddress(cy_stc_dma_descriptor_t * descriptor, void con
 654:Generated_Source\PSoC6\pdl\drivers\peripheral\dma/cy_dma.h **** {
 655:Generated_Source\PSoC6\pdl\drivers\peripheral\dma/cy_dma.h ****     descriptor->dst = (uint32_t) dstAddress;
 656:Generated_Source\PSoC6\pdl\drivers\peripheral\dma/cy_dma.h **** }
 657:Generated_Source\PSoC6\pdl\drivers\peripheral\dma/cy_dma.h **** 
 658:Generated_Source\PSoC6\pdl\drivers\peripheral\dma/cy_dma.h **** 
 659:Generated_Source\PSoC6\pdl\drivers\peripheral\dma/cy_dma.h **** /*******************************************************************************
 660:Generated_Source\PSoC6\pdl\drivers\peripheral\dma/cy_dma.h **** * Function Name: Cy_DMA_Descriptor_GetDstAddress
 661:Generated_Source\PSoC6\pdl\drivers\peripheral\dma/cy_dma.h **** ****************************************************************************//**
 662:Generated_Source\PSoC6\pdl\drivers\peripheral\dma/cy_dma.h **** *
 663:Generated_Source\PSoC6\pdl\drivers\peripheral\dma/cy_dma.h **** * Returns the destination address parameter of the specified descriptor.
 664:Generated_Source\PSoC6\pdl\drivers\peripheral\dma/cy_dma.h **** * 
 665:Generated_Source\PSoC6\pdl\drivers\peripheral\dma/cy_dma.h **** * \param descriptor
 666:Generated_Source\PSoC6\pdl\drivers\peripheral\dma/cy_dma.h **** * The descriptor structure instance declared by the user/component.
 667:Generated_Source\PSoC6\pdl\drivers\peripheral\dma/cy_dma.h **** *
 668:Generated_Source\PSoC6\pdl\drivers\peripheral\dma/cy_dma.h **** * \return
 669:Generated_Source\PSoC6\pdl\drivers\peripheral\dma/cy_dma.h **** * The destination address value of the descriptor.
 670:Generated_Source\PSoC6\pdl\drivers\peripheral\dma/cy_dma.h **** *
 671:Generated_Source\PSoC6\pdl\drivers\peripheral\dma/cy_dma.h **** *******************************************************************************/
 672:Generated_Source\PSoC6\pdl\drivers\peripheral\dma/cy_dma.h **** __STATIC_INLINE void * Cy_DMA_Descriptor_GetDstAddress(cy_stc_dma_descriptor_t const * descriptor)
 673:Generated_Source\PSoC6\pdl\drivers\peripheral\dma/cy_dma.h **** {
 674:Generated_Source\PSoC6\pdl\drivers\peripheral\dma/cy_dma.h ****     return ((void *) descriptor->dst);
 675:Generated_Source\PSoC6\pdl\drivers\peripheral\dma/cy_dma.h **** }
 676:Generated_Source\PSoC6\pdl\drivers\peripheral\dma/cy_dma.h **** 
 677:Generated_Source\PSoC6\pdl\drivers\peripheral\dma/cy_dma.h **** 
 678:Generated_Source\PSoC6\pdl\drivers\peripheral\dma/cy_dma.h **** /*******************************************************************************
 679:Generated_Source\PSoC6\pdl\drivers\peripheral\dma/cy_dma.h **** * Function Name: Cy_DMA_Descriptor_SetInterruptType
 680:Generated_Source\PSoC6\pdl\drivers\peripheral\dma/cy_dma.h **** ****************************************************************************//**
 681:Generated_Source\PSoC6\pdl\drivers\peripheral\dma/cy_dma.h **** *
 682:Generated_Source\PSoC6\pdl\drivers\peripheral\dma/cy_dma.h **** * Sets the interrupt type parameter for the specified descriptor.
 683:Generated_Source\PSoC6\pdl\drivers\peripheral\dma/cy_dma.h **** *
 684:Generated_Source\PSoC6\pdl\drivers\peripheral\dma/cy_dma.h **** * \param descriptor
 685:Generated_Source\PSoC6\pdl\drivers\peripheral\dma/cy_dma.h **** * The descriptor structure instance declared by the user/component.
 686:Generated_Source\PSoC6\pdl\drivers\peripheral\dma/cy_dma.h **** *
 687:Generated_Source\PSoC6\pdl\drivers\peripheral\dma/cy_dma.h **** * \param interruptType
 688:Generated_Source\PSoC6\pdl\drivers\peripheral\dma/cy_dma.h **** * The interrupt type set for the descriptor. \ref cy_en_dma_trigger_type_t
 689:Generated_Source\PSoC6\pdl\drivers\peripheral\dma/cy_dma.h **** *
 690:Generated_Source\PSoC6\pdl\drivers\peripheral\dma/cy_dma.h **** *******************************************************************************/
 691:Generated_Source\PSoC6\pdl\drivers\peripheral\dma/cy_dma.h **** __STATIC_INLINE void Cy_DMA_Descriptor_SetInterruptType(cy_stc_dma_descriptor_t * descriptor, cy_en
 692:Generated_Source\PSoC6\pdl\drivers\peripheral\dma/cy_dma.h **** {
 693:Generated_Source\PSoC6\pdl\drivers\peripheral\dma/cy_dma.h ****     CY_ASSERT_L1(NULL != descriptor);
 694:Generated_Source\PSoC6\pdl\drivers\peripheral\dma/cy_dma.h ****     CY_ASSERT_L3(CY_DMA_IS_TRIG_TYPE_VALID(interruptType));
 695:Generated_Source\PSoC6\pdl\drivers\peripheral\dma/cy_dma.h ****     
 696:Generated_Source\PSoC6\pdl\drivers\peripheral\dma/cy_dma.h ****     descriptor->ctl = _CLR_SET_FLD32U(descriptor->ctl, CY_DMA_CTL_INTR_TYPE, interruptType);
 697:Generated_Source\PSoC6\pdl\drivers\peripheral\dma/cy_dma.h **** }
 698:Generated_Source\PSoC6\pdl\drivers\peripheral\dma/cy_dma.h **** 
 699:Generated_Source\PSoC6\pdl\drivers\peripheral\dma/cy_dma.h **** 
 700:Generated_Source\PSoC6\pdl\drivers\peripheral\dma/cy_dma.h **** /*******************************************************************************
 701:Generated_Source\PSoC6\pdl\drivers\peripheral\dma/cy_dma.h **** * Function Name: Cy_DMA_Descriptor_GetInterruptType
 702:Generated_Source\PSoC6\pdl\drivers\peripheral\dma/cy_dma.h **** ****************************************************************************//**
 703:Generated_Source\PSoC6\pdl\drivers\peripheral\dma/cy_dma.h **** *
 704:Generated_Source\PSoC6\pdl\drivers\peripheral\dma/cy_dma.h **** * Returns the Interrupt-Type of the specified descriptor.
 705:Generated_Source\PSoC6\pdl\drivers\peripheral\dma/cy_dma.h **** *
 706:Generated_Source\PSoC6\pdl\drivers\peripheral\dma/cy_dma.h **** * \param descriptor
 707:Generated_Source\PSoC6\pdl\drivers\peripheral\dma/cy_dma.h **** * The descriptor structure instance declared by the user/component.
 708:Generated_Source\PSoC6\pdl\drivers\peripheral\dma/cy_dma.h **** *
 709:Generated_Source\PSoC6\pdl\drivers\peripheral\dma/cy_dma.h **** * \return
ARM GAS  C:\Users\cypress\AppData\Local\Temp\cczqZZvj.s 			page 35


 710:Generated_Source\PSoC6\pdl\drivers\peripheral\dma/cy_dma.h **** * The Interrupt-Type \ref cy_en_dma_trigger_type_t.
 711:Generated_Source\PSoC6\pdl\drivers\peripheral\dma/cy_dma.h **** *  
 712:Generated_Source\PSoC6\pdl\drivers\peripheral\dma/cy_dma.h **** *******************************************************************************/
 713:Generated_Source\PSoC6\pdl\drivers\peripheral\dma/cy_dma.h **** __STATIC_INLINE cy_en_dma_trigger_type_t Cy_DMA_Descriptor_GetInterruptType(cy_stc_dma_descriptor_t
 714:Generated_Source\PSoC6\pdl\drivers\peripheral\dma/cy_dma.h **** {
 715:Generated_Source\PSoC6\pdl\drivers\peripheral\dma/cy_dma.h ****     CY_ASSERT_L1(NULL != descriptor);
 716:Generated_Source\PSoC6\pdl\drivers\peripheral\dma/cy_dma.h ****     
 717:Generated_Source\PSoC6\pdl\drivers\peripheral\dma/cy_dma.h ****     return((cy_en_dma_trigger_type_t) _FLD2VAL(CY_DMA_CTL_INTR_TYPE, descriptor->ctl));
 718:Generated_Source\PSoC6\pdl\drivers\peripheral\dma/cy_dma.h **** }
 719:Generated_Source\PSoC6\pdl\drivers\peripheral\dma/cy_dma.h **** 
 720:Generated_Source\PSoC6\pdl\drivers\peripheral\dma/cy_dma.h **** 
 721:Generated_Source\PSoC6\pdl\drivers\peripheral\dma/cy_dma.h **** /*******************************************************************************
 722:Generated_Source\PSoC6\pdl\drivers\peripheral\dma/cy_dma.h **** * Function Name: Cy_DMA_Descriptor_SetTriggerInType
 723:Generated_Source\PSoC6\pdl\drivers\peripheral\dma/cy_dma.h **** ****************************************************************************//**
 724:Generated_Source\PSoC6\pdl\drivers\peripheral\dma/cy_dma.h **** *
 725:Generated_Source\PSoC6\pdl\drivers\peripheral\dma/cy_dma.h **** * Sets the Trigger-In-Type parameter for the specified descriptor.
 726:Generated_Source\PSoC6\pdl\drivers\peripheral\dma/cy_dma.h **** *
 727:Generated_Source\PSoC6\pdl\drivers\peripheral\dma/cy_dma.h **** * \param descriptor
 728:Generated_Source\PSoC6\pdl\drivers\peripheral\dma/cy_dma.h **** * The descriptor structure instance declared by the user/component.
 729:Generated_Source\PSoC6\pdl\drivers\peripheral\dma/cy_dma.h **** *
 730:Generated_Source\PSoC6\pdl\drivers\peripheral\dma/cy_dma.h **** * \param triggerInType
 731:Generated_Source\PSoC6\pdl\drivers\peripheral\dma/cy_dma.h **** * The Trigger In Type parameter \ref cy_en_dma_trigger_type_t
 732:Generated_Source\PSoC6\pdl\drivers\peripheral\dma/cy_dma.h **** *
 733:Generated_Source\PSoC6\pdl\drivers\peripheral\dma/cy_dma.h **** *******************************************************************************/
 734:Generated_Source\PSoC6\pdl\drivers\peripheral\dma/cy_dma.h **** __STATIC_INLINE void Cy_DMA_Descriptor_SetTriggerInType(cy_stc_dma_descriptor_t * descriptor, cy_en
 735:Generated_Source\PSoC6\pdl\drivers\peripheral\dma/cy_dma.h **** {
 736:Generated_Source\PSoC6\pdl\drivers\peripheral\dma/cy_dma.h ****     CY_ASSERT_L1(NULL != descriptor);
 737:Generated_Source\PSoC6\pdl\drivers\peripheral\dma/cy_dma.h ****     CY_ASSERT_L3(CY_DMA_IS_TRIG_TYPE_VALID(triggerInType));
 738:Generated_Source\PSoC6\pdl\drivers\peripheral\dma/cy_dma.h ****     
 739:Generated_Source\PSoC6\pdl\drivers\peripheral\dma/cy_dma.h ****     descriptor->ctl = _CLR_SET_FLD32U(descriptor->ctl, CY_DMA_CTL_TR_IN_TYPE, triggerInType);
 740:Generated_Source\PSoC6\pdl\drivers\peripheral\dma/cy_dma.h **** }
 741:Generated_Source\PSoC6\pdl\drivers\peripheral\dma/cy_dma.h **** 
 742:Generated_Source\PSoC6\pdl\drivers\peripheral\dma/cy_dma.h **** 
 743:Generated_Source\PSoC6\pdl\drivers\peripheral\dma/cy_dma.h **** /*******************************************************************************
 744:Generated_Source\PSoC6\pdl\drivers\peripheral\dma/cy_dma.h **** * Function Name: Cy_DMA_Descriptor_GetTriggerInType
 745:Generated_Source\PSoC6\pdl\drivers\peripheral\dma/cy_dma.h **** ****************************************************************************//**
 746:Generated_Source\PSoC6\pdl\drivers\peripheral\dma/cy_dma.h **** *
 747:Generated_Source\PSoC6\pdl\drivers\peripheral\dma/cy_dma.h **** * Returns the Trigger-In-Type parameter of the specified descriptor.
 748:Generated_Source\PSoC6\pdl\drivers\peripheral\dma/cy_dma.h **** *
 749:Generated_Source\PSoC6\pdl\drivers\peripheral\dma/cy_dma.h **** * \param descriptor
 750:Generated_Source\PSoC6\pdl\drivers\peripheral\dma/cy_dma.h **** * The descriptor structure instance declared by the user/component.
 751:Generated_Source\PSoC6\pdl\drivers\peripheral\dma/cy_dma.h **** *
 752:Generated_Source\PSoC6\pdl\drivers\peripheral\dma/cy_dma.h **** * \return
 753:Generated_Source\PSoC6\pdl\drivers\peripheral\dma/cy_dma.h **** * The Trigger-In-Type \ref cy_en_dma_trigger_type_t
 754:Generated_Source\PSoC6\pdl\drivers\peripheral\dma/cy_dma.h **** *  
 755:Generated_Source\PSoC6\pdl\drivers\peripheral\dma/cy_dma.h **** *******************************************************************************/
 756:Generated_Source\PSoC6\pdl\drivers\peripheral\dma/cy_dma.h **** __STATIC_INLINE cy_en_dma_trigger_type_t Cy_DMA_Descriptor_GetTriggerInType(cy_stc_dma_descriptor_t
 757:Generated_Source\PSoC6\pdl\drivers\peripheral\dma/cy_dma.h **** {
 758:Generated_Source\PSoC6\pdl\drivers\peripheral\dma/cy_dma.h ****     CY_ASSERT_L1(NULL != descriptor);
 759:Generated_Source\PSoC6\pdl\drivers\peripheral\dma/cy_dma.h ****     
 760:Generated_Source\PSoC6\pdl\drivers\peripheral\dma/cy_dma.h ****     return((cy_en_dma_trigger_type_t) _FLD2VAL(CY_DMA_CTL_TR_IN_TYPE, descriptor->ctl));
 761:Generated_Source\PSoC6\pdl\drivers\peripheral\dma/cy_dma.h **** }
 762:Generated_Source\PSoC6\pdl\drivers\peripheral\dma/cy_dma.h **** 
 763:Generated_Source\PSoC6\pdl\drivers\peripheral\dma/cy_dma.h **** 
 764:Generated_Source\PSoC6\pdl\drivers\peripheral\dma/cy_dma.h **** /*******************************************************************************
 765:Generated_Source\PSoC6\pdl\drivers\peripheral\dma/cy_dma.h **** * Function Name: Cy_DMA_Descriptor_SetTriggerOutType
 766:Generated_Source\PSoC6\pdl\drivers\peripheral\dma/cy_dma.h **** ****************************************************************************//**
ARM GAS  C:\Users\cypress\AppData\Local\Temp\cczqZZvj.s 			page 36


 767:Generated_Source\PSoC6\pdl\drivers\peripheral\dma/cy_dma.h **** *
 768:Generated_Source\PSoC6\pdl\drivers\peripheral\dma/cy_dma.h **** * Sets the Trigger-Out-Type parameter for the specified descriptor.
 769:Generated_Source\PSoC6\pdl\drivers\peripheral\dma/cy_dma.h **** *
 770:Generated_Source\PSoC6\pdl\drivers\peripheral\dma/cy_dma.h **** * \param descriptor
 771:Generated_Source\PSoC6\pdl\drivers\peripheral\dma/cy_dma.h **** * The descriptor structure instance declared by the user/component.
 772:Generated_Source\PSoC6\pdl\drivers\peripheral\dma/cy_dma.h **** *
 773:Generated_Source\PSoC6\pdl\drivers\peripheral\dma/cy_dma.h **** * \param triggerOutType
 774:Generated_Source\PSoC6\pdl\drivers\peripheral\dma/cy_dma.h **** * The Trigger-Out-Type set for the descriptor. \ref cy_en_dma_trigger_type_t
 775:Generated_Source\PSoC6\pdl\drivers\peripheral\dma/cy_dma.h **** *
 776:Generated_Source\PSoC6\pdl\drivers\peripheral\dma/cy_dma.h **** *******************************************************************************/
 777:Generated_Source\PSoC6\pdl\drivers\peripheral\dma/cy_dma.h **** __STATIC_INLINE void Cy_DMA_Descriptor_SetTriggerOutType(cy_stc_dma_descriptor_t * descriptor, cy_e
 778:Generated_Source\PSoC6\pdl\drivers\peripheral\dma/cy_dma.h **** {
 779:Generated_Source\PSoC6\pdl\drivers\peripheral\dma/cy_dma.h ****     CY_ASSERT_L1(NULL != descriptor);
 780:Generated_Source\PSoC6\pdl\drivers\peripheral\dma/cy_dma.h ****     CY_ASSERT_L3(CY_DMA_IS_TRIG_TYPE_VALID(triggerOutType));
 781:Generated_Source\PSoC6\pdl\drivers\peripheral\dma/cy_dma.h ****     
 782:Generated_Source\PSoC6\pdl\drivers\peripheral\dma/cy_dma.h ****     descriptor->ctl = _CLR_SET_FLD32U(descriptor->ctl, CY_DMA_CTL_TR_OUT_TYPE, triggerOutType);
 783:Generated_Source\PSoC6\pdl\drivers\peripheral\dma/cy_dma.h **** }
 784:Generated_Source\PSoC6\pdl\drivers\peripheral\dma/cy_dma.h **** 
 785:Generated_Source\PSoC6\pdl\drivers\peripheral\dma/cy_dma.h **** 
 786:Generated_Source\PSoC6\pdl\drivers\peripheral\dma/cy_dma.h **** /*******************************************************************************
 787:Generated_Source\PSoC6\pdl\drivers\peripheral\dma/cy_dma.h **** * Function Name: Cy_DMA_Descriptor_GetTriggerOutType
 788:Generated_Source\PSoC6\pdl\drivers\peripheral\dma/cy_dma.h **** ****************************************************************************//**
 789:Generated_Source\PSoC6\pdl\drivers\peripheral\dma/cy_dma.h **** *
 790:Generated_Source\PSoC6\pdl\drivers\peripheral\dma/cy_dma.h **** * Returns the Trigger-Out-Type parameter of the specified descriptor.
 791:Generated_Source\PSoC6\pdl\drivers\peripheral\dma/cy_dma.h **** *
 792:Generated_Source\PSoC6\pdl\drivers\peripheral\dma/cy_dma.h **** * \param descriptor
 793:Generated_Source\PSoC6\pdl\drivers\peripheral\dma/cy_dma.h **** * The descriptor structure instance declared by the user/component.
 794:Generated_Source\PSoC6\pdl\drivers\peripheral\dma/cy_dma.h **** *
 795:Generated_Source\PSoC6\pdl\drivers\peripheral\dma/cy_dma.h **** * \return
 796:Generated_Source\PSoC6\pdl\drivers\peripheral\dma/cy_dma.h **** * The Trigger-Out-Type parameter \ref cy_en_dma_trigger_type_t.
 797:Generated_Source\PSoC6\pdl\drivers\peripheral\dma/cy_dma.h **** *  
 798:Generated_Source\PSoC6\pdl\drivers\peripheral\dma/cy_dma.h **** *******************************************************************************/
 799:Generated_Source\PSoC6\pdl\drivers\peripheral\dma/cy_dma.h **** __STATIC_INLINE cy_en_dma_trigger_type_t Cy_DMA_Descriptor_GetTriggerOutType(cy_stc_dma_descriptor_
 800:Generated_Source\PSoC6\pdl\drivers\peripheral\dma/cy_dma.h **** {
 801:Generated_Source\PSoC6\pdl\drivers\peripheral\dma/cy_dma.h ****     CY_ASSERT_L1(NULL != descriptor);
 802:Generated_Source\PSoC6\pdl\drivers\peripheral\dma/cy_dma.h ****     
 803:Generated_Source\PSoC6\pdl\drivers\peripheral\dma/cy_dma.h ****     return((cy_en_dma_trigger_type_t) _FLD2VAL(CY_DMA_CTL_TR_OUT_TYPE, descriptor->ctl));
 804:Generated_Source\PSoC6\pdl\drivers\peripheral\dma/cy_dma.h **** }
 805:Generated_Source\PSoC6\pdl\drivers\peripheral\dma/cy_dma.h **** 
 806:Generated_Source\PSoC6\pdl\drivers\peripheral\dma/cy_dma.h **** 
 807:Generated_Source\PSoC6\pdl\drivers\peripheral\dma/cy_dma.h **** /*******************************************************************************
 808:Generated_Source\PSoC6\pdl\drivers\peripheral\dma/cy_dma.h **** * Function Name: Cy_DMA_Descriptor_SetDataSize
 809:Generated_Source\PSoC6\pdl\drivers\peripheral\dma/cy_dma.h **** ****************************************************************************//**
 810:Generated_Source\PSoC6\pdl\drivers\peripheral\dma/cy_dma.h **** *
 811:Generated_Source\PSoC6\pdl\drivers\peripheral\dma/cy_dma.h **** * Sets the Data Element Size parameter for the specified descriptor.
 812:Generated_Source\PSoC6\pdl\drivers\peripheral\dma/cy_dma.h **** *
 813:Generated_Source\PSoC6\pdl\drivers\peripheral\dma/cy_dma.h **** * \param descriptor
 814:Generated_Source\PSoC6\pdl\drivers\peripheral\dma/cy_dma.h **** * The descriptor structure instance declared by the user/component.
 815:Generated_Source\PSoC6\pdl\drivers\peripheral\dma/cy_dma.h **** *
 816:Generated_Source\PSoC6\pdl\drivers\peripheral\dma/cy_dma.h **** * \param dataSize
 817:Generated_Source\PSoC6\pdl\drivers\peripheral\dma/cy_dma.h **** * The Data Element Size \ref cy_en_dma_data_size_t
 818:Generated_Source\PSoC6\pdl\drivers\peripheral\dma/cy_dma.h **** *  
 819:Generated_Source\PSoC6\pdl\drivers\peripheral\dma/cy_dma.h **** *******************************************************************************/
 820:Generated_Source\PSoC6\pdl\drivers\peripheral\dma/cy_dma.h **** __STATIC_INLINE void Cy_DMA_Descriptor_SetDataSize(cy_stc_dma_descriptor_t * descriptor, cy_en_dma_
 821:Generated_Source\PSoC6\pdl\drivers\peripheral\dma/cy_dma.h **** {
 822:Generated_Source\PSoC6\pdl\drivers\peripheral\dma/cy_dma.h ****     CY_ASSERT_L1(NULL != descriptor);
 823:Generated_Source\PSoC6\pdl\drivers\peripheral\dma/cy_dma.h ****     CY_ASSERT_L3(CY_DMA_IS_DATA_SIZE_VALID(dataSize));
ARM GAS  C:\Users\cypress\AppData\Local\Temp\cczqZZvj.s 			page 37


 824:Generated_Source\PSoC6\pdl\drivers\peripheral\dma/cy_dma.h ****     
 825:Generated_Source\PSoC6\pdl\drivers\peripheral\dma/cy_dma.h ****     descriptor->ctl = _CLR_SET_FLD32U(descriptor->ctl, CY_DMA_CTL_DATA_SIZE, dataSize);
 826:Generated_Source\PSoC6\pdl\drivers\peripheral\dma/cy_dma.h **** }
 827:Generated_Source\PSoC6\pdl\drivers\peripheral\dma/cy_dma.h **** 
 828:Generated_Source\PSoC6\pdl\drivers\peripheral\dma/cy_dma.h **** 
 829:Generated_Source\PSoC6\pdl\drivers\peripheral\dma/cy_dma.h **** /*******************************************************************************
 830:Generated_Source\PSoC6\pdl\drivers\peripheral\dma/cy_dma.h **** * Function Name: Cy_DMA_Descriptor_GetDataSize
 831:Generated_Source\PSoC6\pdl\drivers\peripheral\dma/cy_dma.h **** ****************************************************************************//**
 832:Generated_Source\PSoC6\pdl\drivers\peripheral\dma/cy_dma.h **** *
 833:Generated_Source\PSoC6\pdl\drivers\peripheral\dma/cy_dma.h **** * Returns the Data Element Size parameter of the specified descriptor.
 834:Generated_Source\PSoC6\pdl\drivers\peripheral\dma/cy_dma.h **** *
 835:Generated_Source\PSoC6\pdl\drivers\peripheral\dma/cy_dma.h **** * \param descriptor
 836:Generated_Source\PSoC6\pdl\drivers\peripheral\dma/cy_dma.h **** * The descriptor structure instance declared by the user/component.
 837:Generated_Source\PSoC6\pdl\drivers\peripheral\dma/cy_dma.h **** *
 838:Generated_Source\PSoC6\pdl\drivers\peripheral\dma/cy_dma.h **** * \return
 839:Generated_Source\PSoC6\pdl\drivers\peripheral\dma/cy_dma.h **** * The Data Element Size \ref cy_en_dma_data_size_t.
 840:Generated_Source\PSoC6\pdl\drivers\peripheral\dma/cy_dma.h **** *  
 841:Generated_Source\PSoC6\pdl\drivers\peripheral\dma/cy_dma.h **** *******************************************************************************/
 842:Generated_Source\PSoC6\pdl\drivers\peripheral\dma/cy_dma.h **** __STATIC_INLINE cy_en_dma_data_size_t Cy_DMA_Descriptor_GetDataSize(cy_stc_dma_descriptor_t const *
 843:Generated_Source\PSoC6\pdl\drivers\peripheral\dma/cy_dma.h **** {
 844:Generated_Source\PSoC6\pdl\drivers\peripheral\dma/cy_dma.h ****     CY_ASSERT_L1(NULL != descriptor);
 845:Generated_Source\PSoC6\pdl\drivers\peripheral\dma/cy_dma.h ****     
 846:Generated_Source\PSoC6\pdl\drivers\peripheral\dma/cy_dma.h ****     return((cy_en_dma_data_size_t) _FLD2VAL(CY_DMA_CTL_DATA_SIZE, descriptor->ctl));
 847:Generated_Source\PSoC6\pdl\drivers\peripheral\dma/cy_dma.h **** }
 848:Generated_Source\PSoC6\pdl\drivers\peripheral\dma/cy_dma.h **** 
 849:Generated_Source\PSoC6\pdl\drivers\peripheral\dma/cy_dma.h **** 
 850:Generated_Source\PSoC6\pdl\drivers\peripheral\dma/cy_dma.h **** /*******************************************************************************
 851:Generated_Source\PSoC6\pdl\drivers\peripheral\dma/cy_dma.h **** * Function Name: Cy_DMA_Descriptor_SetSrcTransferSize
 852:Generated_Source\PSoC6\pdl\drivers\peripheral\dma/cy_dma.h **** ****************************************************************************//**
 853:Generated_Source\PSoC6\pdl\drivers\peripheral\dma/cy_dma.h **** *
 854:Generated_Source\PSoC6\pdl\drivers\peripheral\dma/cy_dma.h **** * Sets the Source Transfer Size parameter for the specified descriptor.
 855:Generated_Source\PSoC6\pdl\drivers\peripheral\dma/cy_dma.h **** *
 856:Generated_Source\PSoC6\pdl\drivers\peripheral\dma/cy_dma.h **** * \param descriptor
 857:Generated_Source\PSoC6\pdl\drivers\peripheral\dma/cy_dma.h **** * The descriptor structure instance declared by the user/component.
 858:Generated_Source\PSoC6\pdl\drivers\peripheral\dma/cy_dma.h **** *
 859:Generated_Source\PSoC6\pdl\drivers\peripheral\dma/cy_dma.h **** * \param srcTransferSize
 860:Generated_Source\PSoC6\pdl\drivers\peripheral\dma/cy_dma.h **** * The Source Transfer Size \ref cy_en_dma_transfer_size_t.
 861:Generated_Source\PSoC6\pdl\drivers\peripheral\dma/cy_dma.h **** *
 862:Generated_Source\PSoC6\pdl\drivers\peripheral\dma/cy_dma.h **** *******************************************************************************/
 863:Generated_Source\PSoC6\pdl\drivers\peripheral\dma/cy_dma.h **** __STATIC_INLINE void Cy_DMA_Descriptor_SetSrcTransferSize(cy_stc_dma_descriptor_t * descriptor, cy_
 864:Generated_Source\PSoC6\pdl\drivers\peripheral\dma/cy_dma.h **** {
 865:Generated_Source\PSoC6\pdl\drivers\peripheral\dma/cy_dma.h ****     CY_ASSERT_L1(NULL != descriptor);
 866:Generated_Source\PSoC6\pdl\drivers\peripheral\dma/cy_dma.h ****     CY_ASSERT_L3(CY_DMA_IS_XFER_SIZE_VALID(srcTransferSize));
 867:Generated_Source\PSoC6\pdl\drivers\peripheral\dma/cy_dma.h **** 
 868:Generated_Source\PSoC6\pdl\drivers\peripheral\dma/cy_dma.h ****     descriptor->ctl = _CLR_SET_FLD32U(descriptor->ctl, CY_DMA_CTL_SRC_SIZE, srcTransferSize);
 869:Generated_Source\PSoC6\pdl\drivers\peripheral\dma/cy_dma.h **** }
 870:Generated_Source\PSoC6\pdl\drivers\peripheral\dma/cy_dma.h **** 
 871:Generated_Source\PSoC6\pdl\drivers\peripheral\dma/cy_dma.h **** 
 872:Generated_Source\PSoC6\pdl\drivers\peripheral\dma/cy_dma.h **** /*******************************************************************************
 873:Generated_Source\PSoC6\pdl\drivers\peripheral\dma/cy_dma.h **** * Function Name: Cy_DMA_Descriptor_GetSrcTransferSize
 874:Generated_Source\PSoC6\pdl\drivers\peripheral\dma/cy_dma.h **** ****************************************************************************//**
 875:Generated_Source\PSoC6\pdl\drivers\peripheral\dma/cy_dma.h **** *
 876:Generated_Source\PSoC6\pdl\drivers\peripheral\dma/cy_dma.h **** * Returns the Source Transfer Size parameter of the specified descriptor.
 877:Generated_Source\PSoC6\pdl\drivers\peripheral\dma/cy_dma.h **** *
 878:Generated_Source\PSoC6\pdl\drivers\peripheral\dma/cy_dma.h **** * \param descriptor
 879:Generated_Source\PSoC6\pdl\drivers\peripheral\dma/cy_dma.h **** * The descriptor structure instance declared by the user/component.
 880:Generated_Source\PSoC6\pdl\drivers\peripheral\dma/cy_dma.h **** *
ARM GAS  C:\Users\cypress\AppData\Local\Temp\cczqZZvj.s 			page 38


 881:Generated_Source\PSoC6\pdl\drivers\peripheral\dma/cy_dma.h **** * \return
 882:Generated_Source\PSoC6\pdl\drivers\peripheral\dma/cy_dma.h **** * The Source Transfer Size \ref cy_en_dma_transfer_size_t.
 883:Generated_Source\PSoC6\pdl\drivers\peripheral\dma/cy_dma.h **** *  
 884:Generated_Source\PSoC6\pdl\drivers\peripheral\dma/cy_dma.h **** *******************************************************************************/
 885:Generated_Source\PSoC6\pdl\drivers\peripheral\dma/cy_dma.h **** __STATIC_INLINE cy_en_dma_transfer_size_t Cy_DMA_Descriptor_GetSrcTransferSize(cy_stc_dma_descripto
 886:Generated_Source\PSoC6\pdl\drivers\peripheral\dma/cy_dma.h **** {
 887:Generated_Source\PSoC6\pdl\drivers\peripheral\dma/cy_dma.h ****     CY_ASSERT_L1(NULL != descriptor);
 888:Generated_Source\PSoC6\pdl\drivers\peripheral\dma/cy_dma.h ****     
 889:Generated_Source\PSoC6\pdl\drivers\peripheral\dma/cy_dma.h ****     return((cy_en_dma_transfer_size_t) _FLD2VAL(CY_DMA_CTL_SRC_SIZE, descriptor->ctl));
 890:Generated_Source\PSoC6\pdl\drivers\peripheral\dma/cy_dma.h **** }
 891:Generated_Source\PSoC6\pdl\drivers\peripheral\dma/cy_dma.h **** 
 892:Generated_Source\PSoC6\pdl\drivers\peripheral\dma/cy_dma.h **** 
 893:Generated_Source\PSoC6\pdl\drivers\peripheral\dma/cy_dma.h **** /*******************************************************************************
 894:Generated_Source\PSoC6\pdl\drivers\peripheral\dma/cy_dma.h **** * Function Name: Cy_DMA_Descriptor_SetDstTransferSize
 895:Generated_Source\PSoC6\pdl\drivers\peripheral\dma/cy_dma.h **** ****************************************************************************//**
 896:Generated_Source\PSoC6\pdl\drivers\peripheral\dma/cy_dma.h **** *
 897:Generated_Source\PSoC6\pdl\drivers\peripheral\dma/cy_dma.h **** * Sets the Destination Transfer Size parameter for the specified descriptor.
 898:Generated_Source\PSoC6\pdl\drivers\peripheral\dma/cy_dma.h **** *
 899:Generated_Source\PSoC6\pdl\drivers\peripheral\dma/cy_dma.h **** * \param descriptor
 900:Generated_Source\PSoC6\pdl\drivers\peripheral\dma/cy_dma.h **** * The descriptor structure instance declared by the user/component.
 901:Generated_Source\PSoC6\pdl\drivers\peripheral\dma/cy_dma.h **** *
 902:Generated_Source\PSoC6\pdl\drivers\peripheral\dma/cy_dma.h **** * \param dstTransferSize
 903:Generated_Source\PSoC6\pdl\drivers\peripheral\dma/cy_dma.h **** * The Destination Transfer Size \ref cy_en_dma_transfer_size_t.
 904:Generated_Source\PSoC6\pdl\drivers\peripheral\dma/cy_dma.h **** *
 905:Generated_Source\PSoC6\pdl\drivers\peripheral\dma/cy_dma.h **** *******************************************************************************/
 906:Generated_Source\PSoC6\pdl\drivers\peripheral\dma/cy_dma.h **** __STATIC_INLINE void Cy_DMA_Descriptor_SetDstTransferSize(cy_stc_dma_descriptor_t * descriptor, cy_
 907:Generated_Source\PSoC6\pdl\drivers\peripheral\dma/cy_dma.h **** {
 908:Generated_Source\PSoC6\pdl\drivers\peripheral\dma/cy_dma.h ****     CY_ASSERT_L1(NULL != descriptor);
 909:Generated_Source\PSoC6\pdl\drivers\peripheral\dma/cy_dma.h ****     CY_ASSERT_L3(CY_DMA_IS_XFER_SIZE_VALID(dstTransferSize));
 910:Generated_Source\PSoC6\pdl\drivers\peripheral\dma/cy_dma.h ****     
 911:Generated_Source\PSoC6\pdl\drivers\peripheral\dma/cy_dma.h ****     descriptor->ctl = _CLR_SET_FLD32U(descriptor->ctl, CY_DMA_CTL_DST_SIZE, dstTransferSize);
 912:Generated_Source\PSoC6\pdl\drivers\peripheral\dma/cy_dma.h **** }
 913:Generated_Source\PSoC6\pdl\drivers\peripheral\dma/cy_dma.h **** 
 914:Generated_Source\PSoC6\pdl\drivers\peripheral\dma/cy_dma.h **** 
 915:Generated_Source\PSoC6\pdl\drivers\peripheral\dma/cy_dma.h **** /*******************************************************************************
 916:Generated_Source\PSoC6\pdl\drivers\peripheral\dma/cy_dma.h **** * Function Name: Cy_DMA_Descriptor_GetDstTransferSize
 917:Generated_Source\PSoC6\pdl\drivers\peripheral\dma/cy_dma.h **** ****************************************************************************//**
 918:Generated_Source\PSoC6\pdl\drivers\peripheral\dma/cy_dma.h **** *
 919:Generated_Source\PSoC6\pdl\drivers\peripheral\dma/cy_dma.h **** * Returns the Destination Transfer Size parameter of the specified descriptor.
 920:Generated_Source\PSoC6\pdl\drivers\peripheral\dma/cy_dma.h **** *
 921:Generated_Source\PSoC6\pdl\drivers\peripheral\dma/cy_dma.h **** * \param descriptor
 922:Generated_Source\PSoC6\pdl\drivers\peripheral\dma/cy_dma.h **** * The descriptor structure instance declared by the user/component.
 923:Generated_Source\PSoC6\pdl\drivers\peripheral\dma/cy_dma.h **** *
 924:Generated_Source\PSoC6\pdl\drivers\peripheral\dma/cy_dma.h **** * \return
 925:Generated_Source\PSoC6\pdl\drivers\peripheral\dma/cy_dma.h **** * The Destination Transfer Size \ref cy_en_dma_transfer_size_t
 926:Generated_Source\PSoC6\pdl\drivers\peripheral\dma/cy_dma.h **** *  
 927:Generated_Source\PSoC6\pdl\drivers\peripheral\dma/cy_dma.h **** *******************************************************************************/
 928:Generated_Source\PSoC6\pdl\drivers\peripheral\dma/cy_dma.h **** __STATIC_INLINE cy_en_dma_transfer_size_t Cy_DMA_Descriptor_GetDstTransferSize(cy_stc_dma_descripto
 929:Generated_Source\PSoC6\pdl\drivers\peripheral\dma/cy_dma.h **** {
 930:Generated_Source\PSoC6\pdl\drivers\peripheral\dma/cy_dma.h ****     CY_ASSERT_L1(NULL != descriptor);
 931:Generated_Source\PSoC6\pdl\drivers\peripheral\dma/cy_dma.h ****     
 932:Generated_Source\PSoC6\pdl\drivers\peripheral\dma/cy_dma.h ****     return((cy_en_dma_transfer_size_t) _FLD2VAL(CY_DMA_CTL_DST_SIZE, descriptor->ctl));
 933:Generated_Source\PSoC6\pdl\drivers\peripheral\dma/cy_dma.h **** }
 934:Generated_Source\PSoC6\pdl\drivers\peripheral\dma/cy_dma.h **** 
 935:Generated_Source\PSoC6\pdl\drivers\peripheral\dma/cy_dma.h **** 
 936:Generated_Source\PSoC6\pdl\drivers\peripheral\dma/cy_dma.h **** /*******************************************************************************
 937:Generated_Source\PSoC6\pdl\drivers\peripheral\dma/cy_dma.h **** * Function Name: Cy_DMA_Descriptor_SetRetrigger
ARM GAS  C:\Users\cypress\AppData\Local\Temp\cczqZZvj.s 			page 39


 938:Generated_Source\PSoC6\pdl\drivers\peripheral\dma/cy_dma.h **** ****************************************************************************//**
 939:Generated_Source\PSoC6\pdl\drivers\peripheral\dma/cy_dma.h **** *
 940:Generated_Source\PSoC6\pdl\drivers\peripheral\dma/cy_dma.h **** * Sets the retrigger value which specifies whether the controller should 
 941:Generated_Source\PSoC6\pdl\drivers\peripheral\dma/cy_dma.h **** * wait for the input trigger to be deactivated.
 942:Generated_Source\PSoC6\pdl\drivers\peripheral\dma/cy_dma.h **** *
 943:Generated_Source\PSoC6\pdl\drivers\peripheral\dma/cy_dma.h **** * \param descriptor
 944:Generated_Source\PSoC6\pdl\drivers\peripheral\dma/cy_dma.h **** * The descriptor structure instance declared by the user/component.
 945:Generated_Source\PSoC6\pdl\drivers\peripheral\dma/cy_dma.h **** *
 946:Generated_Source\PSoC6\pdl\drivers\peripheral\dma/cy_dma.h **** * \param retrigger 
 947:Generated_Source\PSoC6\pdl\drivers\peripheral\dma/cy_dma.h **** * The \ref cy_en_dma_retrigger_t parameter specifies whether the controller
 948:Generated_Source\PSoC6\pdl\drivers\peripheral\dma/cy_dma.h **** * should wait for the input trigger to be deactivated.
 949:Generated_Source\PSoC6\pdl\drivers\peripheral\dma/cy_dma.h **** *
 950:Generated_Source\PSoC6\pdl\drivers\peripheral\dma/cy_dma.h **** *******************************************************************************/
 951:Generated_Source\PSoC6\pdl\drivers\peripheral\dma/cy_dma.h **** __STATIC_INLINE void Cy_DMA_Descriptor_SetRetrigger(cy_stc_dma_descriptor_t * descriptor, cy_en_dma
 952:Generated_Source\PSoC6\pdl\drivers\peripheral\dma/cy_dma.h **** {
 953:Generated_Source\PSoC6\pdl\drivers\peripheral\dma/cy_dma.h ****     CY_ASSERT_L1(NULL != descriptor);
 954:Generated_Source\PSoC6\pdl\drivers\peripheral\dma/cy_dma.h ****     CY_ASSERT_L3(CY_DMA_IS_RETRIGGER_VALID(retrigger));
 955:Generated_Source\PSoC6\pdl\drivers\peripheral\dma/cy_dma.h ****     
 956:Generated_Source\PSoC6\pdl\drivers\peripheral\dma/cy_dma.h ****     descriptor->ctl = _CLR_SET_FLD32U(descriptor->ctl, CY_DMA_CTL_RETRIG, retrigger);
 957:Generated_Source\PSoC6\pdl\drivers\peripheral\dma/cy_dma.h **** }
 958:Generated_Source\PSoC6\pdl\drivers\peripheral\dma/cy_dma.h **** 
 959:Generated_Source\PSoC6\pdl\drivers\peripheral\dma/cy_dma.h **** 
 960:Generated_Source\PSoC6\pdl\drivers\peripheral\dma/cy_dma.h **** /*******************************************************************************
 961:Generated_Source\PSoC6\pdl\drivers\peripheral\dma/cy_dma.h **** * Function Name: Cy_DMA_Descriptor_GetRetrigger
 962:Generated_Source\PSoC6\pdl\drivers\peripheral\dma/cy_dma.h **** ****************************************************************************//**
 963:Generated_Source\PSoC6\pdl\drivers\peripheral\dma/cy_dma.h **** *
 964:Generated_Source\PSoC6\pdl\drivers\peripheral\dma/cy_dma.h **** * Returns a value which specifies whether the controller should 
 965:Generated_Source\PSoC6\pdl\drivers\peripheral\dma/cy_dma.h **** * wait for the input trigger to be deactivated.
 966:Generated_Source\PSoC6\pdl\drivers\peripheral\dma/cy_dma.h **** *
 967:Generated_Source\PSoC6\pdl\drivers\peripheral\dma/cy_dma.h **** * \param descriptor
 968:Generated_Source\PSoC6\pdl\drivers\peripheral\dma/cy_dma.h **** * The descriptor structure instance declared by the user/component.
 969:Generated_Source\PSoC6\pdl\drivers\peripheral\dma/cy_dma.h **** *
 970:Generated_Source\PSoC6\pdl\drivers\peripheral\dma/cy_dma.h **** * \return
 971:Generated_Source\PSoC6\pdl\drivers\peripheral\dma/cy_dma.h **** * The Retrigger setting \ref cy_en_dma_retrigger_t.
 972:Generated_Source\PSoC6\pdl\drivers\peripheral\dma/cy_dma.h **** *  
 973:Generated_Source\PSoC6\pdl\drivers\peripheral\dma/cy_dma.h **** *******************************************************************************/
 974:Generated_Source\PSoC6\pdl\drivers\peripheral\dma/cy_dma.h **** __STATIC_INLINE cy_en_dma_retrigger_t Cy_DMA_Descriptor_GetRetrigger(cy_stc_dma_descriptor_t const 
 975:Generated_Source\PSoC6\pdl\drivers\peripheral\dma/cy_dma.h **** {
 976:Generated_Source\PSoC6\pdl\drivers\peripheral\dma/cy_dma.h ****     CY_ASSERT_L1(NULL != descriptor);
 977:Generated_Source\PSoC6\pdl\drivers\peripheral\dma/cy_dma.h ****     
 978:Generated_Source\PSoC6\pdl\drivers\peripheral\dma/cy_dma.h ****     return((cy_en_dma_retrigger_t) _FLD2VAL(CY_DMA_CTL_RETRIG, descriptor->ctl));
 979:Generated_Source\PSoC6\pdl\drivers\peripheral\dma/cy_dma.h **** }
 980:Generated_Source\PSoC6\pdl\drivers\peripheral\dma/cy_dma.h **** 
 981:Generated_Source\PSoC6\pdl\drivers\peripheral\dma/cy_dma.h **** 
 982:Generated_Source\PSoC6\pdl\drivers\peripheral\dma/cy_dma.h **** /*******************************************************************************
 983:Generated_Source\PSoC6\pdl\drivers\peripheral\dma/cy_dma.h **** * Function Name: Cy_DMA_Descriptor_GetDescriptorType
 984:Generated_Source\PSoC6\pdl\drivers\peripheral\dma/cy_dma.h **** ****************************************************************************//**
 985:Generated_Source\PSoC6\pdl\drivers\peripheral\dma/cy_dma.h **** *
 986:Generated_Source\PSoC6\pdl\drivers\peripheral\dma/cy_dma.h **** * Returns the descriptor's type of the specified descriptor.
 987:Generated_Source\PSoC6\pdl\drivers\peripheral\dma/cy_dma.h **** *
 988:Generated_Source\PSoC6\pdl\drivers\peripheral\dma/cy_dma.h **** * \param descriptor
 989:Generated_Source\PSoC6\pdl\drivers\peripheral\dma/cy_dma.h **** * The descriptor structure instance declared by the user/component.
 990:Generated_Source\PSoC6\pdl\drivers\peripheral\dma/cy_dma.h **** *
 991:Generated_Source\PSoC6\pdl\drivers\peripheral\dma/cy_dma.h **** * \return
 992:Generated_Source\PSoC6\pdl\drivers\peripheral\dma/cy_dma.h **** * The descriptor type \ref cy_en_dma_descriptor_type_t
 993:Generated_Source\PSoC6\pdl\drivers\peripheral\dma/cy_dma.h **** *  
 994:Generated_Source\PSoC6\pdl\drivers\peripheral\dma/cy_dma.h **** *******************************************************************************/
ARM GAS  C:\Users\cypress\AppData\Local\Temp\cczqZZvj.s 			page 40


 995:Generated_Source\PSoC6\pdl\drivers\peripheral\dma/cy_dma.h **** __STATIC_INLINE cy_en_dma_descriptor_type_t Cy_DMA_Descriptor_GetDescriptorType(cy_stc_dma_descript
 996:Generated_Source\PSoC6\pdl\drivers\peripheral\dma/cy_dma.h **** {
 997:Generated_Source\PSoC6\pdl\drivers\peripheral\dma/cy_dma.h ****     CY_ASSERT_L1(NULL != descriptor);
 831              		.loc 2 997 0 is_stmt 1
 832 0020 24B9     		cbnz	r4, .L80
 833 0022 40F2E531 		movw	r1, #997
 834 0026 0B48     		ldr	r0, .L83+4
 835 0028 FFF7FEFF 		bl	Cy_SysLib_AssertFailed
 836              	.LVL75:
 837              	.L80:
 998:Generated_Source\PSoC6\pdl\drivers\peripheral\dma/cy_dma.h ****     
 999:Generated_Source\PSoC6\pdl\drivers\peripheral\dma/cy_dma.h ****     return((cy_en_dma_descriptor_type_t) _FLD2VAL(CY_DMA_CTL_TYPE, descriptor->ctl));
 838              		.loc 2 999 0
 839 002c 2368     		ldr	r3, [r4]
 840              	.LVL76:
 841              	.LBE6:
 842              	.LBE5:
 338:Generated_Source\PSoC6\pdl\drivers\peripheral\dma/cy_dma.c ****     
 339:Generated_Source\PSoC6\pdl\drivers\peripheral\dma/cy_dma.c ****     if (descriptorType != Cy_DMA_Descriptor_GetDescriptorType(descriptor)) /* Don't perform if the 
 843              		.loc 1 339 0
 844 002e B5EB937F 		cmp	r5, r3, lsr #30
 845 0032 0CD0     		beq	.L77
 846              	.LBB7:
 340:Generated_Source\PSoC6\pdl\drivers\peripheral\dma/cy_dma.c ****     {
 341:Generated_Source\PSoC6\pdl\drivers\peripheral\dma/cy_dma.c ****         /* Store the current nextDescriptor pointer. */
 342:Generated_Source\PSoC6\pdl\drivers\peripheral\dma/cy_dma.c ****         cy_stc_dma_descriptor_t * locNextDescriptor = Cy_DMA_Descriptor_GetNextDescriptor(descripto
 847              		.loc 1 342 0
 848 0034 2046     		mov	r0, r4
 849 0036 FFF7FEFF 		bl	Cy_DMA_Descriptor_GetNextDescriptor
 850              	.LVL77:
 343:Generated_Source\PSoC6\pdl\drivers\peripheral\dma/cy_dma.c ****         /* Change the descriptor type. */
 344:Generated_Source\PSoC6\pdl\drivers\peripheral\dma/cy_dma.c ****         descriptor->ctl = _CLR_SET_FLD32U(descriptor->ctl, CY_DMA_CTL_TYPE, descriptorType);
 851              		.loc 1 344 0
 852 003a 2168     		ldr	r1, [r4]
 853 003c 21F04041 		bic	r1, r1, #-1073741824
 854 0040 41EA8571 		orr	r1, r1, r5, lsl #30
 855 0044 2160     		str	r1, [r4]
 345:Generated_Source\PSoC6\pdl\drivers\peripheral\dma/cy_dma.c ****         /* Restore the nextDescriptor pointer into the proper place. */
 346:Generated_Source\PSoC6\pdl\drivers\peripheral\dma/cy_dma.c ****         Cy_DMA_Descriptor_SetNextDescriptor(descriptor, locNextDescriptor);
 856              		.loc 1 346 0
 857 0046 0146     		mov	r1, r0
 858 0048 2046     		mov	r0, r4
 859              	.LVL78:
 860 004a FFF7FEFF 		bl	Cy_DMA_Descriptor_SetNextDescriptor
 861              	.LVL79:
 862              	.L77:
 863 004e 38BD     		pop	{r3, r4, r5, pc}
 864              	.LVL80:
 865              	.L84:
 866              		.align	2
 867              	.L83:
 868 0050 00000000 		.word	.LC0
 869 0054 3C000000 		.word	.LC1
 870              	.LBE7:
 871              		.cfi_endproc
 872              	.LFE182:
 873              		.size	Cy_DMA_Descriptor_SetDescriptorType, .-Cy_DMA_Descriptor_SetDescriptorType
ARM GAS  C:\Users\cypress\AppData\Local\Temp\cczqZZvj.s 			page 41


 874              		.section	.rodata.str1.4,"aMS",%progbits,1
 875              		.align	2
 876              	.LC0:
 877 0000 47656E65 		.ascii	"Generated_Source\\PSoC6\\pdl\\drivers\\peripheral\\"
 877      72617465 
 877      645F536F 
 877      75726365 
 877      5C50536F 
 878 002e 646D615C 		.ascii	"dma\\cy_dma.c\000"
 878      63795F64 
 878      6D612E63 
 878      00
 879 003b 00       		.space	1
 880              	.LC1:
 881 003c 47656E65 		.ascii	"Generated_Source\\PSoC6\\pdl\\drivers\\peripheral\\"
 881      72617465 
 881      645F536F 
 881      75726365 
 881      5C50536F 
 882 006a 646D615C 		.ascii	"dma\\cy_dma.h\000"
 882      63795F64 
 882      6D612E68 
 882      00
 883              		.text
 884              	.Letext0:
 885              		.file 3 "c:\\program files (x86)\\cypress\\psoc creator\\4.2\\psoc creator\\import\\gnu\\arm\\5.4.
 886              		.file 4 "c:\\program files (x86)\\cypress\\psoc creator\\4.2\\psoc creator\\import\\gnu\\arm\\5.4.
 887              		.file 5 "Generated_Source\\PSoC6\\pdl\\devices/psoc6/ip/cyip_dw.h"
 888              		.file 6 "Generated_Source\\PSoC6\\pdl\\drivers/peripheral/syslib/cy_syslib.h"
 889              		.file 7 "Generated_Source\\PSoC6\\pdl\\cmsis/include/core_cm4.h"