ARM GAS  C:\Users\cypress\AppData\Local\Temp\ccGm3K8I.s 			page 1


   1              		.syntax unified
   2              		.cpu cortex-m4
   3              		.eabi_attribute 27, 1
   4              		.fpu fpv4-sp-d16
   5              		.eabi_attribute 20, 1
   6              		.eabi_attribute 21, 1
   7              		.eabi_attribute 23, 3
   8              		.eabi_attribute 24, 1
   9              		.eabi_attribute 25, 1
  10              		.eabi_attribute 26, 1
  11              		.eabi_attribute 30, 1
  12              		.eabi_attribute 34, 1
  13              		.eabi_attribute 18, 4
  14              		.thumb
  15              		.syntax unified
  16              		.file	"cy_ipc_config.c"
  17              		.text
  18              	.Ltext0:
  19              		.cfi_sections	.debug_frame
  20              		.section	.text.Cy_IPC_SystemPipeIsr,"ax",%progbits
  21              		.align	2
  22              		.thumb
  23              		.thumb_func
  24              		.type	Cy_IPC_SystemPipeIsr, %function
  25              	Cy_IPC_SystemPipeIsr:
  26              	.LFB149:
  27              		.file 1 "cy_ipc_config.c"
   1:cy_ipc_config.c **** /***************************************************************************//**
   2:cy_ipc_config.c **** * \file cy_ipc_config.c
   3:cy_ipc_config.c **** * \version 1.20
   4:cy_ipc_config.c **** *
   5:cy_ipc_config.c **** *  Description:
   6:cy_ipc_config.c **** *  This C file is not intended to be part of the IPC driver. It is the code
   7:cy_ipc_config.c **** *  required to configure the device specific IPC channels for semaphores
   8:cy_ipc_config.c **** *  and pipes.
   9:cy_ipc_config.c **** *
  10:cy_ipc_config.c **** ********************************************************************************
  11:cy_ipc_config.c **** * Copyright 2016-2018, Cypress Semiconductor Corporation.  All rights reserved.
  12:cy_ipc_config.c **** * You may use this file only in accordance with the license, terms, conditions,
  13:cy_ipc_config.c **** * disclaimers, and limitations in the end user license agreement accompanying
  14:cy_ipc_config.c **** * the software package with which this file was provided.
  15:cy_ipc_config.c **** *******************************************************************************/
  16:cy_ipc_config.c **** 
  17:cy_ipc_config.c **** #include "ipc/cy_ipc_drv.h"
  18:cy_ipc_config.c **** #include "ipc/cy_ipc_pipe.h"
  19:cy_ipc_config.c **** #include "ipc/cy_ipc_sema.h"
  20:cy_ipc_config.c **** 
  21:cy_ipc_config.c **** #include "cy_ipc_config.h"
  22:cy_ipc_config.c **** 
  23:cy_ipc_config.c **** #if (CY_IPC_CYPIPE_ENABLE)
  24:cy_ipc_config.c **** static void Cy_IPC_SystemPipeIsr(void);
  25:cy_ipc_config.c **** 
  26:cy_ipc_config.c **** #define CY_CYPIPE_DEFAULT_CONFIG    \
  27:cy_ipc_config.c **** {\
  28:cy_ipc_config.c ****     /* .ep0ConfigData */ {\
  29:cy_ipc_config.c ****         /* .ipcNotifierNumber    */  CY_IPC_INTR_CYPIPE_EP0,\
  30:cy_ipc_config.c ****         /* .ipcNotifierPriority  */  CY_IPC_INTR_CYPIPE_PRIOR_EP0,\
ARM GAS  C:\Users\cypress\AppData\Local\Temp\ccGm3K8I.s 			page 2


  31:cy_ipc_config.c ****         /* .ipcNotifierMuxNumber */  CY_IPC_INTR_CYPIPE_MUX_EP0,\
  32:cy_ipc_config.c ****         /* .epAddress            */  CY_IPC_EP_CYPIPE_CM0_ADDR,\
  33:cy_ipc_config.c ****         /* .epConfig             */  CY_IPC_CYPIPE_CONFIG_EP0\
  34:cy_ipc_config.c ****     },\
  35:cy_ipc_config.c ****     /* .ep1ConfigData */ {\
  36:cy_ipc_config.c ****         /* .ipcNotifierNumber    */  CY_IPC_INTR_CYPIPE_EP1,\
  37:cy_ipc_config.c ****         /* .ipcNotifierPriority  */  CY_IPC_INTR_CYPIPE_PRIOR_EP1,\
  38:cy_ipc_config.c ****         /* .ipcNotifierMuxNumber */  0u,\
  39:cy_ipc_config.c ****         /* .epAddress            */  CY_IPC_EP_CYPIPE_CM4_ADDR,\
  40:cy_ipc_config.c ****         /* .epConfig             */  CY_IPC_CYPIPE_CONFIG_EP1\
  41:cy_ipc_config.c ****     },\
  42:cy_ipc_config.c ****     /* .endpointClientsCount     */  CY_IPC_CYPIPE_CLIENT_CNT,\
  43:cy_ipc_config.c ****     /* .endpointsCallbacksArray  */  cy_ipc_pipe_sysCbArray,\
  44:cy_ipc_config.c ****     /* .userPipeIsrHandler       */  &Cy_IPC_SystemPipeIsr\
  45:cy_ipc_config.c **** }
  46:cy_ipc_config.c **** #endif /* CY_IPC_CYPIPE_ENABLE */
  47:cy_ipc_config.c **** 
  48:cy_ipc_config.c **** /*******************************************************************************
  49:cy_ipc_config.c **** * Function Name: Cy_IPC_SystemSemaInit
  50:cy_ipc_config.c **** ****************************************************************************//**
  51:cy_ipc_config.c **** *
  52:cy_ipc_config.c **** * Initializes the system semaphores. The system semaphores are used by Flash.
  53:cy_ipc_config.c **** *
  54:cy_ipc_config.c **** * This function is called in the SystemInit() function. If the default startup
  55:cy_ipc_config.c **** * file is not used, or SystemInit() is not called in your project,
  56:cy_ipc_config.c **** * call the following three functions prior to executing any flash or EmEEPROM
  57:cy_ipc_config.c **** * write or erase operation:
  58:cy_ipc_config.c **** *  -# Cy_IPC_SystemSemaInit()
  59:cy_ipc_config.c **** *  -# Cy_IPC_SystemPipeInit()
  60:cy_ipc_config.c **** *  -# Cy_Flash_Init()
  61:cy_ipc_config.c **** *
  62:cy_ipc_config.c **** *******************************************************************************/
  63:cy_ipc_config.c **** void Cy_IPC_SystemSemaInit(void)
  64:cy_ipc_config.c **** {
  65:cy_ipc_config.c **** /* Create array used for semaphores */
  66:cy_ipc_config.c **** #if ((CY_CPU_CORTEX_M0P) || !(__CM0P_PRESENT))
  67:cy_ipc_config.c ****     static uint32_t ipcSemaArray[CY_IPC_SEMA_COUNT / CY_IPC_SEMA_PER_WORD];
  68:cy_ipc_config.c ****     (void) Cy_IPC_Sema_Init(CY_IPC_CHAN_SEMA, CY_IPC_SEMA_COUNT, ipcSemaArray);
  69:cy_ipc_config.c **** #else
  70:cy_ipc_config.c ****     (void) Cy_IPC_Sema_Init(CY_IPC_CHAN_SEMA, 0ul, NULL);
  71:cy_ipc_config.c **** #endif
  72:cy_ipc_config.c **** }
  73:cy_ipc_config.c **** 
  74:cy_ipc_config.c **** /*******************************************************************************
  75:cy_ipc_config.c **** * Function Name: Cy_IPC_SystemPipeInit
  76:cy_ipc_config.c **** ****************************************************************************//**
  77:cy_ipc_config.c **** *
  78:cy_ipc_config.c **** * Initializes the system pipes. The system pipes are used by BLE and Flash.
  79:cy_ipc_config.c **** * \note The function should be called on all CPUs.
  80:cy_ipc_config.c **** *
  81:cy_ipc_config.c **** * This function is called in the SystemInit() function. If the default startup
  82:cy_ipc_config.c **** * file is not used, or SystemInit() is not called in your project,
  83:cy_ipc_config.c **** * call the following three functions prior to executing any flash or EmEEPROM
  84:cy_ipc_config.c **** * write or erase operation:
  85:cy_ipc_config.c **** *  -# Cy_IPC_SystemSemaInit()
  86:cy_ipc_config.c **** *  -# Cy_IPC_SystemPipeInit()
  87:cy_ipc_config.c **** *  -# Cy_Flash_Init()
ARM GAS  C:\Users\cypress\AppData\Local\Temp\ccGm3K8I.s 			page 3


  88:cy_ipc_config.c **** *
  89:cy_ipc_config.c **** * Also this function is called to support BLE host/controller communication.
  90:cy_ipc_config.c **** *
  91:cy_ipc_config.c **** *******************************************************************************/
  92:cy_ipc_config.c **** void Cy_IPC_SystemPipeInit(void)
  93:cy_ipc_config.c **** {
  94:cy_ipc_config.c ****     /* Create an array of endpoint structures */
  95:cy_ipc_config.c ****     static cy_stc_ipc_pipe_ep_t cy_ipc_pipe_sysEpArray[CY_IPC_MAX_ENDPOINTS];
  96:cy_ipc_config.c **** 
  97:cy_ipc_config.c ****     Cy_IPC_Pipe_Config(cy_ipc_pipe_sysEpArray);
  98:cy_ipc_config.c **** 
  99:cy_ipc_config.c **** #if (CY_IPC_CYPIPE_ENABLE)
 100:cy_ipc_config.c ****     uint32_t intr;
 101:cy_ipc_config.c **** 
 102:cy_ipc_config.c ****     static cy_ipc_pipe_callback_ptr_t cy_ipc_pipe_sysCbArray[CY_IPC_CYPIPE_CLIENT_CNT];
 103:cy_ipc_config.c **** 
 104:cy_ipc_config.c ****     static const cy_stc_ipc_pipe_config_t systemPipeConfig = CY_CYPIPE_DEFAULT_CONFIG;
 105:cy_ipc_config.c **** 
 106:cy_ipc_config.c ****     intr = Cy_SysLib_EnterCriticalSection();
 107:cy_ipc_config.c **** 
 108:cy_ipc_config.c ****     Cy_IPC_Pipe_Init(&systemPipeConfig);
 109:cy_ipc_config.c **** 
 110:cy_ipc_config.c ****     Cy_SysLib_ExitCriticalSection(intr);
 111:cy_ipc_config.c **** #endif /* CY_IPC_CYPIPE_ENABLE */
 112:cy_ipc_config.c **** }
 113:cy_ipc_config.c **** 
 114:cy_ipc_config.c **** #if (CY_IPC_CYPIPE_ENABLE)
 115:cy_ipc_config.c **** /*******************************************************************************
 116:cy_ipc_config.c **** * Function Name: Cy_IPC_SystemPipeIsr
 117:cy_ipc_config.c **** ****************************************************************************//**
 118:cy_ipc_config.c **** *
 119:cy_ipc_config.c **** * This is the interrupt service routine for the system pipe.
 120:cy_ipc_config.c **** *
 121:cy_ipc_config.c **** *******************************************************************************/
 122:cy_ipc_config.c **** static void Cy_IPC_SystemPipeIsr(void)
 123:cy_ipc_config.c **** {
  28              		.loc 1 123 0
  29              		.cfi_startproc
  30              		@ args = 0, pretend = 0, frame = 0
  31              		@ frame_needed = 0, uses_anonymous_args = 0
  32 0000 08B5     		push	{r3, lr}
  33              		.cfi_def_cfa_offset 8
  34              		.cfi_offset 3, -8
  35              		.cfi_offset 14, -4
 124:cy_ipc_config.c ****     Cy_IPC_Pipe_ExecuteCallback(CY_IPC_EP_CYPIPE_ADDR);
  36              		.loc 1 124 0
  37 0002 0120     		movs	r0, #1
  38 0004 FFF7FEFF 		bl	Cy_IPC_Pipe_ExecuteCallback
  39              	.LVL0:
  40 0008 08BD     		pop	{r3, pc}
  41              		.cfi_endproc
  42              	.LFE149:
  43              		.size	Cy_IPC_SystemPipeIsr, .-Cy_IPC_SystemPipeIsr
  44 000a 00BF     		.section	.text.Cy_IPC_SystemSemaInit,"ax",%progbits
  45              		.align	2
  46              		.global	Cy_IPC_SystemSemaInit
  47              		.thumb
ARM GAS  C:\Users\cypress\AppData\Local\Temp\ccGm3K8I.s 			page 4


  48              		.thumb_func
  49              		.type	Cy_IPC_SystemSemaInit, %function
  50              	Cy_IPC_SystemSemaInit:
  51              	.LFB147:
  64:cy_ipc_config.c **** /* Create array used for semaphores */
  52              		.loc 1 64 0
  53              		.cfi_startproc
  54              		@ args = 0, pretend = 0, frame = 0
  55              		@ frame_needed = 0, uses_anonymous_args = 0
  56 0000 08B5     		push	{r3, lr}
  57              		.cfi_def_cfa_offset 8
  58              		.cfi_offset 3, -8
  59              		.cfi_offset 14, -4
  70:cy_ipc_config.c **** #endif
  60              		.loc 1 70 0
  61 0002 0022     		movs	r2, #0
  62 0004 1146     		mov	r1, r2
  63 0006 0420     		movs	r0, #4
  64 0008 FFF7FEFF 		bl	Cy_IPC_Sema_Init
  65              	.LVL1:
  66 000c 08BD     		pop	{r3, pc}
  67              		.cfi_endproc
  68              	.LFE147:
  69              		.size	Cy_IPC_SystemSemaInit, .-Cy_IPC_SystemSemaInit
  70 000e 00BF     		.section	.text.Cy_IPC_SystemPipeInit,"ax",%progbits
  71              		.align	2
  72              		.global	Cy_IPC_SystemPipeInit
  73              		.thumb
  74              		.thumb_func
  75              		.type	Cy_IPC_SystemPipeInit, %function
  76              	Cy_IPC_SystemPipeInit:
  77              	.LFB148:
  93:cy_ipc_config.c ****     /* Create an array of endpoint structures */
  78              		.loc 1 93 0
  79              		.cfi_startproc
  80              		@ args = 0, pretend = 0, frame = 0
  81              		@ frame_needed = 0, uses_anonymous_args = 0
  82 0000 10B5     		push	{r4, lr}
  83              		.cfi_def_cfa_offset 8
  84              		.cfi_offset 4, -8
  85              		.cfi_offset 14, -4
  97:cy_ipc_config.c **** 
  86              		.loc 1 97 0
  87 0002 0648     		ldr	r0, .L7
  88 0004 FFF7FEFF 		bl	Cy_IPC_Pipe_Config
  89              	.LVL2:
 106:cy_ipc_config.c **** 
  90              		.loc 1 106 0
  91 0008 FFF7FEFF 		bl	Cy_SysLib_EnterCriticalSection
  92              	.LVL3:
  93 000c 0446     		mov	r4, r0
  94              	.LVL4:
 108:cy_ipc_config.c **** 
  95              		.loc 1 108 0
  96 000e 0448     		ldr	r0, .L7+4
  97              	.LVL5:
  98 0010 FFF7FEFF 		bl	Cy_IPC_Pipe_Init
ARM GAS  C:\Users\cypress\AppData\Local\Temp\ccGm3K8I.s 			page 5


  99              	.LVL6:
 110:cy_ipc_config.c **** #endif /* CY_IPC_CYPIPE_ENABLE */
 100              		.loc 1 110 0
 101 0014 2046     		mov	r0, r4
 102 0016 FFF7FEFF 		bl	Cy_SysLib_ExitCriticalSection
 103              	.LVL7:
 104 001a 10BD     		pop	{r4, pc}
 105              	.LVL8:
 106              	.L8:
 107              		.align	2
 108              	.L7:
 109 001c 00000000 		.word	.LANCHOR0
 110 0020 00000000 		.word	.LANCHOR1
 111              		.cfi_endproc
 112              	.LFE148:
 113              		.size	Cy_IPC_SystemPipeInit, .-Cy_IPC_SystemPipeInit
 114              		.section	.rodata
 115              		.align	2
 116              		.set	.LANCHOR1,. + 0
 117              		.type	systemPipeConfig.9976, %object
 118              		.size	systemPipeConfig.9976, 52
 119              	systemPipeConfig.9976:
 120 0000 03000000 		.word	3
 121 0004 01000000 		.word	1
 122 0008 01000000 		.word	1
 123 000c 00000000 		.word	0
 124 0010 05036000 		.word	6292229
 125 0014 04000000 		.word	4
 126 0018 01000000 		.word	1
 127 001c 00000000 		.word	0
 128 0020 01000000 		.word	1
 129 0024 06046000 		.word	6292486
 130 0028 08000000 		.word	8
 131 002c 60010000 		.word	cy_ipc_pipe_sysCbArray.9975
 132 0030 00000000 		.word	Cy_IPC_SystemPipeIsr
 133              		.bss
 134              		.align	2
 135              		.set	.LANCHOR0,. + 0
 136              		.type	cy_ipc_pipe_sysEpArray.9973, %object
 137              		.size	cy_ipc_pipe_sysEpArray.9973, 352
 138              	cy_ipc_pipe_sysEpArray.9973:
 139 0000 00000000 		.space	352
 139      00000000 
 139      00000000 
 139      00000000 
 139      00000000 
 140              		.type	cy_ipc_pipe_sysCbArray.9975, %object
 141              		.size	cy_ipc_pipe_sysCbArray.9975, 32
 142              	cy_ipc_pipe_sysCbArray.9975:
 143 0160 00000000 		.space	32
 143      00000000 
 143      00000000 
 143      00000000 
 143      00000000 
 144              		.text
 145              	.Letext0:
 146              		.file 2 "c:\\program files (x86)\\cypress\\psoc creator\\4.2\\psoc creator\\import\\gnu\\arm\\5.4.
ARM GAS  C:\Users\cypress\AppData\Local\Temp\ccGm3K8I.s 			page 6


 147              		.file 3 "c:\\program files (x86)\\cypress\\psoc creator\\4.2\\psoc creator\\import\\gnu\\arm\\5.4.
 148              		.file 4 "Generated_Source\\PSoC6\\pdl\\devices/psoc6/psoc63/include/cy8c6347bzi_bld53.h"
 149              		.file 5 "Generated_Source\\PSoC6\\pdl\\devices/psoc6/ip/cyip_ipc.h"
 150              		.file 6 "Generated_Source\\PSoC6\\pdl\\drivers/peripheral/syslib/cy_syslib.h"
 151              		.file 7 "Generated_Source\\PSoC6\\pdl\\drivers/peripheral/ipc/cy_ipc_pipe.h"
 152              		.file 8 "Generated_Source\\PSoC6\\pdl\\drivers/peripheral/ipc/cy_ipc_sema.h"
 153              		.file 9 "Generated_Source\\PSoC6\\pdl\\cmsis/include/core_cm4.h"