ARM GAS  C:\Users\cypress\AppData\Local\Temp\ccUzPEVS.s 			page 1


   1              		.syntax unified
   2              		.cpu cortex-m4
   3              		.eabi_attribute 27, 1
   4              		.fpu fpv4-sp-d16
   5              		.eabi_attribute 20, 1
   6              		.eabi_attribute 21, 1
   7              		.eabi_attribute 23, 3
   8              		.eabi_attribute 24, 1
   9              		.eabi_attribute 25, 1
  10              		.eabi_attribute 26, 1
  11              		.eabi_attribute 30, 1
  12              		.eabi_attribute 34, 1
  13              		.eabi_attribute 18, 4
  14              		.thumb
  15              		.syntax unified
  16              		.file	"GUI_X.c"
  17              		.text
  18              	.Ltext0:
  19              		.cfi_sections	.debug_frame
  20              		.section	.text.GUI_X_Systick_Intr,"ax",%progbits
  21              		.align	2
  22              		.global	GUI_X_Systick_Intr
  23              		.thumb
  24              		.thumb_func
  25              		.type	GUI_X_Systick_Intr, %function
  26              	GUI_X_Systick_Intr:
  27              	.LFB139:
  28              		.file 1 "GUI_X.c"
   1:GUI_X.c       **** /*********************************************************************
   2:GUI_X.c       **** *                SEGGER Microcontroller GmbH & Co. KG                *
   3:GUI_X.c       **** *        Solutions for real time microcontroller applications        *
   4:GUI_X.c       **** **********************************************************************
   5:GUI_X.c       **** *                                                                    *
   6:GUI_X.c       **** *        (c) 1996 - 2017  SEGGER Microcontroller GmbH & Co. KG       *
   7:GUI_X.c       **** *                                                                    *
   8:GUI_X.c       **** *        Internet: www.segger.com    Support:  support@segger.com    *
   9:GUI_X.c       **** *                                                                    *
  10:GUI_X.c       **** **********************************************************************
  11:GUI_X.c       **** 
  12:GUI_X.c       **** ** emWin V5.46 - Graphical user interface for embedded applications **
  13:GUI_X.c       **** All  Intellectual Property rights  in the Software belongs to  SEGGER.
  14:GUI_X.c       **** emWin is protected by  international copyright laws.  Knowledge of the
  15:GUI_X.c       **** source code may not be used to write a similar product.  This file may
  16:GUI_X.c       **** only be used in accordance with the following terms:
  17:GUI_X.c       **** 
  18:GUI_X.c       **** The software  has been licensed to  Cypress Semiconductor Corporation,
  19:GUI_X.c       **** whose registered  office is situated  at 198 Champion Ct. San Jose, CA 
  20:GUI_X.c       **** 95134 USA  solely for the  purposes of creating  libraries for Cypress
  21:GUI_X.c       **** PSoC3 and  PSoC5 processor-based devices,  sublicensed and distributed
  22:GUI_X.c       **** under  the  terms  and  conditions  of  the  Cypress  End User License
  23:GUI_X.c       **** Agreement.
  24:GUI_X.c       **** Full source code is available at: www.segger.com
  25:GUI_X.c       **** 
  26:GUI_X.c       **** We appreciate your understanding and fairness.
  27:GUI_X.c       **** ----------------------------------------------------------------------
  28:GUI_X.c       **** Licensing information
  29:GUI_X.c       **** Licensor:                 SEGGER Microcontroller Systems LLC
ARM GAS  C:\Users\cypress\AppData\Local\Temp\ccUzPEVS.s 			page 2


  30:GUI_X.c       **** Licensed to:              Cypress Semiconductor Corp, 198 Champion Ct., San Jose, CA 95134, USA
  31:GUI_X.c       **** Licensed SEGGER software: emWin
  32:GUI_X.c       **** License number:           GUI-00319
  33:GUI_X.c       **** License model:            Services and License Agreement, signed June 10th, 2009
  34:GUI_X.c       **** Licensed platform:        Any Cypress platform (Initial targets are: PSoC3, PSoC5)
  35:GUI_X.c       **** ----------------------------------------------------------------------
  36:GUI_X.c       **** Support and Update Agreement (SUA)
  37:GUI_X.c       **** SUA period:               2009-06-12 - 2022-07-27
  38:GUI_X.c       **** Contact to extend SUA:    sales@segger.com
  39:GUI_X.c       **** ----------------------------------------------------------------------
  40:GUI_X.c       **** File        : GUI_X.C
  41:GUI_X.c       **** Purpose     : Config / System dependent externals for GUI
  42:GUI_X.c       **** ---------------------------END-OF-HEADER------------------------------
  43:GUI_X.c       **** */
  44:GUI_X.c       **** 
  45:GUI_X.c       **** #include "syslib/cy_syslib.h"   
  46:GUI_X.c       **** #include "systick/cy_systick.h"
  47:GUI_X.c       **** 
  48:GUI_X.c       **** #include "GUI.h"
  49:GUI_X.c       **** 
  50:GUI_X.c       **** /*********************************************************************
  51:GUI_X.c       **** *
  52:GUI_X.c       **** *       Function Prototypes
  53:GUI_X.c       **** */
  54:GUI_X.c       **** void GUI_X_Systick_Init(void);
  55:GUI_X.c       **** 
  56:GUI_X.c       **** /*********************************************************************
  57:GUI_X.c       **** *
  58:GUI_X.c       **** *       Global data
  59:GUI_X.c       **** */
  60:GUI_X.c       **** volatile GUI_TIMER_TIME OS_TimeMS;
  61:GUI_X.c       **** 
  62:GUI_X.c       **** /*********************************************************************
  63:GUI_X.c       **** *
  64:GUI_X.c       **** *      Timing:
  65:GUI_X.c       **** *                 GUI_X_GetTime()
  66:GUI_X.c       **** *                 GUI_X_Delay(int)
  67:GUI_X.c       **** *
  68:GUI_X.c       **** *   Some timing dependent routines require a GetTime
  69:GUI_X.c       **** *   and delay function. Default time unit (tick), normally is
  70:GUI_X.c       **** *   1 ms.
  71:GUI_X.c       **** */
  72:GUI_X.c       **** GUI_TIMER_TIME GUI_X_GetTime(void) { 
  73:GUI_X.c       ****   return OS_TimeMS; 
  74:GUI_X.c       **** }
  75:GUI_X.c       **** 
  76:GUI_X.c       **** void GUI_X_Delay(int ms) { 
  77:GUI_X.c       ****   int tEnd = OS_TimeMS + ms;
  78:GUI_X.c       ****   while ((tEnd - OS_TimeMS) > 0);
  79:GUI_X.c       **** }
  80:GUI_X.c       **** 
  81:GUI_X.c       **** /*********************************************************************
  82:GUI_X.c       **** *
  83:GUI_X.c       **** *       GUI_X_Init()
  84:GUI_X.c       **** *
  85:GUI_X.c       **** * Note:
  86:GUI_X.c       **** *     GUI_X_Init() is called from GUI_Init is a possibility to init
ARM GAS  C:\Users\cypress\AppData\Local\Temp\ccUzPEVS.s 			page 3


  87:GUI_X.c       **** *     some hardware which needs to be up and running before the GUI.
  88:GUI_X.c       **** */
  89:GUI_X.c       **** void GUI_X_Init(void) {
  90:GUI_X.c       ****   GUI_X_Systick_Init();
  91:GUI_X.c       **** }
  92:GUI_X.c       **** 
  93:GUI_X.c       **** 
  94:GUI_X.c       **** /*********************************************************************
  95:GUI_X.c       **** *
  96:GUI_X.c       **** *       GUI_X_ExecIdle
  97:GUI_X.c       **** *
  98:GUI_X.c       **** * Note:
  99:GUI_X.c       **** *  Called if WM is in idle state
 100:GUI_X.c       **** */
 101:GUI_X.c       **** void GUI_X_ExecIdle(void) {}
 102:GUI_X.c       **** 
 103:GUI_X.c       **** /*********************************************************************
 104:GUI_X.c       **** *
 105:GUI_X.c       **** *      Logging: OS dependent
 106:GUI_X.c       **** * 
 107:GUI_X.c       **** * Note:
 108:GUI_X.c       **** *   Logging is used in higher debug levels only. The typical target
 109:GUI_X.c       **** *   build does not use logging and does therefor not require any of
 110:GUI_X.c       **** *   the logging routines below. For a release build without logging
 111:GUI_X.c       **** *   the routines below may be eliminated to save some space.
 112:GUI_X.c       **** *   (If the linker is not function aware and eliminates unreferenced
 113:GUI_X.c       **** *   functions automatically)
 114:GUI_X.c       **** */
 115:GUI_X.c       **** void GUI_X_Log     (const char *s) { GUI_USE_PARA(s); }
 116:GUI_X.c       **** void GUI_X_Warn    (const char *s) { GUI_USE_PARA(s); }
 117:GUI_X.c       **** void GUI_X_ErrorOut(const char *s) { GUI_USE_PARA(s); }
 118:GUI_X.c       **** 
 119:GUI_X.c       **** /*********************************************************************
 120:GUI_X.c       **** *
 121:GUI_X.c       **** *         Setup Systick for timing
 122:GUI_X.c       **** *
 123:GUI_X.c       **** */
 124:GUI_X.c       **** /*********************************************************************
 125:GUI_X.c       **** *
 126:GUI_X.c       **** *       GUI_X_Systick_Intr
 127:GUI_X.c       **** *
 128:GUI_X.c       **** * Purpose:
 129:GUI_X.c       **** *   Interrupt Service Routine for Systick.
 130:GUI_X.c       **** */
 131:GUI_X.c       **** void GUI_X_Systick_Intr(void){    
  29              		.loc 1 131 0
  30              		.cfi_startproc
  31              		@ args = 0, pretend = 0, frame = 0
  32              		@ frame_needed = 0, uses_anonymous_args = 0
  33              		@ link register save eliminated.
 132:GUI_X.c       ****   OS_TimeMS++;
  34              		.loc 1 132 0
  35 0000 024A     		ldr	r2, .L2
  36 0002 1368     		ldr	r3, [r2]
  37 0004 0133     		adds	r3, r3, #1
  38 0006 1360     		str	r3, [r2]
  39 0008 7047     		bx	lr
ARM GAS  C:\Users\cypress\AppData\Local\Temp\ccUzPEVS.s 			page 4


  40              	.L3:
  41 000a 00BF     		.align	2
  42              	.L2:
  43 000c 00000000 		.word	OS_TimeMS
  44              		.cfi_endproc
  45              	.LFE139:
  46              		.size	GUI_X_Systick_Intr, .-GUI_X_Systick_Intr
  47              		.section	.text.GUI_X_GetTime,"ax",%progbits
  48              		.align	2
  49              		.global	GUI_X_GetTime
  50              		.thumb
  51              		.thumb_func
  52              		.type	GUI_X_GetTime, %function
  53              	GUI_X_GetTime:
  54              	.LFB132:
  72:GUI_X.c       ****   return OS_TimeMS; 
  55              		.loc 1 72 0
  56              		.cfi_startproc
  57              		@ args = 0, pretend = 0, frame = 0
  58              		@ frame_needed = 0, uses_anonymous_args = 0
  59              		@ link register save eliminated.
  73:GUI_X.c       **** }
  60              		.loc 1 73 0
  61 0000 014B     		ldr	r3, .L5
  62 0002 1868     		ldr	r0, [r3]
  74:GUI_X.c       **** 
  63              		.loc 1 74 0
  64 0004 7047     		bx	lr
  65              	.L6:
  66 0006 00BF     		.align	2
  67              	.L5:
  68 0008 00000000 		.word	OS_TimeMS
  69              		.cfi_endproc
  70              	.LFE132:
  71              		.size	GUI_X_GetTime, .-GUI_X_GetTime
  72              		.section	.text.GUI_X_Delay,"ax",%progbits
  73              		.align	2
  74              		.global	GUI_X_Delay
  75              		.thumb
  76              		.thumb_func
  77              		.type	GUI_X_Delay, %function
  78              	GUI_X_Delay:
  79              	.LFB133:
  76:GUI_X.c       ****   int tEnd = OS_TimeMS + ms;
  80              		.loc 1 76 0
  81              		.cfi_startproc
  82              		@ args = 0, pretend = 0, frame = 0
  83              		@ frame_needed = 0, uses_anonymous_args = 0
  84              		@ link register save eliminated.
  85              	.LVL0:
  77:GUI_X.c       ****   while ((tEnd - OS_TimeMS) > 0);
  86              		.loc 1 77 0
  87 0000 044B     		ldr	r3, .L9
  88 0002 1B68     		ldr	r3, [r3]
  89 0004 1844     		add	r0, r0, r3
  90              	.LVL1:
  91              	.L8:
ARM GAS  C:\Users\cypress\AppData\Local\Temp\ccUzPEVS.s 			page 5


  78:GUI_X.c       **** }
  92              		.loc 1 78 0 discriminator 1
  93 0006 034B     		ldr	r3, .L9
  94 0008 1B68     		ldr	r3, [r3]
  95 000a C31A     		subs	r3, r0, r3
  96 000c 002B     		cmp	r3, #0
  97 000e FADC     		bgt	.L8
  79:GUI_X.c       **** 
  98              		.loc 1 79 0
  99 0010 7047     		bx	lr
 100              	.L10:
 101 0012 00BF     		.align	2
 102              	.L9:
 103 0014 00000000 		.word	OS_TimeMS
 104              		.cfi_endproc
 105              	.LFE133:
 106              		.size	GUI_X_Delay, .-GUI_X_Delay
 107              		.section	.text.GUI_X_ExecIdle,"ax",%progbits
 108              		.align	2
 109              		.global	GUI_X_ExecIdle
 110              		.thumb
 111              		.thumb_func
 112              		.type	GUI_X_ExecIdle, %function
 113              	GUI_X_ExecIdle:
 114              	.LFB135:
 101:GUI_X.c       **** 
 115              		.loc 1 101 0
 116              		.cfi_startproc
 117              		@ args = 0, pretend = 0, frame = 0
 118              		@ frame_needed = 0, uses_anonymous_args = 0
 119              		@ link register save eliminated.
 120 0000 7047     		bx	lr
 121              		.cfi_endproc
 122              	.LFE135:
 123              		.size	GUI_X_ExecIdle, .-GUI_X_ExecIdle
 124 0002 00BF     		.section	.text.GUI_X_Log,"ax",%progbits
 125              		.align	2
 126              		.global	GUI_X_Log
 127              		.thumb
 128              		.thumb_func
 129              		.type	GUI_X_Log, %function
 130              	GUI_X_Log:
 131              	.LFB136:
 115:GUI_X.c       **** void GUI_X_Warn    (const char *s) { GUI_USE_PARA(s); }
 132              		.loc 1 115 0
 133              		.cfi_startproc
 134              		@ args = 0, pretend = 0, frame = 0
 135              		@ frame_needed = 0, uses_anonymous_args = 0
 136              		@ link register save eliminated.
 137              	.LVL2:
 138 0000 7047     		bx	lr
 139              		.cfi_endproc
 140              	.LFE136:
 141              		.size	GUI_X_Log, .-GUI_X_Log
 142 0002 00BF     		.section	.text.GUI_X_Warn,"ax",%progbits
 143              		.align	2
 144              		.global	GUI_X_Warn
ARM GAS  C:\Users\cypress\AppData\Local\Temp\ccUzPEVS.s 			page 6


 145              		.thumb
 146              		.thumb_func
 147              		.type	GUI_X_Warn, %function
 148              	GUI_X_Warn:
 149              	.LFB137:
 116:GUI_X.c       **** void GUI_X_ErrorOut(const char *s) { GUI_USE_PARA(s); }
 150              		.loc 1 116 0
 151              		.cfi_startproc
 152              		@ args = 0, pretend = 0, frame = 0
 153              		@ frame_needed = 0, uses_anonymous_args = 0
 154              		@ link register save eliminated.
 155              	.LVL3:
 156 0000 7047     		bx	lr
 157              		.cfi_endproc
 158              	.LFE137:
 159              		.size	GUI_X_Warn, .-GUI_X_Warn
 160 0002 00BF     		.section	.text.GUI_X_ErrorOut,"ax",%progbits
 161              		.align	2
 162              		.global	GUI_X_ErrorOut
 163              		.thumb
 164              		.thumb_func
 165              		.type	GUI_X_ErrorOut, %function
 166              	GUI_X_ErrorOut:
 167              	.LFB138:
 117:GUI_X.c       **** 
 168              		.loc 1 117 0
 169              		.cfi_startproc
 170              		@ args = 0, pretend = 0, frame = 0
 171              		@ frame_needed = 0, uses_anonymous_args = 0
 172              		@ link register save eliminated.
 173              	.LVL4:
 174 0000 7047     		bx	lr
 175              		.cfi_endproc
 176              	.LFE138:
 177              		.size	GUI_X_ErrorOut, .-GUI_X_ErrorOut
 178 0002 00BF     		.section	.text.GUI_X_Systick_Init,"ax",%progbits
 179              		.align	2
 180              		.global	GUI_X_Systick_Init
 181              		.thumb
 182              		.thumb_func
 183              		.type	GUI_X_Systick_Init, %function
 184              	GUI_X_Systick_Init:
 185              	.LFB140:
 133:GUI_X.c       **** }
 134:GUI_X.c       **** 
 135:GUI_X.c       **** /*********************************************************************
 136:GUI_X.c       **** *
 137:GUI_X.c       **** *       GUI_X_Systick_Init
 138:GUI_X.c       **** *
 139:GUI_X.c       **** * Purpose:
 140:GUI_X.c       **** *   Set up the Systick interrupt and enable it.
 141:GUI_X.c       **** */
 142:GUI_X.c       **** void GUI_X_Systick_Init(void){ 
 186              		.loc 1 142 0
 187              		.cfi_startproc
 188              		@ args = 0, pretend = 0, frame = 0
 189              		@ frame_needed = 0, uses_anonymous_args = 0
ARM GAS  C:\Users\cypress\AppData\Local\Temp\ccUzPEVS.s 			page 7


 190              		.loc 1 142 0
 191 0000 10B5     		push	{r4, lr}
 192              		.cfi_def_cfa_offset 8
 193              		.cfi_offset 4, -8
 194              		.cfi_offset 14, -4
 143:GUI_X.c       ****   uint32_t i;
 144:GUI_X.c       ****   //
 145:GUI_X.c       ****   // Configure the SysTick timer to generate interrupt every 1 ms 
 146:GUI_X.c       ****   // and start its operation.
 147:GUI_X.c       ****   //
 148:GUI_X.c       ****   Cy_SysTick_Init(CY_SYSTICK_CLOCK_SOURCE_CLK_LF, 32U);
 195              		.loc 1 148 0
 196 0002 2021     		movs	r1, #32
 197 0004 0020     		movs	r0, #0
 198 0006 FFF7FEFF 		bl	Cy_SysTick_Init
 199              	.LVL5:
 149:GUI_X.c       ****   //
 150:GUI_X.c       ****   // Find unused callback slot.
 151:GUI_X.c       ****   //
 152:GUI_X.c       ****   for (i = 0u; i < CY_SYS_SYST_NUM_OF_CALLBACKS; i++){
 200              		.loc 1 152 0
 201 000a 0024     		movs	r4, #0
 202 000c 09E0     		b	.L16
 203              	.LVL6:
 204              	.L19:
 153:GUI_X.c       ****     if (Cy_SysTick_GetCallback(i) == NULL){
 205              		.loc 1 153 0
 206 000e 2046     		mov	r0, r4
 207 0010 FFF7FEFF 		bl	Cy_SysTick_GetCallback
 208              	.LVL7:
 209 0014 20B9     		cbnz	r0, .L17
 154:GUI_X.c       ****       //
 155:GUI_X.c       ****       // Set callback
 156:GUI_X.c       ****       //
 157:GUI_X.c       ****       (void)Cy_SysTick_SetCallback(i, GUI_X_Systick_Intr);
 210              		.loc 1 157 0
 211 0016 0849     		ldr	r1, .L22
 212 0018 2046     		mov	r0, r4
 213 001a FFF7FEFF 		bl	Cy_SysTick_SetCallback
 214              	.LVL8:
 158:GUI_X.c       ****       break;
 215              		.loc 1 158 0
 216 001e 02E0     		b	.L18
 217              	.L17:
 152:GUI_X.c       ****     if (Cy_SysTick_GetCallback(i) == NULL){
 218              		.loc 1 152 0 discriminator 2
 219 0020 0134     		adds	r4, r4, #1
 220              	.LVL9:
 221              	.L16:
 152:GUI_X.c       ****     if (Cy_SysTick_GetCallback(i) == NULL){
 222              		.loc 1 152 0 is_stmt 0 discriminator 1
 223 0022 042C     		cmp	r4, #4
 224 0024 F3D9     		bls	.L19
 225              	.L18:
 159:GUI_X.c       ****     }
 160:GUI_X.c       ****   }
 161:GUI_X.c       ****   //
ARM GAS  C:\Users\cypress\AppData\Local\Temp\ccUzPEVS.s 			page 8


 162:GUI_X.c       ****   // Assert when callback slot not found
 163:GUI_X.c       ****   //
 164:GUI_X.c       ****   CY_ASSERT(i < CY_SYS_SYST_NUM_OF_CALLBACKS);
 226              		.loc 1 164 0 is_stmt 1
 227 0026 042C     		cmp	r4, #4
 228 0028 03D9     		bls	.L20
 229              		.loc 1 164 0 is_stmt 0 discriminator 1
 230 002a A421     		movs	r1, #164
 231 002c 0348     		ldr	r0, .L22+4
 232 002e FFF7FEFF 		bl	Cy_SysLib_AssertFailed
 233              	.LVL10:
 234              	.L20:
 165:GUI_X.c       ****   
 166:GUI_X.c       ****   Cy_SysTick_Enable();
 235              		.loc 1 166 0 is_stmt 1
 236 0032 FFF7FEFF 		bl	Cy_SysTick_Enable
 237              	.LVL11:
 238 0036 10BD     		pop	{r4, pc}
 239              	.LVL12:
 240              	.L23:
 241              		.align	2
 242              	.L22:
 243 0038 00000000 		.word	GUI_X_Systick_Intr
 244 003c 00000000 		.word	.LC0
 245              		.cfi_endproc
 246              	.LFE140:
 247              		.size	GUI_X_Systick_Init, .-GUI_X_Systick_Init
 248              		.section	.text.GUI_X_Init,"ax",%progbits
 249              		.align	2
 250              		.global	GUI_X_Init
 251              		.thumb
 252              		.thumb_func
 253              		.type	GUI_X_Init, %function
 254              	GUI_X_Init:
 255              	.LFB134:
  89:GUI_X.c       ****   GUI_X_Systick_Init();
 256              		.loc 1 89 0
 257              		.cfi_startproc
 258              		@ args = 0, pretend = 0, frame = 0
 259              		@ frame_needed = 0, uses_anonymous_args = 0
 260 0000 08B5     		push	{r3, lr}
 261              		.cfi_def_cfa_offset 8
 262              		.cfi_offset 3, -8
 263              		.cfi_offset 14, -4
  90:GUI_X.c       **** }
 264              		.loc 1 90 0
 265 0002 FFF7FEFF 		bl	GUI_X_Systick_Init
 266              	.LVL13:
 267 0006 08BD     		pop	{r3, pc}
 268              		.cfi_endproc
 269              	.LFE134:
 270              		.size	GUI_X_Init, .-GUI_X_Init
 271              		.comm	OS_TimeMS,4,4
 272              		.section	.rodata.str1.4,"aMS",%progbits,1
 273              		.align	2
 274              	.LC0:
 275 0000 4755495F 		.ascii	"GUI_X.c\000"
ARM GAS  C:\Users\cypress\AppData\Local\Temp\ccUzPEVS.s 			page 9


 275      582E6300 
 276              		.text
 277              	.Letext0:
 278              		.file 2 "c:\\program files (x86)\\cypress\\psoc creator\\4.2\\psoc creator\\import\\gnu\\arm\\5.4.
 279              		.file 3 "c:\\program files (x86)\\cypress\\psoc creator\\4.2\\psoc creator\\import\\gnu\\arm\\5.4.
 280              		.file 4 "Generated_Source\\PSoC6\\pdl\\drivers/peripheral/syslib/cy_syslib.h"
 281              		.file 5 "Generated_Source\\PSoC6\\pdl\\cmsis/include/core_cm4.h"
 282              		.file 6 "Generated_Source\\PSoC6\\pdl\\drivers/peripheral/systick/cy_systick.h"