ARM GAS  C:\Users\Agentos\AppData\Local\Temp\ccHXniwf.s 			page 1


   1              		.syntax unified
   2              		.cpu cortex-m0plus
   3              		.fpu softvfp
   4              		.eabi_attribute 20, 1
   5              		.eabi_attribute 21, 1
   6              		.eabi_attribute 23, 3
   7              		.eabi_attribute 24, 1
   8              		.eabi_attribute 25, 1
   9              		.eabi_attribute 26, 1
  10              		.eabi_attribute 30, 1
  11              		.eabi_attribute 34, 0
  12              		.eabi_attribute 18, 4
  13              		.thumb
  14              		.syntax unified
  15              		.file	"CapSense_Control.c"
  16              		.text
  17              	.Ltext0:
  18              		.cfi_sections	.debug_frame
  19              		.section	.text.CapSense_SwitchPowerModeCallback,"ax",%progbits
  20              		.align	2
  21              		.code	16
  22              		.thumb_func
  23              		.type	CapSense_SwitchPowerModeCallback, %function
  24              	CapSense_SwitchPowerModeCallback:
  25              	.LFB179:
  26              		.file 1 "Generated_Source\\PSoC6\\CapSense_Control.c"
   1:Generated_Source\PSoC6/CapSense_Control.c **** /***************************************************************************//**
   2:Generated_Source\PSoC6/CapSense_Control.c **** * \file CapSense_Control.c
   3:Generated_Source\PSoC6/CapSense_Control.c **** * \version 2.0
   4:Generated_Source\PSoC6/CapSense_Control.c **** *
   5:Generated_Source\PSoC6/CapSense_Control.c **** * \brief
   6:Generated_Source\PSoC6/CapSense_Control.c **** *   This file provides the source code to the Control module API of the Component.
   7:Generated_Source\PSoC6/CapSense_Control.c **** *
   8:Generated_Source\PSoC6/CapSense_Control.c **** * \see CapSense v2.0 Datasheet
   9:Generated_Source\PSoC6/CapSense_Control.c **** *
  10:Generated_Source\PSoC6/CapSense_Control.c **** *//*****************************************************************************
  11:Generated_Source\PSoC6/CapSense_Control.c **** * Copyright (2016-2017), Cypress Semiconductor Corporation.
  12:Generated_Source\PSoC6/CapSense_Control.c **** ********************************************************************************
  13:Generated_Source\PSoC6/CapSense_Control.c **** * This software is owned by Cypress Semiconductor Corporation (Cypress) and is
  14:Generated_Source\PSoC6/CapSense_Control.c **** * protected by and subject to worldwide patent protection (United States and
  15:Generated_Source\PSoC6/CapSense_Control.c **** * foreign), United States copyright laws and international treaty provisions.
  16:Generated_Source\PSoC6/CapSense_Control.c **** * Cypress hereby grants to licensee a personal, non-exclusive, non-transferable
  17:Generated_Source\PSoC6/CapSense_Control.c **** * license to copy, use, modify, create derivative works of, and compile the
  18:Generated_Source\PSoC6/CapSense_Control.c **** * Cypress Source Code and derivative works for the sole purpose of creating
  19:Generated_Source\PSoC6/CapSense_Control.c **** * custom software in support of licensee product to be used only in conjunction
  20:Generated_Source\PSoC6/CapSense_Control.c **** * with a Cypress integrated circuit as specified in the applicable agreement.
  21:Generated_Source\PSoC6/CapSense_Control.c **** * Any reproduction, modification, translation, compilation, or representation of
  22:Generated_Source\PSoC6/CapSense_Control.c **** * this software except as specified above is prohibited without the express
  23:Generated_Source\PSoC6/CapSense_Control.c **** * written permission of Cypress.
  24:Generated_Source\PSoC6/CapSense_Control.c **** *
  25:Generated_Source\PSoC6/CapSense_Control.c **** * Disclaimer: CYPRESS MAKES NO WARRANTY OF ANY KIND, EXPRESS OR IMPLIED, WITH
  26:Generated_Source\PSoC6/CapSense_Control.c **** * REGARD TO THIS MATERIAL, INCLUDING, BUT NOT LIMITED TO, THE IMPLIED
  27:Generated_Source\PSoC6/CapSense_Control.c **** * WARRANTIES OF MERCHANTABILITY AND FITNESS FOR A PARTICULAR PURPOSE.
  28:Generated_Source\PSoC6/CapSense_Control.c **** * Cypress reserves the right to make changes without further notice to the
  29:Generated_Source\PSoC6/CapSense_Control.c **** * materials described herein. Cypress does not assume any liability arising out
  30:Generated_Source\PSoC6/CapSense_Control.c **** * of the application or use of any product or circuit described herein. Cypress
  31:Generated_Source\PSoC6/CapSense_Control.c **** * does not authorize its products for use as critical components in life-support
ARM GAS  C:\Users\Agentos\AppData\Local\Temp\ccHXniwf.s 			page 2


  32:Generated_Source\PSoC6/CapSense_Control.c **** * systems where a malfunction or failure may reasonably be expected to result in
  33:Generated_Source\PSoC6/CapSense_Control.c **** * significant injury to the user. The inclusion of Cypress' product in a life-
  34:Generated_Source\PSoC6/CapSense_Control.c **** * support systems application implies that the manufacturer assumes all risk of
  35:Generated_Source\PSoC6/CapSense_Control.c **** * such use and in doing so indemnifies Cypress against all charges. Use may be
  36:Generated_Source\PSoC6/CapSense_Control.c **** * limited by and subject to the applicable Cypress software license agreement.
  37:Generated_Source\PSoC6/CapSense_Control.c **** *******************************************************************************/
  38:Generated_Source\PSoC6/CapSense_Control.c **** 
  39:Generated_Source\PSoC6/CapSense_Control.c **** #include <stddef.h>
  40:Generated_Source\PSoC6/CapSense_Control.c **** #include "syslib/cy_syslib.h"
  41:Generated_Source\PSoC6/CapSense_Control.c **** #include "syspm/cy_syspm.h"
  42:Generated_Source\PSoC6/CapSense_Control.c **** #include "cyfitter_sysint_cfg.h"
  43:Generated_Source\PSoC6/CapSense_Control.c **** #include "CapSense_Configuration.h"
  44:Generated_Source\PSoC6/CapSense_Control.c **** #include "CapSense_Structure.h"
  45:Generated_Source\PSoC6/CapSense_Control.c **** #include "CapSense_Control.h"
  46:Generated_Source\PSoC6/CapSense_Control.c **** #include "CapSense_Processing.h"
  47:Generated_Source\PSoC6/CapSense_Control.c **** #include "CapSense_Filter.h"
  48:Generated_Source\PSoC6/CapSense_Control.c **** #include "CapSense_Sensing.h"
  49:Generated_Source\PSoC6/CapSense_Control.c **** #include "CapSense_Tuner.h"
  50:Generated_Source\PSoC6/CapSense_Control.c **** 
  51:Generated_Source\PSoC6/CapSense_Control.c **** #if (CapSense_ENABLE == CapSense_SELF_TEST_EN)
  52:Generated_Source\PSoC6/CapSense_Control.c ****     #include "CapSense_SelfTest.h"
  53:Generated_Source\PSoC6/CapSense_Control.c **** #endif
  54:Generated_Source\PSoC6/CapSense_Control.c **** 
  55:Generated_Source\PSoC6/CapSense_Control.c **** #if (0u != CapSense_ADC_EN)
  56:Generated_Source\PSoC6/CapSense_Control.c ****     #include "CapSense_Adc.h"
  57:Generated_Source\PSoC6/CapSense_Control.c **** #endif /* (0u != CapSense_ADC_EN) */
  58:Generated_Source\PSoC6/CapSense_Control.c **** 
  59:Generated_Source\PSoC6/CapSense_Control.c **** #if ((CapSense_ENABLE == CapSense_GES_GLOBAL_EN) ||\
  60:Generated_Source\PSoC6/CapSense_Control.c ****      (CapSense_ENABLE == CapSense_BALLISTIC_MULTIPLIER_EN))
  61:Generated_Source\PSoC6/CapSense_Control.c ****     #include "CapSense_Gesture.h"
  62:Generated_Source\PSoC6/CapSense_Control.c **** #endif /* (CapSense_ENABLE == CapSense_GES_GLOBAL_EN) */
  63:Generated_Source\PSoC6/CapSense_Control.c **** 
  64:Generated_Source\PSoC6/CapSense_Control.c **** /**************************************************************************************************
  65:Generated_Source\PSoC6/CapSense_Control.c **** * Local definition
  66:Generated_Source\PSoC6/CapSense_Control.c **** ***************************************************************************************************
  67:Generated_Source\PSoC6/CapSense_Control.c **** #define CapSense_INIT_DONE   (1u)
  68:Generated_Source\PSoC6/CapSense_Control.c **** #define CapSense_INIT_NEEDED (0u)
  69:Generated_Source\PSoC6/CapSense_Control.c **** 
  70:Generated_Source\PSoC6/CapSense_Control.c **** /**************************************************************************************************
  71:Generated_Source\PSoC6/CapSense_Control.c **** * Local variables
  72:Generated_Source\PSoC6/CapSense_Control.c **** ***************************************************************************************************
  73:Generated_Source\PSoC6/CapSense_Control.c **** static uint8 CapSense_InitVar = CapSense_INIT_NEEDED;
  74:Generated_Source\PSoC6/CapSense_Control.c **** 
  75:Generated_Source\PSoC6/CapSense_Control.c **** /**************************************************************************************************
  76:Generated_Source\PSoC6/CapSense_Control.c **** * Local function
  77:Generated_Source\PSoC6/CapSense_Control.c **** ***************************************************************************************************
  78:Generated_Source\PSoC6/CapSense_Control.c **** static cy_en_syspm_status_t CapSense_SwitchPowerModeCallback(cy_stc_syspm_callback_params_t *callba
  79:Generated_Source\PSoC6/CapSense_Control.c **** 
  80:Generated_Source\PSoC6/CapSense_Control.c **** /*******************************************************************************
  81:Generated_Source\PSoC6/CapSense_Control.c **** * Function Name: CapSense_Start
  82:Generated_Source\PSoC6/CapSense_Control.c **** ****************************************************************************//**
  83:Generated_Source\PSoC6/CapSense_Control.c **** *
  84:Generated_Source\PSoC6/CapSense_Control.c **** * \brief
  85:Generated_Source\PSoC6/CapSense_Control.c **** *  Initializes the Component hardware and firmware modules. This function is
  86:Generated_Source\PSoC6/CapSense_Control.c **** *  called by the application program prior to calling any other function of the
  87:Generated_Source\PSoC6/CapSense_Control.c **** *  Component.
  88:Generated_Source\PSoC6/CapSense_Control.c **** *
ARM GAS  C:\Users\Agentos\AppData\Local\Temp\ccHXniwf.s 			page 3


  89:Generated_Source\PSoC6/CapSense_Control.c **** * \details
  90:Generated_Source\PSoC6/CapSense_Control.c **** *  This function initializes the Component hardware and firmware modules and
  91:Generated_Source\PSoC6/CapSense_Control.c **** *  is called by the application program prior to calling any other API
  92:Generated_Source\PSoC6/CapSense_Control.c **** *  of the Component. When this function is called, the following tasks are
  93:Generated_Source\PSoC6/CapSense_Control.c **** *  executed as part of the initialization process:
  94:Generated_Source\PSoC6/CapSense_Control.c **** *    1. Initialize the registers of the \ref group_structures variable
  95:Generated_Source\PSoC6/CapSense_Control.c **** *       CapSense_dsRam based on the user selection in the Component
  96:Generated_Source\PSoC6/CapSense_Control.c **** *       configuration wizard.
  97:Generated_Source\PSoC6/CapSense_Control.c **** *    2. Configure the hardware to perform capacitive sensing.
  98:Generated_Source\PSoC6/CapSense_Control.c **** *    3. If SmartSense Auto-tuning is selected for the CSD Tuning mode in the
  99:Generated_Source\PSoC6/CapSense_Control.c **** *       Basic tab, the auto-tuning algorithm is executed to set the optimal
 100:Generated_Source\PSoC6/CapSense_Control.c **** *       values for the hardware parameters of the widgets/sensors.
 101:Generated_Source\PSoC6/CapSense_Control.c **** *    4. Calibrate the sensors and find the optimal values for IDACs of each
 102:Generated_Source\PSoC6/CapSense_Control.c **** *       widget / sensor, if the Enable IDAC auto-calibration is enabled in the
 103:Generated_Source\PSoC6/CapSense_Control.c **** *       CSD Setting or CSX Setting tabs.
 104:Generated_Source\PSoC6/CapSense_Control.c **** *    5. Perform scanning for all the sensors and initialize the baseline history.
 105:Generated_Source\PSoC6/CapSense_Control.c **** *    6. If the firmware filters are enabled in the Advanced General tab, the
 106:Generated_Source\PSoC6/CapSense_Control.c **** *       filter histories are also initialized.
 107:Generated_Source\PSoC6/CapSense_Control.c **** 
 108:Generated_Source\PSoC6/CapSense_Control.c **** *  Any next call of this API repeats an initialization process except for
 109:Generated_Source\PSoC6/CapSense_Control.c **** *  data structure initialization. Therefore, it is possible to change the
 110:Generated_Source\PSoC6/CapSense_Control.c **** *  Component configuration from the application program by writing registers to the
 111:Generated_Source\PSoC6/CapSense_Control.c **** *  data structure and calling this function again. This is also
 112:Generated_Source\PSoC6/CapSense_Control.c **** *  done inside the CapSense_RunTuner() function when a restart command
 113:Generated_Source\PSoC6/CapSense_Control.c **** *  is received.
 114:Generated_Source\PSoC6/CapSense_Control.c **** *
 115:Generated_Source\PSoC6/CapSense_Control.c **** *  When the Component operation is stopped by the CapSense_Stop()
 116:Generated_Source\PSoC6/CapSense_Control.c **** *  function, the CapSense_Start() function repeats an initialization
 117:Generated_Source\PSoC6/CapSense_Control.c **** *  process including data structure initialization.
 118:Generated_Source\PSoC6/CapSense_Control.c **** *
 119:Generated_Source\PSoC6/CapSense_Control.c **** * \return
 120:Generated_Source\PSoC6/CapSense_Control.c **** *  Returns the status of the initialization process. If CY_RET_SUCCESS is not
 121:Generated_Source\PSoC6/CapSense_Control.c **** *  received, some of the initialization fails and the Component may not operate
 122:Generated_Source\PSoC6/CapSense_Control.c **** *  as expected.
 123:Generated_Source\PSoC6/CapSense_Control.c **** *
 124:Generated_Source\PSoC6/CapSense_Control.c **** *******************************************************************************/
 125:Generated_Source\PSoC6/CapSense_Control.c **** cy_status CapSense_Start(void)
 126:Generated_Source\PSoC6/CapSense_Control.c **** {
 127:Generated_Source\PSoC6/CapSense_Control.c ****     cy_status result;
 128:Generated_Source\PSoC6/CapSense_Control.c **** 
 129:Generated_Source\PSoC6/CapSense_Control.c ****     /* Initialize CapSense modules */
 130:Generated_Source\PSoC6/CapSense_Control.c ****     result = CapSense_Initialize();
 131:Generated_Source\PSoC6/CapSense_Control.c **** 
 132:Generated_Source\PSoC6/CapSense_Control.c ****     #if (CapSense_CSD_AUTOTUNE != CapSense_CSD_SS_DIS)
 133:Generated_Source\PSoC6/CapSense_Control.c ****         if (CY_RET_SUCCESS == result)
 134:Generated_Source\PSoC6/CapSense_Control.c ****         {
 135:Generated_Source\PSoC6/CapSense_Control.c ****             result = CapSense_SsAutoTune();
 136:Generated_Source\PSoC6/CapSense_Control.c ****         }
 137:Generated_Source\PSoC6/CapSense_Control.c ****     #endif /* #if (CapSense_CSD_AUTOTUNE != CapSense_CSD_SS_DIS) */
 138:Generated_Source\PSoC6/CapSense_Control.c **** 
 139:Generated_Source\PSoC6/CapSense_Control.c ****     #if ((0u != CapSense_CSX_IDAC_AUTOCAL_EN) || \
 140:Generated_Source\PSoC6/CapSense_Control.c ****         ((CapSense_CSD_AUTOTUNE == CapSense_CSD_SS_DIS) && (0u != CapSense_CSD_IDAC_AUTOCAL_EN)))
 141:Generated_Source\PSoC6/CapSense_Control.c ****         if (CY_RET_SUCCESS == result)
 142:Generated_Source\PSoC6/CapSense_Control.c ****         {
 143:Generated_Source\PSoC6/CapSense_Control.c ****             result = CapSense_CalibrateAllWidgets();
 144:Generated_Source\PSoC6/CapSense_Control.c ****         }
 145:Generated_Source\PSoC6/CapSense_Control.c ****     #endif
ARM GAS  C:\Users\Agentos\AppData\Local\Temp\ccHXniwf.s 			page 4


 146:Generated_Source\PSoC6/CapSense_Control.c **** 
 147:Generated_Source\PSoC6/CapSense_Control.c ****     if (CY_RET_SUCCESS == result)
 148:Generated_Source\PSoC6/CapSense_Control.c ****     {
 149:Generated_Source\PSoC6/CapSense_Control.c ****         result = CapSense_ScanAllWidgets();
 150:Generated_Source\PSoC6/CapSense_Control.c ****     }
 151:Generated_Source\PSoC6/CapSense_Control.c **** 
 152:Generated_Source\PSoC6/CapSense_Control.c ****     while(CapSense_NOT_BUSY != CapSense_IsBusy()){}
 153:Generated_Source\PSoC6/CapSense_Control.c **** 
 154:Generated_Source\PSoC6/CapSense_Control.c ****     CapSense_FtInitialize();
 155:Generated_Source\PSoC6/CapSense_Control.c ****     CapSense_InitializeAllBaselines();
 156:Generated_Source\PSoC6/CapSense_Control.c **** 
 157:Generated_Source\PSoC6/CapSense_Control.c ****     #if(CapSense_ENABLE == CapSense_GES_GLOBAL_EN)
 158:Generated_Source\PSoC6/CapSense_Control.c ****         if (CY_RET_SUCCESS == result)
 159:Generated_Source\PSoC6/CapSense_Control.c ****         {
 160:Generated_Source\PSoC6/CapSense_Control.c ****             CapSense_InitializeGestures();
 161:Generated_Source\PSoC6/CapSense_Control.c ****         }
 162:Generated_Source\PSoC6/CapSense_Control.c ****     #endif /* (CapSense_ENABLE == CapSense_GES_GLOBAL_EN) */
 163:Generated_Source\PSoC6/CapSense_Control.c **** 
 164:Generated_Source\PSoC6/CapSense_Control.c ****     #if (0u != CapSense_BALLISTIC_MULTIPLIER_EN)
 165:Generated_Source\PSoC6/CapSense_Control.c ****         if (CY_RET_SUCCESS == result)
 166:Generated_Source\PSoC6/CapSense_Control.c ****         {
 167:Generated_Source\PSoC6/CapSense_Control.c ****             CapSense_InitializeBallisticMultiplier();
 168:Generated_Source\PSoC6/CapSense_Control.c ****         }
 169:Generated_Source\PSoC6/CapSense_Control.c ****     #endif /* (0u != CapSense_BALLISTIC_MULTIPLIER_EN) */
 170:Generated_Source\PSoC6/CapSense_Control.c **** 
 171:Generated_Source\PSoC6/CapSense_Control.c ****     #if (0u != CapSense_ADC_EN)
 172:Generated_Source\PSoC6/CapSense_Control.c ****         CapSense_AdcInitialize();
 173:Generated_Source\PSoC6/CapSense_Control.c ****     #endif /* (0u != CapSense_ADC_EN) */
 174:Generated_Source\PSoC6/CapSense_Control.c **** 
 175:Generated_Source\PSoC6/CapSense_Control.c ****     return result;
 176:Generated_Source\PSoC6/CapSense_Control.c **** }
 177:Generated_Source\PSoC6/CapSense_Control.c **** 
 178:Generated_Source\PSoC6/CapSense_Control.c **** /*******************************************************************************
 179:Generated_Source\PSoC6/CapSense_Control.c **** * Function Name: CapSense_Initialize
 180:Generated_Source\PSoC6/CapSense_Control.c **** ****************************************************************************//**
 181:Generated_Source\PSoC6/CapSense_Control.c **** *
 182:Generated_Source\PSoC6/CapSense_Control.c **** * \brief
 183:Generated_Source\PSoC6/CapSense_Control.c **** *  This function initializes the CapSense Component.
 184:Generated_Source\PSoC6/CapSense_Control.c **** *
 185:Generated_Source\PSoC6/CapSense_Control.c **** * \details
 186:Generated_Source\PSoC6/CapSense_Control.c **** *  This API initializes all sub-modules of the CapSense Component:
 187:Generated_Source\PSoC6/CapSense_Control.c **** *   - Data Structure - set the default Component parameters defined in the Customizer.
 188:Generated_Source\PSoC6/CapSense_Control.c **** *   - Data Processing - resets all widget statuses.
 189:Generated_Source\PSoC6/CapSense_Control.c **** *   - Tuner - resets tuning state.
 190:Generated_Source\PSoC6/CapSense_Control.c **** *   - Sensing - prepares CSD HW for operation.
 191:Generated_Source\PSoC6/CapSense_Control.c **** *
 192:Generated_Source\PSoC6/CapSense_Control.c **** *  Note that Data Structure module is initialized only once after the reset or
 193:Generated_Source\PSoC6/CapSense_Control.c **** *  CapSense_Stop() API is called. The repeated calls of Initialize API
 194:Generated_Source\PSoC6/CapSense_Control.c **** *  will not re-initialize Data Structure. This is done to preserve Component
 195:Generated_Source\PSoC6/CapSense_Control.c **** *  parameters that user may set in runtime.
 196:Generated_Source\PSoC6/CapSense_Control.c **** *
 197:Generated_Source\PSoC6/CapSense_Control.c **** * \return
 198:Generated_Source\PSoC6/CapSense_Control.c **** *  Return CY_RET_SUCCESS if the initialization was successful.
 199:Generated_Source\PSoC6/CapSense_Control.c **** *
 200:Generated_Source\PSoC6/CapSense_Control.c **** *******************************************************************************/
 201:Generated_Source\PSoC6/CapSense_Control.c **** cy_status CapSense_Initialize(void)
 202:Generated_Source\PSoC6/CapSense_Control.c **** {
ARM GAS  C:\Users\Agentos\AppData\Local\Temp\ccHXniwf.s 			page 5


 203:Generated_Source\PSoC6/CapSense_Control.c ****     cy_status result;
 204:Generated_Source\PSoC6/CapSense_Control.c **** 
 205:Generated_Source\PSoC6/CapSense_Control.c ****     /* The Data Structure and Tuner are initialized only once */
 206:Generated_Source\PSoC6/CapSense_Control.c ****     if (CapSense_INIT_NEEDED == CapSense_InitVar)
 207:Generated_Source\PSoC6/CapSense_Control.c ****     {
 208:Generated_Source\PSoC6/CapSense_Control.c ****         CapSense_DsInitialize();
 209:Generated_Source\PSoC6/CapSense_Control.c ****         CapSense_TuInitialize();
 210:Generated_Source\PSoC6/CapSense_Control.c ****         CapSense_InitVar = CapSense_INIT_DONE;
 211:Generated_Source\PSoC6/CapSense_Control.c ****     }
 212:Generated_Source\PSoC6/CapSense_Control.c **** 
 213:Generated_Source\PSoC6/CapSense_Control.c ****     CapSense_DpInitialize();
 214:Generated_Source\PSoC6/CapSense_Control.c **** 
 215:Generated_Source\PSoC6/CapSense_Control.c ****     result = CapSense_SsInitialize();
 216:Generated_Source\PSoC6/CapSense_Control.c **** 
 217:Generated_Source\PSoC6/CapSense_Control.c ****     return result;
 218:Generated_Source\PSoC6/CapSense_Control.c **** }
 219:Generated_Source\PSoC6/CapSense_Control.c **** 
 220:Generated_Source\PSoC6/CapSense_Control.c **** /*******************************************************************************
 221:Generated_Source\PSoC6/CapSense_Control.c **** * Function Name: CapSense_Stop
 222:Generated_Source\PSoC6/CapSense_Control.c **** ****************************************************************************//**
 223:Generated_Source\PSoC6/CapSense_Control.c **** *
 224:Generated_Source\PSoC6/CapSense_Control.c **** * \brief
 225:Generated_Source\PSoC6/CapSense_Control.c **** *  Stops the Component operation.
 226:Generated_Source\PSoC6/CapSense_Control.c **** *
 227:Generated_Source\PSoC6/CapSense_Control.c **** * \details
 228:Generated_Source\PSoC6/CapSense_Control.c **** *  This function stops the Component operation, no sensor scanning can be
 229:Generated_Source\PSoC6/CapSense_Control.c **** *  executed when the Component is stopped. Once stopped, the hardware block may
 230:Generated_Source\PSoC6/CapSense_Control.c **** *  be reconfigured by the application program for any other special usage. The
 231:Generated_Source\PSoC6/CapSense_Control.c **** *  Component operation can be resumed by calling the CapSense_Resume()
 232:Generated_Source\PSoC6/CapSense_Control.c **** *  function or the Component can be reset by calling the
 233:Generated_Source\PSoC6/CapSense_Control.c **** *  CapSense_Start() function.
 234:Generated_Source\PSoC6/CapSense_Control.c **** *
 235:Generated_Source\PSoC6/CapSense_Control.c **** *  This function is called when no scanning is in progress.
 236:Generated_Source\PSoC6/CapSense_Control.c **** *  I.e. CapSense_IsBusy() returns a non-busy status.
 237:Generated_Source\PSoC6/CapSense_Control.c **** *
 238:Generated_Source\PSoC6/CapSense_Control.c **** * \return
 239:Generated_Source\PSoC6/CapSense_Control.c **** *  Returns the status of the stop process. If CY_RET_SUCCESS is not received,
 240:Generated_Source\PSoC6/CapSense_Control.c **** *  the stop process fails and retries may be required.
 241:Generated_Source\PSoC6/CapSense_Control.c **** *
 242:Generated_Source\PSoC6/CapSense_Control.c **** *******************************************************************************/
 243:Generated_Source\PSoC6/CapSense_Control.c **** cy_status CapSense_Stop(void)
 244:Generated_Source\PSoC6/CapSense_Control.c **** {
 245:Generated_Source\PSoC6/CapSense_Control.c ****     cy_status result = CY_RET_SUCCESS;
 246:Generated_Source\PSoC6/CapSense_Control.c **** 
 247:Generated_Source\PSoC6/CapSense_Control.c ****     #if (CapSense_ENABLE == CapSense_ADC_EN)
 248:Generated_Source\PSoC6/CapSense_Control.c ****         /* Release CSD resources */
 249:Generated_Source\PSoC6/CapSense_Control.c ****         result = CapSense_SsReleaseResources();
 250:Generated_Source\PSoC6/CapSense_Control.c **** 
 251:Generated_Source\PSoC6/CapSense_Control.c ****         /* Release ADC resources */
 252:Generated_Source\PSoC6/CapSense_Control.c ****         CapSense_AdcStop();
 253:Generated_Source\PSoC6/CapSense_Control.c ****     #endif /* (CapSense_ENABLE == CapSense_ADC_EN) */
 254:Generated_Source\PSoC6/CapSense_Control.c **** 
 255:Generated_Source\PSoC6/CapSense_Control.c ****     CapSense_InitVar = CapSense_INIT_NEEDED;
 256:Generated_Source\PSoC6/CapSense_Control.c **** 
 257:Generated_Source\PSoC6/CapSense_Control.c ****     return result;
 258:Generated_Source\PSoC6/CapSense_Control.c **** }
 259:Generated_Source\PSoC6/CapSense_Control.c **** 
ARM GAS  C:\Users\Agentos\AppData\Local\Temp\ccHXniwf.s 			page 6


 260:Generated_Source\PSoC6/CapSense_Control.c **** /*******************************************************************************
 261:Generated_Source\PSoC6/CapSense_Control.c **** * Function Name: CapSense_Resume
 262:Generated_Source\PSoC6/CapSense_Control.c **** ****************************************************************************//**
 263:Generated_Source\PSoC6/CapSense_Control.c **** *
 264:Generated_Source\PSoC6/CapSense_Control.c **** * \brief
 265:Generated_Source\PSoC6/CapSense_Control.c **** *  Resumes the Component operation if the CapSense_Stop() function was
 266:Generated_Source\PSoC6/CapSense_Control.c **** *  called previously.
 267:Generated_Source\PSoC6/CapSense_Control.c **** *
 268:Generated_Source\PSoC6/CapSense_Control.c **** * \details
 269:Generated_Source\PSoC6/CapSense_Control.c **** *  This function resumes the Component operation if the operation is stopped
 270:Generated_Source\PSoC6/CapSense_Control.c **** *  previously by the CapSense_Stop() function. The following tasks are
 271:Generated_Source\PSoC6/CapSense_Control.c **** *  executed as part of the operation resume process:
 272:Generated_Source\PSoC6/CapSense_Control.c **** *    1. Reset all the Widgets/Sensors statuses.
 273:Generated_Source\PSoC6/CapSense_Control.c **** *    2. Configure the hardware to perform capacitive sensing.
 274:Generated_Source\PSoC6/CapSense_Control.c **** *
 275:Generated_Source\PSoC6/CapSense_Control.c **** * \return
 276:Generated_Source\PSoC6/CapSense_Control.c **** *  Returns the status of the resume process. If CY_RET_SUCCESS is not received,
 277:Generated_Source\PSoC6/CapSense_Control.c **** *  the resume process fails and retries may be required.
 278:Generated_Source\PSoC6/CapSense_Control.c **** *
 279:Generated_Source\PSoC6/CapSense_Control.c **** *******************************************************************************/
 280:Generated_Source\PSoC6/CapSense_Control.c **** cy_status CapSense_Resume(void)
 281:Generated_Source\PSoC6/CapSense_Control.c **** {
 282:Generated_Source\PSoC6/CapSense_Control.c ****     cy_status result;
 283:Generated_Source\PSoC6/CapSense_Control.c **** 
 284:Generated_Source\PSoC6/CapSense_Control.c ****     /* The Tuner are initialized only once in order not to break communication */
 285:Generated_Source\PSoC6/CapSense_Control.c ****     if (CapSense_INIT_NEEDED == CapSense_InitVar)
 286:Generated_Source\PSoC6/CapSense_Control.c ****     {
 287:Generated_Source\PSoC6/CapSense_Control.c ****         CapSense_TuInitialize();
 288:Generated_Source\PSoC6/CapSense_Control.c ****         CapSense_InitVar = CapSense_INIT_DONE;
 289:Generated_Source\PSoC6/CapSense_Control.c ****     }
 290:Generated_Source\PSoC6/CapSense_Control.c ****     CapSense_DpInitialize();
 291:Generated_Source\PSoC6/CapSense_Control.c **** 
 292:Generated_Source\PSoC6/CapSense_Control.c ****     result = CapSense_SsInitialize();
 293:Generated_Source\PSoC6/CapSense_Control.c **** 
 294:Generated_Source\PSoC6/CapSense_Control.c ****     return result;
 295:Generated_Source\PSoC6/CapSense_Control.c **** }
 296:Generated_Source\PSoC6/CapSense_Control.c **** 
 297:Generated_Source\PSoC6/CapSense_Control.c **** /*******************************************************************************
 298:Generated_Source\PSoC6/CapSense_Control.c **** * Function Name: CapSense_ProcessAllWidgets
 299:Generated_Source\PSoC6/CapSense_Control.c **** ****************************************************************************//**
 300:Generated_Source\PSoC6/CapSense_Control.c **** *
 301:Generated_Source\PSoC6/CapSense_Control.c **** * \brief
 302:Generated_Source\PSoC6/CapSense_Control.c **** *  Performs full data processing of all enabled widgets.
 303:Generated_Source\PSoC6/CapSense_Control.c **** *
 304:Generated_Source\PSoC6/CapSense_Control.c **** * \details
 305:Generated_Source\PSoC6/CapSense_Control.c **** *  This function performs all data processes for all enabled widgets in the
 306:Generated_Source\PSoC6/CapSense_Control.c **** *  Component. The following tasks are executed as part of processing all the
 307:Generated_Source\PSoC6/CapSense_Control.c **** *  widgets:
 308:Generated_Source\PSoC6/CapSense_Control.c **** *    1. Apply raw count filters to the raw counts, if they are enabled in the
 309:Generated_Source\PSoC6/CapSense_Control.c **** *       customizer.
 310:Generated_Source\PSoC6/CapSense_Control.c **** *    2. Update the thresholds if the SmartSense Full Auto-Tuning is enabled in
 311:Generated_Source\PSoC6/CapSense_Control.c **** *       the customizer.
 312:Generated_Source\PSoC6/CapSense_Control.c **** *    3. Update the baselines and difference counts for all the sensors.
 313:Generated_Source\PSoC6/CapSense_Control.c **** *    4. Update the sensor and widget status (on/off), update the centroid for
 314:Generated_Source\PSoC6/CapSense_Control.c **** *       the sliders and the X/Y position for the touchpads.
 315:Generated_Source\PSoC6/CapSense_Control.c **** *
 316:Generated_Source\PSoC6/CapSense_Control.c **** *  This function is called by an application program only after all the enabled
ARM GAS  C:\Users\Agentos\AppData\Local\Temp\ccHXniwf.s 			page 7


 317:Generated_Source\PSoC6/CapSense_Control.c **** *  widgets (and sensors) in the Component is scanned. Calling this function
 318:Generated_Source\PSoC6/CapSense_Control.c **** *  multiple times without sensor scanning causes unexpected behavior.
 319:Generated_Source\PSoC6/CapSense_Control.c **** *
 320:Generated_Source\PSoC6/CapSense_Control.c **** *  The disabled widgets are not processed by this function. To disable/enable
 321:Generated_Source\PSoC6/CapSense_Control.c **** *  a widget, set the appropriate values in the
 322:Generated_Source\PSoC6/CapSense_Control.c **** *  CapSense_WDGT_ENABLE<RegisterNumber>_PARAM_ID register using the
 323:Generated_Source\PSoC6/CapSense_Control.c **** *  CapSense_SetParam() function.
 324:Generated_Source\PSoC6/CapSense_Control.c **** *
 325:Generated_Source\PSoC6/CapSense_Control.c **** *  If the Ballistic multiplier filter is enabled the Timestamp must be
 326:Generated_Source\PSoC6/CapSense_Control.c **** *  updated before calling this function using the
 327:Generated_Source\PSoC6/CapSense_Control.c **** *  CapSense_IncrementGestureTimestamp() function.
 328:Generated_Source\PSoC6/CapSense_Control.c **** *
 329:Generated_Source\PSoC6/CapSense_Control.c **** *  If the Self-test library is enabled, this function executes the baseline duplication
 330:Generated_Source\PSoC6/CapSense_Control.c **** *  test. Refer to CapSense_CheckBaselineDuplication() for details.
 331:Generated_Source\PSoC6/CapSense_Control.c **** *
 332:Generated_Source\PSoC6/CapSense_Control.c **** * \return
 333:Generated_Source\PSoC6/CapSense_Control.c **** *  Returns the status of the processing operation. If CY_RET_SUCCESS is not received,
 334:Generated_Source\PSoC6/CapSense_Control.c **** *  the processing fails and retries may be required.
 335:Generated_Source\PSoC6/CapSense_Control.c **** *
 336:Generated_Source\PSoC6/CapSense_Control.c **** *******************************************************************************/
 337:Generated_Source\PSoC6/CapSense_Control.c **** cy_status CapSense_ProcessAllWidgets(void)
 338:Generated_Source\PSoC6/CapSense_Control.c **** {
 339:Generated_Source\PSoC6/CapSense_Control.c ****     uint32 wdgtId;
 340:Generated_Source\PSoC6/CapSense_Control.c ****     cy_status result = CY_RET_SUCCESS;
 341:Generated_Source\PSoC6/CapSense_Control.c ****     CapSense_FLASH_WD_STRUCT const *ptrFlashWdgt;
 342:Generated_Source\PSoC6/CapSense_Control.c **** 
 343:Generated_Source\PSoC6/CapSense_Control.c ****     ptrFlashWdgt = CapSense_dsFlash.wdgtArray;
 344:Generated_Source\PSoC6/CapSense_Control.c **** 
 345:Generated_Source\PSoC6/CapSense_Control.c ****     for (wdgtId = 0u; wdgtId < CapSense_TOTAL_WIDGETS; wdgtId++)
 346:Generated_Source\PSoC6/CapSense_Control.c ****     {
 347:Generated_Source\PSoC6/CapSense_Control.c ****         if (0uL != CapSense_GET_WIDGET_EN_STATUS(wdgtId))
 348:Generated_Source\PSoC6/CapSense_Control.c ****         {
 349:Generated_Source\PSoC6/CapSense_Control.c ****             switch(CapSense_GET_SENSE_METHOD(ptrFlashWdgt))
 350:Generated_Source\PSoC6/CapSense_Control.c ****             {
 351:Generated_Source\PSoC6/CapSense_Control.c ****             #if (0u != CapSense_TOTAL_CSD_WIDGETS)
 352:Generated_Source\PSoC6/CapSense_Control.c ****                 case CapSense_SENSE_METHOD_CSD_E:
 353:Generated_Source\PSoC6/CapSense_Control.c ****                     result = CapSense_DpProcessCsdWidgetRawCounts(ptrFlashWdgt);
 354:Generated_Source\PSoC6/CapSense_Control.c ****                     CapSense_DpProcessCsdWidgetStatus(wdgtId, ptrFlashWdgt);
 355:Generated_Source\PSoC6/CapSense_Control.c ****                     break;
 356:Generated_Source\PSoC6/CapSense_Control.c ****             #endif /* #if (0u != CapSense_TOTAL_CSD_WIDGETS) */
 357:Generated_Source\PSoC6/CapSense_Control.c **** 
 358:Generated_Source\PSoC6/CapSense_Control.c ****             #if (0u != CapSense_TOTAL_CSX_WIDGETS)
 359:Generated_Source\PSoC6/CapSense_Control.c ****                 case CapSense_SENSE_METHOD_CSX_E:
 360:Generated_Source\PSoC6/CapSense_Control.c ****                     result = CapSense_DpProcessCsxWidgetRawCounts(ptrFlashWdgt);
 361:Generated_Source\PSoC6/CapSense_Control.c ****                     CapSense_DpProcessCsxWidgetStatus(wdgtId, ptrFlashWdgt);
 362:Generated_Source\PSoC6/CapSense_Control.c ****                     break;
 363:Generated_Source\PSoC6/CapSense_Control.c ****             #endif /* #if (0u != CapSense_TOTAL_CSX_WIDGETS) */
 364:Generated_Source\PSoC6/CapSense_Control.c **** 
 365:Generated_Source\PSoC6/CapSense_Control.c ****             default:
 366:Generated_Source\PSoC6/CapSense_Control.c ****                 CY_ASSERT(0 != 0);
 367:Generated_Source\PSoC6/CapSense_Control.c ****                 break;
 368:Generated_Source\PSoC6/CapSense_Control.c ****             }
 369:Generated_Source\PSoC6/CapSense_Control.c **** 
 370:Generated_Source\PSoC6/CapSense_Control.c ****             #if (CapSense_ENABLE == CapSense_TST_BSLN_DUPLICATION_EN)
 371:Generated_Source\PSoC6/CapSense_Control.c ****                 if (CY_RET_SUCCESS != result)
 372:Generated_Source\PSoC6/CapSense_Control.c ****                 {
 373:Generated_Source\PSoC6/CapSense_Control.c ****                     CapSense_UpdateTestResultBaselineDuplication(wdgtId, result);
ARM GAS  C:\Users\Agentos\AppData\Local\Temp\ccHXniwf.s 			page 8


 374:Generated_Source\PSoC6/CapSense_Control.c ****                     result = CY_RET_BAD_DATA;
 375:Generated_Source\PSoC6/CapSense_Control.c ****                 }
 376:Generated_Source\PSoC6/CapSense_Control.c ****             #endif /* (CapSense_ENABLE == CapSense_TST_BSLN_DUPLICATION_EN) */
 377:Generated_Source\PSoC6/CapSense_Control.c **** 
 378:Generated_Source\PSoC6/CapSense_Control.c ****         }
 379:Generated_Source\PSoC6/CapSense_Control.c ****         ptrFlashWdgt++;
 380:Generated_Source\PSoC6/CapSense_Control.c ****     }
 381:Generated_Source\PSoC6/CapSense_Control.c ****     return result;
 382:Generated_Source\PSoC6/CapSense_Control.c **** }
 383:Generated_Source\PSoC6/CapSense_Control.c **** 
 384:Generated_Source\PSoC6/CapSense_Control.c **** /*******************************************************************************
 385:Generated_Source\PSoC6/CapSense_Control.c **** * Function Name: CapSense_ProcessWidget
 386:Generated_Source\PSoC6/CapSense_Control.c **** ****************************************************************************//**
 387:Generated_Source\PSoC6/CapSense_Control.c **** *
 388:Generated_Source\PSoC6/CapSense_Control.c **** * \brief
 389:Generated_Source\PSoC6/CapSense_Control.c **** *  Performs full data processing of the specified widget if it is enabled.
 390:Generated_Source\PSoC6/CapSense_Control.c **** *
 391:Generated_Source\PSoC6/CapSense_Control.c **** * \details
 392:Generated_Source\PSoC6/CapSense_Control.c **** *  This function performs exactly the same tasks as
 393:Generated_Source\PSoC6/CapSense_Control.c **** *  CapSense_ProcessAllWidgets(), but only for a specified widget. This
 394:Generated_Source\PSoC6/CapSense_Control.c **** *  function can be used along with the CapSense_SetupWidget() and
 395:Generated_Source\PSoC6/CapSense_Control.c **** *  CapSense_Scan() functions to scan and process data for a specific
 396:Generated_Source\PSoC6/CapSense_Control.c **** *  widget. This function is called only after all the sensors in the
 397:Generated_Source\PSoC6/CapSense_Control.c **** *  widgets are scanned. A disabled widget is not processed by this function.
 398:Generated_Source\PSoC6/CapSense_Control.c **** *
 399:Generated_Source\PSoC6/CapSense_Control.c **** *  A pipeline scan method (i.e. during scanning of a widget perform processing
 400:Generated_Source\PSoC6/CapSense_Control.c **** *  of the previously scanned widget) can be implemented using this function and
 401:Generated_Source\PSoC6/CapSense_Control.c **** *  it may reduce the total execution time, increase the refresh rate and
 402:Generated_Source\PSoC6/CapSense_Control.c **** *  decrease the average power consumption.
 403:Generated_Source\PSoC6/CapSense_Control.c **** *
 404:Generated_Source\PSoC6/CapSense_Control.c **** *  If the Ballistic multiplier filter is enabled the Timestamp must be
 405:Generated_Source\PSoC6/CapSense_Control.c **** *  updated before calling this function using the
 406:Generated_Source\PSoC6/CapSense_Control.c **** *  CapSense_IncrementGestureTimestamp() function.
 407:Generated_Source\PSoC6/CapSense_Control.c **** *
 408:Generated_Source\PSoC6/CapSense_Control.c **** *  If the Self-test library is enabled, this function executes the baseline duplication
 409:Generated_Source\PSoC6/CapSense_Control.c **** *  test. Refer to CapSense_CheckBaselineDuplication() for details.
 410:Generated_Source\PSoC6/CapSense_Control.c **** *
 411:Generated_Source\PSoC6/CapSense_Control.c **** * \param widgetId
 412:Generated_Source\PSoC6/CapSense_Control.c **** *  Specifies the ID number of the widget to be processed.
 413:Generated_Source\PSoC6/CapSense_Control.c **** *  A macro for the widget ID can be found in the
 414:Generated_Source\PSoC6/CapSense_Control.c **** *  CapSense Configuration header file defined as
 415:Generated_Source\PSoC6/CapSense_Control.c **** *  CapSense_<WidgetName>_WDGT_ID
 416:Generated_Source\PSoC6/CapSense_Control.c **** *
 417:Generated_Source\PSoC6/CapSense_Control.c **** * \return
 418:Generated_Source\PSoC6/CapSense_Control.c **** *  Returns the status of the widget processing:
 419:Generated_Source\PSoC6/CapSense_Control.c **** *  - CY_RET_SUCCESS - The operation is successfully completed
 420:Generated_Source\PSoC6/CapSense_Control.c **** *  - CY_RET_BAD_PARAM - The input parameter is invalid
 421:Generated_Source\PSoC6/CapSense_Control.c **** *  - CY_RET_INVALID_STATE - The specified widget is disabled
 422:Generated_Source\PSoC6/CapSense_Control.c **** *  - CY_RET_BAD_DATA - The processing is failed
 423:Generated_Source\PSoC6/CapSense_Control.c **** *
 424:Generated_Source\PSoC6/CapSense_Control.c **** *******************************************************************************/
 425:Generated_Source\PSoC6/CapSense_Control.c **** cy_status CapSense_ProcessWidget(uint32 widgetId)
 426:Generated_Source\PSoC6/CapSense_Control.c **** {
 427:Generated_Source\PSoC6/CapSense_Control.c ****     cy_status result = CY_RET_SUCCESS;
 428:Generated_Source\PSoC6/CapSense_Control.c ****     CapSense_FLASH_WD_STRUCT const *ptrFlashWdgt;
 429:Generated_Source\PSoC6/CapSense_Control.c **** 
 430:Generated_Source\PSoC6/CapSense_Control.c ****     if (widgetId >= CapSense_TOTAL_WIDGETS)
ARM GAS  C:\Users\Agentos\AppData\Local\Temp\ccHXniwf.s 			page 9


 431:Generated_Source\PSoC6/CapSense_Control.c ****     {
 432:Generated_Source\PSoC6/CapSense_Control.c ****         result = CY_RET_BAD_PARAM;
 433:Generated_Source\PSoC6/CapSense_Control.c ****     }
 434:Generated_Source\PSoC6/CapSense_Control.c **** 
 435:Generated_Source\PSoC6/CapSense_Control.c ****     if ((CY_RET_SUCCESS == result) && (0uL == CapSense_GET_WIDGET_EN_STATUS(widgetId)))
 436:Generated_Source\PSoC6/CapSense_Control.c ****     {
 437:Generated_Source\PSoC6/CapSense_Control.c ****         result = CY_RET_INVALID_STATE;
 438:Generated_Source\PSoC6/CapSense_Control.c ****     }
 439:Generated_Source\PSoC6/CapSense_Control.c **** 
 440:Generated_Source\PSoC6/CapSense_Control.c ****     if (CY_RET_SUCCESS == result)
 441:Generated_Source\PSoC6/CapSense_Control.c ****     {
 442:Generated_Source\PSoC6/CapSense_Control.c ****         ptrFlashWdgt = &CapSense_dsFlash.wdgtArray[widgetId];
 443:Generated_Source\PSoC6/CapSense_Control.c **** 
 444:Generated_Source\PSoC6/CapSense_Control.c ****         switch(CapSense_GET_SENSE_METHOD(ptrFlashWdgt))
 445:Generated_Source\PSoC6/CapSense_Control.c ****         {
 446:Generated_Source\PSoC6/CapSense_Control.c ****         #if (0u != CapSense_TOTAL_CSD_WIDGETS)
 447:Generated_Source\PSoC6/CapSense_Control.c ****             case CapSense_SENSE_METHOD_CSD_E:
 448:Generated_Source\PSoC6/CapSense_Control.c ****                 result = CapSense_DpProcessCsdWidgetRawCounts(ptrFlashWdgt);
 449:Generated_Source\PSoC6/CapSense_Control.c ****                 CapSense_DpProcessCsdWidgetStatus(widgetId, ptrFlashWdgt);
 450:Generated_Source\PSoC6/CapSense_Control.c ****                 break;
 451:Generated_Source\PSoC6/CapSense_Control.c ****         #endif /* #if (0u != CapSense_TOTAL_CSD_WIDGETS) */
 452:Generated_Source\PSoC6/CapSense_Control.c **** 
 453:Generated_Source\PSoC6/CapSense_Control.c ****         #if (0u != CapSense_TOTAL_CSX_WIDGETS)
 454:Generated_Source\PSoC6/CapSense_Control.c ****             case CapSense_SENSE_METHOD_CSX_E:
 455:Generated_Source\PSoC6/CapSense_Control.c ****                 result = CapSense_DpProcessCsxWidgetRawCounts(ptrFlashWdgt);
 456:Generated_Source\PSoC6/CapSense_Control.c ****                 CapSense_DpProcessCsxWidgetStatus(widgetId, ptrFlashWdgt);
 457:Generated_Source\PSoC6/CapSense_Control.c ****                 break;
 458:Generated_Source\PSoC6/CapSense_Control.c ****         #endif /* #if (0u != CapSense_TOTAL_CSX_WIDGETS) */
 459:Generated_Source\PSoC6/CapSense_Control.c **** 
 460:Generated_Source\PSoC6/CapSense_Control.c ****         default:
 461:Generated_Source\PSoC6/CapSense_Control.c ****             CY_ASSERT(0 != 0);
 462:Generated_Source\PSoC6/CapSense_Control.c ****             break;
 463:Generated_Source\PSoC6/CapSense_Control.c ****         }
 464:Generated_Source\PSoC6/CapSense_Control.c **** 
 465:Generated_Source\PSoC6/CapSense_Control.c ****         #if (CapSense_ENABLE == CapSense_TST_BSLN_DUPLICATION_EN)
 466:Generated_Source\PSoC6/CapSense_Control.c ****             if (CY_RET_SUCCESS != result)
 467:Generated_Source\PSoC6/CapSense_Control.c ****             {
 468:Generated_Source\PSoC6/CapSense_Control.c ****                 CapSense_UpdateTestResultBaselineDuplication(widgetId, result);
 469:Generated_Source\PSoC6/CapSense_Control.c ****                 result = CY_RET_BAD_DATA;
 470:Generated_Source\PSoC6/CapSense_Control.c ****             }
 471:Generated_Source\PSoC6/CapSense_Control.c ****         #endif /* (CapSense_ENABLE == CapSense_TST_BSLN_DUPLICATION_EN) */
 472:Generated_Source\PSoC6/CapSense_Control.c ****     }
 473:Generated_Source\PSoC6/CapSense_Control.c ****     return result;
 474:Generated_Source\PSoC6/CapSense_Control.c **** }
 475:Generated_Source\PSoC6/CapSense_Control.c **** 
 476:Generated_Source\PSoC6/CapSense_Control.c **** 
 477:Generated_Source\PSoC6/CapSense_Control.c **** /*******************************************************************************
 478:Generated_Source\PSoC6/CapSense_Control.c **** * Function Name: CapSense_ProcessWidgetExt
 479:Generated_Source\PSoC6/CapSense_Control.c **** ****************************************************************************//**
 480:Generated_Source\PSoC6/CapSense_Control.c **** *
 481:Generated_Source\PSoC6/CapSense_Control.c **** * \brief
 482:Generated_Source\PSoC6/CapSense_Control.c **** *  Performs customized data processing on the selected widget.
 483:Generated_Source\PSoC6/CapSense_Control.c **** *
 484:Generated_Source\PSoC6/CapSense_Control.c **** * \details
 485:Generated_Source\PSoC6/CapSense_Control.c **** *  This function performs data processes for the specified widget specified by
 486:Generated_Source\PSoC6/CapSense_Control.c **** *  the mode parameter. The execution order of the requested operations is from
 487:Generated_Source\PSoC6/CapSense_Control.c **** *  LSB to MSB of the mode parameter. For a different order, this API
ARM GAS  C:\Users\Agentos\AppData\Local\Temp\ccHXniwf.s 			page 10


 488:Generated_Source\PSoC6/CapSense_Control.c **** *  can be called multiple times with the required mode parameter.
 489:Generated_Source\PSoC6/CapSense_Control.c **** *
 490:Generated_Source\PSoC6/CapSense_Control.c **** *  This function can be used with any of the available scan functions. This
 491:Generated_Source\PSoC6/CapSense_Control.c **** *  function is called only after all the sensors in the specified widget are
 492:Generated_Source\PSoC6/CapSense_Control.c **** *  scanned. Calling this function multiple times with the same mode without
 493:Generated_Source\PSoC6/CapSense_Control.c **** *  sensor scanning causes unexpected behavior. This function ignores the value
 494:Generated_Source\PSoC6/CapSense_Control.c **** *  of the wdgtEnable register.
 495:Generated_Source\PSoC6/CapSense_Control.c **** *
 496:Generated_Source\PSoC6/CapSense_Control.c **** *  The CapSense_PROCESS_CALC_NOISE and
 497:Generated_Source\PSoC6/CapSense_Control.c **** *  CapSense_PROCESS_THRESHOLDS flags are supported by the CSD sensing
 498:Generated_Source\PSoC6/CapSense_Control.c **** *  method only when Auto-tuning mode is enabled.
 499:Generated_Source\PSoC6/CapSense_Control.c **** *
 500:Generated_Source\PSoC6/CapSense_Control.c **** *  The pipeline scan method (i.e. during scanning of a widget, processing
 501:Generated_Source\PSoC6/CapSense_Control.c **** *  of a previously scanned widget is performed) can be implemented using this
 502:Generated_Source\PSoC6/CapSense_Control.c **** *  function and it may reduce the total scan/process time, increase the refresh
 503:Generated_Source\PSoC6/CapSense_Control.c **** *  rate and decrease the power consumption.
 504:Generated_Source\PSoC6/CapSense_Control.c **** *
 505:Generated_Source\PSoC6/CapSense_Control.c **** *  If the Self-test library is enabled, this function executes the baseline duplication
 506:Generated_Source\PSoC6/CapSense_Control.c **** *  test. Refer to CapSense_CheckBaselineDuplication() for details.
 507:Generated_Source\PSoC6/CapSense_Control.c **** *
 508:Generated_Source\PSoC6/CapSense_Control.c **** *  If the Ballistic multiplier filter is enabled the Timestamp must be
 509:Generated_Source\PSoC6/CapSense_Control.c **** *  updated before calling this function using the
 510:Generated_Source\PSoC6/CapSense_Control.c **** *  CapSense_IncrementGestureTimestamp() function.
 511:Generated_Source\PSoC6/CapSense_Control.c **** *
 512:Generated_Source\PSoC6/CapSense_Control.c **** * \param widgetId
 513:Generated_Source\PSoC6/CapSense_Control.c **** *  Specifies the ID number of the widget to be processed.
 514:Generated_Source\PSoC6/CapSense_Control.c **** *  A macro for the widget ID can be found in the CapSense Configuration header
 515:Generated_Source\PSoC6/CapSense_Control.c **** *  file defined as CapSense_<WidgetName>_WDGT_ID.
 516:Generated_Source\PSoC6/CapSense_Control.c **** 
 517:Generated_Source\PSoC6/CapSense_Control.c **** * \param mode
 518:Generated_Source\PSoC6/CapSense_Control.c **** *  Specifies the type of widget processing to be executed for the
 519:Generated_Source\PSoC6/CapSense_Control.c **** *  specified widget:
 520:Generated_Source\PSoC6/CapSense_Control.c **** *    1. Bits [31..6] - Reserved.
 521:Generated_Source\PSoC6/CapSense_Control.c **** *    2. Bits [5..0] - CapSense_PROCESS_ALL - Execute all the tasks.
 522:Generated_Source\PSoC6/CapSense_Control.c **** *    3. Bit [5] - CapSense_PROCESS_STATUS - Update the status (on/off,
 523:Generated_Source\PSoC6/CapSense_Control.c **** *       centroid position).
 524:Generated_Source\PSoC6/CapSense_Control.c **** *    4. Bit [4] - CapSense_PROCESS_THRESHOLDS - Update the thresholds
 525:Generated_Source\PSoC6/CapSense_Control.c **** *       (only in CSD auto-tuning mode).
 526:Generated_Source\PSoC6/CapSense_Control.c **** *    5. Bit [3] - CapSense_PROCESS_CALC_NOISE - Calculate the noise (only in
 527:Generated_Source\PSoC6/CapSense_Control.c **** *       CSD auto-tuning mode).
 528:Generated_Source\PSoC6/CapSense_Control.c **** *    6. Bit [2] - CapSense_PROCESS_DIFFCOUNTS - Update the difference counts.
 529:Generated_Source\PSoC6/CapSense_Control.c **** *    7. Bit [1] - CapSense_PROCESS_BASELINE - Update the baselines.
 530:Generated_Source\PSoC6/CapSense_Control.c **** *    8. Bit [0] - CapSense_PROCESS_FILTER - Run the firmware filters.
 531:Generated_Source\PSoC6/CapSense_Control.c **** *
 532:Generated_Source\PSoC6/CapSense_Control.c **** * \return
 533:Generated_Source\PSoC6/CapSense_Control.c **** *  Returns the status of the widget processing operation:
 534:Generated_Source\PSoC6/CapSense_Control.c **** *  - CY_RET_SUCCESS - The processing is successfully performed.
 535:Generated_Source\PSoC6/CapSense_Control.c **** *  - CY_RET_BAD_PARAM - The input parameter is invalid.
 536:Generated_Source\PSoC6/CapSense_Control.c **** *  - CY_RET_BAD_DATA - The processing failed.
 537:Generated_Source\PSoC6/CapSense_Control.c **** *
 538:Generated_Source\PSoC6/CapSense_Control.c **** *******************************************************************************/
 539:Generated_Source\PSoC6/CapSense_Control.c **** cy_status CapSense_ProcessWidgetExt(uint32 widgetId, uint32 mode)
 540:Generated_Source\PSoC6/CapSense_Control.c **** {
 541:Generated_Source\PSoC6/CapSense_Control.c ****     uint32 snsCount;
 542:Generated_Source\PSoC6/CapSense_Control.c ****     cy_status result = CY_RET_BAD_PARAM;
 543:Generated_Source\PSoC6/CapSense_Control.c ****     CapSense_FLASH_WD_STRUCT const *ptrFlashWdgt;
 544:Generated_Source\PSoC6/CapSense_Control.c ****     CapSense_PTR_FILTER_VARIANT fltrHistV;
ARM GAS  C:\Users\Agentos\AppData\Local\Temp\ccHXniwf.s 			page 11


 545:Generated_Source\PSoC6/CapSense_Control.c ****     CapSense_RAM_SNS_STRUCT *ptrSnsTmp;
 546:Generated_Source\PSoC6/CapSense_Control.c **** 
 547:Generated_Source\PSoC6/CapSense_Control.c ****     #if (0u != CapSense_TOTAL_CSD_WIDGETS)
 548:Generated_Source\PSoC6/CapSense_Control.c ****         uint32 isProxWdgt;
 549:Generated_Source\PSoC6/CapSense_Control.c ****     #endif
 550:Generated_Source\PSoC6/CapSense_Control.c **** 
 551:Generated_Source\PSoC6/CapSense_Control.c ****     if (widgetId < CapSense_TOTAL_WIDGETS)
 552:Generated_Source\PSoC6/CapSense_Control.c ****     {
 553:Generated_Source\PSoC6/CapSense_Control.c ****         ptrFlashWdgt = &CapSense_dsFlash.wdgtArray[widgetId];
 554:Generated_Source\PSoC6/CapSense_Control.c ****         snsCount = CapSense_GET_SNS_CNT_BY_PTR(ptrFlashWdgt);
 555:Generated_Source\PSoC6/CapSense_Control.c ****         ptrSnsTmp = ptrFlashWdgt->ptr2SnsRam;
 556:Generated_Source\PSoC6/CapSense_Control.c ****         fltrHistV.ptr = ptrFlashWdgt->ptr2FltrHistory;
 557:Generated_Source\PSoC6/CapSense_Control.c **** 
 558:Generated_Source\PSoC6/CapSense_Control.c ****         switch(CapSense_GET_SENSE_METHOD(ptrFlashWdgt))
 559:Generated_Source\PSoC6/CapSense_Control.c ****         {
 560:Generated_Source\PSoC6/CapSense_Control.c ****         #if (0u != CapSense_TOTAL_CSD_WIDGETS)
 561:Generated_Source\PSoC6/CapSense_Control.c ****             case CapSense_SENSE_METHOD_CSD_E:
 562:Generated_Source\PSoC6/CapSense_Control.c ****             {
 563:Generated_Source\PSoC6/CapSense_Control.c ****                 /* Determine if widget is type of proximity.
 564:Generated_Source\PSoC6/CapSense_Control.c ****                  * The Proximity widgets use different filters and
 565:Generated_Source\PSoC6/CapSense_Control.c ****                  * therefore have different filter history object structure */
 566:Generated_Source\PSoC6/CapSense_Control.c ****                 isProxWdgt = (CapSense_GET_WIDGET_TYPE(ptrFlashWdgt) == CapSense_WD_PROXIMITY_E) ? 
 567:Generated_Source\PSoC6/CapSense_Control.c **** 
 568:Generated_Source\PSoC6/CapSense_Control.c ****                 /* Run the desired processing for the all CSD widget sensors */
 569:Generated_Source\PSoC6/CapSense_Control.c ****                 for (;snsCount-- > 0u;)
 570:Generated_Source\PSoC6/CapSense_Control.c ****                 {
 571:Generated_Source\PSoC6/CapSense_Control.c ****                     result = CapSense_DpProcessCsdSensorRawCountsExt(ptrFlashWdgt, ptrSnsTmp, fltrH
 572:Generated_Source\PSoC6/CapSense_Control.c **** 
 573:Generated_Source\PSoC6/CapSense_Control.c ****                     #if (CapSense_ENABLE == CapSense_TST_BSLN_DUPLICATION_EN)
 574:Generated_Source\PSoC6/CapSense_Control.c ****                         if (CY_RET_SUCCESS != result)
 575:Generated_Source\PSoC6/CapSense_Control.c ****                         {
 576:Generated_Source\PSoC6/CapSense_Control.c ****                             result = (result | CapSense_TST_LSBYTE) & snsCount;
 577:Generated_Source\PSoC6/CapSense_Control.c ****                         }
 578:Generated_Source\PSoC6/CapSense_Control.c ****                     #endif /* (CapSense_ENABLE == CapSense_TST_BSLN_DUPLICATION_EN) */
 579:Generated_Source\PSoC6/CapSense_Control.c **** 
 580:Generated_Source\PSoC6/CapSense_Control.c ****                     /* Move to the next sensor and filter history objects */
 581:Generated_Source\PSoC6/CapSense_Control.c ****                     ptrSnsTmp++;
 582:Generated_Source\PSoC6/CapSense_Control.c ****                     CapSense_INC_FLTR_OBJ_VARIANT(isProxWdgt, fltrHistV);
 583:Generated_Source\PSoC6/CapSense_Control.c ****                 }
 584:Generated_Source\PSoC6/CapSense_Control.c **** 
 585:Generated_Source\PSoC6/CapSense_Control.c ****                 if (0u != (mode & CapSense_PROCESS_STATUS))
 586:Generated_Source\PSoC6/CapSense_Control.c ****                 {
 587:Generated_Source\PSoC6/CapSense_Control.c ****                     CapSense_DpProcessCsdWidgetStatus(widgetId, ptrFlashWdgt);
 588:Generated_Source\PSoC6/CapSense_Control.c ****                 }
 589:Generated_Source\PSoC6/CapSense_Control.c ****                 break;
 590:Generated_Source\PSoC6/CapSense_Control.c ****             }
 591:Generated_Source\PSoC6/CapSense_Control.c ****         #endif /* #if (0u != CapSense_TOTAL_CSD_WIDGETS) */
 592:Generated_Source\PSoC6/CapSense_Control.c **** 
 593:Generated_Source\PSoC6/CapSense_Control.c ****         #if (0u != CapSense_TOTAL_CSX_WIDGETS)
 594:Generated_Source\PSoC6/CapSense_Control.c ****             case CapSense_SENSE_METHOD_CSX_E:
 595:Generated_Source\PSoC6/CapSense_Control.c **** 
 596:Generated_Source\PSoC6/CapSense_Control.c ****                 #if (0u != CapSense_CSX_MULTIPHASE_TX_EN)
 597:Generated_Source\PSoC6/CapSense_Control.c ****                     if ((0u != (mode & CapSense_PROCESS_DECONVOLUTION)) &&
 598:Generated_Source\PSoC6/CapSense_Control.c ****                         (0u != (ptrFlashWdgt->staticConfig & CapSense_MULTIPHASE_TX_MASK)))
 599:Generated_Source\PSoC6/CapSense_Control.c ****                     {
 600:Generated_Source\PSoC6/CapSense_Control.c ****                         CapSense_DpDeconvolution(ptrFlashWdgt);
 601:Generated_Source\PSoC6/CapSense_Control.c ****                     }
ARM GAS  C:\Users\Agentos\AppData\Local\Temp\ccHXniwf.s 			page 12


 602:Generated_Source\PSoC6/CapSense_Control.c ****                 #endif /* #if (0u != CapSense_CSX_MULTIPHASE_TX_EN) */
 603:Generated_Source\PSoC6/CapSense_Control.c **** 
 604:Generated_Source\PSoC6/CapSense_Control.c ****                 /* Run the desired processing for the all CSX widget sensors */
 605:Generated_Source\PSoC6/CapSense_Control.c ****                 for (;snsCount-- > 0u;)
 606:Generated_Source\PSoC6/CapSense_Control.c ****                 {
 607:Generated_Source\PSoC6/CapSense_Control.c ****                     result = CapSense_DpProcessCsxSensorRawCountsExt(ptrFlashWdgt, ptrSnsTmp, fltrH
 608:Generated_Source\PSoC6/CapSense_Control.c **** 
 609:Generated_Source\PSoC6/CapSense_Control.c ****                     #if (CapSense_ENABLE == CapSense_TST_BSLN_DUPLICATION_EN)
 610:Generated_Source\PSoC6/CapSense_Control.c ****                         if (CY_RET_SUCCESS != result)
 611:Generated_Source\PSoC6/CapSense_Control.c ****                         {
 612:Generated_Source\PSoC6/CapSense_Control.c ****                             result = (result | CapSense_TST_LSBYTE) & snsCount;
 613:Generated_Source\PSoC6/CapSense_Control.c ****                         }
 614:Generated_Source\PSoC6/CapSense_Control.c ****                     #endif /* (CapSense_ENABLE == CapSense_TST_BSLN_DUPLICATION_EN) */
 615:Generated_Source\PSoC6/CapSense_Control.c **** 
 616:Generated_Source\PSoC6/CapSense_Control.c ****                     /* Move to the next sensor and filter history objects */
 617:Generated_Source\PSoC6/CapSense_Control.c ****                     ptrSnsTmp++;
 618:Generated_Source\PSoC6/CapSense_Control.c ****                     CapSense_INC_REG_FLTR_OBJ(fltrHistV);
 619:Generated_Source\PSoC6/CapSense_Control.c ****                 }
 620:Generated_Source\PSoC6/CapSense_Control.c **** 
 621:Generated_Source\PSoC6/CapSense_Control.c ****                 if (0u != (mode & CapSense_PROCESS_STATUS))
 622:Generated_Source\PSoC6/CapSense_Control.c ****                 {
 623:Generated_Source\PSoC6/CapSense_Control.c ****                     CapSense_DpProcessCsxWidgetStatus(widgetId, ptrFlashWdgt);
 624:Generated_Source\PSoC6/CapSense_Control.c ****                 }
 625:Generated_Source\PSoC6/CapSense_Control.c ****                 break;
 626:Generated_Source\PSoC6/CapSense_Control.c ****         #endif /* #if (0u != CapSense_TOTAL_CSX_WIDGETS) */
 627:Generated_Source\PSoC6/CapSense_Control.c **** 
 628:Generated_Source\PSoC6/CapSense_Control.c ****         default:
 629:Generated_Source\PSoC6/CapSense_Control.c ****             CY_ASSERT(0 != 0);
 630:Generated_Source\PSoC6/CapSense_Control.c ****             break;
 631:Generated_Source\PSoC6/CapSense_Control.c ****         }
 632:Generated_Source\PSoC6/CapSense_Control.c **** 
 633:Generated_Source\PSoC6/CapSense_Control.c ****         #if (CapSense_ENABLE == CapSense_TST_BSLN_DUPLICATION_EN)
 634:Generated_Source\PSoC6/CapSense_Control.c ****             if (CY_RET_SUCCESS != result)
 635:Generated_Source\PSoC6/CapSense_Control.c ****             {
 636:Generated_Source\PSoC6/CapSense_Control.c ****                 CapSense_UpdateTestResultBaselineDuplication(widgetId, snsCount);
 637:Generated_Source\PSoC6/CapSense_Control.c ****                 result = CY_RET_BAD_DATA;
 638:Generated_Source\PSoC6/CapSense_Control.c ****             }
 639:Generated_Source\PSoC6/CapSense_Control.c ****         #endif /* (CapSense_ENABLE == CapSense_TST_BSLN_DUPLICATION_EN) */
 640:Generated_Source\PSoC6/CapSense_Control.c **** 
 641:Generated_Source\PSoC6/CapSense_Control.c ****     }
 642:Generated_Source\PSoC6/CapSense_Control.c ****     return result;
 643:Generated_Source\PSoC6/CapSense_Control.c **** }
 644:Generated_Source\PSoC6/CapSense_Control.c **** 
 645:Generated_Source\PSoC6/CapSense_Control.c **** /*******************************************************************************
 646:Generated_Source\PSoC6/CapSense_Control.c **** * Function Name: CapSense_ProcessSensorExt
 647:Generated_Source\PSoC6/CapSense_Control.c **** ****************************************************************************//**
 648:Generated_Source\PSoC6/CapSense_Control.c **** *
 649:Generated_Source\PSoC6/CapSense_Control.c **** * \brief
 650:Generated_Source\PSoC6/CapSense_Control.c **** *  Performs customized data processing on the selected widget's sensor.
 651:Generated_Source\PSoC6/CapSense_Control.c **** *
 652:Generated_Source\PSoC6/CapSense_Control.c **** * \details
 653:Generated_Source\PSoC6/CapSense_Control.c **** *  This function performs data processes for the specified sensor specified by
 654:Generated_Source\PSoC6/CapSense_Control.c **** *  the mode parameter. The execution order of the requested operations is from
 655:Generated_Source\PSoC6/CapSense_Control.c **** *  LSB to MSB of the mode parameter. For a different order, this
 656:Generated_Source\PSoC6/CapSense_Control.c **** *  function can be called multiple times with the required mode parameter.
 657:Generated_Source\PSoC6/CapSense_Control.c **** *
 658:Generated_Source\PSoC6/CapSense_Control.c **** *  This function can be used with any of the available scan functions. This
ARM GAS  C:\Users\Agentos\AppData\Local\Temp\ccHXniwf.s 			page 13


 659:Generated_Source\PSoC6/CapSense_Control.c **** *  function is called only after a specified sensor in the widget is
 660:Generated_Source\PSoC6/CapSense_Control.c **** *  scanned. Calling this function multiple times with the same mode without
 661:Generated_Source\PSoC6/CapSense_Control.c **** *  sensor scanning causes unexpected behavior. This function ignores the value
 662:Generated_Source\PSoC6/CapSense_Control.c **** *  of the wdgtEnable register.
 663:Generated_Source\PSoC6/CapSense_Control.c **** *
 664:Generated_Source\PSoC6/CapSense_Control.c **** *  The CapSense_PROCESS_CALC_NOISE and
 665:Generated_Source\PSoC6/CapSense_Control.c **** *  CapSense_PROCESS_THRESHOLDS flags are supported by the CSD sensing
 666:Generated_Source\PSoC6/CapSense_Control.c **** *  method only when Auto-tuning mode is enabled.
 667:Generated_Source\PSoC6/CapSense_Control.c **** *
 668:Generated_Source\PSoC6/CapSense_Control.c **** *  The pipeline scan method (i.e. during scanning of a sensor, processing
 669:Generated_Source\PSoC6/CapSense_Control.c **** *  of a previously scanned sensor is performed) can be implemented using this
 670:Generated_Source\PSoC6/CapSense_Control.c **** *  function and it may reduce the total scan/process time, increase the refresh
 671:Generated_Source\PSoC6/CapSense_Control.c **** *  rate and decrease the power consumption.
 672:Generated_Source\PSoC6/CapSense_Control.c **** *
 673:Generated_Source\PSoC6/CapSense_Control.c **** *  If the Self-test library is enabled, this function executes the baseline duplication
 674:Generated_Source\PSoC6/CapSense_Control.c **** *  test. Refer to CapSense_CheckBaselineDuplication() for details.
 675:Generated_Source\PSoC6/CapSense_Control.c **** *
 676:Generated_Source\PSoC6/CapSense_Control.c **** * \param widgetId
 677:Generated_Source\PSoC6/CapSense_Control.c **** *  Specifies the ID number of the widget to process one of its sensors.
 678:Generated_Source\PSoC6/CapSense_Control.c **** *  A macro for the widget ID can be found in the
 679:Generated_Source\PSoC6/CapSense_Control.c **** *  CapSense Configuration header file defined as
 680:Generated_Source\PSoC6/CapSense_Control.c **** *  CapSense_<WidgetName>_WDGT_ID.
 681:Generated_Source\PSoC6/CapSense_Control.c **** *
 682:Generated_Source\PSoC6/CapSense_Control.c **** * \param sensorId
 683:Generated_Source\PSoC6/CapSense_Control.c **** *  Specifies the ID number of the sensor within the widget to process it.
 684:Generated_Source\PSoC6/CapSense_Control.c **** *  A macro for the sensor ID within a specified widget can be found in the
 685:Generated_Source\PSoC6/CapSense_Control.c **** *  CapSense Configuration header file defined as
 686:Generated_Source\PSoC6/CapSense_Control.c **** *  CapSense_<WidgetName>_SNS<SensorNumber>_ID.
 687:Generated_Source\PSoC6/CapSense_Control.c **** *
 688:Generated_Source\PSoC6/CapSense_Control.c **** * \param mode
 689:Generated_Source\PSoC6/CapSense_Control.c **** *  Specifies the type of the sensor processing that needs to be executed for the
 690:Generated_Source\PSoC6/CapSense_Control.c **** *  specified sensor:
 691:Generated_Source\PSoC6/CapSense_Control.c **** *    1. Bits [31..5] - Reserved
 692:Generated_Source\PSoC6/CapSense_Control.c **** *    2. Bits [4..0] - CapSense_PROCESS_ALL - Executes all the tasks
 693:Generated_Source\PSoC6/CapSense_Control.c **** *    3. Bit [4] - CapSense_PROCESS_THRESHOLDS - Updates the thresholds (only
 694:Generated_Source\PSoC6/CapSense_Control.c **** *       in auto-tuning mode)
 695:Generated_Source\PSoC6/CapSense_Control.c **** *    4. Bit [3] - CapSense_PROCESS_CALC_NOISE - Calculates the noise (only
 696:Generated_Source\PSoC6/CapSense_Control.c **** *       in auto-tuning mode)
 697:Generated_Source\PSoC6/CapSense_Control.c **** *    5. Bit [2] - CapSense_PROCESS_DIFFCOUNTS - Updates the difference count
 698:Generated_Source\PSoC6/CapSense_Control.c **** *    6. Bit [1] - CapSense_PROCESS_BASELINE - Updates the baseline
 699:Generated_Source\PSoC6/CapSense_Control.c **** *    7. Bit [0] - CapSense_PROCESS_FILTER - Runs the firmware filters
 700:Generated_Source\PSoC6/CapSense_Control.c **** *
 701:Generated_Source\PSoC6/CapSense_Control.c **** * \return
 702:Generated_Source\PSoC6/CapSense_Control.c **** *  Returns the status of the sensor process operation:
 703:Generated_Source\PSoC6/CapSense_Control.c **** *  - CY_RET_SUCCESS - The processing is successfully performed.
 704:Generated_Source\PSoC6/CapSense_Control.c **** *  - CY_RET_BAD_PARAM - The input parameter is invalid.
 705:Generated_Source\PSoC6/CapSense_Control.c **** *  - CY_RET_BAD_DATA - The processing failed.
 706:Generated_Source\PSoC6/CapSense_Control.c **** *
 707:Generated_Source\PSoC6/CapSense_Control.c **** *******************************************************************************/
 708:Generated_Source\PSoC6/CapSense_Control.c **** cy_status CapSense_ProcessSensorExt(uint32 widgetId, uint32 sensorId, uint32 mode)
 709:Generated_Source\PSoC6/CapSense_Control.c **** {
 710:Generated_Source\PSoC6/CapSense_Control.c ****     cy_status result = CY_RET_BAD_PARAM;
 711:Generated_Source\PSoC6/CapSense_Control.c ****     CapSense_FLASH_WD_STRUCT const *ptrFlashWdgt;
 712:Generated_Source\PSoC6/CapSense_Control.c ****     CapSense_PTR_FILTER_VARIANT fltrHistV;
 713:Generated_Source\PSoC6/CapSense_Control.c ****     CapSense_RAM_SNS_STRUCT *ptrSnsTmp;
 714:Generated_Source\PSoC6/CapSense_Control.c **** 
 715:Generated_Source\PSoC6/CapSense_Control.c ****     if ((widgetId < CapSense_TOTAL_WIDGETS) && (sensorId < CapSense_GET_SENSOR_COUNT(widgetId)))
ARM GAS  C:\Users\Agentos\AppData\Local\Temp\ccHXniwf.s 			page 14


 716:Generated_Source\PSoC6/CapSense_Control.c ****     {
 717:Generated_Source\PSoC6/CapSense_Control.c ****         result = CY_RET_SUCCESS;
 718:Generated_Source\PSoC6/CapSense_Control.c **** 
 719:Generated_Source\PSoC6/CapSense_Control.c ****         ptrFlashWdgt = &CapSense_dsFlash.wdgtArray[widgetId];
 720:Generated_Source\PSoC6/CapSense_Control.c ****         fltrHistV.ptr = ptrFlashWdgt->ptr2FltrHistory;
 721:Generated_Source\PSoC6/CapSense_Control.c ****         ptrSnsTmp = ptrFlashWdgt->ptr2SnsRam;
 722:Generated_Source\PSoC6/CapSense_Control.c ****         ptrSnsTmp += sensorId;
 723:Generated_Source\PSoC6/CapSense_Control.c **** 
 724:Generated_Source\PSoC6/CapSense_Control.c ****         switch(CapSense_GET_SENSE_METHOD(ptrFlashWdgt))
 725:Generated_Source\PSoC6/CapSense_Control.c ****         {
 726:Generated_Source\PSoC6/CapSense_Control.c ****         #if (0u != CapSense_TOTAL_CSD_WIDGETS)
 727:Generated_Source\PSoC6/CapSense_Control.c ****             case CapSense_SENSE_METHOD_CSD_E:
 728:Generated_Source\PSoC6/CapSense_Control.c ****                 if (CapSense_WD_PROXIMITY_E == (CapSense_WD_TYPE_ENUM)ptrFlashWdgt->wdgtType)
 729:Generated_Source\PSoC6/CapSense_Control.c ****                 {
 730:Generated_Source\PSoC6/CapSense_Control.c ****                     #if (0u != CapSense_PROX_RC_ALP_FILTER_EN)
 731:Generated_Source\PSoC6/CapSense_Control.c ****                         fltrHistV.ptr = &fltrHistV.ptrAlp[sensorId];
 732:Generated_Source\PSoC6/CapSense_Control.c ****                     #elif (0u != CapSense_PROX_RC_FILTER_EN)
 733:Generated_Source\PSoC6/CapSense_Control.c ****                         fltrHistV.ptr = &fltrHistV.ptrProx[sensorId];
 734:Generated_Source\PSoC6/CapSense_Control.c ****                     #endif
 735:Generated_Source\PSoC6/CapSense_Control.c ****                 }
 736:Generated_Source\PSoC6/CapSense_Control.c ****                 else
 737:Generated_Source\PSoC6/CapSense_Control.c ****                 {
 738:Generated_Source\PSoC6/CapSense_Control.c ****                     #if (0u != CapSense_REGULAR_RC_ALP_FILTER_EN)
 739:Generated_Source\PSoC6/CapSense_Control.c ****                         fltrHistV.ptr = &fltrHistV.ptrAlp[sensorId];
 740:Generated_Source\PSoC6/CapSense_Control.c ****                     #elif (0u != CapSense_REGULAR_RC_FILTER_EN)
 741:Generated_Source\PSoC6/CapSense_Control.c ****                         fltrHistV.ptr = &fltrHistV.ptrRegular[sensorId];
 742:Generated_Source\PSoC6/CapSense_Control.c ****                     #endif
 743:Generated_Source\PSoC6/CapSense_Control.c ****                 }
 744:Generated_Source\PSoC6/CapSense_Control.c **** 
 745:Generated_Source\PSoC6/CapSense_Control.c ****                 result = CapSense_DpProcessCsdSensorRawCountsExt(ptrFlashWdgt, ptrSnsTmp, fltrHistV
 746:Generated_Source\PSoC6/CapSense_Control.c ****                 break;
 747:Generated_Source\PSoC6/CapSense_Control.c ****         #endif /* #if (0u != CapSense_TOTAL_CSD_WIDGETS) */
 748:Generated_Source\PSoC6/CapSense_Control.c **** 
 749:Generated_Source\PSoC6/CapSense_Control.c ****         #if (0u != CapSense_TOTAL_CSX_WIDGETS)
 750:Generated_Source\PSoC6/CapSense_Control.c ****             case CapSense_SENSE_METHOD_CSX_E:
 751:Generated_Source\PSoC6/CapSense_Control.c ****                 #if (0u != CapSense_REGULAR_RC_ALP_FILTER_EN)
 752:Generated_Source\PSoC6/CapSense_Control.c ****                     fltrHistV.ptr = &fltrHistV.ptrAlp[sensorId];
 753:Generated_Source\PSoC6/CapSense_Control.c ****                 #elif (0u != CapSense_REGULAR_RC_FILTER_EN)
 754:Generated_Source\PSoC6/CapSense_Control.c ****                     fltrHistV.ptr = &fltrHistV.ptrRegular[sensorId];
 755:Generated_Source\PSoC6/CapSense_Control.c ****                 #endif
 756:Generated_Source\PSoC6/CapSense_Control.c **** 
 757:Generated_Source\PSoC6/CapSense_Control.c ****                 result = CapSense_DpProcessCsxSensorRawCountsExt(ptrFlashWdgt, ptrSnsTmp, fltrHistV
 758:Generated_Source\PSoC6/CapSense_Control.c ****                 break;
 759:Generated_Source\PSoC6/CapSense_Control.c ****         #endif /* #if (0u != CapSense_TOTAL_CSX_WIDGETS) */
 760:Generated_Source\PSoC6/CapSense_Control.c **** 
 761:Generated_Source\PSoC6/CapSense_Control.c ****         default:
 762:Generated_Source\PSoC6/CapSense_Control.c ****             CY_ASSERT(0 != 0);
 763:Generated_Source\PSoC6/CapSense_Control.c ****             break;
 764:Generated_Source\PSoC6/CapSense_Control.c ****         }
 765:Generated_Source\PSoC6/CapSense_Control.c **** 
 766:Generated_Source\PSoC6/CapSense_Control.c ****         #if (CapSense_ENABLE == CapSense_TST_BSLN_DUPLICATION_EN)
 767:Generated_Source\PSoC6/CapSense_Control.c ****             if (CY_RET_SUCCESS != result)
 768:Generated_Source\PSoC6/CapSense_Control.c ****             {
 769:Generated_Source\PSoC6/CapSense_Control.c ****                 CapSense_UpdateTestResultBaselineDuplication(widgetId, sensorId);
 770:Generated_Source\PSoC6/CapSense_Control.c ****                 result = CY_RET_BAD_DATA;
 771:Generated_Source\PSoC6/CapSense_Control.c ****             }
 772:Generated_Source\PSoC6/CapSense_Control.c ****         #endif /* (CapSense_ENABLE == CapSense_TST_BSLN_DUPLICATION_EN) */
ARM GAS  C:\Users\Agentos\AppData\Local\Temp\ccHXniwf.s 			page 15


 773:Generated_Source\PSoC6/CapSense_Control.c **** 
 774:Generated_Source\PSoC6/CapSense_Control.c ****     }
 775:Generated_Source\PSoC6/CapSense_Control.c ****     return result;
 776:Generated_Source\PSoC6/CapSense_Control.c **** }
 777:Generated_Source\PSoC6/CapSense_Control.c **** 
 778:Generated_Source\PSoC6/CapSense_Control.c **** /*******************************************************************************
 779:Generated_Source\PSoC6/CapSense_Control.c **** * Function Name: CapSense_Sleep
 780:Generated_Source\PSoC6/CapSense_Control.c **** ****************************************************************************//**
 781:Generated_Source\PSoC6/CapSense_Control.c **** *
 782:Generated_Source\PSoC6/CapSense_Control.c **** * \brief
 783:Generated_Source\PSoC6/CapSense_Control.c **** *  Prepares the Component for deep sleep.
 784:Generated_Source\PSoC6/CapSense_Control.c **** *
 785:Generated_Source\PSoC6/CapSense_Control.c **** * \details
 786:Generated_Source\PSoC6/CapSense_Control.c **** *  Currently this function is empty and exists as a place for future updates,
 787:Generated_Source\PSoC6/CapSense_Control.c **** *  this function will be used to prepare the Component to enter deep sleep.
 788:Generated_Source\PSoC6/CapSense_Control.c **** *
 789:Generated_Source\PSoC6/CapSense_Control.c **** *******************************************************************************/
 790:Generated_Source\PSoC6/CapSense_Control.c **** void CapSense_Sleep(void)
 791:Generated_Source\PSoC6/CapSense_Control.c **** {
 792:Generated_Source\PSoC6/CapSense_Control.c **** }
 793:Generated_Source\PSoC6/CapSense_Control.c **** 
 794:Generated_Source\PSoC6/CapSense_Control.c **** 
 795:Generated_Source\PSoC6/CapSense_Control.c **** /*******************************************************************************
 796:Generated_Source\PSoC6/CapSense_Control.c **** * Function Name: CapSense_Wakeup
 797:Generated_Source\PSoC6/CapSense_Control.c **** ****************************************************************************//**
 798:Generated_Source\PSoC6/CapSense_Control.c **** *
 799:Generated_Source\PSoC6/CapSense_Control.c **** * \brief
 800:Generated_Source\PSoC6/CapSense_Control.c **** *  Resumes the Component after sleep.
 801:Generated_Source\PSoC6/CapSense_Control.c **** *
 802:Generated_Source\PSoC6/CapSense_Control.c **** * \details
 803:Generated_Source\PSoC6/CapSense_Control.c **** *  Resumes the Component after sleep. This function shall be used to resume
 804:Generated_Source\PSoC6/CapSense_Control.c **** *  the Component after exiting deep sleep.
 805:Generated_Source\PSoC6/CapSense_Control.c **** *
 806:Generated_Source\PSoC6/CapSense_Control.c **** *******************************************************************************/
 807:Generated_Source\PSoC6/CapSense_Control.c **** void CapSense_Wakeup(void)
 808:Generated_Source\PSoC6/CapSense_Control.c **** {
 809:Generated_Source\PSoC6/CapSense_Control.c ****     #if(CapSense_BLOCK_ANALOG_WAKEUP_DELAY_US > 0uL)
 810:Generated_Source\PSoC6/CapSense_Control.c ****         Cy_SysLib_DelayUs(CapSense_BLOCK_ANALOG_WAKEUP_DELAY_US);
 811:Generated_Source\PSoC6/CapSense_Control.c ****     #endif /* (CapSense_BLOCK_ANALOG_WAKEUP_DELAY_US > 0uL) */
 812:Generated_Source\PSoC6/CapSense_Control.c **** }
 813:Generated_Source\PSoC6/CapSense_Control.c **** 
 814:Generated_Source\PSoC6/CapSense_Control.c **** 
 815:Generated_Source\PSoC6/CapSense_Control.c **** /*******************************************************************************
 816:Generated_Source\PSoC6/CapSense_Control.c **** * Function Name: CapSense_DeepSleepCallback
 817:Generated_Source\PSoC6/CapSense_Control.c **** ****************************************************************************//**
 818:Generated_Source\PSoC6/CapSense_Control.c **** *
 819:Generated_Source\PSoC6/CapSense_Control.c **** * \brief
 820:Generated_Source\PSoC6/CapSense_Control.c **** *  Handles Active to DeepSleep power mode transition for the CapSense
 821:Generated_Source\PSoC6/CapSense_Control.c **** *  Component.
 822:Generated_Source\PSoC6/CapSense_Control.c **** *
 823:Generated_Source\PSoC6/CapSense_Control.c **** * \details
 824:Generated_Source\PSoC6/CapSense_Control.c **** *  This function handles Active to DeepSleep power mode transition
 825:Generated_Source\PSoC6/CapSense_Control.c **** *  for the CapSense Component.
 826:Generated_Source\PSoC6/CapSense_Control.c **** *  Calling this function directly by application layer is not recommended.
 827:Generated_Source\PSoC6/CapSense_Control.c **** *  Instead, Cy_SysPm_DeepSleep() should be used for the Active to DeepSleep
 828:Generated_Source\PSoC6/CapSense_Control.c **** *  power mode transition of the device.
 829:Generated_Source\PSoC6/CapSense_Control.c **** *
ARM GAS  C:\Users\Agentos\AppData\Local\Temp\ccHXniwf.s 			page 16


 830:Generated_Source\PSoC6/CapSense_Control.c **** *  For proper operation of the CapSense Component during the Active to
 831:Generated_Source\PSoC6/CapSense_Control.c **** *  DeepSleep mode transition, a callback to this API should be registered
 832:Generated_Source\PSoC6/CapSense_Control.c **** *  using the Cy_SysPm_RegisterCallback() function with CY_SYSPM_DEEPSLEEP
 833:Generated_Source\PSoC6/CapSense_Control.c **** *  type. Once the callback is registered, this function is called by the
 834:Generated_Source\PSoC6/CapSense_Control.c **** *  Cy_SysPm_DeepSleep() function to prepare the Component to the device
 835:Generated_Source\PSoC6/CapSense_Control.c **** *  power mode transition.
 836:Generated_Source\PSoC6/CapSense_Control.c **** *
 837:Generated_Source\PSoC6/CapSense_Control.c **** *  When this function is called with CY_SYSPM_CHECK_READY as input, this
 838:Generated_Source\PSoC6/CapSense_Control.c **** *  function returns CY_SYSPM_SUCCESS if no scanning is in progress, otherwise
 839:Generated_Source\PSoC6/CapSense_Control.c **** *  CY_SYSPM_FAIL is returned. If CY_SYSPM_FAIL status is returned, a device
 840:Generated_Source\PSoC6/CapSense_Control.c **** *  cannot change the power mode without completing the current scan as
 841:Generated_Source\PSoC6/CapSense_Control.c **** *  a transition to DeepSleep during the scan can disrupt the Component
 842:Generated_Source\PSoC6/CapSense_Control.c **** *  operation.
 843:Generated_Source\PSoC6/CapSense_Control.c **** *
 844:Generated_Source\PSoC6/CapSense_Control.c **** * \param callbackParams
 845:Generated_Source\PSoC6/CapSense_Control.c **** *  Refer to the description of the cy_stc_syspm_callback_params_t type in the
 846:Generated_Source\PSoC6/CapSense_Control.c **** *  Peripheral Driver Library documentation.
 847:Generated_Source\PSoC6/CapSense_Control.c **** *
 848:Generated_Source\PSoC6/CapSense_Control.c **** * \return
 849:Generated_Source\PSoC6/CapSense_Control.c **** *  Returns the status of the operation requested by the mode parameter:
 850:Generated_Source\PSoC6/CapSense_Control.c **** *  - CY_SYSPM_SUCCESS  - DeepSleep power mode can be entered.
 851:Generated_Source\PSoC6/CapSense_Control.c **** *  - CY_SYSPM_FAIL     - DeepSleep power mode cannot be entered.
 852:Generated_Source\PSoC6/CapSense_Control.c **** *
 853:Generated_Source\PSoC6/CapSense_Control.c **** *******************************************************************************/
 854:Generated_Source\PSoC6/CapSense_Control.c **** cy_en_syspm_status_t CapSense_DeepSleepCallback(cy_stc_syspm_callback_params_t *callbackParams)
 855:Generated_Source\PSoC6/CapSense_Control.c **** {
 856:Generated_Source\PSoC6/CapSense_Control.c ****     return(CapSense_SwitchPowerModeCallback(callbackParams));
 857:Generated_Source\PSoC6/CapSense_Control.c **** }
 858:Generated_Source\PSoC6/CapSense_Control.c **** 
 859:Generated_Source\PSoC6/CapSense_Control.c **** 
 860:Generated_Source\PSoC6/CapSense_Control.c **** /*******************************************************************************
 861:Generated_Source\PSoC6/CapSense_Control.c **** * Function Name: CapSense_EnterLowPowerCallback
 862:Generated_Source\PSoC6/CapSense_Control.c **** ****************************************************************************//**
 863:Generated_Source\PSoC6/CapSense_Control.c **** *
 864:Generated_Source\PSoC6/CapSense_Control.c **** * \brief
 865:Generated_Source\PSoC6/CapSense_Control.c **** *  Handles Active to Low Power Active (LPActive) power mode transition for
 866:Generated_Source\PSoC6/CapSense_Control.c **** *  the CapSense Component.
 867:Generated_Source\PSoC6/CapSense_Control.c **** *
 868:Generated_Source\PSoC6/CapSense_Control.c **** * \details
 869:Generated_Source\PSoC6/CapSense_Control.c **** *  This function handles the Active to LPActive power mode transition for
 870:Generated_Source\PSoC6/CapSense_Control.c **** *  the CapSense Component.
 871:Generated_Source\PSoC6/CapSense_Control.c **** *  Calling this function directly by application layer is not recommended.
 872:Generated_Source\PSoC6/CapSense_Control.c **** *  Instead, Cy_SysPm_EnterLpMode() should be used for the Active to LPActive
 873:Generated_Source\PSoC6/CapSense_Control.c **** *  power mode transition of the device.
 874:Generated_Source\PSoC6/CapSense_Control.c **** *
 875:Generated_Source\PSoC6/CapSense_Control.c **** *  For proper operation of the CapSense Component during the Active to
 876:Generated_Source\PSoC6/CapSense_Control.c **** *  LPActive mode transition, a callback to this function should be registered
 877:Generated_Source\PSoC6/CapSense_Control.c **** *  using the Cy_SysPm_RegisterCallback() function with CY_SYSPM_ENTER_LP_MODE
 878:Generated_Source\PSoC6/CapSense_Control.c **** *  type. Once the callback is registered, this function is called by the
 879:Generated_Source\PSoC6/CapSense_Control.c **** *  Cy_SysPm_EnterLpMode() function to prepare the Component to the device
 880:Generated_Source\PSoC6/CapSense_Control.c **** *  power mode transition.
 881:Generated_Source\PSoC6/CapSense_Control.c **** *
 882:Generated_Source\PSoC6/CapSense_Control.c **** *  When this function is called with CY_SYSPM_CHECK_READY as input, this
 883:Generated_Source\PSoC6/CapSense_Control.c **** *  function returns CY_SYSPM_SUCCESS if no scanning is in progress, otherwise
 884:Generated_Source\PSoC6/CapSense_Control.c **** *  CY_SYSPM_FAIL is returned. If CY_SYSPM_FAIL status is returned, a device
 885:Generated_Source\PSoC6/CapSense_Control.c **** *  cannot change the power mode without completing the current scan as
 886:Generated_Source\PSoC6/CapSense_Control.c **** *  a transition to LPActive during the scan can disrupt the Component
ARM GAS  C:\Users\Agentos\AppData\Local\Temp\ccHXniwf.s 			page 17


 887:Generated_Source\PSoC6/CapSense_Control.c **** *  operation.
 888:Generated_Source\PSoC6/CapSense_Control.c **** *
 889:Generated_Source\PSoC6/CapSense_Control.c **** * \param callbackParams
 890:Generated_Source\PSoC6/CapSense_Control.c **** *  Refer to the description of the cy_stc_syspm_callback_params_t type in the
 891:Generated_Source\PSoC6/CapSense_Control.c **** *  Peripheral Driver Library documentation.
 892:Generated_Source\PSoC6/CapSense_Control.c **** *
 893:Generated_Source\PSoC6/CapSense_Control.c **** * \return
 894:Generated_Source\PSoC6/CapSense_Control.c **** *  Returns the status of the operation requested by the mode parameter:
 895:Generated_Source\PSoC6/CapSense_Control.c **** *  - CY_SYSPM_SUCCESS  - LPActive power mode can be entered.
 896:Generated_Source\PSoC6/CapSense_Control.c **** *  - CY_SYSPM_FAIL     - LPActive power mode cannot be entered.
 897:Generated_Source\PSoC6/CapSense_Control.c **** *
 898:Generated_Source\PSoC6/CapSense_Control.c **** *******************************************************************************/
 899:Generated_Source\PSoC6/CapSense_Control.c **** cy_en_syspm_status_t CapSense_EnterLowPowerCallback(cy_stc_syspm_callback_params_t *callbackParams)
 900:Generated_Source\PSoC6/CapSense_Control.c **** {
 901:Generated_Source\PSoC6/CapSense_Control.c ****     return(CapSense_SwitchPowerModeCallback(callbackParams));
 902:Generated_Source\PSoC6/CapSense_Control.c **** }
 903:Generated_Source\PSoC6/CapSense_Control.c **** 
 904:Generated_Source\PSoC6/CapSense_Control.c **** 
 905:Generated_Source\PSoC6/CapSense_Control.c **** /*******************************************************************************
 906:Generated_Source\PSoC6/CapSense_Control.c **** * Function Name: CapSense_ExitLowPowerCallback
 907:Generated_Source\PSoC6/CapSense_Control.c **** ****************************************************************************//**
 908:Generated_Source\PSoC6/CapSense_Control.c **** *
 909:Generated_Source\PSoC6/CapSense_Control.c **** * \brief
 910:Generated_Source\PSoC6/CapSense_Control.c **** *  Handles Low Power Active (LPActive) to Active power mode transition for
 911:Generated_Source\PSoC6/CapSense_Control.c **** *  the CapSense Component.
 912:Generated_Source\PSoC6/CapSense_Control.c **** *
 913:Generated_Source\PSoC6/CapSense_Control.c **** * \details
 914:Generated_Source\PSoC6/CapSense_Control.c **** *  This function handles LPActive to Active power mode transition for
 915:Generated_Source\PSoC6/CapSense_Control.c **** *  the CapSense Component.
 916:Generated_Source\PSoC6/CapSense_Control.c **** *  Calling this function directly by application layer is not recommended.
 917:Generated_Source\PSoC6/CapSense_Control.c **** *  Instead, Cy_SysPm_ExitLpMode() should be used for the LPActive to Active
 918:Generated_Source\PSoC6/CapSense_Control.c **** *  power mode transition of the device.
 919:Generated_Source\PSoC6/CapSense_Control.c **** *
 920:Generated_Source\PSoC6/CapSense_Control.c **** *  For proper operation of the CapSense Component during the LPActive to
 921:Generated_Source\PSoC6/CapSense_Control.c **** *  Active mode transition, a callback to this function should be registered
 922:Generated_Source\PSoC6/CapSense_Control.c **** *  using Cy_SysPm_RegisterCallback() function with CY_SYSPM_EXIT_LP_MODE
 923:Generated_Source\PSoC6/CapSense_Control.c **** *  type. Once the callback is registered, this function is called by the
 924:Generated_Source\PSoC6/CapSense_Control.c **** *  Cy_SysPm_ExitLpMode() function to prepare the Component to the device
 925:Generated_Source\PSoC6/CapSense_Control.c **** *  power mode transition.
 926:Generated_Source\PSoC6/CapSense_Control.c **** *
 927:Generated_Source\PSoC6/CapSense_Control.c **** *  When this function is called with CY_SYSPM_CHECK_READY as input, this
 928:Generated_Source\PSoC6/CapSense_Control.c **** *  function returns CY_SYSPM_SUCCESS if no scanning is in progress, otherwise
 929:Generated_Source\PSoC6/CapSense_Control.c **** *  CY_SYSPM_FAIL is returned. If CY_SYSPM_FAIL status is returned, a device
 930:Generated_Source\PSoC6/CapSense_Control.c **** *  cannot change the power mode without completing the current scan as
 931:Generated_Source\PSoC6/CapSense_Control.c **** *  a transition to Active during the scan can disrupt the Component
 932:Generated_Source\PSoC6/CapSense_Control.c **** *  operation.
 933:Generated_Source\PSoC6/CapSense_Control.c **** 
 934:Generated_Source\PSoC6/CapSense_Control.c **** * \param callbackParams
 935:Generated_Source\PSoC6/CapSense_Control.c **** *  Refer to the description of the cy_stc_syspm_callback_params_t type in the
 936:Generated_Source\PSoC6/CapSense_Control.c **** *  Peripheral Driver Library documentation.
 937:Generated_Source\PSoC6/CapSense_Control.c **** *
 938:Generated_Source\PSoC6/CapSense_Control.c **** * \return
 939:Generated_Source\PSoC6/CapSense_Control.c **** *  Returns the status of the operation requested by the mode parameter:
 940:Generated_Source\PSoC6/CapSense_Control.c **** *  - CY_SYSPM_SUCCESS  - Active power mode can be entered.
 941:Generated_Source\PSoC6/CapSense_Control.c **** *  - CY_SYSPM_FAIL     - Active power mode cannot be entered.
 942:Generated_Source\PSoC6/CapSense_Control.c **** *
 943:Generated_Source\PSoC6/CapSense_Control.c **** *******************************************************************************/
ARM GAS  C:\Users\Agentos\AppData\Local\Temp\ccHXniwf.s 			page 18


 944:Generated_Source\PSoC6/CapSense_Control.c **** cy_en_syspm_status_t CapSense_ExitLowPowerCallback(cy_stc_syspm_callback_params_t *callbackParams)
 945:Generated_Source\PSoC6/CapSense_Control.c **** {
 946:Generated_Source\PSoC6/CapSense_Control.c ****     return(CapSense_SwitchPowerModeCallback(callbackParams));
 947:Generated_Source\PSoC6/CapSense_Control.c **** }
 948:Generated_Source\PSoC6/CapSense_Control.c **** 
 949:Generated_Source\PSoC6/CapSense_Control.c **** 
 950:Generated_Source\PSoC6/CapSense_Control.c **** /*******************************************************************************
 951:Generated_Source\PSoC6/CapSense_Control.c **** * Function Name: CapSense_SwitchPowerModeCallback
 952:Generated_Source\PSoC6/CapSense_Control.c **** ****************************************************************************//**
 953:Generated_Source\PSoC6/CapSense_Control.c **** *
 954:Generated_Source\PSoC6/CapSense_Control.c **** * \brief
 955:Generated_Source\PSoC6/CapSense_Control.c **** *  Handles the switching power mode for the CapSense Component.
 956:Generated_Source\PSoC6/CapSense_Control.c **** *
 957:Generated_Source\PSoC6/CapSense_Control.c **** * \details
 958:Generated_Source\PSoC6/CapSense_Control.c **** *  This function handles swithing of system power mode.
 959:Generated_Source\PSoC6/CapSense_Control.c **** *  When this function is called with the mode parameter set to CY_SYSPM_CHECK_READY,
 960:Generated_Source\PSoC6/CapSense_Control.c **** *  the function returns CY_SYSPM_SUCCESS if no scanning is in progress, otherwise
 961:Generated_Source\PSoC6/CapSense_Control.c **** *  CY_SYSPM_FAIL is returned that means that the device cannot switch the power mode
 962:Generated_Source\PSoC6/CapSense_Control.c **** *  without finishing the current scan that is in progress (switching power mode
 963:Generated_Source\PSoC6/CapSense_Control.c **** *  during the scan can disrupt a sensor scan result and produce an unexpected
 964:Generated_Source\PSoC6/CapSense_Control.c **** *  behavior).
 965:Generated_Source\PSoC6/CapSense_Control.c **** *
 966:Generated_Source\PSoC6/CapSense_Control.c **** * \param callbackParams
 967:Generated_Source\PSoC6/CapSense_Control.c **** *  Refer to the description of the cy_stc_syspm_callback_params_t type.
 968:Generated_Source\PSoC6/CapSense_Control.c **** *
 969:Generated_Source\PSoC6/CapSense_Control.c **** * \return
 970:Generated_Source\PSoC6/CapSense_Control.c **** *  Returns the status of the operation requeted by mode parameter:
 971:Generated_Source\PSoC6/CapSense_Control.c **** *  - CY_SYSPM_SUCCESS  - Switching power mode can be done
 972:Generated_Source\PSoC6/CapSense_Control.c **** *  - CY_SYSPM_FAIL     - Switching power mode cannot be done.
 973:Generated_Source\PSoC6/CapSense_Control.c **** *
 974:Generated_Source\PSoC6/CapSense_Control.c **** *******************************************************************************/
 975:Generated_Source\PSoC6/CapSense_Control.c **** static cy_en_syspm_status_t CapSense_SwitchPowerModeCallback(cy_stc_syspm_callback_params_t *callba
 976:Generated_Source\PSoC6/CapSense_Control.c **** {
  27              		.loc 1 976 0
  28              		.cfi_startproc
  29              		@ args = 0, pretend = 0, frame = 0
  30              		@ frame_needed = 0, uses_anonymous_args = 0
  31              	.LVL0:
  32 0000 10B5     		push	{r4, lr}
  33              		.cfi_def_cfa_offset 8
  34              		.cfi_offset 4, -8
  35              		.cfi_offset 14, -4
  36              	.LVL1:
 977:Generated_Source\PSoC6/CapSense_Control.c ****     cy_en_syspm_status_t retVal = CY_SYSPM_SUCCESS;
 978:Generated_Source\PSoC6/CapSense_Control.c **** 
 979:Generated_Source\PSoC6/CapSense_Control.c ****     #if (0u != CapSense_ADC_EN)
 980:Generated_Source\PSoC6/CapSense_Control.c ****         uint8 temp;
 981:Generated_Source\PSoC6/CapSense_Control.c ****     #endif /* (0u != CapSense_ADC_EN) */
 982:Generated_Source\PSoC6/CapSense_Control.c **** 
 983:Generated_Source\PSoC6/CapSense_Control.c ****     switch(callbackParams->mode)
  37              		.loc 1 983 0
  38 0002 0378     		ldrb	r3, [r0]
  39 0004 012B     		cmp	r3, #1
  40 0006 04D1     		bne	.L6
 984:Generated_Source\PSoC6/CapSense_Control.c ****     {
 985:Generated_Source\PSoC6/CapSense_Control.c ****     case (CY_SYSPM_CHECK_READY):
 986:Generated_Source\PSoC6/CapSense_Control.c ****         if (CapSense_NOT_BUSY != CapSense_IsBusy())
ARM GAS  C:\Users\Agentos\AppData\Local\Temp\ccHXniwf.s 			page 19


  41              		.loc 1 986 0
  42 0008 FFF7FEFF 		bl	CapSense_IsBusy
  43              	.LVL2:
  44 000c 0028     		cmp	r0, #0
  45 000e 02D1     		bne	.L5
  46 0010 02E0     		b	.L2
  47              	.LVL3:
  48              	.L6:
 977:Generated_Source\PSoC6/CapSense_Control.c ****     cy_en_syspm_status_t retVal = CY_SYSPM_SUCCESS;
  49              		.loc 1 977 0
  50 0012 0020     		movs	r0, #0
  51              	.LVL4:
  52 0014 00E0     		b	.L2
  53              	.L5:
 987:Generated_Source\PSoC6/CapSense_Control.c ****         {
 988:Generated_Source\PSoC6/CapSense_Control.c ****             /* Scanning in progress */
 989:Generated_Source\PSoC6/CapSense_Control.c ****             retVal = CY_SYSPM_FAIL;
  54              		.loc 1 989 0
  55 0016 0148     		ldr	r0, .L7
  56              	.L2:
  57              	.LVL5:
 990:Generated_Source\PSoC6/CapSense_Control.c ****         }
 991:Generated_Source\PSoC6/CapSense_Control.c ****         #if (0u != CapSense_ADC_EN)
 992:Generated_Source\PSoC6/CapSense_Control.c ****             temp = CapSense_AdcIsBusy();
 993:Generated_Source\PSoC6/CapSense_Control.c ****             if ((CapSense_AdcSTATUS_IDLE != temp) &&
 994:Generated_Source\PSoC6/CapSense_Control.c ****                 (CapSense_AdcSTATUS_OVERFLOW != temp))
 995:Generated_Source\PSoC6/CapSense_Control.c ****             {
 996:Generated_Source\PSoC6/CapSense_Control.c ****                 /* Scanning in progress */
 997:Generated_Source\PSoC6/CapSense_Control.c ****                 retVal = CY_SYSPM_FAIL;
 998:Generated_Source\PSoC6/CapSense_Control.c ****             }
 999:Generated_Source\PSoC6/CapSense_Control.c ****         #endif /* (0u != CapSense_ADC_EN) */
1000:Generated_Source\PSoC6/CapSense_Control.c ****         break;
1001:Generated_Source\PSoC6/CapSense_Control.c **** 
1002:Generated_Source\PSoC6/CapSense_Control.c ****     default:
1003:Generated_Source\PSoC6/CapSense_Control.c ****         break;
1004:Generated_Source\PSoC6/CapSense_Control.c ****     }
1005:Generated_Source\PSoC6/CapSense_Control.c **** 
1006:Generated_Source\PSoC6/CapSense_Control.c ****     return(retVal);
1007:Generated_Source\PSoC6/CapSense_Control.c **** }
  58              		.loc 1 1007 0
  59              		@ sp needed
  60 0018 10BD     		pop	{r4, pc}
  61              	.L8:
  62 001a C046     		.align	2
  63              	.L7:
  64 001c FF004200 		.word	4325631
  65              		.cfi_endproc
  66              	.LFE179:
  67              		.size	CapSense_SwitchPowerModeCallback, .-CapSense_SwitchPowerModeCallback
  68              		.section	.text.CapSense_Initialize,"ax",%progbits
  69              		.align	2
  70              		.global	CapSense_Initialize
  71              		.code	16
  72              		.thumb_func
  73              		.type	CapSense_Initialize, %function
  74              	CapSense_Initialize:
  75              	.LFB167:
ARM GAS  C:\Users\Agentos\AppData\Local\Temp\ccHXniwf.s 			page 20


 202:Generated_Source\PSoC6/CapSense_Control.c ****     cy_status result;
  76              		.loc 1 202 0
  77              		.cfi_startproc
  78              		@ args = 0, pretend = 0, frame = 0
  79              		@ frame_needed = 0, uses_anonymous_args = 0
  80 0000 10B5     		push	{r4, lr}
  81              		.cfi_def_cfa_offset 8
  82              		.cfi_offset 4, -8
  83              		.cfi_offset 14, -4
 206:Generated_Source\PSoC6/CapSense_Control.c ****     {
  84              		.loc 1 206 0
  85 0002 084B     		ldr	r3, .L11
  86 0004 1B78     		ldrb	r3, [r3]
  87 0006 002B     		cmp	r3, #0
  88 0008 06D1     		bne	.L10
 208:Generated_Source\PSoC6/CapSense_Control.c ****         CapSense_TuInitialize();
  89              		.loc 1 208 0
  90 000a FFF7FEFF 		bl	CapSense_DsInitialize
  91              	.LVL6:
 209:Generated_Source\PSoC6/CapSense_Control.c ****         CapSense_InitVar = CapSense_INIT_DONE;
  92              		.loc 1 209 0
  93 000e FFF7FEFF 		bl	CapSense_TuInitialize
  94              	.LVL7:
 210:Generated_Source\PSoC6/CapSense_Control.c ****     }
  95              		.loc 1 210 0
  96 0012 0122     		movs	r2, #1
  97 0014 034B     		ldr	r3, .L11
  98 0016 1A70     		strb	r2, [r3]
  99              	.L10:
 213:Generated_Source\PSoC6/CapSense_Control.c **** 
 100              		.loc 1 213 0
 101 0018 FFF7FEFF 		bl	CapSense_DpInitialize
 102              	.LVL8:
 215:Generated_Source\PSoC6/CapSense_Control.c **** 
 103              		.loc 1 215 0
 104 001c FFF7FEFF 		bl	CapSense_SsInitialize
 105              	.LVL9:
 218:Generated_Source\PSoC6/CapSense_Control.c **** 
 106              		.loc 1 218 0
 107              		@ sp needed
 108 0020 10BD     		pop	{r4, pc}
 109              	.L12:
 110 0022 C046     		.align	2
 111              	.L11:
 112 0024 00000000 		.word	.LANCHOR0
 113              		.cfi_endproc
 114              	.LFE167:
 115              		.size	CapSense_Initialize, .-CapSense_Initialize
 116              		.section	.text.CapSense_Start,"ax",%progbits
 117              		.align	2
 118              		.global	CapSense_Start
 119              		.code	16
 120              		.thumb_func
 121              		.type	CapSense_Start, %function
 122              	CapSense_Start:
 123              	.LFB166:
 126:Generated_Source\PSoC6/CapSense_Control.c ****     cy_status result;
ARM GAS  C:\Users\Agentos\AppData\Local\Temp\ccHXniwf.s 			page 21


 124              		.loc 1 126 0
 125              		.cfi_startproc
 126              		@ args = 0, pretend = 0, frame = 0
 127              		@ frame_needed = 0, uses_anonymous_args = 0
 128 0000 10B5     		push	{r4, lr}
 129              		.cfi_def_cfa_offset 8
 130              		.cfi_offset 4, -8
 131              		.cfi_offset 14, -4
 130:Generated_Source\PSoC6/CapSense_Control.c **** 
 132              		.loc 1 130 0
 133 0002 FFF7FEFF 		bl	CapSense_Initialize
 134              	.LVL10:
 135 0006 041E     		subs	r4, r0, #0
 136              	.LVL11:
 133:Generated_Source\PSoC6/CapSense_Control.c ****         {
 137              		.loc 1 133 0
 138 0008 02D1     		bne	.L14
 135:Generated_Source\PSoC6/CapSense_Control.c ****         }
 139              		.loc 1 135 0
 140 000a FFF7FEFF 		bl	CapSense_SsAutoTune
 141              	.LVL12:
 142 000e 0400     		movs	r4, r0
 143              	.LVL13:
 144              	.L14:
 141:Generated_Source\PSoC6/CapSense_Control.c ****         {
 145              		.loc 1 141 0
 146 0010 002C     		cmp	r4, #0
 147 0012 02D1     		bne	.L15
 143:Generated_Source\PSoC6/CapSense_Control.c ****         }
 148              		.loc 1 143 0
 149 0014 FFF7FEFF 		bl	CapSense_CalibrateAllWidgets
 150              	.LVL14:
 151 0018 0400     		movs	r4, r0
 152              	.LVL15:
 153              	.L15:
 147:Generated_Source\PSoC6/CapSense_Control.c ****     {
 154              		.loc 1 147 0
 155 001a 002C     		cmp	r4, #0
 156 001c 02D1     		bne	.L17
 149:Generated_Source\PSoC6/CapSense_Control.c ****     }
 157              		.loc 1 149 0
 158 001e FFF7FEFF 		bl	CapSense_ScanAllWidgets
 159              	.LVL16:
 160 0022 0400     		movs	r4, r0
 161              	.LVL17:
 162              	.L17:
 152:Generated_Source\PSoC6/CapSense_Control.c **** 
 163              		.loc 1 152 0 discriminator 1
 164 0024 FFF7FEFF 		bl	CapSense_IsBusy
 165              	.LVL18:
 166 0028 0028     		cmp	r0, #0
 167 002a FBD1     		bne	.L17
 154:Generated_Source\PSoC6/CapSense_Control.c ****     CapSense_InitializeAllBaselines();
 168              		.loc 1 154 0
 169 002c FFF7FEFF 		bl	CapSense_FtInitialize
 170              	.LVL19:
 155:Generated_Source\PSoC6/CapSense_Control.c **** 
ARM GAS  C:\Users\Agentos\AppData\Local\Temp\ccHXniwf.s 			page 22


 171              		.loc 1 155 0
 172 0030 FFF7FEFF 		bl	CapSense_InitializeAllBaselines
 173              	.LVL20:
 158:Generated_Source\PSoC6/CapSense_Control.c ****         {
 174              		.loc 1 158 0
 175 0034 002C     		cmp	r4, #0
 176 0036 01D1     		bne	.L18
 160:Generated_Source\PSoC6/CapSense_Control.c ****         }
 177              		.loc 1 160 0
 178 0038 FFF7FEFF 		bl	CapSense_InitializeGestures
 179              	.LVL21:
 180              	.L18:
 176:Generated_Source\PSoC6/CapSense_Control.c **** 
 181              		.loc 1 176 0
 182 003c 2000     		movs	r0, r4
 183              		@ sp needed
 184              	.LVL22:
 185 003e 10BD     		pop	{r4, pc}
 186              		.cfi_endproc
 187              	.LFE166:
 188              		.size	CapSense_Start, .-CapSense_Start
 189              		.section	.text.CapSense_Stop,"ax",%progbits
 190              		.align	2
 191              		.global	CapSense_Stop
 192              		.code	16
 193              		.thumb_func
 194              		.type	CapSense_Stop, %function
 195              	CapSense_Stop:
 196              	.LFB168:
 244:Generated_Source\PSoC6/CapSense_Control.c ****     cy_status result = CY_RET_SUCCESS;
 197              		.loc 1 244 0
 198              		.cfi_startproc
 199              		@ args = 0, pretend = 0, frame = 0
 200              		@ frame_needed = 0, uses_anonymous_args = 0
 201              		@ link register save eliminated.
 202              	.LVL23:
 255:Generated_Source\PSoC6/CapSense_Control.c **** 
 203              		.loc 1 255 0
 204 0000 0022     		movs	r2, #0
 205 0002 024B     		ldr	r3, .L20
 206 0004 1A70     		strb	r2, [r3]
 258:Generated_Source\PSoC6/CapSense_Control.c **** 
 207              		.loc 1 258 0
 208 0006 0020     		movs	r0, #0
 209              		@ sp needed
 210 0008 7047     		bx	lr
 211              	.L21:
 212 000a C046     		.align	2
 213              	.L20:
 214 000c 00000000 		.word	.LANCHOR0
 215              		.cfi_endproc
 216              	.LFE168:
 217              		.size	CapSense_Stop, .-CapSense_Stop
 218              		.section	.text.CapSense_Resume,"ax",%progbits
 219              		.align	2
 220              		.global	CapSense_Resume
 221              		.code	16
ARM GAS  C:\Users\Agentos\AppData\Local\Temp\ccHXniwf.s 			page 23


 222              		.thumb_func
 223              		.type	CapSense_Resume, %function
 224              	CapSense_Resume:
 225              	.LFB169:
 281:Generated_Source\PSoC6/CapSense_Control.c ****     cy_status result;
 226              		.loc 1 281 0
 227              		.cfi_startproc
 228              		@ args = 0, pretend = 0, frame = 0
 229              		@ frame_needed = 0, uses_anonymous_args = 0
 230 0000 10B5     		push	{r4, lr}
 231              		.cfi_def_cfa_offset 8
 232              		.cfi_offset 4, -8
 233              		.cfi_offset 14, -4
 285:Generated_Source\PSoC6/CapSense_Control.c ****     {
 234              		.loc 1 285 0
 235 0002 074B     		ldr	r3, .L24
 236 0004 1B78     		ldrb	r3, [r3]
 237 0006 002B     		cmp	r3, #0
 238 0008 04D1     		bne	.L23
 287:Generated_Source\PSoC6/CapSense_Control.c ****         CapSense_InitVar = CapSense_INIT_DONE;
 239              		.loc 1 287 0
 240 000a FFF7FEFF 		bl	CapSense_TuInitialize
 241              	.LVL24:
 288:Generated_Source\PSoC6/CapSense_Control.c ****     }
 242              		.loc 1 288 0
 243 000e 0122     		movs	r2, #1
 244 0010 034B     		ldr	r3, .L24
 245 0012 1A70     		strb	r2, [r3]
 246              	.L23:
 290:Generated_Source\PSoC6/CapSense_Control.c **** 
 247              		.loc 1 290 0
 248 0014 FFF7FEFF 		bl	CapSense_DpInitialize
 249              	.LVL25:
 292:Generated_Source\PSoC6/CapSense_Control.c **** 
 250              		.loc 1 292 0
 251 0018 FFF7FEFF 		bl	CapSense_SsInitialize
 252              	.LVL26:
 295:Generated_Source\PSoC6/CapSense_Control.c **** 
 253              		.loc 1 295 0
 254              		@ sp needed
 255 001c 10BD     		pop	{r4, pc}
 256              	.L25:
 257 001e C046     		.align	2
 258              	.L24:
 259 0020 00000000 		.word	.LANCHOR0
 260              		.cfi_endproc
 261              	.LFE169:
 262              		.size	CapSense_Resume, .-CapSense_Resume
 263              		.section	.text.CapSense_ProcessAllWidgets,"ax",%progbits
 264              		.align	2
 265              		.global	CapSense_ProcessAllWidgets
 266              		.code	16
 267              		.thumb_func
 268              		.type	CapSense_ProcessAllWidgets, %function
 269              	CapSense_ProcessAllWidgets:
 270              	.LFB170:
 338:Generated_Source\PSoC6/CapSense_Control.c ****     uint32 wdgtId;
ARM GAS  C:\Users\Agentos\AppData\Local\Temp\ccHXniwf.s 			page 24


 271              		.loc 1 338 0
 272              		.cfi_startproc
 273              		@ args = 0, pretend = 0, frame = 0
 274              		@ frame_needed = 0, uses_anonymous_args = 0
 275 0000 70B5     		push	{r4, r5, r6, lr}
 276              		.cfi_def_cfa_offset 16
 277              		.cfi_offset 4, -16
 278              		.cfi_offset 5, -12
 279              		.cfi_offset 6, -8
 280              		.cfi_offset 14, -4
 281              	.LVL27:
 343:Generated_Source\PSoC6/CapSense_Control.c **** 
 282              		.loc 1 343 0
 283 0002 184E     		ldr	r6, .L34
 340:Generated_Source\PSoC6/CapSense_Control.c ****     CapSense_FLASH_WD_STRUCT const *ptrFlashWdgt;
 284              		.loc 1 340 0
 285 0004 0025     		movs	r5, #0
 345:Generated_Source\PSoC6/CapSense_Control.c ****     {
 286              		.loc 1 345 0
 287 0006 0024     		movs	r4, #0
 288 0008 28E0     		b	.L27
 289              	.LVL28:
 290              	.L32:
 347:Generated_Source\PSoC6/CapSense_Control.c ****         {
 291              		.loc 1 347 0
 292 000a 6309     		lsrs	r3, r4, #5
 293 000c 0433     		adds	r3, r3, #4
 294 000e 9B00     		lsls	r3, r3, #2
 295 0010 154A     		ldr	r2, .L34+4
 296 0012 9B58     		ldr	r3, [r3, r2]
 297 0014 1F22     		movs	r2, #31
 298 0016 2240     		ands	r2, r4
 299 0018 D340     		lsrs	r3, r3, r2
 300 001a DB07     		lsls	r3, r3, #31
 301 001c 1CD5     		bpl	.L28
 349:Generated_Source\PSoC6/CapSense_Control.c ****             {
 302              		.loc 1 349 0
 303 001e F37E     		ldrb	r3, [r6, #27]
 304 0020 012B     		cmp	r3, #1
 305 0022 02D0     		beq	.L30
 306 0024 022B     		cmp	r3, #2
 307 0026 09D0     		beq	.L31
 308 0028 11E0     		b	.L33
 309              	.L30:
 353:Generated_Source\PSoC6/CapSense_Control.c ****                     CapSense_DpProcessCsdWidgetStatus(wdgtId, ptrFlashWdgt);
 310              		.loc 1 353 0
 311 002a 3000     		movs	r0, r6
 312 002c FFF7FEFF 		bl	CapSense_DpProcessCsdWidgetRawCounts
 313              	.LVL29:
 314 0030 0500     		movs	r5, r0
 315              	.LVL30:
 354:Generated_Source\PSoC6/CapSense_Control.c ****                     break;
 316              		.loc 1 354 0
 317 0032 3100     		movs	r1, r6
 318 0034 2000     		movs	r0, r4
 319              	.LVL31:
 320 0036 FFF7FEFF 		bl	CapSense_DpProcessCsdWidgetStatus
ARM GAS  C:\Users\Agentos\AppData\Local\Temp\ccHXniwf.s 			page 25


 321              	.LVL32:
 355:Generated_Source\PSoC6/CapSense_Control.c ****             #endif /* #if (0u != CapSense_TOTAL_CSD_WIDGETS) */
 322              		.loc 1 355 0
 323 003a 0DE0     		b	.L28
 324              	.L31:
 360:Generated_Source\PSoC6/CapSense_Control.c ****                     CapSense_DpProcessCsxWidgetStatus(wdgtId, ptrFlashWdgt);
 325              		.loc 1 360 0
 326 003c 3000     		movs	r0, r6
 327 003e FFF7FEFF 		bl	CapSense_DpProcessCsxWidgetRawCounts
 328              	.LVL33:
 329 0042 0500     		movs	r5, r0
 330              	.LVL34:
 361:Generated_Source\PSoC6/CapSense_Control.c ****                     break;
 331              		.loc 1 361 0
 332 0044 3100     		movs	r1, r6
 333 0046 2000     		movs	r0, r4
 334              	.LVL35:
 335 0048 FFF7FEFF 		bl	CapSense_DpProcessCsxWidgetStatus
 336              	.LVL36:
 362:Generated_Source\PSoC6/CapSense_Control.c ****             #endif /* #if (0u != CapSense_TOTAL_CSX_WIDGETS) */
 337              		.loc 1 362 0
 338 004c 04E0     		b	.L28
 339              	.L33:
 366:Generated_Source\PSoC6/CapSense_Control.c ****                 break;
 340              		.loc 1 366 0 discriminator 1
 341 004e B721     		movs	r1, #183
 342 0050 4900     		lsls	r1, r1, #1
 343 0052 0648     		ldr	r0, .L34+8
 344 0054 FFF7FEFF 		bl	Cy_SysLib_AssertFailed
 345              	.LVL37:
 346              	.L28:
 379:Generated_Source\PSoC6/CapSense_Control.c ****     }
 347              		.loc 1 379 0 discriminator 2
 348 0058 3036     		adds	r6, r6, #48
 349              	.LVL38:
 345:Generated_Source\PSoC6/CapSense_Control.c ****     {
 350              		.loc 1 345 0 discriminator 2
 351 005a 0134     		adds	r4, r4, #1
 352              	.LVL39:
 353              	.L27:
 345:Generated_Source\PSoC6/CapSense_Control.c ****     {
 354              		.loc 1 345 0 is_stmt 0 discriminator 1
 355 005c 022C     		cmp	r4, #2
 356 005e D4D9     		bls	.L32
 382:Generated_Source\PSoC6/CapSense_Control.c **** 
 357              		.loc 1 382 0 is_stmt 1
 358 0060 2800     		movs	r0, r5
 359              		@ sp needed
 360              	.LVL40:
 361              	.LVL41:
 362              	.LVL42:
 363 0062 70BD     		pop	{r4, r5, r6, pc}
 364              	.L35:
 365              		.align	2
 366              	.L34:
 367 0064 00000000 		.word	CapSense_dsFlash
 368 0068 00000000 		.word	CapSense_dsRam
ARM GAS  C:\Users\Agentos\AppData\Local\Temp\ccHXniwf.s 			page 26


 369 006c 00000000 		.word	.LC5
 370              		.cfi_endproc
 371              	.LFE170:
 372              		.size	CapSense_ProcessAllWidgets, .-CapSense_ProcessAllWidgets
 373              		.section	.text.CapSense_ProcessWidget,"ax",%progbits
 374              		.align	2
 375              		.global	CapSense_ProcessWidget
 376              		.code	16
 377              		.thumb_func
 378              		.type	CapSense_ProcessWidget, %function
 379              	CapSense_ProcessWidget:
 380              	.LFB171:
 426:Generated_Source\PSoC6/CapSense_Control.c ****     cy_status result = CY_RET_SUCCESS;
 381              		.loc 1 426 0
 382              		.cfi_startproc
 383              		@ args = 0, pretend = 0, frame = 0
 384              		@ frame_needed = 0, uses_anonymous_args = 0
 385              	.LVL43:
 386 0000 70B5     		push	{r4, r5, r6, lr}
 387              		.cfi_def_cfa_offset 16
 388              		.cfi_offset 4, -16
 389              		.cfi_offset 5, -12
 390              		.cfi_offset 6, -8
 391              		.cfi_offset 14, -4
 392 0002 0500     		movs	r5, r0
 393              	.LVL44:
 430:Generated_Source\PSoC6/CapSense_Control.c ****     {
 394              		.loc 1 430 0
 395 0004 0228     		cmp	r0, #2
 396 0006 01D8     		bhi	.L43
 427:Generated_Source\PSoC6/CapSense_Control.c ****     CapSense_FLASH_WD_STRUCT const *ptrFlashWdgt;
 397              		.loc 1 427 0
 398 0008 0024     		movs	r4, #0
 399 000a 00E0     		b	.L37
 400              	.L43:
 432:Generated_Source\PSoC6/CapSense_Control.c ****     }
 401              		.loc 1 432 0
 402 000c 0124     		movs	r4, #1
 403              	.L37:
 404              	.LVL45:
 435:Generated_Source\PSoC6/CapSense_Control.c ****     {
 405              		.loc 1 435 0
 406 000e 002C     		cmp	r4, #0
 407 0010 0AD1     		bne	.L38
 435:Generated_Source\PSoC6/CapSense_Control.c ****     {
 408              		.loc 1 435 0 is_stmt 0 discriminator 1
 409 0012 6B09     		lsrs	r3, r5, #5
 410 0014 0433     		adds	r3, r3, #4
 411 0016 9B00     		lsls	r3, r3, #2
 412 0018 164A     		ldr	r2, .L46
 413 001a 9B58     		ldr	r3, [r3, r2]
 414 001c 1F22     		movs	r2, #31
 415 001e 2A40     		ands	r2, r5
 416 0020 D340     		lsrs	r3, r3, r2
 417 0022 DB07     		lsls	r3, r3, #31
 418 0024 00D4     		bmi	.L38
 437:Generated_Source\PSoC6/CapSense_Control.c ****     }
ARM GAS  C:\Users\Agentos\AppData\Local\Temp\ccHXniwf.s 			page 27


 419              		.loc 1 437 0 is_stmt 1
 420 0026 1134     		adds	r4, r4, #17
 421              	.LVL46:
 422              	.L38:
 440:Generated_Source\PSoC6/CapSense_Control.c ****     {
 423              		.loc 1 440 0
 424 0028 002C     		cmp	r4, #0
 425 002a 21D1     		bne	.L39
 442:Generated_Source\PSoC6/CapSense_Control.c **** 
 426              		.loc 1 442 0
 427 002c 6B00     		lsls	r3, r5, #1
 428 002e 5B19     		adds	r3, r3, r5
 429 0030 1E01     		lsls	r6, r3, #4
 430 0032 114B     		ldr	r3, .L46+4
 431 0034 F618     		adds	r6, r6, r3
 432              	.LVL47:
 444:Generated_Source\PSoC6/CapSense_Control.c ****         {
 433              		.loc 1 444 0
 434 0036 F37E     		ldrb	r3, [r6, #27]
 435 0038 012B     		cmp	r3, #1
 436 003a 02D0     		beq	.L41
 437 003c 022B     		cmp	r3, #2
 438 003e 09D0     		beq	.L42
 439 0040 11E0     		b	.L45
 440              	.L41:
 448:Generated_Source\PSoC6/CapSense_Control.c ****                 CapSense_DpProcessCsdWidgetStatus(widgetId, ptrFlashWdgt);
 441              		.loc 1 448 0
 442 0042 3000     		movs	r0, r6
 443              	.LVL48:
 444 0044 FFF7FEFF 		bl	CapSense_DpProcessCsdWidgetRawCounts
 445              	.LVL49:
 446 0048 0400     		movs	r4, r0
 447              	.LVL50:
 449:Generated_Source\PSoC6/CapSense_Control.c ****                 break;
 448              		.loc 1 449 0
 449 004a 3100     		movs	r1, r6
 450 004c 2800     		movs	r0, r5
 451              	.LVL51:
 452 004e FFF7FEFF 		bl	CapSense_DpProcessCsdWidgetStatus
 453              	.LVL52:
 450:Generated_Source\PSoC6/CapSense_Control.c ****         #endif /* #if (0u != CapSense_TOTAL_CSD_WIDGETS) */
 454              		.loc 1 450 0
 455 0052 0DE0     		b	.L39
 456              	.LVL53:
 457              	.L42:
 455:Generated_Source\PSoC6/CapSense_Control.c ****                 CapSense_DpProcessCsxWidgetStatus(widgetId, ptrFlashWdgt);
 458              		.loc 1 455 0
 459 0054 3000     		movs	r0, r6
 460              	.LVL54:
 461 0056 FFF7FEFF 		bl	CapSense_DpProcessCsxWidgetRawCounts
 462              	.LVL55:
 463 005a 0400     		movs	r4, r0
 464              	.LVL56:
 456:Generated_Source\PSoC6/CapSense_Control.c ****                 break;
 465              		.loc 1 456 0
 466 005c 3100     		movs	r1, r6
 467 005e 2800     		movs	r0, r5
ARM GAS  C:\Users\Agentos\AppData\Local\Temp\ccHXniwf.s 			page 28


 468              	.LVL57:
 469 0060 FFF7FEFF 		bl	CapSense_DpProcessCsxWidgetStatus
 470              	.LVL58:
 457:Generated_Source\PSoC6/CapSense_Control.c ****         #endif /* #if (0u != CapSense_TOTAL_CSX_WIDGETS) */
 471              		.loc 1 457 0
 472 0064 04E0     		b	.L39
 473              	.LVL59:
 474              	.L45:
 461:Generated_Source\PSoC6/CapSense_Control.c ****             break;
 475              		.loc 1 461 0 discriminator 1
 476 0066 CE21     		movs	r1, #206
 477 0068 FF31     		adds	r1, r1, #255
 478 006a 0448     		ldr	r0, .L46+8
 479              	.LVL60:
 480 006c FFF7FEFF 		bl	Cy_SysLib_AssertFailed
 481              	.LVL61:
 482              	.L39:
 474:Generated_Source\PSoC6/CapSense_Control.c **** 
 483              		.loc 1 474 0
 484 0070 2000     		movs	r0, r4
 485              		@ sp needed
 486              	.LVL62:
 487              	.LVL63:
 488 0072 70BD     		pop	{r4, r5, r6, pc}
 489              	.L47:
 490              		.align	2
 491              	.L46:
 492 0074 00000000 		.word	CapSense_dsRam
 493 0078 00000000 		.word	CapSense_dsFlash
 494 007c 00000000 		.word	.LC5
 495              		.cfi_endproc
 496              	.LFE171:
 497              		.size	CapSense_ProcessWidget, .-CapSense_ProcessWidget
 498              		.section	.text.CapSense_ProcessWidgetExt,"ax",%progbits
 499              		.align	2
 500              		.global	CapSense_ProcessWidgetExt
 501              		.code	16
 502              		.thumb_func
 503              		.type	CapSense_ProcessWidgetExt, %function
 504              	CapSense_ProcessWidgetExt:
 505              	.LFB172:
 540:Generated_Source\PSoC6/CapSense_Control.c ****     uint32 snsCount;
 506              		.loc 1 540 0
 507              		.cfi_startproc
 508              		@ args = 0, pretend = 0, frame = 8
 509              		@ frame_needed = 0, uses_anonymous_args = 0
 510              	.LVL64:
 511 0000 F0B5     		push	{r4, r5, r6, r7, lr}
 512              		.cfi_def_cfa_offset 20
 513              		.cfi_offset 4, -20
 514              		.cfi_offset 5, -16
 515              		.cfi_offset 6, -12
 516              		.cfi_offset 7, -8
 517              		.cfi_offset 14, -4
 518 0002 5F46     		mov	r7, fp
 519 0004 4E46     		mov	r6, r9
 520 0006 C0B4     		push	{r6, r7}
ARM GAS  C:\Users\Agentos\AppData\Local\Temp\ccHXniwf.s 			page 29


 521              		.cfi_def_cfa_offset 28
 522              		.cfi_offset 9, -28
 523              		.cfi_offset 11, -24
 524 0008 83B0     		sub	sp, sp, #12
 525              		.cfi_def_cfa_offset 40
 526 000a 0700     		movs	r7, r0
 527 000c 0191     		str	r1, [sp, #4]
 528              	.LVL65:
 551:Generated_Source\PSoC6/CapSense_Control.c ****     {
 529              		.loc 1 551 0
 530 000e 0228     		cmp	r0, #2
 531 0010 56D8     		bhi	.L58
 553:Generated_Source\PSoC6/CapSense_Control.c ****         snsCount = CapSense_GET_SNS_CNT_BY_PTR(ptrFlashWdgt);
 532              		.loc 1 553 0
 533 0012 4300     		lsls	r3, r0, #1
 534 0014 1B18     		adds	r3, r3, r0
 535 0016 1A01     		lsls	r2, r3, #4
 536 0018 2D4B     		ldr	r3, .L62
 537 001a D618     		adds	r6, r2, r3
 538              	.LVL66:
 554:Generated_Source\PSoC6/CapSense_Control.c ****         ptrSnsTmp = ptrFlashWdgt->ptr2SnsRam;
 539              		.loc 1 554 0
 540 001c 338B     		ldrh	r3, [r6, #24]
 541              	.LVL67:
 555:Generated_Source\PSoC6/CapSense_Control.c ****         fltrHistV.ptr = ptrFlashWdgt->ptr2FltrHistory;
 542              		.loc 1 555 0
 543 001e B468     		ldr	r4, [r6, #8]
 544              	.LVL68:
 556:Generated_Source\PSoC6/CapSense_Control.c **** 
 545              		.loc 1 556 0
 546 0020 F568     		ldr	r5, [r6, #12]
 547              	.LVL69:
 558:Generated_Source\PSoC6/CapSense_Control.c ****         {
 548              		.loc 1 558 0
 549 0022 F27E     		ldrb	r2, [r6, #27]
 550 0024 012A     		cmp	r2, #1
 551 0026 02D0     		beq	.L51
 552 0028 022A     		cmp	r2, #2
 553 002a 34D0     		beq	.L59
 554 002c 41E0     		b	.L61
 555              	.L51:
 566:Generated_Source\PSoC6/CapSense_Control.c **** 
 556              		.loc 1 566 0
 557 002e 4100     		lsls	r1, r0, #1
 558              	.LVL70:
 559 0030 0918     		adds	r1, r1, r0
 560 0032 0A01     		lsls	r2, r1, #4
 561 0034 2649     		ldr	r1, .L62
 562 0036 8A18     		adds	r2, r1, r2
 563 0038 927E     		ldrb	r2, [r2, #26]
 564 003a 062A     		cmp	r2, #6
 565 003c 02D1     		bne	.L60
 566 003e 053A     		subs	r2, r2, #5
 567 0040 9346     		mov	fp, r2
 568 0042 01E0     		b	.L53
 569              	.L60:
 570 0044 0022     		movs	r2, #0
ARM GAS  C:\Users\Agentos\AppData\Local\Temp\ccHXniwf.s 			page 30


 571 0046 9346     		mov	fp, r2
 572              	.L53:
 573              	.LVL71:
 542:Generated_Source\PSoC6/CapSense_Control.c ****     CapSense_FLASH_WD_STRUCT const *ptrFlashWdgt;
 574              		.loc 1 542 0 discriminator 4
 575 0048 0122     		movs	r2, #1
 576 004a 0092     		str	r2, [sp]
 569:Generated_Source\PSoC6/CapSense_Control.c ****                 {
 577              		.loc 1 569 0 discriminator 4
 578 004c 0CE0     		b	.L54
 579              	.LVL72:
 580              	.L56:
 571:Generated_Source\PSoC6/CapSense_Control.c **** 
 581              		.loc 1 571 0
 582 004e 019B     		ldr	r3, [sp, #4]
 583 0050 2A00     		movs	r2, r5
 584              	.LVL73:
 585 0052 2100     		movs	r1, r4
 586 0054 3000     		movs	r0, r6
 587 0056 FFF7FEFF 		bl	CapSense_DpProcessCsdSensorRawCountsExt
 588              	.LVL74:
 589 005a 0090     		str	r0, [sp]
 590              	.LVL75:
 581:Generated_Source\PSoC6/CapSense_Control.c ****                     CapSense_INC_FLTR_OBJ_VARIANT(isProxWdgt, fltrHistV);
 591              		.loc 1 581 0
 592 005c 0A34     		adds	r4, r4, #10
 593              	.LVL76:
 582:Generated_Source\PSoC6/CapSense_Control.c ****                 }
 594              		.loc 1 582 0
 595 005e 5B46     		mov	r3, fp
 596 0060 002B     		cmp	r3, #0
 597 0062 00D1     		bne	.L55
 598              	.LVL77:
 582:Generated_Source\PSoC6/CapSense_Control.c ****                 }
 599              		.loc 1 582 0 is_stmt 0 discriminator 1
 600 0064 0A35     		adds	r5, r5, #10
 601              	.LVL78:
 602              	.L55:
 603 0066 4B46     		mov	r3, r9
 604              	.LVL79:
 605              	.L54:
 569:Generated_Source\PSoC6/CapSense_Control.c ****                 {
 606              		.loc 1 569 0 is_stmt 1
 607 0068 5A1E     		subs	r2, r3, #1
 608 006a 9146     		mov	r9, r2
 609              	.LVL80:
 610 006c 002B     		cmp	r3, #0
 611 006e EED1     		bne	.L56
 585:Generated_Source\PSoC6/CapSense_Control.c ****                 {
 612              		.loc 1 585 0
 613 0070 019B     		ldr	r3, [sp, #4]
 614 0072 9B06     		lsls	r3, r3, #26
 615 0074 26D5     		bpl	.L49
 587:Generated_Source\PSoC6/CapSense_Control.c ****                 }
 616              		.loc 1 587 0
 617 0076 3100     		movs	r1, r6
 618 0078 3800     		movs	r0, r7
ARM GAS  C:\Users\Agentos\AppData\Local\Temp\ccHXniwf.s 			page 31


 619 007a FFF7FEFF 		bl	CapSense_DpProcessCsdWidgetStatus
 620              	.LVL81:
 621 007e 21E0     		b	.L49
 622              	.LVL82:
 623              	.L57:
 607:Generated_Source\PSoC6/CapSense_Control.c **** 
 624              		.loc 1 607 0
 625 0080 019B     		ldr	r3, [sp, #4]
 626              	.LVL83:
 627 0082 2A00     		movs	r2, r5
 628              	.LVL84:
 629 0084 2100     		movs	r1, r4
 630 0086 3000     		movs	r0, r6
 631 0088 FFF7FEFF 		bl	CapSense_DpProcessCsxSensorRawCountsExt
 632              	.LVL85:
 633 008c 0090     		str	r0, [sp]
 634              	.LVL86:
 617:Generated_Source\PSoC6/CapSense_Control.c ****                     CapSense_INC_REG_FLTR_OBJ(fltrHistV);
 635              		.loc 1 617 0
 636 008e 0A34     		adds	r4, r4, #10
 637              	.LVL87:
 618:Generated_Source\PSoC6/CapSense_Control.c ****                 }
 638              		.loc 1 618 0
 639 0090 0A35     		adds	r5, r5, #10
 640              	.LVL88:
 605:Generated_Source\PSoC6/CapSense_Control.c ****                 {
 641              		.loc 1 605 0
 642 0092 4B46     		mov	r3, r9
 643 0094 01E0     		b	.L52
 644              	.LVL89:
 645              	.L59:
 558:Generated_Source\PSoC6/CapSense_Control.c ****         {
 646              		.loc 1 558 0
 647 0096 0122     		movs	r2, #1
 648 0098 0092     		str	r2, [sp]
 649              	.LVL90:
 650              	.L52:
 605:Generated_Source\PSoC6/CapSense_Control.c ****                 {
 651              		.loc 1 605 0
 652 009a 5A1E     		subs	r2, r3, #1
 653 009c 9146     		mov	r9, r2
 654              	.LVL91:
 655 009e 002B     		cmp	r3, #0
 656 00a0 EED1     		bne	.L57
 621:Generated_Source\PSoC6/CapSense_Control.c ****                 {
 657              		.loc 1 621 0
 658 00a2 019B     		ldr	r3, [sp, #4]
 659 00a4 9B06     		lsls	r3, r3, #26
 660 00a6 0DD5     		bpl	.L49
 623:Generated_Source\PSoC6/CapSense_Control.c ****                 }
 661              		.loc 1 623 0
 662 00a8 3100     		movs	r1, r6
 663 00aa 3800     		movs	r0, r7
 664 00ac FFF7FEFF 		bl	CapSense_DpProcessCsxWidgetStatus
 665              	.LVL92:
 666 00b0 08E0     		b	.L49
 667              	.LVL93:
ARM GAS  C:\Users\Agentos\AppData\Local\Temp\ccHXniwf.s 			page 32


 668              	.L61:
 629:Generated_Source\PSoC6/CapSense_Control.c ****             break;
 669              		.loc 1 629 0 discriminator 1
 670 00b2 0849     		ldr	r1, .L62+4
 671              	.LVL94:
 672 00b4 0848     		ldr	r0, .L62+8
 673              	.LVL95:
 674 00b6 FFF7FEFF 		bl	Cy_SysLib_AssertFailed
 675              	.LVL96:
 542:Generated_Source\PSoC6/CapSense_Control.c ****     CapSense_FLASH_WD_STRUCT const *ptrFlashWdgt;
 676              		.loc 1 542 0 discriminator 1
 677 00ba 0123     		movs	r3, #1
 678 00bc 0093     		str	r3, [sp]
 630:Generated_Source\PSoC6/CapSense_Control.c ****         }
 679              		.loc 1 630 0 discriminator 1
 680 00be 01E0     		b	.L49
 681              	.LVL97:
 682              	.L58:
 542:Generated_Source\PSoC6/CapSense_Control.c ****     CapSense_FLASH_WD_STRUCT const *ptrFlashWdgt;
 683              		.loc 1 542 0
 684 00c0 0123     		movs	r3, #1
 685 00c2 0093     		str	r3, [sp]
 686              	.LVL98:
 687              	.L49:
 643:Generated_Source\PSoC6/CapSense_Control.c **** 
 688              		.loc 1 643 0
 689 00c4 0098     		ldr	r0, [sp]
 690 00c6 03B0     		add	sp, sp, #12
 691              	.LVL99:
 692              		@ sp needed
 693              	.LVL100:
 694              	.LVL101:
 695 00c8 0CBC     		pop	{r2, r3}
 696 00ca 9146     		mov	r9, r2
 697 00cc 9B46     		mov	fp, r3
 698 00ce F0BD     		pop	{r4, r5, r6, r7, pc}
 699              	.L63:
 700              		.align	2
 701              	.L62:
 702 00d0 00000000 		.word	CapSense_dsFlash
 703 00d4 75020000 		.word	629
 704 00d8 00000000 		.word	.LC5
 705              		.cfi_endproc
 706              	.LFE172:
 707              		.size	CapSense_ProcessWidgetExt, .-CapSense_ProcessWidgetExt
 708              		.section	.text.CapSense_ProcessSensorExt,"ax",%progbits
 709              		.align	2
 710              		.global	CapSense_ProcessSensorExt
 711              		.code	16
 712              		.thumb_func
 713              		.type	CapSense_ProcessSensorExt, %function
 714              	CapSense_ProcessSensorExt:
 715              	.LFB173:
 709:Generated_Source\PSoC6/CapSense_Control.c ****     cy_status result = CY_RET_BAD_PARAM;
 716              		.loc 1 709 0
 717              		.cfi_startproc
 718              		@ args = 0, pretend = 0, frame = 0
ARM GAS  C:\Users\Agentos\AppData\Local\Temp\ccHXniwf.s 			page 33


 719              		@ frame_needed = 0, uses_anonymous_args = 0
 720              	.LVL102:
 721 0000 F8B5     		push	{r3, r4, r5, r6, r7, lr}
 722              		.cfi_def_cfa_offset 24
 723              		.cfi_offset 3, -24
 724              		.cfi_offset 4, -20
 725              		.cfi_offset 5, -16
 726              		.cfi_offset 6, -12
 727              		.cfi_offset 7, -8
 728              		.cfi_offset 14, -4
 729              	.LVL103:
 715:Generated_Source\PSoC6/CapSense_Control.c ****     {
 730              		.loc 1 715 0
 731 0002 0228     		cmp	r0, #2
 732 0004 34D8     		bhi	.L70
 715:Generated_Source\PSoC6/CapSense_Control.c ****     {
 733              		.loc 1 715 0 is_stmt 0 discriminator 1
 734 0006 4500     		lsls	r5, r0, #1
 735 0008 2D18     		adds	r5, r5, r0
 736 000a 2C01     		lsls	r4, r5, #4
 737 000c 2500     		movs	r5, r4
 738 000e 1A4B     		ldr	r3, .L73
 739 0010 1C19     		adds	r4, r3, r4
 740 0012 238B     		ldrh	r3, [r4, #24]
 741 0014 8B42     		cmp	r3, r1
 742 0016 2DD9     		bls	.L71
 743              	.LVL104:
 719:Generated_Source\PSoC6/CapSense_Control.c ****         fltrHistV.ptr = ptrFlashWdgt->ptr2FltrHistory;
 744              		.loc 1 719 0 is_stmt 1
 745 0018 2C00     		movs	r4, r5
 746 001a 174D     		ldr	r5, .L73
 747 001c 6519     		adds	r5, r4, r5
 748              	.LVL105:
 720:Generated_Source\PSoC6/CapSense_Control.c ****         ptrSnsTmp = ptrFlashWdgt->ptr2SnsRam;
 749              		.loc 1 720 0
 750 001e EF68     		ldr	r7, [r5, #12]
 751 0020 3E00     		movs	r6, r7
 752              	.LVL106:
 722:Generated_Source\PSoC6/CapSense_Control.c **** 
 753              		.loc 1 722 0
 754 0022 8B00     		lsls	r3, r1, #2
 755 0024 5918     		adds	r1, r3, r1
 756              	.LVL107:
 757 0026 4B00     		lsls	r3, r1, #1
 758 0028 A968     		ldr	r1, [r5, #8]
 759 002a C918     		adds	r1, r1, r3
 760              	.LVL108:
 724:Generated_Source\PSoC6/CapSense_Control.c ****         {
 761              		.loc 1 724 0
 762 002c EC7E     		ldrb	r4, [r5, #27]
 763 002e 012C     		cmp	r4, #1
 764 0030 02D0     		beq	.L67
 765 0032 022C     		cmp	r4, #2
 766 0034 0FD0     		beq	.L68
 767 0036 15E0     		b	.L72
 768              	.L67:
 728:Generated_Source\PSoC6/CapSense_Control.c ****                 {
ARM GAS  C:\Users\Agentos\AppData\Local\Temp\ccHXniwf.s 			page 34


 769              		.loc 1 728 0
 770 0038 4400     		lsls	r4, r0, #1
 771 003a 2418     		adds	r4, r4, r0
 772 003c 2001     		lsls	r0, r4, #4
 773              	.LVL109:
 774 003e 0E4C     		ldr	r4, .L73
 775 0040 2018     		adds	r0, r4, r0
 776 0042 807E     		ldrb	r0, [r0, #26]
 777 0044 0628     		cmp	r0, #6
 778 0046 00D0     		beq	.L69
 741:Generated_Source\PSoC6/CapSense_Control.c ****                     #endif
 779              		.loc 1 741 0
 780 0048 FE18     		adds	r6, r7, r3
 781              	.L69:
 745:Generated_Source\PSoC6/CapSense_Control.c ****                 break;
 782              		.loc 1 745 0
 783 004a 1300     		movs	r3, r2
 784              	.LVL110:
 785 004c 3200     		movs	r2, r6
 786              	.LVL111:
 787 004e 2800     		movs	r0, r5
 788 0050 FFF7FEFF 		bl	CapSense_DpProcessCsdSensorRawCountsExt
 789              	.LVL112:
 746:Generated_Source\PSoC6/CapSense_Control.c ****         #endif /* #if (0u != CapSense_TOTAL_CSD_WIDGETS) */
 790              		.loc 1 746 0
 791 0054 0FE0     		b	.L65
 792              	.LVL113:
 793              	.L68:
 754:Generated_Source\PSoC6/CapSense_Control.c ****                 #endif
 794              		.loc 1 754 0
 795 0056 F818     		adds	r0, r7, r3
 796              	.LVL114:
 757:Generated_Source\PSoC6/CapSense_Control.c ****                 break;
 797              		.loc 1 757 0
 798 0058 1300     		movs	r3, r2
 799 005a 0200     		movs	r2, r0
 800              	.LVL115:
 801 005c 2800     		movs	r0, r5
 802 005e FFF7FEFF 		bl	CapSense_DpProcessCsxSensorRawCountsExt
 803              	.LVL116:
 758:Generated_Source\PSoC6/CapSense_Control.c ****         #endif /* #if (0u != CapSense_TOTAL_CSX_WIDGETS) */
 804              		.loc 1 758 0
 805 0062 08E0     		b	.L65
 806              	.LVL117:
 807              	.L72:
 762:Generated_Source\PSoC6/CapSense_Control.c ****             break;
 808              		.loc 1 762 0 discriminator 1
 809 0064 0549     		ldr	r1, .L73+4
 810              	.LVL118:
 811 0066 0648     		ldr	r0, .L73+8
 812              	.LVL119:
 813 0068 FFF7FEFF 		bl	Cy_SysLib_AssertFailed
 814              	.LVL120:
 717:Generated_Source\PSoC6/CapSense_Control.c **** 
 815              		.loc 1 717 0 discriminator 1
 816 006c 0020     		movs	r0, #0
 763:Generated_Source\PSoC6/CapSense_Control.c ****         }
ARM GAS  C:\Users\Agentos\AppData\Local\Temp\ccHXniwf.s 			page 35


 817              		.loc 1 763 0 discriminator 1
 818 006e 02E0     		b	.L65
 819              	.LVL121:
 820              	.L70:
 710:Generated_Source\PSoC6/CapSense_Control.c ****     CapSense_FLASH_WD_STRUCT const *ptrFlashWdgt;
 821              		.loc 1 710 0
 822 0070 0120     		movs	r0, #1
 823              	.LVL122:
 824 0072 00E0     		b	.L65
 825              	.LVL123:
 826              	.L71:
 827 0074 0120     		movs	r0, #1
 828              	.LVL124:
 829              	.L65:
 776:Generated_Source\PSoC6/CapSense_Control.c **** 
 830              		.loc 1 776 0
 831              		@ sp needed
 832              	.LVL125:
 833 0076 F8BD     		pop	{r3, r4, r5, r6, r7, pc}
 834              	.L74:
 835              		.align	2
 836              	.L73:
 837 0078 00000000 		.word	CapSense_dsFlash
 838 007c FA020000 		.word	762
 839 0080 00000000 		.word	.LC5
 840              		.cfi_endproc
 841              	.LFE173:
 842              		.size	CapSense_ProcessSensorExt, .-CapSense_ProcessSensorExt
 843              		.section	.text.CapSense_Sleep,"ax",%progbits
 844              		.align	2
 845              		.global	CapSense_Sleep
 846              		.code	16
 847              		.thumb_func
 848              		.type	CapSense_Sleep, %function
 849              	CapSense_Sleep:
 850              	.LFB174:
 791:Generated_Source\PSoC6/CapSense_Control.c **** }
 851              		.loc 1 791 0
 852              		.cfi_startproc
 853              		@ args = 0, pretend = 0, frame = 0
 854              		@ frame_needed = 0, uses_anonymous_args = 0
 855              		@ link register save eliminated.
 792:Generated_Source\PSoC6/CapSense_Control.c **** 
 856              		.loc 1 792 0
 857              		@ sp needed
 858 0000 7047     		bx	lr
 859              		.cfi_endproc
 860              	.LFE174:
 861              		.size	CapSense_Sleep, .-CapSense_Sleep
 862 0002 C046     		.section	.text.CapSense_Wakeup,"ax",%progbits
 863              		.align	2
 864              		.global	CapSense_Wakeup
 865              		.code	16
 866              		.thumb_func
 867              		.type	CapSense_Wakeup, %function
 868              	CapSense_Wakeup:
 869              	.LFB175:
ARM GAS  C:\Users\Agentos\AppData\Local\Temp\ccHXniwf.s 			page 36


 808:Generated_Source\PSoC6/CapSense_Control.c ****     #if(CapSense_BLOCK_ANALOG_WAKEUP_DELAY_US > 0uL)
 870              		.loc 1 808 0
 871              		.cfi_startproc
 872              		@ args = 0, pretend = 0, frame = 0
 873              		@ frame_needed = 0, uses_anonymous_args = 0
 874              		@ link register save eliminated.
 812:Generated_Source\PSoC6/CapSense_Control.c **** 
 875              		.loc 1 812 0
 876              		@ sp needed
 877 0000 7047     		bx	lr
 878              		.cfi_endproc
 879              	.LFE175:
 880              		.size	CapSense_Wakeup, .-CapSense_Wakeup
 881 0002 C046     		.section	.text.CapSense_DeepSleepCallback,"ax",%progbits
 882              		.align	2
 883              		.global	CapSense_DeepSleepCallback
 884              		.code	16
 885              		.thumb_func
 886              		.type	CapSense_DeepSleepCallback, %function
 887              	CapSense_DeepSleepCallback:
 888              	.LFB176:
 855:Generated_Source\PSoC6/CapSense_Control.c ****     return(CapSense_SwitchPowerModeCallback(callbackParams));
 889              		.loc 1 855 0
 890              		.cfi_startproc
 891              		@ args = 0, pretend = 0, frame = 0
 892              		@ frame_needed = 0, uses_anonymous_args = 0
 893              	.LVL126:
 894 0000 10B5     		push	{r4, lr}
 895              		.cfi_def_cfa_offset 8
 896              		.cfi_offset 4, -8
 897              		.cfi_offset 14, -4
 856:Generated_Source\PSoC6/CapSense_Control.c **** }
 898              		.loc 1 856 0
 899 0002 FFF7FEFF 		bl	CapSense_SwitchPowerModeCallback
 900              	.LVL127:
 857:Generated_Source\PSoC6/CapSense_Control.c **** 
 901              		.loc 1 857 0
 902              		@ sp needed
 903 0006 10BD     		pop	{r4, pc}
 904              		.cfi_endproc
 905              	.LFE176:
 906              		.size	CapSense_DeepSleepCallback, .-CapSense_DeepSleepCallback
 907              		.section	.text.CapSense_EnterLowPowerCallback,"ax",%progbits
 908              		.align	2
 909              		.global	CapSense_EnterLowPowerCallback
 910              		.code	16
 911              		.thumb_func
 912              		.type	CapSense_EnterLowPowerCallback, %function
 913              	CapSense_EnterLowPowerCallback:
 914              	.LFB177:
 900:Generated_Source\PSoC6/CapSense_Control.c ****     return(CapSense_SwitchPowerModeCallback(callbackParams));
 915              		.loc 1 900 0
 916              		.cfi_startproc
 917              		@ args = 0, pretend = 0, frame = 0
 918              		@ frame_needed = 0, uses_anonymous_args = 0
 919              	.LVL128:
 920 0000 10B5     		push	{r4, lr}
ARM GAS  C:\Users\Agentos\AppData\Local\Temp\ccHXniwf.s 			page 37


 921              		.cfi_def_cfa_offset 8
 922              		.cfi_offset 4, -8
 923              		.cfi_offset 14, -4
 901:Generated_Source\PSoC6/CapSense_Control.c **** }
 924              		.loc 1 901 0
 925 0002 FFF7FEFF 		bl	CapSense_SwitchPowerModeCallback
 926              	.LVL129:
 902:Generated_Source\PSoC6/CapSense_Control.c **** 
 927              		.loc 1 902 0
 928              		@ sp needed
 929 0006 10BD     		pop	{r4, pc}
 930              		.cfi_endproc
 931              	.LFE177:
 932              		.size	CapSense_EnterLowPowerCallback, .-CapSense_EnterLowPowerCallback
 933              		.section	.text.CapSense_ExitLowPowerCallback,"ax",%progbits
 934              		.align	2
 935              		.global	CapSense_ExitLowPowerCallback
 936              		.code	16
 937              		.thumb_func
 938              		.type	CapSense_ExitLowPowerCallback, %function
 939              	CapSense_ExitLowPowerCallback:
 940              	.LFB178:
 945:Generated_Source\PSoC6/CapSense_Control.c ****     return(CapSense_SwitchPowerModeCallback(callbackParams));
 941              		.loc 1 945 0
 942              		.cfi_startproc
 943              		@ args = 0, pretend = 0, frame = 0
 944              		@ frame_needed = 0, uses_anonymous_args = 0
 945              	.LVL130:
 946 0000 10B5     		push	{r4, lr}
 947              		.cfi_def_cfa_offset 8
 948              		.cfi_offset 4, -8
 949              		.cfi_offset 14, -4
 946:Generated_Source\PSoC6/CapSense_Control.c **** }
 950              		.loc 1 946 0
 951 0002 FFF7FEFF 		bl	CapSense_SwitchPowerModeCallback
 952              	.LVL131:
 947:Generated_Source\PSoC6/CapSense_Control.c **** 
 953              		.loc 1 947 0
 954              		@ sp needed
 955 0006 10BD     		pop	{r4, pc}
 956              		.cfi_endproc
 957              	.LFE178:
 958              		.size	CapSense_ExitLowPowerCallback, .-CapSense_ExitLowPowerCallback
 959              		.section	.rodata.str1.4,"aMS",%progbits,1
 960              		.align	2
 961              	.LC5:
 962 0000 47656E65 		.ascii	"Generated_Source\\PSoC6\\CapSense_Control.c\000"
 962      72617465 
 962      645F536F 
 962      75726365 
 962      5C50536F 
 963              		.bss
 964              		.set	.LANCHOR0,. + 0
 965              		.type	CapSense_InitVar, %object
 966              		.size	CapSense_InitVar, 1
 967              	CapSense_InitVar:
 968 0000 00       		.space	1
ARM GAS  C:\Users\Agentos\AppData\Local\Temp\ccHXniwf.s 			page 38


 969              		.text
 970              	.Letext0:
 971              		.file 2 "c:\\program files (x86)\\cypress\\psoc creator\\4.2\\psoc creator\\import\\gnu\\arm\\5.4.
 972              		.file 3 "c:\\program files (x86)\\cypress\\psoc creator\\4.2\\psoc creator\\import\\gnu\\arm\\5.4.
 973              		.file 4 "Generated_Source\\PSoC6\\pdl\\drivers/peripheral/syslib/cy_syslib.h"
 974              		.file 5 "Generated_Source\\PSoC6\\pdl\\drivers/peripheral/syspm/cy_syspm.h"
 975              		.file 6 "Generated_Source\\PSoC6\\CapSense_Configuration.h"
 976              		.file 7 "Generated_Source\\PSoC6\\CapSense_SmartSense_LL.h"
 977              		.file 8 "Generated_Source\\PSoC6\\CapSense_TMG.h"
 978              		.file 9 "Generated_Source\\PSoC6\\CapSense_Structure.h"
 979              		.file 10 "Generated_Source\\PSoC6\\CapSense_Sensing.h"
 980              		.file 11 "Generated_Source\\PSoC6\\CapSense_Tuner.h"
 981              		.file 12 "Generated_Source\\PSoC6\\CapSense_Processing.h"
 982              		.file 13 "Generated_Source\\PSoC6\\CapSense_Filter.h"
 983              		.file 14 "Generated_Source\\PSoC6\\CapSense_Gesture.h"