ARM GAS  C:\Users\cypress\AppData\Local\Temp\cc6xjuAE.s 			page 1


   1              		.syntax unified
   2              		.cpu cortex-m0plus
   3              		.fpu softvfp
   4              		.eabi_attribute 20, 1
   5              		.eabi_attribute 21, 1
   6              		.eabi_attribute 23, 3
   7              		.eabi_attribute 24, 1
   8              		.eabi_attribute 25, 1
   9              		.eabi_attribute 26, 1
  10              		.eabi_attribute 30, 1
  11              		.eabi_attribute 34, 0
  12              		.eabi_attribute 18, 4
  13              		.thumb
  14              		.syntax unified
  15              		.file	"cy_eink_library.c"
  16              		.text
  17              	.Ltext0:
  18              		.cfi_sections	.debug_frame
  19              		.section	.text.Cy_EINK_Start,"ax",%progbits
  20              		.align	2
  21              		.global	Cy_EINK_Start
  22              		.code	16
  23              		.thumb_func
  24              		.type	Cy_EINK_Start, %function
  25              	Cy_EINK_Start:
  26              	.LFB451:
  27              		.file 1 "..\\..\\..\\..\\..\\other\\cy_eink_library.c"
   1:..\..\..\..\..\other/cy_eink_library.c **** /******************************************************************************
   2:..\..\..\..\..\other/cy_eink_library.c **** * File Name: cy_eink_library.c
   3:..\..\..\..\..\other/cy_eink_library.c **** *
   4:..\..\..\..\..\other/cy_eink_library.c **** * Version: 1.00
   5:..\..\..\..\..\other/cy_eink_library.c **** *
   6:..\..\..\..\..\other/cy_eink_library.c **** * Description: This file contains the library functions for controlling
   7:..\..\..\..\..\other/cy_eink_library.c **** *              the E-INK display.
   8:..\..\..\..\..\other/cy_eink_library.c **** *
   9:..\..\..\..\..\other/cy_eink_library.c **** * Hardware Dependency: CY8CKIT-028-EPD E-INK Display Shield
  10:..\..\..\..\..\other/cy_eink_library.c **** *
  11:..\..\..\..\..\other/cy_eink_library.c **** *******************************************************************************
  12:..\..\..\..\..\other/cy_eink_library.c **** * Copyright (2018), Cypress Semiconductor Corporation. All rights reserved.
  13:..\..\..\..\..\other/cy_eink_library.c **** *******************************************************************************
  14:..\..\..\..\..\other/cy_eink_library.c **** * This software, including source code, documentation and related materials
  15:..\..\..\..\..\other/cy_eink_library.c **** * (“Software”), is owned by Cypress Semiconductor Corporation or one of its
  16:..\..\..\..\..\other/cy_eink_library.c **** * subsidiaries (“Cypress”) and is protected by and subject to worldwide patent
  17:..\..\..\..\..\other/cy_eink_library.c **** * protection (United States and foreign), United States copyright laws and
  18:..\..\..\..\..\other/cy_eink_library.c **** * international treaty provisions. Therefore, you may use this Software only
  19:..\..\..\..\..\other/cy_eink_library.c **** * as provided in the license agreement accompanying the software package from
  20:..\..\..\..\..\other/cy_eink_library.c **** * which you obtained this Software (“EULA”).
  21:..\..\..\..\..\other/cy_eink_library.c **** *
  22:..\..\..\..\..\other/cy_eink_library.c **** * If no EULA applies, Cypress hereby grants you a personal, nonexclusive,
  23:..\..\..\..\..\other/cy_eink_library.c **** * non-transferable license to copy, modify, and compile the Software source
  24:..\..\..\..\..\other/cy_eink_library.c **** * code solely for use in connection with Cypress’s integrated circuit products.
  25:..\..\..\..\..\other/cy_eink_library.c **** * Any reproduction, modification, translation, compilation, or representation
  26:..\..\..\..\..\other/cy_eink_library.c **** * of this Software except as specified above is prohibited without the express
  27:..\..\..\..\..\other/cy_eink_library.c **** * written permission of Cypress.
  28:..\..\..\..\..\other/cy_eink_library.c **** *
  29:..\..\..\..\..\other/cy_eink_library.c **** * Disclaimer: THIS SOFTWARE IS PROVIDED AS-IS, WITH NO WARRANTY OF ANY KIND, 
  30:..\..\..\..\..\other/cy_eink_library.c **** * EXPRESS OR IMPLIED, INCLUDING, BUT NOT LIMITED TO, NONINFRINGEMENT, IMPLIED 
ARM GAS  C:\Users\cypress\AppData\Local\Temp\cc6xjuAE.s 			page 2


  31:..\..\..\..\..\other/cy_eink_library.c **** * WARRANTIES OF MERCHANTABILITY AND FITNESS FOR A PARTICULAR PURPOSE. Cypress 
  32:..\..\..\..\..\other/cy_eink_library.c **** * reserves the right to make changes to the Software without notice. Cypress 
  33:..\..\..\..\..\other/cy_eink_library.c **** * does not assume any liability arising out of the application or use of the 
  34:..\..\..\..\..\other/cy_eink_library.c **** * Software or any product or circuit described in the Software. Cypress does 
  35:..\..\..\..\..\other/cy_eink_library.c **** * not authorize its products for use in any products where a malfunction or 
  36:..\..\..\..\..\other/cy_eink_library.c **** * failure of the Cypress product may reasonably be expected to result in 
  37:..\..\..\..\..\other/cy_eink_library.c **** * significant property damage, injury or death (“High Risk Product”). By 
  38:..\..\..\..\..\other/cy_eink_library.c **** * including Cypress’s product in a High Risk Product, the manufacturer of such 
  39:..\..\..\..\..\other/cy_eink_library.c **** * system or application assumes all risk of such use and in doing so agrees to 
  40:..\..\..\..\..\other/cy_eink_library.c **** * indemnify Cypress against all liability.
  41:..\..\..\..\..\other/cy_eink_library.c **** *******************************************************************************/
  42:..\..\..\..\..\other/cy_eink_library.c **** /******************************************************************************
  43:..\..\..\..\..\other/cy_eink_library.c **** * This file contains the library functions for controlling the E-INK display.
  44:..\..\..\..\..\other/cy_eink_library.c **** *
  45:..\..\..\..\..\other/cy_eink_library.c **** * For the details of the E-INK display and library functions, see the code  
  46:..\..\..\..\..\other/cy_eink_library.c **** * example document of CE218133 - PSoC 6 MCU E-INK Display with CapSense
  47:..\..\..\..\..\other/cy_eink_library.c **** *
  48:..\..\..\..\..\other/cy_eink_library.c **** * For the details of E-INK display hardware and driver interface, see the 
  49:..\..\..\..\..\other/cy_eink_library.c **** * documents available at the following website:
  50:..\..\..\..\..\other/cy_eink_library.c **** * http://www.pervasivedisplays.com/products/271
  51:..\..\..\..\..\other/cy_eink_library.c ****  *******************************************************************************/
  52:..\..\..\..\..\other/cy_eink_library.c **** 
  53:..\..\..\..\..\other/cy_eink_library.c **** /* Header file includes */
  54:..\..\..\..\..\other/cy_eink_library.c **** #include "cy_eink_library.h"
  55:..\..\..\..\..\other/cy_eink_library.c **** 
  56:..\..\..\..\..\other/cy_eink_library.c **** /* Range of ASCII printable characters: "!" to "~" */
  57:..\..\..\..\..\other/cy_eink_library.c **** #define CY_EINK_ASCII_MIN   (uint8_t) (0x21)
  58:..\..\..\..\..\other/cy_eink_library.c **** #define CY_EINK_ASCII_MAX   (uint8_t) (0x7E)
  59:..\..\..\..\..\other/cy_eink_library.c **** 
  60:..\..\..\..\..\other/cy_eink_library.c **** /* Range of image byte coordinates */
  61:..\..\..\..\..\other/cy_eink_library.c **** #define CY_EINK_IMAGE_X_MAX (uint8_t) (33u)
  62:..\..\..\..\..\other/cy_eink_library.c **** #define CY_EINK_IMAGE_Y_MAX (uint8_t) (175u)
  63:..\..\..\..\..\other/cy_eink_library.c **** 
  64:..\..\..\..\..\other/cy_eink_library.c **** /*******************************************************************************
  65:..\..\..\..\..\other/cy_eink_library.c **** * Function Name: cy_eink_api_result Cy_EINK_Start(int8_t temperature,
  66:..\..\..\..\..\other/cy_eink_library.c **** *                                       cy_eink_delay_function_t delayFunction)
  67:..\..\..\..\..\other/cy_eink_library.c **** ********************************************************************************
  68:..\..\..\..\..\other/cy_eink_library.c **** *
  69:..\..\..\..\..\other/cy_eink_library.c **** * Summary: Initialize the E-INK display hardware, starts the required PSoC 
  70:..\..\..\..\..\other/cy_eink_library.c **** *  components, and also performs temperature compensation of E-INK parameters.
  71:..\..\..\..\..\other/cy_eink_library.c **** *
  72:..\..\..\..\..\other/cy_eink_library.c **** *  Note: This function does not turn on the E-INK display.
  73:..\..\..\..\..\other/cy_eink_library.c **** *
  74:..\..\..\..\..\other/cy_eink_library.c **** * Parameters:
  75:..\..\..\..\..\other/cy_eink_library.c **** *  int8_t temperature       : Ambient temperature in degree Celsius
  76:..\..\..\..\..\other/cy_eink_library.c **** *  cy_eink_delay_function_t : Pointer to a delay function that accepts
  77:..\..\..\..\..\other/cy_eink_library.c **** *                             delay in milliseconds (uint32_t type)                         
  78:..\..\..\..\..\other/cy_eink_library.c **** *
  79:..\..\..\..\..\other/cy_eink_library.c **** * Return:
  80:..\..\..\..\..\other/cy_eink_library.c **** *  None
  81:..\..\..\..\..\other/cy_eink_library.c **** *
  82:..\..\..\..\..\other/cy_eink_library.c **** * Side Effects:
  83:..\..\..\..\..\other/cy_eink_library.c **** *  Lower ambient temperature results in higher refresh times
  84:..\..\..\..\..\other/cy_eink_library.c **** *
  85:..\..\..\..\..\other/cy_eink_library.c **** *******************************************************************************/
  86:..\..\..\..\..\other/cy_eink_library.c **** cy_eink_api_result Cy_EINK_Start(int8_t temperature,
  87:..\..\..\..\..\other/cy_eink_library.c ****                                  cy_eink_delay_function_t delayFunction)
ARM GAS  C:\Users\cypress\AppData\Local\Temp\cc6xjuAE.s 			page 3


  88:..\..\..\..\..\other/cy_eink_library.c **** {
  28              		.loc 1 88 0
  29              		.cfi_startproc
  30              		@ args = 0, pretend = 0, frame = 0
  31              		@ frame_needed = 0, uses_anonymous_args = 0
  32              	.LVL0:
  33 0000 10B5     		push	{r4, lr}
  34              		.cfi_def_cfa_offset 8
  35              		.cfi_offset 4, -8
  36              		.cfi_offset 14, -4
  37 0002 0400     		movs	r4, r0
  89:..\..\..\..\..\other/cy_eink_library.c ****     /* Variable to store the return value */
  90:..\..\..\..\..\other/cy_eink_library.c ****     cy_eink_api_result returnValue;
  91:..\..\..\..\..\other/cy_eink_library.c ****     
  92:..\..\..\..\..\other/cy_eink_library.c ****     /* Make sure that the function pointer parameter is not NULL */
  93:..\..\..\..\..\other/cy_eink_library.c ****     if(delayFunction != NULL)
  38              		.loc 1 93 0
  39 0004 0029     		cmp	r1, #0
  40 0006 09D0     		beq	.L3
  94:..\..\..\..\..\other/cy_eink_library.c ****     {
  95:..\..\..\..\..\other/cy_eink_library.c ****         /* Register the callback function for EINK delay in milliseconds */
  96:..\..\..\..\..\other/cy_eink_library.c ****         Cy_EINK_RegisterDelayFunction(delayFunction);
  41              		.loc 1 96 0
  42 0008 0800     		movs	r0, r1
  43              	.LVL1:
  44 000a FFF7FEFF 		bl	Cy_EINK_RegisterDelayFunction
  45              	.LVL2:
  97:..\..\..\..\..\other/cy_eink_library.c ****         
  98:..\..\..\..\..\other/cy_eink_library.c ****         /* Initialize the E-INK display hardware and associated PSoC
  99:..\..\..\..\..\other/cy_eink_library.c ****            components */
 100:..\..\..\..\..\other/cy_eink_library.c ****         Pv_EINK_Init();
  46              		.loc 1 100 0
  47 000e FFF7FEFF 		bl	Pv_EINK_Init
  48              	.LVL3:
 101:..\..\..\..\..\other/cy_eink_library.c ****         /* Perform temperature compensation of E-INK parameters */
 102:..\..\..\..\..\other/cy_eink_library.c ****         Pv_EINK_SetTempFactor(temperature);
  49              		.loc 1 102 0
  50 0012 2000     		movs	r0, r4
  51 0014 FFF7FEFF 		bl	Pv_EINK_SetTempFactor
  52              	.LVL4:
 103:..\..\..\..\..\other/cy_eink_library.c ****         
 104:..\..\..\..\..\other/cy_eink_library.c ****         /* Return success */
 105:..\..\..\..\..\other/cy_eink_library.c ****         returnValue = CY_EINK_SUCCESS;
  53              		.loc 1 105 0
  54 0018 0020     		movs	r0, #0
  55 001a 00E0     		b	.L2
  56              	.LVL5:
  57              	.L3:
 106:..\..\..\..\..\other/cy_eink_library.c ****     }
 107:..\..\..\..\..\other/cy_eink_library.c ****     else
 108:..\..\..\..\..\other/cy_eink_library.c ****     {
 109:..\..\..\..\..\other/cy_eink_library.c ****         /* Return failure */
 110:..\..\..\..\..\other/cy_eink_library.c ****         returnValue = CY_EINK_FAILURE;
  58              		.loc 1 110 0
  59 001c 0120     		movs	r0, #1
  60              	.LVL6:
  61              	.L2:
ARM GAS  C:\Users\cypress\AppData\Local\Temp\cc6xjuAE.s 			page 4


 111:..\..\..\..\..\other/cy_eink_library.c ****     }
 112:..\..\..\..\..\other/cy_eink_library.c ****     
 113:..\..\..\..\..\other/cy_eink_library.c ****     return returnValue;
 114:..\..\..\..\..\other/cy_eink_library.c **** }
  62              		.loc 1 114 0
  63              		@ sp needed
  64 001e 10BD     		pop	{r4, pc}
  65              		.cfi_endproc
  66              	.LFE451:
  67              		.size	Cy_EINK_Start, .-Cy_EINK_Start
  68              		.section	.text.Cy_EINK_Power,"ax",%progbits
  69              		.align	2
  70              		.global	Cy_EINK_Power
  71              		.code	16
  72              		.thumb_func
  73              		.type	Cy_EINK_Power, %function
  74              	Cy_EINK_Power:
  75              	.LFB452:
 115:..\..\..\..\..\other/cy_eink_library.c **** 
 116:..\..\..\..\..\other/cy_eink_library.c **** /*******************************************************************************
 117:..\..\..\..\..\other/cy_eink_library.c **** * Function Name: cy_eink_api_result Cy_EINK_Power(bool powerCtrl)
 118:..\..\..\..\..\other/cy_eink_library.c **** ********************************************************************************
 119:..\..\..\..\..\other/cy_eink_library.c **** *
 120:..\..\..\..\..\other/cy_eink_library.c **** * Summary: This function is used to turn on/off the E-INK display power.
 121:..\..\..\..\..\other/cy_eink_library.c **** *
 122:..\..\..\..\..\other/cy_eink_library.c **** *  Note: This function can not be used to clear the E-INK display. The display 
 123:..\..\..\..\..\other/cy_eink_library.c **** *  will retain the previously written frame even when it's turned off.
 124:..\..\..\..\..\other/cy_eink_library.c **** *
 125:..\..\..\..\..\other/cy_eink_library.c **** * Parameters:
 126:..\..\..\..\..\other/cy_eink_library.c **** *  bool powerCtrl       : "False" turns off and "True" turns on the display.
 127:..\..\..\..\..\other/cy_eink_library.c **** *
 128:..\..\..\..\..\other/cy_eink_library.c **** * Return:
 129:..\..\..\..\..\other/cy_eink_library.c **** *  cy_eink_api_result   : "CY_EINK_SUCCESS" if operation was successful;
 130:..\..\..\..\..\other/cy_eink_library.c **** *                         "CY_EINK_FAILURE" otherwise
 131:..\..\..\..\..\other/cy_eink_library.c **** *
 132:..\..\..\..\..\other/cy_eink_library.c **** * Side Effects:
 133:..\..\..\..\..\other/cy_eink_library.c **** *  None
 134:..\..\..\..\..\other/cy_eink_library.c **** *
 135:..\..\..\..\..\other/cy_eink_library.c **** *******************************************************************************/
 136:..\..\..\..\..\other/cy_eink_library.c **** cy_eink_api_result Cy_EINK_Power(bool powerCtrl)
 137:..\..\..\..\..\other/cy_eink_library.c **** {
  76              		.loc 1 137 0
  77              		.cfi_startproc
  78              		@ args = 0, pretend = 0, frame = 0
  79              		@ frame_needed = 0, uses_anonymous_args = 0
  80              	.LVL7:
  81 0000 10B5     		push	{r4, lr}
  82              		.cfi_def_cfa_offset 8
  83              		.cfi_offset 4, -8
  84              		.cfi_offset 14, -4
 138:..\..\..\..\..\other/cy_eink_library.c ****     /* Variable to store operation status */
 139:..\..\..\..\..\other/cy_eink_library.c ****     pv_eink_status_t pwrStatus;
 140:..\..\..\..\..\other/cy_eink_library.c ****     cy_eink_api_result returnValue;
 141:..\..\..\..\..\other/cy_eink_library.c ****     
 142:..\..\..\..\..\other/cy_eink_library.c ****     /* Turn on the E-INK power if powerCtrl is "true" */
 143:..\..\..\..\..\other/cy_eink_library.c ****     if (powerCtrl == CY_EINK_ON)
  85              		.loc 1 143 0
ARM GAS  C:\Users\cypress\AppData\Local\Temp\cc6xjuAE.s 			page 5


  86 0002 0028     		cmp	r0, #0
  87 0004 02D0     		beq	.L5
 144:..\..\..\..\..\other/cy_eink_library.c ****     {
 145:..\..\..\..\..\other/cy_eink_library.c ****         pwrStatus = Pv_EINK_HardwarePowerOn();
  88              		.loc 1 145 0
  89 0006 FFF7FEFF 		bl	Pv_EINK_HardwarePowerOn
  90              	.LVL8:
  91 000a 01E0     		b	.L6
  92              	.LVL9:
  93              	.L5:
 146:..\..\..\..\..\other/cy_eink_library.c ****     }
 147:..\..\..\..\..\other/cy_eink_library.c ****     /* Turn off the E-INK power if powerCtrl is "false" */
 148:..\..\..\..\..\other/cy_eink_library.c ****     else
 149:..\..\..\..\..\other/cy_eink_library.c ****     {
 150:..\..\..\..\..\other/cy_eink_library.c ****         pwrStatus = Pv_EINK_HardwarePowerOff();
  94              		.loc 1 150 0
  95 000c FFF7FEFF 		bl	Pv_EINK_HardwarePowerOff
  96              	.LVL10:
  97              	.L6:
 151:..\..\..\..\..\other/cy_eink_library.c ****     }
 152:..\..\..\..\..\other/cy_eink_library.c ****     /* If the operation was successful, return "true" */
 153:..\..\..\..\..\other/cy_eink_library.c ****     if (pwrStatus == PV_EINK_RES_OK)
  98              		.loc 1 153 0
  99 0010 0028     		cmp	r0, #0
 100 0012 00D0     		beq	.L7
 154:..\..\..\..\..\other/cy_eink_library.c ****     {
 155:..\..\..\..\..\other/cy_eink_library.c ****         returnValue = CY_EINK_SUCCESS;
 156:..\..\..\..\..\other/cy_eink_library.c ****     }
 157:..\..\..\..\..\other/cy_eink_library.c ****     /* If the operation was not successful, return "false" */
 158:..\..\..\..\..\other/cy_eink_library.c ****     else
 159:..\..\..\..\..\other/cy_eink_library.c ****     {
 160:..\..\..\..\..\other/cy_eink_library.c ****         returnValue = CY_EINK_FAILURE;
 101              		.loc 1 160 0
 102 0014 0120     		movs	r0, #1
 103              	.LVL11:
 104              	.L7:
 161:..\..\..\..\..\other/cy_eink_library.c ****     }
 162:..\..\..\..\..\other/cy_eink_library.c ****     
 163:..\..\..\..\..\other/cy_eink_library.c ****     /* Return the outcome of the power control operation */
 164:..\..\..\..\..\other/cy_eink_library.c ****     return (returnValue);
 165:..\..\..\..\..\other/cy_eink_library.c **** }
 105              		.loc 1 165 0
 106              		@ sp needed
 107 0016 10BD     		pop	{r4, pc}
 108              		.cfi_endproc
 109              	.LFE452:
 110              		.size	Cy_EINK_Power, .-Cy_EINK_Power
 111              		.section	.text.Cy_EINK_Clear,"ax",%progbits
 112              		.align	2
 113              		.global	Cy_EINK_Clear
 114              		.code	16
 115              		.thumb_func
 116              		.type	Cy_EINK_Clear, %function
 117              	Cy_EINK_Clear:
 118              	.LFB453:
 166:..\..\..\..\..\other/cy_eink_library.c **** 
 167:..\..\..\..\..\other/cy_eink_library.c **** /*******************************************************************************
ARM GAS  C:\Users\cypress\AppData\Local\Temp\cc6xjuAE.s 			page 6


 168:..\..\..\..\..\other/cy_eink_library.c **** * Function Name: void Cy_EINK_Clear(bool background, bool powerCycle)
 169:..\..\..\..\..\other/cy_eink_library.c **** ********************************************************************************
 170:..\..\..\..\..\other/cy_eink_library.c **** *
 171:..\..\..\..\..\other/cy_eink_library.c **** * Summary: This function is used to clear the display to all white or all black
 172:..\..\..\..\..\other/cy_eink_library.c **** *  pixels.
 173:..\..\..\..\..\other/cy_eink_library.c **** *
 174:..\..\..\..\..\other/cy_eink_library.c **** *  Note1: The E-INK display should be powered on (using Cy_EINK_Power function) 
 175:..\..\..\..\..\other/cy_eink_library.c **** *  before calling this function if "powerCycle" is false. Otherwise the display 
 176:..\..\..\..\..\other/cy_eink_library.c **** *  won't be cleared.
 177:..\..\..\..\..\other/cy_eink_library.c **** *
 178:..\..\..\..\..\other/cy_eink_library.c **** *  Note2: This function is intended to be called only after a reset/power up.
 179:..\..\..\..\..\other/cy_eink_library.c **** *  Use Cy_EINK_ShowFrame() function to clear the display if you know the frame
 180:..\..\..\..\..\other/cy_eink_library.c **** *  that has been written to the display.
 181:..\..\..\..\..\other/cy_eink_library.c **** *
 182:..\..\..\..\..\other/cy_eink_library.c **** * Parameters:
 183:..\..\..\..\..\other/cy_eink_library.c **** *  bool background   : False for black background and True for white background.
 184:..\..\..\..\..\other/cy_eink_library.c **** *  bool powerCycle   : True for automatic power cycle. False otherwise
 185:..\..\..\..\..\other/cy_eink_library.c **** * 
 186:..\..\..\..\..\other/cy_eink_library.c **** * Return:
 187:..\..\..\..\..\other/cy_eink_library.c **** *  None
 188:..\..\..\..\..\other/cy_eink_library.c **** *
 189:..\..\..\..\..\other/cy_eink_library.c **** * Side Effects:
 190:..\..\..\..\..\other/cy_eink_library.c **** *  This is a blocking function that can take as many as 2 seconds 
 191:..\..\..\..\..\other/cy_eink_library.c **** *
 192:..\..\..\..\..\other/cy_eink_library.c **** *******************************************************************************/
 193:..\..\..\..\..\other/cy_eink_library.c **** void Cy_EINK_Clear(bool background, bool powerCycle)
 194:..\..\..\..\..\other/cy_eink_library.c **** {
 119              		.loc 1 194 0
 120              		.cfi_startproc
 121              		@ args = 0, pretend = 0, frame = 0
 122              		@ frame_needed = 0, uses_anonymous_args = 0
 123              	.LVL12:
 124 0000 70B5     		push	{r4, r5, r6, lr}
 125              		.cfi_def_cfa_offset 16
 126              		.cfi_offset 4, -16
 127              		.cfi_offset 5, -12
 128              		.cfi_offset 6, -8
 129              		.cfi_offset 14, -4
 130 0002 0500     		movs	r5, r0
 131 0004 0C1E     		subs	r4, r1, #0
 195:..\..\..\..\..\other/cy_eink_library.c ****     /* If power cycle operation requested, turn on E-INK power */
 196:..\..\..\..\..\other/cy_eink_library.c ****     if (powerCycle)
 132              		.loc 1 196 0
 133 0006 02D0     		beq	.L10
 197:..\..\..\..\..\other/cy_eink_library.c ****     {
 198:..\..\..\..\..\other/cy_eink_library.c ****         Cy_EINK_Power(CY_EINK_ON);
 134              		.loc 1 198 0
 135 0008 0120     		movs	r0, #1
 136              	.LVL13:
 137 000a FFF7FEFF 		bl	Cy_EINK_Power
 138              	.LVL14:
 139              	.L10:
 199:..\..\..\..\..\other/cy_eink_library.c ****     }
 200:..\..\..\..\..\other/cy_eink_library.c ****     /* Clear the display to white background */
 201:..\..\..\..\..\other/cy_eink_library.c ****     if (background == CY_EINK_WHITE_BACKGROUND)
 140              		.loc 1 201 0
 141 000e 002D     		cmp	r5, #0
ARM GAS  C:\Users\cypress\AppData\Local\Temp\cc6xjuAE.s 			page 7


 142 0010 08D0     		beq	.L11
 202:..\..\..\..\..\other/cy_eink_library.c ****     {
 203:..\..\..\..\..\other/cy_eink_library.c ****         /* Two consecutive display updates to reduce ghosting */
 204:..\..\..\..\..\other/cy_eink_library.c ****         Pv_EINK_FullStageHandler(CY_EINK_WHITE_FRAME, PV_EINK_STAGE4);
 143              		.loc 1 204 0
 144 0012 0321     		movs	r1, #3
 145 0014 0020     		movs	r0, #0
 146 0016 FFF7FEFF 		bl	Pv_EINK_FullStageHandler
 147              	.LVL15:
 205:..\..\..\..\..\other/cy_eink_library.c ****         Pv_EINK_FullStageHandler(CY_EINK_WHITE_FRAME, PV_EINK_STAGE4);
 148              		.loc 1 205 0
 149 001a 0321     		movs	r1, #3
 150 001c 0020     		movs	r0, #0
 151 001e FFF7FEFF 		bl	Pv_EINK_FullStageHandler
 152              	.LVL16:
 153 0022 0AE0     		b	.L12
 154              	.L11:
 206:..\..\..\..\..\other/cy_eink_library.c ****     }
 207:..\..\..\..\..\other/cy_eink_library.c ****     /* Clear the display to black background */
 208:..\..\..\..\..\other/cy_eink_library.c ****     else if (background == CY_EINK_BLACK_BACKGROUND)
 155              		.loc 1 208 0
 156 0024 002D     		cmp	r5, #0
 157 0026 08D1     		bne	.L12
 209:..\..\..\..\..\other/cy_eink_library.c ****     {
 210:..\..\..\..\..\other/cy_eink_library.c ****         /* Two consecutive display updates to reduce ghosting */
 211:..\..\..\..\..\other/cy_eink_library.c ****         Pv_EINK_FullStageHandler(CY_EINK_BLACK_FRAME, PV_EINK_STAGE4);
 158              		.loc 1 211 0
 159 0028 074D     		ldr	r5, .L14
 160 002a 0321     		movs	r1, #3
 161 002c 2800     		movs	r0, r5
 162 002e FFF7FEFF 		bl	Pv_EINK_FullStageHandler
 163              	.LVL17:
 212:..\..\..\..\..\other/cy_eink_library.c ****         Pv_EINK_FullStageHandler(CY_EINK_BLACK_FRAME, PV_EINK_STAGE4);
 164              		.loc 1 212 0
 165 0032 0321     		movs	r1, #3
 166 0034 2800     		movs	r0, r5
 167 0036 FFF7FEFF 		bl	Pv_EINK_FullStageHandler
 168              	.LVL18:
 169              	.L12:
 213:..\..\..\..\..\other/cy_eink_library.c ****     }
 214:..\..\..\..\..\other/cy_eink_library.c ****     else
 215:..\..\..\..\..\other/cy_eink_library.c ****     {
 216:..\..\..\..\..\other/cy_eink_library.c ****     }
 217:..\..\..\..\..\other/cy_eink_library.c ****     
 218:..\..\..\..\..\other/cy_eink_library.c ****     /* If power cycle operation requested, turn off E-INK power */
 219:..\..\..\..\..\other/cy_eink_library.c ****     if (powerCycle)
 170              		.loc 1 219 0
 171 003a 002C     		cmp	r4, #0
 172 003c 02D0     		beq	.L9
 220:..\..\..\..\..\other/cy_eink_library.c ****     {
 221:..\..\..\..\..\other/cy_eink_library.c ****         Cy_EINK_Power(CY_EINK_OFF);
 173              		.loc 1 221 0
 174 003e 0020     		movs	r0, #0
 175 0040 FFF7FEFF 		bl	Cy_EINK_Power
 176              	.LVL19:
 177              	.L9:
 222:..\..\..\..\..\other/cy_eink_library.c ****     }
ARM GAS  C:\Users\cypress\AppData\Local\Temp\cc6xjuAE.s 			page 8


 223:..\..\..\..\..\other/cy_eink_library.c **** }
 178              		.loc 1 223 0
 179              		@ sp needed
 180 0044 70BD     		pop	{r4, r5, r6, pc}
 181              	.L15:
 182 0046 C046     		.align	2
 183              	.L14:
 184 0048 FFFF0F10 		.word	269484031
 185              		.cfi_endproc
 186              	.LFE453:
 187              		.size	Cy_EINK_Clear, .-Cy_EINK_Clear
 188              		.section	.text.Cy_EINK_ShowFrame,"ax",%progbits
 189              		.align	2
 190              		.global	Cy_EINK_ShowFrame
 191              		.code	16
 192              		.thumb_func
 193              		.type	Cy_EINK_ShowFrame, %function
 194              	Cy_EINK_ShowFrame:
 195              	.LFB454:
 224:..\..\..\..\..\other/cy_eink_library.c **** 
 225:..\..\..\..\..\other/cy_eink_library.c **** /*******************************************************************************
 226:..\..\..\..\..\other/cy_eink_library.c **** * Function Name: void Cy_EINK_ShowFrame(cy_eink_frame_t* prevFrame, 
 227:..\..\..\..\..\other/cy_eink_library.c **** *      cy_eink_frame_t* newFrame,CY_EINK_UpdateType updateType, bool powerCycle)
 228:..\..\..\..\..\other/cy_eink_library.c **** ********************************************************************************
 229:..\..\..\..\..\other/cy_eink_library.c **** *
 230:..\..\..\..\..\other/cy_eink_library.c **** * Summary: Updates the E-INK display with a frame/image stored in the flash
 231:..\..\..\..\..\other/cy_eink_library.c **** *          or RAM.
 232:..\..\..\..\..\other/cy_eink_library.c **** *
 233:..\..\..\..\..\other/cy_eink_library.c **** *  Notes: This function requires the previous frame data as well as the new 
 234:..\..\..\..\..\other/cy_eink_library.c **** *  frame data. If the previous frame data changes from the actual frame 
 235:..\..\..\..\..\other/cy_eink_library.c **** *  previously written to the display, considerable ghosting may occur.
 236:..\..\..\..\..\other/cy_eink_library.c **** *
 237:..\..\..\..\..\other/cy_eink_library.c **** *  The E-INK display should be powered on (using Cy_EINK_Power function) before 
 238:..\..\..\..\..\other/cy_eink_library.c **** *  calling this function, if "powerCycle" parameter is false. Otherwise the 
 239:..\..\..\..\..\other/cy_eink_library.c **** *  display won't be updated.
 240:..\..\..\..\..\other/cy_eink_library.c **** *
 241:..\..\..\..\..\other/cy_eink_library.c **** * Parameters:
 242:..\..\..\..\..\other/cy_eink_library.c **** *  cy_eink_frame_t* prevFrame    : Pointer to the previous frame written on the 
 243:..\..\..\..\..\other/cy_eink_library.c **** *                                  display
 244:..\..\..\..\..\other/cy_eink_library.c **** *  cy_eink_frame_t* newFrame     : Pointer to the new frame that need to be
 245:..\..\..\..\..\other/cy_eink_library.c **** *                                  written
 246:..\..\..\..\..\other/cy_eink_library.c **** *  cy_eink_update_t              : Full update (2/4 stages) or  Partial update
 247:..\..\..\..\..\other/cy_eink_library.c **** *  bool powerCycle               : "true" for automatic power cycle, "false" 
 248:..\..\..\..\..\other/cy_eink_library.c **** *                                  for manual
 249:..\..\..\..\..\other/cy_eink_library.c **** *  
 250:..\..\..\..\..\other/cy_eink_library.c **** * Return:
 251:..\..\..\..\..\other/cy_eink_library.c **** *  None
 252:..\..\..\..\..\other/cy_eink_library.c **** *
 253:..\..\..\..\..\other/cy_eink_library.c **** * Side Effects:
 254:..\..\..\..\..\other/cy_eink_library.c **** *  This is a blocking function that can take as many as 2 seconds 
 255:..\..\..\..\..\other/cy_eink_library.c **** *
 256:..\..\..\..\..\other/cy_eink_library.c **** *******************************************************************************/
 257:..\..\..\..\..\other/cy_eink_library.c **** void Cy_EINK_ShowFrame(cy_eink_frame_t* prevFrame, cy_eink_frame_t* newFrame,
 258:..\..\..\..\..\other/cy_eink_library.c ****                        cy_eink_update_t updateType, bool powerCycle)
 259:..\..\..\..\..\other/cy_eink_library.c **** {
 196              		.loc 1 259 0
 197              		.cfi_startproc
ARM GAS  C:\Users\cypress\AppData\Local\Temp\cc6xjuAE.s 			page 9


 198              		@ args = 0, pretend = 0, frame = 0
 199              		@ frame_needed = 0, uses_anonymous_args = 0
 200              	.LVL20:
 201 0000 F8B5     		push	{r3, r4, r5, r6, r7, lr}
 202              		.cfi_def_cfa_offset 24
 203              		.cfi_offset 3, -24
 204              		.cfi_offset 4, -20
 205              		.cfi_offset 5, -16
 206              		.cfi_offset 6, -12
 207              		.cfi_offset 7, -8
 208              		.cfi_offset 14, -4
 209 0002 0600     		movs	r6, r0
 210 0004 0D00     		movs	r5, r1
 211 0006 1700     		movs	r7, r2
 212 0008 1C1E     		subs	r4, r3, #0
 260:..\..\..\..\..\other/cy_eink_library.c ****     /* If power cycle operation requested, turn on E-INK power */
 261:..\..\..\..\..\other/cy_eink_library.c ****     if (powerCycle)
 213              		.loc 1 261 0
 214 000a 02D0     		beq	.L17
 262:..\..\..\..\..\other/cy_eink_library.c ****     {
 263:..\..\..\..\..\other/cy_eink_library.c ****         Cy_EINK_Power(CY_EINK_ON);
 215              		.loc 1 263 0
 216 000c 0120     		movs	r0, #1
 217              	.LVL21:
 218 000e FFF7FEFF 		bl	Cy_EINK_Power
 219              	.LVL22:
 220              	.L17:
 264:..\..\..\..\..\other/cy_eink_library.c ****     }
 265:..\..\..\..\..\other/cy_eink_library.c ****     /* Partial update stage */
 266:..\..\..\..\..\other/cy_eink_library.c ****     if (updateType == CY_EINK_PARTIAL)
 221              		.loc 1 266 0
 222 0012 002F     		cmp	r7, #0
 223 0014 04D1     		bne	.L18
 267:..\..\..\..\..\other/cy_eink_library.c ****     {
 268:..\..\..\..\..\other/cy_eink_library.c ****         /* Update the display with changes from previous frame */
 269:..\..\..\..\..\other/cy_eink_library.c ****         Pv_EINK_PartialStageHandler(prevFrame, newFrame);
 224              		.loc 1 269 0
 225 0016 2900     		movs	r1, r5
 226 0018 3000     		movs	r0, r6
 227 001a FFF7FEFF 		bl	Pv_EINK_PartialStageHandler
 228              	.LVL23:
 229 001e 15E0     		b	.L19
 230              	.L18:
 270:..\..\..\..\..\other/cy_eink_library.c ****     }
 271:..\..\..\..\..\other/cy_eink_library.c ****     /* Full update stages */
 272:..\..\..\..\..\other/cy_eink_library.c ****     else if ((updateType == CY_EINK_FULL_4STAGE) || 
 231              		.loc 1 272 0
 232 0020 7B1E     		subs	r3, r7, #1
 233 0022 DBB2     		uxtb	r3, r3
 234 0024 012B     		cmp	r3, #1
 235 0026 11D8     		bhi	.L19
 273:..\..\..\..\..\other/cy_eink_library.c ****              (updateType == CY_EINK_FULL_2STAGE))
 274:..\..\..\..\..\other/cy_eink_library.c ****     {
 275:..\..\..\..\..\other/cy_eink_library.c ****         /* Stage 1: update the display with the inverted version of the previous 
 276:..\..\..\..\..\other/cy_eink_library.c ****            frame */
 277:..\..\..\..\..\other/cy_eink_library.c ****         Pv_EINK_FullStageHandler(prevFrame, PV_EINK_STAGE1);
 236              		.loc 1 277 0
ARM GAS  C:\Users\cypress\AppData\Local\Temp\cc6xjuAE.s 			page 10


 237 0028 0021     		movs	r1, #0
 238 002a 3000     		movs	r0, r6
 239 002c FFF7FEFF 		bl	Pv_EINK_FullStageHandler
 240              	.LVL24:
 278:..\..\..\..\..\other/cy_eink_library.c ****         
 279:..\..\..\..\..\other/cy_eink_library.c ****         /* Additional stages that reduce ghosting for a 4 stage full update */
 280:..\..\..\..\..\other/cy_eink_library.c ****         if (updateType == CY_EINK_FULL_4STAGE)
 241              		.loc 1 280 0
 242 0030 012F     		cmp	r7, #1
 243 0032 07D1     		bne	.L20
 281:..\..\..\..\..\other/cy_eink_library.c ****         {
 282:..\..\..\..\..\other/cy_eink_library.c ****             /* Stage 2: update the display with an all white frame */
 283:..\..\..\..\..\other/cy_eink_library.c ****             Pv_EINK_FullStageHandler(prevFrame, PV_EINK_STAGE2);
 244              		.loc 1 283 0
 245 0034 0121     		movs	r1, #1
 246 0036 3000     		movs	r0, r6
 247 0038 FFF7FEFF 		bl	Pv_EINK_FullStageHandler
 248              	.LVL25:
 284:..\..\..\..\..\other/cy_eink_library.c ****             /* Stage 3: update the display with the inverted version of the new 
 285:..\..\..\..\..\other/cy_eink_library.c ****                frame */
 286:..\..\..\..\..\other/cy_eink_library.c ****             Pv_EINK_FullStageHandler(newFrame, PV_EINK_STAGE3);
 249              		.loc 1 286 0
 250 003c 0221     		movs	r1, #2
 251 003e 2800     		movs	r0, r5
 252 0040 FFF7FEFF 		bl	Pv_EINK_FullStageHandler
 253              	.LVL26:
 254              	.L20:
 287:..\..\..\..\..\other/cy_eink_library.c ****         }
 288:..\..\..\..\..\other/cy_eink_library.c ****         
 289:..\..\..\..\..\other/cy_eink_library.c ****         /* Stage 4: update the display with the new frame */
 290:..\..\..\..\..\other/cy_eink_library.c ****         Pv_EINK_FullStageHandler(newFrame, PV_EINK_STAGE4);
 255              		.loc 1 290 0
 256 0044 0321     		movs	r1, #3
 257 0046 2800     		movs	r0, r5
 258 0048 FFF7FEFF 		bl	Pv_EINK_FullStageHandler
 259              	.LVL27:
 260              	.L19:
 291:..\..\..\..\..\other/cy_eink_library.c ****     }
 292:..\..\..\..\..\other/cy_eink_library.c ****     else
 293:..\..\..\..\..\other/cy_eink_library.c ****     {
 294:..\..\..\..\..\other/cy_eink_library.c ****     }
 295:..\..\..\..\..\other/cy_eink_library.c ****     
 296:..\..\..\..\..\other/cy_eink_library.c ****     /* If power cycle operation requested, turn off E-INK power */
 297:..\..\..\..\..\other/cy_eink_library.c ****     if (powerCycle)
 261              		.loc 1 297 0
 262 004c 002C     		cmp	r4, #0
 263 004e 02D0     		beq	.L16
 298:..\..\..\..\..\other/cy_eink_library.c ****     {
 299:..\..\..\..\..\other/cy_eink_library.c ****         Cy_EINK_Power(CY_EINK_OFF);
 264              		.loc 1 299 0
 265 0050 0020     		movs	r0, #0
 266 0052 FFF7FEFF 		bl	Cy_EINK_Power
 267              	.LVL28:
 268              	.L16:
 300:..\..\..\..\..\other/cy_eink_library.c ****     }
 301:..\..\..\..\..\other/cy_eink_library.c **** }
 269              		.loc 1 301 0
ARM GAS  C:\Users\cypress\AppData\Local\Temp\cc6xjuAE.s 			page 11


 270              		@ sp needed
 271              	.LVL29:
 272              	.LVL30:
 273 0056 F8BD     		pop	{r3, r4, r5, r6, r7, pc}
 274              		.cfi_endproc
 275              	.LFE454:
 276              		.size	Cy_EINK_ShowFrame, .-Cy_EINK_ShowFrame
 277              		.section	.text.Cy_EINK_ImageToFrameBuffer,"ax",%progbits
 278              		.align	2
 279              		.global	Cy_EINK_ImageToFrameBuffer
 280              		.code	16
 281              		.thumb_func
 282              		.type	Cy_EINK_ImageToFrameBuffer, %function
 283              	Cy_EINK_ImageToFrameBuffer:
 284              	.LFB455:
 302:..\..\..\..\..\other/cy_eink_library.c **** 
 303:..\..\..\..\..\other/cy_eink_library.c **** /*******************************************************************************
 304:..\..\..\..\..\other/cy_eink_library.c **** * Function Name: void Cy_EINK_ImageToFrameBuffer(cy_eink_frame_t* frameBuffer,
 305:..\..\..\..\..\other/cy_eink_library.c **** *                               cy_eink_frame_t* image, uint8_t* imgCoordinates)
 306:..\..\..\..\..\other/cy_eink_library.c **** ********************************************************************************
 307:..\..\..\..\..\other/cy_eink_library.c **** *
 308:..\..\..\..\..\other/cy_eink_library.c **** * Summary: Copies pixel block data between the specified x and y coordinates 
 309:..\..\..\..\..\other/cy_eink_library.c **** *  from an image (typically stored in the flash) to a frame buffer in RAM.
 310:..\..\..\..\..\other/cy_eink_library.c **** *
 311:..\..\..\..\..\other/cy_eink_library.c **** *  Notes: Image array should be of the same size as frame buffer.
 312:..\..\..\..\..\other/cy_eink_library.c **** *
 313:..\..\..\..\..\other/cy_eink_library.c **** *  Copying is done at byte level. Pixel level operations are not supported.
 314:..\..\..\..\..\other/cy_eink_library.c **** *
 315:..\..\..\..\..\other/cy_eink_library.c **** *  This function does not update the E-INK display. After frame buffer update,
 316:..\..\..\..\..\other/cy_eink_library.c **** *  use Cy_EINK_ShowFrame() function to update the display if required.
 317:..\..\..\..\..\other/cy_eink_library.c **** *
 318:..\..\..\..\..\other/cy_eink_library.c **** *  This function can be used to clear the frame buffer by passing an all-white 
 319:..\..\..\..\..\other/cy_eink_library.c **** *  or an all-black image.
 320:..\..\..\..\..\other/cy_eink_library.c **** *
 321:..\..\..\..\..\other/cy_eink_library.c **** * Parameters:
 322:..\..\..\..\..\other/cy_eink_library.c **** *  cy_eink_frame_t* frameBuffer   : Pointer to the frame buffer array in RAM
 323:..\..\..\..\..\other/cy_eink_library.c **** *  cy_eink_frame_t* image         : Pointer to the image array (typically in 
 324:..\..\..\..\..\other/cy_eink_library.c **** *                                   flash)
 325:..\..\..\..\..\other/cy_eink_library.c **** *  uint8_t* imgCoordinates        : Pointer to a 4-byte array of image byte
 326:..\..\..\..\..\other/cy_eink_library.c **** *                                   coordinates
 327:..\..\..\..\..\other/cy_eink_library.c **** *
 328:..\..\..\..\..\other/cy_eink_library.c **** * Return:
 329:..\..\..\..\..\other/cy_eink_library.c **** *  cy_eink_api_result   : "CY_EINK_SUCCESS" if operation was successful;
 330:..\..\..\..\..\other/cy_eink_library.c **** *                         "CY_EINK_FAILURE" otherwise
 331:..\..\..\..\..\other/cy_eink_library.c **** *
 332:..\..\..\..\..\other/cy_eink_library.c **** * Side Effects:
 333:..\..\..\..\..\other/cy_eink_library.c **** *  This is a blocking function that can take as many as 5808 RAM write cycles
 334:..\..\..\..\..\other/cy_eink_library.c **** *  to complete.
 335:..\..\..\..\..\other/cy_eink_library.c **** *
 336:..\..\..\..\..\other/cy_eink_library.c **** *******************************************************************************/
 337:..\..\..\..\..\other/cy_eink_library.c **** cy_eink_api_result Cy_EINK_ImageToFrameBuffer(cy_eink_frame_t* frameBuffer, 
 338:..\..\..\..\..\other/cy_eink_library.c ****                         cy_eink_frame_t* image, uint8_t* imgCoordinates)
 339:..\..\..\..\..\other/cy_eink_library.c **** {
 285              		.loc 1 339 0
 286              		.cfi_startproc
 287              		@ args = 0, pretend = 0, frame = 0
 288              		@ frame_needed = 0, uses_anonymous_args = 0
ARM GAS  C:\Users\cypress\AppData\Local\Temp\cc6xjuAE.s 			page 12


 289              	.LVL31:
 290 0000 F8B5     		push	{r3, r4, r5, r6, r7, lr}
 291              		.cfi_def_cfa_offset 24
 292              		.cfi_offset 3, -24
 293              		.cfi_offset 4, -20
 294              		.cfi_offset 5, -16
 295              		.cfi_offset 6, -12
 296              		.cfi_offset 7, -8
 297              		.cfi_offset 14, -4
 298 0002 0600     		movs	r6, r0
 299 0004 0F00     		movs	r7, r1
 300 0006 1500     		movs	r5, r2
 340:..\..\..\..\..\other/cy_eink_library.c ****     /* Counter variable for horizontal pixel lines */
 341:..\..\..\..\..\other/cy_eink_library.c ****     uint16_t pixelLineCounter;
 342:..\..\..\..\..\other/cy_eink_library.c ****     
 343:..\..\..\..\..\other/cy_eink_library.c ****     /* Variable that stores the starting location of the current pixel line */
 344:..\..\..\..\..\other/cy_eink_library.c ****     uint16_t startLocation;
 345:..\..\..\..\..\other/cy_eink_library.c ****     
 346:..\..\..\..\..\other/cy_eink_library.c ****     /* Variable that stores the length of the pixel line */
 347:..\..\..\..\..\other/cy_eink_library.c ****     uint16_t lineLength;
 348:..\..\..\..\..\other/cy_eink_library.c ****     
 349:..\..\..\..\..\other/cy_eink_library.c ****     /* Variable that stores the return value */
 350:..\..\..\..\..\other/cy_eink_library.c ****     cy_eink_api_result returnValue;
 351:..\..\..\..\..\other/cy_eink_library.c ****     
 352:..\..\..\..\..\other/cy_eink_library.c ****     /* Check if the coordinates are within limits */
 353:..\..\..\..\..\other/cy_eink_library.c ****     if((imgCoordinates[CY_EINK_IMG_X1] < imgCoordinates[CY_EINK_IMG_X2])&& 
 301              		.loc 1 353 0
 302 0008 1278     		ldrb	r2, [r2]
 303              	.LVL32:
 304 000a 6B78     		ldrb	r3, [r5, #1]
 305 000c 9A42     		cmp	r2, r3
 306 000e 1CD2     		bcs	.L26
 354:..\..\..\..\..\other/cy_eink_library.c ****        (imgCoordinates[CY_EINK_IMG_Y1] < imgCoordinates[CY_EINK_IMG_Y2])&& 
 307              		.loc 1 354 0 discriminator 1
 308 0010 AC78     		ldrb	r4, [r5, #2]
 309 0012 EA78     		ldrb	r2, [r5, #3]
 353:..\..\..\..\..\other/cy_eink_library.c ****        (imgCoordinates[CY_EINK_IMG_Y1] < imgCoordinates[CY_EINK_IMG_Y2])&& 
 310              		.loc 1 353 0 discriminator 1
 311 0014 9442     		cmp	r4, r2
 312 0016 1AD2     		bcs	.L27
 313              		.loc 1 354 0
 314 0018 212B     		cmp	r3, #33
 315 001a 1AD8     		bhi	.L28
 355:..\..\..\..\..\other/cy_eink_library.c ****        (imgCoordinates[CY_EINK_IMG_X2] <= CY_EINK_IMAGE_X_MAX)&&
 316              		.loc 1 355 0
 317 001c AF2A     		cmp	r2, #175
 318 001e 1AD8     		bhi	.L29
 356:..\..\..\..\..\other/cy_eink_library.c ****        (imgCoordinates[CY_EINK_IMG_Y2] <= CY_EINK_IMAGE_Y_MAX))
 357:..\..\..\..\..\other/cy_eink_library.c ****     {
 358:..\..\..\..\..\other/cy_eink_library.c ****         /* Do this for all horizontal pixel lines between Y1 and Y2 
 359:..\..\..\..\..\other/cy_eink_library.c ****            coordinates */
 360:..\..\..\..\..\other/cy_eink_library.c ****         for (pixelLineCounter  = imgCoordinates[CY_EINK_IMG_Y1];
 319              		.loc 1 360 0
 320 0020 A4B2     		uxth	r4, r4
 321              	.LVL33:
 322 0022 0DE0     		b	.L24
 323              	.LVL34:
ARM GAS  C:\Users\cypress\AppData\Local\Temp\cc6xjuAE.s 			page 13


 324              	.L25:
 361:..\..\..\..\..\other/cy_eink_library.c ****              pixelLineCounter <= imgCoordinates[CY_EINK_IMG_Y2];
 362:..\..\..\..\..\other/cy_eink_library.c ****              pixelLineCounter++)
 363:..\..\..\..\..\other/cy_eink_library.c ****         {
 364:..\..\..\..\..\other/cy_eink_library.c ****             
 365:..\..\..\..\..\other/cy_eink_library.c ****             /* Find the starting location of the pixel line */
 366:..\..\..\..\..\other/cy_eink_library.c ****             startLocation = (pixelLineCounter * PV_EINK_HORIZONTAL_SIZE) + 
 325              		.loc 1 366 0
 326 0024 2A78     		ldrb	r2, [r5]
 327 0026 6101     		lsls	r1, r4, #5
 328 0028 6118     		adds	r1, r4, r1
 329 002a 5118     		adds	r1, r2, r1
 330 002c 89B2     		uxth	r1, r1
 331              	.LVL35:
 367:..\..\..\..\..\other/cy_eink_library.c ****                              imgCoordinates[CY_EINK_IMG_X1];
 368:..\..\..\..\..\other/cy_eink_library.c ****             
 369:..\..\..\..\..\other/cy_eink_library.c ****            /* Find the length of the pixel line to be copied */
 370:..\..\..\..\..\other/cy_eink_library.c ****             lineLength = imgCoordinates[CY_EINK_IMG_X2] - 
 332              		.loc 1 370 0
 333 002e 6B78     		ldrb	r3, [r5, #1]
 334 0030 9A1A     		subs	r2, r3, r2
 335 0032 92B2     		uxth	r2, r2
 336              	.LVL36:
 371:..\..\..\..\..\other/cy_eink_library.c ****                          imgCoordinates[CY_EINK_IMG_X1];
 372:..\..\..\..\..\other/cy_eink_library.c ****             
 373:..\..\..\..\..\other/cy_eink_library.c ****             /* Copy the pixel line from the image to the same location in the 
 374:..\..\..\..\..\other/cy_eink_library.c ****                frame buffer */
 375:..\..\..\..\..\other/cy_eink_library.c ****             memcpy (&frameBuffer[startLocation], &image[startLocation],
 337              		.loc 1 375 0
 338 0034 7018     		adds	r0, r6, r1
 339 0036 7918     		adds	r1, r7, r1
 340              	.LVL37:
 341 0038 FFF7FEFF 		bl	memcpy
 342              	.LVL38:
 362:..\..\..\..\..\other/cy_eink_library.c ****         {
 343              		.loc 1 362 0
 344 003c 0134     		adds	r4, r4, #1
 345              	.LVL39:
 346 003e A4B2     		uxth	r4, r4
 347              	.LVL40:
 348              	.L24:
 361:..\..\..\..\..\other/cy_eink_library.c ****              pixelLineCounter++)
 349              		.loc 1 361 0 discriminator 1
 350 0040 EB78     		ldrb	r3, [r5, #3]
 360:..\..\..\..\..\other/cy_eink_library.c ****              pixelLineCounter <= imgCoordinates[CY_EINK_IMG_Y2];
 351              		.loc 1 360 0 discriminator 1
 352 0042 9C42     		cmp	r4, r3
 353 0044 EED9     		bls	.L25
 376:..\..\..\..\..\other/cy_eink_library.c ****                     lineLength);
 377:..\..\..\..\..\other/cy_eink_library.c ****         }
 378:..\..\..\..\..\other/cy_eink_library.c ****         
 379:..\..\..\..\..\other/cy_eink_library.c ****         returnValue = CY_EINK_SUCCESS;
 354              		.loc 1 379 0
 355 0046 0020     		movs	r0, #0
 356 0048 06E0     		b	.L23
 357              	.LVL41:
 358              	.L26:
ARM GAS  C:\Users\cypress\AppData\Local\Temp\cc6xjuAE.s 			page 14


 380:..\..\..\..\..\other/cy_eink_library.c ****     }
 381:..\..\..\..\..\other/cy_eink_library.c ****     else
 382:..\..\..\..\..\other/cy_eink_library.c ****     {   
 383:..\..\..\..\..\other/cy_eink_library.c ****         /* Operation failed. Check the input parameters */
 384:..\..\..\..\..\other/cy_eink_library.c ****         returnValue = CY_EINK_FAILURE; 
 359              		.loc 1 384 0
 360 004a 0120     		movs	r0, #1
 361              	.LVL42:
 362 004c 04E0     		b	.L23
 363              	.LVL43:
 364              	.L27:
 365 004e 0120     		movs	r0, #1
 366              	.LVL44:
 367 0050 02E0     		b	.L23
 368              	.LVL45:
 369              	.L28:
 370 0052 0120     		movs	r0, #1
 371              	.LVL46:
 372 0054 00E0     		b	.L23
 373              	.LVL47:
 374              	.L29:
 375 0056 0120     		movs	r0, #1
 376              	.LVL48:
 377              	.L23:
 385:..\..\..\..\..\other/cy_eink_library.c ****     }
 386:..\..\..\..\..\other/cy_eink_library.c ****     
 387:..\..\..\..\..\other/cy_eink_library.c ****     return returnValue;
 388:..\..\..\..\..\other/cy_eink_library.c **** }
 378              		.loc 1 388 0
 379              		@ sp needed
 380              	.LVL49:
 381              	.LVL50:
 382              	.LVL51:
 383 0058 F8BD     		pop	{r3, r4, r5, r6, r7, pc}
 384              		.cfi_endproc
 385              	.LFE455:
 386              		.size	Cy_EINK_ImageToFrameBuffer, .-Cy_EINK_ImageToFrameBuffer
 387 005a C046     		.section	.text.Cy_EINK_TextToFrameBuffer,"ax",%progbits
 388              		.align	2
 389              		.global	Cy_EINK_TextToFrameBuffer
 390              		.code	16
 391              		.thumb_func
 392              		.type	Cy_EINK_TextToFrameBuffer, %function
 393              	Cy_EINK_TextToFrameBuffer:
 394              	.LFB456:
 389:..\..\..\..\..\other/cy_eink_library.c **** 
 390:..\..\..\..\..\other/cy_eink_library.c **** /*******************************************************************************
 391:..\..\..\..\..\other/cy_eink_library.c **** * Function Name: void Cy_EINK_TextToFrameBuffer(cy_eink_frame_t* frameBuffer, 
 392:..\..\..\..\..\other/cy_eink_library.c **** *                char* string, cy_eink_font_t* fontInfo , uint8_t* fontCor)
 393:..\..\..\..\..\other/cy_eink_library.c **** ********************************************************************************
 394:..\..\..\..\..\other/cy_eink_library.c **** *
 395:..\..\..\..\..\other/cy_eink_library.c **** * Summary: Converts a text input (string) to pixel data and stores it at the
 396:..\..\..\..\..\other/cy_eink_library.c **** *  specified coordinates of a frame buffer.
 397:..\..\..\..\..\other/cy_eink_library.c **** *
 398:..\..\..\..\..\other/cy_eink_library.c **** *  Notes: This function only supports printable ASCII characters from "!" to "~"
 399:..\..\..\..\..\other/cy_eink_library.c **** *
 400:..\..\..\..\..\other/cy_eink_library.c **** *  X and Y locations used in this function are font coordinates, rather than the
ARM GAS  C:\Users\cypress\AppData\Local\Temp\cc6xjuAE.s 			page 15


 401:..\..\..\..\..\other/cy_eink_library.c **** *  pixel coordinates used in Cy_EINK_ImageToFrameBuffer() function. See the 
 402:..\..\..\..\..\other/cy_eink_library.c **** *  CY_EINK_fonts.h for details.
 403:..\..\..\..\..\other/cy_eink_library.c **** *
 404:..\..\..\..\..\other/cy_eink_library.c **** *  This function does not update the E-INK display. After frame buffer update,
 405:..\..\..\..\..\other/cy_eink_library.c **** *  use CY_EINK_ShowFrame() function to update the display if required.
 406:..\..\..\..\..\other/cy_eink_library.c **** *
 407:..\..\..\..\..\other/cy_eink_library.c **** * Parameters:
 408:..\..\..\..\..\other/cy_eink_library.c **** *  cy_eink_frame_t* frameBuffer : Pointer to the frame buffer array in RAM
 409:..\..\..\..\..\other/cy_eink_library.c **** *  char* string                 : Pointer to the string
 410:..\..\..\..\..\other/cy_eink_library.c **** *  cy_eink_font_t* fontInfo     : Structure that stores font information
 411:..\..\..\..\..\other/cy_eink_library.c **** *  uint8_t* fontCor             : Pointer to the 2-byte array containing X and
 412:..\..\..\..\..\other/cy_eink_library.c **** *                                 Y locations
 413:..\..\..\..\..\other/cy_eink_library.c **** *
 414:..\..\..\..\..\other/cy_eink_library.c **** * Return:
 415:..\..\..\..\..\other/cy_eink_library.c **** *  cy_eink_api_result   : "CY_EINK_SUCCESS" if operation was successful;
 416:..\..\..\..\..\other/cy_eink_library.c **** *                         "CY_EINK_FAILURE" otherwise
 417:..\..\..\..\..\other/cy_eink_library.c **** *
 418:..\..\..\..\..\other/cy_eink_library.c **** * Side Effects:
 419:..\..\..\..\..\other/cy_eink_library.c **** *  This is a blocking function that can take as many as 5808 RAM write cycles
 420:..\..\..\..\..\other/cy_eink_library.c **** *  to complete.
 421:..\..\..\..\..\other/cy_eink_library.c **** *
 422:..\..\..\..\..\other/cy_eink_library.c **** *******************************************************************************/
 423:..\..\..\..\..\other/cy_eink_library.c **** cy_eink_api_result  Cy_EINK_TextToFrameBuffer(cy_eink_frame_t* frameBuffer, 
 424:..\..\..\..\..\other/cy_eink_library.c ****                        char* string, cy_eink_font_t* fontInfo, uint8_t* fontCor)
 425:..\..\..\..\..\other/cy_eink_library.c **** { 
 395              		.loc 1 425 0
 396              		.cfi_startproc
 397              		@ args = 0, pretend = 0, frame = 0
 398              		@ frame_needed = 0, uses_anonymous_args = 0
 399              	.LVL52:
 400 0000 F0B5     		push	{r4, r5, r6, r7, lr}
 401              		.cfi_def_cfa_offset 20
 402              		.cfi_offset 4, -20
 403              		.cfi_offset 5, -16
 404              		.cfi_offset 6, -12
 405              		.cfi_offset 7, -8
 406              		.cfi_offset 14, -4
 407 0002 5F46     		mov	r7, fp
 408 0004 5646     		mov	r6, r10
 409 0006 4D46     		mov	r5, r9
 410 0008 4446     		mov	r4, r8
 411 000a F0B4     		push	{r4, r5, r6, r7}
 412              		.cfi_def_cfa_offset 36
 413              		.cfi_offset 8, -36
 414              		.cfi_offset 9, -32
 415              		.cfi_offset 10, -28
 416              		.cfi_offset 11, -24
 417 000c 8446     		mov	ip, r0
 418 000e 8946     		mov	r9, r1
 419 0010 9A46     		mov	r10, r3
 420              	.LVL53:
 426:..\..\..\..\..\other/cy_eink_library.c ****     /* Pointer variable for current character under conversion */
 427:..\..\..\..\..\other/cy_eink_library.c ****     char* currentChar;
 428:..\..\..\..\..\other/cy_eink_library.c ****     
 429:..\..\..\..\..\other/cy_eink_library.c ****     /* Variable for storing the location in the frame buffer to which 
 430:..\..\..\..\..\other/cy_eink_library.c ****        the font data is printed */
 431:..\..\..\..\..\other/cy_eink_library.c ****     uint16_t printLocation;
ARM GAS  C:\Users\cypress\AppData\Local\Temp\cc6xjuAE.s 			page 16


 432:..\..\..\..\..\other/cy_eink_library.c ****     /* Variable for storing the character location in the font */
 433:..\..\..\..\..\other/cy_eink_library.c ****     uint16_t charLocation;
 434:..\..\..\..\..\other/cy_eink_library.c ****     
 435:..\..\..\..\..\other/cy_eink_library.c ****     /* Variable that stores the pixel data byte location in the frame 
 436:..\..\..\..\..\other/cy_eink_library.c ****        buffer */
 437:..\..\..\..\..\other/cy_eink_library.c ****     uint16_t frameByte;
 438:..\..\..\..\..\other/cy_eink_library.c ****     /* Variable that stores the pixel data byte location in the font array */
 439:..\..\..\..\..\other/cy_eink_library.c ****     uint16_t fontByte;
 440:..\..\..\..\..\other/cy_eink_library.c ****     
 441:..\..\..\..\..\other/cy_eink_library.c ****     /* Counter variable for the vertical loop */
 442:..\..\..\..\..\other/cy_eink_library.c ****     uint8_t verticalCounter;
 443:..\..\..\..\..\other/cy_eink_library.c ****     /* Counter variable for the horizontal loop */
 444:..\..\..\..\..\other/cy_eink_library.c ****     uint8_t horizontalCounter;
 445:..\..\..\..\..\other/cy_eink_library.c ****     
 446:..\..\..\..\..\other/cy_eink_library.c ****     /* Variable that stores the return value */
 447:..\..\..\..\..\other/cy_eink_library.c ****     cy_eink_api_result returnValue = CY_EINK_SUCCESS;
 421              		.loc 1 447 0
 422 0012 0023     		movs	r3, #0
 423              	.LVL54:
 424 0014 9B46     		mov	fp, r3
 448:..\..\..\..\..\other/cy_eink_library.c ****     
 449:..\..\..\..\..\other/cy_eink_library.c ****     /* Repeat this process until the null character of the string is reached */
 450:..\..\..\..\..\other/cy_eink_library.c ****     for (currentChar = string;  *currentChar != '\0'; currentChar++)
 425              		.loc 1 450 0
 426 0016 7FE0     		b	.L31
 427              	.LVL55:
 428              	.L45:
 451:..\..\..\..\..\other/cy_eink_library.c ****     {
 452:..\..\..\..\..\other/cy_eink_library.c ****         /* Check if X and Y coordinates are between the font's max limits */
 453:..\..\..\..\..\other/cy_eink_library.c ****         if ((fontCor[CY_EINK_FONT_X] < (fontInfo->xSpan)) && 
 429              		.loc 1 453 0
 430 0018 5346     		mov	r3, r10
 431              	.LVL56:
 432 001a 1B78     		ldrb	r3, [r3]
 433 001c 117A     		ldrb	r1, [r2, #8]
 434 001e 8B42     		cmp	r3, r1
 435 0020 63D2     		bcs	.L32
 454:..\..\..\..\..\other/cy_eink_library.c ****             (fontCor[CY_EINK_FONT_Y] < (fontInfo->ySpan)))
 436              		.loc 1 454 0 discriminator 1
 437 0022 5146     		mov	r1, r10
 438 0024 4C78     		ldrb	r4, [r1, #1]
 439 0026 517A     		ldrb	r1, [r2, #9]
 453:..\..\..\..\..\other/cy_eink_library.c ****             (fontCor[CY_EINK_FONT_Y] < (fontInfo->ySpan)))
 440              		.loc 1 453 0 discriminator 1
 441 0028 8C42     		cmp	r4, r1
 442 002a 5ED2     		bcs	.L32
 455:..\..\..\..\..\other/cy_eink_library.c ****         {
 456:..\..\..\..\..\other/cy_eink_library.c ****             /* Find the actual pixel location in the frame buffer where the
 457:..\..\..\..\..\other/cy_eink_library.c ****                pixel data should be copied */
 458:..\..\..\..\..\other/cy_eink_library.c ****             printLocation = (fontInfo->xOffset) + (fontCor[CY_EINK_FONT_X]   * 
 443              		.loc 1 458 0
 444 002c 1679     		ldrb	r6, [r2, #4]
 459:..\..\..\..\..\other/cy_eink_library.c ****                             (fontInfo->xSize))  + (((fontCor[CY_EINK_FONT_Y] * 
 460:..\..\..\..\..\other/cy_eink_library.c ****                             (fontInfo->ySize))  + (fontInfo->yOffset))    * 
 445              		.loc 1 460 0
 446 002e D579     		ldrb	r5, [r2, #7]
 459:..\..\..\..\..\other/cy_eink_library.c ****                             (fontInfo->xSize))  + (((fontCor[CY_EINK_FONT_Y] * 
ARM GAS  C:\Users\cypress\AppData\Local\Temp\cc6xjuAE.s 			page 17


 447              		.loc 1 459 0
 448 0030 6C43     		muls	r4, r5
 449              		.loc 1 460 0
 450 0032 5179     		ldrb	r1, [r2, #5]
 451 0034 0C19     		adds	r4, r1, r4
 458:..\..\..\..\..\other/cy_eink_library.c ****                             (fontInfo->xSize))  + (((fontCor[CY_EINK_FONT_Y] * 
 452              		.loc 1 458 0
 453 0036 9779     		ldrb	r7, [r2, #6]
 454 0038 6101     		lsls	r1, r4, #5
 455 003a 6418     		adds	r4, r4, r1
 456 003c 7B43     		muls	r3, r7
 457 003e E318     		adds	r3, r4, r3
 458 0040 9B19     		adds	r3, r3, r6
 459 0042 99B2     		uxth	r1, r3
 460              	.LVL57:
 461:..\..\..\..\..\other/cy_eink_library.c ****                              PV_EINK_HORIZONTAL_SIZE);
 462:..\..\..\..\..\other/cy_eink_library.c ****             
 463:..\..\..\..\..\other/cy_eink_library.c ****             /* Check if the current character is a printable ASCII character 
 464:..\..\..\..\..\other/cy_eink_library.c ****                between "!" and "~" */
 465:..\..\..\..\..\other/cy_eink_library.c ****             if ((*currentChar <= CY_EINK_ASCII_MAX) &&
 461              		.loc 1 465 0
 462 0044 0300     		movs	r3, r0
 463 0046 213B     		subs	r3, r3, #33
 464 0048 DBB2     		uxtb	r3, r3
 465 004a 5D2B     		cmp	r3, #93
 466 004c 49D8     		bhi	.L46
 466:..\..\..\..\..\other/cy_eink_library.c ****                 (*currentChar >= CY_EINK_ASCII_MIN))
 467:..\..\..\..\..\other/cy_eink_library.c ****             {
 468:..\..\..\..\..\other/cy_eink_library.c ****                 /* Find the location of pixel data corresponding to the 
 469:..\..\..\..\..\other/cy_eink_library.c ****                    current character from the font array */
 470:..\..\..\..\..\other/cy_eink_library.c ****                 charLocation = (*currentChar - CY_EINK_ASCII_MIN) *
 467              		.loc 1 470 0
 468 004e 2138     		subs	r0, r0, #33
 469 0050 7D43     		muls	r5, r7
 470 0052 4543     		muls	r5, r0
 471 0054 ABB2     		uxth	r3, r5
 472 0056 9846     		mov	r8, r3
 473              	.LVL58:
 471:..\..\..\..\..\other/cy_eink_library.c ****                                ((fontInfo->ySize) * (fontInfo->xSize));
 472:..\..\..\..\..\other/cy_eink_library.c ****                 
 473:..\..\..\..\..\other/cy_eink_library.c ****                 /* Vertical copying loop */
 474:..\..\..\..\..\other/cy_eink_library.c ****                 for (verticalCounter = 0; verticalCounter < (fontInfo->ySize); 
 474              		.loc 1 474 0
 475 0058 0020     		movs	r0, #0
 476 005a 25E0     		b	.L34
 477              	.LVL59:
 478              	.L37:
 475:..\..\..\..\..\other/cy_eink_library.c ****                      verticalCounter++)
 476:..\..\..\..\..\other/cy_eink_library.c ****                 {
 477:..\..\..\..\..\other/cy_eink_library.c ****                     /* Horizontal copying loop */
 478:..\..\..\..\..\other/cy_eink_library.c ****                     for (horizontalCounter = 0; 
 479:..\..\..\..\..\other/cy_eink_library.c ****                          horizontalCounter < (fontInfo->xSize); 
 480:..\..\..\..\..\other/cy_eink_library.c ****                          horizontalCounter++)
 481:..\..\..\..\..\other/cy_eink_library.c ****                     {
 482:..\..\..\..\..\other/cy_eink_library.c ****                         /* Calculate the current pixel data byte location of 
 483:..\..\..\..\..\other/cy_eink_library.c ****                            the frame buffer */
 484:..\..\..\..\..\other/cy_eink_library.c ****                         frameByte = horizontalCounter + (printLocation +
ARM GAS  C:\Users\cypress\AppData\Local\Temp\cc6xjuAE.s 			page 18


 479              		.loc 1 484 0
 480 005c B7B2     		uxth	r7, r6
 481 005e 84B2     		uxth	r4, r0
 482 0060 6501     		lsls	r5, r4, #5
 483 0062 6519     		adds	r5, r4, r5
 484 0064 4D19     		adds	r5, r1, r5
 485 0066 7D19     		adds	r5, r7, r5
 486 0068 ADB2     		uxth	r5, r5
 487              	.LVL60:
 485:..\..\..\..\..\other/cy_eink_library.c ****                                     (PV_EINK_HORIZONTAL_SIZE 
 486:..\..\..\..\..\other/cy_eink_library.c ****                                      * verticalCounter));
 487:..\..\..\..\..\other/cy_eink_library.c ****                         
 488:..\..\..\..\..\other/cy_eink_library.c ****                         /* Calculate the current pixel data byte location of 
 489:..\..\..\..\..\other/cy_eink_library.c ****                            the font */
 490:..\..\..\..\..\other/cy_eink_library.c ****                         fontByte = charLocation + (verticalCounter * 
 488              		.loc 1 490 0
 489 006a 5C43     		muls	r4, r3
 490 006c 4444     		add	r4, r4, r8
 491 006e 3F19     		adds	r7, r7, r4
 492 0070 BFB2     		uxth	r7, r7
 493              	.LVL61:
 491:..\..\..\..\..\other/cy_eink_library.c ****                                    (fontInfo->xSize)) + horizontalCounter;
 492:..\..\..\..\..\other/cy_eink_library.c ****                         
 493:..\..\..\..\..\other/cy_eink_library.c ****                         /* Copy the pixel data as is for black font on white 
 494:..\..\..\..\..\other/cy_eink_library.c ****                            background */
 495:..\..\..\..\..\other/cy_eink_library.c ****                         if ((fontInfo->color) == CY_EINK_WHITE_BACKGROUND)
 494              		.loc 1 495 0
 495 0072 937A     		ldrb	r3, [r2, #10]
 496 0074 002B     		cmp	r3, #0
 497 0076 05D0     		beq	.L35
 496:..\..\..\..\..\other/cy_eink_library.c ****                         {
 497:..\..\..\..\..\other/cy_eink_library.c ****                             frameBuffer[frameByte] = ~(fontInfo->fontData
 498:..\..\..\..\..\other/cy_eink_library.c ****                                                                  [fontByte]);
 498              		.loc 1 498 0
 499 0078 1368     		ldr	r3, [r2]
 500 007a DB5D     		ldrb	r3, [r3, r7]
 497:..\..\..\..\..\other/cy_eink_library.c ****                                                                  [fontByte]);
 501              		.loc 1 497 0
 502 007c DB43     		mvns	r3, r3
 503 007e 6446     		mov	r4, ip
 504 0080 6355     		strb	r3, [r4, r5]
 505 0082 08E0     		b	.L36
 506              	.L35:
 499:..\..\..\..\..\other/cy_eink_library.c ****                         }
 500:..\..\..\..\..\other/cy_eink_library.c ****                         /* Copy the inverted pixel data for white font on black
 501:..\..\..\..\..\other/cy_eink_library.c ****                            background */
 502:..\..\..\..\..\other/cy_eink_library.c ****                         else if ((fontInfo->color) == CY_EINK_BLACK_BACKGROUND)
 507              		.loc 1 502 0
 508 0084 002B     		cmp	r3, #0
 509 0086 04D1     		bne	.L47
 503:..\..\..\..\..\other/cy_eink_library.c ****                         {
 504:..\..\..\..\..\other/cy_eink_library.c ****                             frameBuffer[frameByte] = fontInfo->fontData
 505:..\..\..\..\..\other/cy_eink_library.c ****                                                               [fontByte];
 510              		.loc 1 505 0
 511 0088 1368     		ldr	r3, [r2]
 512 008a DB5D     		ldrb	r3, [r3, r7]
 504:..\..\..\..\..\other/cy_eink_library.c ****                                                               [fontByte];
ARM GAS  C:\Users\cypress\AppData\Local\Temp\cc6xjuAE.s 			page 19


 513              		.loc 1 504 0
 514 008c 6446     		mov	r4, ip
 515 008e 6355     		strb	r3, [r4, r5]
 516 0090 01E0     		b	.L36
 517              	.L47:
 506:..\..\..\..\..\other/cy_eink_library.c ****                         }
 507:..\..\..\..\..\other/cy_eink_library.c ****                         else
 508:..\..\..\..\..\other/cy_eink_library.c ****                         {
 509:..\..\..\..\..\other/cy_eink_library.c ****                             returnValue = CY_EINK_FAILURE;
 518              		.loc 1 509 0
 519 0092 0123     		movs	r3, #1
 520 0094 9B46     		mov	fp, r3
 521              	.LVL62:
 522              	.L36:
 480:..\..\..\..\..\other/cy_eink_library.c ****                     {
 523              		.loc 1 480 0
 524 0096 0136     		adds	r6, r6, #1
 525              	.LVL63:
 526 0098 F6B2     		uxtb	r6, r6
 527              	.LVL64:
 528 009a 00E0     		b	.L38
 529              	.LVL65:
 530              	.L48:
 531 009c 0026     		movs	r6, #0
 532              	.L38:
 533              	.LVL66:
 479:..\..\..\..\..\other/cy_eink_library.c ****                          horizontalCounter++)
 534              		.loc 1 479 0 discriminator 1
 535 009e 9379     		ldrb	r3, [r2, #6]
 478:..\..\..\..\..\other/cy_eink_library.c ****                          horizontalCounter < (fontInfo->xSize); 
 536              		.loc 1 478 0 discriminator 1
 537 00a0 9E42     		cmp	r6, r3
 538 00a2 DBD3     		bcc	.L37
 475:..\..\..\..\..\other/cy_eink_library.c ****                 {
 539              		.loc 1 475 0
 540 00a4 0130     		adds	r0, r0, #1
 541              	.LVL67:
 542 00a6 C0B2     		uxtb	r0, r0
 543              	.LVL68:
 544              	.L34:
 474:..\..\..\..\..\other/cy_eink_library.c ****                      verticalCounter++)
 545              		.loc 1 474 0 discriminator 1
 546 00a8 D379     		ldrb	r3, [r2, #7]
 547 00aa 9842     		cmp	r0, r3
 548 00ac F6D3     		bcc	.L48
 549 00ae 1CE0     		b	.L32
 550              	.LVL69:
 551              	.L41:
 510:..\..\..\..\..\other/cy_eink_library.c ****                         }
 511:..\..\..\..\..\other/cy_eink_library.c ****                     }
 512:..\..\..\..\..\other/cy_eink_library.c ****                 }
 513:..\..\..\..\..\other/cy_eink_library.c ****             }
 514:..\..\..\..\..\other/cy_eink_library.c ****             /* For space and non-printable ASCII characters */
 515:..\..\..\..\..\other/cy_eink_library.c ****             else
 516:..\..\..\..\..\other/cy_eink_library.c ****             {
 517:..\..\..\..\..\other/cy_eink_library.c ****                 /* Vertical copying loop */
 518:..\..\..\..\..\other/cy_eink_library.c ****                 for (verticalCounter = 0; 
ARM GAS  C:\Users\cypress\AppData\Local\Temp\cc6xjuAE.s 			page 20


 519:..\..\..\..\..\other/cy_eink_library.c ****                      verticalCounter < (fontInfo->ySize); 
 520:..\..\..\..\..\other/cy_eink_library.c ****                      verticalCounter++)
 521:..\..\..\..\..\other/cy_eink_library.c ****                 {
 522:..\..\..\..\..\other/cy_eink_library.c ****                     /* Horizontal copying loop */
 523:..\..\..\..\..\other/cy_eink_library.c ****                     for (horizontalCounter = 0; 
 524:..\..\..\..\..\other/cy_eink_library.c ****                          horizontalCounter < (fontInfo->xSize);
 525:..\..\..\..\..\other/cy_eink_library.c ****                          horizontalCounter++)
 526:..\..\..\..\..\other/cy_eink_library.c ****                     {
 527:..\..\..\..\..\other/cy_eink_library.c ****                         /* Calculate the current pixel data byte location of 
 528:..\..\..\..\..\other/cy_eink_library.c ****                            the frame buffer */
 529:..\..\..\..\..\other/cy_eink_library.c ****                         frameByte = horizontalCounter + (printLocation +
 552              		.loc 1 529 0
 553 00b0 6301     		lsls	r3, r4, #5
 554 00b2 E318     		adds	r3, r4, r3
 555 00b4 CB18     		adds	r3, r1, r3
 556 00b6 1B18     		adds	r3, r3, r0
 557 00b8 9BB2     		uxth	r3, r3
 558              	.LVL70:
 530:..\..\..\..\..\other/cy_eink_library.c ****                                     (PV_EINK_HORIZONTAL_SIZE 
 531:..\..\..\..\..\other/cy_eink_library.c ****                                     * verticalCounter));
 532:..\..\..\..\..\other/cy_eink_library.c ****                         
 533:..\..\..\..\..\other/cy_eink_library.c ****                         /* Copy white pixels to create a space for fonts with 
 534:..\..\..\..\..\other/cy_eink_library.c ****                            white background */
 535:..\..\..\..\..\other/cy_eink_library.c ****                         if ((fontInfo->color) == CY_EINK_WHITE_BACKGROUND)
 559              		.loc 1 535 0
 560 00ba 957A     		ldrb	r5, [r2, #10]
 561 00bc 002D     		cmp	r5, #0
 562 00be 03D0     		beq	.L39
 536:..\..\..\..\..\other/cy_eink_library.c ****                         {
 537:..\..\..\..\..\other/cy_eink_library.c ****                             frameBuffer[frameByte] = CY_EINK_CLEAR_TO_WHITE;
 563              		.loc 1 537 0
 564 00c0 FF25     		movs	r5, #255
 565 00c2 6646     		mov	r6, ip
 566 00c4 F554     		strb	r5, [r6, r3]
 567 00c6 02E0     		b	.L40
 568              	.L39:
 538:..\..\..\..\..\other/cy_eink_library.c ****                         }
 539:..\..\..\..\..\other/cy_eink_library.c ****                         /* Copy black pixels to create a space for fonts with 
 540:..\..\..\..\..\other/cy_eink_library.c ****                            black background */
 541:..\..\..\..\..\other/cy_eink_library.c ****                         else
 542:..\..\..\..\..\other/cy_eink_library.c ****                         {
 543:..\..\..\..\..\other/cy_eink_library.c ****                             frameBuffer[frameByte] = CY_EINK_CLEAR_TO_BLACK;
 569              		.loc 1 543 0
 570 00c8 6344     		add	r3, r3, ip
 571              	.LVL71:
 572 00ca 0025     		movs	r5, #0
 573 00cc 1D70     		strb	r5, [r3]
 574              	.L40:
 525:..\..\..\..\..\other/cy_eink_library.c ****                     {
 575              		.loc 1 525 0
 576 00ce 0130     		adds	r0, r0, #1
 577              	.LVL72:
 578 00d0 C0B2     		uxtb	r0, r0
 579              	.LVL73:
 580 00d2 00E0     		b	.L42
 581              	.LVL74:
 582              	.L49:
ARM GAS  C:\Users\cypress\AppData\Local\Temp\cc6xjuAE.s 			page 21


 583 00d4 0020     		movs	r0, #0
 584              	.L42:
 585              	.LVL75:
 524:..\..\..\..\..\other/cy_eink_library.c ****                          horizontalCounter++)
 586              		.loc 1 524 0 discriminator 1
 587 00d6 9379     		ldrb	r3, [r2, #6]
 523:..\..\..\..\..\other/cy_eink_library.c ****                          horizontalCounter < (fontInfo->xSize);
 588              		.loc 1 523 0 discriminator 1
 589 00d8 9842     		cmp	r0, r3
 590 00da E9D3     		bcc	.L41
 520:..\..\..\..\..\other/cy_eink_library.c ****                 {
 591              		.loc 1 520 0
 592 00dc 0134     		adds	r4, r4, #1
 593              	.LVL76:
 594 00de E4B2     		uxtb	r4, r4
 595              	.LVL77:
 596 00e0 00E0     		b	.L33
 597              	.LVL78:
 598              	.L46:
 599 00e2 0024     		movs	r4, #0
 600              	.L33:
 601              	.LVL79:
 519:..\..\..\..\..\other/cy_eink_library.c ****                      verticalCounter++)
 602              		.loc 1 519 0 discriminator 1
 603 00e4 D379     		ldrb	r3, [r2, #7]
 518:..\..\..\..\..\other/cy_eink_library.c ****                      verticalCounter < (fontInfo->ySize); 
 604              		.loc 1 518 0 discriminator 1
 605 00e6 9C42     		cmp	r4, r3
 606 00e8 F4D3     		bcc	.L49
 607              	.LVL80:
 608              	.L32:
 544:..\..\..\..\..\other/cy_eink_library.c ****                         }
 545:..\..\..\..\..\other/cy_eink_library.c ****                     }
 546:..\..\..\..\..\other/cy_eink_library.c ****                 }
 547:..\..\..\..\..\other/cy_eink_library.c ****             }
 548:..\..\..\..\..\other/cy_eink_library.c ****         }
 549:..\..\..\..\..\other/cy_eink_library.c ****         /* Move on to the next character by incrementing the horizontal
 550:..\..\..\..\..\other/cy_eink_library.c ****            location */
 551:..\..\..\..\..\other/cy_eink_library.c ****         fontCor[CY_EINK_FONT_X]++;
 609              		.loc 1 551 0
 610 00ea 5346     		mov	r3, r10
 611 00ec 1B78     		ldrb	r3, [r3]
 612 00ee 0133     		adds	r3, r3, #1
 613 00f0 DBB2     		uxtb	r3, r3
 614 00f2 5146     		mov	r1, r10
 615 00f4 0B70     		strb	r3, [r1]
 552:..\..\..\..\..\other/cy_eink_library.c ****         
 553:..\..\..\..\..\other/cy_eink_library.c ****         /* Reset the X location and increment the Y location if the X span 
 554:..\..\..\..\..\other/cy_eink_library.c ****            is reached */
 555:..\..\..\..\..\other/cy_eink_library.c ****         if (fontCor[CY_EINK_FONT_X] >= (fontInfo->xSpan))
 616              		.loc 1 555 0
 617 00f6 117A     		ldrb	r1, [r2, #8]
 618 00f8 8B42     		cmp	r3, r1
 619 00fa 05D3     		bcc	.L43
 556:..\..\..\..\..\other/cy_eink_library.c ****         {
 557:..\..\..\..\..\other/cy_eink_library.c ****             fontCor[CY_EINK_FONT_X] = 0;
 620              		.loc 1 557 0
ARM GAS  C:\Users\cypress\AppData\Local\Temp\cc6xjuAE.s 			page 22


 621 00fc 0023     		movs	r3, #0
 622 00fe 5146     		mov	r1, r10
 623 0100 0B70     		strb	r3, [r1]
 558:..\..\..\..\..\other/cy_eink_library.c ****             fontCor[CY_EINK_FONT_Y]++;
 624              		.loc 1 558 0
 625 0102 4B78     		ldrb	r3, [r1, #1]
 626 0104 0133     		adds	r3, r3, #1
 627 0106 4B70     		strb	r3, [r1, #1]
 628              	.L43:
 559:..\..\..\..\..\other/cy_eink_library.c ****         }
 560:..\..\..\..\..\other/cy_eink_library.c ****         /* End the function if the Y span is reached */
 561:..\..\..\..\..\other/cy_eink_library.c ****         if (fontCor[CY_EINK_FONT_Y] > (fontInfo->ySpan))
 629              		.loc 1 561 0
 630 0108 5346     		mov	r3, r10
 631 010a 5978     		ldrb	r1, [r3, #1]
 632 010c 537A     		ldrb	r3, [r2, #9]
 633 010e 9942     		cmp	r1, r3
 634 0110 07D8     		bhi	.L44
 450:..\..\..\..\..\other/cy_eink_library.c ****     {
 635              		.loc 1 450 0 discriminator 2
 636 0112 0123     		movs	r3, #1
 637 0114 9846     		mov	r8, r3
 638 0116 C144     		add	r9, r9, r8
 639              	.LVL81:
 640              	.L31:
 450:..\..\..\..\..\other/cy_eink_library.c ****     {
 641              		.loc 1 450 0 is_stmt 0 discriminator 1
 642 0118 4B46     		mov	r3, r9
 643 011a 1878     		ldrb	r0, [r3]
 644 011c 0028     		cmp	r0, #0
 645 011e 00D0     		beq	.LCB668
 646 0120 7AE7     		b	.L45	@long jump
 647              	.LCB668:
 648              	.L44:
 562:..\..\..\..\..\other/cy_eink_library.c ****         {
 563:..\..\..\..\..\other/cy_eink_library.c ****             break;
 564:..\..\..\..\..\other/cy_eink_library.c ****         }
 565:..\..\..\..\..\other/cy_eink_library.c ****     }
 566:..\..\..\..\..\other/cy_eink_library.c ****     
 567:..\..\..\..\..\other/cy_eink_library.c ****     return returnValue;
 568:..\..\..\..\..\other/cy_eink_library.c **** }
 649              		.loc 1 568 0 is_stmt 1
 650 0122 5846     		mov	r0, fp
 651              		@ sp needed
 652              	.LVL82:
 653              	.LVL83:
 654              	.LVL84:
 655 0124 3CBC     		pop	{r2, r3, r4, r5}
 656 0126 9046     		mov	r8, r2
 657 0128 9946     		mov	r9, r3
 658 012a A246     		mov	r10, r4
 659 012c AB46     		mov	fp, r5
 660 012e F0BD     		pop	{r4, r5, r6, r7, pc}
 661              		.cfi_endproc
 662              	.LFE456:
 663              		.size	Cy_EINK_TextToFrameBuffer, .-Cy_EINK_TextToFrameBuffer
 664              		.text
ARM GAS  C:\Users\cypress\AppData\Local\Temp\cc6xjuAE.s 			page 23


 665              	.Letext0:
 666              		.file 2 "c:\\program files (x86)\\cypress\\psoc creator\\4.2\\psoc creator\\import\\gnu\\arm\\5.4.
 667              		.file 3 "c:\\program files (x86)\\cypress\\psoc creator\\4.2\\psoc creator\\import\\gnu\\arm\\5.4.
 668              		.file 4 "Generated_Source\\PSoC6\\pdl\\drivers/peripheral/tcpwm/cy_tcpwm_counter.h"
 669              		.file 5 "Generated_Source\\PSoC6\\pdl\\drivers/peripheral/scb/cy_scb_spi.h"
 670              		.file 6 "..\\..\\..\\..\\..\\other\\cy_eink_fonts.h"
 671              		.file 7 "..\\..\\..\\..\\..\\other\\cy_eink_psoc_interface.h"
 672              		.file 8 "..\\..\\..\\..\\..\\other\\pervasive_eink_hardware_driver.h"
 673              		.file 9 "..\\..\\..\\..\\..\\other\\cy_eink_library.h"
 674              		.file 10 "Generated_Source\\PSoC6/CY_EINK_SPIM.h"
 675              		.file 11 "Generated_Source\\PSoC6/Cy_EINK_Timer.h"