ARM GAS  C:\Users\cypress\AppData\Local\Temp\ccKiBCFc.s 			page 1


   1              		.syntax unified
   2              		.cpu cortex-m0plus
   3              		.fpu softvfp
   4              		.eabi_attribute 20, 1
   5              		.eabi_attribute 21, 1
   6              		.eabi_attribute 23, 3
   7              		.eabi_attribute 24, 1
   8              		.eabi_attribute 25, 1
   9              		.eabi_attribute 26, 1
  10              		.eabi_attribute 30, 1
  11              		.eabi_attribute 34, 0
  12              		.eabi_attribute 18, 4
  13              		.thumb
  14              		.syntax unified
  15              		.file	"cy_ipc_config.c"
  16              		.text
  17              	.Ltext0:
  18              		.cfi_sections	.debug_frame
  19              		.section	.text.Cy_IPC_SystemPipeIsr,"ax",%progbits
  20              		.align	2
  21              		.code	16
  22              		.thumb_func
  23              		.type	Cy_IPC_SystemPipeIsr, %function
  24              	Cy_IPC_SystemPipeIsr:
  25              	.LFB59:
  26              		.file 1 "cy_ipc_config.c"
   1:cy_ipc_config.c **** /***************************************************************************//**
   2:cy_ipc_config.c **** * \file cy_ipc_config.c
   3:cy_ipc_config.c **** * \version 1.20
   4:cy_ipc_config.c **** *
   5:cy_ipc_config.c **** *  Description:
   6:cy_ipc_config.c **** *  This C file is not intended to be part of the IPC driver. It is the code
   7:cy_ipc_config.c **** *  required to configure the device specific IPC channels for semaphores
   8:cy_ipc_config.c **** *  and pipes.
   9:cy_ipc_config.c **** *
  10:cy_ipc_config.c **** ********************************************************************************
  11:cy_ipc_config.c **** * Copyright 2016-2018, Cypress Semiconductor Corporation.  All rights reserved.
  12:cy_ipc_config.c **** * You may use this file only in accordance with the license, terms, conditions,
  13:cy_ipc_config.c **** * disclaimers, and limitations in the end user license agreement accompanying
  14:cy_ipc_config.c **** * the software package with which this file was provided.
  15:cy_ipc_config.c **** *******************************************************************************/
  16:cy_ipc_config.c **** 
  17:cy_ipc_config.c **** #include "ipc/cy_ipc_drv.h"
  18:cy_ipc_config.c **** #include "ipc/cy_ipc_pipe.h"
  19:cy_ipc_config.c **** #include "ipc/cy_ipc_sema.h"
  20:cy_ipc_config.c **** 
  21:cy_ipc_config.c **** #include "cy_ipc_config.h"
  22:cy_ipc_config.c **** 
  23:cy_ipc_config.c **** #if (CY_IPC_CYPIPE_ENABLE)
  24:cy_ipc_config.c **** static void Cy_IPC_SystemPipeIsr(void);
  25:cy_ipc_config.c **** 
  26:cy_ipc_config.c **** #define CY_CYPIPE_DEFAULT_CONFIG    \
  27:cy_ipc_config.c **** {\
  28:cy_ipc_config.c ****     /* .ep0ConfigData */ {\
  29:cy_ipc_config.c ****         /* .ipcNotifierNumber    */  CY_IPC_INTR_CYPIPE_EP0,\
  30:cy_ipc_config.c ****         /* .ipcNotifierPriority  */  CY_IPC_INTR_CYPIPE_PRIOR_EP0,\
  31:cy_ipc_config.c ****         /* .ipcNotifierMuxNumber */  CY_IPC_INTR_CYPIPE_MUX_EP0,\
ARM GAS  C:\Users\cypress\AppData\Local\Temp\ccKiBCFc.s 			page 2


  32:cy_ipc_config.c ****         /* .epAddress            */  CY_IPC_EP_CYPIPE_CM0_ADDR,\
  33:cy_ipc_config.c ****         /* .epConfig             */  CY_IPC_CYPIPE_CONFIG_EP0\
  34:cy_ipc_config.c ****     },\
  35:cy_ipc_config.c ****     /* .ep1ConfigData */ {\
  36:cy_ipc_config.c ****         /* .ipcNotifierNumber    */  CY_IPC_INTR_CYPIPE_EP1,\
  37:cy_ipc_config.c ****         /* .ipcNotifierPriority  */  CY_IPC_INTR_CYPIPE_PRIOR_EP1,\
  38:cy_ipc_config.c ****         /* .ipcNotifierMuxNumber */  0u,\
  39:cy_ipc_config.c ****         /* .epAddress            */  CY_IPC_EP_CYPIPE_CM4_ADDR,\
  40:cy_ipc_config.c ****         /* .epConfig             */  CY_IPC_CYPIPE_CONFIG_EP1\
  41:cy_ipc_config.c ****     },\
  42:cy_ipc_config.c ****     /* .endpointClientsCount     */  CY_IPC_CYPIPE_CLIENT_CNT,\
  43:cy_ipc_config.c ****     /* .endpointsCallbacksArray  */  cy_ipc_pipe_sysCbArray,\
  44:cy_ipc_config.c ****     /* .userPipeIsrHandler       */  &Cy_IPC_SystemPipeIsr\
  45:cy_ipc_config.c **** }
  46:cy_ipc_config.c **** #endif /* CY_IPC_CYPIPE_ENABLE */
  47:cy_ipc_config.c **** 
  48:cy_ipc_config.c **** /*******************************************************************************
  49:cy_ipc_config.c **** * Function Name: Cy_IPC_SystemSemaInit
  50:cy_ipc_config.c **** ****************************************************************************//**
  51:cy_ipc_config.c **** *
  52:cy_ipc_config.c **** * Initializes the system semaphores. The system semaphores are used by Flash.
  53:cy_ipc_config.c **** *
  54:cy_ipc_config.c **** * This function is called in the SystemInit() function. If the default startup
  55:cy_ipc_config.c **** * file is not used, or SystemInit() is not called in your project,
  56:cy_ipc_config.c **** * call the following three functions prior to executing any flash or EmEEPROM
  57:cy_ipc_config.c **** * write or erase operation:
  58:cy_ipc_config.c **** *  -# Cy_IPC_SystemSemaInit()
  59:cy_ipc_config.c **** *  -# Cy_IPC_SystemPipeInit()
  60:cy_ipc_config.c **** *  -# Cy_Flash_Init()
  61:cy_ipc_config.c **** *
  62:cy_ipc_config.c **** *******************************************************************************/
  63:cy_ipc_config.c **** void Cy_IPC_SystemSemaInit(void)
  64:cy_ipc_config.c **** {
  65:cy_ipc_config.c **** /* Create array used for semaphores */
  66:cy_ipc_config.c **** #if ((CY_CPU_CORTEX_M0P) || !(__CM0P_PRESENT))
  67:cy_ipc_config.c ****     static uint32_t ipcSemaArray[CY_IPC_SEMA_COUNT / CY_IPC_SEMA_PER_WORD];
  68:cy_ipc_config.c ****     (void) Cy_IPC_Sema_Init(CY_IPC_CHAN_SEMA, CY_IPC_SEMA_COUNT, ipcSemaArray);
  69:cy_ipc_config.c **** #else
  70:cy_ipc_config.c ****     (void) Cy_IPC_Sema_Init(CY_IPC_CHAN_SEMA, 0ul, NULL);
  71:cy_ipc_config.c **** #endif
  72:cy_ipc_config.c **** }
  73:cy_ipc_config.c **** 
  74:cy_ipc_config.c **** /*******************************************************************************
  75:cy_ipc_config.c **** * Function Name: Cy_IPC_SystemPipeInit
  76:cy_ipc_config.c **** ****************************************************************************//**
  77:cy_ipc_config.c **** *
  78:cy_ipc_config.c **** * Initializes the system pipes. The system pipes are used by BLE and Flash.
  79:cy_ipc_config.c **** * \note The function should be called on all CPUs.
  80:cy_ipc_config.c **** *
  81:cy_ipc_config.c **** * This function is called in the SystemInit() function. If the default startup
  82:cy_ipc_config.c **** * file is not used, or SystemInit() is not called in your project,
  83:cy_ipc_config.c **** * call the following three functions prior to executing any flash or EmEEPROM
  84:cy_ipc_config.c **** * write or erase operation:
  85:cy_ipc_config.c **** *  -# Cy_IPC_SystemSemaInit()
  86:cy_ipc_config.c **** *  -# Cy_IPC_SystemPipeInit()
  87:cy_ipc_config.c **** *  -# Cy_Flash_Init()
  88:cy_ipc_config.c **** *
ARM GAS  C:\Users\cypress\AppData\Local\Temp\ccKiBCFc.s 			page 3


  89:cy_ipc_config.c **** * Also this function is called to support BLE host/controller communication.
  90:cy_ipc_config.c **** *
  91:cy_ipc_config.c **** *******************************************************************************/
  92:cy_ipc_config.c **** void Cy_IPC_SystemPipeInit(void)
  93:cy_ipc_config.c **** {
  94:cy_ipc_config.c ****     /* Create an array of endpoint structures */
  95:cy_ipc_config.c ****     static cy_stc_ipc_pipe_ep_t cy_ipc_pipe_sysEpArray[CY_IPC_MAX_ENDPOINTS];
  96:cy_ipc_config.c **** 
  97:cy_ipc_config.c ****     Cy_IPC_Pipe_Config(cy_ipc_pipe_sysEpArray);
  98:cy_ipc_config.c **** 
  99:cy_ipc_config.c **** #if (CY_IPC_CYPIPE_ENABLE)
 100:cy_ipc_config.c ****     uint32_t intr;
 101:cy_ipc_config.c **** 
 102:cy_ipc_config.c ****     static cy_ipc_pipe_callback_ptr_t cy_ipc_pipe_sysCbArray[CY_IPC_CYPIPE_CLIENT_CNT];
 103:cy_ipc_config.c **** 
 104:cy_ipc_config.c ****     static const cy_stc_ipc_pipe_config_t systemPipeConfig = CY_CYPIPE_DEFAULT_CONFIG;
 105:cy_ipc_config.c **** 
 106:cy_ipc_config.c ****     intr = Cy_SysLib_EnterCriticalSection();
 107:cy_ipc_config.c **** 
 108:cy_ipc_config.c ****     Cy_IPC_Pipe_Init(&systemPipeConfig);
 109:cy_ipc_config.c **** 
 110:cy_ipc_config.c ****     Cy_SysLib_ExitCriticalSection(intr);
 111:cy_ipc_config.c **** #endif /* CY_IPC_CYPIPE_ENABLE */
 112:cy_ipc_config.c **** }
 113:cy_ipc_config.c **** 
 114:cy_ipc_config.c **** #if (CY_IPC_CYPIPE_ENABLE)
 115:cy_ipc_config.c **** /*******************************************************************************
 116:cy_ipc_config.c **** * Function Name: Cy_IPC_SystemPipeIsr
 117:cy_ipc_config.c **** ****************************************************************************//**
 118:cy_ipc_config.c **** *
 119:cy_ipc_config.c **** * This is the interrupt service routine for the system pipe.
 120:cy_ipc_config.c **** *
 121:cy_ipc_config.c **** *******************************************************************************/
 122:cy_ipc_config.c **** static void Cy_IPC_SystemPipeIsr(void)
 123:cy_ipc_config.c **** {
  27              		.loc 1 123 0
  28              		.cfi_startproc
  29              		@ args = 0, pretend = 0, frame = 0
  30              		@ frame_needed = 0, uses_anonymous_args = 0
  31 0000 10B5     		push	{r4, lr}
  32              		.cfi_def_cfa_offset 8
  33              		.cfi_offset 4, -8
  34              		.cfi_offset 14, -4
 124:cy_ipc_config.c ****     Cy_IPC_Pipe_ExecuteCallback(CY_IPC_EP_CYPIPE_ADDR);
  35              		.loc 1 124 0
  36 0002 0020     		movs	r0, #0
  37 0004 FFF7FEFF 		bl	Cy_IPC_Pipe_ExecuteCallback
  38              	.LVL0:
 125:cy_ipc_config.c **** }
  39              		.loc 1 125 0
  40              		@ sp needed
  41 0008 10BD     		pop	{r4, pc}
  42              		.cfi_endproc
  43              	.LFE59:
  44              		.size	Cy_IPC_SystemPipeIsr, .-Cy_IPC_SystemPipeIsr
  45 000a C046     		.section	.text.Cy_IPC_SystemSemaInit,"ax",%progbits
  46              		.align	2
ARM GAS  C:\Users\cypress\AppData\Local\Temp\ccKiBCFc.s 			page 4


  47              		.global	Cy_IPC_SystemSemaInit
  48              		.code	16
  49              		.thumb_func
  50              		.type	Cy_IPC_SystemSemaInit, %function
  51              	Cy_IPC_SystemSemaInit:
  52              	.LFB57:
  64:cy_ipc_config.c **** /* Create array used for semaphores */
  53              		.loc 1 64 0
  54              		.cfi_startproc
  55              		@ args = 0, pretend = 0, frame = 0
  56              		@ frame_needed = 0, uses_anonymous_args = 0
  57 0000 10B5     		push	{r4, lr}
  58              		.cfi_def_cfa_offset 8
  59              		.cfi_offset 4, -8
  60              		.cfi_offset 14, -4
  68:cy_ipc_config.c **** #else
  61              		.loc 1 68 0
  62 0002 034A     		ldr	r2, .L3
  63 0004 8021     		movs	r1, #128
  64 0006 0420     		movs	r0, #4
  65 0008 FFF7FEFF 		bl	Cy_IPC_Sema_Init
  66              	.LVL1:
  72:cy_ipc_config.c **** 
  67              		.loc 1 72 0
  68              		@ sp needed
  69 000c 10BD     		pop	{r4, pc}
  70              	.L4:
  71 000e C046     		.align	2
  72              	.L3:
  73 0010 00000000 		.word	.LANCHOR0
  74              		.cfi_endproc
  75              	.LFE57:
  76              		.size	Cy_IPC_SystemSemaInit, .-Cy_IPC_SystemSemaInit
  77              		.section	.text.Cy_IPC_SystemPipeInit,"ax",%progbits
  78              		.align	2
  79              		.global	Cy_IPC_SystemPipeInit
  80              		.code	16
  81              		.thumb_func
  82              		.type	Cy_IPC_SystemPipeInit, %function
  83              	Cy_IPC_SystemPipeInit:
  84              	.LFB58:
  93:cy_ipc_config.c ****     /* Create an array of endpoint structures */
  85              		.loc 1 93 0
  86              		.cfi_startproc
  87              		@ args = 0, pretend = 0, frame = 0
  88              		@ frame_needed = 0, uses_anonymous_args = 0
  89 0000 10B5     		push	{r4, lr}
  90              		.cfi_def_cfa_offset 8
  91              		.cfi_offset 4, -8
  92              		.cfi_offset 14, -4
  97:cy_ipc_config.c **** 
  93              		.loc 1 97 0
  94 0002 0748     		ldr	r0, .L6
  95 0004 1030     		adds	r0, r0, #16
  96 0006 FFF7FEFF 		bl	Cy_IPC_Pipe_Config
  97              	.LVL2:
 106:cy_ipc_config.c **** 
ARM GAS  C:\Users\cypress\AppData\Local\Temp\ccKiBCFc.s 			page 5


  98              		.loc 1 106 0
  99 000a FFF7FEFF 		bl	Cy_SysLib_EnterCriticalSection
 100              	.LVL3:
 101 000e 0400     		movs	r4, r0
 102              	.LVL4:
 108:cy_ipc_config.c **** 
 103              		.loc 1 108 0
 104 0010 0448     		ldr	r0, .L6+4
 105              	.LVL5:
 106 0012 FFF7FEFF 		bl	Cy_IPC_Pipe_Init
 107              	.LVL6:
 110:cy_ipc_config.c **** #endif /* CY_IPC_CYPIPE_ENABLE */
 108              		.loc 1 110 0
 109 0016 2000     		movs	r0, r4
 110 0018 FFF7FEFF 		bl	Cy_SysLib_ExitCriticalSection
 111              	.LVL7:
 112:cy_ipc_config.c **** 
 112              		.loc 1 112 0
 113              		@ sp needed
 114              	.LVL8:
 115 001c 10BD     		pop	{r4, pc}
 116              	.L7:
 117 001e C046     		.align	2
 118              	.L6:
 119 0020 00000000 		.word	.LANCHOR0
 120 0024 00000000 		.word	.LANCHOR1
 121              		.cfi_endproc
 122              	.LFE58:
 123              		.size	Cy_IPC_SystemPipeInit, .-Cy_IPC_SystemPipeInit
 124              		.section	.rodata
 125              		.align	2
 126              		.set	.LANCHOR1,. + 0
 127              		.type	systemPipeConfig.9353, %object
 128              		.size	systemPipeConfig.9353, 52
 129              	systemPipeConfig.9353:
 130 0000 03000000 		.word	3
 131 0004 01000000 		.word	1
 132 0008 01000000 		.word	1
 133 000c 00000000 		.word	0
 134 0010 05036000 		.word	6292229
 135 0014 04000000 		.word	4
 136 0018 01000000 		.word	1
 137 001c 00000000 		.word	0
 138 0020 01000000 		.word	1
 139 0024 06046000 		.word	6292486
 140 0028 08000000 		.word	8
 141 002c 70010000 		.word	cy_ipc_pipe_sysCbArray.9352
 142 0030 00000000 		.word	Cy_IPC_SystemPipeIsr
 143              		.bss
 144              		.align	2
 145              		.set	.LANCHOR0,. + 0
 146              		.type	ipcSemaArray.9346, %object
 147              		.size	ipcSemaArray.9346, 16
 148              	ipcSemaArray.9346:
 149 0000 00000000 		.space	16
 149      00000000 
 149      00000000 
ARM GAS  C:\Users\cypress\AppData\Local\Temp\ccKiBCFc.s 			page 6


 149      00000000 
 150              		.type	cy_ipc_pipe_sysEpArray.9350, %object
 151              		.size	cy_ipc_pipe_sysEpArray.9350, 352
 152              	cy_ipc_pipe_sysEpArray.9350:
 153 0010 00000000 		.space	352
 153      00000000 
 153      00000000 
 153      00000000 
 153      00000000 
 154              		.type	cy_ipc_pipe_sysCbArray.9352, %object
 155              		.size	cy_ipc_pipe_sysCbArray.9352, 32
 156              	cy_ipc_pipe_sysCbArray.9352:
 157 0170 00000000 		.space	32
 157      00000000 
 157      00000000 
 157      00000000 
 157      00000000 
 158              		.text
 159              	.Letext0:
 160              		.file 2 "c:\\program files (x86)\\cypress\\psoc creator\\4.2\\psoc creator\\import\\gnu\\arm\\5.4.
 161              		.file 3 "c:\\program files (x86)\\cypress\\psoc creator\\4.2\\psoc creator\\import\\gnu\\arm\\5.4.
 162              		.file 4 "Generated_Source\\PSoC6\\pdl\\devices/psoc6/psoc63/include/cy8c6347bzi_bld53.h"
 163              		.file 5 "Generated_Source\\PSoC6\\pdl\\devices/psoc6/ip/cyip_ipc.h"
 164              		.file 6 "Generated_Source\\PSoC6\\pdl\\drivers/peripheral/syslib/cy_syslib.h"
 165              		.file 7 "Generated_Source\\PSoC6\\pdl\\drivers/peripheral/ipc/cy_ipc_pipe.h"
 166              		.file 8 "Generated_Source\\PSoC6\\pdl\\drivers/peripheral/ipc/cy_ipc_sema.h"