ARM GAS  C:\Users\cypress\AppData\Local\Temp\cc5yJhCB.s 			page 1


   1              		.syntax unified
   2              		.cpu cortex-m0plus
   3              		.fpu softvfp
   4              		.eabi_attribute 20, 1
   5              		.eabi_attribute 21, 1
   6              		.eabi_attribute 23, 3
   7              		.eabi_attribute 24, 1
   8              		.eabi_attribute 25, 1
   9              		.eabi_attribute 26, 1
  10              		.eabi_attribute 30, 1
  11              		.eabi_attribute 34, 0
  12              		.eabi_attribute 18, 4
  13              		.thumb
  14              		.syntax unified
  15              		.file	"Status_SW2.c"
  16              		.text
  17              	.Ltext0:
  18              		.cfi_sections	.debug_frame
  19              		.section	.text.Status_SW2_Read,"ax",%progbits
  20              		.align	2
  21              		.global	Status_SW2_Read
  22              		.code	16
  23              		.thumb_func
  24              		.type	Status_SW2_Read, %function
  25              	Status_SW2_Read:
  26              	.LFB36:
  27              		.file 1 "Generated_Source\\PSoC6\\Status_SW2.c"
   1:Generated_Source\PSoC6/Status_SW2.c **** /*******************************************************************************
   2:Generated_Source\PSoC6/Status_SW2.c **** * File Name: Status_SW2.c  
   3:Generated_Source\PSoC6/Status_SW2.c **** * Version 1.90
   4:Generated_Source\PSoC6/Status_SW2.c **** *
   5:Generated_Source\PSoC6/Status_SW2.c **** * Description:
   6:Generated_Source\PSoC6/Status_SW2.c **** *  This file contains API to enable firmware to read the value of a Status 
   7:Generated_Source\PSoC6/Status_SW2.c **** *  Register.
   8:Generated_Source\PSoC6/Status_SW2.c **** *
   9:Generated_Source\PSoC6/Status_SW2.c **** * Note:
  10:Generated_Source\PSoC6/Status_SW2.c **** *
  11:Generated_Source\PSoC6/Status_SW2.c **** ********************************************************************************
  12:Generated_Source\PSoC6/Status_SW2.c **** * Copyright 2008-2015, Cypress Semiconductor Corporation.  All rights reserved.
  13:Generated_Source\PSoC6/Status_SW2.c **** * You may use this file only in accordance with the license, terms, conditions, 
  14:Generated_Source\PSoC6/Status_SW2.c **** * disclaimers, and limitations in the end user license agreement accompanying 
  15:Generated_Source\PSoC6/Status_SW2.c **** * the software package with which this file was provided.
  16:Generated_Source\PSoC6/Status_SW2.c **** *******************************************************************************/
  17:Generated_Source\PSoC6/Status_SW2.c **** 
  18:Generated_Source\PSoC6/Status_SW2.c **** #include "Status_SW2.h"
  19:Generated_Source\PSoC6/Status_SW2.c **** 
  20:Generated_Source\PSoC6/Status_SW2.c **** #if !defined(Status_SW2_sts_sts_reg__REMOVED) /* Check for removal by optimization */
  21:Generated_Source\PSoC6/Status_SW2.c **** 
  22:Generated_Source\PSoC6/Status_SW2.c **** 
  23:Generated_Source\PSoC6/Status_SW2.c **** /*******************************************************************************
  24:Generated_Source\PSoC6/Status_SW2.c **** * Function Name: Status_SW2_Read
  25:Generated_Source\PSoC6/Status_SW2.c **** ********************************************************************************
  26:Generated_Source\PSoC6/Status_SW2.c **** *
  27:Generated_Source\PSoC6/Status_SW2.c **** * Summary:
  28:Generated_Source\PSoC6/Status_SW2.c **** *  Reads the current value assigned to the Status Register.
  29:Generated_Source\PSoC6/Status_SW2.c **** *
  30:Generated_Source\PSoC6/Status_SW2.c **** * Parameters:
ARM GAS  C:\Users\cypress\AppData\Local\Temp\cc5yJhCB.s 			page 2


  31:Generated_Source\PSoC6/Status_SW2.c **** *  None.
  32:Generated_Source\PSoC6/Status_SW2.c **** *
  33:Generated_Source\PSoC6/Status_SW2.c **** * Return:
  34:Generated_Source\PSoC6/Status_SW2.c **** *  The current value in the Status Register.
  35:Generated_Source\PSoC6/Status_SW2.c **** *
  36:Generated_Source\PSoC6/Status_SW2.c **** *******************************************************************************/
  37:Generated_Source\PSoC6/Status_SW2.c **** uint8 Status_SW2_Read(void) 
  38:Generated_Source\PSoC6/Status_SW2.c **** { 
  28              		.loc 1 38 0
  29              		.cfi_startproc
  30              		@ args = 0, pretend = 0, frame = 0
  31              		@ frame_needed = 0, uses_anonymous_args = 0
  32              		@ link register save eliminated.
  39:Generated_Source\PSoC6/Status_SW2.c ****     return Status_SW2_Status;
  33              		.loc 1 39 0
  34 0000 014B     		ldr	r3, .L2
  35 0002 1878     		ldrb	r0, [r3]
  36 0004 C0B2     		uxtb	r0, r0
  40:Generated_Source\PSoC6/Status_SW2.c **** }
  37              		.loc 1 40 0
  38              		@ sp needed
  39 0006 7047     		bx	lr
  40              	.L3:
  41              		.align	2
  42              	.L2:
  43 0008 04163440 		.word	1077155332
  44              		.cfi_endproc
  45              	.LFE36:
  46              		.size	Status_SW2_Read, .-Status_SW2_Read
  47              		.section	.text.Status_SW2_InterruptEnable,"ax",%progbits
  48              		.align	2
  49              		.global	Status_SW2_InterruptEnable
  50              		.code	16
  51              		.thumb_func
  52              		.type	Status_SW2_InterruptEnable, %function
  53              	Status_SW2_InterruptEnable:
  54              	.LFB37:
  41:Generated_Source\PSoC6/Status_SW2.c **** 
  42:Generated_Source\PSoC6/Status_SW2.c **** 
  43:Generated_Source\PSoC6/Status_SW2.c **** /*******************************************************************************
  44:Generated_Source\PSoC6/Status_SW2.c **** * Function Name: Status_SW2_InterruptEnable
  45:Generated_Source\PSoC6/Status_SW2.c **** ********************************************************************************
  46:Generated_Source\PSoC6/Status_SW2.c **** *
  47:Generated_Source\PSoC6/Status_SW2.c **** * Summary:
  48:Generated_Source\PSoC6/Status_SW2.c **** *  Enables the Status Register interrupt.
  49:Generated_Source\PSoC6/Status_SW2.c **** *
  50:Generated_Source\PSoC6/Status_SW2.c **** * Parameters:
  51:Generated_Source\PSoC6/Status_SW2.c **** *  None.
  52:Generated_Source\PSoC6/Status_SW2.c **** *
  53:Generated_Source\PSoC6/Status_SW2.c **** * Return:
  54:Generated_Source\PSoC6/Status_SW2.c **** *  None.
  55:Generated_Source\PSoC6/Status_SW2.c **** *
  56:Generated_Source\PSoC6/Status_SW2.c **** *******************************************************************************/
  57:Generated_Source\PSoC6/Status_SW2.c **** void Status_SW2_InterruptEnable(void) 
  58:Generated_Source\PSoC6/Status_SW2.c **** {
  55              		.loc 1 58 0
  56              		.cfi_startproc
ARM GAS  C:\Users\cypress\AppData\Local\Temp\cc5yJhCB.s 			page 3


  57              		@ args = 0, pretend = 0, frame = 0
  58              		@ frame_needed = 0, uses_anonymous_args = 0
  59 0000 10B5     		push	{r4, lr}
  60              		.cfi_def_cfa_offset 8
  61              		.cfi_offset 4, -8
  62              		.cfi_offset 14, -4
  59:Generated_Source\PSoC6/Status_SW2.c ****     uint8 interruptState;
  60:Generated_Source\PSoC6/Status_SW2.c ****     interruptState = CyEnterCriticalSection();
  63              		.loc 1 60 0
  64 0002 FFF7FEFF 		bl	Cy_SysLib_EnterCriticalSection
  65              	.LVL0:
  61:Generated_Source\PSoC6/Status_SW2.c ****     Status_SW2_Status_Aux_Ctrl |= Status_SW2_STATUS_INTR_ENBL;
  66              		.loc 1 61 0
  67 0006 054A     		ldr	r2, .L5
  68 0008 1178     		ldrb	r1, [r2]
  69 000a 1023     		movs	r3, #16
  70 000c 0B43     		orrs	r3, r1
  71 000e DBB2     		uxtb	r3, r3
  72 0010 1370     		strb	r3, [r2]
  62:Generated_Source\PSoC6/Status_SW2.c ****     CyExitCriticalSection(interruptState);
  73              		.loc 1 62 0
  74 0012 FF23     		movs	r3, #255
  75 0014 1840     		ands	r0, r3
  76              	.LVL1:
  77 0016 FFF7FEFF 		bl	Cy_SysLib_ExitCriticalSection
  78              	.LVL2:
  63:Generated_Source\PSoC6/Status_SW2.c **** }
  79              		.loc 1 63 0
  80              		@ sp needed
  81 001a 10BD     		pop	{r4, pc}
  82              	.L6:
  83              		.align	2
  84              	.L5:
  85 001c 04193440 		.word	1077156100
  86              		.cfi_endproc
  87              	.LFE37:
  88              		.size	Status_SW2_InterruptEnable, .-Status_SW2_InterruptEnable
  89              		.section	.text.Status_SW2_InterruptDisable,"ax",%progbits
  90              		.align	2
  91              		.global	Status_SW2_InterruptDisable
  92              		.code	16
  93              		.thumb_func
  94              		.type	Status_SW2_InterruptDisable, %function
  95              	Status_SW2_InterruptDisable:
  96              	.LFB38:
  64:Generated_Source\PSoC6/Status_SW2.c **** 
  65:Generated_Source\PSoC6/Status_SW2.c **** 
  66:Generated_Source\PSoC6/Status_SW2.c **** /*******************************************************************************
  67:Generated_Source\PSoC6/Status_SW2.c **** * Function Name: Status_SW2_InterruptDisable
  68:Generated_Source\PSoC6/Status_SW2.c **** ********************************************************************************
  69:Generated_Source\PSoC6/Status_SW2.c **** *
  70:Generated_Source\PSoC6/Status_SW2.c **** * Summary:
  71:Generated_Source\PSoC6/Status_SW2.c **** *  Disables the Status Register interrupt.
  72:Generated_Source\PSoC6/Status_SW2.c **** *
  73:Generated_Source\PSoC6/Status_SW2.c **** * Parameters:
  74:Generated_Source\PSoC6/Status_SW2.c **** *  None.
  75:Generated_Source\PSoC6/Status_SW2.c **** *
ARM GAS  C:\Users\cypress\AppData\Local\Temp\cc5yJhCB.s 			page 4


  76:Generated_Source\PSoC6/Status_SW2.c **** * Return:
  77:Generated_Source\PSoC6/Status_SW2.c **** *  None.
  78:Generated_Source\PSoC6/Status_SW2.c **** *
  79:Generated_Source\PSoC6/Status_SW2.c **** *******************************************************************************/
  80:Generated_Source\PSoC6/Status_SW2.c **** void Status_SW2_InterruptDisable(void) 
  81:Generated_Source\PSoC6/Status_SW2.c **** {
  97              		.loc 1 81 0
  98              		.cfi_startproc
  99              		@ args = 0, pretend = 0, frame = 0
 100              		@ frame_needed = 0, uses_anonymous_args = 0
 101 0000 10B5     		push	{r4, lr}
 102              		.cfi_def_cfa_offset 8
 103              		.cfi_offset 4, -8
 104              		.cfi_offset 14, -4
  82:Generated_Source\PSoC6/Status_SW2.c ****     uint8 interruptState;
  83:Generated_Source\PSoC6/Status_SW2.c ****     interruptState = CyEnterCriticalSection();
 105              		.loc 1 83 0
 106 0002 FFF7FEFF 		bl	Cy_SysLib_EnterCriticalSection
 107              	.LVL3:
  84:Generated_Source\PSoC6/Status_SW2.c ****     Status_SW2_Status_Aux_Ctrl &= (uint8)(~Status_SW2_STATUS_INTR_ENBL);
 108              		.loc 1 84 0
 109 0006 054A     		ldr	r2, .L8
 110 0008 1378     		ldrb	r3, [r2]
 111 000a 1021     		movs	r1, #16
 112 000c 8B43     		bics	r3, r1
 113 000e 1370     		strb	r3, [r2]
  85:Generated_Source\PSoC6/Status_SW2.c ****     CyExitCriticalSection(interruptState);
 114              		.loc 1 85 0
 115 0010 FF23     		movs	r3, #255
 116 0012 1840     		ands	r0, r3
 117              	.LVL4:
 118 0014 FFF7FEFF 		bl	Cy_SysLib_ExitCriticalSection
 119              	.LVL5:
  86:Generated_Source\PSoC6/Status_SW2.c **** }
 120              		.loc 1 86 0
 121              		@ sp needed
 122 0018 10BD     		pop	{r4, pc}
 123              	.L9:
 124 001a C046     		.align	2
 125              	.L8:
 126 001c 04193440 		.word	1077156100
 127              		.cfi_endproc
 128              	.LFE38:
 129              		.size	Status_SW2_InterruptDisable, .-Status_SW2_InterruptDisable
 130              		.section	.text.Status_SW2_WriteMask,"ax",%progbits
 131              		.align	2
 132              		.global	Status_SW2_WriteMask
 133              		.code	16
 134              		.thumb_func
 135              		.type	Status_SW2_WriteMask, %function
 136              	Status_SW2_WriteMask:
 137              	.LFB39:
  87:Generated_Source\PSoC6/Status_SW2.c **** 
  88:Generated_Source\PSoC6/Status_SW2.c **** 
  89:Generated_Source\PSoC6/Status_SW2.c **** /*******************************************************************************
  90:Generated_Source\PSoC6/Status_SW2.c **** * Function Name: Status_SW2_WriteMask
  91:Generated_Source\PSoC6/Status_SW2.c **** ********************************************************************************
ARM GAS  C:\Users\cypress\AppData\Local\Temp\cc5yJhCB.s 			page 5


  92:Generated_Source\PSoC6/Status_SW2.c **** *
  93:Generated_Source\PSoC6/Status_SW2.c **** * Summary:
  94:Generated_Source\PSoC6/Status_SW2.c **** *  Writes the current mask value assigned to the Status Register.
  95:Generated_Source\PSoC6/Status_SW2.c **** *
  96:Generated_Source\PSoC6/Status_SW2.c **** * Parameters:
  97:Generated_Source\PSoC6/Status_SW2.c **** *  mask:  Value to write into the mask register.
  98:Generated_Source\PSoC6/Status_SW2.c **** *
  99:Generated_Source\PSoC6/Status_SW2.c **** * Return:
 100:Generated_Source\PSoC6/Status_SW2.c **** *  None.
 101:Generated_Source\PSoC6/Status_SW2.c **** *
 102:Generated_Source\PSoC6/Status_SW2.c **** *******************************************************************************/
 103:Generated_Source\PSoC6/Status_SW2.c **** void Status_SW2_WriteMask(uint8 mask) 
 104:Generated_Source\PSoC6/Status_SW2.c **** {
 138              		.loc 1 104 0
 139              		.cfi_startproc
 140              		@ args = 0, pretend = 0, frame = 0
 141              		@ frame_needed = 0, uses_anonymous_args = 0
 142              		@ link register save eliminated.
 143              	.LVL6:
 105:Generated_Source\PSoC6/Status_SW2.c ****     #if(Status_SW2_INPUTS < 8u)
 106:Generated_Source\PSoC6/Status_SW2.c ****     	mask &= ((uint8)(1u << Status_SW2_INPUTS) - 1u);
 144              		.loc 1 106 0
 145 0000 0123     		movs	r3, #1
 146 0002 1840     		ands	r0, r3
 147              	.LVL7:
 107:Generated_Source\PSoC6/Status_SW2.c **** 	#endif /* End Status_SW2_INPUTS < 8u */
 108:Generated_Source\PSoC6/Status_SW2.c ****     Status_SW2_Status_Mask = mask;
 148              		.loc 1 108 0
 149 0004 014B     		ldr	r3, .L11
 150 0006 1870     		strb	r0, [r3]
 109:Generated_Source\PSoC6/Status_SW2.c **** }
 151              		.loc 1 109 0
 152              		@ sp needed
 153 0008 7047     		bx	lr
 154              	.L12:
 155 000a C046     		.align	2
 156              	.L11:
 157 000c 04183440 		.word	1077155844
 158              		.cfi_endproc
 159              	.LFE39:
 160              		.size	Status_SW2_WriteMask, .-Status_SW2_WriteMask
 161              		.section	.text.Status_SW2_ReadMask,"ax",%progbits
 162              		.align	2
 163              		.global	Status_SW2_ReadMask
 164              		.code	16
 165              		.thumb_func
 166              		.type	Status_SW2_ReadMask, %function
 167              	Status_SW2_ReadMask:
 168              	.LFB40:
 110:Generated_Source\PSoC6/Status_SW2.c **** 
 111:Generated_Source\PSoC6/Status_SW2.c **** 
 112:Generated_Source\PSoC6/Status_SW2.c **** /*******************************************************************************
 113:Generated_Source\PSoC6/Status_SW2.c **** * Function Name: Status_SW2_ReadMask
 114:Generated_Source\PSoC6/Status_SW2.c **** ********************************************************************************
 115:Generated_Source\PSoC6/Status_SW2.c **** *
 116:Generated_Source\PSoC6/Status_SW2.c **** * Summary:
 117:Generated_Source\PSoC6/Status_SW2.c **** *  Reads the current interrupt mask assigned to the Status Register.
ARM GAS  C:\Users\cypress\AppData\Local\Temp\cc5yJhCB.s 			page 6


 118:Generated_Source\PSoC6/Status_SW2.c **** *
 119:Generated_Source\PSoC6/Status_SW2.c **** * Parameters:
 120:Generated_Source\PSoC6/Status_SW2.c **** *  None.
 121:Generated_Source\PSoC6/Status_SW2.c **** *
 122:Generated_Source\PSoC6/Status_SW2.c **** * Return:
 123:Generated_Source\PSoC6/Status_SW2.c **** *  The value of the interrupt mask of the Status Register.
 124:Generated_Source\PSoC6/Status_SW2.c **** *
 125:Generated_Source\PSoC6/Status_SW2.c **** *******************************************************************************/
 126:Generated_Source\PSoC6/Status_SW2.c **** uint8 Status_SW2_ReadMask(void) 
 127:Generated_Source\PSoC6/Status_SW2.c **** {
 169              		.loc 1 127 0
 170              		.cfi_startproc
 171              		@ args = 0, pretend = 0, frame = 0
 172              		@ frame_needed = 0, uses_anonymous_args = 0
 173              		@ link register save eliminated.
 128:Generated_Source\PSoC6/Status_SW2.c ****     return Status_SW2_Status_Mask;
 174              		.loc 1 128 0
 175 0000 014B     		ldr	r3, .L14
 176 0002 1878     		ldrb	r0, [r3]
 177 0004 C0B2     		uxtb	r0, r0
 129:Generated_Source\PSoC6/Status_SW2.c **** }
 178              		.loc 1 129 0
 179              		@ sp needed
 180 0006 7047     		bx	lr
 181              	.L15:
 182              		.align	2
 183              	.L14:
 184 0008 04183440 		.word	1077155844
 185              		.cfi_endproc
 186              	.LFE40:
 187              		.size	Status_SW2_ReadMask, .-Status_SW2_ReadMask
 188              		.text
 189              	.Letext0:
 190              		.file 2 "c:\\program files (x86)\\cypress\\psoc creator\\4.2\\psoc creator\\import\\gnu\\arm\\5.4.
 191              		.file 3 "c:\\program files (x86)\\cypress\\psoc creator\\4.2\\psoc creator\\import\\gnu\\arm\\5.4.
 192              		.file 4 "Generated_Source\\PSoC6\\pdl\\drivers/peripheral/syslib/cy_syslib.h"