ARM GAS  C:\Users\cypress\AppData\Local\Temp\ccIrd8u1.s 			page 1


   1              		.syntax unified
   2              		.cpu cortex-m0plus
   3              		.fpu softvfp
   4              		.eabi_attribute 20, 1
   5              		.eabi_attribute 21, 1
   6              		.eabi_attribute 23, 3
   7              		.eabi_attribute 24, 1
   8              		.eabi_attribute 25, 1
   9              		.eabi_attribute 26, 1
  10              		.eabi_attribute 30, 1
  11              		.eabi_attribute 34, 0
  12              		.eabi_attribute 18, 4
  13              		.thumb
  14              		.syntax unified
  15              		.file	"system_psoc63_cm0plus.c"
  16              		.text
  17              	.Ltext0:
  18              		.cfi_sections	.debug_frame
  19              		.section	.text.Cy_SystemInit,"ax",%progbits
  20              		.align	2
  21              		.weak	Cy_SystemInit
  22              		.code	16
  23              		.thumb_func
  24              		.type	Cy_SystemInit, %function
  25              	Cy_SystemInit:
  26              	.LFB56:
  27              		.file 1 "system_psoc63_cm0plus.c"
   1:system_psoc63_cm0plus.c **** /***************************************************************************//**
   2:system_psoc63_cm0plus.c **** * \file system_psoc63_cm0plus.c
   3:system_psoc63_cm0plus.c **** * \version 2.10
   4:system_psoc63_cm0plus.c **** *
   5:system_psoc63_cm0plus.c **** * The device system-source file.
   6:system_psoc63_cm0plus.c **** *
   7:system_psoc63_cm0plus.c **** ********************************************************************************
   8:system_psoc63_cm0plus.c **** * \copyright
   9:system_psoc63_cm0plus.c **** * Copyright 2016-2018, Cypress Semiconductor Corporation.  All rights reserved.
  10:system_psoc63_cm0plus.c **** * You may use this file only in accordance with the license, terms, conditions,
  11:system_psoc63_cm0plus.c **** * disclaimers, and limitations in the end user license agreement accompanying
  12:system_psoc63_cm0plus.c **** * the software package with which this file was provided.
  13:system_psoc63_cm0plus.c **** *******************************************************************************/
  14:system_psoc63_cm0plus.c **** 
  15:system_psoc63_cm0plus.c **** #include <stdint.h>
  16:system_psoc63_cm0plus.c **** #include <stdbool.h>
  17:system_psoc63_cm0plus.c **** #include "system_psoc63.h"
  18:system_psoc63_cm0plus.c **** #include "cy_device_headers.h"
  19:system_psoc63_cm0plus.c **** 
  20:system_psoc63_cm0plus.c **** #if defined(CY_DEVICE_PSOC6ABLE2)
  21:system_psoc63_cm0plus.c ****     #if !defined(CY_PSOC6ABLE2_REV_0A_SUPPORT_DISABLE)
  22:system_psoc63_cm0plus.c ****         #include "syslib/cy_syslib.h"
  23:system_psoc63_cm0plus.c ****     #endif /* !defined(CY_PSOC6ABLE2_REV_0A_SUPPORT_DISABLE) */
  24:system_psoc63_cm0plus.c ****     #if !defined(CY_IPC_DEFAULT_CFG_DISABLE)
  25:system_psoc63_cm0plus.c ****         #include "ipc/cy_ipc_drv.h"
  26:system_psoc63_cm0plus.c ****         #include "flash/cy_flash.h"
  27:system_psoc63_cm0plus.c ****     #endif /* !defined(CY_IPC_DEFAULT_CFG_DISABLE) */
  28:system_psoc63_cm0plus.c **** #endif /* defined(CY_DEVICE_PSOC6ABLE2) */
  29:system_psoc63_cm0plus.c **** 
  30:system_psoc63_cm0plus.c **** 
ARM GAS  C:\Users\cypress\AppData\Local\Temp\ccIrd8u1.s 			page 2


  31:system_psoc63_cm0plus.c **** /*******************************************************************************
  32:system_psoc63_cm0plus.c **** * SystemCoreClockUpdate()
  33:system_psoc63_cm0plus.c **** *******************************************************************************/
  34:system_psoc63_cm0plus.c **** 
  35:system_psoc63_cm0plus.c **** /** Default HFClk frequency in Hz */
  36:system_psoc63_cm0plus.c **** #define CY_CLK_HFCLK0_FREQ_HZ_DEFAULT       ( 8000000UL)
  37:system_psoc63_cm0plus.c **** 
  38:system_psoc63_cm0plus.c **** /** Default PeriClk frequency in Hz */
  39:system_psoc63_cm0plus.c **** #define CY_CLK_PERICLK_FREQ_HZ_DEFAULT      (4000000UL)
  40:system_psoc63_cm0plus.c **** 
  41:system_psoc63_cm0plus.c **** /** Default SlowClk system core frequency in Hz */
  42:system_psoc63_cm0plus.c **** #define CY_CLK_SYSTEM_FREQ_HZ_DEFAULT       (4000000UL)
  43:system_psoc63_cm0plus.c **** 
  44:system_psoc63_cm0plus.c **** /** IMO frequency in Hz */
  45:system_psoc63_cm0plus.c **** #define CY_CLK_IMO_FREQ_HZ                  (8000000UL)
  46:system_psoc63_cm0plus.c **** 
  47:system_psoc63_cm0plus.c **** /** HVILO frequency in Hz */
  48:system_psoc63_cm0plus.c **** #define CY_CLK_HVILO_FREQ_HZ                  (32000UL)
  49:system_psoc63_cm0plus.c **** 
  50:system_psoc63_cm0plus.c **** #if (SRSS_PILO_PRESENT == 1U) || defined(CY_DOXYGEN)
  51:system_psoc63_cm0plus.c ****     /** PILO frequency in Hz */
  52:system_psoc63_cm0plus.c ****     #define CY_CLK_PILO_FREQ_HZ              (32768UL)
  53:system_psoc63_cm0plus.c **** #endif /* (SRSS_PILO_PRESENT == 1U) || defined(CY_DOXYGEN) */
  54:system_psoc63_cm0plus.c **** 
  55:system_psoc63_cm0plus.c **** /** WCO frequency in Hz */
  56:system_psoc63_cm0plus.c **** #define CY_CLK_WCO_FREQ_HZ                   (32768UL)
  57:system_psoc63_cm0plus.c **** 
  58:system_psoc63_cm0plus.c **** #if (SRSS_ALTLF_PRESENT == 1U) || defined(CY_DOXYGEN)
  59:system_psoc63_cm0plus.c ****     /** ALTLF frequency in Hz */
  60:system_psoc63_cm0plus.c ****     #define CY_CLK_ALTLF_FREQ_HZ             (32768UL)
  61:system_psoc63_cm0plus.c **** #endif /* (SRSS_ALTLF_PRESENT == 1U) || defined(CY_DOXYGEN) */
  62:system_psoc63_cm0plus.c **** 
  63:system_psoc63_cm0plus.c **** 
  64:system_psoc63_cm0plus.c **** /**
  65:system_psoc63_cm0plus.c **** * Holds the SlowClk (Cortex-M0+) or FastClk (Cortex-M4) system core clock, 
  66:system_psoc63_cm0plus.c **** * which is the system clock frequency supplied to the SysTick timer and the
  67:system_psoc63_cm0plus.c **** * processor core clock. 
  68:system_psoc63_cm0plus.c **** * This variable implements CMSIS Core global variable.
  69:system_psoc63_cm0plus.c **** * Refer to the [CMSIS documentation]
  70:system_psoc63_cm0plus.c **** * (http://www.keil.com/pack/doc/CMSIS/Core/html/group__system__init__gr.html "System and Clock Conf
  71:system_psoc63_cm0plus.c **** * for more details.
  72:system_psoc63_cm0plus.c **** * This variable can be used by debuggers to query the frequency
  73:system_psoc63_cm0plus.c **** * of the debug timer or to configure the trace clock speed.
  74:system_psoc63_cm0plus.c **** *
  75:system_psoc63_cm0plus.c **** * \attention Compilers must be configured to avoid removing this variable in case
  76:system_psoc63_cm0plus.c **** * the application program is not using it. Debugging systems require the variable
  77:system_psoc63_cm0plus.c **** * to be physically present in memory so that it can be examined to configure the debugger. */
  78:system_psoc63_cm0plus.c **** uint32_t SystemCoreClock = CY_CLK_SYSTEM_FREQ_HZ_DEFAULT;
  79:system_psoc63_cm0plus.c **** 
  80:system_psoc63_cm0plus.c **** /** Holds the HFClk0 clock frequency. Updated by \ref SystemCoreClockUpdate(). */
  81:system_psoc63_cm0plus.c **** uint32_t cy_Hfclk0FreqHz  = CY_CLK_HFCLK0_FREQ_HZ_DEFAULT;
  82:system_psoc63_cm0plus.c **** 
  83:system_psoc63_cm0plus.c **** /** Holds the PeriClk clock frequency. Updated by \ref SystemCoreClockUpdate(). */
  84:system_psoc63_cm0plus.c **** uint32_t cy_PeriClkFreqHz = CY_CLK_PERICLK_FREQ_HZ_DEFAULT;
  85:system_psoc63_cm0plus.c **** 
  86:system_psoc63_cm0plus.c **** /** Holds the Alternate high frequency clock in Hz. Updated by \ref SystemCoreClockUpdate(). */
  87:system_psoc63_cm0plus.c **** #if defined (CY_IP_MXBLESS) && (CY_IP_MXBLESS == 1UL)
ARM GAS  C:\Users\cypress\AppData\Local\Temp\ccIrd8u1.s 			page 3


  88:system_psoc63_cm0plus.c ****     uint32_t cy_BleEcoClockFreqHz = CY_CLK_ALTHF_FREQ_HZ;
  89:system_psoc63_cm0plus.c **** #endif /* defined (CY_IP_MXBLESS) && (CY_IP_MXBLESS == 1UL) */
  90:system_psoc63_cm0plus.c **** 
  91:system_psoc63_cm0plus.c **** 
  92:system_psoc63_cm0plus.c **** /*******************************************************************************
  93:system_psoc63_cm0plus.c **** * SystemInit()
  94:system_psoc63_cm0plus.c **** *******************************************************************************/
  95:system_psoc63_cm0plus.c **** /* WDT lock bits */
  96:system_psoc63_cm0plus.c **** #define CY_WDT_LOCK_BIT0                ((uint32_t)0x01u << 30u)
  97:system_psoc63_cm0plus.c **** #define CY_WDT_LOCK_BIT1                ((uint32_t)0x01u << 31u)
  98:system_psoc63_cm0plus.c **** 
  99:system_psoc63_cm0plus.c **** /* CLK_FLL_CONFIG default values */
 100:system_psoc63_cm0plus.c **** #define CY_FB_CLK_FLL_CONFIG_VALUE      (0x01000000u)
 101:system_psoc63_cm0plus.c **** #define CY_FB_CLK_FLL_CONFIG2_VALUE     (0x00020001u)
 102:system_psoc63_cm0plus.c **** #define CY_FB_CLK_FLL_CONFIG3_VALUE     (0x00002800u)
 103:system_psoc63_cm0plus.c **** #define CY_FB_CLK_FLL_CONFIG4_VALUE     (0x000000FFu)
 104:system_psoc63_cm0plus.c **** 
 105:system_psoc63_cm0plus.c **** 
 106:system_psoc63_cm0plus.c **** /*******************************************************************************
 107:system_psoc63_cm0plus.c **** * SystemCoreClockUpdate (void)
 108:system_psoc63_cm0plus.c **** *******************************************************************************/
 109:system_psoc63_cm0plus.c **** /* Do not use these definitions directly in your application */
 110:system_psoc63_cm0plus.c **** #define CY_DELAY_MS_OVERFLOW_THRESHOLD  (0x8000u)
 111:system_psoc63_cm0plus.c **** #define CY_DELAY_1K_THRESHOLD           (1000u)
 112:system_psoc63_cm0plus.c **** #define CY_DELAY_1K_MINUS_1_THRESHOLD   (CY_DELAY_1K_THRESHOLD - 1u)
 113:system_psoc63_cm0plus.c **** #define CY_DELAY_1M_THRESHOLD           (1000000u)
 114:system_psoc63_cm0plus.c **** #define CY_DELAY_1M_MINUS_1_THRESHOLD   (CY_DELAY_1M_THRESHOLD - 1u)
 115:system_psoc63_cm0plus.c **** uint32_t cy_delayFreqHz   = CY_CLK_SYSTEM_FREQ_HZ_DEFAULT;
 116:system_psoc63_cm0plus.c **** 
 117:system_psoc63_cm0plus.c **** uint32_t cy_delayFreqKhz  = (CY_CLK_SYSTEM_FREQ_HZ_DEFAULT + CY_DELAY_1K_MINUS_1_THRESHOLD) /
 118:system_psoc63_cm0plus.c ****                             CY_DELAY_1K_THRESHOLD;
 119:system_psoc63_cm0plus.c **** 
 120:system_psoc63_cm0plus.c **** uint8_t cy_delayFreqMhz  = (uint8_t)((CY_CLK_SYSTEM_FREQ_HZ_DEFAULT + CY_DELAY_1M_MINUS_1_THRESHOLD
 121:system_psoc63_cm0plus.c ****                             CY_DELAY_1M_THRESHOLD);
 122:system_psoc63_cm0plus.c **** 
 123:system_psoc63_cm0plus.c **** uint32_t cy_delay32kMs    = CY_DELAY_MS_OVERFLOW_THRESHOLD *
 124:system_psoc63_cm0plus.c ****                             ((CY_CLK_SYSTEM_FREQ_HZ_DEFAULT + CY_DELAY_1K_MINUS_1_THRESHOLD) / CY_D
 125:system_psoc63_cm0plus.c **** 
 126:system_psoc63_cm0plus.c **** #define CY_ROOT_PATH_SRC_IMO                (0UL)
 127:system_psoc63_cm0plus.c **** #define CY_ROOT_PATH_SRC_EXT                (1UL)
 128:system_psoc63_cm0plus.c **** #if (SRSS_ECO_PRESENT == 1U)
 129:system_psoc63_cm0plus.c ****     #define CY_ROOT_PATH_SRC_ECO            (2UL)
 130:system_psoc63_cm0plus.c **** #endif /* (SRSS_ECO_PRESENT == 1U) */
 131:system_psoc63_cm0plus.c **** #if (SRSS_ALTHF_PRESENT == 1U)
 132:system_psoc63_cm0plus.c ****     #define CY_ROOT_PATH_SRC_ALTHF          (3UL)
 133:system_psoc63_cm0plus.c **** #endif /* (SRSS_ALTHF_PRESENT == 1U) */
 134:system_psoc63_cm0plus.c **** #define CY_ROOT_PATH_SRC_DSI_MUX            (4UL)
 135:system_psoc63_cm0plus.c **** #define CY_ROOT_PATH_SRC_DSI_MUX_HVILO      (16UL)
 136:system_psoc63_cm0plus.c **** #define CY_ROOT_PATH_SRC_DSI_MUX_WCO        (17UL)
 137:system_psoc63_cm0plus.c **** #if (SRSS_ALTLF_PRESENT == 1U)
 138:system_psoc63_cm0plus.c ****     #define CY_ROOT_PATH_SRC_DSI_MUX_ALTLF  (18UL)
 139:system_psoc63_cm0plus.c **** #endif /* (SRSS_ALTLF_PRESENT == 1U) */
 140:system_psoc63_cm0plus.c **** #if (SRSS_PILO_PRESENT == 1U)
 141:system_psoc63_cm0plus.c ****     #define CY_ROOT_PATH_SRC_DSI_MUX_PILO   (19UL)
 142:system_psoc63_cm0plus.c **** #endif /* (SRSS_PILO_PRESENT == 1U) */
 143:system_psoc63_cm0plus.c **** 
 144:system_psoc63_cm0plus.c **** 
ARM GAS  C:\Users\cypress\AppData\Local\Temp\ccIrd8u1.s 			page 4


 145:system_psoc63_cm0plus.c **** /*******************************************************************************
 146:system_psoc63_cm0plus.c **** * Cy_SysEnableCM4(), Cy_SysRetainCM4(), and Cy_SysResetCM4()
 147:system_psoc63_cm0plus.c **** *******************************************************************************/
 148:system_psoc63_cm0plus.c **** #define CY_SYS_CM4_PWR_CTL_KEY_OPEN  (0x05FAUL)
 149:system_psoc63_cm0plus.c **** #define CY_SYS_CM4_PWR_CTL_KEY_CLOSE (0xFA05UL)
 150:system_psoc63_cm0plus.c **** 
 151:system_psoc63_cm0plus.c **** 
 152:system_psoc63_cm0plus.c **** /*******************************************************************************
 153:system_psoc63_cm0plus.c **** * Function Name: SystemInit
 154:system_psoc63_cm0plus.c **** ****************************************************************************//**
 155:system_psoc63_cm0plus.c **** *
 156:system_psoc63_cm0plus.c **** * Initializes the system:
 157:system_psoc63_cm0plus.c **** * - Restores FLL registers to the default state.
 158:system_psoc63_cm0plus.c **** * - Unlocks and disables WDT.
 159:system_psoc63_cm0plus.c **** * - Calls the Cy_SystemInit() function, if compiled from PSoC Creator.
 160:system_psoc63_cm0plus.c **** * - Calls \ref SystemCoreClockUpdate().
 161:system_psoc63_cm0plus.c **** *
 162:system_psoc63_cm0plus.c **** *******************************************************************************/
 163:system_psoc63_cm0plus.c **** void SystemInit(void)
 164:system_psoc63_cm0plus.c **** {
 165:system_psoc63_cm0plus.c ****     /* Restore FLL registers to the default state as they are not restored by the ROM code */
 166:system_psoc63_cm0plus.c ****     uint32_t copy = SRSS->CLK_FLL_CONFIG;
 167:system_psoc63_cm0plus.c ****     copy &= ~SRSS_CLK_FLL_CONFIG_FLL_ENABLE_Msk;
 168:system_psoc63_cm0plus.c ****     SRSS->CLK_FLL_CONFIG = copy;
 169:system_psoc63_cm0plus.c **** 
 170:system_psoc63_cm0plus.c ****     copy = SRSS->CLK_ROOT_SELECT[0u];
 171:system_psoc63_cm0plus.c ****     copy &= ~SRSS_CLK_ROOT_SELECT_ROOT_DIV_Msk; /* Set ROOT_DIV = 0*/
 172:system_psoc63_cm0plus.c ****     SRSS->CLK_ROOT_SELECT[0u] = copy;
 173:system_psoc63_cm0plus.c **** 
 174:system_psoc63_cm0plus.c ****     SRSS->CLK_FLL_CONFIG  = CY_FB_CLK_FLL_CONFIG_VALUE;
 175:system_psoc63_cm0plus.c ****     SRSS->CLK_FLL_CONFIG2 = CY_FB_CLK_FLL_CONFIG2_VALUE;
 176:system_psoc63_cm0plus.c ****     SRSS->CLK_FLL_CONFIG3 = CY_FB_CLK_FLL_CONFIG3_VALUE;
 177:system_psoc63_cm0plus.c ****     SRSS->CLK_FLL_CONFIG4 = CY_FB_CLK_FLL_CONFIG4_VALUE;
 178:system_psoc63_cm0plus.c **** 
 179:system_psoc63_cm0plus.c ****     /* Unlock and disable WDT */
 180:system_psoc63_cm0plus.c ****     SRSS->WDT_CTL = ((SRSS->WDT_CTL & (uint32_t)(~SRSS_WDT_CTL_WDT_LOCK_Msk)) | CY_WDT_LOCK_BIT0);
 181:system_psoc63_cm0plus.c ****     SRSS->WDT_CTL = (SRSS->WDT_CTL | CY_WDT_LOCK_BIT1);
 182:system_psoc63_cm0plus.c ****     SRSS->WDT_CTL &= (~ (uint32_t) SRSS_WDT_CTL_WDT_EN_Msk);
 183:system_psoc63_cm0plus.c **** 
 184:system_psoc63_cm0plus.c ****     Cy_SystemInit();
 185:system_psoc63_cm0plus.c ****     SystemCoreClockUpdate();
 186:system_psoc63_cm0plus.c **** 
 187:system_psoc63_cm0plus.c **** #if defined(CY_DEVICE_PSOC6ABLE2)
 188:system_psoc63_cm0plus.c ****     #if !defined(CY_IPC_DEFAULT_CFG_DISABLE)
 189:system_psoc63_cm0plus.c ****         /* Allocate and initialize semaphores for the system operations. */
 190:system_psoc63_cm0plus.c ****         Cy_IPC_SystemSemaInit();
 191:system_psoc63_cm0plus.c ****         Cy_IPC_SystemPipeInit();
 192:system_psoc63_cm0plus.c ****         Cy_Flash_Init();
 193:system_psoc63_cm0plus.c ****     #endif /* CY_IPC_DEFAULT_CFG_DISABLE */
 194:system_psoc63_cm0plus.c **** 
 195:system_psoc63_cm0plus.c ****     #if !defined(CY_PSOC6ABLE2_REV_0A_SUPPORT_DISABLE)
 196:system_psoc63_cm0plus.c ****         if (CY_SYSLIB_DEVICE_REV_0A == Cy_SysLib_GetDeviceRevision())
 197:system_psoc63_cm0plus.c ****         {
 198:system_psoc63_cm0plus.c ****             /* Clear data register of IPC structure #7, reserved for the Deep-Sleep operations. */
 199:system_psoc63_cm0plus.c ****             IPC_STRUCT7->DATA = 0UL;
 200:system_psoc63_cm0plus.c ****             /* Release IPC structure #7 to avoid deadlocks in case of SW or WDT reset during Deep-S
 201:system_psoc63_cm0plus.c ****             IPC_STRUCT7->RELEASE = 0UL;
ARM GAS  C:\Users\cypress\AppData\Local\Temp\ccIrd8u1.s 			page 5


 202:system_psoc63_cm0plus.c ****         }
 203:system_psoc63_cm0plus.c ****     #endif /* !defined(CY_PSOC6ABLE2_REV_0A_SUPPORT_DISABLE) */
 204:system_psoc63_cm0plus.c **** #endif /* CY_DEVICE_PSOC6ABLE2 */
 205:system_psoc63_cm0plus.c **** }
 206:system_psoc63_cm0plus.c **** 
 207:system_psoc63_cm0plus.c **** 
 208:system_psoc63_cm0plus.c **** /*******************************************************************************
 209:system_psoc63_cm0plus.c **** * Function Name: Cy_SystemInit
 210:system_psoc63_cm0plus.c **** ****************************************************************************//**
 211:system_psoc63_cm0plus.c **** *
 212:system_psoc63_cm0plus.c **** * The function is called during device startup. Once project compiled as part of
 213:system_psoc63_cm0plus.c **** * the PSoC Creator project, the Cy_SystemInit() function is generated by the
 214:system_psoc63_cm0plus.c **** * PSoC Creator.
 215:system_psoc63_cm0plus.c **** *
 216:system_psoc63_cm0plus.c **** * The function generated by PSoC Creator performs all of the necessary device
 217:system_psoc63_cm0plus.c **** * configuration based on the design settings.  This includes settings from the
 218:system_psoc63_cm0plus.c **** * Design Wide Resources (DWR) such as Clocks and Pins as well as any component
 219:system_psoc63_cm0plus.c **** * configuration that is necessary.
 220:system_psoc63_cm0plus.c **** *
 221:system_psoc63_cm0plus.c **** *******************************************************************************/
 222:system_psoc63_cm0plus.c **** __WEAK void Cy_SystemInit(void)
 223:system_psoc63_cm0plus.c **** {
  28              		.loc 1 223 0
  29              		.cfi_startproc
  30              		@ args = 0, pretend = 0, frame = 0
  31              		@ frame_needed = 0, uses_anonymous_args = 0
  32              		@ link register save eliminated.
 224:system_psoc63_cm0plus.c ****      /* Empty weak function. The actual implementation to be in the PSoC Creator
 225:system_psoc63_cm0plus.c ****       * generated strong function.
 226:system_psoc63_cm0plus.c ****      */
 227:system_psoc63_cm0plus.c **** }
  33              		.loc 1 227 0
  34              		@ sp needed
  35 0000 7047     		bx	lr
  36              		.cfi_endproc
  37              	.LFE56:
  38              		.size	Cy_SystemInit, .-Cy_SystemInit
  39              		.global	__aeabi_uidiv
  40 0002 C046     		.section	.text.SystemCoreClockUpdate,"ax",%progbits
  41              		.align	2
  42              		.global	SystemCoreClockUpdate
  43              		.code	16
  44              		.thumb_func
  45              		.type	SystemCoreClockUpdate, %function
  46              	SystemCoreClockUpdate:
  47              	.LFB57:
 228:system_psoc63_cm0plus.c **** 
 229:system_psoc63_cm0plus.c **** 
 230:system_psoc63_cm0plus.c **** /*******************************************************************************
 231:system_psoc63_cm0plus.c **** * Function Name: SystemCoreClockUpdate
 232:system_psoc63_cm0plus.c **** ****************************************************************************//**
 233:system_psoc63_cm0plus.c **** *
 234:system_psoc63_cm0plus.c **** * Gets core clock frequency and updates \ref SystemCoreClock, \ref
 235:system_psoc63_cm0plus.c **** * cy_Hfclk0FreqHz, and \ref cy_PeriClkFreqHz.
 236:system_psoc63_cm0plus.c **** *
 237:system_psoc63_cm0plus.c **** * Updates global variables used by the \ref Cy_SysLib_Delay(), \ref
 238:system_psoc63_cm0plus.c **** * Cy_SysLib_DelayUs(), and \ref Cy_SysLib_DelayCycles().
ARM GAS  C:\Users\cypress\AppData\Local\Temp\ccIrd8u1.s 			page 6


 239:system_psoc63_cm0plus.c **** *
 240:system_psoc63_cm0plus.c **** *******************************************************************************/
 241:system_psoc63_cm0plus.c **** void SystemCoreClockUpdate (void)
 242:system_psoc63_cm0plus.c **** {
  48              		.loc 1 242 0
  49              		.cfi_startproc
  50              		@ args = 0, pretend = 0, frame = 0
  51              		@ frame_needed = 0, uses_anonymous_args = 0
  52 0000 70B5     		push	{r4, r5, r6, lr}
  53              		.cfi_def_cfa_offset 16
  54              		.cfi_offset 4, -16
  55              		.cfi_offset 5, -12
  56              		.cfi_offset 6, -8
  57              		.cfi_offset 14, -4
 243:system_psoc63_cm0plus.c ****     uint32_t srcFreqHz;
 244:system_psoc63_cm0plus.c ****     uint32_t pathFreqHz;
 245:system_psoc63_cm0plus.c ****     uint32_t slowClkDiv;
 246:system_psoc63_cm0plus.c ****     uint32_t periClkDiv;
 247:system_psoc63_cm0plus.c ****     uint32_t rootPath;
 248:system_psoc63_cm0plus.c ****     uint32_t srcClk;
 249:system_psoc63_cm0plus.c **** 
 250:system_psoc63_cm0plus.c ****     /* Get root path clock for the high-frequency clock # 0 */
 251:system_psoc63_cm0plus.c ****     rootPath = _FLD2VAL(SRSS_CLK_ROOT_SELECT_ROOT_MUX, SRSS->CLK_ROOT_SELECT[0u]);
  58              		.loc 1 251 0
  59 0002 6249     		ldr	r1, .L23
  60 0004 E023     		movs	r3, #224
  61 0006 9B00     		lsls	r3, r3, #2
  62 0008 CB58     		ldr	r3, [r1, r3]
  63 000a 0F22     		movs	r2, #15
  64 000c 1340     		ands	r3, r2
  65              	.LVL0:
 252:system_psoc63_cm0plus.c **** 
 253:system_psoc63_cm0plus.c ****     /* Get source of the root path clock */
 254:system_psoc63_cm0plus.c ****     srcClk = _FLD2VAL(SRSS_CLK_PATH_SELECT_PATH_MUX, SRSS->CLK_PATH_SELECT[rootPath]);
  66              		.loc 1 254 0
  67 000e 1A00     		movs	r2, r3
  68 0010 D032     		adds	r2, r2, #208
  69 0012 9200     		lsls	r2, r2, #2
  70 0014 5258     		ldr	r2, [r2, r1]
  71 0016 0721     		movs	r1, #7
  72 0018 0A40     		ands	r2, r1
  73              	.LVL1:
 255:system_psoc63_cm0plus.c **** 
 256:system_psoc63_cm0plus.c ****     /* Get frequency of the source */
 257:system_psoc63_cm0plus.c ****     switch (srcClk)
  74              		.loc 1 257 0
  75 001a 032A     		cmp	r2, #3
  76 001c 05D0     		beq	.L4
  77 001e 042A     		cmp	r2, #4
  78 0020 06D0     		beq	.L5
  79 0022 002A     		cmp	r2, #0
  80 0024 12D1     		bne	.L22
 258:system_psoc63_cm0plus.c ****     {
 259:system_psoc63_cm0plus.c ****     case CY_ROOT_PATH_SRC_IMO:
 260:system_psoc63_cm0plus.c ****         srcFreqHz = CY_CLK_IMO_FREQ_HZ;
  81              		.loc 1 260 0
  82 0026 5A48     		ldr	r0, .L23+4
ARM GAS  C:\Users\cypress\AppData\Local\Temp\ccIrd8u1.s 			page 7


  83 0028 14E0     		b	.L3
  84              	.L4:
 261:system_psoc63_cm0plus.c ****     break;
 262:system_psoc63_cm0plus.c **** 
 263:system_psoc63_cm0plus.c ****     case CY_ROOT_PATH_SRC_EXT:
 264:system_psoc63_cm0plus.c ****         srcFreqHz = CY_CLK_EXT_FREQ_HZ;
 265:system_psoc63_cm0plus.c ****     break;
 266:system_psoc63_cm0plus.c **** 
 267:system_psoc63_cm0plus.c ****     #if (SRSS_ECO_PRESENT == 1U)
 268:system_psoc63_cm0plus.c ****         case CY_ROOT_PATH_SRC_ECO:
 269:system_psoc63_cm0plus.c ****             srcFreqHz = CY_CLK_ECO_FREQ_HZ;
 270:system_psoc63_cm0plus.c ****         break;
 271:system_psoc63_cm0plus.c ****     #endif /* (SRSS_ECO_PRESENT == 1U) */
 272:system_psoc63_cm0plus.c **** 
 273:system_psoc63_cm0plus.c **** #if defined (CY_IP_MXBLESS) && (CY_IP_MXBLESS == 1UL) && (SRSS_ALTHF_PRESENT == 1U)
 274:system_psoc63_cm0plus.c ****     case CY_ROOT_PATH_SRC_ALTHF:
 275:system_psoc63_cm0plus.c ****         srcFreqHz = cy_BleEcoClockFreqHz;
  85              		.loc 1 275 0
  86 002a 5A4A     		ldr	r2, .L23+8
  87              	.LVL2:
  88 002c 1068     		ldr	r0, [r2]
  89              	.LVL3:
 276:system_psoc63_cm0plus.c ****     break;
  90              		.loc 1 276 0
  91 002e 11E0     		b	.L3
  92              	.LVL4:
  93              	.L5:
  94              	.LBB4:
 277:system_psoc63_cm0plus.c **** #endif /* defined (CY_IP_MXBLESS) && (CY_IP_MXBLESS == 1UL) && (SRSS_ALTHF_PRESENT == 1U) */
 278:system_psoc63_cm0plus.c **** 
 279:system_psoc63_cm0plus.c ****     case CY_ROOT_PATH_SRC_DSI_MUX:
 280:system_psoc63_cm0plus.c ****     {
 281:system_psoc63_cm0plus.c ****         uint32_t dsi_src;
 282:system_psoc63_cm0plus.c ****         dsi_src = _FLD2VAL(SRSS_CLK_DSI_SELECT_DSI_MUX,  SRSS->CLK_DSI_SELECT[rootPath]);
  95              		.loc 1 282 0
  96 0030 1A00     		movs	r2, r3
  97              	.LVL5:
  98 0032 C032     		adds	r2, r2, #192
  99 0034 9200     		lsls	r2, r2, #2
 100 0036 5549     		ldr	r1, .L23
 101 0038 5258     		ldr	r2, [r2, r1]
 102 003a 1F21     		movs	r1, #31
 103 003c 0A40     		ands	r2, r1
 104              	.LVL6:
 283:system_psoc63_cm0plus.c ****         switch (dsi_src)
 105              		.loc 1 283 0
 106 003e 112A     		cmp	r2, #17
 107 0040 06D0     		beq	.L17
 108 0042 132A     		cmp	r2, #19
 109 0044 04D0     		beq	.L17
 284:system_psoc63_cm0plus.c ****         {
 285:system_psoc63_cm0plus.c ****         case CY_ROOT_PATH_SRC_DSI_MUX_HVILO:
 286:system_psoc63_cm0plus.c ****             srcFreqHz = CY_CLK_HVILO_FREQ_HZ;
 110              		.loc 1 286 0
 111 0046 FA20     		movs	r0, #250
 112 0048 C001     		lsls	r0, r0, #7
 113 004a 03E0     		b	.L3
ARM GAS  C:\Users\cypress\AppData\Local\Temp\ccIrd8u1.s 			page 8


 114              	.LVL7:
 115              	.L22:
 116              	.LBE4:
 264:system_psoc63_cm0plus.c ****     break;
 117              		.loc 1 264 0
 118 004c 5248     		ldr	r0, .L23+12
 119 004e 01E0     		b	.L3
 120              	.LVL8:
 121              	.L17:
 122              	.LBB5:
 287:system_psoc63_cm0plus.c ****         break;
 288:system_psoc63_cm0plus.c **** 
 289:system_psoc63_cm0plus.c ****         case CY_ROOT_PATH_SRC_DSI_MUX_WCO:
 290:system_psoc63_cm0plus.c ****             srcFreqHz = CY_CLK_WCO_FREQ_HZ;
 123              		.loc 1 290 0
 124 0050 8020     		movs	r0, #128
 125 0052 0002     		lsls	r0, r0, #8
 126              	.LVL9:
 127              	.L3:
 128              	.LBE5:
 291:system_psoc63_cm0plus.c ****         break;
 292:system_psoc63_cm0plus.c **** 
 293:system_psoc63_cm0plus.c ****         #if (SRSS_ALTLF_PRESENT == 1U)
 294:system_psoc63_cm0plus.c ****             case CY_ROOT_PATH_SRC_DSI_MUX_ALTLF:
 295:system_psoc63_cm0plus.c ****                 srcFreqHz = CY_CLK_ALTLF_FREQ_HZ;
 296:system_psoc63_cm0plus.c ****             break;
 297:system_psoc63_cm0plus.c ****         #endif /* (SRSS_ALTLF_PRESENT == 1U) */
 298:system_psoc63_cm0plus.c **** 
 299:system_psoc63_cm0plus.c ****         #if (SRSS_PILO_PRESENT == 1U)
 300:system_psoc63_cm0plus.c ****             case CY_ROOT_PATH_SRC_DSI_MUX_PILO:
 301:system_psoc63_cm0plus.c ****                 srcFreqHz = CY_CLK_PILO_FREQ_HZ;
 302:system_psoc63_cm0plus.c ****             break;
 303:system_psoc63_cm0plus.c ****         #endif /* (SRSS_PILO_PRESENT == 1U) */
 304:system_psoc63_cm0plus.c **** 
 305:system_psoc63_cm0plus.c ****         default:
 306:system_psoc63_cm0plus.c ****             srcFreqHz = CY_CLK_HVILO_FREQ_HZ;
 307:system_psoc63_cm0plus.c ****         break;
 308:system_psoc63_cm0plus.c ****         }
 309:system_psoc63_cm0plus.c ****     }
 310:system_psoc63_cm0plus.c ****     break;
 311:system_psoc63_cm0plus.c **** 
 312:system_psoc63_cm0plus.c ****     default:
 313:system_psoc63_cm0plus.c ****         srcFreqHz = CY_CLK_EXT_FREQ_HZ;
 314:system_psoc63_cm0plus.c ****     break;
 315:system_psoc63_cm0plus.c ****     }
 316:system_psoc63_cm0plus.c **** 
 317:system_psoc63_cm0plus.c ****     if (rootPath == 0UL)
 129              		.loc 1 317 0
 130 0054 002B     		cmp	r3, #0
 131 0056 36D1     		bne	.L8
 132              	.LBB6:
 318:system_psoc63_cm0plus.c ****     {
 319:system_psoc63_cm0plus.c ****         /* FLL */
 320:system_psoc63_cm0plus.c ****         bool fllLocked       = ( 0UL != _FLD2VAL(SRSS_CLK_FLL_STATUS_LOCKED, SRSS->CLK_FLL_STATUS))
 133              		.loc 1 320 0
 134 0058 4C4B     		ldr	r3, .L23
 135              	.LVL10:
ARM GAS  C:\Users\cypress\AppData\Local\Temp\ccIrd8u1.s 			page 9


 136 005a B222     		movs	r2, #178
 137 005c D200     		lsls	r2, r2, #3
 138 005e 9A58     		ldr	r2, [r3, r2]
 139 0060 0121     		movs	r1, #1
 140 0062 1140     		ands	r1, r2
 141              	.LVL11:
 321:system_psoc63_cm0plus.c ****         bool fllOutputOutput = ( 3UL == _FLD2VAL(SRSS_CLK_FLL_CONFIG3_BYPASS_SEL, SRSS->CLK_FLL_CON
 142              		.loc 1 321 0
 143 0064 B125     		movs	r5, #177
 144 0066 ED00     		lsls	r5, r5, #3
 145 0068 5A59     		ldr	r2, [r3, r5]
 146 006a 120F     		lsrs	r2, r2, #28
 147 006c 0324     		movs	r4, #3
 148 006e 2240     		ands	r2, r4
 149              	.LVL12:
 322:system_psoc63_cm0plus.c ****         bool fllOutputAuto   = ((0UL == _FLD2VAL(SRSS_CLK_FLL_CONFIG3_BYPASS_SEL, SRSS->CLK_FLL_CON
 150              		.loc 1 322 0
 151 0070 5B59     		ldr	r3, [r3, r5]
 152 0072 1B0F     		lsrs	r3, r3, #28
 153 0074 1C42     		tst	r4, r3
 154 0076 07D0     		beq	.L18
 323:system_psoc63_cm0plus.c ****                                 (1UL == _FLD2VAL(SRSS_CLK_FLL_CONFIG3_BYPASS_SEL, SRSS->CLK_FLL_CON
 155              		.loc 1 323 0 discriminator 2
 156 0078 444C     		ldr	r4, .L23
 157 007a 6359     		ldr	r3, [r4, r5]
 158 007c 1B0F     		lsrs	r3, r3, #28
 159 007e 0324     		movs	r4, #3
 160 0080 2340     		ands	r3, r4
 322:system_psoc63_cm0plus.c ****         bool fllOutputAuto   = ((0UL == _FLD2VAL(SRSS_CLK_FLL_CONFIG3_BYPASS_SEL, SRSS->CLK_FLL_CON
 161              		.loc 1 322 0 discriminator 2
 162 0082 012B     		cmp	r3, #1
 163 0084 02D1     		bne	.L19
 164 0086 02E0     		b	.L9
 165              	.L18:
 322:system_psoc63_cm0plus.c ****         bool fllOutputAuto   = ((0UL == _FLD2VAL(SRSS_CLK_FLL_CONFIG3_BYPASS_SEL, SRSS->CLK_FLL_CON
 166              		.loc 1 322 0 is_stmt 0
 167 0088 0123     		movs	r3, #1
 168 008a 00E0     		b	.L9
 169              	.L19:
 170 008c 0023     		movs	r3, #0
 171              	.L9:
 172              	.LVL13:
 324:system_psoc63_cm0plus.c ****         if ((fllOutputAuto && fllLocked) || fllOutputOutput)
 173              		.loc 1 324 0 is_stmt 1 discriminator 6
 174 008e 002B     		cmp	r3, #0
 175 0090 01D0     		beq	.L10
 176              		.loc 1 324 0 is_stmt 0 discriminator 1
 177 0092 0029     		cmp	r1, #0
 178 0094 01D1     		bne	.L11
 179              	.L10:
 180              		.loc 1 324 0 discriminator 3
 181 0096 032A     		cmp	r2, #3
 182 0098 4BD1     		bne	.L12
 183              	.L11:
 184              	.LBB7:
 325:system_psoc63_cm0plus.c ****         {
 326:system_psoc63_cm0plus.c ****             uint32_t fllMult;
ARM GAS  C:\Users\cypress\AppData\Local\Temp\ccIrd8u1.s 			page 10


 327:system_psoc63_cm0plus.c ****             uint32_t refDiv;
 328:system_psoc63_cm0plus.c ****             uint32_t outputDiv;
 329:system_psoc63_cm0plus.c **** 
 330:system_psoc63_cm0plus.c ****             fllMult = _FLD2VAL(SRSS_CLK_FLL_CONFIG_FLL_MULT, SRSS->CLK_FLL_CONFIG);
 185              		.loc 1 330 0 is_stmt 1
 186 009a 3C4B     		ldr	r3, .L23
 187              	.LVL14:
 188 009c B022     		movs	r2, #176
 189              	.LVL15:
 190 009e D200     		lsls	r2, r2, #3
 191 00a0 9D58     		ldr	r5, [r3, r2]
 192 00a2 AD03     		lsls	r5, r5, #14
 193 00a4 AD0B     		lsrs	r5, r5, #14
 194              	.LVL16:
 331:system_psoc63_cm0plus.c ****             refDiv  = _FLD2VAL(SRSS_CLK_FLL_CONFIG2_FLL_REF_DIV, SRSS->CLK_FLL_CONFIG2);
 195              		.loc 1 331 0
 196 00a6 3D49     		ldr	r1, .L23+16
 197              	.LVL17:
 198 00a8 5958     		ldr	r1, [r3, r1]
 199 00aa C904     		lsls	r1, r1, #19
 200 00ac C90C     		lsrs	r1, r1, #19
 201              	.LVL18:
 332:system_psoc63_cm0plus.c ****             outputDiv = _FLD2VAL(SRSS_CLK_FLL_CONFIG_FLL_OUTPUT_DIV, SRSS->CLK_FLL_CONFIG) + 1UL;
 202              		.loc 1 332 0
 203 00ae 9C58     		ldr	r4, [r3, r2]
 204 00b0 240E     		lsrs	r4, r4, #24
 205 00b2 0123     		movs	r3, #1
 206 00b4 1C40     		ands	r4, r3
 207 00b6 0134     		adds	r4, r4, #1
 208              	.LVL19:
 333:system_psoc63_cm0plus.c **** 
 334:system_psoc63_cm0plus.c ****             pathFreqHz = ((srcFreqHz / refDiv) * fllMult) / outputDiv;
 209              		.loc 1 334 0
 210 00b8 FFF7FEFF 		bl	__aeabi_uidiv
 211              	.LVL20:
 212 00bc 6843     		muls	r0, r5
 213 00be 2100     		movs	r1, r4
 214 00c0 FFF7FEFF 		bl	__aeabi_uidiv
 215              	.LVL21:
 216              	.LBE7:
 325:system_psoc63_cm0plus.c ****             uint32_t fllMult;
 217              		.loc 1 325 0
 218 00c4 35E0     		b	.L12
 219              	.LVL22:
 220              	.L8:
 221              	.LBE6:
 335:system_psoc63_cm0plus.c ****         }
 336:system_psoc63_cm0plus.c ****         else
 337:system_psoc63_cm0plus.c ****         {
 338:system_psoc63_cm0plus.c ****             pathFreqHz = srcFreqHz;
 339:system_psoc63_cm0plus.c ****         }
 340:system_psoc63_cm0plus.c ****     }
 341:system_psoc63_cm0plus.c ****     else if (rootPath == 1UL)
 222              		.loc 1 341 0
 223 00c6 012B     		cmp	r3, #1
 224 00c8 33D1     		bne	.L12
 225              	.LBB8:
ARM GAS  C:\Users\cypress\AppData\Local\Temp\ccIrd8u1.s 			page 11


 342:system_psoc63_cm0plus.c ****     {
 343:system_psoc63_cm0plus.c ****         /* PLL */
 344:system_psoc63_cm0plus.c ****         bool pllLocked       = ( 0UL != _FLD2VAL(SRSS_CLK_PLL_STATUS_LOCKED,     SRSS->CLK_PLL_STAT
 226              		.loc 1 344 0
 227 00ca 304B     		ldr	r3, .L23
 228              	.LVL23:
 229 00cc C822     		movs	r2, #200
 230 00ce D200     		lsls	r2, r2, #3
 231 00d0 9A58     		ldr	r2, [r3, r2]
 232 00d2 0125     		movs	r5, #1
 233 00d4 1540     		ands	r5, r2
 234              	.LVL24:
 345:system_psoc63_cm0plus.c ****         bool pllOutputOutput = ( 3UL == _FLD2VAL(SRSS_CLK_PLL_CONFIG_BYPASS_SEL, SRSS->CLK_PLL_CONF
 235              		.loc 1 345 0
 236 00d6 C024     		movs	r4, #192
 237 00d8 E400     		lsls	r4, r4, #3
 238 00da 1A59     		ldr	r2, [r3, r4]
 239 00dc 120F     		lsrs	r2, r2, #28
 240 00de 0321     		movs	r1, #3
 241 00e0 0A40     		ands	r2, r1
 242              	.LVL25:
 346:system_psoc63_cm0plus.c ****         bool pllOutputAuto   = ((0UL == _FLD2VAL(SRSS_CLK_PLL_CONFIG_BYPASS_SEL, SRSS->CLK_PLL_CONF
 243              		.loc 1 346 0
 244 00e2 1B59     		ldr	r3, [r3, r4]
 245 00e4 1B0F     		lsrs	r3, r3, #28
 246 00e6 1942     		tst	r1, r3
 247 00e8 07D0     		beq	.L20
 347:system_psoc63_cm0plus.c ****                                 (1UL == _FLD2VAL(SRSS_CLK_PLL_CONFIG_BYPASS_SEL, SRSS->CLK_PLL_CONF
 248              		.loc 1 347 0 discriminator 2
 249 00ea 2849     		ldr	r1, .L23
 250 00ec 0B59     		ldr	r3, [r1, r4]
 251 00ee 1B0F     		lsrs	r3, r3, #28
 252 00f0 0321     		movs	r1, #3
 253 00f2 0B40     		ands	r3, r1
 346:system_psoc63_cm0plus.c ****         bool pllOutputAuto   = ((0UL == _FLD2VAL(SRSS_CLK_PLL_CONFIG_BYPASS_SEL, SRSS->CLK_PLL_CONF
 254              		.loc 1 346 0 discriminator 2
 255 00f4 012B     		cmp	r3, #1
 256 00f6 02D1     		bne	.L21
 257 00f8 02E0     		b	.L13
 258              	.L20:
 346:system_psoc63_cm0plus.c ****         bool pllOutputAuto   = ((0UL == _FLD2VAL(SRSS_CLK_PLL_CONFIG_BYPASS_SEL, SRSS->CLK_PLL_CONF
 259              		.loc 1 346 0 is_stmt 0
 260 00fa 0123     		movs	r3, #1
 261 00fc 00E0     		b	.L13
 262              	.L21:
 263 00fe 0023     		movs	r3, #0
 264              	.L13:
 265              	.LVL26:
 348:system_psoc63_cm0plus.c ****         if ((pllOutputAuto && pllLocked) || pllOutputOutput)
 266              		.loc 1 348 0 is_stmt 1 discriminator 6
 267 0100 002B     		cmp	r3, #0
 268 0102 01D0     		beq	.L14
 269              		.loc 1 348 0 is_stmt 0 discriminator 1
 270 0104 002D     		cmp	r5, #0
 271 0106 01D1     		bne	.L15
 272              	.L14:
 273              		.loc 1 348 0 discriminator 3
ARM GAS  C:\Users\cypress\AppData\Local\Temp\ccIrd8u1.s 			page 12


 274 0108 032A     		cmp	r2, #3
 275 010a 12D1     		bne	.L12
 276              	.L15:
 277              	.LBB9:
 349:system_psoc63_cm0plus.c ****         {
 350:system_psoc63_cm0plus.c ****             uint32_t feedbackDiv;
 351:system_psoc63_cm0plus.c ****             uint32_t referenceDiv;
 352:system_psoc63_cm0plus.c ****             uint32_t outputDiv;
 353:system_psoc63_cm0plus.c **** 
 354:system_psoc63_cm0plus.c ****             feedbackDiv  = _FLD2VAL(SRSS_CLK_PLL_CONFIG_FEEDBACK_DIV,  SRSS->CLK_PLL_CONFIG[0UL]);
 278              		.loc 1 354 0 is_stmt 1
 279 010c 1F4D     		ldr	r5, .L23
 280              	.LVL27:
 281 010e C022     		movs	r2, #192
 282              	.LVL28:
 283 0110 D200     		lsls	r2, r2, #3
 284 0112 AB58     		ldr	r3, [r5, r2]
 285              	.LVL29:
 286 0114 7F21     		movs	r1, #127
 287 0116 0B40     		ands	r3, r1
 288              	.LVL30:
 355:system_psoc63_cm0plus.c ****             referenceDiv = _FLD2VAL(SRSS_CLK_PLL_CONFIG_REFERENCE_DIV, SRSS->CLK_PLL_CONFIG[0UL]);
 289              		.loc 1 355 0
 290 0118 A958     		ldr	r1, [r5, r2]
 291 011a 090A     		lsrs	r1, r1, #8
 292 011c 1F26     		movs	r6, #31
 293 011e 3140     		ands	r1, r6
 294              	.LVL31:
 356:system_psoc63_cm0plus.c ****             outputDiv    = _FLD2VAL(SRSS_CLK_PLL_CONFIG_OUTPUT_DIV,    SRSS->CLK_PLL_CONFIG[0UL]);
 295              		.loc 1 356 0
 296 0120 AC58     		ldr	r4, [r5, r2]
 297 0122 240C     		lsrs	r4, r4, #16
 298 0124 3440     		ands	r4, r6
 299              	.LVL32:
 357:system_psoc63_cm0plus.c **** 
 358:system_psoc63_cm0plus.c ****             pathFreqHz = ((srcFreqHz * feedbackDiv) / referenceDiv) / outputDiv;
 300              		.loc 1 358 0
 301 0126 5843     		muls	r0, r3
 302              	.LVL33:
 303 0128 FFF7FEFF 		bl	__aeabi_uidiv
 304              	.LVL34:
 305 012c 2100     		movs	r1, r4
 306 012e FFF7FEFF 		bl	__aeabi_uidiv
 307              	.LVL35:
 308              	.L12:
 309              	.LBE9:
 310              	.LBE8:
 359:system_psoc63_cm0plus.c **** 
 360:system_psoc63_cm0plus.c ****         }
 361:system_psoc63_cm0plus.c ****         else
 362:system_psoc63_cm0plus.c ****         {
 363:system_psoc63_cm0plus.c ****             pathFreqHz = srcFreqHz;
 364:system_psoc63_cm0plus.c ****         }
 365:system_psoc63_cm0plus.c ****     }
 366:system_psoc63_cm0plus.c ****     else
 367:system_psoc63_cm0plus.c ****     {
 368:system_psoc63_cm0plus.c ****         /* Direct */
ARM GAS  C:\Users\cypress\AppData\Local\Temp\ccIrd8u1.s 			page 13


 369:system_psoc63_cm0plus.c ****         pathFreqHz = srcFreqHz;
 370:system_psoc63_cm0plus.c ****     }
 371:system_psoc63_cm0plus.c **** 
 372:system_psoc63_cm0plus.c ****     /* Get frequency after hf_clk pre-divider */
 373:system_psoc63_cm0plus.c ****     pathFreqHz = pathFreqHz >> _FLD2VAL(SRSS_CLK_ROOT_SELECT_ROOT_DIV, SRSS->CLK_ROOT_SELECT[0u]);
 311              		.loc 1 373 0
 312 0132 E023     		movs	r3, #224
 313 0134 9B00     		lsls	r3, r3, #2
 314 0136 154A     		ldr	r2, .L23
 315 0138 D358     		ldr	r3, [r2, r3]
 316 013a 1B09     		lsrs	r3, r3, #4
 317 013c 0322     		movs	r2, #3
 318 013e 1340     		ands	r3, r2
 319 0140 D840     		lsrs	r0, r0, r3
 320              	.LVL36:
 374:system_psoc63_cm0plus.c ****     cy_Hfclk0FreqHz = pathFreqHz;
 321              		.loc 1 374 0
 322 0142 144C     		ldr	r4, .L23+8
 323 0144 6060     		str	r0, [r4, #4]
 375:system_psoc63_cm0plus.c **** 
 376:system_psoc63_cm0plus.c ****     /* Slow Clock Divider */
 377:system_psoc63_cm0plus.c ****     slowClkDiv = 1u + _FLD2VAL(CPUSS_CM0_CLOCK_CTL_SLOW_INT_DIV, CPUSS->CM0_CLOCK_CTL);
 324              		.loc 1 377 0
 325 0146 164B     		ldr	r3, .L23+20
 326 0148 1D69     		ldr	r5, [r3, #16]
 327 014a 2D0A     		lsrs	r5, r5, #8
 328 014c FC32     		adds	r2, r2, #252
 329 014e 1540     		ands	r5, r2
 330 0150 0135     		adds	r5, r5, #1
 331              	.LVL37:
 378:system_psoc63_cm0plus.c **** 
 379:system_psoc63_cm0plus.c ****     /* Peripheral Clock Divider */
 380:system_psoc63_cm0plus.c ****     periClkDiv = 1u + _FLD2VAL(CPUSS_CM0_CLOCK_CTL_PERI_INT_DIV, CPUSS->CM0_CLOCK_CTL);
 332              		.loc 1 380 0
 333 0152 1969     		ldr	r1, [r3, #16]
 334 0154 090E     		lsrs	r1, r1, #24
 335 0156 0131     		adds	r1, r1, #1
 336              	.LVL38:
 381:system_psoc63_cm0plus.c **** 
 382:system_psoc63_cm0plus.c ****     pathFreqHz = pathFreqHz / periClkDiv;
 337              		.loc 1 382 0
 338 0158 FFF7FEFF 		bl	__aeabi_uidiv
 339              	.LVL39:
 383:system_psoc63_cm0plus.c ****     cy_PeriClkFreqHz = pathFreqHz;
 340              		.loc 1 383 0
 341 015c A060     		str	r0, [r4, #8]
 384:system_psoc63_cm0plus.c ****     pathFreqHz = pathFreqHz / slowClkDiv;
 342              		.loc 1 384 0
 343 015e 2900     		movs	r1, r5
 344 0160 FFF7FEFF 		bl	__aeabi_uidiv
 345              	.LVL40:
 346 0164 0500     		movs	r5, r0
 347              	.LVL41:
 385:system_psoc63_cm0plus.c ****     SystemCoreClock = pathFreqHz;
 348              		.loc 1 385 0
 349 0166 E060     		str	r0, [r4, #12]
 386:system_psoc63_cm0plus.c **** 
ARM GAS  C:\Users\cypress\AppData\Local\Temp\ccIrd8u1.s 			page 14


 387:system_psoc63_cm0plus.c ****     /* Sets clock frequency for Delay API */
 388:system_psoc63_cm0plus.c ****     cy_delayFreqHz = SystemCoreClock;
 350              		.loc 1 388 0
 351 0168 2061     		str	r0, [r4, #16]
 389:system_psoc63_cm0plus.c ****     cy_delayFreqMhz = (uint8_t)((cy_delayFreqHz + CY_DELAY_1M_MINUS_1_THRESHOLD) / CY_DELAY_1M_THRE
 352              		.loc 1 389 0
 353 016a 0E4B     		ldr	r3, .L23+24
 354 016c C018     		adds	r0, r0, r3
 355              	.LVL42:
 356 016e 0E49     		ldr	r1, .L23+28
 357 0170 FFF7FEFF 		bl	__aeabi_uidiv
 358              	.LVL43:
 359 0174 2075     		strb	r0, [r4, #20]
 390:system_psoc63_cm0plus.c ****     cy_delayFreqKhz = (cy_delayFreqHz + CY_DELAY_1K_MINUS_1_THRESHOLD) / CY_DELAY_1K_THRESHOLD;
 360              		.loc 1 390 0
 361 0176 0D4B     		ldr	r3, .L23+32
 362 0178 E818     		adds	r0, r5, r3
 363 017a FA21     		movs	r1, #250
 364 017c 8900     		lsls	r1, r1, #2
 365 017e FFF7FEFF 		bl	__aeabi_uidiv
 366              	.LVL44:
 367 0182 A061     		str	r0, [r4, #24]
 391:system_psoc63_cm0plus.c ****     cy_delay32kMs   = CY_DELAY_MS_OVERFLOW_THRESHOLD * cy_delayFreqKhz;
 368              		.loc 1 391 0
 369 0184 C003     		lsls	r0, r0, #15
 370 0186 E061     		str	r0, [r4, #28]
 392:system_psoc63_cm0plus.c **** }
 371              		.loc 1 392 0
 372              		@ sp needed
 373              	.LVL45:
 374 0188 70BD     		pop	{r4, r5, r6, pc}
 375              	.L24:
 376 018a C046     		.align	2
 377              	.L23:
 378 018c 00002640 		.word	1076232192
 379 0190 00127A00 		.word	8000000
 380 0194 00000000 		.word	.LANCHOR0
 381 0198 00366E01 		.word	24000000
 382 019c 84050000 		.word	1412
 383 01a0 00002140 		.word	1075904512
 384 01a4 3F420F00 		.word	999999
 385 01a8 40420F00 		.word	1000000
 386 01ac E7030000 		.word	999
 387              		.cfi_endproc
 388              	.LFE57:
 389              		.size	SystemCoreClockUpdate, .-SystemCoreClockUpdate
 390              		.section	.text.SystemInit,"ax",%progbits
 391              		.align	2
 392              		.global	SystemInit
 393              		.code	16
 394              		.thumb_func
 395              		.type	SystemInit, %function
 396              	SystemInit:
 397              	.LFB55:
 164:system_psoc63_cm0plus.c ****     /* Restore FLL registers to the default state as they are not restored by the ROM code */
 398              		.loc 1 164 0
 399              		.cfi_startproc
ARM GAS  C:\Users\cypress\AppData\Local\Temp\ccIrd8u1.s 			page 15


 400              		@ args = 0, pretend = 0, frame = 0
 401              		@ frame_needed = 0, uses_anonymous_args = 0
 402 0000 10B5     		push	{r4, lr}
 403              		.cfi_def_cfa_offset 8
 404              		.cfi_offset 4, -8
 405              		.cfi_offset 14, -4
 166:system_psoc63_cm0plus.c ****     copy &= ~SRSS_CLK_FLL_CONFIG_FLL_ENABLE_Msk;
 406              		.loc 1 166 0
 407 0002 234B     		ldr	r3, .L29
 408 0004 B021     		movs	r1, #176
 409 0006 C900     		lsls	r1, r1, #3
 410 0008 5A58     		ldr	r2, [r3, r1]
 411              	.LVL46:
 167:system_psoc63_cm0plus.c ****     SRSS->CLK_FLL_CONFIG = copy;
 412              		.loc 1 167 0
 413 000a 5200     		lsls	r2, r2, #1
 414              	.LVL47:
 415 000c 5208     		lsrs	r2, r2, #1
 416              	.LVL48:
 168:system_psoc63_cm0plus.c **** 
 417              		.loc 1 168 0
 418 000e 5A50     		str	r2, [r3, r1]
 170:system_psoc63_cm0plus.c ****     copy &= ~SRSS_CLK_ROOT_SELECT_ROOT_DIV_Msk; /* Set ROOT_DIV = 0*/
 419              		.loc 1 170 0
 420 0010 E020     		movs	r0, #224
 421 0012 8000     		lsls	r0, r0, #2
 422 0014 1A58     		ldr	r2, [r3, r0]
 423              	.LVL49:
 171:system_psoc63_cm0plus.c ****     SRSS->CLK_ROOT_SELECT[0u] = copy;
 424              		.loc 1 171 0
 425 0016 3024     		movs	r4, #48
 426 0018 A243     		bics	r2, r4
 427              	.LVL50:
 172:system_psoc63_cm0plus.c **** 
 428              		.loc 1 172 0
 429 001a 1A50     		str	r2, [r3, r0]
 174:system_psoc63_cm0plus.c ****     SRSS->CLK_FLL_CONFIG2 = CY_FB_CLK_FLL_CONFIG2_VALUE;
 430              		.loc 1 174 0
 431 001c 8022     		movs	r2, #128
 432              	.LVL51:
 433 001e 5204     		lsls	r2, r2, #17
 434 0020 5A50     		str	r2, [r3, r1]
 435              	.LVL52:
 175:system_psoc63_cm0plus.c ****     SRSS->CLK_FLL_CONFIG3 = CY_FB_CLK_FLL_CONFIG3_VALUE;
 436              		.loc 1 175 0
 437 0022 1C49     		ldr	r1, .L29+4
 438 0024 1C4A     		ldr	r2, .L29+8
 439 0026 9950     		str	r1, [r3, r2]
 176:system_psoc63_cm0plus.c ****     SRSS->CLK_FLL_CONFIG4 = CY_FB_CLK_FLL_CONFIG4_VALUE;
 440              		.loc 1 176 0
 441 0028 A021     		movs	r1, #160
 442 002a 8901     		lsls	r1, r1, #6
 443 002c 0432     		adds	r2, r2, #4
 444 002e 9950     		str	r1, [r3, r2]
 177:system_psoc63_cm0plus.c **** 
 445              		.loc 1 177 0
 446 0030 FF21     		movs	r1, #255
ARM GAS  C:\Users\cypress\AppData\Local\Temp\ccIrd8u1.s 			page 16


 447 0032 1A4A     		ldr	r2, .L29+12
 448 0034 9950     		str	r1, [r3, r2]
 180:system_psoc63_cm0plus.c ****     SRSS->WDT_CTL = (SRSS->WDT_CTL | CY_WDT_LOCK_BIT1);
 449              		.loc 1 180 0
 450 0036 8131     		adds	r1, r1, #129
 451 0038 5A58     		ldr	r2, [r3, r1]
 452 003a 9200     		lsls	r2, r2, #2
 453 003c 9208     		lsrs	r2, r2, #2
 454 003e 8020     		movs	r0, #128
 455 0040 C005     		lsls	r0, r0, #23
 456 0042 0243     		orrs	r2, r0
 457 0044 5A50     		str	r2, [r3, r1]
 181:system_psoc63_cm0plus.c ****     SRSS->WDT_CTL &= (~ (uint32_t) SRSS_WDT_CTL_WDT_EN_Msk);
 458              		.loc 1 181 0
 459 0046 5A58     		ldr	r2, [r3, r1]
 460 0048 8020     		movs	r0, #128
 461 004a 0006     		lsls	r0, r0, #24
 462 004c 0243     		orrs	r2, r0
 463 004e 5A50     		str	r2, [r3, r1]
 182:system_psoc63_cm0plus.c **** 
 464              		.loc 1 182 0
 465 0050 5A58     		ldr	r2, [r3, r1]
 466 0052 0120     		movs	r0, #1
 467 0054 8243     		bics	r2, r0
 468 0056 5A50     		str	r2, [r3, r1]
 184:system_psoc63_cm0plus.c ****     SystemCoreClockUpdate();
 469              		.loc 1 184 0
 470 0058 FFF7FEFF 		bl	Cy_SystemInit
 471              	.LVL53:
 185:system_psoc63_cm0plus.c **** 
 472              		.loc 1 185 0
 473 005c FFF7FEFF 		bl	SystemCoreClockUpdate
 474              	.LVL54:
 190:system_psoc63_cm0plus.c ****         Cy_IPC_SystemPipeInit();
 475              		.loc 1 190 0
 476 0060 FFF7FEFF 		bl	Cy_IPC_SystemSemaInit
 477              	.LVL55:
 191:system_psoc63_cm0plus.c ****         Cy_Flash_Init();
 478              		.loc 1 191 0
 479 0064 FFF7FEFF 		bl	Cy_IPC_SystemPipeInit
 480              	.LVL56:
 192:system_psoc63_cm0plus.c ****     #endif /* CY_IPC_DEFAULT_CFG_DISABLE */
 481              		.loc 1 192 0
 482 0068 FFF7FEFF 		bl	Cy_Flash_Init
 483              	.LVL57:
 484              	.LBB10:
 485              	.LBB11:
 486              		.file 2 "Generated_Source\\PSoC6\\pdl\\drivers/peripheral/syslib/cy_syslib.h"
   1:Generated_Source\PSoC6\pdl\drivers/peripheral/syslib/cy_syslib.h **** /***************************************************************************//**
   2:Generated_Source\PSoC6\pdl\drivers/peripheral/syslib/cy_syslib.h **** * \file cy_syslib.h
   3:Generated_Source\PSoC6\pdl\drivers/peripheral/syslib/cy_syslib.h **** * \version 2.0.1
   4:Generated_Source\PSoC6\pdl\drivers/peripheral/syslib/cy_syslib.h **** *
   5:Generated_Source\PSoC6\pdl\drivers/peripheral/syslib/cy_syslib.h **** * Provides an API declaration of the SysLib driver.
   6:Generated_Source\PSoC6\pdl\drivers/peripheral/syslib/cy_syslib.h **** *
   7:Generated_Source\PSoC6\pdl\drivers/peripheral/syslib/cy_syslib.h **** ********************************************************************************
   8:Generated_Source\PSoC6\pdl\drivers/peripheral/syslib/cy_syslib.h **** * \copyright
   9:Generated_Source\PSoC6\pdl\drivers/peripheral/syslib/cy_syslib.h **** * Copyright 2016-2018, Cypress Semiconductor Corporation. All rights reserved.
ARM GAS  C:\Users\cypress\AppData\Local\Temp\ccIrd8u1.s 			page 17


  10:Generated_Source\PSoC6\pdl\drivers/peripheral/syslib/cy_syslib.h **** * You may use this file only in accordance with the license, terms, conditions,
  11:Generated_Source\PSoC6\pdl\drivers/peripheral/syslib/cy_syslib.h **** * disclaimers, and limitations in the end user license agreement accompanying
  12:Generated_Source\PSoC6\pdl\drivers/peripheral/syslib/cy_syslib.h **** * the software package with which this file was provided.
  13:Generated_Source\PSoC6\pdl\drivers/peripheral/syslib/cy_syslib.h **** *******************************************************************************/
  14:Generated_Source\PSoC6\pdl\drivers/peripheral/syslib/cy_syslib.h **** 
  15:Generated_Source\PSoC6\pdl\drivers/peripheral/syslib/cy_syslib.h **** /**
  16:Generated_Source\PSoC6\pdl\drivers/peripheral/syslib/cy_syslib.h **** * \defgroup group_syslib System Library (SysLib)
  17:Generated_Source\PSoC6\pdl\drivers/peripheral/syslib/cy_syslib.h **** * \{
  18:Generated_Source\PSoC6\pdl\drivers/peripheral/syslib/cy_syslib.h **** * The system libraries provide APIs that can be called in the user application
  19:Generated_Source\PSoC6\pdl\drivers/peripheral/syslib/cy_syslib.h **** * to handle the timing, logical checking or register.
  20:Generated_Source\PSoC6\pdl\drivers/peripheral/syslib/cy_syslib.h **** *
  21:Generated_Source\PSoC6\pdl\drivers/peripheral/syslib/cy_syslib.h **** * The SysLib driver contains a set of different system functions. These functions
  22:Generated_Source\PSoC6\pdl\drivers/peripheral/syslib/cy_syslib.h **** * can be called in the application routine. Major features of the system library:
  23:Generated_Source\PSoC6\pdl\drivers/peripheral/syslib/cy_syslib.h **** * * Delay functions
  24:Generated_Source\PSoC6\pdl\drivers/peripheral/syslib/cy_syslib.h **** * * The register Read/Write macro
  25:Generated_Source\PSoC6\pdl\drivers/peripheral/syslib/cy_syslib.h **** * * Assert and Halt
  26:Generated_Source\PSoC6\pdl\drivers/peripheral/syslib/cy_syslib.h **** * * Assert Classes and Levels
  27:Generated_Source\PSoC6\pdl\drivers/peripheral/syslib/cy_syslib.h **** * * A software reset
  28:Generated_Source\PSoC6\pdl\drivers/peripheral/syslib/cy_syslib.h **** * * Reading the reset cause
  29:Generated_Source\PSoC6\pdl\drivers/peripheral/syslib/cy_syslib.h **** * * An API to invalidate the flash cache and buffer
  30:Generated_Source\PSoC6\pdl\drivers/peripheral/syslib/cy_syslib.h **** * * Data manipulation macro
  31:Generated_Source\PSoC6\pdl\drivers/peripheral/syslib/cy_syslib.h **** * * A variable type definition from MISRA-C which specifies signedness
  32:Generated_Source\PSoC6\pdl\drivers/peripheral/syslib/cy_syslib.h **** * * Cross compiler compatible attributes
  33:Generated_Source\PSoC6\pdl\drivers/peripheral/syslib/cy_syslib.h **** * * Getting a silicon-unique ID API
  34:Generated_Source\PSoC6\pdl\drivers/peripheral/syslib/cy_syslib.h **** * * Setting wait states API
  35:Generated_Source\PSoC6\pdl\drivers/peripheral/syslib/cy_syslib.h **** * * Resetting the backup domain API
  36:Generated_Source\PSoC6\pdl\drivers/peripheral/syslib/cy_syslib.h **** * * APIs to serve Fault handler
  37:Generated_Source\PSoC6\pdl\drivers/peripheral/syslib/cy_syslib.h **** *
  38:Generated_Source\PSoC6\pdl\drivers/peripheral/syslib/cy_syslib.h **** * \section group_syslib_configuration Configuration Considerations
  39:Generated_Source\PSoC6\pdl\drivers/peripheral/syslib/cy_syslib.h **** * <b> Assertion Usage </b> <br />
  40:Generated_Source\PSoC6\pdl\drivers/peripheral/syslib/cy_syslib.h **** * Use the CY_ASSERT() macro to check expressions that must be true as long as the
  41:Generated_Source\PSoC6\pdl\drivers/peripheral/syslib/cy_syslib.h **** * program is running correctly. It is a convenient way to insert sanity checks.
  42:Generated_Source\PSoC6\pdl\drivers/peripheral/syslib/cy_syslib.h **** * The CY_ASSERT() macro is defined in the cy_syslib.h file which is part of
  43:Generated_Source\PSoC6\pdl\drivers/peripheral/syslib/cy_syslib.h **** * the PDL library. The behavior of the macro is as follows: if the expression
  44:Generated_Source\PSoC6\pdl\drivers/peripheral/syslib/cy_syslib.h **** * passed to the macro is false, output an error message that includes the file
  45:Generated_Source\PSoC6\pdl\drivers/peripheral/syslib/cy_syslib.h **** * name and line number, and then halts the CPU. \n
  46:Generated_Source\PSoC6\pdl\drivers/peripheral/syslib/cy_syslib.h **** * In case of fault, the CY_ASSERT() macro calls the Cy_SysLib_AssertFailed() function.
  47:Generated_Source\PSoC6\pdl\drivers/peripheral/syslib/cy_syslib.h **** * This is a weakly linked function. The default implementation stores the file
  48:Generated_Source\PSoC6\pdl\drivers/peripheral/syslib/cy_syslib.h **** * name and line number of the ASSERT into global variables, cy_assertFileName
  49:Generated_Source\PSoC6\pdl\drivers/peripheral/syslib/cy_syslib.h **** * and cy_assertLine . It then calls the Cy_SysLib_Halt() function.
  50:Generated_Source\PSoC6\pdl\drivers/peripheral/syslib/cy_syslib.h **** * \note Firmware can redefine the Cy_SysLib_AssertFailed() function for custom processing.
  51:Generated_Source\PSoC6\pdl\drivers/peripheral/syslib/cy_syslib.h **** * 
  52:Generated_Source\PSoC6\pdl\drivers/peripheral/syslib/cy_syslib.h **** * The PDL source code uses this assert mechanism extensively. It is recommended
  53:Generated_Source\PSoC6\pdl\drivers/peripheral/syslib/cy_syslib.h **** * that you enable asserts when debugging firmware. \n
  54:Generated_Source\PSoC6\pdl\drivers/peripheral/syslib/cy_syslib.h **** * <b> Assertion Classes and Levels </b> <br />
  55:Generated_Source\PSoC6\pdl\drivers/peripheral/syslib/cy_syslib.h **** * The PDL defines three assert classes, which correspond to different kinds
  56:Generated_Source\PSoC6\pdl\drivers/peripheral/syslib/cy_syslib.h **** * of parameters. There is a corresponding assert "level" for each class.
  57:Generated_Source\PSoC6\pdl\drivers/peripheral/syslib/cy_syslib.h **** * <table class="doxtable">
  58:Generated_Source\PSoC6\pdl\drivers/peripheral/syslib/cy_syslib.h **** *   <tr><th>Class Macro</th><th>Level Macro</th><th>Type of check</th></tr>
  59:Generated_Source\PSoC6\pdl\drivers/peripheral/syslib/cy_syslib.h **** *   <tr>
  60:Generated_Source\PSoC6\pdl\drivers/peripheral/syslib/cy_syslib.h **** *     <td>CY_ASSERT_CLASS_1</td>
  61:Generated_Source\PSoC6\pdl\drivers/peripheral/syslib/cy_syslib.h **** *     <td>CY_ASSERT_L1</td>
  62:Generated_Source\PSoC6\pdl\drivers/peripheral/syslib/cy_syslib.h **** *     <td>A parameter that could change between different PSoC devices
  63:Generated_Source\PSoC6\pdl\drivers/peripheral/syslib/cy_syslib.h **** *         (e.g. the number of clock paths)</td>
  64:Generated_Source\PSoC6\pdl\drivers/peripheral/syslib/cy_syslib.h **** *   </tr>
  65:Generated_Source\PSoC6\pdl\drivers/peripheral/syslib/cy_syslib.h **** *   <tr>
  66:Generated_Source\PSoC6\pdl\drivers/peripheral/syslib/cy_syslib.h **** *     <td>CY_ASSERT_CLASS_2</td>
ARM GAS  C:\Users\cypress\AppData\Local\Temp\ccIrd8u1.s 			page 18


  67:Generated_Source\PSoC6\pdl\drivers/peripheral/syslib/cy_syslib.h **** *     <td>CY_ASSERT_L2</td>
  68:Generated_Source\PSoC6\pdl\drivers/peripheral/syslib/cy_syslib.h **** *     <td>A parameter that has fixed limits such as a counter period</td>
  69:Generated_Source\PSoC6\pdl\drivers/peripheral/syslib/cy_syslib.h **** *   </tr>
  70:Generated_Source\PSoC6\pdl\drivers/peripheral/syslib/cy_syslib.h **** *   <tr>
  71:Generated_Source\PSoC6\pdl\drivers/peripheral/syslib/cy_syslib.h **** *     <td>CY_ASSERT_CLASS_3</td>
  72:Generated_Source\PSoC6\pdl\drivers/peripheral/syslib/cy_syslib.h **** *     <td>CY_ASSERT_L3</td>
  73:Generated_Source\PSoC6\pdl\drivers/peripheral/syslib/cy_syslib.h **** *     <td>A parameter that is an enum constant</td>
  74:Generated_Source\PSoC6\pdl\drivers/peripheral/syslib/cy_syslib.h **** *   </tr>
  75:Generated_Source\PSoC6\pdl\drivers/peripheral/syslib/cy_syslib.h **** * </table>
  76:Generated_Source\PSoC6\pdl\drivers/peripheral/syslib/cy_syslib.h **** * Firmware defines which ASSERT class is enabled by defining CY_ASSERT_LEVEL.
  77:Generated_Source\PSoC6\pdl\drivers/peripheral/syslib/cy_syslib.h **** * This is a compiler command line argument, similar to how the DEBUG / NDEBUG
  78:Generated_Source\PSoC6\pdl\drivers/peripheral/syslib/cy_syslib.h **** * macro is passed. \n 
  79:Generated_Source\PSoC6\pdl\drivers/peripheral/syslib/cy_syslib.h **** * Enabling any class also enables any lower-numbered class.
  80:Generated_Source\PSoC6\pdl\drivers/peripheral/syslib/cy_syslib.h **** * CY_ASSERT_CLASS_3 is the default level, and it enables asserts for all three
  81:Generated_Source\PSoC6\pdl\drivers/peripheral/syslib/cy_syslib.h **** * classes. The following example shows the command-line option to enable all
  82:Generated_Source\PSoC6\pdl\drivers/peripheral/syslib/cy_syslib.h **** * the assert levels:
  83:Generated_Source\PSoC6\pdl\drivers/peripheral/syslib/cy_syslib.h **** * \code -D CY_ASSERT_LEVEL=CY_ASSERT_CLASS_3 \endcode
  84:Generated_Source\PSoC6\pdl\drivers/peripheral/syslib/cy_syslib.h **** * \note The use of special characters, such as spaces, parenthesis, etc. must
  85:Generated_Source\PSoC6\pdl\drivers/peripheral/syslib/cy_syslib.h **** * be protected with quotes. 
  86:Generated_Source\PSoC6\pdl\drivers/peripheral/syslib/cy_syslib.h **** * 
  87:Generated_Source\PSoC6\pdl\drivers/peripheral/syslib/cy_syslib.h **** * After CY_ASSERT_LEVEL is defined, firmware can use
  88:Generated_Source\PSoC6\pdl\drivers/peripheral/syslib/cy_syslib.h **** * one of the three level macros to make an assertion. For example, if the
  89:Generated_Source\PSoC6\pdl\drivers/peripheral/syslib/cy_syslib.h **** * parameter can vary between devices, firmware uses the L1 macro.
  90:Generated_Source\PSoC6\pdl\drivers/peripheral/syslib/cy_syslib.h **** * \code CY_ASSERT_L1(clkPath < SRSS_NUM_CLKPATH); \endcode
  91:Generated_Source\PSoC6\pdl\drivers/peripheral/syslib/cy_syslib.h **** * If the parameter has bounds, firmware uses L2.
  92:Generated_Source\PSoC6\pdl\drivers/peripheral/syslib/cy_syslib.h **** * \code CY_ASSERT_L2(trim <= CY_CTB_TRIM_VALUE_MAX); \endcode
  93:Generated_Source\PSoC6\pdl\drivers/peripheral/syslib/cy_syslib.h **** * If the parameter is an enum, firmware uses L3.
  94:Generated_Source\PSoC6\pdl\drivers/peripheral/syslib/cy_syslib.h **** * \code CY_ASSERT_L3(config->LossAction <= CY_SYSCLK_CSV_ERROR_FAULT_RESET); \endcode
  95:Generated_Source\PSoC6\pdl\drivers/peripheral/syslib/cy_syslib.h **** * Each check uses the appropriate level macro for the kind of parameter being checked.
  96:Generated_Source\PSoC6\pdl\drivers/peripheral/syslib/cy_syslib.h **** * If a particular assert class/level is not enabled, then the assert does nothing.
  97:Generated_Source\PSoC6\pdl\drivers/peripheral/syslib/cy_syslib.h **** *
  98:Generated_Source\PSoC6\pdl\drivers/peripheral/syslib/cy_syslib.h **** * \section group_syslib_more_information More Information
  99:Generated_Source\PSoC6\pdl\drivers/peripheral/syslib/cy_syslib.h **** * Refer to the technical reference manual (TRM).
 100:Generated_Source\PSoC6\pdl\drivers/peripheral/syslib/cy_syslib.h **** *
 101:Generated_Source\PSoC6\pdl\drivers/peripheral/syslib/cy_syslib.h **** * \section group_syslib_MISRA MISRA-C Compliance
 102:Generated_Source\PSoC6\pdl\drivers/peripheral/syslib/cy_syslib.h **** * <table class="doxtable">
 103:Generated_Source\PSoC6\pdl\drivers/peripheral/syslib/cy_syslib.h **** *   <tr>
 104:Generated_Source\PSoC6\pdl\drivers/peripheral/syslib/cy_syslib.h **** *     <th>MISRA Rule</th>
 105:Generated_Source\PSoC6\pdl\drivers/peripheral/syslib/cy_syslib.h **** *     <th>Rule Class (Required/Advisory)</th>
 106:Generated_Source\PSoC6\pdl\drivers/peripheral/syslib/cy_syslib.h **** *     <th>Rule Description</th>
 107:Generated_Source\PSoC6\pdl\drivers/peripheral/syslib/cy_syslib.h **** *     <th>Description of Deviation(s)</th>
 108:Generated_Source\PSoC6\pdl\drivers/peripheral/syslib/cy_syslib.h **** *   </tr>
 109:Generated_Source\PSoC6\pdl\drivers/peripheral/syslib/cy_syslib.h **** *   <tr>
 110:Generated_Source\PSoC6\pdl\drivers/peripheral/syslib/cy_syslib.h **** *     <td>18.4</td>
 111:Generated_Source\PSoC6\pdl\drivers/peripheral/syslib/cy_syslib.h **** *     <td>R</td>
 112:Generated_Source\PSoC6\pdl\drivers/peripheral/syslib/cy_syslib.h **** *     <td>Unions shall not be used.</td>
 113:Generated_Source\PSoC6\pdl\drivers/peripheral/syslib/cy_syslib.h **** *     <td>The unions are used for CFSR, HFSR and SHCSR Fault Status Registers
 114:Generated_Source\PSoC6\pdl\drivers/peripheral/syslib/cy_syslib.h **** *         content access as a word in code and as a structure during debug.</td>
 115:Generated_Source\PSoC6\pdl\drivers/peripheral/syslib/cy_syslib.h **** *   </tr>
 116:Generated_Source\PSoC6\pdl\drivers/peripheral/syslib/cy_syslib.h **** *   <tr>
 117:Generated_Source\PSoC6\pdl\drivers/peripheral/syslib/cy_syslib.h **** *     <td>19.13</td>
 118:Generated_Source\PSoC6\pdl\drivers/peripheral/syslib/cy_syslib.h **** *     <td>A</td>
 119:Generated_Source\PSoC6\pdl\drivers/peripheral/syslib/cy_syslib.h **** *     <td>The # and ## operators should not be used.</td>
 120:Generated_Source\PSoC6\pdl\drivers/peripheral/syslib/cy_syslib.h **** *     <td>The ## preprocessor operator is used in macros to form the field mask.</td>
 121:Generated_Source\PSoC6\pdl\drivers/peripheral/syslib/cy_syslib.h **** *   </tr>
 122:Generated_Source\PSoC6\pdl\drivers/peripheral/syslib/cy_syslib.h **** * </table>
 123:Generated_Source\PSoC6\pdl\drivers/peripheral/syslib/cy_syslib.h **** *
ARM GAS  C:\Users\cypress\AppData\Local\Temp\ccIrd8u1.s 			page 19


 124:Generated_Source\PSoC6\pdl\drivers/peripheral/syslib/cy_syslib.h **** * \section group_syslib_changelog Changelog
 125:Generated_Source\PSoC6\pdl\drivers/peripheral/syslib/cy_syslib.h **** * <table class="doxtable">
 126:Generated_Source\PSoC6\pdl\drivers/peripheral/syslib/cy_syslib.h **** *   <tr><th>Version</th><th>Changes</th><th>Reason for Change</th></tr>
 127:Generated_Source\PSoC6\pdl\drivers/peripheral/syslib/cy_syslib.h **** *   <tr>
 128:Generated_Source\PSoC6\pdl\drivers/peripheral/syslib/cy_syslib.h **** *     <td>2.0.1</td>
 129:Generated_Source\PSoC6\pdl\drivers/peripheral/syslib/cy_syslib.h **** *     <td>Minor documentation edits</td>
 130:Generated_Source\PSoC6\pdl\drivers/peripheral/syslib/cy_syslib.h **** *     <td>Documentation update and clarification</td>
 131:Generated_Source\PSoC6\pdl\drivers/peripheral/syslib/cy_syslib.h **** *   </tr>
 132:Generated_Source\PSoC6\pdl\drivers/peripheral/syslib/cy_syslib.h **** *   <tr>
 133:Generated_Source\PSoC6\pdl\drivers/peripheral/syslib/cy_syslib.h **** *     <td rowspan="4"> 2.0</td>
 134:Generated_Source\PSoC6\pdl\drivers/peripheral/syslib/cy_syslib.h **** *     <td>
 135:Generated_Source\PSoC6\pdl\drivers/peripheral/syslib/cy_syslib.h **** * Added Cy_SysLib_ResetBackupDomain() API implementation. \n
 136:Generated_Source\PSoC6\pdl\drivers/peripheral/syslib/cy_syslib.h **** * Added CY_NOINLINE attribute implementation. \n
 137:Generated_Source\PSoC6\pdl\drivers/peripheral/syslib/cy_syslib.h **** * Added DIE_YEAR field to 64-bit unique ID return value of Cy_SysLib_GetUniqueId() API. \n
 138:Generated_Source\PSoC6\pdl\drivers/peripheral/syslib/cy_syslib.h **** * Added storing of SCB->HFSR, SCB->SHCSR registers and SCB->MMFAR, SCB->BFAR addresses to Fault Han
 139:Generated_Source\PSoC6\pdl\drivers/peripheral/syslib/cy_syslib.h **** * Optimized Cy_SysLib_SetWaitStates() API implementation.
 140:Generated_Source\PSoC6\pdl\drivers/peripheral/syslib/cy_syslib.h **** *     </td>
 141:Generated_Source\PSoC6\pdl\drivers/peripheral/syslib/cy_syslib.h **** *     <td>Improvements made based on usability feedback.</td>
 142:Generated_Source\PSoC6\pdl\drivers/peripheral/syslib/cy_syslib.h **** *   </tr>
 143:Generated_Source\PSoC6\pdl\drivers/peripheral/syslib/cy_syslib.h **** *   <tr>
 144:Generated_Source\PSoC6\pdl\drivers/peripheral/syslib/cy_syslib.h **** *     <td>Added Assertion Classes and Levels.</td>
 145:Generated_Source\PSoC6\pdl\drivers/peripheral/syslib/cy_syslib.h **** *     <td>For error checking, parameter validation and status returns in the PDL API.</td>
 146:Generated_Source\PSoC6\pdl\drivers/peripheral/syslib/cy_syslib.h **** *   </tr>
 147:Generated_Source\PSoC6\pdl\drivers/peripheral/syslib/cy_syslib.h **** *   <tr>
 148:Generated_Source\PSoC6\pdl\drivers/peripheral/syslib/cy_syslib.h **** *     <td>Applied CY_NOINIT attribute to cy_assertFileName, cy_assertLine, and cy_faultFrame global
 149:Generated_Source\PSoC6\pdl\drivers/peripheral/syslib/cy_syslib.h **** *     <td>To store debug information into a non-zero init area for future analysis.</td>
 150:Generated_Source\PSoC6\pdl\drivers/peripheral/syslib/cy_syslib.h **** *   </tr>
 151:Generated_Source\PSoC6\pdl\drivers/peripheral/syslib/cy_syslib.h **** *   <tr>
 152:Generated_Source\PSoC6\pdl\drivers/peripheral/syslib/cy_syslib.h **** *     <td>Removed CY_WEAK attribute implementation.</td>
 153:Generated_Source\PSoC6\pdl\drivers/peripheral/syslib/cy_syslib.h **** *     <td>CMSIS __WEAK attribute should be used instead.</td>
 154:Generated_Source\PSoC6\pdl\drivers/peripheral/syslib/cy_syslib.h **** *   </tr>
 155:Generated_Source\PSoC6\pdl\drivers/peripheral/syslib/cy_syslib.h **** *   <tr>
 156:Generated_Source\PSoC6\pdl\drivers/peripheral/syslib/cy_syslib.h **** *     <td>1.0</td>
 157:Generated_Source\PSoC6\pdl\drivers/peripheral/syslib/cy_syslib.h **** *     <td>Initial version</td>
 158:Generated_Source\PSoC6\pdl\drivers/peripheral/syslib/cy_syslib.h **** *     <td></td>
 159:Generated_Source\PSoC6\pdl\drivers/peripheral/syslib/cy_syslib.h **** *   </tr>
 160:Generated_Source\PSoC6\pdl\drivers/peripheral/syslib/cy_syslib.h **** * </table>
 161:Generated_Source\PSoC6\pdl\drivers/peripheral/syslib/cy_syslib.h **** *
 162:Generated_Source\PSoC6\pdl\drivers/peripheral/syslib/cy_syslib.h **** * \defgroup group_syslib_macros Macros
 163:Generated_Source\PSoC6\pdl\drivers/peripheral/syslib/cy_syslib.h **** * \defgroup group_syslib_functions Functions
 164:Generated_Source\PSoC6\pdl\drivers/peripheral/syslib/cy_syslib.h **** * \defgroup group_syslib_data_structures Data Structures
 165:Generated_Source\PSoC6\pdl\drivers/peripheral/syslib/cy_syslib.h **** * \defgroup group_syslib_enumerated_types Enumerated Types
 166:Generated_Source\PSoC6\pdl\drivers/peripheral/syslib/cy_syslib.h **** *
 167:Generated_Source\PSoC6\pdl\drivers/peripheral/syslib/cy_syslib.h **** */
 168:Generated_Source\PSoC6\pdl\drivers/peripheral/syslib/cy_syslib.h **** 
 169:Generated_Source\PSoC6\pdl\drivers/peripheral/syslib/cy_syslib.h **** #if !defined(_CY_SYSLIB_H_)
 170:Generated_Source\PSoC6\pdl\drivers/peripheral/syslib/cy_syslib.h **** #define _CY_SYSLIB_H_
 171:Generated_Source\PSoC6\pdl\drivers/peripheral/syslib/cy_syslib.h **** 
 172:Generated_Source\PSoC6\pdl\drivers/peripheral/syslib/cy_syslib.h **** #include <stdint.h>
 173:Generated_Source\PSoC6\pdl\drivers/peripheral/syslib/cy_syslib.h **** #include <stdbool.h>
 174:Generated_Source\PSoC6\pdl\drivers/peripheral/syslib/cy_syslib.h **** #include "cy_device_headers.h"
 175:Generated_Source\PSoC6\pdl\drivers/peripheral/syslib/cy_syslib.h **** 
 176:Generated_Source\PSoC6\pdl\drivers/peripheral/syslib/cy_syslib.h **** #if defined(__cplusplus)
 177:Generated_Source\PSoC6\pdl\drivers/peripheral/syslib/cy_syslib.h **** extern "C" {
 178:Generated_Source\PSoC6\pdl\drivers/peripheral/syslib/cy_syslib.h **** #endif /* defined(__cplusplus) */
 179:Generated_Source\PSoC6\pdl\drivers/peripheral/syslib/cy_syslib.h **** 
 180:Generated_Source\PSoC6\pdl\drivers/peripheral/syslib/cy_syslib.h **** #if defined( __ICCARM__ )
ARM GAS  C:\Users\cypress\AppData\Local\Temp\ccIrd8u1.s 			page 20


 181:Generated_Source\PSoC6\pdl\drivers/peripheral/syslib/cy_syslib.h ****     /* Suppress the warning for multiple volatile variables in an expression. */
 182:Generated_Source\PSoC6\pdl\drivers/peripheral/syslib/cy_syslib.h ****     /* This is common for driver's code and the usage is not order-dependent. */
 183:Generated_Source\PSoC6\pdl\drivers/peripheral/syslib/cy_syslib.h ****     #pragma diag_suppress=Pa082
 184:Generated_Source\PSoC6\pdl\drivers/peripheral/syslib/cy_syslib.h **** #endif  /* defined( __ICCARM__ ) */
 185:Generated_Source\PSoC6\pdl\drivers/peripheral/syslib/cy_syslib.h **** 
 186:Generated_Source\PSoC6\pdl\drivers/peripheral/syslib/cy_syslib.h **** /**
 187:Generated_Source\PSoC6\pdl\drivers/peripheral/syslib/cy_syslib.h **** * \addtogroup group_syslib_macros
 188:Generated_Source\PSoC6\pdl\drivers/peripheral/syslib/cy_syslib.h **** * \{
 189:Generated_Source\PSoC6\pdl\drivers/peripheral/syslib/cy_syslib.h **** */
 190:Generated_Source\PSoC6\pdl\drivers/peripheral/syslib/cy_syslib.h **** 
 191:Generated_Source\PSoC6\pdl\drivers/peripheral/syslib/cy_syslib.h **** /******************************************************************************
 192:Generated_Source\PSoC6\pdl\drivers/peripheral/syslib/cy_syslib.h **** * Macros
 193:Generated_Source\PSoC6\pdl\drivers/peripheral/syslib/cy_syslib.h **** *****************************************************************************/
 194:Generated_Source\PSoC6\pdl\drivers/peripheral/syslib/cy_syslib.h **** 
 195:Generated_Source\PSoC6\pdl\drivers/peripheral/syslib/cy_syslib.h **** #define CY_CPU_CORTEX_M0P   (__CORTEX_M == 0)    /**< CM0+ core CPU Code */
 196:Generated_Source\PSoC6\pdl\drivers/peripheral/syslib/cy_syslib.h **** #define CY_CPU_CORTEX_M4    (__CORTEX_M == 4)    /**< CM4  core CPU Code */
 197:Generated_Source\PSoC6\pdl\drivers/peripheral/syslib/cy_syslib.h **** 
 198:Generated_Source\PSoC6\pdl\drivers/peripheral/syslib/cy_syslib.h **** /** The macro to disable the Fault Handler */
 199:Generated_Source\PSoC6\pdl\drivers/peripheral/syslib/cy_syslib.h **** #define CY_ARM_FAULT_DEBUG_DISABLED    (0U)
 200:Generated_Source\PSoC6\pdl\drivers/peripheral/syslib/cy_syslib.h **** /** The macro to enable the Fault Handler */
 201:Generated_Source\PSoC6\pdl\drivers/peripheral/syslib/cy_syslib.h **** #define CY_ARM_FAULT_DEBUG_ENABLED     (1U)
 202:Generated_Source\PSoC6\pdl\drivers/peripheral/syslib/cy_syslib.h **** 
 203:Generated_Source\PSoC6\pdl\drivers/peripheral/syslib/cy_syslib.h **** #if !defined(CY_ARM_FAULT_DEBUG)
 204:Generated_Source\PSoC6\pdl\drivers/peripheral/syslib/cy_syslib.h ****     /** The macro defines if the Fault Handler is enabled. Enabled by default. */
 205:Generated_Source\PSoC6\pdl\drivers/peripheral/syslib/cy_syslib.h ****     #define CY_ARM_FAULT_DEBUG         (CY_ARM_FAULT_DEBUG_ENABLED)
 206:Generated_Source\PSoC6\pdl\drivers/peripheral/syslib/cy_syslib.h **** #endif /* CY_ARM_FAULT_DEBUG */
 207:Generated_Source\PSoC6\pdl\drivers/peripheral/syslib/cy_syslib.h **** 
 208:Generated_Source\PSoC6\pdl\drivers/peripheral/syslib/cy_syslib.h **** /**
 209:Generated_Source\PSoC6\pdl\drivers/peripheral/syslib/cy_syslib.h **** * \defgroup group_syslib_macros_status_codes Status codes
 210:Generated_Source\PSoC6\pdl\drivers/peripheral/syslib/cy_syslib.h **** * \{
 211:Generated_Source\PSoC6\pdl\drivers/peripheral/syslib/cy_syslib.h **** * Function status type codes
 212:Generated_Source\PSoC6\pdl\drivers/peripheral/syslib/cy_syslib.h **** */
 213:Generated_Source\PSoC6\pdl\drivers/peripheral/syslib/cy_syslib.h **** #define CY_PDL_STATUS_CODE_Pos  (0U)        /**< The module status code position in the status code
 214:Generated_Source\PSoC6\pdl\drivers/peripheral/syslib/cy_syslib.h **** #define CY_PDL_STATUS_TYPE_Pos  (16U)       /**< The status type position in the status code */
 215:Generated_Source\PSoC6\pdl\drivers/peripheral/syslib/cy_syslib.h **** #define CY_PDL_MODULE_ID_Pos    (18U)       /**< The software module ID position in the status code
 216:Generated_Source\PSoC6\pdl\drivers/peripheral/syslib/cy_syslib.h **** #define CY_PDL_STATUS_INFO      (0UL << CY_PDL_STATUS_TYPE_Pos)    /**< The information status type
 217:Generated_Source\PSoC6\pdl\drivers/peripheral/syslib/cy_syslib.h **** #define CY_PDL_STATUS_WARNING   (1UL << CY_PDL_STATUS_TYPE_Pos)    /**< The warning status type */
 218:Generated_Source\PSoC6\pdl\drivers/peripheral/syslib/cy_syslib.h **** #define CY_PDL_STATUS_ERROR     (2UL << CY_PDL_STATUS_TYPE_Pos)    /**< The error status type */
 219:Generated_Source\PSoC6\pdl\drivers/peripheral/syslib/cy_syslib.h **** #define CY_PDL_MODULE_ID_Msk    (0x3FFFU)   /**< The software module ID mask */
 220:Generated_Source\PSoC6\pdl\drivers/peripheral/syslib/cy_syslib.h **** /** Get the software PDL module ID */
 221:Generated_Source\PSoC6\pdl\drivers/peripheral/syslib/cy_syslib.h **** #define CY_PDL_DRV_ID(id)       ((uint32_t)((uint32_t)((id) & CY_PDL_MODULE_ID_Msk) << CY_PDL_MODUL
 222:Generated_Source\PSoC6\pdl\drivers/peripheral/syslib/cy_syslib.h **** #define CY_SYSLIB_ID            CY_PDL_DRV_ID(0x11U)     /**< SYSLIB PDL ID */
 223:Generated_Source\PSoC6\pdl\drivers/peripheral/syslib/cy_syslib.h **** /** \} group_syslib_macros_status_codes */
 224:Generated_Source\PSoC6\pdl\drivers/peripheral/syslib/cy_syslib.h **** 
 225:Generated_Source\PSoC6\pdl\drivers/peripheral/syslib/cy_syslib.h **** /** \} group_syslib_macros */
 226:Generated_Source\PSoC6\pdl\drivers/peripheral/syslib/cy_syslib.h **** 
 227:Generated_Source\PSoC6\pdl\drivers/peripheral/syslib/cy_syslib.h **** /**
 228:Generated_Source\PSoC6\pdl\drivers/peripheral/syslib/cy_syslib.h **** * \addtogroup group_syslib_enumerated_types
 229:Generated_Source\PSoC6\pdl\drivers/peripheral/syslib/cy_syslib.h **** * \{
 230:Generated_Source\PSoC6\pdl\drivers/peripheral/syslib/cy_syslib.h **** */
 231:Generated_Source\PSoC6\pdl\drivers/peripheral/syslib/cy_syslib.h **** 
 232:Generated_Source\PSoC6\pdl\drivers/peripheral/syslib/cy_syslib.h **** /** The SysLib status code structure. */
 233:Generated_Source\PSoC6\pdl\drivers/peripheral/syslib/cy_syslib.h **** typedef enum
 234:Generated_Source\PSoC6\pdl\drivers/peripheral/syslib/cy_syslib.h **** {
 235:Generated_Source\PSoC6\pdl\drivers/peripheral/syslib/cy_syslib.h ****     CY_SYSLIB_SUCCESS       = 0x00UL,    /**< The success status code */
 236:Generated_Source\PSoC6\pdl\drivers/peripheral/syslib/cy_syslib.h ****     CY_SYSLIB_BAD_PARAM     = CY_SYSLIB_ID | CY_PDL_STATUS_ERROR | 0x01UL,    /**< The bad paramete
 237:Generated_Source\PSoC6\pdl\drivers/peripheral/syslib/cy_syslib.h ****     CY_SYSLIB_TIMEOUT       = CY_SYSLIB_ID | CY_PDL_STATUS_ERROR | 0x02UL,    /**< The time out sta
ARM GAS  C:\Users\cypress\AppData\Local\Temp\ccIrd8u1.s 			page 21


 238:Generated_Source\PSoC6\pdl\drivers/peripheral/syslib/cy_syslib.h ****     CY_SYSLIB_INVALID_STATE = CY_SYSLIB_ID | CY_PDL_STATUS_ERROR | 0x03UL,    /**< The invalid stat
 239:Generated_Source\PSoC6\pdl\drivers/peripheral/syslib/cy_syslib.h ****     CY_SYSLIB_UNKNOWN       = CY_SYSLIB_ID | CY_PDL_STATUS_ERROR | 0xFFUL     /**< Unknown status c
 240:Generated_Source\PSoC6\pdl\drivers/peripheral/syslib/cy_syslib.h **** } cy_en_syslib_status_t;
 241:Generated_Source\PSoC6\pdl\drivers/peripheral/syslib/cy_syslib.h **** 
 242:Generated_Source\PSoC6\pdl\drivers/peripheral/syslib/cy_syslib.h **** /** \} group_syslib_enumerated_types */
 243:Generated_Source\PSoC6\pdl\drivers/peripheral/syslib/cy_syslib.h **** /**
 244:Generated_Source\PSoC6\pdl\drivers/peripheral/syslib/cy_syslib.h **** * \addtogroup group_syslib_data_structures
 245:Generated_Source\PSoC6\pdl\drivers/peripheral/syslib/cy_syslib.h **** * \{
 246:Generated_Source\PSoC6\pdl\drivers/peripheral/syslib/cy_syslib.h **** */
 247:Generated_Source\PSoC6\pdl\drivers/peripheral/syslib/cy_syslib.h **** 
 248:Generated_Source\PSoC6\pdl\drivers/peripheral/syslib/cy_syslib.h **** #if (CY_ARM_FAULT_DEBUG == CY_ARM_FAULT_DEBUG_ENABLED)
 249:Generated_Source\PSoC6\pdl\drivers/peripheral/syslib/cy_syslib.h ****     #if (CY_CPU_CORTEX_M4)
 250:Generated_Source\PSoC6\pdl\drivers/peripheral/syslib/cy_syslib.h ****         /** Configurable Fault Status Register - CFSR */
 251:Generated_Source\PSoC6\pdl\drivers/peripheral/syslib/cy_syslib.h ****         typedef struct
 252:Generated_Source\PSoC6\pdl\drivers/peripheral/syslib/cy_syslib.h ****         {
 253:Generated_Source\PSoC6\pdl\drivers/peripheral/syslib/cy_syslib.h ****             /** MemManage Fault Status Sub-register - MMFSR */
 254:Generated_Source\PSoC6\pdl\drivers/peripheral/syslib/cy_syslib.h ****             uint32_t iaccViol    : 1;  /**< MemManage Fault - The instruction access violation flag
 255:Generated_Source\PSoC6\pdl\drivers/peripheral/syslib/cy_syslib.h ****             uint32_t daccViol    : 1;  /**< MemManage Fault - The data access violation flag */
 256:Generated_Source\PSoC6\pdl\drivers/peripheral/syslib/cy_syslib.h ****             uint32_t reserved1   : 1;  /**< Reserved */
 257:Generated_Source\PSoC6\pdl\drivers/peripheral/syslib/cy_syslib.h ****             uint32_t mUnstkErr   : 1;  /**< MemManage Fault - Unstacking for a return from exceptio
 258:Generated_Source\PSoC6\pdl\drivers/peripheral/syslib/cy_syslib.h ****             uint32_t mStkErr     : 1;  /**< MemManage Fault - MemManage fault on stacking for excep
 259:Generated_Source\PSoC6\pdl\drivers/peripheral/syslib/cy_syslib.h ****             uint32_t mlspErr     : 1;  /**< MemManage Fault - MemManage fault occurred during float
 260:Generated_Source\PSoC6\pdl\drivers/peripheral/syslib/cy_syslib.h ****             uint32_t reserved2   : 1;  /**< Reserved */
 261:Generated_Source\PSoC6\pdl\drivers/peripheral/syslib/cy_syslib.h ****             uint32_t mmarValid   : 1;  /**< MemManage Fault - The MemManage Address register valid 
 262:Generated_Source\PSoC6\pdl\drivers/peripheral/syslib/cy_syslib.h ****             /** Bus Fault Status Sub-register - UFSR */
 263:Generated_Source\PSoC6\pdl\drivers/peripheral/syslib/cy_syslib.h ****             uint32_t iBusErr     : 1;  /**< Bus Fault - The instruction bus error */
 264:Generated_Source\PSoC6\pdl\drivers/peripheral/syslib/cy_syslib.h ****             uint32_t precisErr   : 1;  /**< Bus Fault - The precise Data bus error */
 265:Generated_Source\PSoC6\pdl\drivers/peripheral/syslib/cy_syslib.h ****             uint32_t imprecisErr : 1;  /**< Bus Fault - The imprecise data bus error */
 266:Generated_Source\PSoC6\pdl\drivers/peripheral/syslib/cy_syslib.h ****             uint32_t unstkErr    : 1;  /**< Bus Fault - Unstacking for an exception return has caus
 267:Generated_Source\PSoC6\pdl\drivers/peripheral/syslib/cy_syslib.h ****             uint32_t stkErr      : 1;  /**< Bus Fault - Stacking for an exception entry has caused 
 268:Generated_Source\PSoC6\pdl\drivers/peripheral/syslib/cy_syslib.h ****             uint32_t lspErr      : 1;  /**< Bus Fault - A bus fault occurred during the floating-po
 269:Generated_Source\PSoC6\pdl\drivers/peripheral/syslib/cy_syslib.h ****             uint32_t reserved3   : 1;  /**< Reserved */
 270:Generated_Source\PSoC6\pdl\drivers/peripheral/syslib/cy_syslib.h ****             uint32_t bfarValid   : 1;  /**< Bus Fault - The bus fault address register valid flag *
 271:Generated_Source\PSoC6\pdl\drivers/peripheral/syslib/cy_syslib.h ****             /** Usage Fault Status Sub-register - UFSR */
 272:Generated_Source\PSoC6\pdl\drivers/peripheral/syslib/cy_syslib.h ****             uint32_t undefInstr  : 1;  /**< Usage Fault - An undefined instruction */
 273:Generated_Source\PSoC6\pdl\drivers/peripheral/syslib/cy_syslib.h ****             uint32_t invState    : 1;  /**< Usage Fault - The invalid state */
 274:Generated_Source\PSoC6\pdl\drivers/peripheral/syslib/cy_syslib.h ****             uint32_t invPC       : 1;  /**< Usage Fault - An invalid PC */
 275:Generated_Source\PSoC6\pdl\drivers/peripheral/syslib/cy_syslib.h ****             uint32_t noCP        : 1;  /**< Usage Fault - No coprocessor */
 276:Generated_Source\PSoC6\pdl\drivers/peripheral/syslib/cy_syslib.h ****             uint32_t reserved4   : 4;  /**< Reserved */
 277:Generated_Source\PSoC6\pdl\drivers/peripheral/syslib/cy_syslib.h ****             uint32_t unaligned   : 1;  /**< Usage Fault - Unaligned access */
 278:Generated_Source\PSoC6\pdl\drivers/peripheral/syslib/cy_syslib.h ****             uint32_t divByZero   : 1;  /**< Usage Fault - Divide by zero */
 279:Generated_Source\PSoC6\pdl\drivers/peripheral/syslib/cy_syslib.h ****             uint32_t reserved5   : 6;  /**< Reserved */
 280:Generated_Source\PSoC6\pdl\drivers/peripheral/syslib/cy_syslib.h ****         } cy_stc_fault_cfsr_t;
 281:Generated_Source\PSoC6\pdl\drivers/peripheral/syslib/cy_syslib.h **** 
 282:Generated_Source\PSoC6\pdl\drivers/peripheral/syslib/cy_syslib.h ****         /** Hard Fault Status Register - HFSR */
 283:Generated_Source\PSoC6\pdl\drivers/peripheral/syslib/cy_syslib.h ****         typedef struct
 284:Generated_Source\PSoC6\pdl\drivers/peripheral/syslib/cy_syslib.h ****         {
 285:Generated_Source\PSoC6\pdl\drivers/peripheral/syslib/cy_syslib.h ****             uint32_t reserved1   :  1;   /**< Reserved. */
 286:Generated_Source\PSoC6\pdl\drivers/peripheral/syslib/cy_syslib.h ****             uint32_t vectTbl     :  1;   /**< HFSR - Indicates a bus fault on a vector table read d
 287:Generated_Source\PSoC6\pdl\drivers/peripheral/syslib/cy_syslib.h ****             uint32_t reserved2   : 28;   /**< Reserved. */
 288:Generated_Source\PSoC6\pdl\drivers/peripheral/syslib/cy_syslib.h ****             uint32_t forced      :  1;   /**< HFSR - Indicates a forced hard fault */
 289:Generated_Source\PSoC6\pdl\drivers/peripheral/syslib/cy_syslib.h ****             uint32_t debugEvt    :  1;   /**< HFSR - Reserved for the debug use.  */
 290:Generated_Source\PSoC6\pdl\drivers/peripheral/syslib/cy_syslib.h ****         } cy_stc_fault_hfsr_t;
 291:Generated_Source\PSoC6\pdl\drivers/peripheral/syslib/cy_syslib.h **** 
 292:Generated_Source\PSoC6\pdl\drivers/peripheral/syslib/cy_syslib.h ****         /** System Handler Control and State Register - SHCSR */
 293:Generated_Source\PSoC6\pdl\drivers/peripheral/syslib/cy_syslib.h ****         typedef struct
 294:Generated_Source\PSoC6\pdl\drivers/peripheral/syslib/cy_syslib.h ****         {
ARM GAS  C:\Users\cypress\AppData\Local\Temp\ccIrd8u1.s 			page 22


 295:Generated_Source\PSoC6\pdl\drivers/peripheral/syslib/cy_syslib.h ****             uint32_t memFaultAct    :  1;   /**< SHCSR - The MemManage exception active bit, reads 
 296:Generated_Source\PSoC6\pdl\drivers/peripheral/syslib/cy_syslib.h ****             uint32_t busFaultAct    :  1;   /**< SHCSR - The BusFault exception active bit, reads a
 297:Generated_Source\PSoC6\pdl\drivers/peripheral/syslib/cy_syslib.h ****             uint32_t reserved1      :  1;   /**< Reserved. */
 298:Generated_Source\PSoC6\pdl\drivers/peripheral/syslib/cy_syslib.h ****             uint32_t usgFaultAct    :  1;   /**< SHCSR - The UsageFault exception active bit, reads
 299:Generated_Source\PSoC6\pdl\drivers/peripheral/syslib/cy_syslib.h ****             uint32_t reserved2      :  3;   /**< Reserved. */
 300:Generated_Source\PSoC6\pdl\drivers/peripheral/syslib/cy_syslib.h ****             uint32_t svCallAct      :  1;   /**< SHCSR - The SVCall active bit, reads as 1 if the S
 301:Generated_Source\PSoC6\pdl\drivers/peripheral/syslib/cy_syslib.h ****             uint32_t monitorAct     :  1;   /**< SHCSR - The debug monitor active bit, reads as 1 i
 302:Generated_Source\PSoC6\pdl\drivers/peripheral/syslib/cy_syslib.h ****             uint32_t reserved3      :  1;   /**< Reserved. */
 303:Generated_Source\PSoC6\pdl\drivers/peripheral/syslib/cy_syslib.h ****             uint32_t pendSVAct      :  1;   /**< SHCSR - The PendSV exception active bit, reads as 
 304:Generated_Source\PSoC6\pdl\drivers/peripheral/syslib/cy_syslib.h ****             uint32_t sysTickAct     :  1;   /**< SHCSR - The SysTick exception active bit, reads as
 305:Generated_Source\PSoC6\pdl\drivers/peripheral/syslib/cy_syslib.h ****             uint32_t usgFaultPended :  1;   /**< SHCSR - The UsageFault exception pending bit, read
 306:Generated_Source\PSoC6\pdl\drivers/peripheral/syslib/cy_syslib.h ****             uint32_t memFaultPended :  1;   /**< SHCSR - The MemManage exception pending bit, reads
 307:Generated_Source\PSoC6\pdl\drivers/peripheral/syslib/cy_syslib.h ****             uint32_t busFaultPended :  1;   /**< SHCSR - The BusFault exception pending bit, reads 
 308:Generated_Source\PSoC6\pdl\drivers/peripheral/syslib/cy_syslib.h ****             uint32_t svCallPended   :  1;   /**< SHCSR - The SVCall pending bit, reads as 1 if the 
 309:Generated_Source\PSoC6\pdl\drivers/peripheral/syslib/cy_syslib.h ****             uint32_t memFaultEna    :  1;   /**< SHCSR - The MemManage enable bit, set to 1 to enab
 310:Generated_Source\PSoC6\pdl\drivers/peripheral/syslib/cy_syslib.h ****             uint32_t busFaultEna    :  1;   /**< SHCSR - The BusFault enable bit, set to 1 to enabl
 311:Generated_Source\PSoC6\pdl\drivers/peripheral/syslib/cy_syslib.h ****             uint32_t usgFaultEna    :  1;   /**< SHCSR - The UsageFault enable bit, set to 1 to ena
 312:Generated_Source\PSoC6\pdl\drivers/peripheral/syslib/cy_syslib.h ****             uint32_t reserved4      : 13;   /**< Reserved */
 313:Generated_Source\PSoC6\pdl\drivers/peripheral/syslib/cy_syslib.h ****         } cy_stc_fault_shcsr_t;
 314:Generated_Source\PSoC6\pdl\drivers/peripheral/syslib/cy_syslib.h ****     #endif /* CY_CPU_CORTEX_M4 */
 315:Generated_Source\PSoC6\pdl\drivers/peripheral/syslib/cy_syslib.h **** 
 316:Generated_Source\PSoC6\pdl\drivers/peripheral/syslib/cy_syslib.h ****     /** The fault configuration structure. */
 317:Generated_Source\PSoC6\pdl\drivers/peripheral/syslib/cy_syslib.h ****     typedef struct
 318:Generated_Source\PSoC6\pdl\drivers/peripheral/syslib/cy_syslib.h ****     {
 319:Generated_Source\PSoC6\pdl\drivers/peripheral/syslib/cy_syslib.h ****         uint32_t r0;       /**< R0 register content */
 320:Generated_Source\PSoC6\pdl\drivers/peripheral/syslib/cy_syslib.h ****         uint32_t r1;       /**< R1 register content */
 321:Generated_Source\PSoC6\pdl\drivers/peripheral/syslib/cy_syslib.h ****         uint32_t r2;       /**< R2 register content */
 322:Generated_Source\PSoC6\pdl\drivers/peripheral/syslib/cy_syslib.h ****         uint32_t r3;       /**< R3 register content */
 323:Generated_Source\PSoC6\pdl\drivers/peripheral/syslib/cy_syslib.h ****         uint32_t r12;      /**< R12 register content */
 324:Generated_Source\PSoC6\pdl\drivers/peripheral/syslib/cy_syslib.h ****         uint32_t lr;       /**< LR register content */
 325:Generated_Source\PSoC6\pdl\drivers/peripheral/syslib/cy_syslib.h ****         uint32_t pc;       /**< PC register content */
 326:Generated_Source\PSoC6\pdl\drivers/peripheral/syslib/cy_syslib.h ****         uint32_t psr;      /**< PSR register content */
 327:Generated_Source\PSoC6\pdl\drivers/peripheral/syslib/cy_syslib.h ****         #if (CY_CPU_CORTEX_M4)
 328:Generated_Source\PSoC6\pdl\drivers/peripheral/syslib/cy_syslib.h ****             union
 329:Generated_Source\PSoC6\pdl\drivers/peripheral/syslib/cy_syslib.h ****             {
 330:Generated_Source\PSoC6\pdl\drivers/peripheral/syslib/cy_syslib.h ****                 uint32_t cfsrReg;              /**< CFSR register content as a word */
 331:Generated_Source\PSoC6\pdl\drivers/peripheral/syslib/cy_syslib.h ****                 cy_stc_fault_cfsr_t cfsrBits;  /**< CFSR register content as a structure */
 332:Generated_Source\PSoC6\pdl\drivers/peripheral/syslib/cy_syslib.h ****             } cfsr;
 333:Generated_Source\PSoC6\pdl\drivers/peripheral/syslib/cy_syslib.h ****             union
 334:Generated_Source\PSoC6\pdl\drivers/peripheral/syslib/cy_syslib.h ****             {
 335:Generated_Source\PSoC6\pdl\drivers/peripheral/syslib/cy_syslib.h ****                 uint32_t hfsrReg;              /**< HFSR register content as a word */
 336:Generated_Source\PSoC6\pdl\drivers/peripheral/syslib/cy_syslib.h ****                 cy_stc_fault_hfsr_t hfsrBits;  /**< HFSR register content as a structure */
 337:Generated_Source\PSoC6\pdl\drivers/peripheral/syslib/cy_syslib.h ****             } hfsr;
 338:Generated_Source\PSoC6\pdl\drivers/peripheral/syslib/cy_syslib.h ****             union
 339:Generated_Source\PSoC6\pdl\drivers/peripheral/syslib/cy_syslib.h ****             {
 340:Generated_Source\PSoC6\pdl\drivers/peripheral/syslib/cy_syslib.h ****                 uint32_t shcsrReg;              /**< SHCSR register content as a word */
 341:Generated_Source\PSoC6\pdl\drivers/peripheral/syslib/cy_syslib.h ****                 cy_stc_fault_shcsr_t shcsrBits; /**< SHCSR register content as a structure */
 342:Generated_Source\PSoC6\pdl\drivers/peripheral/syslib/cy_syslib.h ****             } shcsr;
 343:Generated_Source\PSoC6\pdl\drivers/peripheral/syslib/cy_syslib.h ****             uint32_t mmfar;                /**< MMFAR register content */
 344:Generated_Source\PSoC6\pdl\drivers/peripheral/syslib/cy_syslib.h ****             uint32_t bfar;                 /**< BFAR register content */
 345:Generated_Source\PSoC6\pdl\drivers/peripheral/syslib/cy_syslib.h ****             #if ((defined (__FPU_PRESENT) && (__FPU_PRESENT == 1U)) && \
 346:Generated_Source\PSoC6\pdl\drivers/peripheral/syslib/cy_syslib.h ****                  (defined (__FPU_USED   ) && (__FPU_USED    == 1U)))
 347:Generated_Source\PSoC6\pdl\drivers/peripheral/syslib/cy_syslib.h ****                 uint32_t s0;       /**< FPU S0 register content */
 348:Generated_Source\PSoC6\pdl\drivers/peripheral/syslib/cy_syslib.h ****                 uint32_t s1;       /**< FPU S1 register content */
 349:Generated_Source\PSoC6\pdl\drivers/peripheral/syslib/cy_syslib.h ****                 uint32_t s2;       /**< FPU S2 register content */
 350:Generated_Source\PSoC6\pdl\drivers/peripheral/syslib/cy_syslib.h ****                 uint32_t s3;       /**< FPU S3 register content */
 351:Generated_Source\PSoC6\pdl\drivers/peripheral/syslib/cy_syslib.h ****                 uint32_t s4;       /**< FPU S4 register content */
ARM GAS  C:\Users\cypress\AppData\Local\Temp\ccIrd8u1.s 			page 23


 352:Generated_Source\PSoC6\pdl\drivers/peripheral/syslib/cy_syslib.h ****                 uint32_t s5;       /**< FPU S5 register content */
 353:Generated_Source\PSoC6\pdl\drivers/peripheral/syslib/cy_syslib.h ****                 uint32_t s6;       /**< FPU S6 register content */
 354:Generated_Source\PSoC6\pdl\drivers/peripheral/syslib/cy_syslib.h ****                 uint32_t s7;       /**< FPU S7 register content */
 355:Generated_Source\PSoC6\pdl\drivers/peripheral/syslib/cy_syslib.h ****                 uint32_t s8;       /**< FPU S8 register content */
 356:Generated_Source\PSoC6\pdl\drivers/peripheral/syslib/cy_syslib.h ****                 uint32_t s9;       /**< FPU S9 register content */
 357:Generated_Source\PSoC6\pdl\drivers/peripheral/syslib/cy_syslib.h ****                 uint32_t s10;      /**< FPU S10 register content */
 358:Generated_Source\PSoC6\pdl\drivers/peripheral/syslib/cy_syslib.h ****                 uint32_t s11;      /**< FPU S11 register content */
 359:Generated_Source\PSoC6\pdl\drivers/peripheral/syslib/cy_syslib.h ****                 uint32_t s12;      /**< FPU S12 register content */
 360:Generated_Source\PSoC6\pdl\drivers/peripheral/syslib/cy_syslib.h ****                 uint32_t s13;      /**< FPU S13 register content */
 361:Generated_Source\PSoC6\pdl\drivers/peripheral/syslib/cy_syslib.h ****                 uint32_t s14;      /**< FPU S14 register content */
 362:Generated_Source\PSoC6\pdl\drivers/peripheral/syslib/cy_syslib.h ****                 uint32_t s15;      /**< FPU S15 register content */
 363:Generated_Source\PSoC6\pdl\drivers/peripheral/syslib/cy_syslib.h ****                 uint32_t fpscr;    /**< FPU FPSCR register content */
 364:Generated_Source\PSoC6\pdl\drivers/peripheral/syslib/cy_syslib.h ****             #endif /* __FPU_PRESENT */
 365:Generated_Source\PSoC6\pdl\drivers/peripheral/syslib/cy_syslib.h ****         #endif /* CY_CPU_CORTEX_M4 */
 366:Generated_Source\PSoC6\pdl\drivers/peripheral/syslib/cy_syslib.h ****     } cy_stc_fault_frame_t;
 367:Generated_Source\PSoC6\pdl\drivers/peripheral/syslib/cy_syslib.h **** #endif /* (CY_ARM_FAULT_DEBUG == CY_ARM_FAULT_DEBUG_ENABLED) */
 368:Generated_Source\PSoC6\pdl\drivers/peripheral/syslib/cy_syslib.h **** 
 369:Generated_Source\PSoC6\pdl\drivers/peripheral/syslib/cy_syslib.h **** /** \} group_syslib_data_structures */
 370:Generated_Source\PSoC6\pdl\drivers/peripheral/syslib/cy_syslib.h **** 
 371:Generated_Source\PSoC6\pdl\drivers/peripheral/syslib/cy_syslib.h **** /**
 372:Generated_Source\PSoC6\pdl\drivers/peripheral/syslib/cy_syslib.h **** * \addtogroup group_syslib_macros
 373:Generated_Source\PSoC6\pdl\drivers/peripheral/syslib/cy_syslib.h **** * \{
 374:Generated_Source\PSoC6\pdl\drivers/peripheral/syslib/cy_syslib.h **** */
 375:Generated_Source\PSoC6\pdl\drivers/peripheral/syslib/cy_syslib.h **** 
 376:Generated_Source\PSoC6\pdl\drivers/peripheral/syslib/cy_syslib.h **** /** The driver major version */
 377:Generated_Source\PSoC6\pdl\drivers/peripheral/syslib/cy_syslib.h **** #define CY_SYSLIB_DRV_VERSION_MAJOR    2
 378:Generated_Source\PSoC6\pdl\drivers/peripheral/syslib/cy_syslib.h **** 
 379:Generated_Source\PSoC6\pdl\drivers/peripheral/syslib/cy_syslib.h **** /** The driver minor version */
 380:Generated_Source\PSoC6\pdl\drivers/peripheral/syslib/cy_syslib.h **** #define CY_SYSLIB_DRV_VERSION_MINOR    0
 381:Generated_Source\PSoC6\pdl\drivers/peripheral/syslib/cy_syslib.h **** 
 382:Generated_Source\PSoC6\pdl\drivers/peripheral/syslib/cy_syslib.h **** 
 383:Generated_Source\PSoC6\pdl\drivers/peripheral/syslib/cy_syslib.h **** /*******************************************************************************
 384:Generated_Source\PSoC6\pdl\drivers/peripheral/syslib/cy_syslib.h **** *  Data manipulation defines
 385:Generated_Source\PSoC6\pdl\drivers/peripheral/syslib/cy_syslib.h **** *******************************************************************************/
 386:Generated_Source\PSoC6\pdl\drivers/peripheral/syslib/cy_syslib.h **** 
 387:Generated_Source\PSoC6\pdl\drivers/peripheral/syslib/cy_syslib.h **** /** Get the lower 8 bits of a 16-bit value. */
 388:Generated_Source\PSoC6\pdl\drivers/peripheral/syslib/cy_syslib.h **** #define CY_LO8(x)               ((uint8_t) ((x) & 0xFFU))
 389:Generated_Source\PSoC6\pdl\drivers/peripheral/syslib/cy_syslib.h **** /** Get the upper 8 bits of a 16-bit value. */
 390:Generated_Source\PSoC6\pdl\drivers/peripheral/syslib/cy_syslib.h **** #define CY_HI8(x)               ((uint8_t) ((uint16_t)(x) >> 8U))
 391:Generated_Source\PSoC6\pdl\drivers/peripheral/syslib/cy_syslib.h **** 
 392:Generated_Source\PSoC6\pdl\drivers/peripheral/syslib/cy_syslib.h **** /** Get the lower 16 bits of a 32-bit value. */
 393:Generated_Source\PSoC6\pdl\drivers/peripheral/syslib/cy_syslib.h **** #define CY_LO16(x)              ((uint16_t) ((x) & 0xFFFFU))
 394:Generated_Source\PSoC6\pdl\drivers/peripheral/syslib/cy_syslib.h **** /** Get the upper 16 bits of a 32-bit value. */
 395:Generated_Source\PSoC6\pdl\drivers/peripheral/syslib/cy_syslib.h **** #define CY_HI16(x)              ((uint16_t) ((uint32_t)(x) >> 16U))
 396:Generated_Source\PSoC6\pdl\drivers/peripheral/syslib/cy_syslib.h **** 
 397:Generated_Source\PSoC6\pdl\drivers/peripheral/syslib/cy_syslib.h **** /** Swap the byte ordering of a 16-bit value */
 398:Generated_Source\PSoC6\pdl\drivers/peripheral/syslib/cy_syslib.h **** #define CY_SWAP_ENDIAN16(x)     ((uint16_t)(((x) << 8U) | (((x) >> 8U) & 0x00FFU)))
 399:Generated_Source\PSoC6\pdl\drivers/peripheral/syslib/cy_syslib.h **** 
 400:Generated_Source\PSoC6\pdl\drivers/peripheral/syslib/cy_syslib.h **** /** Swap the byte ordering of a 32-bit value */
 401:Generated_Source\PSoC6\pdl\drivers/peripheral/syslib/cy_syslib.h **** #define CY_SWAP_ENDIAN32(x)     ((uint32_t)((((x) >> 24U) & 0x000000FFU) | (((x) & 0x00FF0000U) >> 
 402:Generated_Source\PSoC6\pdl\drivers/peripheral/syslib/cy_syslib.h ****                                 (((x) & 0x0000FF00U) << 8U) | ((x) << 24U)))
 403:Generated_Source\PSoC6\pdl\drivers/peripheral/syslib/cy_syslib.h **** 
 404:Generated_Source\PSoC6\pdl\drivers/peripheral/syslib/cy_syslib.h **** /** Swap the byte ordering of a 64-bit value */
 405:Generated_Source\PSoC6\pdl\drivers/peripheral/syslib/cy_syslib.h **** #define CY_SWAP_ENDIAN64(x)     ((uint64_t) (((uint64_t) CY_SWAP_ENDIAN32((uint32_t)(x)) << 32U) | 
 406:Generated_Source\PSoC6\pdl\drivers/peripheral/syslib/cy_syslib.h ****                                 CY_SWAP_ENDIAN32((uint32_t)((x) >> 32U))))
 407:Generated_Source\PSoC6\pdl\drivers/peripheral/syslib/cy_syslib.h **** 
 408:Generated_Source\PSoC6\pdl\drivers/peripheral/syslib/cy_syslib.h **** 
ARM GAS  C:\Users\cypress\AppData\Local\Temp\ccIrd8u1.s 			page 24


 409:Generated_Source\PSoC6\pdl\drivers/peripheral/syslib/cy_syslib.h **** /*******************************************************************************
 410:Generated_Source\PSoC6\pdl\drivers/peripheral/syslib/cy_syslib.h **** *   Memory model definitions
 411:Generated_Source\PSoC6\pdl\drivers/peripheral/syslib/cy_syslib.h **** *******************************************************************************/
 412:Generated_Source\PSoC6\pdl\drivers/peripheral/syslib/cy_syslib.h **** #if defined(__ARMCC_VERSION)
 413:Generated_Source\PSoC6\pdl\drivers/peripheral/syslib/cy_syslib.h ****     /** To create cross compiler compatible code, use the CY_NOINIT, CY_SECTION, CY_UNUSED, CY_ALIG
 414:Generated_Source\PSoC6\pdl\drivers/peripheral/syslib/cy_syslib.h ****      * attributes at the first place of declaration/definition.
 415:Generated_Source\PSoC6\pdl\drivers/peripheral/syslib/cy_syslib.h ****      * For example: CY_NOINIT uint32_t noinitVar;
 416:Generated_Source\PSoC6\pdl\drivers/peripheral/syslib/cy_syslib.h ****      */
 417:Generated_Source\PSoC6\pdl\drivers/peripheral/syslib/cy_syslib.h ****     #define CY_NOINIT           __attribute__ ((section(".noinit"), zero_init))
 418:Generated_Source\PSoC6\pdl\drivers/peripheral/syslib/cy_syslib.h ****     #define CY_SECTION(name)    __attribute__ ((section(name)))
 419:Generated_Source\PSoC6\pdl\drivers/peripheral/syslib/cy_syslib.h ****     #define CY_UNUSED           __attribute__ ((unused))
 420:Generated_Source\PSoC6\pdl\drivers/peripheral/syslib/cy_syslib.h ****     #define CY_NOINLINE         __attribute__ ((noinline))
 421:Generated_Source\PSoC6\pdl\drivers/peripheral/syslib/cy_syslib.h ****     /* Specifies the minimum alignment (in bytes) for variables of the specified type. */
 422:Generated_Source\PSoC6\pdl\drivers/peripheral/syslib/cy_syslib.h ****     #define CY_ALIGN(align)     __ALIGNED(align)
 423:Generated_Source\PSoC6\pdl\drivers/peripheral/syslib/cy_syslib.h **** #elif defined (__GNUC__)
 424:Generated_Source\PSoC6\pdl\drivers/peripheral/syslib/cy_syslib.h ****     #define CY_NOINIT           __attribute__ ((section(".noinit")))
 425:Generated_Source\PSoC6\pdl\drivers/peripheral/syslib/cy_syslib.h ****     #define CY_SECTION(name)    __attribute__ ((section(name)))
 426:Generated_Source\PSoC6\pdl\drivers/peripheral/syslib/cy_syslib.h ****     #define CY_UNUSED           __attribute__ ((unused))
 427:Generated_Source\PSoC6\pdl\drivers/peripheral/syslib/cy_syslib.h ****     #define CY_NOINLINE         __attribute__ ((noinline))
 428:Generated_Source\PSoC6\pdl\drivers/peripheral/syslib/cy_syslib.h ****     #define CY_ALIGN(align)     __ALIGNED(align)
 429:Generated_Source\PSoC6\pdl\drivers/peripheral/syslib/cy_syslib.h **** #elif defined (__ICCARM__)
 430:Generated_Source\PSoC6\pdl\drivers/peripheral/syslib/cy_syslib.h ****     #define CY_PRAGMA(x)        _Pragma(#x)
 431:Generated_Source\PSoC6\pdl\drivers/peripheral/syslib/cy_syslib.h ****     #define CY_NOINIT           __no_init
 432:Generated_Source\PSoC6\pdl\drivers/peripheral/syslib/cy_syslib.h ****     #define CY_SECTION(name)    CY_PRAGMA(location = name)
 433:Generated_Source\PSoC6\pdl\drivers/peripheral/syslib/cy_syslib.h ****     #define CY_UNUSED
 434:Generated_Source\PSoC6\pdl\drivers/peripheral/syslib/cy_syslib.h ****     #define CY_NOINLINE         CY_PRAGMA(optimize = no_inline)
 435:Generated_Source\PSoC6\pdl\drivers/peripheral/syslib/cy_syslib.h ****     #if (__VER__ < 8010001)
 436:Generated_Source\PSoC6\pdl\drivers/peripheral/syslib/cy_syslib.h ****         #define CY_ALIGN(align) CY_PRAGMA(data_alignment = align)
 437:Generated_Source\PSoC6\pdl\drivers/peripheral/syslib/cy_syslib.h ****     #else
 438:Generated_Source\PSoC6\pdl\drivers/peripheral/syslib/cy_syslib.h ****         #define CY_ALIGN(align) __ALIGNED(align)
 439:Generated_Source\PSoC6\pdl\drivers/peripheral/syslib/cy_syslib.h ****     #endif /* (__VER__ < 8010001) */
 440:Generated_Source\PSoC6\pdl\drivers/peripheral/syslib/cy_syslib.h **** #else
 441:Generated_Source\PSoC6\pdl\drivers/peripheral/syslib/cy_syslib.h ****     #error "An unsupported toolchain"
 442:Generated_Source\PSoC6\pdl\drivers/peripheral/syslib/cy_syslib.h **** #endif  /* (__ARMCC_VERSION) */
 443:Generated_Source\PSoC6\pdl\drivers/peripheral/syslib/cy_syslib.h **** 
 444:Generated_Source\PSoC6\pdl\drivers/peripheral/syslib/cy_syslib.h **** typedef void (* cy_israddress)(void);   /**< Type of ISR callbacks */
 445:Generated_Source\PSoC6\pdl\drivers/peripheral/syslib/cy_syslib.h **** #if defined (__ICCARM__)
 446:Generated_Source\PSoC6\pdl\drivers/peripheral/syslib/cy_syslib.h ****     typedef union { cy_israddress __fun; void * __ptr; } cy_intvec_elem;
 447:Generated_Source\PSoC6\pdl\drivers/peripheral/syslib/cy_syslib.h **** #endif  /* defined (__ICCARM__) */
 448:Generated_Source\PSoC6\pdl\drivers/peripheral/syslib/cy_syslib.h **** 
 449:Generated_Source\PSoC6\pdl\drivers/peripheral/syslib/cy_syslib.h **** /* MISRA rule 6.3 recommends using specific-length typedef for the basic
 450:Generated_Source\PSoC6\pdl\drivers/peripheral/syslib/cy_syslib.h ****  * numerical types of signed and unsigned variants of char, float, and double.
 451:Generated_Source\PSoC6\pdl\drivers/peripheral/syslib/cy_syslib.h ****  */
 452:Generated_Source\PSoC6\pdl\drivers/peripheral/syslib/cy_syslib.h **** typedef char     char_t;    /**< Specific-length typedef for the basic numerical types of char */
 453:Generated_Source\PSoC6\pdl\drivers/peripheral/syslib/cy_syslib.h **** typedef float    float32_t; /**< Specific-length typedef for the basic numerical types of float */
 454:Generated_Source\PSoC6\pdl\drivers/peripheral/syslib/cy_syslib.h **** typedef double   float64_t; /**< Specific-length typedef for the basic numerical types of double */
 455:Generated_Source\PSoC6\pdl\drivers/peripheral/syslib/cy_syslib.h **** 
 456:Generated_Source\PSoC6\pdl\drivers/peripheral/syslib/cy_syslib.h **** #if !defined(NDEBUG)
 457:Generated_Source\PSoC6\pdl\drivers/peripheral/syslib/cy_syslib.h ****     /** The max size of the file name which stores the ASSERT location */
 458:Generated_Source\PSoC6\pdl\drivers/peripheral/syslib/cy_syslib.h ****     #define CY_MAX_FILE_NAME_SIZE  (24U)
 459:Generated_Source\PSoC6\pdl\drivers/peripheral/syslib/cy_syslib.h ****     extern CY_NOINIT char_t cy_assertFileName[CY_MAX_FILE_NAME_SIZE];  /**< The assert buffer */
 460:Generated_Source\PSoC6\pdl\drivers/peripheral/syslib/cy_syslib.h ****     extern CY_NOINIT uint32_t cy_assertLine;                           /**< The assert line value *
 461:Generated_Source\PSoC6\pdl\drivers/peripheral/syslib/cy_syslib.h **** #endif /* NDEBUG */
 462:Generated_Source\PSoC6\pdl\drivers/peripheral/syslib/cy_syslib.h **** 
 463:Generated_Source\PSoC6\pdl\drivers/peripheral/syslib/cy_syslib.h **** #if (CY_ARM_FAULT_DEBUG == CY_ARM_FAULT_DEBUG_ENABLED)
 464:Generated_Source\PSoC6\pdl\drivers/peripheral/syslib/cy_syslib.h ****     #define CY_R0_Pos             (0U)     /**< The position of the R0  content in a fault structur
 465:Generated_Source\PSoC6\pdl\drivers/peripheral/syslib/cy_syslib.h ****     #define CY_R1_Pos             (1U)     /**< The position of the R1  content in a fault structur
ARM GAS  C:\Users\cypress\AppData\Local\Temp\ccIrd8u1.s 			page 25


 466:Generated_Source\PSoC6\pdl\drivers/peripheral/syslib/cy_syslib.h ****     #define CY_R2_Pos             (2U)     /**< The position of the R2  content in a fault structur
 467:Generated_Source\PSoC6\pdl\drivers/peripheral/syslib/cy_syslib.h ****     #define CY_R3_Pos             (3U)     /**< The position of the R3  content in a fault structur
 468:Generated_Source\PSoC6\pdl\drivers/peripheral/syslib/cy_syslib.h ****     #define CY_R12_Pos            (4U)     /**< The position of the R12 content in a fault structur
 469:Generated_Source\PSoC6\pdl\drivers/peripheral/syslib/cy_syslib.h ****     #define CY_LR_Pos             (5U)     /**< The position of the LR  content in a fault structur
 470:Generated_Source\PSoC6\pdl\drivers/peripheral/syslib/cy_syslib.h ****     #define CY_PC_Pos             (6U)     /**< The position of the PC  content in a fault structur
 471:Generated_Source\PSoC6\pdl\drivers/peripheral/syslib/cy_syslib.h ****     #define CY_PSR_Pos            (7U)     /**< The position of the PSR content in a fault structur
 472:Generated_Source\PSoC6\pdl\drivers/peripheral/syslib/cy_syslib.h ****     #if (CY_CPU_CORTEX_M4) && ((defined (__FPU_PRESENT) && (__FPU_PRESENT == 1U)) && \
 473:Generated_Source\PSoC6\pdl\drivers/peripheral/syslib/cy_syslib.h ****                                (defined (__FPU_USED   ) && (__FPU_USED    == 1U)))
 474:Generated_Source\PSoC6\pdl\drivers/peripheral/syslib/cy_syslib.h ****         #define CY_FPSCR_IXC_Msk  (0x00000010U)    /**< The cumulative exception bit for floating-p
 475:Generated_Source\PSoC6\pdl\drivers/peripheral/syslib/cy_syslib.h ****         #define CY_FPSCR_IDC_Msk  (0x00000080U)    /**< The cumulative exception bit for floating-p
 476:Generated_Source\PSoC6\pdl\drivers/peripheral/syslib/cy_syslib.h ****         #define CY_S0_Pos         (8U)     /**< The position of the FPU S0 content in a fault struc
 477:Generated_Source\PSoC6\pdl\drivers/peripheral/syslib/cy_syslib.h ****         #define CY_S1_Pos         (9U)     /**< The position of the FPU S1 content in a fault struc
 478:Generated_Source\PSoC6\pdl\drivers/peripheral/syslib/cy_syslib.h ****         #define CY_S2_Pos         (10U)    /**< The position of the FPU S2 content in a fault struc
 479:Generated_Source\PSoC6\pdl\drivers/peripheral/syslib/cy_syslib.h ****         #define CY_S3_Pos         (11U)    /**< The position of the FPU S3 content in a fault struc
 480:Generated_Source\PSoC6\pdl\drivers/peripheral/syslib/cy_syslib.h ****         #define CY_S4_Pos         (12U)    /**< The position of the FPU S4 content in a fault struc
 481:Generated_Source\PSoC6\pdl\drivers/peripheral/syslib/cy_syslib.h ****         #define CY_S5_Pos         (13U)    /**< The position of the FPU S5 content in a fault struc
 482:Generated_Source\PSoC6\pdl\drivers/peripheral/syslib/cy_syslib.h ****         #define CY_S6_Pos         (14U)    /**< The position of the FPU S6 content in a fault struc
 483:Generated_Source\PSoC6\pdl\drivers/peripheral/syslib/cy_syslib.h ****         #define CY_S7_Pos         (15U)    /**< The position of the FPU S7 content in a fault struc
 484:Generated_Source\PSoC6\pdl\drivers/peripheral/syslib/cy_syslib.h ****         #define CY_S8_Pos         (16U)    /**< The position of the FPU S8 content in a fault struc
 485:Generated_Source\PSoC6\pdl\drivers/peripheral/syslib/cy_syslib.h ****         #define CY_S9_Pos         (17U)    /**< The position of the FPU S9 content in a fault struc
 486:Generated_Source\PSoC6\pdl\drivers/peripheral/syslib/cy_syslib.h ****         #define CY_S10_Pos        (18U)    /**< The position of the FPU S10 content in a fault stru
 487:Generated_Source\PSoC6\pdl\drivers/peripheral/syslib/cy_syslib.h ****         #define CY_S11_Pos        (19U)    /**< The position of the FPU S11 content in a fault stru
 488:Generated_Source\PSoC6\pdl\drivers/peripheral/syslib/cy_syslib.h ****         #define CY_S12_Pos        (20U)    /**< The position of the FPU S12 content in a fault stru
 489:Generated_Source\PSoC6\pdl\drivers/peripheral/syslib/cy_syslib.h ****         #define CY_S13_Pos        (21U)    /**< The position of the FPU S13 content in a fault stru
 490:Generated_Source\PSoC6\pdl\drivers/peripheral/syslib/cy_syslib.h ****         #define CY_S14_Pos        (22U)    /**< The position of the FPU S14 content in a fault stru
 491:Generated_Source\PSoC6\pdl\drivers/peripheral/syslib/cy_syslib.h ****         #define CY_S15_Pos        (23U)    /**< The position of the FPU S15 content in a fault stru
 492:Generated_Source\PSoC6\pdl\drivers/peripheral/syslib/cy_syslib.h ****         #define CY_FPSCR_Pos      (24U)    /**< The position of the FPU FPSCR content in a fault st
 493:Generated_Source\PSoC6\pdl\drivers/peripheral/syslib/cy_syslib.h ****     #endif /* CY_CPU_CORTEX_M4 && __FPU_PRESENT */
 494:Generated_Source\PSoC6\pdl\drivers/peripheral/syslib/cy_syslib.h **** 
 495:Generated_Source\PSoC6\pdl\drivers/peripheral/syslib/cy_syslib.h ****     extern CY_NOINIT cy_stc_fault_frame_t cy_faultFrame;    /**< Fault frame structure */
 496:Generated_Source\PSoC6\pdl\drivers/peripheral/syslib/cy_syslib.h **** #endif /* (CY_ARM_FAULT_DEBUG == CY_ARM_FAULT_DEBUG_ENABLED) */
 497:Generated_Source\PSoC6\pdl\drivers/peripheral/syslib/cy_syslib.h **** 
 498:Generated_Source\PSoC6\pdl\drivers/peripheral/syslib/cy_syslib.h **** 
 499:Generated_Source\PSoC6\pdl\drivers/peripheral/syslib/cy_syslib.h **** /*******************************************************************************
 500:Generated_Source\PSoC6\pdl\drivers/peripheral/syslib/cy_syslib.h **** * Macro Name: CY_GET_REG8(addr)
 501:Generated_Source\PSoC6\pdl\drivers/peripheral/syslib/cy_syslib.h **** ****************************************************************************//**
 502:Generated_Source\PSoC6\pdl\drivers/peripheral/syslib/cy_syslib.h **** *
 503:Generated_Source\PSoC6\pdl\drivers/peripheral/syslib/cy_syslib.h **** * Reads the 8-bit value from the specified address. This function can't be
 504:Generated_Source\PSoC6\pdl\drivers/peripheral/syslib/cy_syslib.h **** * used to access the Core register, otherwise a fault occurs.
 505:Generated_Source\PSoC6\pdl\drivers/peripheral/syslib/cy_syslib.h **** *
 506:Generated_Source\PSoC6\pdl\drivers/peripheral/syslib/cy_syslib.h **** * \param addr  The register address.
 507:Generated_Source\PSoC6\pdl\drivers/peripheral/syslib/cy_syslib.h **** *
 508:Generated_Source\PSoC6\pdl\drivers/peripheral/syslib/cy_syslib.h **** * \return The read value.
 509:Generated_Source\PSoC6\pdl\drivers/peripheral/syslib/cy_syslib.h **** *
 510:Generated_Source\PSoC6\pdl\drivers/peripheral/syslib/cy_syslib.h **** *******************************************************************************/
 511:Generated_Source\PSoC6\pdl\drivers/peripheral/syslib/cy_syslib.h **** #define CY_GET_REG8(addr)           (*((const volatile uint8_t *)(addr)))
 512:Generated_Source\PSoC6\pdl\drivers/peripheral/syslib/cy_syslib.h **** 
 513:Generated_Source\PSoC6\pdl\drivers/peripheral/syslib/cy_syslib.h **** 
 514:Generated_Source\PSoC6\pdl\drivers/peripheral/syslib/cy_syslib.h **** /*******************************************************************************
 515:Generated_Source\PSoC6\pdl\drivers/peripheral/syslib/cy_syslib.h **** * Macro Name: CY_SET_REG8(addr, value)
 516:Generated_Source\PSoC6\pdl\drivers/peripheral/syslib/cy_syslib.h **** ****************************************************************************//**
 517:Generated_Source\PSoC6\pdl\drivers/peripheral/syslib/cy_syslib.h **** *
 518:Generated_Source\PSoC6\pdl\drivers/peripheral/syslib/cy_syslib.h **** * Writes an 8-bit value to the specified address. This function can't be
 519:Generated_Source\PSoC6\pdl\drivers/peripheral/syslib/cy_syslib.h **** * used to access the Core register, otherwise a fault occurs.
 520:Generated_Source\PSoC6\pdl\drivers/peripheral/syslib/cy_syslib.h **** *
 521:Generated_Source\PSoC6\pdl\drivers/peripheral/syslib/cy_syslib.h **** * \param addr  The register address.
 522:Generated_Source\PSoC6\pdl\drivers/peripheral/syslib/cy_syslib.h **** *
ARM GAS  C:\Users\cypress\AppData\Local\Temp\ccIrd8u1.s 			page 26


 523:Generated_Source\PSoC6\pdl\drivers/peripheral/syslib/cy_syslib.h **** * \param value The value to write.
 524:Generated_Source\PSoC6\pdl\drivers/peripheral/syslib/cy_syslib.h **** *
 525:Generated_Source\PSoC6\pdl\drivers/peripheral/syslib/cy_syslib.h **** *******************************************************************************/
 526:Generated_Source\PSoC6\pdl\drivers/peripheral/syslib/cy_syslib.h **** #define CY_SET_REG8(addr, value)    (*((volatile uint8_t *)(addr)) = (uint8_t)(value))
 527:Generated_Source\PSoC6\pdl\drivers/peripheral/syslib/cy_syslib.h **** 
 528:Generated_Source\PSoC6\pdl\drivers/peripheral/syslib/cy_syslib.h **** 
 529:Generated_Source\PSoC6\pdl\drivers/peripheral/syslib/cy_syslib.h **** /*******************************************************************************
 530:Generated_Source\PSoC6\pdl\drivers/peripheral/syslib/cy_syslib.h **** * Macro Name: CY_GET_REG16(addr)
 531:Generated_Source\PSoC6\pdl\drivers/peripheral/syslib/cy_syslib.h **** ****************************************************************************//**
 532:Generated_Source\PSoC6\pdl\drivers/peripheral/syslib/cy_syslib.h **** *
 533:Generated_Source\PSoC6\pdl\drivers/peripheral/syslib/cy_syslib.h **** * Reads the 16-bit value from the specified address.
 534:Generated_Source\PSoC6\pdl\drivers/peripheral/syslib/cy_syslib.h **** *
 535:Generated_Source\PSoC6\pdl\drivers/peripheral/syslib/cy_syslib.h **** * \param addr  The register address.
 536:Generated_Source\PSoC6\pdl\drivers/peripheral/syslib/cy_syslib.h **** *
 537:Generated_Source\PSoC6\pdl\drivers/peripheral/syslib/cy_syslib.h **** * \return The read value.
 538:Generated_Source\PSoC6\pdl\drivers/peripheral/syslib/cy_syslib.h **** *
 539:Generated_Source\PSoC6\pdl\drivers/peripheral/syslib/cy_syslib.h **** *******************************************************************************/
 540:Generated_Source\PSoC6\pdl\drivers/peripheral/syslib/cy_syslib.h **** #define CY_GET_REG16(addr)          (*((const volatile uint16_t *)(addr)))
 541:Generated_Source\PSoC6\pdl\drivers/peripheral/syslib/cy_syslib.h **** 
 542:Generated_Source\PSoC6\pdl\drivers/peripheral/syslib/cy_syslib.h **** 
 543:Generated_Source\PSoC6\pdl\drivers/peripheral/syslib/cy_syslib.h **** /*******************************************************************************
 544:Generated_Source\PSoC6\pdl\drivers/peripheral/syslib/cy_syslib.h **** * Macro Name: CY_SET_REG16(addr, value)
 545:Generated_Source\PSoC6\pdl\drivers/peripheral/syslib/cy_syslib.h **** ****************************************************************************//**
 546:Generated_Source\PSoC6\pdl\drivers/peripheral/syslib/cy_syslib.h **** *
 547:Generated_Source\PSoC6\pdl\drivers/peripheral/syslib/cy_syslib.h **** * Writes the 16-bit value to the specified address.
 548:Generated_Source\PSoC6\pdl\drivers/peripheral/syslib/cy_syslib.h **** *
 549:Generated_Source\PSoC6\pdl\drivers/peripheral/syslib/cy_syslib.h **** * \param addr  The register address.
 550:Generated_Source\PSoC6\pdl\drivers/peripheral/syslib/cy_syslib.h **** *
 551:Generated_Source\PSoC6\pdl\drivers/peripheral/syslib/cy_syslib.h **** * \param value The value to write.
 552:Generated_Source\PSoC6\pdl\drivers/peripheral/syslib/cy_syslib.h **** *
 553:Generated_Source\PSoC6\pdl\drivers/peripheral/syslib/cy_syslib.h **** *******************************************************************************/
 554:Generated_Source\PSoC6\pdl\drivers/peripheral/syslib/cy_syslib.h **** #define CY_SET_REG16(addr, value)   (*((volatile uint16_t *)(addr)) = (uint16_t)(value))
 555:Generated_Source\PSoC6\pdl\drivers/peripheral/syslib/cy_syslib.h **** 
 556:Generated_Source\PSoC6\pdl\drivers/peripheral/syslib/cy_syslib.h **** 
 557:Generated_Source\PSoC6\pdl\drivers/peripheral/syslib/cy_syslib.h **** /*******************************************************************************
 558:Generated_Source\PSoC6\pdl\drivers/peripheral/syslib/cy_syslib.h **** * Macro Name: CY_GET_REG24(addr)
 559:Generated_Source\PSoC6\pdl\drivers/peripheral/syslib/cy_syslib.h **** ****************************************************************************//**
 560:Generated_Source\PSoC6\pdl\drivers/peripheral/syslib/cy_syslib.h **** *
 561:Generated_Source\PSoC6\pdl\drivers/peripheral/syslib/cy_syslib.h **** * Reads the 24-bit value from the specified address.
 562:Generated_Source\PSoC6\pdl\drivers/peripheral/syslib/cy_syslib.h **** *
 563:Generated_Source\PSoC6\pdl\drivers/peripheral/syslib/cy_syslib.h **** * \param addr  The register address.
 564:Generated_Source\PSoC6\pdl\drivers/peripheral/syslib/cy_syslib.h **** *
 565:Generated_Source\PSoC6\pdl\drivers/peripheral/syslib/cy_syslib.h **** * \return The read value.
 566:Generated_Source\PSoC6\pdl\drivers/peripheral/syslib/cy_syslib.h **** *
 567:Generated_Source\PSoC6\pdl\drivers/peripheral/syslib/cy_syslib.h **** *******************************************************************************/
 568:Generated_Source\PSoC6\pdl\drivers/peripheral/syslib/cy_syslib.h **** #define CY_GET_REG24(addr)          (uint32_t) ((*((const volatile uint8_t *)(addr))) | \
 569:Generated_Source\PSoC6\pdl\drivers/peripheral/syslib/cy_syslib.h ****                                     (uint32_t) ((*((const volatile uint8_t *)(addr) + 1)) << 8U) | 
 570:Generated_Source\PSoC6\pdl\drivers/peripheral/syslib/cy_syslib.h ****                                     (uint32_t) ((*((const volatile uint8_t *)(addr) + 2)) << 16U))
 571:Generated_Source\PSoC6\pdl\drivers/peripheral/syslib/cy_syslib.h **** 
 572:Generated_Source\PSoC6\pdl\drivers/peripheral/syslib/cy_syslib.h **** 
 573:Generated_Source\PSoC6\pdl\drivers/peripheral/syslib/cy_syslib.h **** /*******************************************************************************
 574:Generated_Source\PSoC6\pdl\drivers/peripheral/syslib/cy_syslib.h **** * Macro Name: CY_SET_REG24(addr, value)
 575:Generated_Source\PSoC6\pdl\drivers/peripheral/syslib/cy_syslib.h **** ****************************************************************************//**
 576:Generated_Source\PSoC6\pdl\drivers/peripheral/syslib/cy_syslib.h **** *
 577:Generated_Source\PSoC6\pdl\drivers/peripheral/syslib/cy_syslib.h **** * Writes the 24-bit value to the specified address.
 578:Generated_Source\PSoC6\pdl\drivers/peripheral/syslib/cy_syslib.h **** *
 579:Generated_Source\PSoC6\pdl\drivers/peripheral/syslib/cy_syslib.h **** * \param addr  The register address.
ARM GAS  C:\Users\cypress\AppData\Local\Temp\ccIrd8u1.s 			page 27


 580:Generated_Source\PSoC6\pdl\drivers/peripheral/syslib/cy_syslib.h **** *
 581:Generated_Source\PSoC6\pdl\drivers/peripheral/syslib/cy_syslib.h **** * \param value The value to write.
 582:Generated_Source\PSoC6\pdl\drivers/peripheral/syslib/cy_syslib.h **** *
 583:Generated_Source\PSoC6\pdl\drivers/peripheral/syslib/cy_syslib.h **** *******************************************************************************/
 584:Generated_Source\PSoC6\pdl\drivers/peripheral/syslib/cy_syslib.h **** #define CY_SET_REG24(addr, value)   do  \
 585:Generated_Source\PSoC6\pdl\drivers/peripheral/syslib/cy_syslib.h ****                                     {   \
 586:Generated_Source\PSoC6\pdl\drivers/peripheral/syslib/cy_syslib.h ****                                         (*((volatile uint8_t *) (addr))) = (uint8_t)(value);       
 587:Generated_Source\PSoC6\pdl\drivers/peripheral/syslib/cy_syslib.h ****                                         (*((volatile uint8_t *) (addr) + 1)) = (uint8_t)((value) >>
 588:Generated_Source\PSoC6\pdl\drivers/peripheral/syslib/cy_syslib.h ****                                         (*((volatile uint8_t *) (addr) + 2)) = (uint8_t)((value) >>
 589:Generated_Source\PSoC6\pdl\drivers/peripheral/syslib/cy_syslib.h ****                                     }   \
 590:Generated_Source\PSoC6\pdl\drivers/peripheral/syslib/cy_syslib.h ****                                     while(0)
 591:Generated_Source\PSoC6\pdl\drivers/peripheral/syslib/cy_syslib.h **** 
 592:Generated_Source\PSoC6\pdl\drivers/peripheral/syslib/cy_syslib.h **** 
 593:Generated_Source\PSoC6\pdl\drivers/peripheral/syslib/cy_syslib.h **** /*******************************************************************************
 594:Generated_Source\PSoC6\pdl\drivers/peripheral/syslib/cy_syslib.h **** * Macro Name: CY_GET_REG32(addr)
 595:Generated_Source\PSoC6\pdl\drivers/peripheral/syslib/cy_syslib.h **** ****************************************************************************//**
 596:Generated_Source\PSoC6\pdl\drivers/peripheral/syslib/cy_syslib.h **** *
 597:Generated_Source\PSoC6\pdl\drivers/peripheral/syslib/cy_syslib.h **** * Reads the 32-bit value from the specified register. The address is the little
 598:Generated_Source\PSoC6\pdl\drivers/peripheral/syslib/cy_syslib.h **** * endian order (LSB in lowest address).
 599:Generated_Source\PSoC6\pdl\drivers/peripheral/syslib/cy_syslib.h **** *
 600:Generated_Source\PSoC6\pdl\drivers/peripheral/syslib/cy_syslib.h **** * \param addr  The register address.
 601:Generated_Source\PSoC6\pdl\drivers/peripheral/syslib/cy_syslib.h **** *
 602:Generated_Source\PSoC6\pdl\drivers/peripheral/syslib/cy_syslib.h **** * \return The read value.
 603:Generated_Source\PSoC6\pdl\drivers/peripheral/syslib/cy_syslib.h **** *
 604:Generated_Source\PSoC6\pdl\drivers/peripheral/syslib/cy_syslib.h **** *******************************************************************************/
 605:Generated_Source\PSoC6\pdl\drivers/peripheral/syslib/cy_syslib.h **** #define CY_GET_REG32(addr)          (*((const volatile uint32_t *)(addr)))
 606:Generated_Source\PSoC6\pdl\drivers/peripheral/syslib/cy_syslib.h **** 
 607:Generated_Source\PSoC6\pdl\drivers/peripheral/syslib/cy_syslib.h **** 
 608:Generated_Source\PSoC6\pdl\drivers/peripheral/syslib/cy_syslib.h **** /*******************************************************************************
 609:Generated_Source\PSoC6\pdl\drivers/peripheral/syslib/cy_syslib.h **** * Macro Name: CY_SET_REG32(addr, value)
 610:Generated_Source\PSoC6\pdl\drivers/peripheral/syslib/cy_syslib.h **** ****************************************************************************//**
 611:Generated_Source\PSoC6\pdl\drivers/peripheral/syslib/cy_syslib.h **** *
 612:Generated_Source\PSoC6\pdl\drivers/peripheral/syslib/cy_syslib.h **** * Writes the 32-bit value to the specified register. The address is the little
 613:Generated_Source\PSoC6\pdl\drivers/peripheral/syslib/cy_syslib.h **** * endian order (LSB in lowest address).
 614:Generated_Source\PSoC6\pdl\drivers/peripheral/syslib/cy_syslib.h **** *
 615:Generated_Source\PSoC6\pdl\drivers/peripheral/syslib/cy_syslib.h **** * \param addr  The register address.
 616:Generated_Source\PSoC6\pdl\drivers/peripheral/syslib/cy_syslib.h **** *
 617:Generated_Source\PSoC6\pdl\drivers/peripheral/syslib/cy_syslib.h **** * \param value The value to write.
 618:Generated_Source\PSoC6\pdl\drivers/peripheral/syslib/cy_syslib.h **** *
 619:Generated_Source\PSoC6\pdl\drivers/peripheral/syslib/cy_syslib.h **** *******************************************************************************/
 620:Generated_Source\PSoC6\pdl\drivers/peripheral/syslib/cy_syslib.h **** #define CY_SET_REG32(addr, value)   (*((volatile uint32_t *)(addr)) = (uint32_t)(value))
 621:Generated_Source\PSoC6\pdl\drivers/peripheral/syslib/cy_syslib.h **** 
 622:Generated_Source\PSoC6\pdl\drivers/peripheral/syslib/cy_syslib.h **** 
 623:Generated_Source\PSoC6\pdl\drivers/peripheral/syslib/cy_syslib.h **** /**
 624:Generated_Source\PSoC6\pdl\drivers/peripheral/syslib/cy_syslib.h **** * \defgroup group_syslib_macros_assert Assert Classes and Levels
 625:Generated_Source\PSoC6\pdl\drivers/peripheral/syslib/cy_syslib.h **** * \{
 626:Generated_Source\PSoC6\pdl\drivers/peripheral/syslib/cy_syslib.h **** * Defines for the Assert Classes and Levels
 627:Generated_Source\PSoC6\pdl\drivers/peripheral/syslib/cy_syslib.h **** */
 628:Generated_Source\PSoC6\pdl\drivers/peripheral/syslib/cy_syslib.h **** 
 629:Generated_Source\PSoC6\pdl\drivers/peripheral/syslib/cy_syslib.h **** /** 
 630:Generated_Source\PSoC6\pdl\drivers/peripheral/syslib/cy_syslib.h **** * Class 1 - The highest class, safety-critical functions which rely on parameters that could be
 631:Generated_Source\PSoC6\pdl\drivers/peripheral/syslib/cy_syslib.h **** * changed between different PSoC devices
 632:Generated_Source\PSoC6\pdl\drivers/peripheral/syslib/cy_syslib.h **** */
 633:Generated_Source\PSoC6\pdl\drivers/peripheral/syslib/cy_syslib.h **** #define CY_ASSERT_CLASS_1           (1U)
 634:Generated_Source\PSoC6\pdl\drivers/peripheral/syslib/cy_syslib.h **** 
 635:Generated_Source\PSoC6\pdl\drivers/peripheral/syslib/cy_syslib.h **** /** Class 2 - Functions that have fixed limits such as counter periods (16-bits/32-bits etc.) */
 636:Generated_Source\PSoC6\pdl\drivers/peripheral/syslib/cy_syslib.h **** #define CY_ASSERT_CLASS_2           (2U)
ARM GAS  C:\Users\cypress\AppData\Local\Temp\ccIrd8u1.s 			page 28


 637:Generated_Source\PSoC6\pdl\drivers/peripheral/syslib/cy_syslib.h **** 
 638:Generated_Source\PSoC6\pdl\drivers/peripheral/syslib/cy_syslib.h **** /** Class 3 - Functions that accept enums as constant parameters */
 639:Generated_Source\PSoC6\pdl\drivers/peripheral/syslib/cy_syslib.h **** #define CY_ASSERT_CLASS_3           (3U)
 640:Generated_Source\PSoC6\pdl\drivers/peripheral/syslib/cy_syslib.h **** 
 641:Generated_Source\PSoC6\pdl\drivers/peripheral/syslib/cy_syslib.h **** #ifndef CY_ASSERT_LEVEL
 642:Generated_Source\PSoC6\pdl\drivers/peripheral/syslib/cy_syslib.h ****     /** The user-definable assert level from compiler command-line argument (similarly to DEBUG / N
 643:Generated_Source\PSoC6\pdl\drivers/peripheral/syslib/cy_syslib.h ****     #define CY_ASSERT_LEVEL         CY_ASSERT_CLASS_3
 644:Generated_Source\PSoC6\pdl\drivers/peripheral/syslib/cy_syslib.h **** #endif /* CY_ASSERT_LEVEL */
 645:Generated_Source\PSoC6\pdl\drivers/peripheral/syslib/cy_syslib.h **** 
 646:Generated_Source\PSoC6\pdl\drivers/peripheral/syslib/cy_syslib.h **** #if (CY_ASSERT_LEVEL == CY_ASSERT_CLASS_1)
 647:Generated_Source\PSoC6\pdl\drivers/peripheral/syslib/cy_syslib.h ****     #define CY_ASSERT_L1(x)         CY_ASSERT(x)     /**< Assert Level 1 */
 648:Generated_Source\PSoC6\pdl\drivers/peripheral/syslib/cy_syslib.h ****     #define CY_ASSERT_L2(x)         do{} while(0)    /**< Assert Level 2 */
 649:Generated_Source\PSoC6\pdl\drivers/peripheral/syslib/cy_syslib.h ****     #define CY_ASSERT_L3(x)         do{} while(0)    /**< Assert Level 3 */
 650:Generated_Source\PSoC6\pdl\drivers/peripheral/syslib/cy_syslib.h **** #elif (CY_ASSERT_LEVEL == CY_ASSERT_CLASS_2)
 651:Generated_Source\PSoC6\pdl\drivers/peripheral/syslib/cy_syslib.h ****     #define CY_ASSERT_L1(x)         CY_ASSERT(x)     /**< Assert Level 1 */
 652:Generated_Source\PSoC6\pdl\drivers/peripheral/syslib/cy_syslib.h ****     #define CY_ASSERT_L2(x)         CY_ASSERT(x)     /**< Assert Level 2 */
 653:Generated_Source\PSoC6\pdl\drivers/peripheral/syslib/cy_syslib.h ****     #define CY_ASSERT_L3(x)         do{} while(0)    /**< Assert Level 3 */
 654:Generated_Source\PSoC6\pdl\drivers/peripheral/syslib/cy_syslib.h **** #else /* Default is Level 3 */
 655:Generated_Source\PSoC6\pdl\drivers/peripheral/syslib/cy_syslib.h ****     #define CY_ASSERT_L1(x)         CY_ASSERT(x)     /**< Assert Level 1 */
 656:Generated_Source\PSoC6\pdl\drivers/peripheral/syslib/cy_syslib.h ****     #define CY_ASSERT_L2(x)         CY_ASSERT(x)     /**< Assert Level 2 */
 657:Generated_Source\PSoC6\pdl\drivers/peripheral/syslib/cy_syslib.h ****     #define CY_ASSERT_L3(x)         CY_ASSERT(x)     /**< Assert Level 3 */
 658:Generated_Source\PSoC6\pdl\drivers/peripheral/syslib/cy_syslib.h **** #endif /* CY_ASSERT_LEVEL == CY_ASSERT_CLASS_1 */
 659:Generated_Source\PSoC6\pdl\drivers/peripheral/syslib/cy_syslib.h **** 
 660:Generated_Source\PSoC6\pdl\drivers/peripheral/syslib/cy_syslib.h **** /** \} group_syslib_macros_assert */
 661:Generated_Source\PSoC6\pdl\drivers/peripheral/syslib/cy_syslib.h **** 
 662:Generated_Source\PSoC6\pdl\drivers/peripheral/syslib/cy_syslib.h **** 
 663:Generated_Source\PSoC6\pdl\drivers/peripheral/syslib/cy_syslib.h **** /*******************************************************************************
 664:Generated_Source\PSoC6\pdl\drivers/peripheral/syslib/cy_syslib.h **** * Macro Name: CY_ASSERT
 665:Generated_Source\PSoC6\pdl\drivers/peripheral/syslib/cy_syslib.h **** ****************************************************************************//**
 666:Generated_Source\PSoC6\pdl\drivers/peripheral/syslib/cy_syslib.h **** *
 667:Generated_Source\PSoC6\pdl\drivers/peripheral/syslib/cy_syslib.h **** *  The macro that evaluates the expression and, if it is false (evaluates to 0),
 668:Generated_Source\PSoC6\pdl\drivers/peripheral/syslib/cy_syslib.h **** *  the processor is halted. Cy_SysLib_AssertFailed() is called when the logical
 669:Generated_Source\PSoC6\pdl\drivers/peripheral/syslib/cy_syslib.h **** *  expression is false to store the ASSERT location and halt the processor.
 670:Generated_Source\PSoC6\pdl\drivers/peripheral/syslib/cy_syslib.h **** *
 671:Generated_Source\PSoC6\pdl\drivers/peripheral/syslib/cy_syslib.h **** * \param x  The logical expression. Asserts if false.
 672:Generated_Source\PSoC6\pdl\drivers/peripheral/syslib/cy_syslib.h **** * \note This macro is evaluated unless NDEBUG is not defined.
 673:Generated_Source\PSoC6\pdl\drivers/peripheral/syslib/cy_syslib.h **** *       If NDEBUG is defined, just empty do while cycle is generated for this
 674:Generated_Source\PSoC6\pdl\drivers/peripheral/syslib/cy_syslib.h **** *       macro for the sake of consistency and to avoid MISRA violation.
 675:Generated_Source\PSoC6\pdl\drivers/peripheral/syslib/cy_syslib.h **** *       NDEBUG is defined by default for a Release build setting and not defined
 676:Generated_Source\PSoC6\pdl\drivers/peripheral/syslib/cy_syslib.h **** *       for a Debug build setting.
 677:Generated_Source\PSoC6\pdl\drivers/peripheral/syslib/cy_syslib.h **** *
 678:Generated_Source\PSoC6\pdl\drivers/peripheral/syslib/cy_syslib.h **** *******************************************************************************/
 679:Generated_Source\PSoC6\pdl\drivers/peripheral/syslib/cy_syslib.h **** #if !defined(NDEBUG)
 680:Generated_Source\PSoC6\pdl\drivers/peripheral/syslib/cy_syslib.h ****     #define CY_ASSERT(x)    do  \
 681:Generated_Source\PSoC6\pdl\drivers/peripheral/syslib/cy_syslib.h ****                             {   \
 682:Generated_Source\PSoC6\pdl\drivers/peripheral/syslib/cy_syslib.h ****                                 if(!(x)) \
 683:Generated_Source\PSoC6\pdl\drivers/peripheral/syslib/cy_syslib.h ****                                 { \
 684:Generated_Source\PSoC6\pdl\drivers/peripheral/syslib/cy_syslib.h ****                                     Cy_SysLib_AssertFailed((char_t *) __FILE__, (uint32_t) __LINE__
 685:Generated_Source\PSoC6\pdl\drivers/peripheral/syslib/cy_syslib.h ****                                 } \
 686:Generated_Source\PSoC6\pdl\drivers/peripheral/syslib/cy_syslib.h ****                             } while(0)
 687:Generated_Source\PSoC6\pdl\drivers/peripheral/syslib/cy_syslib.h **** #else
 688:Generated_Source\PSoC6\pdl\drivers/peripheral/syslib/cy_syslib.h ****     #define CY_ASSERT(x)    do  \
 689:Generated_Source\PSoC6\pdl\drivers/peripheral/syslib/cy_syslib.h ****                             {   \
 690:Generated_Source\PSoC6\pdl\drivers/peripheral/syslib/cy_syslib.h ****                             } while(0)
 691:Generated_Source\PSoC6\pdl\drivers/peripheral/syslib/cy_syslib.h **** #endif  /* !defined(NDEBUG) */
 692:Generated_Source\PSoC6\pdl\drivers/peripheral/syslib/cy_syslib.h **** 
 693:Generated_Source\PSoC6\pdl\drivers/peripheral/syslib/cy_syslib.h **** 
ARM GAS  C:\Users\cypress\AppData\Local\Temp\ccIrd8u1.s 			page 29


 694:Generated_Source\PSoC6\pdl\drivers/peripheral/syslib/cy_syslib.h **** /*******************************************************************************
 695:Generated_Source\PSoC6\pdl\drivers/peripheral/syslib/cy_syslib.h **** * Macro Name: _CLR_SET_FLD32U
 696:Generated_Source\PSoC6\pdl\drivers/peripheral/syslib/cy_syslib.h **** ****************************************************************************//**
 697:Generated_Source\PSoC6\pdl\drivers/peripheral/syslib/cy_syslib.h **** *
 698:Generated_Source\PSoC6\pdl\drivers/peripheral/syslib/cy_syslib.h **** *  The macro for setting a register with a name field and value for providing
 699:Generated_Source\PSoC6\pdl\drivers/peripheral/syslib/cy_syslib.h **** *  get-clear-modify-write operations.
 700:Generated_Source\PSoC6\pdl\drivers/peripheral/syslib/cy_syslib.h **** *  Returns a resulting value to be assigned to the register.
 701:Generated_Source\PSoC6\pdl\drivers/peripheral/syslib/cy_syslib.h **** *
 702:Generated_Source\PSoC6\pdl\drivers/peripheral/syslib/cy_syslib.h **** *******************************************************************************/
 703:Generated_Source\PSoC6\pdl\drivers/peripheral/syslib/cy_syslib.h **** #define _CLR_SET_FLD32U(reg, field, value) (((reg) & ((uint32_t)(~(field ## _Msk)))) | (_VAL2FLD(fi
 704:Generated_Source\PSoC6\pdl\drivers/peripheral/syslib/cy_syslib.h **** 
 705:Generated_Source\PSoC6\pdl\drivers/peripheral/syslib/cy_syslib.h **** 
 706:Generated_Source\PSoC6\pdl\drivers/peripheral/syslib/cy_syslib.h **** /*******************************************************************************
 707:Generated_Source\PSoC6\pdl\drivers/peripheral/syslib/cy_syslib.h **** * Macro Name: _BOOL2FLD
 708:Generated_Source\PSoC6\pdl\drivers/peripheral/syslib/cy_syslib.h **** ****************************************************************************//**
 709:Generated_Source\PSoC6\pdl\drivers/peripheral/syslib/cy_syslib.h **** *
 710:Generated_Source\PSoC6\pdl\drivers/peripheral/syslib/cy_syslib.h **** *  Returns a field mask if the value is not false.
 711:Generated_Source\PSoC6\pdl\drivers/peripheral/syslib/cy_syslib.h **** *  Returns 0, if the value is false.
 712:Generated_Source\PSoC6\pdl\drivers/peripheral/syslib/cy_syslib.h **** *
 713:Generated_Source\PSoC6\pdl\drivers/peripheral/syslib/cy_syslib.h **** *******************************************************************************/
 714:Generated_Source\PSoC6\pdl\drivers/peripheral/syslib/cy_syslib.h **** #define _BOOL2FLD(field, value) (((value) != false) ? (field ## _Msk) : 0UL)
 715:Generated_Source\PSoC6\pdl\drivers/peripheral/syslib/cy_syslib.h **** 
 716:Generated_Source\PSoC6\pdl\drivers/peripheral/syslib/cy_syslib.h **** 
 717:Generated_Source\PSoC6\pdl\drivers/peripheral/syslib/cy_syslib.h **** /*******************************************************************************
 718:Generated_Source\PSoC6\pdl\drivers/peripheral/syslib/cy_syslib.h **** * Macro Name: _FLD2BOOL
 719:Generated_Source\PSoC6\pdl\drivers/peripheral/syslib/cy_syslib.h **** ****************************************************************************//**
 720:Generated_Source\PSoC6\pdl\drivers/peripheral/syslib/cy_syslib.h **** *
 721:Generated_Source\PSoC6\pdl\drivers/peripheral/syslib/cy_syslib.h **** *  Returns true, if the value includes the field mask.
 722:Generated_Source\PSoC6\pdl\drivers/peripheral/syslib/cy_syslib.h **** *  Returns false, if the value doesn't include the field mask.
 723:Generated_Source\PSoC6\pdl\drivers/peripheral/syslib/cy_syslib.h **** *
 724:Generated_Source\PSoC6\pdl\drivers/peripheral/syslib/cy_syslib.h **** *******************************************************************************/
 725:Generated_Source\PSoC6\pdl\drivers/peripheral/syslib/cy_syslib.h **** #define _FLD2BOOL(field, value) (((value) & (field ## _Msk)) != 0UL)
 726:Generated_Source\PSoC6\pdl\drivers/peripheral/syslib/cy_syslib.h **** 
 727:Generated_Source\PSoC6\pdl\drivers/peripheral/syslib/cy_syslib.h **** 
 728:Generated_Source\PSoC6\pdl\drivers/peripheral/syslib/cy_syslib.h **** /******************************************************************************
 729:Generated_Source\PSoC6\pdl\drivers/peripheral/syslib/cy_syslib.h **** * Constants
 730:Generated_Source\PSoC6\pdl\drivers/peripheral/syslib/cy_syslib.h **** *****************************************************************************/
 731:Generated_Source\PSoC6\pdl\drivers/peripheral/syslib/cy_syslib.h **** /** Defines a 32-kHz clock delay */
 732:Generated_Source\PSoC6\pdl\drivers/peripheral/syslib/cy_syslib.h **** #define CY_DELAY_MS_OVERFLOW            (0x8000U)
 733:Generated_Source\PSoC6\pdl\drivers/peripheral/syslib/cy_syslib.h **** 
 734:Generated_Source\PSoC6\pdl\drivers/peripheral/syslib/cy_syslib.h **** /**
 735:Generated_Source\PSoC6\pdl\drivers/peripheral/syslib/cy_syslib.h **** * \defgroup group_syslib_macros_reset_cause Reset cause
 736:Generated_Source\PSoC6\pdl\drivers/peripheral/syslib/cy_syslib.h **** * \{
 737:Generated_Source\PSoC6\pdl\drivers/peripheral/syslib/cy_syslib.h **** * Define RESET_CAUSE mask values
 738:Generated_Source\PSoC6\pdl\drivers/peripheral/syslib/cy_syslib.h **** */
 739:Generated_Source\PSoC6\pdl\drivers/peripheral/syslib/cy_syslib.h **** /** A basic WatchDog Timer (WDT) reset has occurred since the last power cycle. */
 740:Generated_Source\PSoC6\pdl\drivers/peripheral/syslib/cy_syslib.h **** #define CY_SYSLIB_RESET_HWWDT           (0x0001U)
 741:Generated_Source\PSoC6\pdl\drivers/peripheral/syslib/cy_syslib.h **** /** The fault logging system requested a reset from its Active logic. */
 742:Generated_Source\PSoC6\pdl\drivers/peripheral/syslib/cy_syslib.h **** #define CY_SYSLIB_RESET_ACT_FAULT       (0x0002U)
 743:Generated_Source\PSoC6\pdl\drivers/peripheral/syslib/cy_syslib.h **** /** The fault logging system requested a reset from its Deep-Sleep logic. */
 744:Generated_Source\PSoC6\pdl\drivers/peripheral/syslib/cy_syslib.h **** #define CY_SYSLIB_RESET_DPSLP_FAULT     (0x0004U)
 745:Generated_Source\PSoC6\pdl\drivers/peripheral/syslib/cy_syslib.h **** /** The CPU requested a system reset through it's SYSRESETREQ. This can be done via a debugger prob
 746:Generated_Source\PSoC6\pdl\drivers/peripheral/syslib/cy_syslib.h **** #define CY_SYSLIB_RESET_SOFT            (0x0010U)
 747:Generated_Source\PSoC6\pdl\drivers/peripheral/syslib/cy_syslib.h **** /** The Multi-Counter Watchdog timer #0 reset has occurred since the last power cycle. */
 748:Generated_Source\PSoC6\pdl\drivers/peripheral/syslib/cy_syslib.h **** #define CY_SYSLIB_RESET_SWWDT0          (0x0020U)
 749:Generated_Source\PSoC6\pdl\drivers/peripheral/syslib/cy_syslib.h **** /** The Multi-Counter Watchdog timer #1 reset has occurred since the last power cycle. */
 750:Generated_Source\PSoC6\pdl\drivers/peripheral/syslib/cy_syslib.h **** #define CY_SYSLIB_RESET_SWWDT1          (0x0040U)
ARM GAS  C:\Users\cypress\AppData\Local\Temp\ccIrd8u1.s 			page 30


 751:Generated_Source\PSoC6\pdl\drivers/peripheral/syslib/cy_syslib.h **** /** The Multi-Counter Watchdog timer #2 reset has occurred since the last power cycle. */
 752:Generated_Source\PSoC6\pdl\drivers/peripheral/syslib/cy_syslib.h **** #define CY_SYSLIB_RESET_SWWDT2          (0x0080U)
 753:Generated_Source\PSoC6\pdl\drivers/peripheral/syslib/cy_syslib.h **** /** The Multi-Counter Watchdog timer #3 reset has occurred since the last power cycle. */
 754:Generated_Source\PSoC6\pdl\drivers/peripheral/syslib/cy_syslib.h **** #define CY_SYSLIB_RESET_SWWDT3          (0x0100U)
 755:Generated_Source\PSoC6\pdl\drivers/peripheral/syslib/cy_syslib.h **** /** The reset has occurred on a wakeup from Hibernate power mode. */
 756:Generated_Source\PSoC6\pdl\drivers/peripheral/syslib/cy_syslib.h **** #define CY_SYSLIB_RESET_HIB_WAKEUP      (0x40000UL)
 757:Generated_Source\PSoC6\pdl\drivers/peripheral/syslib/cy_syslib.h **** #if (SRSS_WCOCSV_PRESENT != 0U)
 758:Generated_Source\PSoC6\pdl\drivers/peripheral/syslib/cy_syslib.h ****     /** The clock supervision logic requested a reset due to the loss of a watch-crystal clock. */
 759:Generated_Source\PSoC6\pdl\drivers/peripheral/syslib/cy_syslib.h ****     #define CY_SYSLIB_RESET_CSV_WCO_LOSS    (0x0008U)
 760:Generated_Source\PSoC6\pdl\drivers/peripheral/syslib/cy_syslib.h ****     /** The clock supervision logic requested a reset due to the loss of a high-frequency clock. */
 761:Generated_Source\PSoC6\pdl\drivers/peripheral/syslib/cy_syslib.h ****     #define CY_SYSLIB_RESET_HFCLK_LOSS      (0x10000UL)
 762:Generated_Source\PSoC6\pdl\drivers/peripheral/syslib/cy_syslib.h ****     /** The clock supervision logic requested a reset due to the frequency error of a high-frequenc
 763:Generated_Source\PSoC6\pdl\drivers/peripheral/syslib/cy_syslib.h ****     #define CY_SYSLIB_RESET_HFCLK_ERR       (0x20000UL)
 764:Generated_Source\PSoC6\pdl\drivers/peripheral/syslib/cy_syslib.h **** #endif /* (SRSS_WCOCSV_PRESENT != 0U) */
 765:Generated_Source\PSoC6\pdl\drivers/peripheral/syslib/cy_syslib.h **** 
 766:Generated_Source\PSoC6\pdl\drivers/peripheral/syslib/cy_syslib.h **** /** \} group_syslib_macros_reset_cause */
 767:Generated_Source\PSoC6\pdl\drivers/peripheral/syslib/cy_syslib.h **** 
 768:Generated_Source\PSoC6\pdl\drivers/peripheral/syslib/cy_syslib.h **** /** Bit[31:24] Opcode = 0x1B (SoftReset)
 769:Generated_Source\PSoC6\pdl\drivers/peripheral/syslib/cy_syslib.h ****  *  Bit[7:1]   Type   = 1    (Only CM4 reset)
 770:Generated_Source\PSoC6\pdl\drivers/peripheral/syslib/cy_syslib.h ****  */
 771:Generated_Source\PSoC6\pdl\drivers/peripheral/syslib/cy_syslib.h **** #define CY_IPC_DATA_FOR_CM4_SOFT_RESET  (0x1B000002UL)
 772:Generated_Source\PSoC6\pdl\drivers/peripheral/syslib/cy_syslib.h **** 
 773:Generated_Source\PSoC6\pdl\drivers/peripheral/syslib/cy_syslib.h **** /**
 774:Generated_Source\PSoC6\pdl\drivers/peripheral/syslib/cy_syslib.h **** * \defgroup group_syslib_macros_unique_id Unique ID
 775:Generated_Source\PSoC6\pdl\drivers/peripheral/syslib/cy_syslib.h **** * \{
 776:Generated_Source\PSoC6\pdl\drivers/peripheral/syslib/cy_syslib.h **** * Unique ID fields positions
 777:Generated_Source\PSoC6\pdl\drivers/peripheral/syslib/cy_syslib.h **** */
 778:Generated_Source\PSoC6\pdl\drivers/peripheral/syslib/cy_syslib.h **** #define CY_UNIQUE_ID_DIE_YEAR_Pos       (57U)    /**< The position of the DIE_YEAR  field in the si
 779:Generated_Source\PSoC6\pdl\drivers/peripheral/syslib/cy_syslib.h **** #define CY_UNIQUE_ID_DIE_MINOR_Pos      (56U)    /**< The position of the DIE_MINOR field in the si
 780:Generated_Source\PSoC6\pdl\drivers/peripheral/syslib/cy_syslib.h **** #define CY_UNIQUE_ID_DIE_SORT_Pos       (48U)    /**< The position of the DIE_SORT  field in the si
 781:Generated_Source\PSoC6\pdl\drivers/peripheral/syslib/cy_syslib.h **** #define CY_UNIQUE_ID_DIE_Y_Pos          (40U)    /**< The position of the DIE_Y     field in the si
 782:Generated_Source\PSoC6\pdl\drivers/peripheral/syslib/cy_syslib.h **** #define CY_UNIQUE_ID_DIE_X_Pos          (32U)    /**< The position of the DIE_X     field in the si
 783:Generated_Source\PSoC6\pdl\drivers/peripheral/syslib/cy_syslib.h **** #define CY_UNIQUE_ID_DIE_WAFER_Pos      (24U)    /**< The position of the DIE_WAFER field in the si
 784:Generated_Source\PSoC6\pdl\drivers/peripheral/syslib/cy_syslib.h **** #define CY_UNIQUE_ID_DIE_LOT_2_Pos      (16U)    /**< The position of the DIE_LOT_2 field in the si
 785:Generated_Source\PSoC6\pdl\drivers/peripheral/syslib/cy_syslib.h **** #define CY_UNIQUE_ID_DIE_LOT_1_Pos      (8U)     /**< The position of the DIE_LOT_1 field in the si
 786:Generated_Source\PSoC6\pdl\drivers/peripheral/syslib/cy_syslib.h **** #define CY_UNIQUE_ID_DIE_LOT_0_Pos      (0U)     /**< The position of the DIE_LOT_0 field in the si
 787:Generated_Source\PSoC6\pdl\drivers/peripheral/syslib/cy_syslib.h **** 
 788:Generated_Source\PSoC6\pdl\drivers/peripheral/syslib/cy_syslib.h **** /** \} group_syslib_macros_unique_id */
 789:Generated_Source\PSoC6\pdl\drivers/peripheral/syslib/cy_syslib.h **** 
 790:Generated_Source\PSoC6\pdl\drivers/peripheral/syslib/cy_syslib.h **** /** \} group_syslib_macros */
 791:Generated_Source\PSoC6\pdl\drivers/peripheral/syslib/cy_syslib.h **** 
 792:Generated_Source\PSoC6\pdl\drivers/peripheral/syslib/cy_syslib.h **** /******************************************************************************
 793:Generated_Source\PSoC6\pdl\drivers/peripheral/syslib/cy_syslib.h **** * Function prototypes
 794:Generated_Source\PSoC6\pdl\drivers/peripheral/syslib/cy_syslib.h **** ******************************************************************************/
 795:Generated_Source\PSoC6\pdl\drivers/peripheral/syslib/cy_syslib.h **** 
 796:Generated_Source\PSoC6\pdl\drivers/peripheral/syslib/cy_syslib.h **** /**
 797:Generated_Source\PSoC6\pdl\drivers/peripheral/syslib/cy_syslib.h **** * \addtogroup group_syslib_functions
 798:Generated_Source\PSoC6\pdl\drivers/peripheral/syslib/cy_syslib.h **** * \{
 799:Generated_Source\PSoC6\pdl\drivers/peripheral/syslib/cy_syslib.h **** */
 800:Generated_Source\PSoC6\pdl\drivers/peripheral/syslib/cy_syslib.h **** 
 801:Generated_Source\PSoC6\pdl\drivers/peripheral/syslib/cy_syslib.h **** void Cy_SysLib_Delay(uint32_t milliseconds);
 802:Generated_Source\PSoC6\pdl\drivers/peripheral/syslib/cy_syslib.h **** void Cy_SysLib_DelayUs(uint16_t microseconds);
 803:Generated_Source\PSoC6\pdl\drivers/peripheral/syslib/cy_syslib.h **** /** Delays for the specified number of cycles.
 804:Generated_Source\PSoC6\pdl\drivers/peripheral/syslib/cy_syslib.h ****  *  The function is implemented in the assembler for each supported compiler.
 805:Generated_Source\PSoC6\pdl\drivers/peripheral/syslib/cy_syslib.h ****  *  \param cycles  The number of cycles to delay.
 806:Generated_Source\PSoC6\pdl\drivers/peripheral/syslib/cy_syslib.h ****  */
 807:Generated_Source\PSoC6\pdl\drivers/peripheral/syslib/cy_syslib.h **** void Cy_SysLib_DelayCycles(uint32_t cycles);
ARM GAS  C:\Users\cypress\AppData\Local\Temp\ccIrd8u1.s 			page 31


 808:Generated_Source\PSoC6\pdl\drivers/peripheral/syslib/cy_syslib.h **** __NO_RETURN void Cy_SysLib_Halt(uint32_t reason);
 809:Generated_Source\PSoC6\pdl\drivers/peripheral/syslib/cy_syslib.h **** #if !defined(NDEBUG) || defined(CY_DOXYGEN)
 810:Generated_Source\PSoC6\pdl\drivers/peripheral/syslib/cy_syslib.h ****     void Cy_SysLib_AssertFailed(const char_t * file, uint32_t line);
 811:Generated_Source\PSoC6\pdl\drivers/peripheral/syslib/cy_syslib.h **** #endif  /* !defined(NDEBUG) || defined(CY_DOXYGEN) */
 812:Generated_Source\PSoC6\pdl\drivers/peripheral/syslib/cy_syslib.h **** void Cy_SysLib_ClearFlashCacheAndBuffer(void);
 813:Generated_Source\PSoC6\pdl\drivers/peripheral/syslib/cy_syslib.h **** cy_en_syslib_status_t Cy_SysLib_ResetBackupDomain(void);
 814:Generated_Source\PSoC6\pdl\drivers/peripheral/syslib/cy_syslib.h **** uint32_t Cy_SysLib_GetResetReason(void);
 815:Generated_Source\PSoC6\pdl\drivers/peripheral/syslib/cy_syslib.h **** #if (SRSS_WCOCSV_PRESENT != 0U) || defined(CY_DOXYGEN)
 816:Generated_Source\PSoC6\pdl\drivers/peripheral/syslib/cy_syslib.h ****     uint32_t Cy_SysLib_GetNumHfclkResetCause(void);
 817:Generated_Source\PSoC6\pdl\drivers/peripheral/syslib/cy_syslib.h **** #endif /* (SRSS_WCOCSV_PRESENT != 0U) || defined(CY_DOXYGEN) */
 818:Generated_Source\PSoC6\pdl\drivers/peripheral/syslib/cy_syslib.h **** void Cy_SysLib_ClearResetReason(void);
 819:Generated_Source\PSoC6\pdl\drivers/peripheral/syslib/cy_syslib.h **** uint64_t Cy_SysLib_GetUniqueId(void);
 820:Generated_Source\PSoC6\pdl\drivers/peripheral/syslib/cy_syslib.h **** #if (CY_CPU_CORTEX_M0P)
 821:Generated_Source\PSoC6\pdl\drivers/peripheral/syslib/cy_syslib.h ****     void Cy_SysLib_SoftResetCM4(void);
 822:Generated_Source\PSoC6\pdl\drivers/peripheral/syslib/cy_syslib.h **** #endif /* CY_CPU_CORTEX_M0P */
 823:Generated_Source\PSoC6\pdl\drivers/peripheral/syslib/cy_syslib.h **** #if (CY_ARM_FAULT_DEBUG == CY_ARM_FAULT_DEBUG_ENABLED) || defined(CY_DOXYGEN)
 824:Generated_Source\PSoC6\pdl\drivers/peripheral/syslib/cy_syslib.h ****     void Cy_SysLib_FaultHandler(uint32_t const *faultStackAddr);
 825:Generated_Source\PSoC6\pdl\drivers/peripheral/syslib/cy_syslib.h ****     void Cy_SysLib_ProcessingFault(void);
 826:Generated_Source\PSoC6\pdl\drivers/peripheral/syslib/cy_syslib.h **** #endif /* (CY_ARM_FAULT_DEBUG == CY_ARM_FAULT_DEBUG_ENABLED) */
 827:Generated_Source\PSoC6\pdl\drivers/peripheral/syslib/cy_syslib.h **** void Cy_SysLib_SetWaitStates(bool ulpMode, uint32_t clkHfMHz);
 828:Generated_Source\PSoC6\pdl\drivers/peripheral/syslib/cy_syslib.h **** 
 829:Generated_Source\PSoC6\pdl\drivers/peripheral/syslib/cy_syslib.h **** 
 830:Generated_Source\PSoC6\pdl\drivers/peripheral/syslib/cy_syslib.h **** /*******************************************************************************
 831:Generated_Source\PSoC6\pdl\drivers/peripheral/syslib/cy_syslib.h **** * Function Name: Cy_SysLib_EnterCriticalSection
 832:Generated_Source\PSoC6\pdl\drivers/peripheral/syslib/cy_syslib.h **** ****************************************************************************//**
 833:Generated_Source\PSoC6\pdl\drivers/peripheral/syslib/cy_syslib.h **** *
 834:Generated_Source\PSoC6\pdl\drivers/peripheral/syslib/cy_syslib.h **** *  Cy_SysLib_EnterCriticalSection disables interrupts and returns a value
 835:Generated_Source\PSoC6\pdl\drivers/peripheral/syslib/cy_syslib.h **** *  indicating whether the interrupts were previously enabled.
 836:Generated_Source\PSoC6\pdl\drivers/peripheral/syslib/cy_syslib.h **** *
 837:Generated_Source\PSoC6\pdl\drivers/peripheral/syslib/cy_syslib.h **** *  \return Returns the current interrupt status. Returns 0 if the interrupts
 838:Generated_Source\PSoC6\pdl\drivers/peripheral/syslib/cy_syslib.h **** *          were previously enabled or 1 if the interrupts were previously
 839:Generated_Source\PSoC6\pdl\drivers/peripheral/syslib/cy_syslib.h **** *          disabled.
 840:Generated_Source\PSoC6\pdl\drivers/peripheral/syslib/cy_syslib.h **** *
 841:Generated_Source\PSoC6\pdl\drivers/peripheral/syslib/cy_syslib.h **** *  \note Implementation of Cy_SysLib_EnterCriticalSection manipulates the IRQ
 842:Generated_Source\PSoC6\pdl\drivers/peripheral/syslib/cy_syslib.h **** *        enable bit with interrupts still enabled.
 843:Generated_Source\PSoC6\pdl\drivers/peripheral/syslib/cy_syslib.h **** *
 844:Generated_Source\PSoC6\pdl\drivers/peripheral/syslib/cy_syslib.h **** *******************************************************************************/
 845:Generated_Source\PSoC6\pdl\drivers/peripheral/syslib/cy_syslib.h **** uint32_t Cy_SysLib_EnterCriticalSection(void);
 846:Generated_Source\PSoC6\pdl\drivers/peripheral/syslib/cy_syslib.h **** 
 847:Generated_Source\PSoC6\pdl\drivers/peripheral/syslib/cy_syslib.h **** 
 848:Generated_Source\PSoC6\pdl\drivers/peripheral/syslib/cy_syslib.h **** /*******************************************************************************
 849:Generated_Source\PSoC6\pdl\drivers/peripheral/syslib/cy_syslib.h **** * Function Name: Cy_SysLib_ExitCriticalSection
 850:Generated_Source\PSoC6\pdl\drivers/peripheral/syslib/cy_syslib.h **** ****************************************************************************//**
 851:Generated_Source\PSoC6\pdl\drivers/peripheral/syslib/cy_syslib.h **** *
 852:Generated_Source\PSoC6\pdl\drivers/peripheral/syslib/cy_syslib.h **** *  Re-enables the interrupts if they were enabled before
 853:Generated_Source\PSoC6\pdl\drivers/peripheral/syslib/cy_syslib.h **** *  Cy_SysLib_EnterCriticalSection() was called. The argument should be the value
 854:Generated_Source\PSoC6\pdl\drivers/peripheral/syslib/cy_syslib.h **** *  returned from \ref Cy_SysLib_EnterCriticalSection().
 855:Generated_Source\PSoC6\pdl\drivers/peripheral/syslib/cy_syslib.h **** *
 856:Generated_Source\PSoC6\pdl\drivers/peripheral/syslib/cy_syslib.h **** *  \param savedIntrStatus  Puts the saved interrupts status returned by
 857:Generated_Source\PSoC6\pdl\drivers/peripheral/syslib/cy_syslib.h **** *                          the \ref Cy_SysLib_EnterCriticalSection().
 858:Generated_Source\PSoC6\pdl\drivers/peripheral/syslib/cy_syslib.h **** *
 859:Generated_Source\PSoC6\pdl\drivers/peripheral/syslib/cy_syslib.h **** *******************************************************************************/
 860:Generated_Source\PSoC6\pdl\drivers/peripheral/syslib/cy_syslib.h **** void Cy_SysLib_ExitCriticalSection(uint32_t savedIntrStatus);
 861:Generated_Source\PSoC6\pdl\drivers/peripheral/syslib/cy_syslib.h **** 
 862:Generated_Source\PSoC6\pdl\drivers/peripheral/syslib/cy_syslib.h **** 
 863:Generated_Source\PSoC6\pdl\drivers/peripheral/syslib/cy_syslib.h **** /** \cond INTERNAL */
 864:Generated_Source\PSoC6\pdl\drivers/peripheral/syslib/cy_syslib.h **** #define CY_SYSLIB_DEVICE_REV_0A       (0x21U)  /**< The device TO *A Revision ID */
ARM GAS  C:\Users\cypress\AppData\Local\Temp\ccIrd8u1.s 			page 32


 865:Generated_Source\PSoC6\pdl\drivers/peripheral/syslib/cy_syslib.h **** #define CY_SYSLIB_DEVICE_PSOC6ABLE2   (0x100U) /**< The PSoC6 BLE2 device Family ID */
 866:Generated_Source\PSoC6\pdl\drivers/peripheral/syslib/cy_syslib.h **** 
 867:Generated_Source\PSoC6\pdl\drivers/peripheral/syslib/cy_syslib.h **** 
 868:Generated_Source\PSoC6\pdl\drivers/peripheral/syslib/cy_syslib.h **** /*******************************************************************************
 869:Generated_Source\PSoC6\pdl\drivers/peripheral/syslib/cy_syslib.h **** * Function Name: Cy_SysLib_GetDeviceRevision
 870:Generated_Source\PSoC6\pdl\drivers/peripheral/syslib/cy_syslib.h **** ****************************************************************************//**
 871:Generated_Source\PSoC6\pdl\drivers/peripheral/syslib/cy_syslib.h **** *
 872:Generated_Source\PSoC6\pdl\drivers/peripheral/syslib/cy_syslib.h **** * This function returns a device Revision ID.
 873:Generated_Source\PSoC6\pdl\drivers/peripheral/syslib/cy_syslib.h **** *
 874:Generated_Source\PSoC6\pdl\drivers/peripheral/syslib/cy_syslib.h **** * \return  A device Revision ID.
 875:Generated_Source\PSoC6\pdl\drivers/peripheral/syslib/cy_syslib.h **** *
 876:Generated_Source\PSoC6\pdl\drivers/peripheral/syslib/cy_syslib.h **** *******************************************************************************/
 877:Generated_Source\PSoC6\pdl\drivers/peripheral/syslib/cy_syslib.h **** __STATIC_INLINE uint8_t Cy_SysLib_GetDeviceRevision(void)
 878:Generated_Source\PSoC6\pdl\drivers/peripheral/syslib/cy_syslib.h **** {
 879:Generated_Source\PSoC6\pdl\drivers/peripheral/syslib/cy_syslib.h ****     return ((SFLASH->SI_REVISION_ID == 0UL) ? CY_SYSLIB_DEVICE_REV_0A : SFLASH->SI_REVISION_ID);
 487              		.loc 2 879 0
 488 006c B023     		movs	r3, #176
 489 006e 5B05     		lsls	r3, r3, #21
 490 0070 5B78     		ldrb	r3, [r3, #1]
 491 0072 002B     		cmp	r3, #0
 492 0074 04D0     		beq	.L28
 493 0076 B023     		movs	r3, #176
 494 0078 5B05     		lsls	r3, r3, #21
 495 007a 5B78     		ldrb	r3, [r3, #1]
 496 007c DBB2     		uxtb	r3, r3
 497 007e 00E0     		b	.L26
 498              	.L28:
 499 0080 2123     		movs	r3, #33
 500              	.L26:
 501              	.LBE11:
 502              	.LBE10:
 196:system_psoc63_cm0plus.c ****         {
 503              		.loc 1 196 0
 504 0082 212B     		cmp	r3, #33
 505 0084 03D1     		bne	.L25
 199:system_psoc63_cm0plus.c ****             /* Release IPC structure #7 to avoid deadlocks in case of SW or WDT reset during Deep-S
 506              		.loc 1 199 0
 507 0086 064B     		ldr	r3, .L29+16
 508 0088 0022     		movs	r2, #0
 509 008a DA60     		str	r2, [r3, #12]
 201:system_psoc63_cm0plus.c ****         }
 510              		.loc 1 201 0
 511 008c 5A60     		str	r2, [r3, #4]
 512              	.L25:
 205:system_psoc63_cm0plus.c **** 
 513              		.loc 1 205 0
 514              		@ sp needed
 515 008e 10BD     		pop	{r4, pc}
 516              	.L30:
 517              		.align	2
 518              	.L29:
 519 0090 00002640 		.word	1076232192
 520 0094 01000200 		.word	131073
 521 0098 84050000 		.word	1412
 522 009c 8C050000 		.word	1420
 523 00a0 E0002340 		.word	1076035808
 524              		.cfi_endproc
ARM GAS  C:\Users\cypress\AppData\Local\Temp\ccIrd8u1.s 			page 33


 525              	.LFE55:
 526              		.size	SystemInit, .-SystemInit
 527              		.section	.text.Cy_SysGetCM4Status,"ax",%progbits
 528              		.align	2
 529              		.global	Cy_SysGetCM4Status
 530              		.code	16
 531              		.thumb_func
 532              		.type	Cy_SysGetCM4Status, %function
 533              	Cy_SysGetCM4Status:
 534              	.LFB58:
 393:system_psoc63_cm0plus.c **** 
 394:system_psoc63_cm0plus.c **** 
 395:system_psoc63_cm0plus.c **** #if (CY_SYSTEM_CPU_CM0P == 1UL) || defined(CY_DOXYGEN)
 396:system_psoc63_cm0plus.c **** /*******************************************************************************
 397:system_psoc63_cm0plus.c **** * Function Name: Cy_SysGetCM4Status
 398:system_psoc63_cm0plus.c **** ****************************************************************************//**
 399:system_psoc63_cm0plus.c **** *
 400:system_psoc63_cm0plus.c **** * Returns the Cortex-M4 core power mode.
 401:system_psoc63_cm0plus.c **** *
 402:system_psoc63_cm0plus.c **** * \return \ref group_system_config_cm4_status_macro
 403:system_psoc63_cm0plus.c **** *
 404:system_psoc63_cm0plus.c **** *******************************************************************************/
 405:system_psoc63_cm0plus.c **** uint32_t Cy_SysGetCM4Status(void)
 406:system_psoc63_cm0plus.c **** {
 535              		.loc 1 406 0
 536              		.cfi_startproc
 537              		@ args = 0, pretend = 0, frame = 0
 538              		@ frame_needed = 0, uses_anonymous_args = 0
 539              		@ link register save eliminated.
 407:system_psoc63_cm0plus.c ****     uint32_t regValue;
 408:system_psoc63_cm0plus.c **** 
 409:system_psoc63_cm0plus.c ****     /* Get current power mode */
 410:system_psoc63_cm0plus.c ****     regValue = CPUSS->CM4_PWR_CTL & CPUSS_CM4_PWR_CTL_PWR_MODE_Msk;
 540              		.loc 1 410 0
 541 0000 8023     		movs	r3, #128
 542 0002 024A     		ldr	r2, .L32
 543 0004 D358     		ldr	r3, [r2, r3]
 544 0006 0320     		movs	r0, #3
 545 0008 1840     		ands	r0, r3
 546              	.LVL58:
 411:system_psoc63_cm0plus.c **** 
 412:system_psoc63_cm0plus.c ****     return (regValue);
 413:system_psoc63_cm0plus.c **** }
 547              		.loc 1 413 0
 548              		@ sp needed
 549 000a 7047     		bx	lr
 550              	.L33:
 551              		.align	2
 552              	.L32:
 553 000c 00002140 		.word	1075904512
 554              		.cfi_endproc
 555              	.LFE58:
 556              		.size	Cy_SysGetCM4Status, .-Cy_SysGetCM4Status
 557              		.section	.text.Cy_SysDisableCM4,"ax",%progbits
 558              		.align	2
 559              		.global	Cy_SysDisableCM4
 560              		.code	16
ARM GAS  C:\Users\cypress\AppData\Local\Temp\ccIrd8u1.s 			page 34


 561              		.thumb_func
 562              		.type	Cy_SysDisableCM4, %function
 563              	Cy_SysDisableCM4:
 564              	.LFB60:
 414:system_psoc63_cm0plus.c **** 
 415:system_psoc63_cm0plus.c **** 
 416:system_psoc63_cm0plus.c **** /*******************************************************************************
 417:system_psoc63_cm0plus.c **** * Function Name: Cy_SysEnableCM4
 418:system_psoc63_cm0plus.c **** ****************************************************************************//**
 419:system_psoc63_cm0plus.c **** *
 420:system_psoc63_cm0plus.c **** * Sets vector table base address and enables the Cortex-M4 core.
 421:system_psoc63_cm0plus.c **** *
 422:system_psoc63_cm0plus.c **** * \note If the CPU is already enabled, it is reset and then enabled.
 423:system_psoc63_cm0plus.c **** *
 424:system_psoc63_cm0plus.c **** * \param vectorTableOffset The offset of the vector table base address from
 425:system_psoc63_cm0plus.c **** * memory address 0x00000000. The offset should be multiple to 1024 bytes.
 426:system_psoc63_cm0plus.c **** *
 427:system_psoc63_cm0plus.c **** *******************************************************************************/
 428:system_psoc63_cm0plus.c **** void Cy_SysEnableCM4(uint32_t vectorTableOffset)
 429:system_psoc63_cm0plus.c **** {
 430:system_psoc63_cm0plus.c ****     uint32_t regValue;
 431:system_psoc63_cm0plus.c ****     uint32_t interruptState;
 432:system_psoc63_cm0plus.c ****     uint32_t cpuState;
 433:system_psoc63_cm0plus.c **** 
 434:system_psoc63_cm0plus.c ****     interruptState = Cy_SaveIRQ();
 435:system_psoc63_cm0plus.c **** 
 436:system_psoc63_cm0plus.c ****     cpuState = Cy_SysGetCM4Status();
 437:system_psoc63_cm0plus.c ****     if (CY_SYS_CM4_STATUS_ENABLED == cpuState)
 438:system_psoc63_cm0plus.c ****     {
 439:system_psoc63_cm0plus.c ****         Cy_SysResetCM4();
 440:system_psoc63_cm0plus.c ****     }
 441:system_psoc63_cm0plus.c **** 
 442:system_psoc63_cm0plus.c ****     CPUSS->CM4_VECTOR_TABLE_BASE = vectorTableOffset;
 443:system_psoc63_cm0plus.c **** 
 444:system_psoc63_cm0plus.c ****     regValue = CPUSS->CM4_PWR_CTL & ~(CPUSS_CM4_PWR_CTL_VECTKEYSTAT_Msk | CPUSS_CM4_PWR_CTL_PWR_MOD
 445:system_psoc63_cm0plus.c ****     regValue |= _VAL2FLD(CPUSS_CM4_PWR_CTL_VECTKEYSTAT, CY_SYS_CM4_PWR_CTL_KEY_OPEN);
 446:system_psoc63_cm0plus.c ****     regValue |= CY_SYS_CM4_STATUS_ENABLED;
 447:system_psoc63_cm0plus.c ****     CPUSS->CM4_PWR_CTL = regValue;
 448:system_psoc63_cm0plus.c **** 
 449:system_psoc63_cm0plus.c ****     while((CPUSS->CM4_STATUS & CPUSS_CM4_STATUS_PWR_DONE_Msk) == 0UL)
 450:system_psoc63_cm0plus.c ****     {
 451:system_psoc63_cm0plus.c ****         /* Wait for the power mode to take effect */
 452:system_psoc63_cm0plus.c ****     }
 453:system_psoc63_cm0plus.c **** 
 454:system_psoc63_cm0plus.c ****     Cy_RestoreIRQ(interruptState);
 455:system_psoc63_cm0plus.c **** }
 456:system_psoc63_cm0plus.c **** 
 457:system_psoc63_cm0plus.c **** 
 458:system_psoc63_cm0plus.c **** /*******************************************************************************
 459:system_psoc63_cm0plus.c **** * Function Name: Cy_SysDisableCM4
 460:system_psoc63_cm0plus.c **** ****************************************************************************//**
 461:system_psoc63_cm0plus.c **** *
 462:system_psoc63_cm0plus.c **** * Disables the Cortex-M4 core and waits for the mode to take the effect.
 463:system_psoc63_cm0plus.c **** *
 464:system_psoc63_cm0plus.c **** * \warning Do not call the function while the Cortex-M4 is executing because
 465:system_psoc63_cm0plus.c **** * such a call may corrupt/abort a pending bus-transaction by the CPU and cause
 466:system_psoc63_cm0plus.c **** * unexpected behavior in the system including a deadlock. Call the function
ARM GAS  C:\Users\cypress\AppData\Local\Temp\ccIrd8u1.s 			page 35


 467:system_psoc63_cm0plus.c **** * while the Cortex-M4 core is in the Sleep or Deep Sleep low-power mode. Use
 468:system_psoc63_cm0plus.c **** * the \ref group_syspm Power Management (syspm) API to put the CPU into the
 469:system_psoc63_cm0plus.c **** * low-power modes. Use the \ref Cy_SysPm_ReadStatus() to get a status of the
 470:system_psoc63_cm0plus.c **** * CPU.
 471:system_psoc63_cm0plus.c **** *
 472:system_psoc63_cm0plus.c **** *******************************************************************************/
 473:system_psoc63_cm0plus.c **** void Cy_SysDisableCM4(void)
 474:system_psoc63_cm0plus.c **** {
 565              		.loc 1 474 0
 566              		.cfi_startproc
 567              		@ args = 0, pretend = 0, frame = 0
 568              		@ frame_needed = 0, uses_anonymous_args = 0
 569 0000 10B5     		push	{r4, lr}
 570              		.cfi_def_cfa_offset 8
 571              		.cfi_offset 4, -8
 572              		.cfi_offset 14, -4
 475:system_psoc63_cm0plus.c ****     uint32_t interruptState;
 476:system_psoc63_cm0plus.c ****     uint32_t regValue;
 477:system_psoc63_cm0plus.c **** 
 478:system_psoc63_cm0plus.c ****     interruptState = Cy_SaveIRQ();
 573              		.loc 1 478 0
 574 0002 FFF7FEFF 		bl	Cy_SaveIRQ
 575              	.LVL59:
 479:system_psoc63_cm0plus.c **** 
 480:system_psoc63_cm0plus.c ****     regValue = CPUSS->CM4_PWR_CTL & ~(CPUSS_CM4_PWR_CTL_VECTKEYSTAT_Msk | CPUSS_CM4_PWR_CTL_PWR_MOD
 576              		.loc 1 480 0
 577 0006 0849     		ldr	r1, .L36
 578 0008 8022     		movs	r2, #128
 579 000a 8C58     		ldr	r4, [r1, r2]
 580 000c 074B     		ldr	r3, .L36+4
 581 000e 2340     		ands	r3, r4
 582              	.LVL60:
 481:system_psoc63_cm0plus.c ****     regValue |= _VAL2FLD(CPUSS_CM4_PWR_CTL_VECTKEYSTAT, CY_SYS_CM4_PWR_CTL_KEY_OPEN);
 583              		.loc 1 481 0
 584 0010 074C     		ldr	r4, .L36+8
 585 0012 2343     		orrs	r3, r4
 586              	.LVL61:
 482:system_psoc63_cm0plus.c ****     regValue |= CY_SYS_CM4_STATUS_DISABLED;
 483:system_psoc63_cm0plus.c ****     CPUSS->CM4_PWR_CTL = regValue;
 587              		.loc 1 483 0
 588 0014 8B50     		str	r3, [r1, r2]
 589              	.LVL62:
 590              	.L35:
 484:system_psoc63_cm0plus.c **** 
 485:system_psoc63_cm0plus.c ****     while((CPUSS->CM4_STATUS & CPUSS_CM4_STATUS_PWR_DONE_Msk) == 0UL)
 591              		.loc 1 485 0 discriminator 1
 592 0016 8823     		movs	r3, #136
 593 0018 034A     		ldr	r2, .L36
 594 001a D358     		ldr	r3, [r2, r3]
 595 001c DB06     		lsls	r3, r3, #27
 596 001e FAD5     		bpl	.L35
 486:system_psoc63_cm0plus.c ****     {
 487:system_psoc63_cm0plus.c ****         /* Wait for the power mode to take effect */
 488:system_psoc63_cm0plus.c ****     }
 489:system_psoc63_cm0plus.c **** 
 490:system_psoc63_cm0plus.c ****     Cy_RestoreIRQ(interruptState);
 597              		.loc 1 490 0
ARM GAS  C:\Users\cypress\AppData\Local\Temp\ccIrd8u1.s 			page 36


 598 0020 FFF7FEFF 		bl	Cy_RestoreIRQ
 599              	.LVL63:
 491:system_psoc63_cm0plus.c **** }
 600              		.loc 1 491 0
 601              		@ sp needed
 602 0024 10BD     		pop	{r4, pc}
 603              	.L37:
 604 0026 C046     		.align	2
 605              	.L36:
 606 0028 00002140 		.word	1075904512
 607 002c FCFF0000 		.word	65532
 608 0030 0000FA05 		.word	100270080
 609              		.cfi_endproc
 610              	.LFE60:
 611              		.size	Cy_SysDisableCM4, .-Cy_SysDisableCM4
 612              		.section	.text.Cy_SysRetainCM4,"ax",%progbits
 613              		.align	2
 614              		.global	Cy_SysRetainCM4
 615              		.code	16
 616              		.thumb_func
 617              		.type	Cy_SysRetainCM4, %function
 618              	Cy_SysRetainCM4:
 619              	.LFB61:
 492:system_psoc63_cm0plus.c **** 
 493:system_psoc63_cm0plus.c **** 
 494:system_psoc63_cm0plus.c **** /*******************************************************************************
 495:system_psoc63_cm0plus.c **** * Function Name: Cy_SysRetainCM4
 496:system_psoc63_cm0plus.c **** ****************************************************************************//**
 497:system_psoc63_cm0plus.c **** *
 498:system_psoc63_cm0plus.c **** * Retains the Cortex-M4 core and exists without waiting for the mode to take
 499:system_psoc63_cm0plus.c **** * effect.
 500:system_psoc63_cm0plus.c **** *
 501:system_psoc63_cm0plus.c **** * \note The retained mode can be entered only from the enabled mode.
 502:system_psoc63_cm0plus.c **** *
 503:system_psoc63_cm0plus.c **** * \warning Do not call the function while the Cortex-M4 is executing because
 504:system_psoc63_cm0plus.c **** * such a call may corrupt/abort a pending bus-transaction by the CPU and cause
 505:system_psoc63_cm0plus.c **** * unexpected behavior in the system including a deadlock. Call the function
 506:system_psoc63_cm0plus.c **** * while the Cortex-M4 core is in the Sleep or Deep Sleep low-power mode. Use
 507:system_psoc63_cm0plus.c **** * the \ref group_syspm Power Management (syspm) API to put the CPU into the
 508:system_psoc63_cm0plus.c **** * low-power modes. Use the \ref Cy_SysPm_ReadStatus() to get a status of the CPU.
 509:system_psoc63_cm0plus.c **** *
 510:system_psoc63_cm0plus.c **** *******************************************************************************/
 511:system_psoc63_cm0plus.c **** void Cy_SysRetainCM4(void)
 512:system_psoc63_cm0plus.c **** {
 620              		.loc 1 512 0
 621              		.cfi_startproc
 622              		@ args = 0, pretend = 0, frame = 0
 623              		@ frame_needed = 0, uses_anonymous_args = 0
 624 0000 10B5     		push	{r4, lr}
 625              		.cfi_def_cfa_offset 8
 626              		.cfi_offset 4, -8
 627              		.cfi_offset 14, -4
 513:system_psoc63_cm0plus.c ****     uint32_t interruptState;
 514:system_psoc63_cm0plus.c ****     uint32_t regValue;
 515:system_psoc63_cm0plus.c **** 
 516:system_psoc63_cm0plus.c ****     interruptState = Cy_SaveIRQ();
 628              		.loc 1 516 0
ARM GAS  C:\Users\cypress\AppData\Local\Temp\ccIrd8u1.s 			page 37


 629 0002 FFF7FEFF 		bl	Cy_SaveIRQ
 630              	.LVL64:
 517:system_psoc63_cm0plus.c **** 
 518:system_psoc63_cm0plus.c ****     regValue = CPUSS->CM4_PWR_CTL & ~(CPUSS_CM4_PWR_CTL_VECTKEYSTAT_Msk | CPUSS_CM4_PWR_CTL_PWR_MOD
 631              		.loc 1 518 0
 632 0006 0549     		ldr	r1, .L39
 633 0008 8022     		movs	r2, #128
 634 000a 8C58     		ldr	r4, [r1, r2]
 635 000c 044B     		ldr	r3, .L39+4
 636 000e 2340     		ands	r3, r4
 637              	.LVL65:
 519:system_psoc63_cm0plus.c ****     regValue |= _VAL2FLD(CPUSS_CM4_PWR_CTL_VECTKEYSTAT, CY_SYS_CM4_PWR_CTL_KEY_OPEN);
 520:system_psoc63_cm0plus.c ****     regValue |= CY_SYS_CM4_STATUS_RETAINED;
 638              		.loc 1 520 0
 639 0010 044C     		ldr	r4, .L39+8
 640 0012 2343     		orrs	r3, r4
 641              	.LVL66:
 521:system_psoc63_cm0plus.c ****     CPUSS->CM4_PWR_CTL = regValue;
 642              		.loc 1 521 0
 643 0014 8B50     		str	r3, [r1, r2]
 522:system_psoc63_cm0plus.c **** 
 523:system_psoc63_cm0plus.c ****     Cy_RestoreIRQ(interruptState);
 644              		.loc 1 523 0
 645 0016 FFF7FEFF 		bl	Cy_RestoreIRQ
 646              	.LVL67:
 524:system_psoc63_cm0plus.c **** }
 647              		.loc 1 524 0
 648              		@ sp needed
 649 001a 10BD     		pop	{r4, pc}
 650              	.L40:
 651              		.align	2
 652              	.L39:
 653 001c 00002140 		.word	1075904512
 654 0020 FCFF0000 		.word	65532
 655 0024 0200FA05 		.word	100270082
 656              		.cfi_endproc
 657              	.LFE61:
 658              		.size	Cy_SysRetainCM4, .-Cy_SysRetainCM4
 659              		.section	.text.Cy_SysResetCM4,"ax",%progbits
 660              		.align	2
 661              		.global	Cy_SysResetCM4
 662              		.code	16
 663              		.thumb_func
 664              		.type	Cy_SysResetCM4, %function
 665              	Cy_SysResetCM4:
 666              	.LFB62:
 525:system_psoc63_cm0plus.c **** 
 526:system_psoc63_cm0plus.c **** 
 527:system_psoc63_cm0plus.c **** /*******************************************************************************
 528:system_psoc63_cm0plus.c **** * Function Name: Cy_SysResetCM4
 529:system_psoc63_cm0plus.c **** ****************************************************************************//**
 530:system_psoc63_cm0plus.c **** *
 531:system_psoc63_cm0plus.c **** * Resets the Cortex-M4 core and waits for the mode to take the effect.
 532:system_psoc63_cm0plus.c **** *
 533:system_psoc63_cm0plus.c **** * \note The reset mode can not be entered from the retained mode.
 534:system_psoc63_cm0plus.c **** *
 535:system_psoc63_cm0plus.c **** * \warning Do not call the function while the Cortex-M4 is executing because
ARM GAS  C:\Users\cypress\AppData\Local\Temp\ccIrd8u1.s 			page 38


 536:system_psoc63_cm0plus.c **** * such a call may corrupt/abort a pending bus-transaction by the CPU and cause
 537:system_psoc63_cm0plus.c **** * unexpected behavior in the system including a deadlock. Call the function
 538:system_psoc63_cm0plus.c **** * while the Cortex-M4 core is in the Sleep or Deep Sleep low-power mode. Use
 539:system_psoc63_cm0plus.c **** * the \ref group_syspm Power Management (syspm) API to put the CPU into the
 540:system_psoc63_cm0plus.c **** * low-power modes. Use the \ref Cy_SysPm_ReadStatus() to get a status of the CPU.
 541:system_psoc63_cm0plus.c **** *
 542:system_psoc63_cm0plus.c **** *******************************************************************************/
 543:system_psoc63_cm0plus.c **** void Cy_SysResetCM4(void)
 544:system_psoc63_cm0plus.c **** {
 667              		.loc 1 544 0
 668              		.cfi_startproc
 669              		@ args = 0, pretend = 0, frame = 0
 670              		@ frame_needed = 0, uses_anonymous_args = 0
 671 0000 10B5     		push	{r4, lr}
 672              		.cfi_def_cfa_offset 8
 673              		.cfi_offset 4, -8
 674              		.cfi_offset 14, -4
 545:system_psoc63_cm0plus.c ****     uint32_t interruptState;
 546:system_psoc63_cm0plus.c ****     uint32_t regValue;
 547:system_psoc63_cm0plus.c **** 
 548:system_psoc63_cm0plus.c ****     interruptState = Cy_SaveIRQ();
 675              		.loc 1 548 0
 676 0002 FFF7FEFF 		bl	Cy_SaveIRQ
 677              	.LVL68:
 549:system_psoc63_cm0plus.c **** 
 550:system_psoc63_cm0plus.c ****     regValue = CPUSS->CM4_PWR_CTL & ~(CPUSS_CM4_PWR_CTL_VECTKEYSTAT_Msk | CPUSS_CM4_PWR_CTL_PWR_MOD
 678              		.loc 1 550 0
 679 0006 0849     		ldr	r1, .L43
 680 0008 8022     		movs	r2, #128
 681 000a 8C58     		ldr	r4, [r1, r2]
 682 000c 074B     		ldr	r3, .L43+4
 683 000e 2340     		ands	r3, r4
 684              	.LVL69:
 551:system_psoc63_cm0plus.c ****     regValue |= _VAL2FLD(CPUSS_CM4_PWR_CTL_VECTKEYSTAT, CY_SYS_CM4_PWR_CTL_KEY_OPEN);
 552:system_psoc63_cm0plus.c ****     regValue |= CY_SYS_CM4_STATUS_RESET;
 685              		.loc 1 552 0
 686 0010 074C     		ldr	r4, .L43+8
 687 0012 2343     		orrs	r3, r4
 688              	.LVL70:
 553:system_psoc63_cm0plus.c ****     CPUSS->CM4_PWR_CTL = regValue;
 689              		.loc 1 553 0
 690 0014 8B50     		str	r3, [r1, r2]
 691              	.LVL71:
 692              	.L42:
 554:system_psoc63_cm0plus.c **** 
 555:system_psoc63_cm0plus.c ****     while((CPUSS->CM4_STATUS & CPUSS_CM4_STATUS_PWR_DONE_Msk) == 0UL)
 693              		.loc 1 555 0 discriminator 1
 694 0016 8823     		movs	r3, #136
 695 0018 034A     		ldr	r2, .L43
 696 001a D358     		ldr	r3, [r2, r3]
 697 001c DB06     		lsls	r3, r3, #27
 698 001e FAD5     		bpl	.L42
 556:system_psoc63_cm0plus.c ****     {
 557:system_psoc63_cm0plus.c ****         /* Wait for the power mode to take effect */
 558:system_psoc63_cm0plus.c ****     }
 559:system_psoc63_cm0plus.c **** 
 560:system_psoc63_cm0plus.c ****     Cy_RestoreIRQ(interruptState);
ARM GAS  C:\Users\cypress\AppData\Local\Temp\ccIrd8u1.s 			page 39


 699              		.loc 1 560 0
 700 0020 FFF7FEFF 		bl	Cy_RestoreIRQ
 701              	.LVL72:
 561:system_psoc63_cm0plus.c **** }
 702              		.loc 1 561 0
 703              		@ sp needed
 704 0024 10BD     		pop	{r4, pc}
 705              	.L44:
 706 0026 C046     		.align	2
 707              	.L43:
 708 0028 00002140 		.word	1075904512
 709 002c FCFF0000 		.word	65532
 710 0030 0100FA05 		.word	100270081
 711              		.cfi_endproc
 712              	.LFE62:
 713              		.size	Cy_SysResetCM4, .-Cy_SysResetCM4
 714              		.section	.text.Cy_SysEnableCM4,"ax",%progbits
 715              		.align	2
 716              		.global	Cy_SysEnableCM4
 717              		.code	16
 718              		.thumb_func
 719              		.type	Cy_SysEnableCM4, %function
 720              	Cy_SysEnableCM4:
 721              	.LFB59:
 429:system_psoc63_cm0plus.c ****     uint32_t regValue;
 722              		.loc 1 429 0
 723              		.cfi_startproc
 724              		@ args = 0, pretend = 0, frame = 0
 725              		@ frame_needed = 0, uses_anonymous_args = 0
 726              	.LVL73:
 727 0000 70B5     		push	{r4, r5, r6, lr}
 728              		.cfi_def_cfa_offset 16
 729              		.cfi_offset 4, -16
 730              		.cfi_offset 5, -12
 731              		.cfi_offset 6, -8
 732              		.cfi_offset 14, -4
 733 0002 0500     		movs	r5, r0
 434:system_psoc63_cm0plus.c **** 
 734              		.loc 1 434 0
 735 0004 FFF7FEFF 		bl	Cy_SaveIRQ
 736              	.LVL74:
 737 0008 0400     		movs	r4, r0
 738              	.LVL75:
 436:system_psoc63_cm0plus.c ****     if (CY_SYS_CM4_STATUS_ENABLED == cpuState)
 739              		.loc 1 436 0
 740 000a FFF7FEFF 		bl	Cy_SysGetCM4Status
 741              	.LVL76:
 437:system_psoc63_cm0plus.c ****     {
 742              		.loc 1 437 0
 743 000e 0328     		cmp	r0, #3
 744 0010 01D1     		bne	.L46
 439:system_psoc63_cm0plus.c ****     }
 745              		.loc 1 439 0
 746 0012 FFF7FEFF 		bl	Cy_SysResetCM4
 747              	.LVL77:
 748              	.L46:
 442:system_psoc63_cm0plus.c **** 
ARM GAS  C:\Users\cypress\AppData\Local\Temp\ccIrd8u1.s 			page 40


 749              		.loc 1 442 0
 750 0016 0A4A     		ldr	r2, .L48
 751 0018 B023     		movs	r3, #176
 752 001a 9B00     		lsls	r3, r3, #2
 753 001c D550     		str	r5, [r2, r3]
 444:system_psoc63_cm0plus.c ****     regValue |= _VAL2FLD(CPUSS_CM4_PWR_CTL_VECTKEYSTAT, CY_SYS_CM4_PWR_CTL_KEY_OPEN);
 754              		.loc 1 444 0
 755 001e 8021     		movs	r1, #128
 756 0020 5058     		ldr	r0, [r2, r1]
 757 0022 084B     		ldr	r3, .L48+4
 758 0024 0340     		ands	r3, r0
 759              	.LVL78:
 446:system_psoc63_cm0plus.c ****     CPUSS->CM4_PWR_CTL = regValue;
 760              		.loc 1 446 0
 761 0026 0848     		ldr	r0, .L48+8
 762 0028 0343     		orrs	r3, r0
 763              	.LVL79:
 447:system_psoc63_cm0plus.c **** 
 764              		.loc 1 447 0
 765 002a 5350     		str	r3, [r2, r1]
 766              	.LVL80:
 767              	.L47:
 449:system_psoc63_cm0plus.c ****     {
 768              		.loc 1 449 0 discriminator 1
 769 002c 8823     		movs	r3, #136
 770 002e 044A     		ldr	r2, .L48
 771 0030 D358     		ldr	r3, [r2, r3]
 772 0032 DB06     		lsls	r3, r3, #27
 773 0034 FAD5     		bpl	.L47
 454:system_psoc63_cm0plus.c **** }
 774              		.loc 1 454 0
 775 0036 2000     		movs	r0, r4
 776 0038 FFF7FEFF 		bl	Cy_RestoreIRQ
 777              	.LVL81:
 455:system_psoc63_cm0plus.c **** 
 778              		.loc 1 455 0
 779              		@ sp needed
 780              	.LVL82:
 781              	.LVL83:
 782 003c 70BD     		pop	{r4, r5, r6, pc}
 783              	.L49:
 784 003e C046     		.align	2
 785              	.L48:
 786 0040 00002140 		.word	1075904512
 787 0044 FCFF0000 		.word	65532
 788 0048 0300FA05 		.word	100270083
 789              		.cfi_endproc
 790              	.LFE59:
 791              		.size	Cy_SysEnableCM4, .-Cy_SysEnableCM4
 792              		.global	cy_delay32kMs
 793              		.global	cy_delayFreqMhz
 794              		.global	cy_delayFreqKhz
 795              		.global	cy_delayFreqHz
 796              		.global	cy_BleEcoClockFreqHz
 797              		.global	cy_PeriClkFreqHz
 798              		.global	cy_Hfclk0FreqHz
 799              		.global	SystemCoreClock
ARM GAS  C:\Users\cypress\AppData\Local\Temp\ccIrd8u1.s 			page 41


 800              		.data
 801              		.align	2
 802              		.set	.LANCHOR0,. + 0
 803              		.type	cy_BleEcoClockFreqHz, %object
 804              		.size	cy_BleEcoClockFreqHz, 4
 805              	cy_BleEcoClockFreqHz:
 806 0000 0048E801 		.word	32000000
 807              		.type	cy_Hfclk0FreqHz, %object
 808              		.size	cy_Hfclk0FreqHz, 4
 809              	cy_Hfclk0FreqHz:
 810 0004 00127A00 		.word	8000000
 811              		.type	cy_PeriClkFreqHz, %object
 812              		.size	cy_PeriClkFreqHz, 4
 813              	cy_PeriClkFreqHz:
 814 0008 00093D00 		.word	4000000
 815              		.type	SystemCoreClock, %object
 816              		.size	SystemCoreClock, 4
 817              	SystemCoreClock:
 818 000c 00093D00 		.word	4000000
 819              		.type	cy_delayFreqHz, %object
 820              		.size	cy_delayFreqHz, 4
 821              	cy_delayFreqHz:
 822 0010 00093D00 		.word	4000000
 823              		.type	cy_delayFreqMhz, %object
 824              		.size	cy_delayFreqMhz, 1
 825              	cy_delayFreqMhz:
 826 0014 04       		.byte	4
 827 0015 000000   		.space	3
 828              		.type	cy_delayFreqKhz, %object
 829              		.size	cy_delayFreqKhz, 4
 830              	cy_delayFreqKhz:
 831 0018 A00F0000 		.word	4000
 832              		.type	cy_delay32kMs, %object
 833              		.size	cy_delay32kMs, 4
 834              	cy_delay32kMs:
 835 001c 0000D007 		.word	131072000
 836              		.text
 837              	.Letext0:
 838              		.file 3 "c:\\program files (x86)\\cypress\\psoc creator\\4.2\\psoc creator\\import\\gnu\\arm\\5.4.
 839              		.file 4 "c:\\program files (x86)\\cypress\\psoc creator\\4.2\\psoc creator\\import\\gnu\\arm\\5.4.
 840              		.file 5 "Generated_Source\\PSoC6\\pdl\\devices/psoc6/ip/cyip_sflash.h"
 841              		.file 6 "Generated_Source\\PSoC6\\pdl\\devices/psoc6/ip/cyip_cpuss.h"
 842              		.file 7 "Generated_Source\\PSoC6\\pdl\\devices/psoc6/ip/cyip_ipc.h"
 843              		.file 8 "Generated_Source\\PSoC6\\pdl\\devices/psoc6/ip/cyip_srss.h"
 844              		.file 9 "./cy_ipc_config.h"
 845              		.file 10 "Generated_Source\\PSoC6\\pdl\\drivers/peripheral/flash/cy_flash.h"
 846              		.file 11 "system_psoc63.h"
 847              		.section	.debug_info,"",%progbits
 848              	.Ldebug_info0:
 849 0000 E1180000 		.4byte	0x18e1
 850 0004 0400     		.2byte	0x4
 851 0006 00000000 		.4byte	.Ldebug_abbrev0
 852 000a 04       		.byte	0x4
 853 000b 01       		.uleb128 0x1
 854 000c 9A040000 		.4byte	.LASF297
 855 0010 0C       		.byte	0xc
 856 0011 C60E0000 		.4byte	.LASF298
ARM GAS  C:\Users\cypress\AppData\Local\Temp\ccIrd8u1.s 			page 42


 857 0015 2C050000 		.4byte	.LASF299
 858 0019 18000000 		.4byte	.Ldebug_ranges0+0x18
 859 001d 00000000 		.4byte	0
 860 0021 00000000 		.4byte	.Ldebug_line0
 861 0025 02       		.uleb128 0x2
 862 0026 01       		.byte	0x1
 863 0027 06       		.byte	0x6
 864 0028 FE100000 		.4byte	.LASF0
 865 002c 03       		.uleb128 0x3
 866 002d 0A0E0000 		.4byte	.LASF3
 867 0031 03       		.byte	0x3
 868 0032 1D       		.byte	0x1d
 869 0033 37000000 		.4byte	0x37
 870 0037 02       		.uleb128 0x2
 871 0038 01       		.byte	0x1
 872 0039 08       		.byte	0x8
 873 003a 690F0000 		.4byte	.LASF1
 874 003e 02       		.uleb128 0x2
 875 003f 02       		.byte	0x2
 876 0040 05       		.byte	0x5
 877 0041 F50C0000 		.4byte	.LASF2
 878 0045 03       		.uleb128 0x3
 879 0046 29060000 		.4byte	.LASF4
 880 004a 03       		.byte	0x3
 881 004b 2B       		.byte	0x2b
 882 004c 50000000 		.4byte	0x50
 883 0050 02       		.uleb128 0x2
 884 0051 02       		.byte	0x2
 885 0052 07       		.byte	0x7
 886 0053 1C110000 		.4byte	.LASF5
 887 0057 02       		.uleb128 0x2
 888 0058 04       		.byte	0x4
 889 0059 05       		.byte	0x5
 890 005a 620D0000 		.4byte	.LASF6
 891 005e 03       		.uleb128 0x3
 892 005f 800F0000 		.4byte	.LASF7
 893 0063 03       		.byte	0x3
 894 0064 41       		.byte	0x41
 895 0065 69000000 		.4byte	0x69
 896 0069 02       		.uleb128 0x2
 897 006a 04       		.byte	0x4
 898 006b 07       		.byte	0x7
 899 006c A60E0000 		.4byte	.LASF8
 900 0070 02       		.uleb128 0x2
 901 0071 08       		.byte	0x8
 902 0072 05       		.byte	0x5
 903 0073 2A0A0000 		.4byte	.LASF9
 904 0077 02       		.uleb128 0x2
 905 0078 08       		.byte	0x8
 906 0079 07       		.byte	0x7
 907 007a CC050000 		.4byte	.LASF10
 908 007e 04       		.uleb128 0x4
 909 007f 04       		.byte	0x4
 910 0080 05       		.byte	0x5
 911 0081 696E7400 		.ascii	"int\000"
 912 0085 02       		.uleb128 0x2
 913 0086 04       		.byte	0x4
ARM GAS  C:\Users\cypress\AppData\Local\Temp\ccIrd8u1.s 			page 43


 914 0087 07       		.byte	0x7
 915 0088 53010000 		.4byte	.LASF11
 916 008c 03       		.uleb128 0x3
 917 008d C9090000 		.4byte	.LASF12
 918 0091 04       		.byte	0x4
 919 0092 18       		.byte	0x18
 920 0093 2C000000 		.4byte	0x2c
 921 0097 03       		.uleb128 0x3
 922 0098 580F0000 		.4byte	.LASF13
 923 009c 04       		.byte	0x4
 924 009d 24       		.byte	0x24
 925 009e 45000000 		.4byte	0x45
 926 00a2 03       		.uleb128 0x3
 927 00a3 17040000 		.4byte	.LASF14
 928 00a7 04       		.byte	0x4
 929 00a8 30       		.byte	0x30
 930 00a9 5E000000 		.4byte	0x5e
 931 00ad 02       		.uleb128 0x2
 932 00ae 04       		.byte	0x4
 933 00af 07       		.byte	0x7
 934 00b0 EC0A0000 		.4byte	.LASF15
 935 00b4 05       		.uleb128 0x5
 936 00b5 A2000000 		.4byte	0xa2
 937 00b9 06       		.uleb128 0x6
 938 00ba B4000000 		.4byte	0xb4
 939 00be 07       		.uleb128 0x7
 940 00bf 0080     		.2byte	0x8000
 941 00c1 05       		.byte	0x5
 942 00c2 21       		.byte	0x21
 943 00c3 72060000 		.4byte	0x672
 944 00c7 08       		.uleb128 0x8
 945 00c8 08000000 		.4byte	.LASF16
 946 00cc 05       		.byte	0x5
 947 00cd 22       		.byte	0x22
 948 00ce 77060000 		.4byte	0x677
 949 00d2 00       		.byte	0
 950 00d3 08       		.uleb128 0x8
 951 00d4 B4030000 		.4byte	.LASF17
 952 00d8 05       		.byte	0x5
 953 00d9 23       		.byte	0x23
 954 00da 72060000 		.4byte	0x672
 955 00de 01       		.byte	0x1
 956 00df 08       		.uleb128 0x8
 957 00e0 140E0000 		.4byte	.LASF18
 958 00e4 05       		.byte	0x5
 959 00e5 24       		.byte	0x24
 960 00e6 7C060000 		.4byte	0x67c
 961 00ea 02       		.byte	0x2
 962 00eb 08       		.uleb128 0x8
 963 00ec B90C0000 		.4byte	.LASF19
 964 00f0 05       		.byte	0x5
 965 00f1 25       		.byte	0x25
 966 00f2 96060000 		.4byte	0x696
 967 00f6 04       		.byte	0x4
 968 00f7 08       		.uleb128 0x8
 969 00f8 42060000 		.4byte	.LASF20
 970 00fc 05       		.byte	0x5
ARM GAS  C:\Users\cypress\AppData\Local\Temp\ccIrd8u1.s 			page 44


 971 00fd 26       		.byte	0x26
 972 00fe 7C060000 		.4byte	0x67c
 973 0102 0C       		.byte	0xc
 974 0103 08       		.uleb128 0x8
 975 0104 C30C0000 		.4byte	.LASF21
 976 0108 05       		.byte	0x5
 977 0109 27       		.byte	0x27
 978 010a B6060000 		.4byte	0x6b6
 979 010e 0E       		.byte	0xe
 980 010f 09       		.uleb128 0x9
 981 0110 860E0000 		.4byte	.LASF22
 982 0114 05       		.byte	0x5
 983 0115 28       		.byte	0x28
 984 0116 CB060000 		.4byte	0x6cb
 985 011a 0006     		.2byte	0x600
 986 011c 09       		.uleb128 0x9
 987 011d 5A0C0000 		.4byte	.LASF23
 988 0121 05       		.byte	0x5
 989 0122 29       		.byte	0x29
 990 0123 72060000 		.4byte	0x672
 991 0127 0306     		.2byte	0x603
 992 0129 09       		.uleb128 0x9
 993 012a 23010000 		.4byte	.LASF24
 994 012e 05       		.byte	0x5
 995 012f 2A       		.byte	0x2a
 996 0130 72060000 		.4byte	0x672
 997 0134 0406     		.2byte	0x604
 998 0136 09       		.uleb128 0x9
 999 0137 29010000 		.4byte	.LASF25
 1000 013b 05       		.byte	0x5
 1001 013c 2B       		.byte	0x2b
 1002 013d 72060000 		.4byte	0x672
 1003 0141 0506     		.2byte	0x605
 1004 0143 09       		.uleb128 0x9
 1005 0144 3F040000 		.4byte	.LASF26
 1006 0148 05       		.byte	0x5
 1007 0149 2C       		.byte	0x2c
 1008 014a 72060000 		.4byte	0x672
 1009 014e 0606     		.2byte	0x606
 1010 0150 09       		.uleb128 0x9
 1011 0151 4D0B0000 		.4byte	.LASF27
 1012 0155 05       		.byte	0x5
 1013 0156 2D       		.byte	0x2d
 1014 0157 72060000 		.4byte	0x672
 1015 015b 0706     		.2byte	0x607
 1016 015d 09       		.uleb128 0x9
 1017 015e 00000000 		.4byte	.LASF28
 1018 0162 05       		.byte	0x5
 1019 0163 2E       		.byte	0x2e
 1020 0164 72060000 		.4byte	0x672
 1021 0168 0806     		.2byte	0x608
 1022 016a 09       		.uleb128 0x9
 1023 016b FE070000 		.4byte	.LASF29
 1024 016f 05       		.byte	0x5
 1025 0170 2F       		.byte	0x2f
 1026 0171 72060000 		.4byte	0x672
 1027 0175 0906     		.2byte	0x609
ARM GAS  C:\Users\cypress\AppData\Local\Temp\ccIrd8u1.s 			page 45


 1028 0177 09       		.uleb128 0x9
 1029 0178 570B0000 		.4byte	.LASF30
 1030 017c 05       		.byte	0x5
 1031 017d 30       		.byte	0x30
 1032 017e 72060000 		.4byte	0x672
 1033 0182 0A06     		.2byte	0x60a
 1034 0184 09       		.uleb128 0x9
 1035 0185 CD0C0000 		.4byte	.LASF31
 1036 0189 05       		.byte	0x5
 1037 018a 31       		.byte	0x31
 1038 018b E5060000 		.4byte	0x6e5
 1039 018f 0B06     		.2byte	0x60b
 1040 0191 09       		.uleb128 0x9
 1041 0192 8B0F0000 		.4byte	.LASF32
 1042 0196 05       		.byte	0x5
 1043 0197 32       		.byte	0x32
 1044 0198 7C060000 		.4byte	0x67c
 1045 019c 4806     		.2byte	0x648
 1046 019e 09       		.uleb128 0x9
 1047 019f CC010000 		.4byte	.LASF33
 1048 01a3 05       		.byte	0x5
 1049 01a4 33       		.byte	0x33
 1050 01a5 7C060000 		.4byte	0x67c
 1051 01a9 4A06     		.2byte	0x64a
 1052 01ab 09       		.uleb128 0x9
 1053 01ac D70C0000 		.4byte	.LASF34
 1054 01b0 05       		.byte	0x5
 1055 01b1 34       		.byte	0x34
 1056 01b2 FF060000 		.4byte	0x6ff
 1057 01b6 4C06     		.2byte	0x64c
 1058 01b8 09       		.uleb128 0x9
 1059 01b9 380A0000 		.4byte	.LASF35
 1060 01bd 05       		.byte	0x5
 1061 01be 35       		.byte	0x35
 1062 01bf B4000000 		.4byte	0xb4
 1063 01c3 6C06     		.2byte	0x66c
 1064 01c5 09       		.uleb128 0x9
 1065 01c6 E10C0000 		.4byte	.LASF36
 1066 01ca 05       		.byte	0x5
 1067 01cb 36       		.byte	0x36
 1068 01cc 19070000 		.4byte	0x719
 1069 01d0 7006     		.2byte	0x670
 1070 01d2 09       		.uleb128 0x9
 1071 01d3 8C010000 		.4byte	.LASF37
 1072 01d7 05       		.byte	0x5
 1073 01d8 37       		.byte	0x37
 1074 01d9 72060000 		.4byte	0x672
 1075 01dd 4007     		.2byte	0x740
 1076 01df 09       		.uleb128 0x9
 1077 01e0 B9110000 		.4byte	.LASF38
 1078 01e4 05       		.byte	0x5
 1079 01e5 38       		.byte	0x38
 1080 01e6 72060000 		.4byte	0x672
 1081 01ea 4107     		.2byte	0x741
 1082 01ec 09       		.uleb128 0x9
 1083 01ed EB0C0000 		.4byte	.LASF39
 1084 01f1 05       		.byte	0x5
ARM GAS  C:\Users\cypress\AppData\Local\Temp\ccIrd8u1.s 			page 46


 1085 01f2 39       		.byte	0x39
 1086 01f3 33070000 		.4byte	0x733
 1087 01f7 4207     		.2byte	0x742
 1088 01f9 09       		.uleb128 0x9
 1089 01fa 5F070000 		.4byte	.LASF40
 1090 01fe 05       		.byte	0x5
 1091 01ff 3A       		.byte	0x3a
 1092 0200 48070000 		.4byte	0x748
 1093 0204 0008     		.2byte	0x800
 1094 0206 09       		.uleb128 0x9
 1095 0207 9F0F0000 		.4byte	.LASF41
 1096 020b 05       		.byte	0x5
 1097 020c 3B       		.byte	0x3b
 1098 020d 4D070000 		.4byte	0x74d
 1099 0211 000A     		.2byte	0xa00
 1100 0213 09       		.uleb128 0x9
 1101 0214 AE0F0000 		.4byte	.LASF42
 1102 0218 05       		.byte	0x5
 1103 0219 3C       		.byte	0x3c
 1104 021a 52070000 		.4byte	0x752
 1105 021e 000C     		.2byte	0xc00
 1106 0220 09       		.uleb128 0x9
 1107 0221 BD0F0000 		.4byte	.LASF43
 1108 0225 05       		.byte	0x5
 1109 0226 3D       		.byte	0x3d
 1110 0227 57070000 		.4byte	0x757
 1111 022b 000E     		.2byte	0xe00
 1112 022d 09       		.uleb128 0x9
 1113 022e D6110000 		.4byte	.LASF44
 1114 0232 05       		.byte	0x5
 1115 0233 3E       		.byte	0x3e
 1116 0234 72070000 		.4byte	0x772
 1117 0238 0010     		.2byte	0x1000
 1118 023a 09       		.uleb128 0x9
 1119 023b CC0F0000 		.4byte	.LASF45
 1120 023f 05       		.byte	0x5
 1121 0240 3F       		.byte	0x3f
 1122 0241 87070000 		.4byte	0x787
 1123 0245 B814     		.2byte	0x14b8
 1124 0247 09       		.uleb128 0x9
 1125 0248 3D0E0000 		.4byte	.LASF46
 1126 024c 05       		.byte	0x5
 1127 024d 40       		.byte	0x40
 1128 024e 8C070000 		.4byte	0x78c
 1129 0252 C814     		.2byte	0x14c8
 1130 0254 09       		.uleb128 0x9
 1131 0255 1B0C0000 		.4byte	.LASF47
 1132 0259 05       		.byte	0x5
 1133 025a 41       		.byte	0x41
 1134 025b A1070000 		.4byte	0x7a1
 1135 025f D814     		.2byte	0x14d8
 1136 0261 09       		.uleb128 0x9
 1137 0262 65000000 		.4byte	.LASF48
 1138 0266 05       		.byte	0x5
 1139 0267 42       		.byte	0x42
 1140 0268 A6070000 		.4byte	0x7a6
 1141 026c 1815     		.2byte	0x1518
ARM GAS  C:\Users\cypress\AppData\Local\Temp\ccIrd8u1.s 			page 47


 1142 026e 09       		.uleb128 0x9
 1143 026f 37030000 		.4byte	.LASF49
 1144 0273 05       		.byte	0x5
 1145 0274 43       		.byte	0x43
 1146 0275 AB070000 		.4byte	0x7ab
 1147 0279 5815     		.2byte	0x1558
 1148 027b 09       		.uleb128 0x9
 1149 027c 640C0000 		.4byte	.LASF50
 1150 0280 05       		.byte	0x5
 1151 0281 44       		.byte	0x44
 1152 0282 B0070000 		.4byte	0x7b0
 1153 0286 9815     		.2byte	0x1598
 1154 0288 09       		.uleb128 0x9
 1155 0289 26070000 		.4byte	.LASF51
 1156 028d 05       		.byte	0x5
 1157 028e 45       		.byte	0x45
 1158 028f B5070000 		.4byte	0x7b5
 1159 0293 D815     		.2byte	0x15d8
 1160 0295 09       		.uleb128 0x9
 1161 0296 FF0C0000 		.4byte	.LASF52
 1162 029a 05       		.byte	0x5
 1163 029b 46       		.byte	0x46
 1164 029c CF070000 		.4byte	0x7cf
 1165 02a0 1816     		.2byte	0x1618
 1166 02a2 09       		.uleb128 0x9
 1167 02a3 3B0C0000 		.4byte	.LASF53
 1168 02a7 05       		.byte	0x5
 1169 02a8 47       		.byte	0x47
 1170 02a9 7C060000 		.4byte	0x67c
 1171 02ad 0018     		.2byte	0x1800
 1172 02af 09       		.uleb128 0x9
 1173 02b0 090D0000 		.4byte	.LASF54
 1174 02b4 05       		.byte	0x5
 1175 02b5 48       		.byte	0x48
 1176 02b6 AC060000 		.4byte	0x6ac
 1177 02ba 0218     		.2byte	0x1802
 1178 02bc 09       		.uleb128 0x9
 1179 02bd 130D0000 		.4byte	.LASF55
 1180 02c1 05       		.byte	0x5
 1181 02c2 49       		.byte	0x49
 1182 02c3 B4000000 		.4byte	0xb4
 1183 02c7 0418     		.2byte	0x1804
 1184 02c9 09       		.uleb128 0x9
 1185 02ca 280D0000 		.4byte	.LASF56
 1186 02ce 05       		.byte	0x5
 1187 02cf 4A       		.byte	0x4a
 1188 02d0 B4000000 		.4byte	0xb4
 1189 02d4 0818     		.2byte	0x1808
 1190 02d6 09       		.uleb128 0x9
 1191 02d7 3D0D0000 		.4byte	.LASF57
 1192 02db 05       		.byte	0x5
 1193 02dc 4B       		.byte	0x4b
 1194 02dd B4000000 		.4byte	0xb4
 1195 02e1 0C18     		.2byte	0x180c
 1196 02e3 09       		.uleb128 0x9
 1197 02e4 CB030000 		.4byte	.LASF58
 1198 02e8 05       		.byte	0x5
ARM GAS  C:\Users\cypress\AppData\Local\Temp\ccIrd8u1.s 			page 48


 1199 02e9 4C       		.byte	0x4c
 1200 02ea B4000000 		.4byte	0xb4
 1201 02ee 1018     		.2byte	0x1810
 1202 02f0 09       		.uleb128 0x9
 1203 02f1 03100000 		.4byte	.LASF59
 1204 02f5 05       		.byte	0x5
 1205 02f6 4D       		.byte	0x4d
 1206 02f7 AC060000 		.4byte	0x6ac
 1207 02fb 1418     		.2byte	0x1814
 1208 02fd 09       		.uleb128 0x9
 1209 02fe 4C060000 		.4byte	.LASF60
 1210 0302 05       		.byte	0x5
 1211 0303 4E       		.byte	0x4e
 1212 0304 7C060000 		.4byte	0x67c
 1213 0308 1618     		.2byte	0x1816
 1214 030a 09       		.uleb128 0x9
 1215 030b 83090000 		.4byte	.LASF61
 1216 030f 05       		.byte	0x5
 1217 0310 4F       		.byte	0x4f
 1218 0311 B4000000 		.4byte	0xb4
 1219 0315 1818     		.2byte	0x1818
 1220 0317 09       		.uleb128 0x9
 1221 0318 58030000 		.4byte	.LASF62
 1222 031c 05       		.byte	0x5
 1223 031d 50       		.byte	0x50
 1224 031e B4000000 		.4byte	0xb4
 1225 0322 1C18     		.2byte	0x181c
 1226 0324 09       		.uleb128 0x9
 1227 0325 E90B0000 		.4byte	.LASF63
 1228 0329 05       		.byte	0x5
 1229 032a 51       		.byte	0x51
 1230 032b B4000000 		.4byte	0xb4
 1231 032f 2018     		.2byte	0x1820
 1232 0331 09       		.uleb128 0x9
 1233 0332 9F0B0000 		.4byte	.LASF64
 1234 0336 05       		.byte	0x5
 1235 0337 52       		.byte	0x52
 1236 0338 B4000000 		.4byte	0xb4
 1237 033c 2418     		.2byte	0x1824
 1238 033e 09       		.uleb128 0x9
 1239 033f 0E100000 		.4byte	.LASF65
 1240 0343 05       		.byte	0x5
 1241 0344 53       		.byte	0x53
 1242 0345 E9070000 		.4byte	0x7e9
 1243 0349 2818     		.2byte	0x1828
 1244 034b 09       		.uleb128 0x9
 1245 034c B5070000 		.4byte	.LASF66
 1246 0350 05       		.byte	0x5
 1247 0351 54       		.byte	0x54
 1248 0352 B4000000 		.4byte	0xb4
 1249 0356 4418     		.2byte	0x1844
 1250 0358 09       		.uleb128 0x9
 1251 0359 87030000 		.4byte	.LASF67
 1252 035d 05       		.byte	0x5
 1253 035e 55       		.byte	0x55
 1254 035f B4000000 		.4byte	0xb4
 1255 0363 4818     		.2byte	0x1848
ARM GAS  C:\Users\cypress\AppData\Local\Temp\ccIrd8u1.s 			page 49


 1256 0365 09       		.uleb128 0x9
 1257 0366 770A0000 		.4byte	.LASF68
 1258 036a 05       		.byte	0x5
 1259 036b 56       		.byte	0x56
 1260 036c B4000000 		.4byte	0xb4
 1261 0370 4C18     		.2byte	0x184c
 1262 0372 09       		.uleb128 0x9
 1263 0373 CE0D0000 		.4byte	.LASF69
 1264 0377 05       		.byte	0x5
 1265 0378 57       		.byte	0x57
 1266 0379 B4000000 		.4byte	0xb4
 1267 037d 5018     		.2byte	0x1850
 1268 037f 09       		.uleb128 0x9
 1269 0380 19100000 		.4byte	.LASF70
 1270 0384 05       		.byte	0x5
 1271 0385 58       		.byte	0x58
 1272 0386 04080000 		.4byte	0x804
 1273 038a 5418     		.2byte	0x1854
 1274 038c 09       		.uleb128 0x9
 1275 038d 6D020000 		.4byte	.LASF71
 1276 0391 05       		.byte	0x5
 1277 0392 59       		.byte	0x59
 1278 0393 B4000000 		.4byte	0xb4
 1279 0397 0020     		.2byte	0x2000
 1280 0399 09       		.uleb128 0x9
 1281 039a 00090000 		.4byte	.LASF72
 1282 039e 05       		.byte	0x5
 1283 039f 5A       		.byte	0x5a
 1284 03a0 B4000000 		.4byte	0xb4
 1285 03a4 0420     		.2byte	0x2004
 1286 03a6 09       		.uleb128 0x9
 1287 03a7 880C0000 		.4byte	.LASF73
 1288 03ab 05       		.byte	0x5
 1289 03ac 5B       		.byte	0x5b
 1290 03ad B4000000 		.4byte	0xb4
 1291 03b1 0820     		.2byte	0x2008
 1292 03b3 09       		.uleb128 0x9
 1293 03b4 A7020000 		.4byte	.LASF74
 1294 03b8 05       		.byte	0x5
 1295 03b9 5C       		.byte	0x5c
 1296 03ba B4000000 		.4byte	0xb4
 1297 03be 0C20     		.2byte	0x200c
 1298 03c0 09       		.uleb128 0x9
 1299 03c1 160B0000 		.4byte	.LASF75
 1300 03c5 05       		.byte	0x5
 1301 03c6 5D       		.byte	0x5d
 1302 03c7 B4000000 		.4byte	0xb4
 1303 03cb 1020     		.2byte	0x2010
 1304 03cd 09       		.uleb128 0x9
 1305 03ce D60A0000 		.4byte	.LASF76
 1306 03d2 05       		.byte	0x5
 1307 03d3 5E       		.byte	0x5e
 1308 03d4 B4000000 		.4byte	0xb4
 1309 03d8 1420     		.2byte	0x2014
 1310 03da 09       		.uleb128 0x9
 1311 03db 24100000 		.4byte	.LASF77
 1312 03df 05       		.byte	0x5
ARM GAS  C:\Users\cypress\AppData\Local\Temp\ccIrd8u1.s 			page 50


 1313 03e0 5F       		.byte	0x5f
 1314 03e1 1E080000 		.4byte	0x81e
 1315 03e5 1820     		.2byte	0x2018
 1316 03e7 09       		.uleb128 0x9
 1317 03e8 B10D0000 		.4byte	.LASF78
 1318 03ec 05       		.byte	0x5
 1319 03ed 60       		.byte	0x60
 1320 03ee 34080000 		.4byte	0x834
 1321 03f2 D820     		.2byte	0x20d8
 1322 03f4 09       		.uleb128 0x9
 1323 03f5 2F100000 		.4byte	.LASF79
 1324 03f9 05       		.byte	0x5
 1325 03fa 61       		.byte	0x61
 1326 03fb 4F080000 		.4byte	0x84f
 1327 03ff 0042     		.2byte	0x4200
 1328 0401 09       		.uleb128 0x9
 1329 0402 43120000 		.4byte	.LASF80
 1330 0406 05       		.byte	0x5
 1331 0407 62       		.byte	0x62
 1332 0408 65080000 		.4byte	0x865
 1333 040c 005A     		.2byte	0x5a00
 1334 040e 09       		.uleb128 0x9
 1335 040f 730E0000 		.4byte	.LASF81
 1336 0413 05       		.byte	0x5
 1337 0414 63       		.byte	0x63
 1338 0415 7B080000 		.4byte	0x87b
 1339 0419 0066     		.2byte	0x6600
 1340 041b 09       		.uleb128 0x9
 1341 041c 3A100000 		.4byte	.LASF82
 1342 0420 05       		.byte	0x5
 1343 0421 64       		.byte	0x64
 1344 0422 96080000 		.4byte	0x896
 1345 0426 006C     		.2byte	0x6c00
 1346 0428 09       		.uleb128 0x9
 1347 0429 470F0000 		.4byte	.LASF83
 1348 042d 05       		.byte	0x5
 1349 042e 65       		.byte	0x65
 1350 042f B4000000 		.4byte	0xb4
 1351 0433 0078     		.2byte	0x7800
 1352 0435 09       		.uleb128 0x9
 1353 0436 D2020000 		.4byte	.LASF84
 1354 043a 05       		.byte	0x5
 1355 043b 67       		.byte	0x67
 1356 043c B4000000 		.4byte	0xb4
 1357 0440 0478     		.2byte	0x7804
 1358 0442 09       		.uleb128 0x9
 1359 0443 40000000 		.4byte	.LASF85
 1360 0447 05       		.byte	0x5
 1361 0448 68       		.byte	0x68
 1362 0449 B4000000 		.4byte	0xb4
 1363 044d 0878     		.2byte	0x7808
 1364 044f 09       		.uleb128 0x9
 1365 0450 41070000 		.4byte	.LASF86
 1366 0454 05       		.byte	0x5
 1367 0455 6A       		.byte	0x6a
 1368 0456 B4000000 		.4byte	0xb4
 1369 045a 0C78     		.2byte	0x780c
ARM GAS  C:\Users\cypress\AppData\Local\Temp\ccIrd8u1.s 			page 51


 1370 045c 09       		.uleb128 0x9
 1371 045d 69080000 		.4byte	.LASF87
 1372 0461 05       		.byte	0x5
 1373 0462 6B       		.byte	0x6b
 1374 0463 B4000000 		.4byte	0xb4
 1375 0467 1078     		.2byte	0x7810
 1376 0469 09       		.uleb128 0x9
 1377 046a 0B060000 		.4byte	.LASF88
 1378 046e 05       		.byte	0x5
 1379 046f 6C       		.byte	0x6c
 1380 0470 B4000000 		.4byte	0xb4
 1381 0474 1478     		.2byte	0x7814
 1382 0476 09       		.uleb128 0x9
 1383 0477 920A0000 		.4byte	.LASF89
 1384 047b 05       		.byte	0x5
 1385 047c 6D       		.byte	0x6d
 1386 047d B4000000 		.4byte	0xb4
 1387 0481 1878     		.2byte	0x7818
 1388 0483 09       		.uleb128 0x9
 1389 0484 69090000 		.4byte	.LASF90
 1390 0488 05       		.byte	0x5
 1391 0489 6E       		.byte	0x6e
 1392 048a B4000000 		.4byte	0xb4
 1393 048e 1C78     		.2byte	0x781c
 1394 0490 09       		.uleb128 0x9
 1395 0491 45100000 		.4byte	.LASF91
 1396 0495 05       		.byte	0x5
 1397 0496 6F       		.byte	0x6f
 1398 0497 B0080000 		.4byte	0x8b0
 1399 049b 2078     		.2byte	0x7820
 1400 049d 09       		.uleb128 0x9
 1401 049e F0070000 		.4byte	.LASF92
 1402 04a2 05       		.byte	0x5
 1403 04a3 70       		.byte	0x70
 1404 04a4 B4000000 		.4byte	0xb4
 1405 04a8 FC79     		.2byte	0x79fc
 1406 04aa 09       		.uleb128 0x9
 1407 04ab 53000000 		.4byte	.LASF93
 1408 04af 05       		.byte	0x5
 1409 04b0 71       		.byte	0x71
 1410 04b1 B4000000 		.4byte	0xb4
 1411 04b5 007A     		.2byte	0x7a00
 1412 04b7 09       		.uleb128 0x9
 1413 04b8 7D110000 		.4byte	.LASF94
 1414 04bc 05       		.byte	0x5
 1415 04bd 73       		.byte	0x73
 1416 04be B4000000 		.4byte	0xb4
 1417 04c2 047A     		.2byte	0x7a04
 1418 04c4 09       		.uleb128 0x9
 1419 04c5 20090000 		.4byte	.LASF95
 1420 04c9 05       		.byte	0x5
 1421 04ca 74       		.byte	0x74
 1422 04cb B4000000 		.4byte	0xb4
 1423 04cf 087A     		.2byte	0x7a08
 1424 04d1 09       		.uleb128 0x9
 1425 04d2 89050000 		.4byte	.LASF96
 1426 04d6 05       		.byte	0x5
ARM GAS  C:\Users\cypress\AppData\Local\Temp\ccIrd8u1.s 			page 52


 1427 04d7 76       		.byte	0x76
 1428 04d8 B4000000 		.4byte	0xb4
 1429 04dc 0C7A     		.2byte	0x7a0c
 1430 04de 09       		.uleb128 0x9
 1431 04df E3000000 		.4byte	.LASF97
 1432 04e3 05       		.byte	0x5
 1433 04e4 77       		.byte	0x77
 1434 04e5 B4000000 		.4byte	0xb4
 1435 04e9 107A     		.2byte	0x7a10
 1436 04eb 09       		.uleb128 0x9
 1437 04ec A5080000 		.4byte	.LASF98
 1438 04f0 05       		.byte	0x5
 1439 04f1 78       		.byte	0x78
 1440 04f2 B4000000 		.4byte	0xb4
 1441 04f6 147A     		.2byte	0x7a14
 1442 04f8 09       		.uleb128 0x9
 1443 04f9 34090000 		.4byte	.LASF99
 1444 04fd 05       		.byte	0x5
 1445 04fe 7A       		.byte	0x7a
 1446 04ff B4000000 		.4byte	0xb4
 1447 0503 187A     		.2byte	0x7a18
 1448 0505 09       		.uleb128 0x9
 1449 0506 50100000 		.4byte	.LASF100
 1450 050a 05       		.byte	0x5
 1451 050b 7B       		.byte	0x7b
 1452 050c CA080000 		.4byte	0x8ca
 1453 0510 1C7A     		.2byte	0x7a1c
 1454 0512 09       		.uleb128 0x9
 1455 0513 FD060000 		.4byte	.LASF101
 1456 0517 05       		.byte	0x5
 1457 0518 7C       		.byte	0x7c
 1458 0519 B4000000 		.4byte	0xb4
 1459 051d FC7B     		.2byte	0x7bfc
 1460 051f 09       		.uleb128 0x9
 1461 0520 92070000 		.4byte	.LASF102
 1462 0524 05       		.byte	0x5
 1463 0525 7E       		.byte	0x7e
 1464 0526 B4000000 		.4byte	0xb4
 1465 052a 007C     		.2byte	0x7c00
 1466 052c 09       		.uleb128 0x9
 1467 052d A3070000 		.4byte	.LASF103
 1468 0531 05       		.byte	0x5
 1469 0532 80       		.byte	0x80
 1470 0533 B4000000 		.4byte	0xb4
 1471 0537 047C     		.2byte	0x7c04
 1472 0539 09       		.uleb128 0x9
 1473 053a 540E0000 		.4byte	.LASF104
 1474 053e 05       		.byte	0x5
 1475 053f 81       		.byte	0x81
 1476 0540 B4000000 		.4byte	0xb4
 1477 0544 087C     		.2byte	0x7c08
 1478 0546 09       		.uleb128 0x9
 1479 0547 E3050000 		.4byte	.LASF105
 1480 054b 05       		.byte	0x5
 1481 054c 82       		.byte	0x82
 1482 054d B4000000 		.4byte	0xb4
 1483 0551 0C7C     		.2byte	0x7c0c
ARM GAS  C:\Users\cypress\AppData\Local\Temp\ccIrd8u1.s 			page 53


 1484 0553 09       		.uleb128 0x9
 1485 0554 A2090000 		.4byte	.LASF106
 1486 0558 05       		.byte	0x5
 1487 0559 84       		.byte	0x84
 1488 055a B4000000 		.4byte	0xb4
 1489 055e 107C     		.2byte	0x7c10
 1490 0560 09       		.uleb128 0x9
 1491 0561 AA000000 		.4byte	.LASF107
 1492 0565 05       		.byte	0x5
 1493 0566 85       		.byte	0x85
 1494 0567 B4000000 		.4byte	0xb4
 1495 056b 147C     		.2byte	0x7c14
 1496 056d 09       		.uleb128 0x9
 1497 056e 52040000 		.4byte	.LASF108
 1498 0572 05       		.byte	0x5
 1499 0573 87       		.byte	0x87
 1500 0574 B4000000 		.4byte	0xb4
 1501 0578 187C     		.2byte	0x7c18
 1502 057a 09       		.uleb128 0x9
 1503 057b 2F010000 		.4byte	.LASF109
 1504 057f 05       		.byte	0x5
 1505 0580 88       		.byte	0x88
 1506 0581 B4000000 		.4byte	0xb4
 1507 0585 1C7C     		.2byte	0x7c1c
 1508 0587 09       		.uleb128 0x9
 1509 0588 84020000 		.4byte	.LASF110
 1510 058c 05       		.byte	0x5
 1511 058d 8A       		.byte	0x8a
 1512 058e B4000000 		.4byte	0xb4
 1513 0592 207C     		.2byte	0x7c20
 1514 0594 09       		.uleb128 0x9
 1515 0595 8C080000 		.4byte	.LASF111
 1516 0599 05       		.byte	0x5
 1517 059a 8D       		.byte	0x8d
 1518 059b B4000000 		.4byte	0xb4
 1519 059f 247C     		.2byte	0x7c24
 1520 05a1 09       		.uleb128 0x9
 1521 05a2 5B100000 		.4byte	.LASF112
 1522 05a6 05       		.byte	0x5
 1523 05a7 8F       		.byte	0x8f
 1524 05a8 E4080000 		.4byte	0x8e4
 1525 05ac 287C     		.2byte	0x7c28
 1526 05ae 09       		.uleb128 0x9
 1527 05af 2B0B0000 		.4byte	.LASF113
 1528 05b3 05       		.byte	0x5
 1529 05b4 90       		.byte	0x90
 1530 05b5 B4000000 		.4byte	0xb4
 1531 05b9 F87D     		.2byte	0x7df8
 1532 05bb 09       		.uleb128 0x9
 1533 05bc 980E0000 		.4byte	.LASF114
 1534 05c0 05       		.byte	0x5
 1535 05c1 91       		.byte	0x91
 1536 05c2 B4000000 		.4byte	0xb4
 1537 05c6 FC7D     		.2byte	0x7dfc
 1538 05c8 09       		.uleb128 0x9
 1539 05c9 7A010000 		.4byte	.LASF115
 1540 05cd 05       		.byte	0x5
ARM GAS  C:\Users\cypress\AppData\Local\Temp\ccIrd8u1.s 			page 54


 1541 05ce 92       		.byte	0x92
 1542 05cf B4000000 		.4byte	0xb4
 1543 05d3 007E     		.2byte	0x7e00
 1544 05d5 09       		.uleb128 0x9
 1545 05d6 10030000 		.4byte	.LASF116
 1546 05da 05       		.byte	0x5
 1547 05db 94       		.byte	0x94
 1548 05dc B4000000 		.4byte	0xb4
 1549 05e0 047E     		.2byte	0x7e04
 1550 05e2 09       		.uleb128 0x9
 1551 05e3 CD100000 		.4byte	.LASF117
 1552 05e7 05       		.byte	0x5
 1553 05e8 95       		.byte	0x95
 1554 05e9 B4000000 		.4byte	0xb4
 1555 05ed 087E     		.2byte	0x7e08
 1556 05ef 09       		.uleb128 0x9
 1557 05f0 85000000 		.4byte	.LASF118
 1558 05f4 05       		.byte	0x5
 1559 05f5 96       		.byte	0x96
 1560 05f6 B4000000 		.4byte	0xb4
 1561 05fa 0C7E     		.2byte	0x7e0c
 1562 05fc 09       		.uleb128 0x9
 1563 05fd 26000000 		.4byte	.LASF119
 1564 0601 05       		.byte	0x5
 1565 0602 98       		.byte	0x98
 1566 0603 B4000000 		.4byte	0xb4
 1567 0607 107E     		.2byte	0x7e10
 1568 0609 09       		.uleb128 0x9
 1569 060a E2100000 		.4byte	.LASF120
 1570 060e 05       		.byte	0x5
 1571 060f 99       		.byte	0x99
 1572 0610 B4000000 		.4byte	0xb4
 1573 0614 147E     		.2byte	0x7e14
 1574 0616 09       		.uleb128 0x9
 1575 0617 4E120000 		.4byte	.LASF121
 1576 061b 05       		.byte	0x5
 1577 061c 9B       		.byte	0x9b
 1578 061d B4000000 		.4byte	0xb4
 1579 0621 187E     		.2byte	0x7e18
 1580 0623 09       		.uleb128 0x9
 1581 0624 49020000 		.4byte	.LASF122
 1582 0628 05       		.byte	0x5
 1583 0629 9C       		.byte	0x9c
 1584 062a B4000000 		.4byte	0xb4
 1585 062e 1C7E     		.2byte	0x7e1c
 1586 0630 09       		.uleb128 0x9
 1587 0631 290E0000 		.4byte	.LASF123
 1588 0635 05       		.byte	0x5
 1589 0636 9E       		.byte	0x9e
 1590 0637 B4000000 		.4byte	0xb4
 1591 063b 207E     		.2byte	0x7e20
 1592 063d 09       		.uleb128 0x9
 1593 063e ED020000 		.4byte	.LASF124
 1594 0642 05       		.byte	0x5
 1595 0643 A1       		.byte	0xa1
 1596 0644 B4000000 		.4byte	0xb4
 1597 0648 247E     		.2byte	0x7e24
ARM GAS  C:\Users\cypress\AppData\Local\Temp\ccIrd8u1.s 			page 55


 1598 064a 09       		.uleb128 0x9
 1599 064b 66100000 		.4byte	.LASF125
 1600 064f 05       		.byte	0x5
 1601 0650 A4       		.byte	0xa4
 1602 0651 EE080000 		.4byte	0x8ee
 1603 0655 287E     		.2byte	0x7e28
 1604 0657 09       		.uleb128 0x9
 1605 0658 2B120000 		.4byte	.LASF126
 1606 065c 05       		.byte	0x5
 1607 065d A5       		.byte	0xa5
 1608 065e B4000000 		.4byte	0xb4
 1609 0662 F87F     		.2byte	0x7ff8
 1610 0664 09       		.uleb128 0x9
 1611 0665 30040000 		.4byte	.LASF127
 1612 0669 05       		.byte	0x5
 1613 066a A6       		.byte	0xa6
 1614 066b B4000000 		.4byte	0xb4
 1615 066f FC7F     		.2byte	0x7ffc
 1616 0671 00       		.byte	0
 1617 0672 05       		.uleb128 0x5
 1618 0673 8C000000 		.4byte	0x8c
 1619 0677 06       		.uleb128 0x6
 1620 0678 72060000 		.4byte	0x672
 1621 067c 05       		.uleb128 0x5
 1622 067d 97000000 		.4byte	0x97
 1623 0681 0A       		.uleb128 0xa
 1624 0682 B9000000 		.4byte	0xb9
 1625 0686 91060000 		.4byte	0x691
 1626 068a 0B       		.uleb128 0xb
 1627 068b AD000000 		.4byte	0xad
 1628 068f 01       		.byte	0x1
 1629 0690 00       		.byte	0
 1630 0691 05       		.uleb128 0x5
 1631 0692 81060000 		.4byte	0x681
 1632 0696 06       		.uleb128 0x6
 1633 0697 91060000 		.4byte	0x691
 1634 069b 0A       		.uleb128 0xa
 1635 069c AC060000 		.4byte	0x6ac
 1636 06a0 AC060000 		.4byte	0x6ac
 1637 06a4 0C       		.uleb128 0xc
 1638 06a5 AD000000 		.4byte	0xad
 1639 06a9 F802     		.2byte	0x2f8
 1640 06ab 00       		.byte	0
 1641 06ac 06       		.uleb128 0x6
 1642 06ad 7C060000 		.4byte	0x67c
 1643 06b1 05       		.uleb128 0x5
 1644 06b2 9B060000 		.4byte	0x69b
 1645 06b6 06       		.uleb128 0x6
 1646 06b7 B1060000 		.4byte	0x6b1
 1647 06bb 0A       		.uleb128 0xa
 1648 06bc 72060000 		.4byte	0x672
 1649 06c0 CB060000 		.4byte	0x6cb
 1650 06c4 0B       		.uleb128 0xb
 1651 06c5 AD000000 		.4byte	0xad
 1652 06c9 02       		.byte	0x2
 1653 06ca 00       		.byte	0
 1654 06cb 05       		.uleb128 0x5
ARM GAS  C:\Users\cypress\AppData\Local\Temp\ccIrd8u1.s 			page 56


 1655 06cc BB060000 		.4byte	0x6bb
 1656 06d0 0A       		.uleb128 0xa
 1657 06d1 77060000 		.4byte	0x677
 1658 06d5 E0060000 		.4byte	0x6e0
 1659 06d9 0B       		.uleb128 0xb
 1660 06da AD000000 		.4byte	0xad
 1661 06de 3C       		.byte	0x3c
 1662 06df 00       		.byte	0
 1663 06e0 05       		.uleb128 0x5
 1664 06e1 D0060000 		.4byte	0x6d0
 1665 06e5 06       		.uleb128 0x6
 1666 06e6 E0060000 		.4byte	0x6e0
 1667 06ea 0A       		.uleb128 0xa
 1668 06eb B9000000 		.4byte	0xb9
 1669 06ef FA060000 		.4byte	0x6fa
 1670 06f3 0B       		.uleb128 0xb
 1671 06f4 AD000000 		.4byte	0xad
 1672 06f8 07       		.byte	0x7
 1673 06f9 00       		.byte	0
 1674 06fa 05       		.uleb128 0x5
 1675 06fb EA060000 		.4byte	0x6ea
 1676 06ff 06       		.uleb128 0x6
 1677 0700 FA060000 		.4byte	0x6fa
 1678 0704 0A       		.uleb128 0xa
 1679 0705 B9000000 		.4byte	0xb9
 1680 0709 14070000 		.4byte	0x714
 1681 070d 0B       		.uleb128 0xb
 1682 070e AD000000 		.4byte	0xad
 1683 0712 33       		.byte	0x33
 1684 0713 00       		.byte	0
 1685 0714 05       		.uleb128 0x5
 1686 0715 04070000 		.4byte	0x704
 1687 0719 06       		.uleb128 0x6
 1688 071a 14070000 		.4byte	0x714
 1689 071e 0A       		.uleb128 0xa
 1690 071f AC060000 		.4byte	0x6ac
 1691 0723 2E070000 		.4byte	0x72e
 1692 0727 0B       		.uleb128 0xb
 1693 0728 AD000000 		.4byte	0xad
 1694 072c 5E       		.byte	0x5e
 1695 072d 00       		.byte	0
 1696 072e 05       		.uleb128 0x5
 1697 072f 1E070000 		.4byte	0x71e
 1698 0733 06       		.uleb128 0x6
 1699 0734 2E070000 		.4byte	0x72e
 1700 0738 0A       		.uleb128 0xa
 1701 0739 B4000000 		.4byte	0xb4
 1702 073d 48070000 		.4byte	0x748
 1703 0741 0B       		.uleb128 0xb
 1704 0742 AD000000 		.4byte	0xad
 1705 0746 7F       		.byte	0x7f
 1706 0747 00       		.byte	0
 1707 0748 05       		.uleb128 0x5
 1708 0749 38070000 		.4byte	0x738
 1709 074d 05       		.uleb128 0x5
 1710 074e 38070000 		.4byte	0x738
 1711 0752 05       		.uleb128 0x5
ARM GAS  C:\Users\cypress\AppData\Local\Temp\ccIrd8u1.s 			page 57


 1712 0753 38070000 		.4byte	0x738
 1713 0757 05       		.uleb128 0x5
 1714 0758 38070000 		.4byte	0x738
 1715 075c 0A       		.uleb128 0xa
 1716 075d B9000000 		.4byte	0xb9
 1717 0761 6D070000 		.4byte	0x76d
 1718 0765 0C       		.uleb128 0xc
 1719 0766 AD000000 		.4byte	0xad
 1720 076a 2D01     		.2byte	0x12d
 1721 076c 00       		.byte	0
 1722 076d 05       		.uleb128 0x5
 1723 076e 5C070000 		.4byte	0x75c
 1724 0772 06       		.uleb128 0x6
 1725 0773 6D070000 		.4byte	0x76d
 1726 0777 0A       		.uleb128 0xa
 1727 0778 72060000 		.4byte	0x672
 1728 077c 87070000 		.4byte	0x787
 1729 0780 0B       		.uleb128 0xb
 1730 0781 AD000000 		.4byte	0xad
 1731 0785 0F       		.byte	0xf
 1732 0786 00       		.byte	0
 1733 0787 05       		.uleb128 0x5
 1734 0788 77070000 		.4byte	0x777
 1735 078c 05       		.uleb128 0x5
 1736 078d 77070000 		.4byte	0x777
 1737 0791 0A       		.uleb128 0xa
 1738 0792 B4000000 		.4byte	0xb4
 1739 0796 A1070000 		.4byte	0x7a1
 1740 079a 0B       		.uleb128 0xb
 1741 079b AD000000 		.4byte	0xad
 1742 079f 0F       		.byte	0xf
 1743 07a0 00       		.byte	0
 1744 07a1 05       		.uleb128 0x5
 1745 07a2 91070000 		.4byte	0x791
 1746 07a6 05       		.uleb128 0x5
 1747 07a7 91070000 		.4byte	0x791
 1748 07ab 05       		.uleb128 0x5
 1749 07ac 91070000 		.4byte	0x791
 1750 07b0 05       		.uleb128 0x5
 1751 07b1 91070000 		.4byte	0x791
 1752 07b5 05       		.uleb128 0x5
 1753 07b6 91070000 		.4byte	0x791
 1754 07ba 0A       		.uleb128 0xa
 1755 07bb B9000000 		.4byte	0xb9
 1756 07bf CA070000 		.4byte	0x7ca
 1757 07c3 0B       		.uleb128 0xb
 1758 07c4 AD000000 		.4byte	0xad
 1759 07c8 79       		.byte	0x79
 1760 07c9 00       		.byte	0
 1761 07ca 05       		.uleb128 0x5
 1762 07cb BA070000 		.4byte	0x7ba
 1763 07cf 06       		.uleb128 0x6
 1764 07d0 CA070000 		.4byte	0x7ca
 1765 07d4 0A       		.uleb128 0xa
 1766 07d5 B9000000 		.4byte	0xb9
 1767 07d9 E4070000 		.4byte	0x7e4
 1768 07dd 0B       		.uleb128 0xb
ARM GAS  C:\Users\cypress\AppData\Local\Temp\ccIrd8u1.s 			page 58


 1769 07de AD000000 		.4byte	0xad
 1770 07e2 06       		.byte	0x6
 1771 07e3 00       		.byte	0
 1772 07e4 05       		.uleb128 0x5
 1773 07e5 D4070000 		.4byte	0x7d4
 1774 07e9 06       		.uleb128 0x6
 1775 07ea E4070000 		.4byte	0x7e4
 1776 07ee 0A       		.uleb128 0xa
 1777 07ef B9000000 		.4byte	0xb9
 1778 07f3 FF070000 		.4byte	0x7ff
 1779 07f7 0C       		.uleb128 0xc
 1780 07f8 AD000000 		.4byte	0xad
 1781 07fc EA01     		.2byte	0x1ea
 1782 07fe 00       		.byte	0
 1783 07ff 05       		.uleb128 0x5
 1784 0800 EE070000 		.4byte	0x7ee
 1785 0804 06       		.uleb128 0x6
 1786 0805 FF070000 		.4byte	0x7ff
 1787 0809 0A       		.uleb128 0xa
 1788 080a B9000000 		.4byte	0xb9
 1789 080e 19080000 		.4byte	0x819
 1790 0812 0B       		.uleb128 0xb
 1791 0813 AD000000 		.4byte	0xad
 1792 0817 2F       		.byte	0x2f
 1793 0818 00       		.byte	0
 1794 0819 05       		.uleb128 0x5
 1795 081a 09080000 		.4byte	0x809
 1796 081e 06       		.uleb128 0x6
 1797 081f 19080000 		.4byte	0x819
 1798 0823 0A       		.uleb128 0xa
 1799 0824 72060000 		.4byte	0x672
 1800 0828 34080000 		.4byte	0x834
 1801 082c 0C       		.uleb128 0xc
 1802 082d AD000000 		.4byte	0xad
 1803 0831 2721     		.2byte	0x2127
 1804 0833 00       		.byte	0
 1805 0834 05       		.uleb128 0x5
 1806 0835 23080000 		.4byte	0x823
 1807 0839 0A       		.uleb128 0xa
 1808 083a B9000000 		.4byte	0xb9
 1809 083e 4A080000 		.4byte	0x84a
 1810 0842 0C       		.uleb128 0xc
 1811 0843 AD000000 		.4byte	0xad
 1812 0847 FF05     		.2byte	0x5ff
 1813 0849 00       		.byte	0
 1814 084a 05       		.uleb128 0x5
 1815 084b 39080000 		.4byte	0x839
 1816 084f 06       		.uleb128 0x6
 1817 0850 4A080000 		.4byte	0x84a
 1818 0854 0A       		.uleb128 0xa
 1819 0855 72060000 		.4byte	0x672
 1820 0859 65080000 		.4byte	0x865
 1821 085d 0C       		.uleb128 0xc
 1822 085e AD000000 		.4byte	0xad
 1823 0862 FF0B     		.2byte	0xbff
 1824 0864 00       		.byte	0
 1825 0865 05       		.uleb128 0x5
ARM GAS  C:\Users\cypress\AppData\Local\Temp\ccIrd8u1.s 			page 59


 1826 0866 54080000 		.4byte	0x854
 1827 086a 0A       		.uleb128 0xa
 1828 086b B4000000 		.4byte	0xb4
 1829 086f 7B080000 		.4byte	0x87b
 1830 0873 0C       		.uleb128 0xc
 1831 0874 AD000000 		.4byte	0xad
 1832 0878 7F01     		.2byte	0x17f
 1833 087a 00       		.byte	0
 1834 087b 05       		.uleb128 0x5
 1835 087c 6A080000 		.4byte	0x86a
 1836 0880 0A       		.uleb128 0xa
 1837 0881 B9000000 		.4byte	0xb9
 1838 0885 91080000 		.4byte	0x891
 1839 0889 0C       		.uleb128 0xc
 1840 088a AD000000 		.4byte	0xad
 1841 088e FF02     		.2byte	0x2ff
 1842 0890 00       		.byte	0
 1843 0891 05       		.uleb128 0x5
 1844 0892 80080000 		.4byte	0x880
 1845 0896 06       		.uleb128 0x6
 1846 0897 91080000 		.4byte	0x891
 1847 089b 0A       		.uleb128 0xa
 1848 089c B9000000 		.4byte	0xb9
 1849 08a0 AB080000 		.4byte	0x8ab
 1850 08a4 0B       		.uleb128 0xb
 1851 08a5 AD000000 		.4byte	0xad
 1852 08a9 76       		.byte	0x76
 1853 08aa 00       		.byte	0
 1854 08ab 05       		.uleb128 0x5
 1855 08ac 9B080000 		.4byte	0x89b
 1856 08b0 06       		.uleb128 0x6
 1857 08b1 AB080000 		.4byte	0x8ab
 1858 08b5 0A       		.uleb128 0xa
 1859 08b6 B9000000 		.4byte	0xb9
 1860 08ba C5080000 		.4byte	0x8c5
 1861 08be 0B       		.uleb128 0xb
 1862 08bf AD000000 		.4byte	0xad
 1863 08c3 77       		.byte	0x77
 1864 08c4 00       		.byte	0
 1865 08c5 05       		.uleb128 0x5
 1866 08c6 B5080000 		.4byte	0x8b5
 1867 08ca 06       		.uleb128 0x6
 1868 08cb C5080000 		.4byte	0x8c5
 1869 08cf 0A       		.uleb128 0xa
 1870 08d0 B9000000 		.4byte	0xb9
 1871 08d4 DF080000 		.4byte	0x8df
 1872 08d8 0B       		.uleb128 0xb
 1873 08d9 AD000000 		.4byte	0xad
 1874 08dd 73       		.byte	0x73
 1875 08de 00       		.byte	0
 1876 08df 05       		.uleb128 0x5
 1877 08e0 CF080000 		.4byte	0x8cf
 1878 08e4 06       		.uleb128 0x6
 1879 08e5 DF080000 		.4byte	0x8df
 1880 08e9 05       		.uleb128 0x5
 1881 08ea CF080000 		.4byte	0x8cf
 1882 08ee 06       		.uleb128 0x6
ARM GAS  C:\Users\cypress\AppData\Local\Temp\ccIrd8u1.s 			page 60


 1883 08ef E9080000 		.4byte	0x8e9
 1884 08f3 03       		.uleb128 0x3
 1885 08f4 7D050000 		.4byte	.LASF128
 1886 08f8 05       		.byte	0x5
 1887 08f9 A8       		.byte	0xa8
 1888 08fa BE000000 		.4byte	0xbe
 1889 08fe 07       		.uleb128 0x7
 1890 08ff 08F0     		.2byte	0xf008
 1891 0901 06       		.byte	0x6
 1892 0902 21       		.byte	0x21
 1893 0903 3E0C0000 		.4byte	0xc3e
 1894 0907 08       		.uleb128 0x8
 1895 0908 020E0000 		.4byte	.LASF129
 1896 090c 06       		.byte	0x6
 1897 090d 22       		.byte	0x22
 1898 090e B4000000 		.4byte	0xb4
 1899 0912 00       		.byte	0
 1900 0913 08       		.uleb128 0x8
 1901 0914 08000000 		.4byte	.LASF16
 1902 0918 06       		.byte	0x6
 1903 0919 23       		.byte	0x23
 1904 091a B9000000 		.4byte	0xb9
 1905 091e 04       		.byte	0x4
 1906 091f 08       		.uleb128 0x8
 1907 0920 7C030000 		.4byte	.LASF130
 1908 0924 06       		.byte	0x6
 1909 0925 24       		.byte	0x24
 1910 0926 B9000000 		.4byte	0xb9
 1911 092a 08       		.byte	0x8
 1912 092b 08       		.uleb128 0x8
 1913 092c B90C0000 		.4byte	.LASF19
 1914 0930 06       		.byte	0x6
 1915 0931 25       		.byte	0x25
 1916 0932 B9000000 		.4byte	0xb9
 1917 0936 0C       		.byte	0xc
 1918 0937 08       		.uleb128 0x8
 1919 0938 9A010000 		.4byte	.LASF131
 1920 093c 06       		.byte	0x6
 1921 093d 26       		.byte	0x26
 1922 093e B4000000 		.4byte	0xb4
 1923 0942 10       		.byte	0x10
 1924 0943 08       		.uleb128 0x8
 1925 0944 C30C0000 		.4byte	.LASF21
 1926 0948 06       		.byte	0x6
 1927 0949 27       		.byte	0x27
 1928 094a 530C0000 		.4byte	0xc53
 1929 094e 14       		.byte	0x14
 1930 094f 08       		.uleb128 0x8
 1931 0950 F60F0000 		.4byte	.LASF132
 1932 0954 06       		.byte	0x6
 1933 0955 28       		.byte	0x28
 1934 0956 B4000000 		.4byte	0xb4
 1935 095a 20       		.byte	0x20
 1936 095b 08       		.uleb128 0x8
 1937 095c DE0E0000 		.4byte	.LASF133
 1938 0960 06       		.byte	0x6
 1939 0961 29       		.byte	0x29
ARM GAS  C:\Users\cypress\AppData\Local\Temp\ccIrd8u1.s 			page 61


 1940 0962 B4000000 		.4byte	0xb4
 1941 0966 24       		.byte	0x24
 1942 0967 08       		.uleb128 0x8
 1943 0968 EB0E0000 		.4byte	.LASF134
 1944 096c 06       		.byte	0x6
 1945 096d 2A       		.byte	0x2a
 1946 096e B4000000 		.4byte	0xb4
 1947 0972 28       		.byte	0x28
 1948 0973 08       		.uleb128 0x8
 1949 0974 F80E0000 		.4byte	.LASF135
 1950 0978 06       		.byte	0x6
 1951 0979 2B       		.byte	0x2b
 1952 097a B4000000 		.4byte	0xb4
 1953 097e 2C       		.byte	0x2c
 1954 097f 08       		.uleb128 0x8
 1955 0980 050F0000 		.4byte	.LASF136
 1956 0984 06       		.byte	0x6
 1957 0985 2C       		.byte	0x2c
 1958 0986 B4000000 		.4byte	0xb4
 1959 098a 30       		.byte	0x30
 1960 098b 08       		.uleb128 0x8
 1961 098c 200F0000 		.4byte	.LASF137
 1962 0990 06       		.byte	0x6
 1963 0991 2D       		.byte	0x2d
 1964 0992 B4000000 		.4byte	0xb4
 1965 0996 34       		.byte	0x34
 1966 0997 08       		.uleb128 0x8
 1967 0998 2D0F0000 		.4byte	.LASF138
 1968 099c 06       		.byte	0x6
 1969 099d 2E       		.byte	0x2e
 1970 099e B4000000 		.4byte	0xb4
 1971 09a2 38       		.byte	0x38
 1972 09a3 08       		.uleb128 0x8
 1973 09a4 3A0F0000 		.4byte	.LASF139
 1974 09a8 06       		.byte	0x6
 1975 09a9 2F       		.byte	0x2f
 1976 09aa B4000000 		.4byte	0xb4
 1977 09ae 3C       		.byte	0x3c
 1978 09af 08       		.uleb128 0x8
 1979 09b0 CD0C0000 		.4byte	.LASF31
 1980 09b4 06       		.byte	0x6
 1981 09b5 30       		.byte	0x30
 1982 09b6 6D0C0000 		.4byte	0xc6d
 1983 09ba 40       		.byte	0x40
 1984 09bb 08       		.uleb128 0x8
 1985 09bc B50B0000 		.4byte	.LASF140
 1986 09c0 06       		.byte	0x6
 1987 09c1 31       		.byte	0x31
 1988 09c2 B4000000 		.4byte	0xb4
 1989 09c6 80       		.byte	0x80
 1990 09c7 08       		.uleb128 0x8
 1991 09c8 AA0A0000 		.4byte	.LASF141
 1992 09cc 06       		.byte	0x6
 1993 09cd 32       		.byte	0x32
 1994 09ce B4000000 		.4byte	0xb4
 1995 09d2 84       		.byte	0x84
 1996 09d3 08       		.uleb128 0x8
ARM GAS  C:\Users\cypress\AppData\Local\Temp\ccIrd8u1.s 			page 62


 1997 09d4 9D0C0000 		.4byte	.LASF142
 1998 09d8 06       		.byte	0x6
 1999 09d9 33       		.byte	0x33
 2000 09da B9000000 		.4byte	0xb9
 2001 09de 88       		.byte	0x88
 2002 09df 08       		.uleb128 0x8
 2003 09e0 D70C0000 		.4byte	.LASF34
 2004 09e4 06       		.byte	0x6
 2005 09e5 34       		.byte	0x34
 2006 09e6 B9000000 		.4byte	0xb9
 2007 09ea 8C       		.byte	0x8c
 2008 09eb 08       		.uleb128 0x8
 2009 09ec 12090000 		.4byte	.LASF143
 2010 09f0 06       		.byte	0x6
 2011 09f1 35       		.byte	0x35
 2012 09f2 B4000000 		.4byte	0xb4
 2013 09f6 90       		.byte	0x90
 2014 09f7 08       		.uleb128 0x8
 2015 09f8 E10C0000 		.4byte	.LASF36
 2016 09fc 06       		.byte	0x6
 2017 09fd 36       		.byte	0x36
 2018 09fe 770C0000 		.4byte	0xc77
 2019 0a02 94       		.byte	0x94
 2020 0a03 08       		.uleb128 0x8
 2021 0a04 000B0000 		.4byte	.LASF144
 2022 0a08 06       		.byte	0x6
 2023 0a09 37       		.byte	0x37
 2024 0a0a B4000000 		.4byte	0xb4
 2025 0a0e A0       		.byte	0xa0
 2026 0a0f 08       		.uleb128 0x8
 2027 0a10 EB0C0000 		.4byte	.LASF39
 2028 0a14 06       		.byte	0x6
 2029 0a15 38       		.byte	0x38
 2030 0a16 910C0000 		.4byte	0xc91
 2031 0a1a A4       		.byte	0xa4
 2032 0a1b 09       		.uleb128 0x9
 2033 0a1c 78070000 		.4byte	.LASF145
 2034 0a20 06       		.byte	0x6
 2035 0a21 39       		.byte	0x39
 2036 0a22 B4000000 		.4byte	0xb4
 2037 0a26 0001     		.2byte	0x100
 2038 0a28 09       		.uleb128 0x9
 2039 0a29 D6110000 		.4byte	.LASF44
 2040 0a2d 06       		.byte	0x6
 2041 0a2e 3A       		.byte	0x3a
 2042 0a2f AB0C0000 		.4byte	0xcab
 2043 0a33 0401     		.2byte	0x104
 2044 0a35 09       		.uleb128 0x9
 2045 0a36 B9050000 		.4byte	.LASF146
 2046 0a3a 06       		.byte	0x6
 2047 0a3b 3B       		.byte	0x3b
 2048 0a3c B00C0000 		.4byte	0xcb0
 2049 0a40 4001     		.2byte	0x140
 2050 0a42 09       		.uleb128 0x9
 2051 0a43 F80D0000 		.4byte	.LASF147
 2052 0a47 06       		.byte	0x6
 2053 0a48 3C       		.byte	0x3c
ARM GAS  C:\Users\cypress\AppData\Local\Temp\ccIrd8u1.s 			page 63


 2054 0a49 B4000000 		.4byte	0xb4
 2055 0a4d 8001     		.2byte	0x180
 2056 0a4f 09       		.uleb128 0x9
 2057 0a50 FF0C0000 		.4byte	.LASF52
 2058 0a54 06       		.byte	0x6
 2059 0a55 3D       		.byte	0x3d
 2060 0a56 BA0C0000 		.4byte	0xcba
 2061 0a5a 8401     		.2byte	0x184
 2062 0a5c 09       		.uleb128 0x9
 2063 0a5d 0A040000 		.4byte	.LASF148
 2064 0a61 06       		.byte	0x6
 2065 0a62 3E       		.byte	0x3e
 2066 0a63 B4000000 		.4byte	0xb4
 2067 0a67 9001     		.2byte	0x190
 2068 0a69 09       		.uleb128 0x9
 2069 0a6a 090D0000 		.4byte	.LASF54
 2070 0a6e 06       		.byte	0x6
 2071 0a6f 3F       		.byte	0x3f
 2072 0a70 C40C0000 		.4byte	0xcc4
 2073 0a74 9401     		.2byte	0x194
 2074 0a76 09       		.uleb128 0x9
 2075 0a77 1F060000 		.4byte	.LASF149
 2076 0a7b 06       		.byte	0x6
 2077 0a7c 40       		.byte	0x40
 2078 0a7d B4000000 		.4byte	0xb4
 2079 0a81 A001     		.2byte	0x1a0
 2080 0a83 09       		.uleb128 0x9
 2081 0a84 03100000 		.4byte	.LASF59
 2082 0a88 06       		.byte	0x6
 2083 0a89 41       		.byte	0x41
 2084 0a8a CE0C0000 		.4byte	0xcce
 2085 0a8e A401     		.2byte	0x1a4
 2086 0a90 09       		.uleb128 0x9
 2087 0a91 100A0000 		.4byte	.LASF150
 2088 0a95 06       		.byte	0x6
 2089 0a96 42       		.byte	0x42
 2090 0a97 B4000000 		.4byte	0xb4
 2091 0a9b B001     		.2byte	0x1b0
 2092 0a9d 09       		.uleb128 0x9
 2093 0a9e 0E100000 		.4byte	.LASF65
 2094 0aa2 06       		.byte	0x6
 2095 0aa3 43       		.byte	0x43
 2096 0aa4 D80C0000 		.4byte	0xcd8
 2097 0aa8 B401     		.2byte	0x1b4
 2098 0aaa 09       		.uleb128 0x9
 2099 0aab 16080000 		.4byte	.LASF151
 2100 0aaf 06       		.byte	0x6
 2101 0ab0 44       		.byte	0x44
 2102 0ab1 B4000000 		.4byte	0xb4
 2103 0ab5 C001     		.2byte	0x1c0
 2104 0ab7 09       		.uleb128 0x9
 2105 0ab8 19100000 		.4byte	.LASF70
 2106 0abc 06       		.byte	0x6
 2107 0abd 45       		.byte	0x45
 2108 0abe E20C0000 		.4byte	0xce2
 2109 0ac2 C401     		.2byte	0x1c4
 2110 0ac4 09       		.uleb128 0x9
ARM GAS  C:\Users\cypress\AppData\Local\Temp\ccIrd8u1.s 			page 64


 2111 0ac5 74030000 		.4byte	.LASF152
 2112 0ac9 06       		.byte	0x6
 2113 0aca 46       		.byte	0x46
 2114 0acb B4000000 		.4byte	0xb4
 2115 0acf D001     		.2byte	0x1d0
 2116 0ad1 09       		.uleb128 0x9
 2117 0ad2 24100000 		.4byte	.LASF77
 2118 0ad6 06       		.byte	0x6
 2119 0ad7 47       		.byte	0x47
 2120 0ad8 EC0C0000 		.4byte	0xcec
 2121 0adc D401     		.2byte	0x1d4
 2122 0ade 09       		.uleb128 0x9
 2123 0adf 90110000 		.4byte	.LASF153
 2124 0ae3 06       		.byte	0x6
 2125 0ae4 48       		.byte	0x48
 2126 0ae5 B4000000 		.4byte	0xb4
 2127 0ae9 F001     		.2byte	0x1f0
 2128 0aeb 09       		.uleb128 0x9
 2129 0aec D1000000 		.4byte	.LASF154
 2130 0af0 06       		.byte	0x6
 2131 0af1 49       		.byte	0x49
 2132 0af2 B4000000 		.4byte	0xb4
 2133 0af6 F401     		.2byte	0x1f4
 2134 0af8 09       		.uleb128 0x9
 2135 0af9 2F100000 		.4byte	.LASF79
 2136 0afd 06       		.byte	0x6
 2137 0afe 4A       		.byte	0x4a
 2138 0aff 060D0000 		.4byte	0xd06
 2139 0b03 F801     		.2byte	0x1f8
 2140 0b05 09       		.uleb128 0x9
 2141 0b06 A0000000 		.4byte	.LASF155
 2142 0b0a 06       		.byte	0x6
 2143 0b0b 4B       		.byte	0x4b
 2144 0b0c B9000000 		.4byte	0xb9
 2145 0b10 0802     		.2byte	0x208
 2146 0b12 09       		.uleb128 0x9
 2147 0b13 3A100000 		.4byte	.LASF82
 2148 0b17 06       		.byte	0x6
 2149 0b18 4C       		.byte	0x4c
 2150 0b19 200D0000 		.4byte	0xd20
 2151 0b1d 0C02     		.2byte	0x20c
 2152 0b1f 09       		.uleb128 0x9
 2153 0b20 C4100000 		.4byte	.LASF156
 2154 0b24 06       		.byte	0x6
 2155 0b25 4D       		.byte	0x4d
 2156 0b26 B4000000 		.4byte	0xb4
 2157 0b2a 2002     		.2byte	0x220
 2158 0b2c 09       		.uleb128 0x9
 2159 0b2d 45100000 		.4byte	.LASF91
 2160 0b31 06       		.byte	0x6
 2161 0b32 4E       		.byte	0x4e
 2162 0b33 2A0D0000 		.4byte	0xd2a
 2163 0b37 2402     		.2byte	0x224
 2164 0b39 09       		.uleb128 0x9
 2165 0b3a 07030000 		.4byte	.LASF157
 2166 0b3e 06       		.byte	0x6
 2167 0b3f 4F       		.byte	0x4f
ARM GAS  C:\Users\cypress\AppData\Local\Temp\ccIrd8u1.s 			page 65


 2168 0b40 B4000000 		.4byte	0xb4
 2169 0b44 3002     		.2byte	0x230
 2170 0b46 09       		.uleb128 0x9
 2171 0b47 50100000 		.4byte	.LASF100
 2172 0b4b 06       		.byte	0x6
 2173 0b4c 50       		.byte	0x50
 2174 0b4d 340D0000 		.4byte	0xd34
 2175 0b51 3402     		.2byte	0x234
 2176 0b53 09       		.uleb128 0x9
 2177 0b54 37120000 		.4byte	.LASF158
 2178 0b58 06       		.byte	0x6
 2179 0b59 51       		.byte	0x51
 2180 0b5a B4000000 		.4byte	0xb4
 2181 0b5e 4002     		.2byte	0x240
 2182 0b60 09       		.uleb128 0x9
 2183 0b61 5B100000 		.4byte	.LASF112
 2184 0b65 06       		.byte	0x6
 2185 0b66 52       		.byte	0x52
 2186 0b67 4E0D0000 		.4byte	0xd4e
 2187 0b6b 4402     		.2byte	0x244
 2188 0b6d 09       		.uleb128 0x9
 2189 0b6e 9B0D0000 		.4byte	.LASF159
 2190 0b72 06       		.byte	0x6
 2191 0b73 53       		.byte	0x53
 2192 0b74 B4000000 		.4byte	0xb4
 2193 0b78 B002     		.2byte	0x2b0
 2194 0b7a 09       		.uleb128 0x9
 2195 0b7b 66100000 		.4byte	.LASF125
 2196 0b7f 06       		.byte	0x6
 2197 0b80 54       		.byte	0x54
 2198 0b81 580D0000 		.4byte	0xd58
 2199 0b85 B402     		.2byte	0x2b4
 2200 0b87 09       		.uleb128 0x9
 2201 0b88 EB010000 		.4byte	.LASF160
 2202 0b8c 06       		.byte	0x6
 2203 0b8d 55       		.byte	0x55
 2204 0b8e B4000000 		.4byte	0xb4
 2205 0b92 C002     		.2byte	0x2c0
 2206 0b94 09       		.uleb128 0x9
 2207 0b95 2F110000 		.4byte	.LASF161
 2208 0b99 06       		.byte	0x6
 2209 0b9a 56       		.byte	0x56
 2210 0b9b 620D0000 		.4byte	0xd62
 2211 0b9f C402     		.2byte	0x2c4
 2212 0ba1 09       		.uleb128 0x9
 2213 0ba2 D1070000 		.4byte	.LASF162
 2214 0ba6 06       		.byte	0x6
 2215 0ba7 57       		.byte	0x57
 2216 0ba8 B4000000 		.4byte	0xb4
 2217 0bac 2003     		.2byte	0x320
 2218 0bae 09       		.uleb128 0x9
 2219 0baf 3A110000 		.4byte	.LASF163
 2220 0bb3 06       		.byte	0x6
 2221 0bb4 58       		.byte	0x58
 2222 0bb5 7C0D0000 		.4byte	0xd7c
 2223 0bb9 2403     		.2byte	0x324
 2224 0bbb 09       		.uleb128 0x9
ARM GAS  C:\Users\cypress\AppData\Local\Temp\ccIrd8u1.s 			page 66


 2225 0bbc BC0A0000 		.4byte	.LASF164
 2226 0bc0 06       		.byte	0x6
 2227 0bc1 59       		.byte	0x59
 2228 0bc2 B9000000 		.4byte	0xb9
 2229 0bc6 0004     		.2byte	0x400
 2230 0bc8 09       		.uleb128 0x9
 2231 0bc9 45110000 		.4byte	.LASF165
 2232 0bcd 06       		.byte	0x6
 2233 0bce 5A       		.byte	0x5a
 2234 0bcf 960D0000 		.4byte	0xd96
 2235 0bd3 0404     		.2byte	0x404
 2236 0bd5 09       		.uleb128 0x9
 2237 0bd6 FB090000 		.4byte	.LASF166
 2238 0bda 06       		.byte	0x6
 2239 0bdb 5B       		.byte	0x5b
 2240 0bdc B4000000 		.4byte	0xb4
 2241 0be0 0005     		.2byte	0x500
 2242 0be2 09       		.uleb128 0x9
 2243 0be3 50110000 		.4byte	.LASF167
 2244 0be7 06       		.byte	0x6
 2245 0be8 5C       		.byte	0x5c
 2246 0be9 A00D0000 		.4byte	0xda0
 2247 0bed 0405     		.2byte	0x504
 2248 0bef 09       		.uleb128 0x9
 2249 0bf0 CB080000 		.4byte	.LASF168
 2250 0bf4 06       		.byte	0x6
 2251 0bf5 5D       		.byte	0x5d
 2252 0bf6 B4000000 		.4byte	0xb4
 2253 0bfa 2005     		.2byte	0x520
 2254 0bfc 09       		.uleb128 0x9
 2255 0bfd 5B110000 		.4byte	.LASF169
 2256 0c01 06       		.byte	0x6
 2257 0c02 5E       		.byte	0x5e
 2258 0c03 BA0D0000 		.4byte	0xdba
 2259 0c07 2405     		.2byte	0x524
 2260 0c09 09       		.uleb128 0x9
 2261 0c0a F50A0000 		.4byte	.LASF170
 2262 0c0e 06       		.byte	0x6
 2263 0c0f 5F       		.byte	0x5f
 2264 0c10 B9000000 		.4byte	0xb9
 2265 0c14 A005     		.2byte	0x5a0
 2266 0c16 09       		.uleb128 0x9
 2267 0c17 66110000 		.4byte	.LASF171
 2268 0c1b 06       		.byte	0x6
 2269 0c1c 60       		.byte	0x60
 2270 0c1d D50D0000 		.4byte	0xdd5
 2271 0c21 A405     		.2byte	0x5a4
 2272 0c23 09       		.uleb128 0x9
 2273 0c24 C5020000 		.4byte	.LASF172
 2274 0c28 06       		.byte	0x6
 2275 0c29 61       		.byte	0x61
 2276 0c2a B4000000 		.4byte	0xb4
 2277 0c2e 00F0     		.2byte	0xf000
 2278 0c30 09       		.uleb128 0x9
 2279 0c31 C10B0000 		.4byte	.LASF173
 2280 0c35 06       		.byte	0x6
 2281 0c36 62       		.byte	0x62
ARM GAS  C:\Users\cypress\AppData\Local\Temp\ccIrd8u1.s 			page 67


 2282 0c37 B4000000 		.4byte	0xb4
 2283 0c3b 04F0     		.2byte	0xf004
 2284 0c3d 00       		.byte	0
 2285 0c3e 0A       		.uleb128 0xa
 2286 0c3f B9000000 		.4byte	0xb9
 2287 0c43 4E0C0000 		.4byte	0xc4e
 2288 0c47 0B       		.uleb128 0xb
 2289 0c48 AD000000 		.4byte	0xad
 2290 0c4c 02       		.byte	0x2
 2291 0c4d 00       		.byte	0
 2292 0c4e 05       		.uleb128 0x5
 2293 0c4f 3E0C0000 		.4byte	0xc3e
 2294 0c53 06       		.uleb128 0x6
 2295 0c54 4E0C0000 		.4byte	0xc4e
 2296 0c58 0A       		.uleb128 0xa
 2297 0c59 B9000000 		.4byte	0xb9
 2298 0c5d 680C0000 		.4byte	0xc68
 2299 0c61 0B       		.uleb128 0xb
 2300 0c62 AD000000 		.4byte	0xad
 2301 0c66 0F       		.byte	0xf
 2302 0c67 00       		.byte	0
 2303 0c68 05       		.uleb128 0x5
 2304 0c69 580C0000 		.4byte	0xc58
 2305 0c6d 06       		.uleb128 0x6
 2306 0c6e 680C0000 		.4byte	0xc68
 2307 0c72 05       		.uleb128 0x5
 2308 0c73 3E0C0000 		.4byte	0xc3e
 2309 0c77 06       		.uleb128 0x6
 2310 0c78 720C0000 		.4byte	0xc72
 2311 0c7c 0A       		.uleb128 0xa
 2312 0c7d B9000000 		.4byte	0xb9
 2313 0c81 8C0C0000 		.4byte	0xc8c
 2314 0c85 0B       		.uleb128 0xb
 2315 0c86 AD000000 		.4byte	0xad
 2316 0c8a 16       		.byte	0x16
 2317 0c8b 00       		.byte	0
 2318 0c8c 05       		.uleb128 0x5
 2319 0c8d 7C0C0000 		.4byte	0xc7c
 2320 0c91 06       		.uleb128 0x6
 2321 0c92 8C0C0000 		.4byte	0xc8c
 2322 0c96 0A       		.uleb128 0xa
 2323 0c97 B9000000 		.4byte	0xb9
 2324 0c9b A60C0000 		.4byte	0xca6
 2325 0c9f 0B       		.uleb128 0xb
 2326 0ca0 AD000000 		.4byte	0xad
 2327 0ca4 0E       		.byte	0xe
 2328 0ca5 00       		.byte	0
 2329 0ca6 05       		.uleb128 0x5
 2330 0ca7 960C0000 		.4byte	0xc96
 2331 0cab 06       		.uleb128 0x6
 2332 0cac A60C0000 		.4byte	0xca6
 2333 0cb0 05       		.uleb128 0x5
 2334 0cb1 91070000 		.4byte	0x791
 2335 0cb5 05       		.uleb128 0x5
 2336 0cb6 3E0C0000 		.4byte	0xc3e
 2337 0cba 06       		.uleb128 0x6
 2338 0cbb B50C0000 		.4byte	0xcb5
ARM GAS  C:\Users\cypress\AppData\Local\Temp\ccIrd8u1.s 			page 68


 2339 0cbf 05       		.uleb128 0x5
 2340 0cc0 3E0C0000 		.4byte	0xc3e
 2341 0cc4 06       		.uleb128 0x6
 2342 0cc5 BF0C0000 		.4byte	0xcbf
 2343 0cc9 05       		.uleb128 0x5
 2344 0cca 3E0C0000 		.4byte	0xc3e
 2345 0cce 06       		.uleb128 0x6
 2346 0ccf C90C0000 		.4byte	0xcc9
 2347 0cd3 05       		.uleb128 0x5
 2348 0cd4 3E0C0000 		.4byte	0xc3e
 2349 0cd8 06       		.uleb128 0x6
 2350 0cd9 D30C0000 		.4byte	0xcd3
 2351 0cdd 05       		.uleb128 0x5
 2352 0cde 3E0C0000 		.4byte	0xc3e
 2353 0ce2 06       		.uleb128 0x6
 2354 0ce3 DD0C0000 		.4byte	0xcdd
 2355 0ce7 05       		.uleb128 0x5
 2356 0ce8 D4070000 		.4byte	0x7d4
 2357 0cec 06       		.uleb128 0x6
 2358 0ced E70C0000 		.4byte	0xce7
 2359 0cf1 0A       		.uleb128 0xa
 2360 0cf2 B9000000 		.4byte	0xb9
 2361 0cf6 010D0000 		.4byte	0xd01
 2362 0cfa 0B       		.uleb128 0xb
 2363 0cfb AD000000 		.4byte	0xad
 2364 0cff 03       		.byte	0x3
 2365 0d00 00       		.byte	0
 2366 0d01 05       		.uleb128 0x5
 2367 0d02 F10C0000 		.4byte	0xcf1
 2368 0d06 06       		.uleb128 0x6
 2369 0d07 010D0000 		.4byte	0xd01
 2370 0d0b 0A       		.uleb128 0xa
 2371 0d0c B9000000 		.4byte	0xb9
 2372 0d10 1B0D0000 		.4byte	0xd1b
 2373 0d14 0B       		.uleb128 0xb
 2374 0d15 AD000000 		.4byte	0xad
 2375 0d19 04       		.byte	0x4
 2376 0d1a 00       		.byte	0
 2377 0d1b 05       		.uleb128 0x5
 2378 0d1c 0B0D0000 		.4byte	0xd0b
 2379 0d20 06       		.uleb128 0x6
 2380 0d21 1B0D0000 		.4byte	0xd1b
 2381 0d25 05       		.uleb128 0x5
 2382 0d26 3E0C0000 		.4byte	0xc3e
 2383 0d2a 06       		.uleb128 0x6
 2384 0d2b 250D0000 		.4byte	0xd25
 2385 0d2f 05       		.uleb128 0x5
 2386 0d30 3E0C0000 		.4byte	0xc3e
 2387 0d34 06       		.uleb128 0x6
 2388 0d35 2F0D0000 		.4byte	0xd2f
 2389 0d39 0A       		.uleb128 0xa
 2390 0d3a B9000000 		.4byte	0xb9
 2391 0d3e 490D0000 		.4byte	0xd49
 2392 0d42 0B       		.uleb128 0xb
 2393 0d43 AD000000 		.4byte	0xad
 2394 0d47 1A       		.byte	0x1a
 2395 0d48 00       		.byte	0
ARM GAS  C:\Users\cypress\AppData\Local\Temp\ccIrd8u1.s 			page 69


 2396 0d49 05       		.uleb128 0x5
 2397 0d4a 390D0000 		.4byte	0xd39
 2398 0d4e 06       		.uleb128 0x6
 2399 0d4f 490D0000 		.4byte	0xd49
 2400 0d53 05       		.uleb128 0x5
 2401 0d54 3E0C0000 		.4byte	0xc3e
 2402 0d58 06       		.uleb128 0x6
 2403 0d59 530D0000 		.4byte	0xd53
 2404 0d5d 05       		.uleb128 0x5
 2405 0d5e 7C0C0000 		.4byte	0xc7c
 2406 0d62 06       		.uleb128 0x6
 2407 0d63 5D0D0000 		.4byte	0xd5d
 2408 0d67 0A       		.uleb128 0xa
 2409 0d68 B9000000 		.4byte	0xb9
 2410 0d6c 770D0000 		.4byte	0xd77
 2411 0d70 0B       		.uleb128 0xb
 2412 0d71 AD000000 		.4byte	0xad
 2413 0d75 36       		.byte	0x36
 2414 0d76 00       		.byte	0
 2415 0d77 05       		.uleb128 0x5
 2416 0d78 670D0000 		.4byte	0xd67
 2417 0d7c 06       		.uleb128 0x6
 2418 0d7d 770D0000 		.4byte	0xd77
 2419 0d81 0A       		.uleb128 0xa
 2420 0d82 B9000000 		.4byte	0xb9
 2421 0d86 910D0000 		.4byte	0xd91
 2422 0d8a 0B       		.uleb128 0xb
 2423 0d8b AD000000 		.4byte	0xad
 2424 0d8f 3E       		.byte	0x3e
 2425 0d90 00       		.byte	0
 2426 0d91 05       		.uleb128 0x5
 2427 0d92 810D0000 		.4byte	0xd81
 2428 0d96 06       		.uleb128 0x6
 2429 0d97 910D0000 		.4byte	0xd91
 2430 0d9b 05       		.uleb128 0x5
 2431 0d9c D4070000 		.4byte	0x7d4
 2432 0da0 06       		.uleb128 0x6
 2433 0da1 9B0D0000 		.4byte	0xd9b
 2434 0da5 0A       		.uleb128 0xa
 2435 0da6 B9000000 		.4byte	0xb9
 2436 0daa B50D0000 		.4byte	0xdb5
 2437 0dae 0B       		.uleb128 0xb
 2438 0daf AD000000 		.4byte	0xad
 2439 0db3 1E       		.byte	0x1e
 2440 0db4 00       		.byte	0
 2441 0db5 05       		.uleb128 0x5
 2442 0db6 A50D0000 		.4byte	0xda5
 2443 0dba 06       		.uleb128 0x6
 2444 0dbb B50D0000 		.4byte	0xdb5
 2445 0dbf 0A       		.uleb128 0xa
 2446 0dc0 B9000000 		.4byte	0xb9
 2447 0dc4 D00D0000 		.4byte	0xdd0
 2448 0dc8 0C       		.uleb128 0xc
 2449 0dc9 AD000000 		.4byte	0xad
 2450 0dcd 963A     		.2byte	0x3a96
 2451 0dcf 00       		.byte	0
 2452 0dd0 05       		.uleb128 0x5
ARM GAS  C:\Users\cypress\AppData\Local\Temp\ccIrd8u1.s 			page 70


 2453 0dd1 BF0D0000 		.4byte	0xdbf
 2454 0dd5 06       		.uleb128 0x6
 2455 0dd6 D00D0000 		.4byte	0xdd0
 2456 0dda 03       		.uleb128 0x3
 2457 0ddb 11000000 		.4byte	.LASF174
 2458 0ddf 06       		.byte	0x6
 2459 0de0 63       		.byte	0x63
 2460 0de1 FE080000 		.4byte	0x8fe
 2461 0de5 0D       		.uleb128 0xd
 2462 0de6 20       		.byte	0x20
 2463 0de7 07       		.byte	0x7
 2464 0de8 23       		.byte	0x23
 2465 0de9 360E0000 		.4byte	0xe36
 2466 0ded 08       		.uleb128 0x8
 2467 0dee 6F0A0000 		.4byte	.LASF175
 2468 0df2 07       		.byte	0x7
 2469 0df3 24       		.byte	0x24
 2470 0df4 B9000000 		.4byte	0xb9
 2471 0df8 00       		.byte	0
 2472 0df9 08       		.uleb128 0x8
 2473 0dfa 450B0000 		.4byte	.LASF176
 2474 0dfe 07       		.byte	0x7
 2475 0dff 25       		.byte	0x25
 2476 0e00 B4000000 		.4byte	0xb4
 2477 0e04 04       		.byte	0x4
 2478 0e05 08       		.uleb128 0x8
 2479 0e06 3A070000 		.4byte	.LASF177
 2480 0e0a 07       		.byte	0x7
 2481 0e0b 26       		.byte	0x26
 2482 0e0c B4000000 		.4byte	0xb4
 2483 0e10 08       		.byte	0x8
 2484 0e11 08       		.uleb128 0x8
 2485 0e12 6F030000 		.4byte	.LASF178
 2486 0e16 07       		.byte	0x7
 2487 0e17 27       		.byte	0x27
 2488 0e18 B4000000 		.4byte	0xb4
 2489 0e1c 0C       		.byte	0xc
 2490 0e1d 08       		.uleb128 0x8
 2491 0e1e A3030000 		.4byte	.LASF179
 2492 0e22 07       		.byte	0x7
 2493 0e23 28       		.byte	0x28
 2494 0e24 B9000000 		.4byte	0xb9
 2495 0e28 10       		.byte	0x10
 2496 0e29 08       		.uleb128 0x8
 2497 0e2a 08000000 		.4byte	.LASF16
 2498 0e2e 07       		.byte	0x7
 2499 0e2f 29       		.byte	0x29
 2500 0e30 3B0E0000 		.4byte	0xe3b
 2501 0e34 14       		.byte	0x14
 2502 0e35 00       		.byte	0
 2503 0e36 05       		.uleb128 0x5
 2504 0e37 3E0C0000 		.4byte	0xc3e
 2505 0e3b 06       		.uleb128 0x6
 2506 0e3c 360E0000 		.4byte	0xe36
 2507 0e40 03       		.uleb128 0x3
 2508 0e41 CE0B0000 		.4byte	.LASF180
 2509 0e45 07       		.byte	0x7
ARM GAS  C:\Users\cypress\AppData\Local\Temp\ccIrd8u1.s 			page 71


 2510 0e46 2A       		.byte	0x2a
 2511 0e47 E50D0000 		.4byte	0xde5
 2512 0e4b 0D       		.uleb128 0xd
 2513 0e4c 20       		.byte	0x20
 2514 0e4d 07       		.byte	0x7
 2515 0e4e 2F       		.byte	0x2f
 2516 0e4f 900E0000 		.4byte	0xe90
 2517 0e53 08       		.uleb128 0x8
 2518 0e54 6C040000 		.4byte	.LASF181
 2519 0e58 07       		.byte	0x7
 2520 0e59 30       		.byte	0x30
 2521 0e5a B4000000 		.4byte	0xb4
 2522 0e5e 00       		.byte	0
 2523 0e5f 08       		.uleb128 0x8
 2524 0e60 E4020000 		.4byte	.LASF182
 2525 0e64 07       		.byte	0x7
 2526 0e65 31       		.byte	0x31
 2527 0e66 B4000000 		.4byte	0xb4
 2528 0e6a 04       		.byte	0x4
 2529 0e6b 08       		.uleb128 0x8
 2530 0e6c 0C0B0000 		.4byte	.LASF183
 2531 0e70 07       		.byte	0x7
 2532 0e71 32       		.byte	0x32
 2533 0e72 B4000000 		.4byte	0xb4
 2534 0e76 08       		.byte	0x8
 2535 0e77 08       		.uleb128 0x8
 2536 0e78 480E0000 		.4byte	.LASF184
 2537 0e7c 07       		.byte	0x7
 2538 0e7d 33       		.byte	0x33
 2539 0e7e B9000000 		.4byte	0xb9
 2540 0e82 0C       		.byte	0xc
 2541 0e83 08       		.uleb128 0x8
 2542 0e84 08000000 		.4byte	.LASF16
 2543 0e88 07       		.byte	0x7
 2544 0e89 34       		.byte	0x34
 2545 0e8a 950E0000 		.4byte	0xe95
 2546 0e8e 10       		.byte	0x10
 2547 0e8f 00       		.byte	0
 2548 0e90 05       		.uleb128 0x5
 2549 0e91 F10C0000 		.4byte	0xcf1
 2550 0e95 06       		.uleb128 0x6
 2551 0e96 900E0000 		.4byte	0xe90
 2552 0e9a 03       		.uleb128 0x3
 2553 0e9b A8010000 		.4byte	.LASF185
 2554 0e9f 07       		.byte	0x7
 2555 0ea0 35       		.byte	0x35
 2556 0ea1 4B0E0000 		.4byte	0xe4b
 2557 0ea5 07       		.uleb128 0x7
 2558 0ea6 0012     		.2byte	0x1200
 2559 0ea8 07       		.byte	0x7
 2560 0ea9 3A       		.byte	0x3a
 2561 0eaa D50E0000 		.4byte	0xed5
 2562 0eae 08       		.uleb128 0x8
 2563 0eaf 03120000 		.4byte	.LASF186
 2564 0eb3 07       		.byte	0x7
 2565 0eb4 3B       		.byte	0x3b
 2566 0eb5 D50E0000 		.4byte	0xed5
ARM GAS  C:\Users\cypress\AppData\Local\Temp\ccIrd8u1.s 			page 72


 2567 0eb9 00       		.byte	0
 2568 0eba 09       		.uleb128 0x9
 2569 0ebb 08000000 		.4byte	.LASF16
 2570 0ebf 07       		.byte	0x7
 2571 0ec0 3C       		.byte	0x3c
 2572 0ec1 FB0E0000 		.4byte	0xefb
 2573 0ec5 0002     		.2byte	0x200
 2574 0ec7 09       		.uleb128 0x9
 2575 0ec8 C5000000 		.4byte	.LASF187
 2576 0ecc 07       		.byte	0x7
 2577 0ecd 3D       		.byte	0x3d
 2578 0ece 000F0000 		.4byte	0xf00
 2579 0ed2 0010     		.2byte	0x1000
 2580 0ed4 00       		.byte	0
 2581 0ed5 0A       		.uleb128 0xa
 2582 0ed6 400E0000 		.4byte	0xe40
 2583 0eda E50E0000 		.4byte	0xee5
 2584 0ede 0B       		.uleb128 0xb
 2585 0edf AD000000 		.4byte	0xad
 2586 0ee3 0F       		.byte	0xf
 2587 0ee4 00       		.byte	0
 2588 0ee5 0A       		.uleb128 0xa
 2589 0ee6 B9000000 		.4byte	0xb9
 2590 0eea F60E0000 		.4byte	0xef6
 2591 0eee 0C       		.uleb128 0xc
 2592 0eef AD000000 		.4byte	0xad
 2593 0ef3 7F03     		.2byte	0x37f
 2594 0ef5 00       		.byte	0
 2595 0ef6 05       		.uleb128 0x5
 2596 0ef7 E50E0000 		.4byte	0xee5
 2597 0efb 06       		.uleb128 0x6
 2598 0efc F60E0000 		.4byte	0xef6
 2599 0f00 0A       		.uleb128 0xa
 2600 0f01 9A0E0000 		.4byte	0xe9a
 2601 0f05 100F0000 		.4byte	0xf10
 2602 0f09 0B       		.uleb128 0xb
 2603 0f0a AD000000 		.4byte	0xad
 2604 0f0e 0F       		.byte	0xf
 2605 0f0f 00       		.byte	0
 2606 0f10 03       		.uleb128 0x3
 2607 0f11 FA110000 		.4byte	.LASF188
 2608 0f15 07       		.byte	0x7
 2609 0f16 3E       		.byte	0x3e
 2610 0f17 A50E0000 		.4byte	0xea5
 2611 0f1b 0A       		.uleb128 0xa
 2612 0f1c B9000000 		.4byte	0xb9
 2613 0f20 2B0F0000 		.4byte	0xf2b
 2614 0f24 0B       		.uleb128 0xb
 2615 0f25 AD000000 		.4byte	0xad
 2616 0f29 1C       		.byte	0x1c
 2617 0f2a 00       		.byte	0
 2618 0f2b 0D       		.uleb128 0xd
 2619 0f2c 40       		.byte	0x40
 2620 0f2d 08       		.byte	0x8
 2621 0f2e 22       		.byte	0x22
 2622 0f2f C40F0000 		.4byte	0xfc4
 2623 0f33 08       		.uleb128 0x8
ARM GAS  C:\Users\cypress\AppData\Local\Temp\ccIrd8u1.s 			page 73


 2624 0f34 08000000 		.4byte	.LASF16
 2625 0f38 08       		.byte	0x8
 2626 0f39 23       		.byte	0x23
 2627 0f3a B9000000 		.4byte	0xb9
 2628 0f3e 00       		.byte	0
 2629 0f3f 08       		.uleb128 0x8
 2630 0f40 1D0A0000 		.4byte	.LASF189
 2631 0f44 08       		.byte	0x8
 2632 0f45 24       		.byte	0x24
 2633 0f46 B4000000 		.4byte	0xb4
 2634 0f4a 04       		.byte	0x4
 2635 0f4b 08       		.uleb128 0x8
 2636 0f4c EA030000 		.4byte	.LASF190
 2637 0f50 08       		.byte	0x8
 2638 0f51 25       		.byte	0x25
 2639 0f52 B4000000 		.4byte	0xb4
 2640 0f56 08       		.byte	0x8
 2641 0f57 08       		.uleb128 0x8
 2642 0f58 AD110000 		.4byte	.LASF191
 2643 0f5c 08       		.byte	0x8
 2644 0f5d 26       		.byte	0x26
 2645 0f5e B4000000 		.4byte	0xb4
 2646 0f62 0C       		.byte	0xc
 2647 0f63 08       		.uleb128 0x8
 2648 0f64 91100000 		.4byte	.LASF192
 2649 0f68 08       		.byte	0x8
 2650 0f69 27       		.byte	0x27
 2651 0f6a B4000000 		.4byte	0xb4
 2652 0f6e 10       		.byte	0x10
 2653 0f6f 08       		.uleb128 0x8
 2654 0f70 7A100000 		.4byte	.LASF193
 2655 0f74 08       		.byte	0x8
 2656 0f75 28       		.byte	0x28
 2657 0f76 B4000000 		.4byte	0xb4
 2658 0f7a 14       		.byte	0x14
 2659 0f7b 08       		.uleb128 0x8
 2660 0f7c 540A0000 		.4byte	.LASF194
 2661 0f80 08       		.byte	0x8
 2662 0f81 29       		.byte	0x29
 2663 0f82 B4000000 		.4byte	0xb4
 2664 0f86 18       		.byte	0x18
 2665 0f87 08       		.uleb128 0x8
 2666 0f88 E90D0000 		.4byte	.LASF195
 2667 0f8c 08       		.byte	0x8
 2668 0f8d 2A       		.byte	0x2a
 2669 0f8e B4000000 		.4byte	0xb4
 2670 0f92 1C       		.byte	0x1c
 2671 0f93 08       		.uleb128 0x8
 2672 0f94 82070000 		.4byte	.LASF196
 2673 0f98 08       		.byte	0x8
 2674 0f99 2B       		.byte	0x2b
 2675 0f9a B4000000 		.4byte	0xb4
 2676 0f9e 20       		.byte	0x20
 2677 0f9f 08       		.uleb128 0x8
 2678 0fa0 82040000 		.4byte	.LASF197
 2679 0fa4 08       		.byte	0x8
 2680 0fa5 2C       		.byte	0x2c
ARM GAS  C:\Users\cypress\AppData\Local\Temp\ccIrd8u1.s 			page 74


 2681 0fa6 B9000000 		.4byte	0xb9
 2682 0faa 24       		.byte	0x24
 2683 0fab 08       		.uleb128 0x8
 2684 0fac DE0B0000 		.4byte	.LASF198
 2685 0fb0 08       		.byte	0x8
 2686 0fb1 2D       		.byte	0x2d
 2687 0fb2 B4000000 		.4byte	0xb4
 2688 0fb6 28       		.byte	0x28
 2689 0fb7 08       		.uleb128 0x8
 2690 0fb8 B90C0000 		.4byte	.LASF19
 2691 0fbc 08       		.byte	0x8
 2692 0fbd 2E       		.byte	0x2e
 2693 0fbe C90F0000 		.4byte	0xfc9
 2694 0fc2 2C       		.byte	0x2c
 2695 0fc3 00       		.byte	0
 2696 0fc4 05       		.uleb128 0x5
 2697 0fc5 0B0D0000 		.4byte	0xd0b
 2698 0fc9 06       		.uleb128 0x6
 2699 0fca C40F0000 		.4byte	0xfc4
 2700 0fce 03       		.uleb128 0x3
 2701 0fcf F8030000 		.4byte	.LASF199
 2702 0fd3 08       		.byte	0x8
 2703 0fd4 2F       		.byte	0x2f
 2704 0fd5 2B0F0000 		.4byte	0xf2b
 2705 0fd9 07       		.uleb128 0x7
 2706 0fda 30FF     		.2byte	0xff30
 2707 0fdc 08       		.byte	0x8
 2708 0fdd 34       		.byte	0x34
 2709 0fde 4D130000 		.4byte	0x134d
 2710 0fe2 08       		.uleb128 0x8
 2711 0fe3 C3030000 		.4byte	.LASF200
 2712 0fe7 08       		.byte	0x8
 2713 0fe8 35       		.byte	0x35
 2714 0fe9 B4000000 		.4byte	0xb4
 2715 0fed 00       		.byte	0
 2716 0fee 08       		.uleb128 0x8
 2717 0fef D7080000 		.4byte	.LASF201
 2718 0ff3 08       		.byte	0x8
 2719 0ff4 36       		.byte	0x36
 2720 0ff5 B4000000 		.4byte	0xb4
 2721 0ff9 04       		.byte	0x4
 2722 0ffa 08       		.uleb128 0x8
 2723 0ffb 5D090000 		.4byte	.LASF202
 2724 0fff 08       		.byte	0x8
 2725 1000 37       		.byte	0x37
 2726 1001 B4000000 		.4byte	0xb4
 2727 1005 08       		.byte	0x8
 2728 1006 08       		.uleb128 0x8
 2729 1007 08000000 		.4byte	.LASF16
 2730 100b 08       		.byte	0x8
 2731 100c 38       		.byte	0x38
 2732 100d 52130000 		.4byte	0x1352
 2733 1011 0C       		.byte	0xc
 2734 1012 08       		.uleb128 0x8
 2735 1013 8E0D0000 		.4byte	.LASF203
 2736 1017 08       		.byte	0x8
 2737 1018 39       		.byte	0x39
ARM GAS  C:\Users\cypress\AppData\Local\Temp\ccIrd8u1.s 			page 75


 2738 1019 B4000000 		.4byte	0xb4
 2739 101d 14       		.byte	0x14
 2740 101e 08       		.uleb128 0x8
 2741 101f 34060000 		.4byte	.LASF204
 2742 1023 08       		.byte	0x8
 2743 1024 3A       		.byte	0x3a
 2744 1025 B4000000 		.4byte	0xb4
 2745 1029 18       		.byte	0x18
 2746 102a 08       		.uleb128 0x8
 2747 102b 60010000 		.4byte	.LASF205
 2748 102f 08       		.byte	0x8
 2749 1030 3B       		.byte	0x3b
 2750 1031 B9000000 		.4byte	0xb9
 2751 1035 1C       		.byte	0x1c
 2752 1036 08       		.uleb128 0x8
 2753 1037 B90C0000 		.4byte	.LASF19
 2754 103b 08       		.byte	0x8
 2755 103c 3C       		.byte	0x3c
 2756 103d 6C130000 		.4byte	0x136c
 2757 1041 20       		.byte	0x20
 2758 1042 08       		.uleb128 0x8
 2759 1043 DD030000 		.4byte	.LASF206
 2760 1047 08       		.byte	0x8
 2761 1048 3D       		.byte	0x3d
 2762 1049 71130000 		.4byte	0x1371
 2763 104d 80       		.byte	0x80
 2764 104e 08       		.uleb128 0x8
 2765 104f C30C0000 		.4byte	.LASF21
 2766 1053 08       		.byte	0x8
 2767 1054 3E       		.byte	0x3e
 2768 1055 7B130000 		.4byte	0x137b
 2769 1059 C0       		.byte	0xc0
 2770 105a 09       		.uleb128 0x9
 2771 105b 610F0000 		.4byte	.LASF207
 2772 105f 08       		.byte	0x8
 2773 1060 3F       		.byte	0x3f
 2774 1061 B4000000 		.4byte	0xb4
 2775 1065 8001     		.2byte	0x180
 2776 1067 09       		.uleb128 0x9
 2777 1068 9A090000 		.4byte	.LASF208
 2778 106c 08       		.byte	0x8
 2779 106d 40       		.byte	0x40
 2780 106e B4000000 		.4byte	0xb4
 2781 1072 8401     		.2byte	0x184
 2782 1074 09       		.uleb128 0x9
 2783 1075 060A0000 		.4byte	.LASF209
 2784 1079 08       		.byte	0x8
 2785 107a 41       		.byte	0x41
 2786 107b B4000000 		.4byte	0xb4
 2787 107f 8801     		.2byte	0x188
 2788 1081 09       		.uleb128 0x9
 2789 1082 CD0C0000 		.4byte	.LASF31
 2790 1086 08       		.byte	0x8
 2791 1087 42       		.byte	0x42
 2792 1088 85130000 		.4byte	0x1385
 2793 108c 8C01     		.2byte	0x18c
 2794 108e 09       		.uleb128 0x9
ARM GAS  C:\Users\cypress\AppData\Local\Temp\ccIrd8u1.s 			page 76


 2795 108f C10D0000 		.4byte	.LASF210
 2796 1093 08       		.byte	0x8
 2797 1094 43       		.byte	0x43
 2798 1095 8A130000 		.4byte	0x138a
 2799 1099 0002     		.2byte	0x200
 2800 109b 09       		.uleb128 0x9
 2801 109c E0110000 		.4byte	.LASF211
 2802 10a0 08       		.byte	0x8
 2803 10a1 44       		.byte	0x44
 2804 10a2 9A130000 		.4byte	0x139a
 2805 10a6 0003     		.2byte	0x300
 2806 10a8 09       		.uleb128 0x9
 2807 10a9 520D0000 		.4byte	.LASF212
 2808 10ad 08       		.byte	0x8
 2809 10ae 45       		.byte	0x45
 2810 10af 9F130000 		.4byte	0x139f
 2811 10b3 4003     		.2byte	0x340
 2812 10b5 09       		.uleb128 0x9
 2813 10b6 780C0000 		.4byte	.LASF213
 2814 10ba 08       		.byte	0x8
 2815 10bb 46       		.byte	0x46
 2816 10bc A4130000 		.4byte	0x13a4
 2817 10c0 8003     		.2byte	0x380
 2818 10c2 09       		.uleb128 0x9
 2819 10c3 D70C0000 		.4byte	.LASF34
 2820 10c7 08       		.byte	0x8
 2821 10c8 47       		.byte	0x47
 2822 10c9 BE130000 		.4byte	0x13be
 2823 10cd C003     		.2byte	0x3c0
 2824 10cf 09       		.uleb128 0x9
 2825 10d0 BA020000 		.4byte	.LASF214
 2826 10d4 08       		.byte	0x8
 2827 10d5 48       		.byte	0x48
 2828 10d6 B4000000 		.4byte	0xb4
 2829 10da 0005     		.2byte	0x500
 2830 10dc 09       		.uleb128 0x9
 2831 10dd D1090000 		.4byte	.LASF215
 2832 10e1 08       		.byte	0x8
 2833 10e2 49       		.byte	0x49
 2834 10e3 B4000000 		.4byte	0xb4
 2835 10e7 0405     		.2byte	0x504
 2836 10e9 09       		.uleb128 0x9
 2837 10ea E10C0000 		.4byte	.LASF36
 2838 10ee 08       		.byte	0x8
 2839 10ef 4A       		.byte	0x4a
 2840 10f0 B9000000 		.4byte	0xb9
 2841 10f4 0805     		.2byte	0x508
 2842 10f6 09       		.uleb128 0x9
 2843 10f7 1D020000 		.4byte	.LASF216
 2844 10fb 08       		.byte	0x8
 2845 10fc 4B       		.byte	0x4b
 2846 10fd B4000000 		.4byte	0xb4
 2847 1101 0C05     		.2byte	0x50c
 2848 1103 09       		.uleb128 0x9
 2849 1104 7D080000 		.4byte	.LASF217
 2850 1108 08       		.byte	0x8
 2851 1109 4C       		.byte	0x4c
ARM GAS  C:\Users\cypress\AppData\Local\Temp\ccIrd8u1.s 			page 77


 2852 110a B4000000 		.4byte	0xb4
 2853 110e 1005     		.2byte	0x510
 2854 1110 09       		.uleb128 0x9
 2855 1111 700B0000 		.4byte	.LASF218
 2856 1115 08       		.byte	0x8
 2857 1116 4D       		.byte	0x4d
 2858 1117 B4000000 		.4byte	0xb4
 2859 111b 1405     		.2byte	0x514
 2860 111d 09       		.uleb128 0x9
 2861 111e 97020000 		.4byte	.LASF219
 2862 1122 08       		.byte	0x8
 2863 1123 4E       		.byte	0x4e
 2864 1124 B4000000 		.4byte	0xb4
 2865 1128 1805     		.2byte	0x518
 2866 112a 09       		.uleb128 0x9
 2867 112b 0C070000 		.4byte	.LASF220
 2868 112f 08       		.byte	0x8
 2869 1130 4F       		.byte	0x4f
 2870 1131 B4000000 		.4byte	0xb4
 2871 1135 1C05     		.2byte	0x51c
 2872 1137 09       		.uleb128 0x9
 2873 1138 19070000 		.4byte	.LASF221
 2874 113c 08       		.byte	0x8
 2875 113d 50       		.byte	0x50
 2876 113e B9000000 		.4byte	0xb9
 2877 1142 2005     		.2byte	0x520
 2878 1144 09       		.uleb128 0x9
 2879 1145 EB0C0000 		.4byte	.LASF39
 2880 1149 08       		.byte	0x8
 2881 114a 51       		.byte	0x51
 2882 114b C8130000 		.4byte	0x13c8
 2883 114f 2405     		.2byte	0x524
 2884 1151 09       		.uleb128 0x9
 2885 1152 450A0000 		.4byte	.LASF222
 2886 1156 08       		.byte	0x8
 2887 1157 52       		.byte	0x52
 2888 1158 B4000000 		.4byte	0xb4
 2889 115c 2C05     		.2byte	0x52c
 2890 115e 09       		.uleb128 0x9
 2891 115f 8D060000 		.4byte	.LASF223
 2892 1163 08       		.byte	0x8
 2893 1164 53       		.byte	0x53
 2894 1165 B9000000 		.4byte	0xb9
 2895 1169 3005     		.2byte	0x530
 2896 116b 09       		.uleb128 0x9
 2897 116c D6110000 		.4byte	.LASF44
 2898 1170 08       		.byte	0x8
 2899 1171 54       		.byte	0x54
 2900 1172 D2130000 		.4byte	0x13d2
 2901 1176 3405     		.2byte	0x534
 2902 1178 09       		.uleb128 0x9
 2903 1179 600B0000 		.4byte	.LASF224
 2904 117d 08       		.byte	0x8
 2905 117e 55       		.byte	0x55
 2906 117f B4000000 		.4byte	0xb4
 2907 1183 3C05     		.2byte	0x53c
 2908 1185 09       		.uleb128 0x9
ARM GAS  C:\Users\cypress\AppData\Local\Temp\ccIrd8u1.s 			page 78


 2909 1186 FF0C0000 		.4byte	.LASF52
 2910 118a 08       		.byte	0x8
 2911 118b 56       		.byte	0x56
 2912 118c DC130000 		.4byte	0x13dc
 2913 1190 4005     		.2byte	0x540
 2914 1192 09       		.uleb128 0x9
 2915 1193 63060000 		.4byte	.LASF225
 2916 1197 08       		.byte	0x8
 2917 1198 57       		.byte	0x57
 2918 1199 B4000000 		.4byte	0xb4
 2919 119d 8005     		.2byte	0x580
 2920 119f 09       		.uleb128 0x9
 2921 11a0 CD060000 		.4byte	.LASF226
 2922 11a4 08       		.byte	0x8
 2923 11a5 58       		.byte	0x58
 2924 11a6 B4000000 		.4byte	0xb4
 2925 11aa 8405     		.2byte	0x584
 2926 11ac 09       		.uleb128 0x9
 2927 11ad DD060000 		.4byte	.LASF227
 2928 11b1 08       		.byte	0x8
 2929 11b2 59       		.byte	0x59
 2930 11b3 B4000000 		.4byte	0xb4
 2931 11b7 8805     		.2byte	0x588
 2932 11b9 09       		.uleb128 0x9
 2933 11ba ED060000 		.4byte	.LASF228
 2934 11be 08       		.byte	0x8
 2935 11bf 5A       		.byte	0x5a
 2936 11c0 B4000000 		.4byte	0xb4
 2937 11c4 8C05     		.2byte	0x58c
 2938 11c6 09       		.uleb128 0x9
 2939 11c7 DC010000 		.4byte	.LASF229
 2940 11cb 08       		.byte	0x8
 2941 11cc 5B       		.byte	0x5b
 2942 11cd B4000000 		.4byte	0xb4
 2943 11d1 9005     		.2byte	0x590
 2944 11d3 09       		.uleb128 0x9
 2945 11d4 090D0000 		.4byte	.LASF54
 2946 11d8 08       		.byte	0x8
 2947 11d9 5C       		.byte	0x5c
 2948 11da E6130000 		.4byte	0x13e6
 2949 11de 9405     		.2byte	0x594
 2950 11e0 09       		.uleb128 0x9
 2951 11e1 360B0000 		.4byte	.LASF230
 2952 11e5 08       		.byte	0x8
 2953 11e6 5D       		.byte	0x5d
 2954 11e7 FB130000 		.4byte	0x13fb
 2955 11eb 0006     		.2byte	0x600
 2956 11ed 09       		.uleb128 0x9
 2957 11ee 03100000 		.4byte	.LASF59
 2958 11f2 08       		.byte	0x8
 2959 11f3 5E       		.byte	0x5e
 2960 11f4 B9000000 		.4byte	0xb9
 2961 11f8 3C06     		.2byte	0x63c
 2962 11fa 09       		.uleb128 0x9
 2963 11fb E1070000 		.4byte	.LASF231
 2964 11ff 08       		.byte	0x8
 2965 1200 5F       		.byte	0x5f
ARM GAS  C:\Users\cypress\AppData\Local\Temp\ccIrd8u1.s 			page 79


 2966 1201 00140000 		.4byte	0x1400
 2967 1205 4006     		.2byte	0x640
 2968 1207 09       		.uleb128 0x9
 2969 1208 0E100000 		.4byte	.LASF65
 2970 120c 08       		.byte	0x8
 2971 120d 60       		.byte	0x60
 2972 120e 1A140000 		.4byte	0x141a
 2973 1212 7C06     		.2byte	0x67c
 2974 1214 09       		.uleb128 0x9
 2975 1215 1F0E0000 		.4byte	.LASF232
 2976 1219 08       		.byte	0x8
 2977 121a 61       		.byte	0x61
 2978 121b B4000000 		.4byte	0xb4
 2979 121f 0007     		.2byte	0x700
 2980 1221 09       		.uleb128 0x9
 2981 1222 BB090000 		.4byte	.LASF233
 2982 1226 08       		.byte	0x8
 2983 1227 62       		.byte	0x62
 2984 1228 B4000000 		.4byte	0xb4
 2985 122c 0407     		.2byte	0x704
 2986 122e 09       		.uleb128 0x9
 2987 122f BD010000 		.4byte	.LASF234
 2988 1233 08       		.byte	0x8
 2989 1234 63       		.byte	0x63
 2990 1235 B4000000 		.4byte	0xb4
 2991 1239 0807     		.2byte	0x708
 2992 123b 09       		.uleb128 0x9
 2993 123c 7D0D0000 		.4byte	.LASF235
 2994 1240 08       		.byte	0x8
 2995 1241 64       		.byte	0x64
 2996 1242 B9000000 		.4byte	0xb9
 2997 1246 0C07     		.2byte	0x70c
 2998 1248 09       		.uleb128 0x9
 2999 1249 08080000 		.4byte	.LASF236
 3000 124d 08       		.byte	0x8
 3001 124e 65       		.byte	0x65
 3002 124f B4000000 		.4byte	0xb4
 3003 1253 1007     		.2byte	0x710
 3004 1255 09       		.uleb128 0x9
 3005 1256 19100000 		.4byte	.LASF70
 3006 125a 08       		.byte	0x8
 3007 125b 66       		.byte	0x66
 3008 125c 34140000 		.4byte	0x1434
 3009 1260 1407     		.2byte	0x714
 3010 1262 09       		.uleb128 0x9
 3011 1263 8E0E0000 		.4byte	.LASF237
 3012 1267 08       		.byte	0x8
 3013 1268 67       		.byte	0x67
 3014 1269 B4000000 		.4byte	0xb4
 3015 126d 0008     		.2byte	0x800
 3016 126f 09       		.uleb128 0x9
 3017 1270 6F010000 		.4byte	.LASF238
 3018 1274 08       		.byte	0x8
 3019 1275 68       		.byte	0x68
 3020 1276 B4000000 		.4byte	0xb4
 3021 127a 0408     		.2byte	0x804
 3022 127c 09       		.uleb128 0x9
ARM GAS  C:\Users\cypress\AppData\Local\Temp\ccIrd8u1.s 			page 80


 3023 127d 24100000 		.4byte	.LASF77
 3024 1281 08       		.byte	0x8
 3025 1282 69       		.byte	0x69
 3026 1283 4F140000 		.4byte	0x144f
 3027 1287 0808     		.2byte	0x808
 3028 1289 09       		.uleb128 0x9
 3029 128a 8E0B0000 		.4byte	.LASF239
 3030 128e 08       		.byte	0x8
 3031 128f 6A       		.byte	0x6a
 3032 1290 B4000000 		.4byte	0xb4
 3033 1294 007F     		.2byte	0x7f00
 3034 1296 09       		.uleb128 0x9
 3035 1297 23030000 		.4byte	.LASF240
 3036 129b 08       		.byte	0x8
 3037 129c 6B       		.byte	0x6b
 3038 129d B4000000 		.4byte	0xb4
 3039 12a1 047F     		.2byte	0x7f04
 3040 12a3 09       		.uleb128 0x9
 3041 12a4 BA080000 		.4byte	.LASF241
 3042 12a8 08       		.byte	0x8
 3043 12a9 6C       		.byte	0x6c
 3044 12aa B4000000 		.4byte	0xb4
 3045 12ae 087F     		.2byte	0x7f08
 3046 12b0 09       		.uleb128 0x9
 3047 12b1 0A110000 		.4byte	.LASF242
 3048 12b5 08       		.byte	0x8
 3049 12b6 6D       		.byte	0x6d
 3050 12b7 B4000000 		.4byte	0xb4
 3051 12bb 0C7F     		.2byte	0x7f0c
 3052 12bd 09       		.uleb128 0x9
 3053 12be 2F100000 		.4byte	.LASF79
 3054 12c2 08       		.byte	0x8
 3055 12c3 6E       		.byte	0x6e
 3056 12c4 59140000 		.4byte	0x1459
 3057 12c8 107F     		.2byte	0x7f10
 3058 12ca 09       		.uleb128 0x9
 3059 12cb CB030000 		.4byte	.LASF58
 3060 12cf 08       		.byte	0x8
 3061 12d0 6F       		.byte	0x6f
 3062 12d1 B4000000 		.4byte	0xb4
 3063 12d5 307F     		.2byte	0x7f30
 3064 12d7 09       		.uleb128 0x9
 3065 12d8 3A100000 		.4byte	.LASF82
 3066 12dc 08       		.byte	0x8
 3067 12dd 70       		.byte	0x70
 3068 12de 74140000 		.4byte	0x1474
 3069 12e2 347F     		.2byte	0x7f34
 3070 12e4 09       		.uleb128 0x9
 3071 12e5 A8050000 		.4byte	.LASF243
 3072 12e9 08       		.byte	0x8
 3073 12ea 71       		.byte	0x71
 3074 12eb B4000000 		.4byte	0xb4
 3075 12ef 10FF     		.2byte	0xff10
 3076 12f1 09       		.uleb128 0x9
 3077 12f2 45100000 		.4byte	.LASF91
 3078 12f6 08       		.byte	0x8
 3079 12f7 72       		.byte	0x72
ARM GAS  C:\Users\cypress\AppData\Local\Temp\ccIrd8u1.s 			page 81


 3080 12f8 B9000000 		.4byte	0xb9
 3081 12fc 14FF     		.2byte	0xff14
 3082 12fe 09       		.uleb128 0x9
 3083 12ff 71040000 		.4byte	.LASF244
 3084 1303 08       		.byte	0x8
 3085 1304 73       		.byte	0x73
 3086 1305 B4000000 		.4byte	0xb4
 3087 1309 18FF     		.2byte	0xff18
 3088 130b 09       		.uleb128 0x9
 3089 130c B0100000 		.4byte	.LASF245
 3090 1310 08       		.byte	0x8
 3091 1311 74       		.byte	0x74
 3092 1312 B4000000 		.4byte	0xb4
 3093 1316 1CFF     		.2byte	0xff1c
 3094 1318 09       		.uleb128 0x9
 3095 1319 C50A0000 		.4byte	.LASF246
 3096 131d 08       		.byte	0x8
 3097 131e 75       		.byte	0x75
 3098 131f B4000000 		.4byte	0xb4
 3099 1323 20FF     		.2byte	0xff20
 3100 1325 09       		.uleb128 0x9
 3101 1326 6B0D0000 		.4byte	.LASF247
 3102 132a 08       		.byte	0x8
 3103 132b 76       		.byte	0x76
 3104 132c B4000000 		.4byte	0xb4
 3105 1330 24FF     		.2byte	0xff24
 3106 1332 09       		.uleb128 0x9
 3107 1333 43080000 		.4byte	.LASF248
 3108 1337 08       		.byte	0x8
 3109 1338 77       		.byte	0x77
 3110 1339 B4000000 		.4byte	0xb4
 3111 133d 28FF     		.2byte	0xff28
 3112 133f 09       		.uleb128 0x9
 3113 1340 56080000 		.4byte	.LASF249
 3114 1344 08       		.byte	0x8
 3115 1345 78       		.byte	0x78
 3116 1346 B4000000 		.4byte	0xb4
 3117 134a 2CFF     		.2byte	0xff2c
 3118 134c 00       		.byte	0
 3119 134d 05       		.uleb128 0x5
 3120 134e 81060000 		.4byte	0x681
 3121 1352 06       		.uleb128 0x6
 3122 1353 4D130000 		.4byte	0x134d
 3123 1357 0A       		.uleb128 0xa
 3124 1358 B9000000 		.4byte	0xb9
 3125 135c 67130000 		.4byte	0x1367
 3126 1360 0B       		.uleb128 0xb
 3127 1361 AD000000 		.4byte	0xad
 3128 1365 17       		.byte	0x17
 3129 1366 00       		.byte	0
 3130 1367 05       		.uleb128 0x5
 3131 1368 57130000 		.4byte	0x1357
 3132 136c 06       		.uleb128 0x6
 3133 136d 67130000 		.4byte	0x1367
 3134 1371 05       		.uleb128 0x5
 3135 1372 91070000 		.4byte	0x791
 3136 1376 05       		.uleb128 0x5
ARM GAS  C:\Users\cypress\AppData\Local\Temp\ccIrd8u1.s 			page 82


 3137 1377 09080000 		.4byte	0x809
 3138 137b 06       		.uleb128 0x6
 3139 137c 76130000 		.4byte	0x1376
 3140 1380 05       		.uleb128 0x5
 3141 1381 1B0F0000 		.4byte	0xf1b
 3142 1385 06       		.uleb128 0x6
 3143 1386 80130000 		.4byte	0x1380
 3144 138a 0A       		.uleb128 0xa
 3145 138b CE0F0000 		.4byte	0xfce
 3146 138f 9A130000 		.4byte	0x139a
 3147 1393 0B       		.uleb128 0xb
 3148 1394 AD000000 		.4byte	0xad
 3149 1398 03       		.byte	0x3
 3150 1399 00       		.byte	0
 3151 139a 05       		.uleb128 0x5
 3152 139b 91070000 		.4byte	0x791
 3153 139f 05       		.uleb128 0x5
 3154 13a0 91070000 		.4byte	0x791
 3155 13a4 05       		.uleb128 0x5
 3156 13a5 91070000 		.4byte	0x791
 3157 13a9 0A       		.uleb128 0xa
 3158 13aa B9000000 		.4byte	0xb9
 3159 13ae B9130000 		.4byte	0x13b9
 3160 13b2 0B       		.uleb128 0xb
 3161 13b3 AD000000 		.4byte	0xad
 3162 13b7 4F       		.byte	0x4f
 3163 13b8 00       		.byte	0
 3164 13b9 05       		.uleb128 0x5
 3165 13ba A9130000 		.4byte	0x13a9
 3166 13be 06       		.uleb128 0x6
 3167 13bf B9130000 		.4byte	0x13b9
 3168 13c3 05       		.uleb128 0x5
 3169 13c4 81060000 		.4byte	0x681
 3170 13c8 06       		.uleb128 0x6
 3171 13c9 C3130000 		.4byte	0x13c3
 3172 13cd 05       		.uleb128 0x5
 3173 13ce 81060000 		.4byte	0x681
 3174 13d2 06       		.uleb128 0x6
 3175 13d3 CD130000 		.4byte	0x13cd
 3176 13d7 05       		.uleb128 0x5
 3177 13d8 580C0000 		.4byte	0xc58
 3178 13dc 06       		.uleb128 0x6
 3179 13dd D7130000 		.4byte	0x13d7
 3180 13e1 05       		.uleb128 0x5
 3181 13e2 390D0000 		.4byte	0xd39
 3182 13e6 06       		.uleb128 0x6
 3183 13e7 E1130000 		.4byte	0x13e1
 3184 13eb 0A       		.uleb128 0xa
 3185 13ec B4000000 		.4byte	0xb4
 3186 13f0 FB130000 		.4byte	0x13fb
 3187 13f4 0B       		.uleb128 0xb
 3188 13f5 AD000000 		.4byte	0xad
 3189 13f9 0E       		.byte	0xe
 3190 13fa 00       		.byte	0
 3191 13fb 05       		.uleb128 0x5
 3192 13fc EB130000 		.4byte	0x13eb
 3193 1400 05       		.uleb128 0x5
ARM GAS  C:\Users\cypress\AppData\Local\Temp\ccIrd8u1.s 			page 83


 3194 1401 EB130000 		.4byte	0x13eb
 3195 1405 0A       		.uleb128 0xa
 3196 1406 B9000000 		.4byte	0xb9
 3197 140a 15140000 		.4byte	0x1415
 3198 140e 0B       		.uleb128 0xb
 3199 140f AD000000 		.4byte	0xad
 3200 1413 20       		.byte	0x20
 3201 1414 00       		.byte	0
 3202 1415 05       		.uleb128 0x5
 3203 1416 05140000 		.4byte	0x1405
 3204 141a 06       		.uleb128 0x6
 3205 141b 15140000 		.4byte	0x1415
 3206 141f 0A       		.uleb128 0xa
 3207 1420 B9000000 		.4byte	0xb9
 3208 1424 2F140000 		.4byte	0x142f
 3209 1428 0B       		.uleb128 0xb
 3210 1429 AD000000 		.4byte	0xad
 3211 142d 3A       		.byte	0x3a
 3212 142e 00       		.byte	0
 3213 142f 05       		.uleb128 0x5
 3214 1430 1F140000 		.4byte	0x141f
 3215 1434 06       		.uleb128 0x6
 3216 1435 2F140000 		.4byte	0x142f
 3217 1439 0A       		.uleb128 0xa
 3218 143a B9000000 		.4byte	0xb9
 3219 143e 4A140000 		.4byte	0x144a
 3220 1442 0C       		.uleb128 0xc
 3221 1443 AD000000 		.4byte	0xad
 3222 1447 BD1D     		.2byte	0x1dbd
 3223 1449 00       		.byte	0
 3224 144a 05       		.uleb128 0x5
 3225 144b 39140000 		.4byte	0x1439
 3226 144f 06       		.uleb128 0x6
 3227 1450 4A140000 		.4byte	0x144a
 3228 1454 05       		.uleb128 0x5
 3229 1455 EA060000 		.4byte	0x6ea
 3230 1459 06       		.uleb128 0x6
 3231 145a 54140000 		.4byte	0x1454
 3232 145e 0A       		.uleb128 0xa
 3233 145f B9000000 		.4byte	0xb9
 3234 1463 6F140000 		.4byte	0x146f
 3235 1467 0C       		.uleb128 0xc
 3236 1468 AD000000 		.4byte	0xad
 3237 146c F61F     		.2byte	0x1ff6
 3238 146e 00       		.byte	0
 3239 146f 05       		.uleb128 0x5
 3240 1470 5E140000 		.4byte	0x145e
 3241 1474 06       		.uleb128 0x6
 3242 1475 6F140000 		.4byte	0x146f
 3243 1479 03       		.uleb128 0x3
 3244 147a 1C000000 		.4byte	.LASF250
 3245 147e 08       		.byte	0x8
 3246 147f 79       		.byte	0x79
 3247 1480 D90F0000 		.4byte	0xfd9
 3248 1484 02       		.uleb128 0x2
 3249 1485 01       		.byte	0x1
 3250 1486 08       		.byte	0x8
ARM GAS  C:\Users\cypress\AppData\Local\Temp\ccIrd8u1.s 			page 84


 3251 1487 FB080000 		.4byte	.LASF251
 3252 148b 02       		.uleb128 0x2
 3253 148c 04       		.byte	0x4
 3254 148d 04       		.byte	0x4
 3255 148e 94040000 		.4byte	.LASF252
 3256 1492 02       		.uleb128 0x2
 3257 1493 08       		.byte	0x8
 3258 1494 04       		.byte	0x4
 3259 1495 9C110000 		.4byte	.LASF253
 3260 1499 02       		.uleb128 0x2
 3261 149a 08       		.byte	0x8
 3262 149b 04       		.byte	0x4
 3263 149c FF0B0000 		.4byte	.LASF254
 3264 14a0 0E       		.uleb128 0xe
 3265 14a1 DF090000 		.4byte	.LASF300
 3266 14a5 02       		.byte	0x2
 3267 14a6 6D03     		.2byte	0x36d
 3268 14a8 8C000000 		.4byte	0x8c
 3269 14ac 03       		.byte	0x3
 3270 14ad 0F       		.uleb128 0xf
 3271 14ae A4060000 		.4byte	.LASF301
 3272 14b2 01       		.byte	0x1
 3273 14b3 DE       		.byte	0xde
 3274 14b4 00000000 		.4byte	.LFB56
 3275 14b8 02000000 		.4byte	.LFE56-.LFB56
 3276 14bc 01       		.uleb128 0x1
 3277 14bd 9C       		.byte	0x9c
 3278 14be 10       		.uleb128 0x10
 3279 14bf 0A120000 		.4byte	.LASF274
 3280 14c3 01       		.byte	0x1
 3281 14c4 F1       		.byte	0xf1
 3282 14c5 00000000 		.4byte	.LFB57
 3283 14c9 B0010000 		.4byte	.LFE57-.LFB57
 3284 14cd 01       		.uleb128 0x1
 3285 14ce 9C       		.byte	0x9c
 3286 14cf 34160000 		.4byte	0x1634
 3287 14d3 11       		.uleb128 0x11
 3288 14d4 73050000 		.4byte	.LASF255
 3289 14d8 01       		.byte	0x1
 3290 14d9 F3       		.byte	0xf3
 3291 14da A2000000 		.4byte	0xa2
 3292 14de 00000000 		.4byte	.LLST0
 3293 14e2 11       		.uleb128 0x11
 3294 14e3 72060000 		.4byte	.LASF256
 3295 14e7 01       		.byte	0x1
 3296 14e8 F4       		.byte	0xf4
 3297 14e9 A2000000 		.4byte	0xa2
 3298 14ed 29000000 		.4byte	.LLST1
 3299 14f1 11       		.uleb128 0x11
 3300 14f2 680E0000 		.4byte	.LASF257
 3301 14f6 01       		.byte	0x1
 3302 14f7 F5       		.byte	0xf5
 3303 14f8 A2000000 		.4byte	0xa2
 3304 14fc 68000000 		.4byte	.LLST2
 3305 1500 11       		.uleb128 0x11
 3306 1501 B2060000 		.4byte	.LASF258
 3307 1505 01       		.byte	0x1
ARM GAS  C:\Users\cypress\AppData\Local\Temp\ccIrd8u1.s 			page 85


 3308 1506 F6       		.byte	0xf6
 3309 1507 A2000000 		.4byte	0xa2
 3310 150b 7B000000 		.4byte	.LLST3
 3311 150f 11       		.uleb128 0x11
 3312 1510 770F0000 		.4byte	.LASF259
 3313 1514 01       		.byte	0x1
 3314 1515 F7       		.byte	0xf7
 3315 1516 A2000000 		.4byte	0xa2
 3316 151a 8E000000 		.4byte	.LLST4
 3317 151e 11       		.uleb128 0x11
 3318 151f 5C060000 		.4byte	.LASF260
 3319 1523 01       		.byte	0x1
 3320 1524 F8       		.byte	0xf8
 3321 1525 A2000000 		.4byte	0xa2
 3322 1529 AC000000 		.4byte	.LLST5
 3323 152d 12       		.uleb128 0x12
 3324 152e 00000000 		.4byte	.Ldebug_ranges0+0
 3325 1532 47150000 		.4byte	0x1547
 3326 1536 13       		.uleb128 0x13
 3327 1537 9C060000 		.4byte	.LASF261
 3328 153b 01       		.byte	0x1
 3329 153c 1901     		.2byte	0x119
 3330 153e A2000000 		.4byte	0xa2
 3331 1542 D5000000 		.4byte	.LLST6
 3332 1546 00       		.byte	0
 3333 1547 14       		.uleb128 0x14
 3334 1548 58000000 		.4byte	.LBB6
 3335 154c 6E000000 		.4byte	.LBE6-.LBB6
 3336 1550 BF150000 		.4byte	0x15bf
 3337 1554 13       		.uleb128 0x13
 3338 1555 28080000 		.4byte	.LASF262
 3339 1559 01       		.byte	0x1
 3340 155a 4001     		.2byte	0x140
 3341 155c 34160000 		.4byte	0x1634
 3342 1560 F3000000 		.4byte	.LLST7
 3343 1564 13       		.uleb128 0x13
 3344 1565 D70F0000 		.4byte	.LASF263
 3345 1569 01       		.byte	0x1
 3346 156a 4101     		.2byte	0x141
 3347 156c 34160000 		.4byte	0x1634
 3348 1570 0A010000 		.4byte	.LLST8
 3349 1574 13       		.uleb128 0x13
 3350 1575 120F0000 		.4byte	.LASF264
 3351 1579 01       		.byte	0x1
 3352 157a 4201     		.2byte	0x142
 3353 157c 34160000 		.4byte	0x1634
 3354 1580 21010000 		.4byte	.LLST9
 3355 1584 15       		.uleb128 0x15
 3356 1585 9A000000 		.4byte	.LBB7
 3357 1589 2A000000 		.4byte	.LBE7-.LBB7
 3358 158d 13       		.uleb128 0x13
 3359 158e 4B010000 		.4byte	.LASF265
 3360 1592 01       		.byte	0x1
 3361 1593 4601     		.2byte	0x146
 3362 1595 A2000000 		.4byte	0xa2
 3363 1599 34010000 		.4byte	.LLST10
 3364 159d 13       		.uleb128 0x13
ARM GAS  C:\Users\cypress\AppData\Local\Temp\ccIrd8u1.s 			page 86


 3365 159e 66020000 		.4byte	.LASF266
 3366 15a2 01       		.byte	0x1
 3367 15a3 4701     		.2byte	0x147
 3368 15a5 A2000000 		.4byte	0xa2
 3369 15a9 47010000 		.4byte	.LLST11
 3370 15ad 13       		.uleb128 0x13
 3371 15ae A3110000 		.4byte	.LASF267
 3372 15b2 01       		.byte	0x1
 3373 15b3 4801     		.2byte	0x148
 3374 15b5 A2000000 		.4byte	0xa2
 3375 15b9 5A010000 		.4byte	.LLST12
 3376 15bd 00       		.byte	0
 3377 15be 00       		.byte	0
 3378 15bf 15       		.uleb128 0x15
 3379 15c0 CA000000 		.4byte	.LBB8
 3380 15c4 68000000 		.4byte	.LBE8-.LBB8
 3381 15c8 13       		.uleb128 0x13
 3382 15c9 48040000 		.4byte	.LASF268
 3383 15cd 01       		.byte	0x1
 3384 15ce 5801     		.2byte	0x158
 3385 15d0 34160000 		.4byte	0x1634
 3386 15d4 6D010000 		.4byte	.LLST13
 3387 15d8 13       		.uleb128 0x13
 3388 15d9 7D060000 		.4byte	.LASF269
 3389 15dd 01       		.byte	0x1
 3390 15de 5901     		.2byte	0x159
 3391 15e0 34160000 		.4byte	0x1634
 3392 15e4 84010000 		.4byte	.LLST14
 3393 15e8 13       		.uleb128 0x13
 3394 15e9 B80E0000 		.4byte	.LASF270
 3395 15ed 01       		.byte	0x1
 3396 15ee 5A01     		.2byte	0x15a
 3397 15f0 34160000 		.4byte	0x1634
 3398 15f4 9B010000 		.4byte	.LLST15
 3399 15f8 15       		.uleb128 0x15
 3400 15f9 0C010000 		.4byte	.LBB9
 3401 15fd 26000000 		.4byte	.LBE9-.LBB9
 3402 1601 13       		.uleb128 0x13
 3403 1602 71110000 		.4byte	.LASF271
 3404 1606 01       		.byte	0x1
 3405 1607 5E01     		.2byte	0x15e
 3406 1609 A2000000 		.4byte	0xa2
 3407 160d AE010000 		.4byte	.LLST16
 3408 1611 13       		.uleb128 0x13
 3409 1612 84100000 		.4byte	.LASF272
 3410 1616 01       		.byte	0x1
 3411 1617 5F01     		.2byte	0x15f
 3412 1619 A2000000 		.4byte	0xa2
 3413 161d C1010000 		.4byte	.LLST17
 3414 1621 13       		.uleb128 0x13
 3415 1622 A3110000 		.4byte	.LASF267
 3416 1626 01       		.byte	0x1
 3417 1627 6001     		.2byte	0x160
 3418 1629 A2000000 		.4byte	0xa2
 3419 162d D4010000 		.4byte	.LLST18
 3420 1631 00       		.byte	0
 3421 1632 00       		.byte	0
ARM GAS  C:\Users\cypress\AppData\Local\Temp\ccIrd8u1.s 			page 87


 3422 1633 00       		.byte	0
 3423 1634 02       		.uleb128 0x2
 3424 1635 01       		.byte	0x1
 3425 1636 02       		.byte	0x2
 3426 1637 72070000 		.4byte	.LASF273
 3427 163b 16       		.uleb128 0x16
 3428 163c EF110000 		.4byte	.LASF275
 3429 1640 01       		.byte	0x1
 3430 1641 A3       		.byte	0xa3
 3431 1642 00000000 		.4byte	.LFB55
 3432 1646 A4000000 		.4byte	.LFE55-.LFB55
 3433 164a 01       		.uleb128 0x1
 3434 164b 9C       		.byte	0x9c
 3435 164c 9C160000 		.4byte	0x169c
 3436 1650 11       		.uleb128 0x11
 3437 1651 AF030000 		.4byte	.LASF276
 3438 1655 01       		.byte	0x1
 3439 1656 A6       		.byte	0xa6
 3440 1657 A2000000 		.4byte	0xa2
 3441 165b E7010000 		.4byte	.LLST19
 3442 165f 17       		.uleb128 0x17
 3443 1660 A0140000 		.4byte	0x14a0
 3444 1664 6C000000 		.4byte	.LBB10
 3445 1668 16000000 		.4byte	.LBE10-.LBB10
 3446 166c 01       		.byte	0x1
 3447 166d C4       		.byte	0xc4
 3448 166e 18       		.uleb128 0x18
 3449 166f 5C000000 		.4byte	.LVL53
 3450 1673 AD140000 		.4byte	0x14ad
 3451 1677 18       		.uleb128 0x18
 3452 1678 60000000 		.4byte	.LVL54
 3453 167c BE140000 		.4byte	0x14be
 3454 1680 18       		.uleb128 0x18
 3455 1681 64000000 		.4byte	.LVL55
 3456 1685 AA180000 		.4byte	0x18aa
 3457 1689 18       		.uleb128 0x18
 3458 168a 68000000 		.4byte	.LVL56
 3459 168e B5180000 		.4byte	0x18b5
 3460 1692 18       		.uleb128 0x18
 3461 1693 6C000000 		.4byte	.LVL57
 3462 1697 C0180000 		.4byte	0x18c0
 3463 169b 00       		.byte	0
 3464 169c 19       		.uleb128 0x19
 3465 169d 01020000 		.4byte	.LASF302
 3466 16a1 01       		.byte	0x1
 3467 16a2 9501     		.2byte	0x195
 3468 16a4 A2000000 		.4byte	0xa2
 3469 16a8 00000000 		.4byte	.LFB58
 3470 16ac 10000000 		.4byte	.LFE58-.LFB58
 3471 16b0 01       		.uleb128 0x1
 3472 16b1 9C       		.byte	0x9c
 3473 16b2 C5160000 		.4byte	0x16c5
 3474 16b6 1A       		.uleb128 0x1a
 3475 16b7 14020000 		.4byte	.LASF277
 3476 16bb 01       		.byte	0x1
 3477 16bc 9701     		.2byte	0x197
 3478 16be A2000000 		.4byte	0xa2
ARM GAS  C:\Users\cypress\AppData\Local\Temp\ccIrd8u1.s 			page 88


 3479 16c2 01       		.uleb128 0x1
 3480 16c3 50       		.byte	0x50
 3481 16c4 00       		.byte	0
 3482 16c5 1B       		.uleb128 0x1b
 3483 16c6 32080000 		.4byte	.LASF278
 3484 16ca 01       		.byte	0x1
 3485 16cb D901     		.2byte	0x1d9
 3486 16cd 00000000 		.4byte	.LFB60
 3487 16d1 34000000 		.4byte	.LFE60-.LFB60
 3488 16d5 01       		.uleb128 0x1
 3489 16d6 9C       		.byte	0x9c
 3490 16d7 0E170000 		.4byte	0x170e
 3491 16db 13       		.uleb128 0x13
 3492 16dc 2C020000 		.4byte	.LASF279
 3493 16e0 01       		.byte	0x1
 3494 16e1 DB01     		.2byte	0x1db
 3495 16e3 A2000000 		.4byte	0xa2
 3496 16e7 14020000 		.4byte	.LLST20
 3497 16eb 13       		.uleb128 0x13
 3498 16ec 14020000 		.4byte	.LASF277
 3499 16f0 01       		.byte	0x1
 3500 16f1 DC01     		.2byte	0x1dc
 3501 16f3 A2000000 		.4byte	0xa2
 3502 16f7 27020000 		.4byte	.LLST21
 3503 16fb 18       		.uleb128 0x18
 3504 16fc 06000000 		.4byte	.LVL59
 3505 1700 CC180000 		.4byte	0x18cc
 3506 1704 18       		.uleb128 0x18
 3507 1705 24000000 		.4byte	.LVL63
 3508 1709 D8180000 		.4byte	0x18d8
 3509 170d 00       		.byte	0
 3510 170e 1B       		.uleb128 0x1b
 3511 170f BD060000 		.4byte	.LASF280
 3512 1713 01       		.byte	0x1
 3513 1714 FF01     		.2byte	0x1ff
 3514 1716 00000000 		.4byte	.LFB61
 3515 171a 28000000 		.4byte	.LFE61-.LFB61
 3516 171e 01       		.uleb128 0x1
 3517 171f 9C       		.byte	0x9c
 3518 1720 57170000 		.4byte	0x1757
 3519 1724 13       		.uleb128 0x13
 3520 1725 2C020000 		.4byte	.LASF279
 3521 1729 01       		.byte	0x1
 3522 172a 0102     		.2byte	0x201
 3523 172c A2000000 		.4byte	0xa2
 3524 1730 47020000 		.4byte	.LLST22
 3525 1734 13       		.uleb128 0x13
 3526 1735 14020000 		.4byte	.LASF277
 3527 1739 01       		.byte	0x1
 3528 173a 0202     		.2byte	0x202
 3529 173c A2000000 		.4byte	0xa2
 3530 1740 5A020000 		.4byte	.LLST23
 3531 1744 18       		.uleb128 0x18
 3532 1745 06000000 		.4byte	.LVL64
 3533 1749 CC180000 		.4byte	0x18cc
 3534 174d 18       		.uleb128 0x18
 3535 174e 1A000000 		.4byte	.LVL67
ARM GAS  C:\Users\cypress\AppData\Local\Temp\ccIrd8u1.s 			page 89


 3536 1752 D8180000 		.4byte	0x18d8
 3537 1756 00       		.byte	0
 3538 1757 1B       		.uleb128 0x1b
 3539 1758 E70F0000 		.4byte	.LASF281
 3540 175c 01       		.byte	0x1
 3541 175d 1F02     		.2byte	0x21f
 3542 175f 00000000 		.4byte	.LFB62
 3543 1763 34000000 		.4byte	.LFE62-.LFB62
 3544 1767 01       		.uleb128 0x1
 3545 1768 9C       		.byte	0x9c
 3546 1769 A0170000 		.4byte	0x17a0
 3547 176d 13       		.uleb128 0x13
 3548 176e 2C020000 		.4byte	.LASF279
 3549 1772 01       		.byte	0x1
 3550 1773 2102     		.2byte	0x221
 3551 1775 A2000000 		.4byte	0xa2
 3552 1779 80020000 		.4byte	.LLST24
 3553 177d 13       		.uleb128 0x13
 3554 177e 14020000 		.4byte	.LASF277
 3555 1782 01       		.byte	0x1
 3556 1783 2202     		.2byte	0x222
 3557 1785 A2000000 		.4byte	0xa2
 3558 1789 93020000 		.4byte	.LLST25
 3559 178d 18       		.uleb128 0x18
 3560 178e 06000000 		.4byte	.LVL68
 3561 1792 CC180000 		.4byte	0x18cc
 3562 1796 18       		.uleb128 0x18
 3563 1797 24000000 		.4byte	.LVL72
 3564 179b D8180000 		.4byte	0x18d8
 3565 179f 00       		.byte	0
 3566 17a0 1B       		.uleb128 0x1b
 3567 17a1 4A0C0000 		.4byte	.LASF282
 3568 17a5 01       		.byte	0x1
 3569 17a6 AC01     		.2byte	0x1ac
 3570 17a8 00000000 		.4byte	.LFB59
 3571 17ac 4C000000 		.4byte	.LFE59-.LFB59
 3572 17b0 01       		.uleb128 0x1
 3573 17b1 9C       		.byte	0x9c
 3574 17b2 22180000 		.4byte	0x1822
 3575 17b6 1C       		.uleb128 0x1c
 3576 17b7 9E100000 		.4byte	.LASF303
 3577 17bb 01       		.byte	0x1
 3578 17bc AC01     		.2byte	0x1ac
 3579 17be A2000000 		.4byte	0xa2
 3580 17c2 C6020000 		.4byte	.LLST26
 3581 17c6 13       		.uleb128 0x13
 3582 17c7 14020000 		.4byte	.LASF277
 3583 17cb 01       		.byte	0x1
 3584 17cc AE01     		.2byte	0x1ae
 3585 17ce A2000000 		.4byte	0xa2
 3586 17d2 F2020000 		.4byte	.LLST27
 3587 17d6 13       		.uleb128 0x13
 3588 17d7 2C020000 		.4byte	.LASF279
 3589 17db 01       		.byte	0x1
 3590 17dc AF01     		.2byte	0x1af
 3591 17de A2000000 		.4byte	0xa2
 3592 17e2 27030000 		.4byte	.LLST28
ARM GAS  C:\Users\cypress\AppData\Local\Temp\ccIrd8u1.s 			page 90


 3593 17e6 13       		.uleb128 0x13
 3594 17e7 71100000 		.4byte	.LASF283
 3595 17eb 01       		.byte	0x1
 3596 17ec B001     		.2byte	0x1b0
 3597 17ee A2000000 		.4byte	0xa2
 3598 17f2 45030000 		.4byte	.LLST29
 3599 17f6 18       		.uleb128 0x18
 3600 17f7 08000000 		.4byte	.LVL74
 3601 17fb CC180000 		.4byte	0x18cc
 3602 17ff 18       		.uleb128 0x18
 3603 1800 0E000000 		.4byte	.LVL76
 3604 1804 9C160000 		.4byte	0x169c
 3605 1808 18       		.uleb128 0x18
 3606 1809 16000000 		.4byte	.LVL77
 3607 180d 57170000 		.4byte	0x1757
 3608 1811 1D       		.uleb128 0x1d
 3609 1812 3C000000 		.4byte	.LVL81
 3610 1816 D8180000 		.4byte	0x18d8
 3611 181a 1E       		.uleb128 0x1e
 3612 181b 01       		.uleb128 0x1
 3613 181c 50       		.byte	0x50
 3614 181d 02       		.uleb128 0x2
 3615 181e 74       		.byte	0x74
 3616 181f 00       		.sleb128 0
 3617 1820 00       		.byte	0
 3618 1821 00       		.byte	0
 3619 1822 1F       		.uleb128 0x1f
 3620 1823 C7110000 		.4byte	.LASF284
 3621 1827 01       		.byte	0x1
 3622 1828 73       		.byte	0x73
 3623 1829 A2000000 		.4byte	0xa2
 3624 182d 05       		.uleb128 0x5
 3625 182e 03       		.byte	0x3
 3626 182f 00000000 		.4byte	cy_delayFreqHz
 3627 1833 1F       		.uleb128 0x1f
 3628 1834 5F0A0000 		.4byte	.LASF285
 3629 1838 01       		.byte	0x1
 3630 1839 75       		.byte	0x75
 3631 183a A2000000 		.4byte	0xa2
 3632 183e 05       		.uleb128 0x5
 3633 183f 03       		.byte	0x3
 3634 1840 00000000 		.4byte	cy_delayFreqKhz
 3635 1844 1F       		.uleb128 0x1f
 3636 1845 4D090000 		.4byte	.LASF286
 3637 1849 01       		.byte	0x1
 3638 184a 78       		.byte	0x78
 3639 184b 8C000000 		.4byte	0x8c
 3640 184f 05       		.uleb128 0x5
 3641 1850 03       		.byte	0x3
 3642 1851 00000000 		.4byte	cy_delayFreqMhz
 3643 1855 1F       		.uleb128 0x1f
 3644 1856 FD050000 		.4byte	.LASF287
 3645 185a 01       		.byte	0x1
 3646 185b 7B       		.byte	0x7b
 3647 185c A2000000 		.4byte	0xa2
 3648 1860 05       		.uleb128 0x5
 3649 1861 03       		.byte	0x3
ARM GAS  C:\Users\cypress\AppData\Local\Temp\ccIrd8u1.s 			page 91


 3650 1862 00000000 		.4byte	cy_delay32kMs
 3651 1866 1F       		.uleb128 0x1f
 3652 1867 0B0C0000 		.4byte	.LASF288
 3653 186b 01       		.byte	0x1
 3654 186c 4E       		.byte	0x4e
 3655 186d A2000000 		.4byte	0xa2
 3656 1871 05       		.uleb128 0x5
 3657 1872 03       		.byte	0x3
 3658 1873 00000000 		.4byte	SystemCoreClock
 3659 1877 1F       		.uleb128 0x1f
 3660 1878 F8000000 		.4byte	.LASF289
 3661 187c 01       		.byte	0x1
 3662 187d 58       		.byte	0x58
 3663 187e A2000000 		.4byte	0xa2
 3664 1882 05       		.uleb128 0x5
 3665 1883 03       		.byte	0x3
 3666 1884 00000000 		.4byte	cy_BleEcoClockFreqHz
 3667 1888 1F       		.uleb128 0x1f
 3668 1889 20040000 		.4byte	.LASF290
 3669 188d 01       		.byte	0x1
 3670 188e 51       		.byte	0x51
 3671 188f A2000000 		.4byte	0xa2
 3672 1893 05       		.uleb128 0x5
 3673 1894 03       		.byte	0x3
 3674 1895 00000000 		.4byte	cy_Hfclk0FreqHz
 3675 1899 1F       		.uleb128 0x1f
 3676 189a A80C0000 		.4byte	.LASF291
 3677 189e 01       		.byte	0x1
 3678 189f 54       		.byte	0x54
 3679 18a0 A2000000 		.4byte	0xa2
 3680 18a4 05       		.uleb128 0x5
 3681 18a5 03       		.byte	0x3
 3682 18a6 00000000 		.4byte	cy_PeriClkFreqHz
 3683 18aa 20       		.uleb128 0x20
 3684 18ab E5080000 		.4byte	.LASF292
 3685 18af E5080000 		.4byte	.LASF292
 3686 18b3 09       		.byte	0x9
 3687 18b4 7B       		.byte	0x7b
 3688 18b5 20       		.uleb128 0x20
 3689 18b6 0D010000 		.4byte	.LASF293
 3690 18ba 0D010000 		.4byte	.LASF293
 3691 18be 09       		.byte	0x9
 3692 18bf 82       		.byte	0x82
 3693 18c0 21       		.uleb128 0x21
 3694 18c1 3B020000 		.4byte	.LASF294
 3695 18c5 3B020000 		.4byte	.LASF294
 3696 18c9 0A       		.byte	0xa
 3697 18ca 8A01     		.2byte	0x18a
 3698 18cc 21       		.uleb128 0x21
 3699 18cd 20120000 		.4byte	.LASF295
 3700 18d1 20120000 		.4byte	.LASF295
 3701 18d5 0B       		.byte	0xb
 3702 18d6 0702     		.2byte	0x207
 3703 18d8 21       		.uleb128 0x21
 3704 18d9 800B0000 		.4byte	.LASF296
 3705 18dd 800B0000 		.4byte	.LASF296
 3706 18e1 0B       		.byte	0xb
ARM GAS  C:\Users\cypress\AppData\Local\Temp\ccIrd8u1.s 			page 92


 3707 18e2 0802     		.2byte	0x208
 3708 18e4 00       		.byte	0
 3709              		.section	.debug_abbrev,"",%progbits
 3710              	.Ldebug_abbrev0:
 3711 0000 01       		.uleb128 0x1
 3712 0001 11       		.uleb128 0x11
 3713 0002 01       		.byte	0x1
 3714 0003 25       		.uleb128 0x25
 3715 0004 0E       		.uleb128 0xe
 3716 0005 13       		.uleb128 0x13
 3717 0006 0B       		.uleb128 0xb
 3718 0007 03       		.uleb128 0x3
 3719 0008 0E       		.uleb128 0xe
 3720 0009 1B       		.uleb128 0x1b
 3721 000a 0E       		.uleb128 0xe
 3722 000b 55       		.uleb128 0x55
 3723 000c 17       		.uleb128 0x17
 3724 000d 11       		.uleb128 0x11
 3725 000e 01       		.uleb128 0x1
 3726 000f 10       		.uleb128 0x10
 3727 0010 17       		.uleb128 0x17
 3728 0011 00       		.byte	0
 3729 0012 00       		.byte	0
 3730 0013 02       		.uleb128 0x2
 3731 0014 24       		.uleb128 0x24
 3732 0015 00       		.byte	0
 3733 0016 0B       		.uleb128 0xb
 3734 0017 0B       		.uleb128 0xb
 3735 0018 3E       		.uleb128 0x3e
 3736 0019 0B       		.uleb128 0xb
 3737 001a 03       		.uleb128 0x3
 3738 001b 0E       		.uleb128 0xe
 3739 001c 00       		.byte	0
 3740 001d 00       		.byte	0
 3741 001e 03       		.uleb128 0x3
 3742 001f 16       		.uleb128 0x16
 3743 0020 00       		.byte	0
 3744 0021 03       		.uleb128 0x3
 3745 0022 0E       		.uleb128 0xe
 3746 0023 3A       		.uleb128 0x3a
 3747 0024 0B       		.uleb128 0xb
 3748 0025 3B       		.uleb128 0x3b
 3749 0026 0B       		.uleb128 0xb
 3750 0027 49       		.uleb128 0x49
 3751 0028 13       		.uleb128 0x13
 3752 0029 00       		.byte	0
 3753 002a 00       		.byte	0
 3754 002b 04       		.uleb128 0x4
 3755 002c 24       		.uleb128 0x24
 3756 002d 00       		.byte	0
 3757 002e 0B       		.uleb128 0xb
 3758 002f 0B       		.uleb128 0xb
 3759 0030 3E       		.uleb128 0x3e
 3760 0031 0B       		.uleb128 0xb
 3761 0032 03       		.uleb128 0x3
 3762 0033 08       		.uleb128 0x8
 3763 0034 00       		.byte	0
ARM GAS  C:\Users\cypress\AppData\Local\Temp\ccIrd8u1.s 			page 93


 3764 0035 00       		.byte	0
 3765 0036 05       		.uleb128 0x5
 3766 0037 35       		.uleb128 0x35
 3767 0038 00       		.byte	0
 3768 0039 49       		.uleb128 0x49
 3769 003a 13       		.uleb128 0x13
 3770 003b 00       		.byte	0
 3771 003c 00       		.byte	0
 3772 003d 06       		.uleb128 0x6
 3773 003e 26       		.uleb128 0x26
 3774 003f 00       		.byte	0
 3775 0040 49       		.uleb128 0x49
 3776 0041 13       		.uleb128 0x13
 3777 0042 00       		.byte	0
 3778 0043 00       		.byte	0
 3779 0044 07       		.uleb128 0x7
 3780 0045 13       		.uleb128 0x13
 3781 0046 01       		.byte	0x1
 3782 0047 0B       		.uleb128 0xb
 3783 0048 05       		.uleb128 0x5
 3784 0049 3A       		.uleb128 0x3a
 3785 004a 0B       		.uleb128 0xb
 3786 004b 3B       		.uleb128 0x3b
 3787 004c 0B       		.uleb128 0xb
 3788 004d 01       		.uleb128 0x1
 3789 004e 13       		.uleb128 0x13
 3790 004f 00       		.byte	0
 3791 0050 00       		.byte	0
 3792 0051 08       		.uleb128 0x8
 3793 0052 0D       		.uleb128 0xd
 3794 0053 00       		.byte	0
 3795 0054 03       		.uleb128 0x3
 3796 0055 0E       		.uleb128 0xe
 3797 0056 3A       		.uleb128 0x3a
 3798 0057 0B       		.uleb128 0xb
 3799 0058 3B       		.uleb128 0x3b
 3800 0059 0B       		.uleb128 0xb
 3801 005a 49       		.uleb128 0x49
 3802 005b 13       		.uleb128 0x13
 3803 005c 38       		.uleb128 0x38
 3804 005d 0B       		.uleb128 0xb
 3805 005e 00       		.byte	0
 3806 005f 00       		.byte	0
 3807 0060 09       		.uleb128 0x9
 3808 0061 0D       		.uleb128 0xd
 3809 0062 00       		.byte	0
 3810 0063 03       		.uleb128 0x3
 3811 0064 0E       		.uleb128 0xe
 3812 0065 3A       		.uleb128 0x3a
 3813 0066 0B       		.uleb128 0xb
 3814 0067 3B       		.uleb128 0x3b
 3815 0068 0B       		.uleb128 0xb
 3816 0069 49       		.uleb128 0x49
 3817 006a 13       		.uleb128 0x13
 3818 006b 38       		.uleb128 0x38
 3819 006c 05       		.uleb128 0x5
 3820 006d 00       		.byte	0
ARM GAS  C:\Users\cypress\AppData\Local\Temp\ccIrd8u1.s 			page 94


 3821 006e 00       		.byte	0
 3822 006f 0A       		.uleb128 0xa
 3823 0070 01       		.uleb128 0x1
 3824 0071 01       		.byte	0x1
 3825 0072 49       		.uleb128 0x49
 3826 0073 13       		.uleb128 0x13
 3827 0074 01       		.uleb128 0x1
 3828 0075 13       		.uleb128 0x13
 3829 0076 00       		.byte	0
 3830 0077 00       		.byte	0
 3831 0078 0B       		.uleb128 0xb
 3832 0079 21       		.uleb128 0x21
 3833 007a 00       		.byte	0
 3834 007b 49       		.uleb128 0x49
 3835 007c 13       		.uleb128 0x13
 3836 007d 2F       		.uleb128 0x2f
 3837 007e 0B       		.uleb128 0xb
 3838 007f 00       		.byte	0
 3839 0080 00       		.byte	0
 3840 0081 0C       		.uleb128 0xc
 3841 0082 21       		.uleb128 0x21
 3842 0083 00       		.byte	0
 3843 0084 49       		.uleb128 0x49
 3844 0085 13       		.uleb128 0x13
 3845 0086 2F       		.uleb128 0x2f
 3846 0087 05       		.uleb128 0x5
 3847 0088 00       		.byte	0
 3848 0089 00       		.byte	0
 3849 008a 0D       		.uleb128 0xd
 3850 008b 13       		.uleb128 0x13
 3851 008c 01       		.byte	0x1
 3852 008d 0B       		.uleb128 0xb
 3853 008e 0B       		.uleb128 0xb
 3854 008f 3A       		.uleb128 0x3a
 3855 0090 0B       		.uleb128 0xb
 3856 0091 3B       		.uleb128 0x3b
 3857 0092 0B       		.uleb128 0xb
 3858 0093 01       		.uleb128 0x1
 3859 0094 13       		.uleb128 0x13
 3860 0095 00       		.byte	0
 3861 0096 00       		.byte	0
 3862 0097 0E       		.uleb128 0xe
 3863 0098 2E       		.uleb128 0x2e
 3864 0099 00       		.byte	0
 3865 009a 03       		.uleb128 0x3
 3866 009b 0E       		.uleb128 0xe
 3867 009c 3A       		.uleb128 0x3a
 3868 009d 0B       		.uleb128 0xb
 3869 009e 3B       		.uleb128 0x3b
 3870 009f 05       		.uleb128 0x5
 3871 00a0 27       		.uleb128 0x27
 3872 00a1 19       		.uleb128 0x19
 3873 00a2 49       		.uleb128 0x49
 3874 00a3 13       		.uleb128 0x13
 3875 00a4 20       		.uleb128 0x20
 3876 00a5 0B       		.uleb128 0xb
 3877 00a6 00       		.byte	0
ARM GAS  C:\Users\cypress\AppData\Local\Temp\ccIrd8u1.s 			page 95


 3878 00a7 00       		.byte	0
 3879 00a8 0F       		.uleb128 0xf
 3880 00a9 2E       		.uleb128 0x2e
 3881 00aa 00       		.byte	0
 3882 00ab 3F       		.uleb128 0x3f
 3883 00ac 19       		.uleb128 0x19
 3884 00ad 03       		.uleb128 0x3
 3885 00ae 0E       		.uleb128 0xe
 3886 00af 3A       		.uleb128 0x3a
 3887 00b0 0B       		.uleb128 0xb
 3888 00b1 3B       		.uleb128 0x3b
 3889 00b2 0B       		.uleb128 0xb
 3890 00b3 27       		.uleb128 0x27
 3891 00b4 19       		.uleb128 0x19
 3892 00b5 11       		.uleb128 0x11
 3893 00b6 01       		.uleb128 0x1
 3894 00b7 12       		.uleb128 0x12
 3895 00b8 06       		.uleb128 0x6
 3896 00b9 40       		.uleb128 0x40
 3897 00ba 18       		.uleb128 0x18
 3898 00bb 9742     		.uleb128 0x2117
 3899 00bd 19       		.uleb128 0x19
 3900 00be 00       		.byte	0
 3901 00bf 00       		.byte	0
 3902 00c0 10       		.uleb128 0x10
 3903 00c1 2E       		.uleb128 0x2e
 3904 00c2 01       		.byte	0x1
 3905 00c3 3F       		.uleb128 0x3f
 3906 00c4 19       		.uleb128 0x19
 3907 00c5 03       		.uleb128 0x3
 3908 00c6 0E       		.uleb128 0xe
 3909 00c7 3A       		.uleb128 0x3a
 3910 00c8 0B       		.uleb128 0xb
 3911 00c9 3B       		.uleb128 0x3b
 3912 00ca 0B       		.uleb128 0xb
 3913 00cb 27       		.uleb128 0x27
 3914 00cc 19       		.uleb128 0x19
 3915 00cd 11       		.uleb128 0x11
 3916 00ce 01       		.uleb128 0x1
 3917 00cf 12       		.uleb128 0x12
 3918 00d0 06       		.uleb128 0x6
 3919 00d1 40       		.uleb128 0x40
 3920 00d2 18       		.uleb128 0x18
 3921 00d3 9642     		.uleb128 0x2116
 3922 00d5 19       		.uleb128 0x19
 3923 00d6 01       		.uleb128 0x1
 3924 00d7 13       		.uleb128 0x13
 3925 00d8 00       		.byte	0
 3926 00d9 00       		.byte	0
 3927 00da 11       		.uleb128 0x11
 3928 00db 34       		.uleb128 0x34
 3929 00dc 00       		.byte	0
 3930 00dd 03       		.uleb128 0x3
 3931 00de 0E       		.uleb128 0xe
 3932 00df 3A       		.uleb128 0x3a
 3933 00e0 0B       		.uleb128 0xb
 3934 00e1 3B       		.uleb128 0x3b
ARM GAS  C:\Users\cypress\AppData\Local\Temp\ccIrd8u1.s 			page 96


 3935 00e2 0B       		.uleb128 0xb
 3936 00e3 49       		.uleb128 0x49
 3937 00e4 13       		.uleb128 0x13
 3938 00e5 02       		.uleb128 0x2
 3939 00e6 17       		.uleb128 0x17
 3940 00e7 00       		.byte	0
 3941 00e8 00       		.byte	0
 3942 00e9 12       		.uleb128 0x12
 3943 00ea 0B       		.uleb128 0xb
 3944 00eb 01       		.byte	0x1
 3945 00ec 55       		.uleb128 0x55
 3946 00ed 17       		.uleb128 0x17
 3947 00ee 01       		.uleb128 0x1
 3948 00ef 13       		.uleb128 0x13
 3949 00f0 00       		.byte	0
 3950 00f1 00       		.byte	0
 3951 00f2 13       		.uleb128 0x13
 3952 00f3 34       		.uleb128 0x34
 3953 00f4 00       		.byte	0
 3954 00f5 03       		.uleb128 0x3
 3955 00f6 0E       		.uleb128 0xe
 3956 00f7 3A       		.uleb128 0x3a
 3957 00f8 0B       		.uleb128 0xb
 3958 00f9 3B       		.uleb128 0x3b
 3959 00fa 05       		.uleb128 0x5
 3960 00fb 49       		.uleb128 0x49
 3961 00fc 13       		.uleb128 0x13
 3962 00fd 02       		.uleb128 0x2
 3963 00fe 17       		.uleb128 0x17
 3964 00ff 00       		.byte	0
 3965 0100 00       		.byte	0
 3966 0101 14       		.uleb128 0x14
 3967 0102 0B       		.uleb128 0xb
 3968 0103 01       		.byte	0x1
 3969 0104 11       		.uleb128 0x11
 3970 0105 01       		.uleb128 0x1
 3971 0106 12       		.uleb128 0x12
 3972 0107 06       		.uleb128 0x6
 3973 0108 01       		.uleb128 0x1
 3974 0109 13       		.uleb128 0x13
 3975 010a 00       		.byte	0
 3976 010b 00       		.byte	0
 3977 010c 15       		.uleb128 0x15
 3978 010d 0B       		.uleb128 0xb
 3979 010e 01       		.byte	0x1
 3980 010f 11       		.uleb128 0x11
 3981 0110 01       		.uleb128 0x1
 3982 0111 12       		.uleb128 0x12
 3983 0112 06       		.uleb128 0x6
 3984 0113 00       		.byte	0
 3985 0114 00       		.byte	0
 3986 0115 16       		.uleb128 0x16
 3987 0116 2E       		.uleb128 0x2e
 3988 0117 01       		.byte	0x1
 3989 0118 3F       		.uleb128 0x3f
 3990 0119 19       		.uleb128 0x19
 3991 011a 03       		.uleb128 0x3
ARM GAS  C:\Users\cypress\AppData\Local\Temp\ccIrd8u1.s 			page 97


 3992 011b 0E       		.uleb128 0xe
 3993 011c 3A       		.uleb128 0x3a
 3994 011d 0B       		.uleb128 0xb
 3995 011e 3B       		.uleb128 0x3b
 3996 011f 0B       		.uleb128 0xb
 3997 0120 27       		.uleb128 0x27
 3998 0121 19       		.uleb128 0x19
 3999 0122 11       		.uleb128 0x11
 4000 0123 01       		.uleb128 0x1
 4001 0124 12       		.uleb128 0x12
 4002 0125 06       		.uleb128 0x6
 4003 0126 40       		.uleb128 0x40
 4004 0127 18       		.uleb128 0x18
 4005 0128 9742     		.uleb128 0x2117
 4006 012a 19       		.uleb128 0x19
 4007 012b 01       		.uleb128 0x1
 4008 012c 13       		.uleb128 0x13
 4009 012d 00       		.byte	0
 4010 012e 00       		.byte	0
 4011 012f 17       		.uleb128 0x17
 4012 0130 1D       		.uleb128 0x1d
 4013 0131 00       		.byte	0
 4014 0132 31       		.uleb128 0x31
 4015 0133 13       		.uleb128 0x13
 4016 0134 11       		.uleb128 0x11
 4017 0135 01       		.uleb128 0x1
 4018 0136 12       		.uleb128 0x12
 4019 0137 06       		.uleb128 0x6
 4020 0138 58       		.uleb128 0x58
 4021 0139 0B       		.uleb128 0xb
 4022 013a 59       		.uleb128 0x59
 4023 013b 0B       		.uleb128 0xb
 4024 013c 00       		.byte	0
 4025 013d 00       		.byte	0
 4026 013e 18       		.uleb128 0x18
 4027 013f 898201   		.uleb128 0x4109
 4028 0142 00       		.byte	0
 4029 0143 11       		.uleb128 0x11
 4030 0144 01       		.uleb128 0x1
 4031 0145 31       		.uleb128 0x31
 4032 0146 13       		.uleb128 0x13
 4033 0147 00       		.byte	0
 4034 0148 00       		.byte	0
 4035 0149 19       		.uleb128 0x19
 4036 014a 2E       		.uleb128 0x2e
 4037 014b 01       		.byte	0x1
 4038 014c 3F       		.uleb128 0x3f
 4039 014d 19       		.uleb128 0x19
 4040 014e 03       		.uleb128 0x3
 4041 014f 0E       		.uleb128 0xe
 4042 0150 3A       		.uleb128 0x3a
 4043 0151 0B       		.uleb128 0xb
 4044 0152 3B       		.uleb128 0x3b
 4045 0153 05       		.uleb128 0x5
 4046 0154 27       		.uleb128 0x27
 4047 0155 19       		.uleb128 0x19
 4048 0156 49       		.uleb128 0x49
ARM GAS  C:\Users\cypress\AppData\Local\Temp\ccIrd8u1.s 			page 98


 4049 0157 13       		.uleb128 0x13
 4050 0158 11       		.uleb128 0x11
 4051 0159 01       		.uleb128 0x1
 4052 015a 12       		.uleb128 0x12
 4053 015b 06       		.uleb128 0x6
 4054 015c 40       		.uleb128 0x40
 4055 015d 18       		.uleb128 0x18
 4056 015e 9742     		.uleb128 0x2117
 4057 0160 19       		.uleb128 0x19
 4058 0161 01       		.uleb128 0x1
 4059 0162 13       		.uleb128 0x13
 4060 0163 00       		.byte	0
 4061 0164 00       		.byte	0
 4062 0165 1A       		.uleb128 0x1a
 4063 0166 34       		.uleb128 0x34
 4064 0167 00       		.byte	0
 4065 0168 03       		.uleb128 0x3
 4066 0169 0E       		.uleb128 0xe
 4067 016a 3A       		.uleb128 0x3a
 4068 016b 0B       		.uleb128 0xb
 4069 016c 3B       		.uleb128 0x3b
 4070 016d 05       		.uleb128 0x5
 4071 016e 49       		.uleb128 0x49
 4072 016f 13       		.uleb128 0x13
 4073 0170 02       		.uleb128 0x2
 4074 0171 18       		.uleb128 0x18
 4075 0172 00       		.byte	0
 4076 0173 00       		.byte	0
 4077 0174 1B       		.uleb128 0x1b
 4078 0175 2E       		.uleb128 0x2e
 4079 0176 01       		.byte	0x1
 4080 0177 3F       		.uleb128 0x3f
 4081 0178 19       		.uleb128 0x19
 4082 0179 03       		.uleb128 0x3
 4083 017a 0E       		.uleb128 0xe
 4084 017b 3A       		.uleb128 0x3a
 4085 017c 0B       		.uleb128 0xb
 4086 017d 3B       		.uleb128 0x3b
 4087 017e 05       		.uleb128 0x5
 4088 017f 27       		.uleb128 0x27
 4089 0180 19       		.uleb128 0x19
 4090 0181 11       		.uleb128 0x11
 4091 0182 01       		.uleb128 0x1
 4092 0183 12       		.uleb128 0x12
 4093 0184 06       		.uleb128 0x6
 4094 0185 40       		.uleb128 0x40
 4095 0186 18       		.uleb128 0x18
 4096 0187 9742     		.uleb128 0x2117
 4097 0189 19       		.uleb128 0x19
 4098 018a 01       		.uleb128 0x1
 4099 018b 13       		.uleb128 0x13
 4100 018c 00       		.byte	0
 4101 018d 00       		.byte	0
 4102 018e 1C       		.uleb128 0x1c
 4103 018f 05       		.uleb128 0x5
 4104 0190 00       		.byte	0
 4105 0191 03       		.uleb128 0x3
ARM GAS  C:\Users\cypress\AppData\Local\Temp\ccIrd8u1.s 			page 99


 4106 0192 0E       		.uleb128 0xe
 4107 0193 3A       		.uleb128 0x3a
 4108 0194 0B       		.uleb128 0xb
 4109 0195 3B       		.uleb128 0x3b
 4110 0196 05       		.uleb128 0x5
 4111 0197 49       		.uleb128 0x49
 4112 0198 13       		.uleb128 0x13
 4113 0199 02       		.uleb128 0x2
 4114 019a 17       		.uleb128 0x17
 4115 019b 00       		.byte	0
 4116 019c 00       		.byte	0
 4117 019d 1D       		.uleb128 0x1d
 4118 019e 898201   		.uleb128 0x4109
 4119 01a1 01       		.byte	0x1
 4120 01a2 11       		.uleb128 0x11
 4121 01a3 01       		.uleb128 0x1
 4122 01a4 31       		.uleb128 0x31
 4123 01a5 13       		.uleb128 0x13
 4124 01a6 00       		.byte	0
 4125 01a7 00       		.byte	0
 4126 01a8 1E       		.uleb128 0x1e
 4127 01a9 8A8201   		.uleb128 0x410a
 4128 01ac 00       		.byte	0
 4129 01ad 02       		.uleb128 0x2
 4130 01ae 18       		.uleb128 0x18
 4131 01af 9142     		.uleb128 0x2111
 4132 01b1 18       		.uleb128 0x18
 4133 01b2 00       		.byte	0
 4134 01b3 00       		.byte	0
 4135 01b4 1F       		.uleb128 0x1f
 4136 01b5 34       		.uleb128 0x34
 4137 01b6 00       		.byte	0
 4138 01b7 03       		.uleb128 0x3
 4139 01b8 0E       		.uleb128 0xe
 4140 01b9 3A       		.uleb128 0x3a
 4141 01ba 0B       		.uleb128 0xb
 4142 01bb 3B       		.uleb128 0x3b
 4143 01bc 0B       		.uleb128 0xb
 4144 01bd 49       		.uleb128 0x49
 4145 01be 13       		.uleb128 0x13
 4146 01bf 3F       		.uleb128 0x3f
 4147 01c0 19       		.uleb128 0x19
 4148 01c1 02       		.uleb128 0x2
 4149 01c2 18       		.uleb128 0x18
 4150 01c3 00       		.byte	0
 4151 01c4 00       		.byte	0
 4152 01c5 20       		.uleb128 0x20
 4153 01c6 2E       		.uleb128 0x2e
 4154 01c7 00       		.byte	0
 4155 01c8 3F       		.uleb128 0x3f
 4156 01c9 19       		.uleb128 0x19
 4157 01ca 3C       		.uleb128 0x3c
 4158 01cb 19       		.uleb128 0x19
 4159 01cc 6E       		.uleb128 0x6e
 4160 01cd 0E       		.uleb128 0xe
 4161 01ce 03       		.uleb128 0x3
 4162 01cf 0E       		.uleb128 0xe
ARM GAS  C:\Users\cypress\AppData\Local\Temp\ccIrd8u1.s 			page 100


 4163 01d0 3A       		.uleb128 0x3a
 4164 01d1 0B       		.uleb128 0xb
 4165 01d2 3B       		.uleb128 0x3b
 4166 01d3 0B       		.uleb128 0xb
 4167 01d4 00       		.byte	0
 4168 01d5 00       		.byte	0
 4169 01d6 21       		.uleb128 0x21
 4170 01d7 2E       		.uleb128 0x2e
 4171 01d8 00       		.byte	0
 4172 01d9 3F       		.uleb128 0x3f
 4173 01da 19       		.uleb128 0x19
 4174 01db 3C       		.uleb128 0x3c
 4175 01dc 19       		.uleb128 0x19
 4176 01dd 6E       		.uleb128 0x6e
 4177 01de 0E       		.uleb128 0xe
 4178 01df 03       		.uleb128 0x3
 4179 01e0 0E       		.uleb128 0xe
 4180 01e1 3A       		.uleb128 0x3a
 4181 01e2 0B       		.uleb128 0xb
 4182 01e3 3B       		.uleb128 0x3b
 4183 01e4 05       		.uleb128 0x5
 4184 01e5 00       		.byte	0
 4185 01e6 00       		.byte	0
 4186 01e7 00       		.byte	0
 4187              		.section	.debug_loc,"",%progbits
 4188              	.Ldebug_loc0:
 4189              	.LLST0:
 4190 0000 2E000000 		.4byte	.LVL3
 4191 0004 30000000 		.4byte	.LVL4
 4192 0008 0100     		.2byte	0x1
 4193 000a 50       		.byte	0x50
 4194 000b 54000000 		.4byte	.LVL9
 4195 000f BB000000 		.4byte	.LVL20-1
 4196 0013 0100     		.2byte	0x1
 4197 0015 50       		.byte	0x50
 4198 0016 C6000000 		.4byte	.LVL22
 4199 001a 28010000 		.4byte	.LVL33
 4200 001e 0100     		.2byte	0x1
 4201 0020 50       		.byte	0x50
 4202 0021 00000000 		.4byte	0
 4203 0025 00000000 		.4byte	0
 4204              	.LLST1:
 4205 0029 C4000000 		.4byte	.LVL21
 4206 002d C6000000 		.4byte	.LVL22
 4207 0031 0100     		.2byte	0x1
 4208 0033 50       		.byte	0x50
 4209 0034 32010000 		.4byte	.LVL35
 4210 0038 5B010000 		.4byte	.LVL39-1
 4211 003c 0100     		.2byte	0x1
 4212 003e 50       		.byte	0x50
 4213 003f 5C010000 		.4byte	.LVL39
 4214 0043 63010000 		.4byte	.LVL40-1
 4215 0047 0100     		.2byte	0x1
 4216 0049 50       		.byte	0x50
 4217 004a 66010000 		.4byte	.LVL41
 4218 004e 6E010000 		.4byte	.LVL42
 4219 0052 0100     		.2byte	0x1
ARM GAS  C:\Users\cypress\AppData\Local\Temp\ccIrd8u1.s 			page 101


 4220 0054 50       		.byte	0x50
 4221 0055 6E010000 		.4byte	.LVL42
 4222 0059 88010000 		.4byte	.LVL45
 4223 005d 0100     		.2byte	0x1
 4224 005f 55       		.byte	0x55
 4225 0060 00000000 		.4byte	0
 4226 0064 00000000 		.4byte	0
 4227              	.LLST2:
 4228 0068 52010000 		.4byte	.LVL37
 4229 006c 66010000 		.4byte	.LVL41
 4230 0070 0100     		.2byte	0x1
 4231 0072 55       		.byte	0x55
 4232 0073 00000000 		.4byte	0
 4233 0077 00000000 		.4byte	0
 4234              	.LLST3:
 4235 007b 58010000 		.4byte	.LVL38
 4236 007f 5B010000 		.4byte	.LVL39-1
 4237 0083 0100     		.2byte	0x1
 4238 0085 51       		.byte	0x51
 4239 0086 00000000 		.4byte	0
 4240 008a 00000000 		.4byte	0
 4241              	.LLST4:
 4242 008e 0E000000 		.4byte	.LVL0
 4243 0092 5A000000 		.4byte	.LVL10
 4244 0096 0100     		.2byte	0x1
 4245 0098 53       		.byte	0x53
 4246 0099 C6000000 		.4byte	.LVL22
 4247 009d CC000000 		.4byte	.LVL23
 4248 00a1 0100     		.2byte	0x1
 4249 00a3 53       		.byte	0x53
 4250 00a4 00000000 		.4byte	0
 4251 00a8 00000000 		.4byte	0
 4252              	.LLST5:
 4253 00ac 1A000000 		.4byte	.LVL1
 4254 00b0 2C000000 		.4byte	.LVL2
 4255 00b4 0100     		.2byte	0x1
 4256 00b6 52       		.byte	0x52
 4257 00b7 30000000 		.4byte	.LVL4
 4258 00bb 32000000 		.4byte	.LVL5
 4259 00bf 0100     		.2byte	0x1
 4260 00c1 52       		.byte	0x52
 4261 00c2 4C000000 		.4byte	.LVL7
 4262 00c6 50000000 		.4byte	.LVL8
 4263 00ca 0100     		.2byte	0x1
 4264 00cc 52       		.byte	0x52
 4265 00cd 00000000 		.4byte	0
 4266 00d1 00000000 		.4byte	0
 4267              	.LLST6:
 4268 00d5 3E000000 		.4byte	.LVL6
 4269 00d9 4C000000 		.4byte	.LVL7
 4270 00dd 0100     		.2byte	0x1
 4271 00df 52       		.byte	0x52
 4272 00e0 50000000 		.4byte	.LVL8
 4273 00e4 54000000 		.4byte	.LVL9
 4274 00e8 0100     		.2byte	0x1
 4275 00ea 52       		.byte	0x52
 4276 00eb 00000000 		.4byte	0
ARM GAS  C:\Users\cypress\AppData\Local\Temp\ccIrd8u1.s 			page 102


 4277 00ef 00000000 		.4byte	0
 4278              	.LLST7:
 4279 00f3 64000000 		.4byte	.LVL11
 4280 00f7 A8000000 		.4byte	.LVL17
 4281 00fb 0500     		.2byte	0x5
 4282 00fd 71       		.byte	0x71
 4283 00fe 00       		.sleb128 0
 4284 00ff 30       		.byte	0x30
 4285 0100 2E       		.byte	0x2e
 4286 0101 9F       		.byte	0x9f
 4287 0102 00000000 		.4byte	0
 4288 0106 00000000 		.4byte	0
 4289              	.LLST8:
 4290 010a 70000000 		.4byte	.LVL12
 4291 010e 9E000000 		.4byte	.LVL15
 4292 0112 0500     		.2byte	0x5
 4293 0114 72       		.byte	0x72
 4294 0115 00       		.sleb128 0
 4295 0116 33       		.byte	0x33
 4296 0117 29       		.byte	0x29
 4297 0118 9F       		.byte	0x9f
 4298 0119 00000000 		.4byte	0
 4299 011d 00000000 		.4byte	0
 4300              	.LLST9:
 4301 0121 8E000000 		.4byte	.LVL13
 4302 0125 9C000000 		.4byte	.LVL14
 4303 0129 0100     		.2byte	0x1
 4304 012b 53       		.byte	0x53
 4305 012c 00000000 		.4byte	0
 4306 0130 00000000 		.4byte	0
 4307              	.LLST10:
 4308 0134 A6000000 		.4byte	.LVL16
 4309 0138 C6000000 		.4byte	.LVL22
 4310 013c 0100     		.2byte	0x1
 4311 013e 55       		.byte	0x55
 4312 013f 00000000 		.4byte	0
 4313 0143 00000000 		.4byte	0
 4314              	.LLST11:
 4315 0147 AE000000 		.4byte	.LVL18
 4316 014b BB000000 		.4byte	.LVL20-1
 4317 014f 0100     		.2byte	0x1
 4318 0151 51       		.byte	0x51
 4319 0152 00000000 		.4byte	0
 4320 0156 00000000 		.4byte	0
 4321              	.LLST12:
 4322 015a B8000000 		.4byte	.LVL19
 4323 015e C6000000 		.4byte	.LVL22
 4324 0162 0100     		.2byte	0x1
 4325 0164 54       		.byte	0x54
 4326 0165 00000000 		.4byte	0
 4327 0169 00000000 		.4byte	0
 4328              	.LLST13:
 4329 016d D6000000 		.4byte	.LVL24
 4330 0171 0E010000 		.4byte	.LVL27
 4331 0175 0500     		.2byte	0x5
 4332 0177 75       		.byte	0x75
 4333 0178 00       		.sleb128 0
ARM GAS  C:\Users\cypress\AppData\Local\Temp\ccIrd8u1.s 			page 103


 4334 0179 30       		.byte	0x30
 4335 017a 2E       		.byte	0x2e
 4336 017b 9F       		.byte	0x9f
 4337 017c 00000000 		.4byte	0
 4338 0180 00000000 		.4byte	0
 4339              	.LLST14:
 4340 0184 E2000000 		.4byte	.LVL25
 4341 0188 10010000 		.4byte	.LVL28
 4342 018c 0500     		.2byte	0x5
 4343 018e 72       		.byte	0x72
 4344 018f 00       		.sleb128 0
 4345 0190 33       		.byte	0x33
 4346 0191 29       		.byte	0x29
 4347 0192 9F       		.byte	0x9f
 4348 0193 00000000 		.4byte	0
 4349 0197 00000000 		.4byte	0
 4350              	.LLST15:
 4351 019b 00010000 		.4byte	.LVL26
 4352 019f 14010000 		.4byte	.LVL29
 4353 01a3 0100     		.2byte	0x1
 4354 01a5 53       		.byte	0x53
 4355 01a6 00000000 		.4byte	0
 4356 01aa 00000000 		.4byte	0
 4357              	.LLST16:
 4358 01ae 18010000 		.4byte	.LVL30
 4359 01b2 2B010000 		.4byte	.LVL34-1
 4360 01b6 0100     		.2byte	0x1
 4361 01b8 53       		.byte	0x53
 4362 01b9 00000000 		.4byte	0
 4363 01bd 00000000 		.4byte	0
 4364              	.LLST17:
 4365 01c1 20010000 		.4byte	.LVL31
 4366 01c5 2B010000 		.4byte	.LVL34-1
 4367 01c9 0100     		.2byte	0x1
 4368 01cb 51       		.byte	0x51
 4369 01cc 00000000 		.4byte	0
 4370 01d0 00000000 		.4byte	0
 4371              	.LLST18:
 4372 01d4 26010000 		.4byte	.LVL32
 4373 01d8 32010000 		.4byte	.LVL35
 4374 01dc 0100     		.2byte	0x1
 4375 01de 54       		.byte	0x54
 4376 01df 00000000 		.4byte	0
 4377 01e3 00000000 		.4byte	0
 4378              	.LLST19:
 4379 01e7 0A000000 		.4byte	.LVL46
 4380 01eb 0C000000 		.4byte	.LVL47
 4381 01ef 0100     		.2byte	0x1
 4382 01f1 52       		.byte	0x52
 4383 01f2 0E000000 		.4byte	.LVL48
 4384 01f6 1E000000 		.4byte	.LVL51
 4385 01fa 0100     		.2byte	0x1
 4386 01fc 52       		.byte	0x52
 4387 01fd 1E000000 		.4byte	.LVL51
 4388 0201 22000000 		.4byte	.LVL52
 4389 0205 0500     		.2byte	0x5
 4390 0207 73       		.byte	0x73
ARM GAS  C:\Users\cypress\AppData\Local\Temp\ccIrd8u1.s 			page 104


 4391 0208 00       		.sleb128 0
 4392 0209 70       		.byte	0x70
 4393 020a 00       		.sleb128 0
 4394 020b 22       		.byte	0x22
 4395 020c 00000000 		.4byte	0
 4396 0210 00000000 		.4byte	0
 4397              	.LLST20:
 4398 0214 06000000 		.4byte	.LVL59
 4399 0218 23000000 		.4byte	.LVL63-1
 4400 021c 0100     		.2byte	0x1
 4401 021e 50       		.byte	0x50
 4402 021f 00000000 		.4byte	0
 4403 0223 00000000 		.4byte	0
 4404              	.LLST21:
 4405 0227 10000000 		.4byte	.LVL60
 4406 022b 16000000 		.4byte	.LVL62
 4407 022f 0100     		.2byte	0x1
 4408 0231 53       		.byte	0x53
 4409 0232 16000000 		.4byte	.LVL62
 4410 0236 23000000 		.4byte	.LVL63-1
 4411 023a 0300     		.2byte	0x3
 4412 023c 71       		.byte	0x71
 4413 023d 8001     		.sleb128 128
 4414 023f 00000000 		.4byte	0
 4415 0243 00000000 		.4byte	0
 4416              	.LLST22:
 4417 0247 06000000 		.4byte	.LVL64
 4418 024b 19000000 		.4byte	.LVL67-1
 4419 024f 0100     		.2byte	0x1
 4420 0251 50       		.byte	0x50
 4421 0252 00000000 		.4byte	0
 4422 0256 00000000 		.4byte	0
 4423              	.LLST23:
 4424 025a 10000000 		.4byte	.LVL65
 4425 025e 14000000 		.4byte	.LVL66
 4426 0262 0900     		.2byte	0x9
 4427 0264 73       		.byte	0x73
 4428 0265 00       		.sleb128 0
 4429 0266 0C       		.byte	0xc
 4430 0267 0000FA05 		.4byte	0x5fa0000
 4431 026b 21       		.byte	0x21
 4432 026c 9F       		.byte	0x9f
 4433 026d 14000000 		.4byte	.LVL66
 4434 0271 19000000 		.4byte	.LVL67-1
 4435 0275 0100     		.2byte	0x1
 4436 0277 53       		.byte	0x53
 4437 0278 00000000 		.4byte	0
 4438 027c 00000000 		.4byte	0
 4439              	.LLST24:
 4440 0280 06000000 		.4byte	.LVL68
 4441 0284 23000000 		.4byte	.LVL72-1
 4442 0288 0100     		.2byte	0x1
 4443 028a 50       		.byte	0x50
 4444 028b 00000000 		.4byte	0
 4445 028f 00000000 		.4byte	0
 4446              	.LLST25:
 4447 0293 10000000 		.4byte	.LVL69
ARM GAS  C:\Users\cypress\AppData\Local\Temp\ccIrd8u1.s 			page 105


 4448 0297 14000000 		.4byte	.LVL70
 4449 029b 0900     		.2byte	0x9
 4450 029d 73       		.byte	0x73
 4451 029e 00       		.sleb128 0
 4452 029f 0C       		.byte	0xc
 4453 02a0 0000FA05 		.4byte	0x5fa0000
 4454 02a4 21       		.byte	0x21
 4455 02a5 9F       		.byte	0x9f
 4456 02a6 14000000 		.4byte	.LVL70
 4457 02aa 16000000 		.4byte	.LVL71
 4458 02ae 0100     		.2byte	0x1
 4459 02b0 53       		.byte	0x53
 4460 02b1 16000000 		.4byte	.LVL71
 4461 02b5 23000000 		.4byte	.LVL72-1
 4462 02b9 0300     		.2byte	0x3
 4463 02bb 71       		.byte	0x71
 4464 02bc 8001     		.sleb128 128
 4465 02be 00000000 		.4byte	0
 4466 02c2 00000000 		.4byte	0
 4467              	.LLST26:
 4468 02c6 00000000 		.4byte	.LVL73
 4469 02ca 07000000 		.4byte	.LVL74-1
 4470 02ce 0100     		.2byte	0x1
 4471 02d0 50       		.byte	0x50
 4472 02d1 07000000 		.4byte	.LVL74-1
 4473 02d5 3C000000 		.4byte	.LVL83
 4474 02d9 0100     		.2byte	0x1
 4475 02db 55       		.byte	0x55
 4476 02dc 3C000000 		.4byte	.LVL83
 4477 02e0 4C000000 		.4byte	.LFE59
 4478 02e4 0400     		.2byte	0x4
 4479 02e6 F3       		.byte	0xf3
 4480 02e7 01       		.uleb128 0x1
 4481 02e8 50       		.byte	0x50
 4482 02e9 9F       		.byte	0x9f
 4483 02ea 00000000 		.4byte	0
 4484 02ee 00000000 		.4byte	0
 4485              	.LLST27:
 4486 02f2 26000000 		.4byte	.LVL78
 4487 02f6 2A000000 		.4byte	.LVL79
 4488 02fa 0900     		.2byte	0x9
 4489 02fc 73       		.byte	0x73
 4490 02fd 00       		.sleb128 0
 4491 02fe 0C       		.byte	0xc
 4492 02ff 0000FA05 		.4byte	0x5fa0000
 4493 0303 21       		.byte	0x21
 4494 0304 9F       		.byte	0x9f
 4495 0305 2A000000 		.4byte	.LVL79
 4496 0309 2C000000 		.4byte	.LVL80
 4497 030d 0100     		.2byte	0x1
 4498 030f 53       		.byte	0x53
 4499 0310 2C000000 		.4byte	.LVL80
 4500 0314 3B000000 		.4byte	.LVL81-1
 4501 0318 0500     		.2byte	0x5
 4502 031a 72       		.byte	0x72
 4503 031b 00       		.sleb128 0
 4504 031c 71       		.byte	0x71
ARM GAS  C:\Users\cypress\AppData\Local\Temp\ccIrd8u1.s 			page 106


 4505 031d 00       		.sleb128 0
 4506 031e 22       		.byte	0x22
 4507 031f 00000000 		.4byte	0
 4508 0323 00000000 		.4byte	0
 4509              	.LLST28:
 4510 0327 0A000000 		.4byte	.LVL75
 4511 032b 0D000000 		.4byte	.LVL76-1
 4512 032f 0100     		.2byte	0x1
 4513 0331 50       		.byte	0x50
 4514 0332 0D000000 		.4byte	.LVL76-1
 4515 0336 3C000000 		.4byte	.LVL82
 4516 033a 0100     		.2byte	0x1
 4517 033c 54       		.byte	0x54
 4518 033d 00000000 		.4byte	0
 4519 0341 00000000 		.4byte	0
 4520              	.LLST29:
 4521 0345 0E000000 		.4byte	.LVL76
 4522 0349 15000000 		.4byte	.LVL77-1
 4523 034d 0100     		.2byte	0x1
 4524 034f 50       		.byte	0x50
 4525 0350 00000000 		.4byte	0
 4526 0354 00000000 		.4byte	0
 4527              		.section	.debug_aranges,"",%progbits
 4528 0000 54000000 		.4byte	0x54
 4529 0004 0200     		.2byte	0x2
 4530 0006 00000000 		.4byte	.Ldebug_info0
 4531 000a 04       		.byte	0x4
 4532 000b 00       		.byte	0
 4533 000c 0000     		.2byte	0
 4534 000e 0000     		.2byte	0
 4535 0010 00000000 		.4byte	.LFB56
 4536 0014 02000000 		.4byte	.LFE56-.LFB56
 4537 0018 00000000 		.4byte	.LFB57
 4538 001c B0010000 		.4byte	.LFE57-.LFB57
 4539 0020 00000000 		.4byte	.LFB55
 4540 0024 A4000000 		.4byte	.LFE55-.LFB55
 4541 0028 00000000 		.4byte	.LFB58
 4542 002c 10000000 		.4byte	.LFE58-.LFB58
 4543 0030 00000000 		.4byte	.LFB60
 4544 0034 34000000 		.4byte	.LFE60-.LFB60
 4545 0038 00000000 		.4byte	.LFB61
 4546 003c 28000000 		.4byte	.LFE61-.LFB61
 4547 0040 00000000 		.4byte	.LFB62
 4548 0044 34000000 		.4byte	.LFE62-.LFB62
 4549 0048 00000000 		.4byte	.LFB59
 4550 004c 4C000000 		.4byte	.LFE59-.LFB59
 4551 0050 00000000 		.4byte	0
 4552 0054 00000000 		.4byte	0
 4553              		.section	.debug_ranges,"",%progbits
 4554              	.Ldebug_ranges0:
 4555 0000 30000000 		.4byte	.LBB4
 4556 0004 4C000000 		.4byte	.LBE4
 4557 0008 50000000 		.4byte	.LBB5
 4558 000c 54000000 		.4byte	.LBE5
 4559 0010 00000000 		.4byte	0
 4560 0014 00000000 		.4byte	0
 4561 0018 00000000 		.4byte	.LFB56
ARM GAS  C:\Users\cypress\AppData\Local\Temp\ccIrd8u1.s 			page 107


 4562 001c 02000000 		.4byte	.LFE56
 4563 0020 00000000 		.4byte	.LFB57
 4564 0024 B0010000 		.4byte	.LFE57
 4565 0028 00000000 		.4byte	.LFB55
 4566 002c A4000000 		.4byte	.LFE55
 4567 0030 00000000 		.4byte	.LFB58
 4568 0034 10000000 		.4byte	.LFE58
 4569 0038 00000000 		.4byte	.LFB60
 4570 003c 34000000 		.4byte	.LFE60
 4571 0040 00000000 		.4byte	.LFB61
 4572 0044 28000000 		.4byte	.LFE61
 4573 0048 00000000 		.4byte	.LFB62
 4574 004c 34000000 		.4byte	.LFE62
 4575 0050 00000000 		.4byte	.LFB59
 4576 0054 4C000000 		.4byte	.LFE59
 4577 0058 00000000 		.4byte	0
 4578 005c 00000000 		.4byte	0
 4579              		.section	.debug_line,"",%progbits
 4580              	.Ldebug_line0:
 4581 0000 8D030000 		.section	.debug_str,"MS",%progbits,1
 4581      02004302 
 4581      00000201 
 4581      FB0E0D00 
 4581      01010101 
 4582              	.LASF28:
 4583 0000 4449455F 		.ascii	"DIE_DAY\000"
 4583      44415900 
 4584              	.LASF16:
 4585 0008 52455345 		.ascii	"RESERVED\000"
 4585      52564544 
 4585      00
 4586              	.LASF174:
 4587 0011 43505553 		.ascii	"CPUSS_Type\000"
 4587      535F5479 
 4587      706500
 4588              	.LASF250:
 4589 001c 53525353 		.ascii	"SRSS_Type\000"
 4589      5F547970 
 4589      6500
 4590              	.LASF119:
 4591 0026 52544F43 		.ascii	"RTOC2_FIRST_USER_APP_ADDR\000"
 4591      325F4649 
 4591      5253545F 
 4591      55534552 
 4591      5F415050 
 4592              	.LASF85:
 4593 0040 544F4331 		.ascii	"TOC1_FHASH_OBJECTS\000"
 4593      5F464841 
 4593      53485F4F 
 4593      424A4543 
 4593      545300
 4594              	.LASF93:
 4595 0053 52544F43 		.ascii	"RTOC1_OBJECT_SIZE\000"
 4595      315F4F42 
 4595      4A454354 
 4595      5F53495A 
 4595      4500
ARM GAS  C:\Users\cypress\AppData\Local\Temp\ccIrd8u1.s 			page 108


 4596              	.LASF48:
 4597 0065 5354414E 		.ascii	"STANDARD_SMPU_STRUCT_SLAVE_ATTR\000"
 4597      44415244 
 4597      5F534D50 
 4597      555F5354 
 4597      52554354 
 4598              	.LASF118:
 4599 0085 52544F43 		.ascii	"RTOC2_SMIF_CFG_STRUCT_ADDR\000"
 4599      325F534D 
 4599      49465F43 
 4599      46475F53 
 4599      54525543 
 4600              	.LASF155:
 4601 00a0 44505F53 		.ascii	"DP_STATUS\000"
 4601      54415455 
 4601      5300
 4602              	.LASF107:
 4603 00aa 544F4332 		.ascii	"TOC2_FIRST_USER_APP_FORMAT\000"
 4603      5F464952 
 4603      53545F55 
 4603      5345525F 
 4603      4150505F 
 4604              	.LASF187:
 4605 00c5 494E5452 		.ascii	"INTR_STRUCT\000"
 4605      5F535452 
 4605      55435400 
 4606              	.LASF154:
 4607 00d1 5544425F 		.ascii	"UDB_PWR_DELAY_CTL\000"
 4607      5057525F 
 4607      44454C41 
 4607      595F4354 
 4607      4C00
 4608              	.LASF97:
 4609 00e3 52544F43 		.ascii	"RTOC1_UNIQUE_ID_ADDR\000"
 4609      315F554E 
 4609      49515545 
 4609      5F49445F 
 4609      41444452 
 4610              	.LASF289:
 4611 00f8 63795F42 		.ascii	"cy_BleEcoClockFreqHz\000"
 4611      6C654563 
 4611      6F436C6F 
 4611      636B4672 
 4611      6571487A 
 4612              	.LASF293:
 4613 010d 43795F49 		.ascii	"Cy_IPC_SystemPipeInit\000"
 4613      50435F53 
 4613      79737465 
 4613      6D506970 
 4613      65496E69 
 4614              	.LASF24:
 4615 0123 4449455F 		.ascii	"DIE_X\000"
 4615      5800
 4616              	.LASF25:
 4617 0129 4449455F 		.ascii	"DIE_Y\000"
 4617      5900
 4618              	.LASF109:
ARM GAS  C:\Users\cypress\AppData\Local\Temp\ccIrd8u1.s 			page 109


 4619 012f 544F4332 		.ascii	"TOC2_SECOND_USER_APP_FORMAT\000"
 4619      5F534543 
 4619      4F4E445F 
 4619      55534552 
 4619      5F415050 
 4620              	.LASF265:
 4621 014b 666C6C4D 		.ascii	"fllMult\000"
 4621      756C7400 
 4622              	.LASF11:
 4623 0153 756E7369 		.ascii	"unsigned int\000"
 4623      676E6564 
 4623      20696E74 
 4623      00
 4624              	.LASF205:
 4625 0160 5057525F 		.ascii	"PWR_LVD_STATUS\000"
 4625      4C56445F 
 4625      53544154 
 4625      555300
 4626              	.LASF238:
 4627 016f 5245535F 		.ascii	"RES_CAUSE2\000"
 4627      43415553 
 4627      453200
 4628              	.LASF115:
 4629 017a 52544F43 		.ascii	"RTOC2_OBJECT_SIZE\000"
 4629      325F4F42 
 4629      4A454354 
 4629      5F53495A 
 4629      4500
 4630              	.LASF37:
 4631 018c 4C444F5F 		.ascii	"LDO_0P9V_TRIM\000"
 4631      30503956 
 4631      5F545249 
 4631      4D00
 4632              	.LASF131:
 4633 019a 434D305F 		.ascii	"CM0_CLOCK_CTL\000"
 4633      434C4F43 
 4633      4B5F4354 
 4633      4C00
 4634              	.LASF185:
 4635 01a8 4950435F 		.ascii	"IPC_INTR_STRUCT_Type\000"
 4635      494E5452 
 4635      5F535452 
 4635      5543545F 
 4635      54797065 
 4636              	.LASF234:
 4637 01bd 53525353 		.ascii	"SRSS_INTR_MASK\000"
 4637      5F494E54 
 4637      525F4D41 
 4637      534B00
 4638              	.LASF33:
 4639 01cc 5341525F 		.ascii	"SAR_TEMP_OFFSET\000"
 4639      54454D50 
 4639      5F4F4646 
 4639      53455400 
 4640              	.LASF229:
 4641 01dc 434C4B5F 		.ascii	"CLK_FLL_STATUS\000"
 4641      464C4C5F 
ARM GAS  C:\Users\cypress\AppData\Local\Temp\ccIrd8u1.s 			page 110


 4641      53544154 
 4641      555300
 4642              	.LASF160:
 4643 01eb 434D345F 		.ascii	"CM4_VECTOR_TABLE_BASE\000"
 4643      56454354 
 4643      4F525F54 
 4643      41424C45 
 4643      5F424153 
 4644              	.LASF302:
 4645 0201 43795F53 		.ascii	"Cy_SysGetCM4Status\000"
 4645      79734765 
 4645      74434D34 
 4645      53746174 
 4645      757300
 4646              	.LASF277:
 4647 0214 72656756 		.ascii	"regValue\000"
 4647      616C7565 
 4647      00
 4648              	.LASF216:
 4649 021d 434C4B5F 		.ascii	"CLK_ILO_CONFIG\000"
 4649      494C4F5F 
 4649      434F4E46 
 4649      494700
 4650              	.LASF279:
 4651 022c 696E7465 		.ascii	"interruptState\000"
 4651      72727570 
 4651      74537461 
 4651      746500
 4652              	.LASF294:
 4653 023b 43795F46 		.ascii	"Cy_Flash_Init\000"
 4653      6C617368 
 4653      5F496E69 
 4653      7400
 4654              	.LASF122:
 4655 0249 52544F43 		.ascii	"RTOC2_SECOND_USER_APP_FORMAT\000"
 4655      325F5345 
 4655      434F4E44 
 4655      5F555345 
 4655      525F4150 
 4656              	.LASF266:
 4657 0266 72656644 		.ascii	"refDiv\000"
 4657      697600
 4658              	.LASF71:
 4659 026d 464C4153 		.ascii	"FLASH_BOOT_OBJECT_SIZE\000"
 4659      485F424F 
 4659      4F545F4F 
 4659      424A4543 
 4659      545F5349 
 4660              	.LASF110:
 4661 0284 544F4332 		.ascii	"TOC2_SHASH_OBJECTS\000"
 4661      5F534841 
 4661      53485F4F 
 4661      424A4543 
 4661      545300
 4662              	.LASF219:
 4663 0297 434C4B5F 		.ascii	"CLK_OUTPUT_SLOW\000"
 4663      4F555450 
ARM GAS  C:\Users\cypress\AppData\Local\Temp\ccIrd8u1.s 			page 111


 4663      55545F53 
 4663      4C4F5700 
 4664              	.LASF74:
 4665 02a7 464C4153 		.ascii	"FLASH_BOOT_N_CORES\000"
 4665      485F424F 
 4665      4F545F4E 
 4665      5F434F52 
 4665      455300
 4666              	.LASF214:
 4667 02ba 434C4B5F 		.ascii	"CLK_SELECT\000"
 4667      53454C45 
 4667      435400
 4668              	.LASF172:
 4669 02c5 5452494D 		.ascii	"TRIM_ROM_CTL\000"
 4669      5F524F4D 
 4669      5F43544C 
 4669      00
 4670              	.LASF84:
 4671 02d2 544F4331 		.ascii	"TOC1_MAGIC_NUMBER\000"
 4671      5F4D4147 
 4671      49435F4E 
 4671      554D4245 
 4671      5200
 4672              	.LASF182:
 4673 02e4 494E5452 		.ascii	"INTR_SET\000"
 4673      5F534554 
 4673      00
 4674              	.LASF124:
 4675 02ed 52544F43 		.ascii	"RTOC2_SIGNATURE_VERIF_KEY\000"
 4675      325F5349 
 4675      474E4154 
 4675      5552455F 
 4675      56455249 
 4676              	.LASF157:
 4677 0307 44444654 		.ascii	"DDFT_CTL\000"
 4677      5F43544C 
 4677      00
 4678              	.LASF116:
 4679 0310 52544F43 		.ascii	"RTOC2_MAGIC_NUMBER\000"
 4679      325F4D41 
 4679      4749435F 
 4679      4E554D42 
 4679      455200
 4680              	.LASF240:
 4681 0323 5057525F 		.ascii	"PWR_TRIM_BODOVP_CTL\000"
 4681      5452494D 
 4681      5F424F44 
 4681      4F56505F 
 4681      43544C00 
 4682              	.LASF49:
 4683 0337 5354414E 		.ascii	"STANDARD_SMPU_STRUCT_MASTER_ATTR\000"
 4683      44415244 
 4683      5F534D50 
 4683      555F5354 
 4683      52554354 
 4684              	.LASF62:
 4685 0358 43505553 		.ascii	"CPUSS_TRIM_RAM_CTL_ULP\000"
ARM GAS  C:\Users\cypress\AppData\Local\Temp\ccIrd8u1.s 			page 112


 4685      535F5452 
 4685      494D5F52 
 4685      414D5F43 
 4685      544C5F55 
 4686              	.LASF178:
 4687 036f 44415441 		.ascii	"DATA\000"
 4687      00
 4688              	.LASF152:
 4689 0374 524F4D5F 		.ascii	"ROM_CTL\000"
 4689      43544C00 
 4690              	.LASF130:
 4691 037c 434D305F 		.ascii	"CM0_STATUS\000"
 4691      53544154 
 4691      555300
 4692              	.LASF67:
 4693 0387 43505553 		.ascii	"CPUSS_TRIM_RAM_CTL_HALF_ULP\000"
 4693      535F5452 
 4693      494D5F52 
 4693      414D5F43 
 4693      544C5F48 
 4694              	.LASF179:
 4695 03a3 4C4F434B 		.ascii	"LOCK_STATUS\000"
 4695      5F535441 
 4695      54555300 
 4696              	.LASF276:
 4697 03af 636F7079 		.ascii	"copy\000"
 4697      00
 4698              	.LASF17:
 4699 03b4 53495F52 		.ascii	"SI_REVISION_ID\000"
 4699      45564953 
 4699      494F4E5F 
 4699      494400
 4700              	.LASF200:
 4701 03c3 5057525F 		.ascii	"PWR_CTL\000"
 4701      43544C00 
 4702              	.LASF58:
 4703 03cb 5057525F 		.ascii	"PWR_TRIM_WAKE_CTL\000"
 4703      5452494D 
 4703      5F57414B 
 4703      455F4354 
 4703      4C00
 4704              	.LASF206:
 4705 03dd 5057525F 		.ascii	"PWR_HIB_DATA\000"
 4705      4849425F 
 4705      44415441 
 4705      00
 4706              	.LASF190:
 4707 03ea 4D435744 		.ascii	"MCWDT_CNTHIGH\000"
 4707      545F434E 
 4707      54484947 
 4707      4800
 4708              	.LASF199:
 4709 03f8 4D435744 		.ascii	"MCWDT_STRUCT_Type\000"
 4709      545F5354 
 4709      52554354 
 4709      5F547970 
 4709      6500
ARM GAS  C:\Users\cypress\AppData\Local\Temp\ccIrd8u1.s 			page 113


 4710              	.LASF148:
 4711 040a 52414D31 		.ascii	"RAM1_PWR_CTL\000"
 4711      5F505752 
 4711      5F43544C 
 4711      00
 4712              	.LASF14:
 4713 0417 75696E74 		.ascii	"uint32_t\000"
 4713      33325F74 
 4713      00
 4714              	.LASF290:
 4715 0420 63795F48 		.ascii	"cy_Hfclk0FreqHz\000"
 4715      66636C6B 
 4715      30467265 
 4715      71487A00 
 4716              	.LASF127:
 4717 0430 52544F43 		.ascii	"RTOC2_CRC_ADDR\000"
 4717      325F4352 
 4717      435F4144 
 4717      445200
 4718              	.LASF26:
 4719 043f 4449455F 		.ascii	"DIE_SORT\000"
 4719      534F5254 
 4719      00
 4720              	.LASF268:
 4721 0448 706C6C4C 		.ascii	"pllLocked\000"
 4721      6F636B65 
 4721      6400
 4722              	.LASF108:
 4723 0452 544F4332 		.ascii	"TOC2_SECOND_USER_APP_ADDR\000"
 4723      5F534543 
 4723      4F4E445F 
 4723      55534552 
 4723      5F415050 
 4724              	.LASF181:
 4725 046c 494E5452 		.ascii	"INTR\000"
 4725      00
 4726              	.LASF244:
 4727 0471 434C4B5F 		.ascii	"CLK_TRIM_ILO_CTL\000"
 4727      5452494D 
 4727      5F494C4F 
 4727      5F43544C 
 4727      00
 4728              	.LASF197:
 4729 0482 4D435744 		.ascii	"MCWDT_INTR_MASKED\000"
 4729      545F494E 
 4729      54525F4D 
 4729      41534B45 
 4729      4400
 4730              	.LASF252:
 4731 0494 666C6F61 		.ascii	"float\000"
 4731      7400
 4732              	.LASF297:
 4733 049a 474E5520 		.ascii	"GNU C11 5.4.1 20160609 (release) [ARM/embedded-5-br"
 4733      43313120 
 4733      352E342E 
 4733      31203230 
 4733      31363036 
ARM GAS  C:\Users\cypress\AppData\Local\Temp\ccIrd8u1.s 			page 114


 4734 04cd 616E6368 		.ascii	"anch revision 237715] -mcpu=cortex-m0plus -mthumb -"
 4734      20726576 
 4734      6973696F 
 4734      6E203233 
 4734      37373135 
 4735 0500 67202D4F 		.ascii	"g -Og -ffunction-sections -ffat-lto-objects\000"
 4735      67202D66 
 4735      66756E63 
 4735      74696F6E 
 4735      2D736563 
 4736              	.LASF299:
 4737 052c 443A5C73 		.ascii	"D:\\student\\FeS-31\\Stepaniuk\\lab8\\lab_8_1\\lab_"
 4737      74756465 
 4737      6E745C46 
 4737      65532D33 
 4737      315C5374 
 4738 0559 385F315C 		.ascii	"8_1\\lab_8_1\\lab_8_2.cydsn\000"
 4738      6C61625F 
 4738      385F315C 
 4738      6C61625F 
 4738      385F322E 
 4739              	.LASF255:
 4740 0573 73726346 		.ascii	"srcFreqHz\000"
 4740      72657148 
 4740      7A00
 4741              	.LASF128:
 4742 057d 53464C41 		.ascii	"SFLASH_Type\000"
 4742      53485F54 
 4742      79706500 
 4743              	.LASF96:
 4744 0589 52544F43 		.ascii	"RTOC1_SFLASH_GENERAL_TRIM_ADDR\000"
 4744      315F5346 
 4744      4C415348 
 4744      5F47454E 
 4744      4552414C 
 4745              	.LASF243:
 4746 05a8 5057525F 		.ascii	"PWR_TRIM_LVD_CTL\000"
 4746      5452494D 
 4746      5F4C5644 
 4746      5F43544C 
 4746      00
 4747              	.LASF146:
 4748 05b9 52414D30 		.ascii	"RAM0_PWR_MACRO_CTL\000"
 4748      5F505752 
 4748      5F4D4143 
 4748      524F5F43 
 4748      544C00
 4749              	.LASF10:
 4750 05cc 6C6F6E67 		.ascii	"long long unsigned int\000"
 4750      206C6F6E 
 4750      6720756E 
 4750      7369676E 
 4750      65642069 
 4751              	.LASF105:
 4752 05e3 544F4332 		.ascii	"TOC2_SMIF_CFG_STRUCT_ADDR\000"
 4752      5F534D49 
 4752      465F4346 
ARM GAS  C:\Users\cypress\AppData\Local\Temp\ccIrd8u1.s 			page 115


 4752      475F5354 
 4752      52554354 
 4753              	.LASF287:
 4754 05fd 63795F64 		.ascii	"cy_delay32kMs\000"
 4754      656C6179 
 4754      33326B4D 
 4754      7300
 4755              	.LASF88:
 4756 060b 544F4331 		.ascii	"TOC1_FB_OBJECT_ADDR\000"
 4756      5F46425F 
 4756      4F424A45 
 4756      43545F41 
 4756      44445200 
 4757              	.LASF149:
 4758 061f 52414D32 		.ascii	"RAM2_CTL0\000"
 4758      5F43544C 
 4758      3000
 4759              	.LASF4:
 4760 0629 5F5F7569 		.ascii	"__uint16_t\000"
 4760      6E743136 
 4760      5F7400
 4761              	.LASF204:
 4762 0634 5057525F 		.ascii	"PWR_BUCK_CTL2\000"
 4762      4255434B 
 4762      5F43544C 
 4762      3200
 4763              	.LASF20:
 4764 0642 46414D49 		.ascii	"FAMILY_ID\000"
 4764      4C595F49 
 4764      4400
 4765              	.LASF60:
 4766 064c 52414449 		.ascii	"RADIO_LDO_TRIMS\000"
 4766      4F5F4C44 
 4766      4F5F5452 
 4766      494D5300 
 4767              	.LASF260:
 4768 065c 73726343 		.ascii	"srcClk\000"
 4768      6C6B00
 4769              	.LASF225:
 4770 0663 434C4B5F 		.ascii	"CLK_FLL_CONFIG\000"
 4770      464C4C5F 
 4770      434F4E46 
 4770      494700
 4771              	.LASF256:
 4772 0672 70617468 		.ascii	"pathFreqHz\000"
 4772      46726571 
 4772      487A00
 4773              	.LASF269:
 4774 067d 706C6C4F 		.ascii	"pllOutputOutput\000"
 4774      75747075 
 4774      744F7574 
 4774      70757400 
 4775              	.LASF223:
 4776 068d 434C4B5F 		.ascii	"CLK_ECO_STATUS\000"
 4776      45434F5F 
 4776      53544154 
 4776      555300
ARM GAS  C:\Users\cypress\AppData\Local\Temp\ccIrd8u1.s 			page 116


 4777              	.LASF261:
 4778 069c 6473695F 		.ascii	"dsi_src\000"
 4778      73726300 
 4779              	.LASF301:
 4780 06a4 43795F53 		.ascii	"Cy_SystemInit\000"
 4780      79737465 
 4780      6D496E69 
 4780      7400
 4781              	.LASF258:
 4782 06b2 70657269 		.ascii	"periClkDiv\000"
 4782      436C6B44 
 4782      697600
 4783              	.LASF280:
 4784 06bd 43795F53 		.ascii	"Cy_SysRetainCM4\000"
 4784      79735265 
 4784      7461696E 
 4784      434D3400 
 4785              	.LASF226:
 4786 06cd 434C4B5F 		.ascii	"CLK_FLL_CONFIG2\000"
 4786      464C4C5F 
 4786      434F4E46 
 4786      49473200 
 4787              	.LASF227:
 4788 06dd 434C4B5F 		.ascii	"CLK_FLL_CONFIG3\000"
 4788      464C4C5F 
 4788      434F4E46 
 4788      49473300 
 4789              	.LASF228:
 4790 06ed 434C4B5F 		.ascii	"CLK_FLL_CONFIG4\000"
 4790      464C4C5F 
 4790      434F4E46 
 4790      49473400 
 4791              	.LASF101:
 4792 06fd 52544F43 		.ascii	"RTOC1_CRC_ADDR\000"
 4792      315F4352 
 4792      435F4144 
 4792      445200
 4793              	.LASF220:
 4794 070c 434C4B5F 		.ascii	"CLK_CAL_CNT1\000"
 4794      43414C5F 
 4794      434E5431 
 4794      00
 4795              	.LASF221:
 4796 0719 434C4B5F 		.ascii	"CLK_CAL_CNT2\000"
 4796      43414C5F 
 4796      434E5432 
 4796      00
 4797              	.LASF51:
 4798 0726 5354414E 		.ascii	"STANDARD_PPU_STRUCT\000"
 4798      44415244 
 4798      5F505055 
 4798      5F535452 
 4798      55435400 
 4799              	.LASF177:
 4800 073a 4E4F5449 		.ascii	"NOTIFY\000"
 4800      465900
 4801              	.LASF86:
ARM GAS  C:\Users\cypress\AppData\Local\Temp\ccIrd8u1.s 			page 117


 4802 0741 544F4331 		.ascii	"TOC1_SFLASH_GENERAL_TRIM_ADDR\000"
 4802      5F53464C 
 4802      4153485F 
 4802      47454E45 
 4802      52414C5F 
 4803              	.LASF40:
 4804 075f 424C455F 		.ascii	"BLE_DEVICE_ADDRESS\000"
 4804      44455649 
 4804      43455F41 
 4804      44445245 
 4804      535300
 4805              	.LASF273:
 4806 0772 5F426F6F 		.ascii	"_Bool\000"
 4806      6C00
 4807              	.LASF145:
 4808 0778 52414D30 		.ascii	"RAM0_CTL0\000"
 4808      5F43544C 
 4808      3000
 4809              	.LASF196:
 4810 0782 4D435744 		.ascii	"MCWDT_INTR_MASK\000"
 4810      545F494E 
 4810      54525F4D 
 4810      41534B00 
 4811              	.LASF102:
 4812 0792 544F4332 		.ascii	"TOC2_OBJECT_SIZE\000"
 4812      5F4F424A 
 4812      4543545F 
 4812      53495A45 
 4812      00
 4813              	.LASF103:
 4814 07a3 544F4332 		.ascii	"TOC2_MAGIC_NUMBER\000"
 4814      5F4D4147 
 4814      49435F4E 
 4814      554D4245 
 4814      5200
 4815              	.LASF66:
 4816 07b5 43505553 		.ascii	"CPUSS_TRIM_ROM_CTL_HALF_ULP\000"
 4816      535F5452 
 4816      494D5F52 
 4816      4F4D5F43 
 4816      544C5F48 
 4817              	.LASF162:
 4818 07d1 434D305F 		.ascii	"CM0_PC0_HANDLER\000"
 4818      5043305F 
 4818      48414E44 
 4818      4C455200 
 4819              	.LASF231:
 4820 07e1 434C4B5F 		.ascii	"CLK_PLL_STATUS\000"
 4820      504C4C5F 
 4820      53544154 
 4820      555300
 4821              	.LASF92:
 4822 07f0 544F4331 		.ascii	"TOC1_CRC_ADDR\000"
 4822      5F435243 
 4822      5F414444 
 4822      5200
 4823              	.LASF29:
ARM GAS  C:\Users\cypress\AppData\Local\Temp\ccIrd8u1.s 			page 118


 4824 07fe 4449455F 		.ascii	"DIE_MONTH\000"
 4824      4D4F4E54 
 4824      4800
 4825              	.LASF236:
 4826 0808 53525353 		.ascii	"SRSS_INTR_CFG\000"
 4826      5F494E54 
 4826      525F4346 
 4826      4700
 4827              	.LASF151:
 4828 0816 52414D5F 		.ascii	"RAM_PWR_DELAY_CTL\000"
 4828      5057525F 
 4828      44454C41 
 4828      595F4354 
 4828      4C00
 4829              	.LASF262:
 4830 0828 666C6C4C 		.ascii	"fllLocked\000"
 4830      6F636B65 
 4830      6400
 4831              	.LASF278:
 4832 0832 43795F53 		.ascii	"Cy_SysDisableCM4\000"
 4832      79734469 
 4832      7361626C 
 4832      65434D34 
 4832      00
 4833              	.LASF248:
 4834 0843 434C4B5F 		.ascii	"CLK_TRIM_PILO_CTL2\000"
 4834      5452494D 
 4834      5F50494C 
 4834      4F5F4354 
 4834      4C3200
 4835              	.LASF249:
 4836 0856 434C4B5F 		.ascii	"CLK_TRIM_PILO_CTL3\000"
 4836      5452494D 
 4836      5F50494C 
 4836      4F5F4354 
 4836      4C3300
 4837              	.LASF87:
 4838 0869 544F4331 		.ascii	"TOC1_UNIQUE_ID_ADDR\000"
 4838      5F554E49 
 4838      5155455F 
 4838      49445F41 
 4838      44445200 
 4839              	.LASF217:
 4840 087d 434C4B5F 		.ascii	"CLK_IMO_CONFIG\000"
 4840      494D4F5F 
 4840      434F4E46 
 4840      494700
 4841              	.LASF111:
 4842 088c 544F4332 		.ascii	"TOC2_SIGNATURE_VERIF_KEY\000"
 4842      5F534947 
 4842      4E415455 
 4842      52455F56 
 4842      45524946 
 4843              	.LASF98:
 4844 08a5 52544F43 		.ascii	"RTOC1_FB_OBJECT_ADDR\000"
 4844      315F4642 
 4844      5F4F424A 
ARM GAS  C:\Users\cypress\AppData\Local\Temp\ccIrd8u1.s 			page 119


 4844      4543545F 
 4844      41444452 
 4845              	.LASF241:
 4846 08ba 434C4B5F 		.ascii	"CLK_TRIM_CCO_CTL\000"
 4846      5452494D 
 4846      5F43434F 
 4846      5F43544C 
 4846      00
 4847              	.LASF168:
 4848 08cb 434D305F 		.ascii	"CM0_NMI_CTL\000"
 4848      4E4D495F 
 4848      43544C00 
 4849              	.LASF201:
 4850 08d7 5057525F 		.ascii	"PWR_HIBERNATE\000"
 4850      48494245 
 4850      524E4154 
 4850      4500
 4851              	.LASF292:
 4852 08e5 43795F49 		.ascii	"Cy_IPC_SystemSemaInit\000"
 4852      50435F53 
 4852      79737465 
 4852      6D53656D 
 4852      61496E69 
 4853              	.LASF251:
 4854 08fb 63686172 		.ascii	"char\000"
 4854      00
 4855              	.LASF72:
 4856 0900 464C4153 		.ascii	"FLASH_BOOT_APP_ID\000"
 4856      485F424F 
 4856      4F545F41 
 4856      50505F49 
 4856      4400
 4857              	.LASF143:
 4858 0912 434D345F 		.ascii	"CM4_CLOCK_CTL\000"
 4858      434C4F43 
 4858      4B5F4354 
 4858      4C00
 4859              	.LASF95:
 4860 0920 52544F43 		.ascii	"RTOC1_FHASH_OBJECTS\000"
 4860      315F4648 
 4860      4153485F 
 4860      4F424A45 
 4860      43545300 
 4861              	.LASF99:
 4862 0934 52544F43 		.ascii	"RTOC1_SYSCALL_TABLE_ADDR\000"
 4862      315F5359 
 4862      5343414C 
 4862      4C5F5441 
 4862      424C455F 
 4863              	.LASF286:
 4864 094d 63795F64 		.ascii	"cy_delayFreqMhz\000"
 4864      656C6179 
 4864      46726571 
 4864      4D687A00 
 4865              	.LASF202:
 4866 095d 5057525F 		.ascii	"PWR_LVD_CTL\000"
 4866      4C56445F 
ARM GAS  C:\Users\cypress\AppData\Local\Temp\ccIrd8u1.s 			page 120


 4866      43544C00 
 4867              	.LASF90:
 4868 0969 544F4331 		.ascii	"TOC1_BOOT_PROTECTION_ADDR\000"
 4868      5F424F4F 
 4868      545F5052 
 4868      4F544543 
 4868      54494F4E 
 4869              	.LASF61:
 4870 0983 43505553 		.ascii	"CPUSS_TRIM_ROM_CTL_ULP\000"
 4870      535F5452 
 4870      494D5F52 
 4870      4F4D5F43 
 4870      544C5F55 
 4871              	.LASF208:
 4872 099a 5744545F 		.ascii	"WDT_CNT\000"
 4872      434E5400 
 4873              	.LASF106:
 4874 09a2 544F4332 		.ascii	"TOC2_FIRST_USER_APP_ADDR\000"
 4874      5F464952 
 4874      53545F55 
 4874      5345525F 
 4874      4150505F 
 4875              	.LASF233:
 4876 09bb 53525353 		.ascii	"SRSS_INTR_SET\000"
 4876      5F494E54 
 4876      525F5345 
 4876      5400
 4877              	.LASF12:
 4878 09c9 75696E74 		.ascii	"uint8_t\000"
 4878      385F7400 
 4879              	.LASF215:
 4880 09d1 434C4B5F 		.ascii	"CLK_TIMER_CTL\000"
 4880      54494D45 
 4880      525F4354 
 4880      4C00
 4881              	.LASF300:
 4882 09df 43795F53 		.ascii	"Cy_SysLib_GetDeviceRevision\000"
 4882      79734C69 
 4882      625F4765 
 4882      74446576 
 4882      69636552 
 4883              	.LASF166:
 4884 09fb 50524F54 		.ascii	"PROTECTION\000"
 4884      45435449 
 4884      4F4E00
 4885              	.LASF209:
 4886 0a06 5744545F 		.ascii	"WDT_MATCH\000"
 4886      4D415443 
 4886      4800
 4887              	.LASF150:
 4888 0a10 52414D32 		.ascii	"RAM2_PWR_CTL\000"
 4888      5F505752 
 4888      5F43544C 
 4888      00
 4889              	.LASF189:
 4890 0a1d 4D435744 		.ascii	"MCWDT_CNTLOW\000"
 4890      545F434E 
ARM GAS  C:\Users\cypress\AppData\Local\Temp\ccIrd8u1.s 			page 121


 4890      544C4F57 
 4890      00
 4891              	.LASF9:
 4892 0a2a 6C6F6E67 		.ascii	"long long int\000"
 4892      206C6F6E 
 4892      6720696E 
 4892      7400
 4893              	.LASF35:
 4894 0a38 4353505F 		.ascii	"CSP_PANEL_ID\000"
 4894      50414E45 
 4894      4C5F4944 
 4894      00
 4895              	.LASF222:
 4896 0a45 434C4B5F 		.ascii	"CLK_ECO_CONFIG\000"
 4896      45434F5F 
 4896      434F4E46 
 4896      494700
 4897              	.LASF194:
 4898 0a54 4D435744 		.ascii	"MCWDT_INTR\000"
 4898      545F494E 
 4898      545200
 4899              	.LASF285:
 4900 0a5f 63795F64 		.ascii	"cy_delayFreqKhz\000"
 4900      656C6179 
 4900      46726571 
 4900      4B687A00 
 4901              	.LASF175:
 4902 0a6f 41435155 		.ascii	"ACQUIRE\000"
 4902      49524500 
 4903              	.LASF68:
 4904 0a77 43505553 		.ascii	"CPUSS_TRIM_ROM_CTL_HALF_LP\000"
 4904      535F5452 
 4904      494D5F52 
 4904      4F4D5F43 
 4904      544C5F48 
 4905              	.LASF89:
 4906 0a92 544F4331 		.ascii	"TOC1_SYSCALL_TABLE_ADDR\000"
 4906      5F535953 
 4906      43414C4C 
 4906      5F544142 
 4906      4C455F41 
 4907              	.LASF141:
 4908 0aaa 434D345F 		.ascii	"CM4_PWR_DELAY_CTL\000"
 4908      5057525F 
 4908      44454C41 
 4908      595F4354 
 4908      4C00
 4909              	.LASF164:
 4910 0abc 4944454E 		.ascii	"IDENTITY\000"
 4910      54495459 
 4910      00
 4911              	.LASF246:
 4912 0ac5 434C4B5F 		.ascii	"CLK_TRIM_ECO_CTL\000"
 4912      5452494D 
 4912      5F45434F 
 4912      5F43544C 
 4912      00
ARM GAS  C:\Users\cypress\AppData\Local\Temp\ccIrd8u1.s 			page 122


 4913              	.LASF76:
 4914 0ad6 464C4153 		.ascii	"FLASH_BOOT_CORE_CPUID\000"
 4914      485F424F 
 4914      4F545F43 
 4914      4F52455F 
 4914      43505549 
 4915              	.LASF15:
 4916 0aec 73697A65 		.ascii	"sizetype\000"
 4916      74797065 
 4916      00
 4917              	.LASF170:
 4918 0af5 4D424953 		.ascii	"MBIST_STAT\000"
 4918      545F5354 
 4918      415400
 4919              	.LASF144:
 4920 0b00 434D345F 		.ascii	"CM4_NMI_CTL\000"
 4920      4E4D495F 
 4920      43544C00 
 4921              	.LASF183:
 4922 0b0c 494E5452 		.ascii	"INTR_MASK\000"
 4922      5F4D4153 
 4922      4B00
 4923              	.LASF75:
 4924 0b16 464C4153 		.ascii	"FLASH_BOOT_VT_OFFSET\000"
 4924      485F424F 
 4924      4F545F56 
 4924      545F4F46 
 4924      46534554 
 4925              	.LASF113:
 4926 0b2b 544F4332 		.ascii	"TOC2_FLAGS\000"
 4926      5F464C41 
 4926      475300
 4927              	.LASF230:
 4928 0b36 434C4B5F 		.ascii	"CLK_PLL_CONFIG\000"
 4928      504C4C5F 
 4928      434F4E46 
 4928      494700
 4929              	.LASF176:
 4930 0b45 52454C45 		.ascii	"RELEASE\000"
 4930      41534500 
 4931              	.LASF27:
 4932 0b4d 4449455F 		.ascii	"DIE_MINOR\000"
 4932      4D494E4F 
 4932      5200
 4933              	.LASF30:
 4934 0b57 4449455F 		.ascii	"DIE_YEAR\000"
 4934      59454152 
 4934      00
 4935              	.LASF224:
 4936 0b60 434C4B5F 		.ascii	"CLK_PILO_CONFIG\000"
 4936      50494C4F 
 4936      5F434F4E 
 4936      46494700 
 4937              	.LASF218:
 4938 0b70 434C4B5F 		.ascii	"CLK_OUTPUT_FAST\000"
 4938      4F555450 
 4938      55545F46 
ARM GAS  C:\Users\cypress\AppData\Local\Temp\ccIrd8u1.s 			page 123


 4938      41535400 
 4939              	.LASF296:
 4940 0b80 43795F52 		.ascii	"Cy_RestoreIRQ\000"
 4940      6573746F 
 4940      72654952 
 4940      5100
 4941              	.LASF239:
 4942 0b8e 5057525F 		.ascii	"PWR_TRIM_REF_CTL\000"
 4942      5452494D 
 4942      5F524546 
 4942      5F43544C 
 4942      00
 4943              	.LASF64:
 4944 0b9f 43505553 		.ascii	"CPUSS_TRIM_RAM_CTL_LP\000"
 4944      535F5452 
 4944      494D5F52 
 4944      414D5F43 
 4944      544C5F4C 
 4945              	.LASF140:
 4946 0bb5 434D345F 		.ascii	"CM4_PWR_CTL\000"
 4946      5057525F 
 4946      43544C00 
 4947              	.LASF173:
 4948 0bc1 5452494D 		.ascii	"TRIM_RAM_CTL\000"
 4948      5F52414D 
 4948      5F43544C 
 4948      00
 4949              	.LASF180:
 4950 0bce 4950435F 		.ascii	"IPC_STRUCT_Type\000"
 4950      53545255 
 4950      43545F54 
 4950      79706500 
 4951              	.LASF198:
 4952 0bde 4D435744 		.ascii	"MCWDT_LOCK\000"
 4952      545F4C4F 
 4952      434B00
 4953              	.LASF63:
 4954 0be9 43505553 		.ascii	"CPUSS_TRIM_ROM_CTL_LP\000"
 4954      535F5452 
 4954      494D5F52 
 4954      4F4D5F43 
 4954      544C5F4C 
 4955              	.LASF254:
 4956 0bff 6C6F6E67 		.ascii	"long double\000"
 4956      20646F75 
 4956      626C6500 
 4957              	.LASF288:
 4958 0c0b 53797374 		.ascii	"SystemCoreClock\000"
 4958      656D436F 
 4958      7265436C 
 4958      6F636B00 
 4959              	.LASF47:
 4960 0c1b 5354414E 		.ascii	"STANDARD_SMPU_STRUCT_SLAVE_ADDR\000"
 4960      44415244 
 4960      5F534D50 
 4960      555F5354 
 4960      52554354 
ARM GAS  C:\Users\cypress\AppData\Local\Temp\ccIrd8u1.s 			page 124


 4961              	.LASF53:
 4962 0c3b 50494C4F 		.ascii	"PILO_FREQ_STEP\000"
 4962      5F465245 
 4962      515F5354 
 4962      455000
 4963              	.LASF282:
 4964 0c4a 43795F53 		.ascii	"Cy_SysEnableCM4\000"
 4964      7973456E 
 4964      61626C65 
 4964      434D3400 
 4965              	.LASF23:
 4966 0c5a 4449455F 		.ascii	"DIE_WAFER\000"
 4966      57414645 
 4966      5200
 4967              	.LASF50:
 4968 0c64 5354414E 		.ascii	"STANDARD_MPU_STRUCT\000"
 4968      44415244 
 4968      5F4D5055 
 4968      5F535452 
 4968      55435400 
 4969              	.LASF213:
 4970 0c78 434C4B5F 		.ascii	"CLK_ROOT_SELECT\000"
 4970      524F4F54 
 4970      5F53454C 
 4970      45435400 
 4971              	.LASF73:
 4972 0c88 464C4153 		.ascii	"FLASH_BOOT_ATTRIBUTE\000"
 4972      485F424F 
 4972      4F545F41 
 4972      54545249 
 4972      42555445 
 4973              	.LASF142:
 4974 0c9d 434D345F 		.ascii	"CM4_STATUS\000"
 4974      53544154 
 4974      555300
 4975              	.LASF291:
 4976 0ca8 63795F50 		.ascii	"cy_PeriClkFreqHz\000"
 4976      65726943 
 4976      6C6B4672 
 4976      6571487A 
 4976      00
 4977              	.LASF19:
 4978 0cb9 52455345 		.ascii	"RESERVED1\000"
 4978      52564544 
 4978      3100
 4979              	.LASF21:
 4980 0cc3 52455345 		.ascii	"RESERVED2\000"
 4980      52564544 
 4980      3200
 4981              	.LASF31:
 4982 0ccd 52455345 		.ascii	"RESERVED3\000"
 4982      52564544 
 4982      3300
 4983              	.LASF34:
 4984 0cd7 52455345 		.ascii	"RESERVED4\000"
 4984      52564544 
 4984      3400
ARM GAS  C:\Users\cypress\AppData\Local\Temp\ccIrd8u1.s 			page 125


 4985              	.LASF36:
 4986 0ce1 52455345 		.ascii	"RESERVED5\000"
 4986      52564544 
 4986      3500
 4987              	.LASF39:
 4988 0ceb 52455345 		.ascii	"RESERVED6\000"
 4988      52564544 
 4988      3600
 4989              	.LASF2:
 4990 0cf5 73686F72 		.ascii	"short int\000"
 4990      7420696E 
 4990      7400
 4991              	.LASF52:
 4992 0cff 52455345 		.ascii	"RESERVED8\000"
 4992      52564544 
 4992      3800
 4993              	.LASF54:
 4994 0d09 52455345 		.ascii	"RESERVED9\000"
 4994      52564544 
 4994      3900
 4995              	.LASF55:
 4996 0d13 43534456 		.ascii	"CSDV2_CSD0_ADC_VREF0\000"
 4996      325F4353 
 4996      44305F41 
 4996      44435F56 
 4996      52454630 
 4997              	.LASF56:
 4998 0d28 43534456 		.ascii	"CSDV2_CSD0_ADC_VREF1\000"
 4998      325F4353 
 4998      44305F41 
 4998      44435F56 
 4998      52454631 
 4999              	.LASF57:
 5000 0d3d 43534456 		.ascii	"CSDV2_CSD0_ADC_VREF2\000"
 5000      325F4353 
 5000      44305F41 
 5000      44435F56 
 5000      52454632 
 5001              	.LASF212:
 5002 0d52 434C4B5F 		.ascii	"CLK_PATH_SELECT\000"
 5002      50415448 
 5002      5F53454C 
 5002      45435400 
 5003              	.LASF6:
 5004 0d62 6C6F6E67 		.ascii	"long int\000"
 5004      20696E74 
 5004      00
 5005              	.LASF247:
 5006 0d6b 434C4B5F 		.ascii	"CLK_TRIM_PILO_CTL\000"
 5006      5452494D 
 5006      5F50494C 
 5006      4F5F4354 
 5006      4C00
 5007              	.LASF235:
 5008 0d7d 53525353 		.ascii	"SRSS_INTR_MASKED\000"
 5008      5F494E54 
 5008      525F4D41 
ARM GAS  C:\Users\cypress\AppData\Local\Temp\ccIrd8u1.s 			page 126


 5008      534B4544 
 5008      00
 5009              	.LASF203:
 5010 0d8e 5057525F 		.ascii	"PWR_BUCK_CTL\000"
 5010      4255434B 
 5010      5F43544C 
 5010      00
 5011              	.LASF159:
 5012 0d9b 434D305F 		.ascii	"CM0_VECTOR_TABLE_BASE\000"
 5012      56454354 
 5012      4F525F54 
 5012      41424C45 
 5012      5F424153 
 5013              	.LASF78:
 5014 0db1 464C4153 		.ascii	"FLASH_BOOT_CODE\000"
 5014      485F424F 
 5014      4F545F43 
 5014      4F444500 
 5015              	.LASF210:
 5016 0dc1 4D435744 		.ascii	"MCWDT_STRUCT\000"
 5016      545F5354 
 5016      52554354 
 5016      00
 5017              	.LASF69:
 5018 0dce 43505553 		.ascii	"CPUSS_TRIM_RAM_CTL_HALF_LP\000"
 5018      535F5452 
 5018      494D5F52 
 5018      414D5F43 
 5018      544C5F48 
 5019              	.LASF195:
 5020 0de9 4D435744 		.ascii	"MCWDT_INTR_SET\000"
 5020      545F494E 
 5020      54525F53 
 5020      455400
 5021              	.LASF147:
 5022 0df8 52414D31 		.ascii	"RAM1_CTL0\000"
 5022      5F43544C 
 5022      3000
 5023              	.LASF129:
 5024 0e02 434D305F 		.ascii	"CM0_CTL\000"
 5024      43544C00 
 5025              	.LASF3:
 5026 0e0a 5F5F7569 		.ascii	"__uint8_t\000"
 5026      6E74385F 
 5026      7400
 5027              	.LASF18:
 5028 0e14 53494C49 		.ascii	"SILICON_ID\000"
 5028      434F4E5F 
 5028      494400
 5029              	.LASF232:
 5030 0e1f 53525353 		.ascii	"SRSS_INTR\000"
 5030      5F494E54 
 5030      5200
 5031              	.LASF123:
 5032 0e29 52544F43 		.ascii	"RTOC2_SHASH_OBJECTS\000"
 5032      325F5348 
 5032      4153485F 
ARM GAS  C:\Users\cypress\AppData\Local\Temp\ccIrd8u1.s 			page 127


 5032      4F424A45 
 5032      43545300 
 5033              	.LASF46:
 5034 0e3d 4D415354 		.ascii	"MASTER_KEY\000"
 5034      45525F4B 
 5034      455900
 5035              	.LASF184:
 5036 0e48 494E5452 		.ascii	"INTR_MASKED\000"
 5036      5F4D4153 
 5036      4B454400 
 5037              	.LASF104:
 5038 0e54 544F4332 		.ascii	"TOC2_KEY_BLOCK_ADDR\000"
 5038      5F4B4559 
 5038      5F424C4F 
 5038      434B5F41 
 5038      44445200 
 5039              	.LASF257:
 5040 0e68 736C6F77 		.ascii	"slowClkDiv\000"
 5040      436C6B44 
 5040      697600
 5041              	.LASF81:
 5042 0e73 424F4F54 		.ascii	"BOOT_PROT_SETTINGS\000"
 5042      5F50524F 
 5042      545F5345 
 5042      5454494E 
 5042      475300
 5043              	.LASF22:
 5044 0e86 4449455F 		.ascii	"DIE_LOT\000"
 5044      4C4F5400 
 5045              	.LASF237:
 5046 0e8e 5245535F 		.ascii	"RES_CAUSE\000"
 5046      43415553 
 5046      4500
 5047              	.LASF114:
 5048 0e98 544F4332 		.ascii	"TOC2_CRC_ADDR\000"
 5048      5F435243 
 5048      5F414444 
 5048      5200
 5049              	.LASF8:
 5050 0ea6 6C6F6E67 		.ascii	"long unsigned int\000"
 5050      20756E73 
 5050      69676E65 
 5050      6420696E 
 5050      7400
 5051              	.LASF270:
 5052 0eb8 706C6C4F 		.ascii	"pllOutputAuto\000"
 5052      75747075 
 5052      74417574 
 5052      6F00
 5053              	.LASF298:
 5054 0ec6 73797374 		.ascii	"system_psoc63_cm0plus.c\000"
 5054      656D5F70 
 5054      736F6336 
 5054      335F636D 
 5054      30706C75 
 5055              	.LASF133:
 5056 0ede 434D305F 		.ascii	"CM0_INT_CTL1\000"
ARM GAS  C:\Users\cypress\AppData\Local\Temp\ccIrd8u1.s 			page 128


 5056      494E545F 
 5056      43544C31 
 5056      00
 5057              	.LASF134:
 5058 0eeb 434D305F 		.ascii	"CM0_INT_CTL2\000"
 5058      494E545F 
 5058      43544C32 
 5058      00
 5059              	.LASF135:
 5060 0ef8 434D305F 		.ascii	"CM0_INT_CTL3\000"
 5060      494E545F 
 5060      43544C33 
 5060      00
 5061              	.LASF136:
 5062 0f05 434D305F 		.ascii	"CM0_INT_CTL4\000"
 5062      494E545F 
 5062      43544C34 
 5062      00
 5063              	.LASF264:
 5064 0f12 666C6C4F 		.ascii	"fllOutputAuto\000"
 5064      75747075 
 5064      74417574 
 5064      6F00
 5065              	.LASF137:
 5066 0f20 434D305F 		.ascii	"CM0_INT_CTL5\000"
 5066      494E545F 
 5066      43544C35 
 5066      00
 5067              	.LASF138:
 5068 0f2d 434D305F 		.ascii	"CM0_INT_CTL6\000"
 5068      494E545F 
 5068      43544C36 
 5068      00
 5069              	.LASF139:
 5070 0f3a 434D305F 		.ascii	"CM0_INT_CTL7\000"
 5070      494E545F 
 5070      43544C37 
 5070      00
 5071              	.LASF83:
 5072 0f47 544F4331 		.ascii	"TOC1_OBJECT_SIZE\000"
 5072      5F4F424A 
 5072      4543545F 
 5072      53495A45 
 5072      00
 5073              	.LASF13:
 5074 0f58 75696E74 		.ascii	"uint16_t\000"
 5074      31365F74 
 5074      00
 5075              	.LASF207:
 5076 0f61 5744545F 		.ascii	"WDT_CTL\000"
 5076      43544C00 
 5077              	.LASF1:
 5078 0f69 756E7369 		.ascii	"unsigned char\000"
 5078      676E6564 
 5078      20636861 
 5078      7200
 5079              	.LASF259:
ARM GAS  C:\Users\cypress\AppData\Local\Temp\ccIrd8u1.s 			page 129


 5080 0f77 726F6F74 		.ascii	"rootPath\000"
 5080      50617468 
 5080      00
 5081              	.LASF7:
 5082 0f80 5F5F7569 		.ascii	"__uint32_t\000"
 5082      6E743332 
 5082      5F7400
 5083              	.LASF32:
 5084 0f8b 5341525F 		.ascii	"SAR_TEMP_MULTIPLIER\000"
 5084      54454D50 
 5084      5F4D554C 
 5084      5449504C 
 5084      49455200 
 5085              	.LASF41:
 5086 0f9f 55534552 		.ascii	"USER_FREE_ROW1\000"
 5086      5F465245 
 5086      455F524F 
 5086      573100
 5087              	.LASF42:
 5088 0fae 55534552 		.ascii	"USER_FREE_ROW2\000"
 5088      5F465245 
 5088      455F524F 
 5088      573200
 5089              	.LASF43:
 5090 0fbd 55534552 		.ascii	"USER_FREE_ROW3\000"
 5090      5F465245 
 5090      455F524F 
 5090      573300
 5091              	.LASF45:
 5092 0fcc 44455649 		.ascii	"DEVICE_UID\000"
 5092      43455F55 
 5092      494400
 5093              	.LASF263:
 5094 0fd7 666C6C4F 		.ascii	"fllOutputOutput\000"
 5094      75747075 
 5094      744F7574 
 5094      70757400 
 5095              	.LASF281:
 5096 0fe7 43795F53 		.ascii	"Cy_SysResetCM4\000"
 5096      79735265 
 5096      73657443 
 5096      4D3400
 5097              	.LASF132:
 5098 0ff6 434D305F 		.ascii	"CM0_INT_CTL0\000"
 5098      494E545F 
 5098      43544C30 
 5098      00
 5099              	.LASF59:
 5100 1003 52455345 		.ascii	"RESERVED10\000"
 5100      52564544 
 5100      313000
 5101              	.LASF65:
 5102 100e 52455345 		.ascii	"RESERVED11\000"
 5102      52564544 
 5102      313100
 5103              	.LASF70:
 5104 1019 52455345 		.ascii	"RESERVED12\000"
ARM GAS  C:\Users\cypress\AppData\Local\Temp\ccIrd8u1.s 			page 130


 5104      52564544 
 5104      313200
 5105              	.LASF77:
 5106 1024 52455345 		.ascii	"RESERVED13\000"
 5106      52564544 
 5106      313300
 5107              	.LASF79:
 5108 102f 52455345 		.ascii	"RESERVED14\000"
 5108      52564544 
 5108      313400
 5109              	.LASF82:
 5110 103a 52455345 		.ascii	"RESERVED15\000"
 5110      52564544 
 5110      313500
 5111              	.LASF91:
 5112 1045 52455345 		.ascii	"RESERVED16\000"
 5112      52564544 
 5112      313600
 5113              	.LASF100:
 5114 1050 52455345 		.ascii	"RESERVED17\000"
 5114      52564544 
 5114      313700
 5115              	.LASF112:
 5116 105b 52455345 		.ascii	"RESERVED18\000"
 5116      52564544 
 5116      313800
 5117              	.LASF125:
 5118 1066 52455345 		.ascii	"RESERVED19\000"
 5118      52564544 
 5118      313900
 5119              	.LASF283:
 5120 1071 63707553 		.ascii	"cpuState\000"
 5120      74617465 
 5120      00
 5121              	.LASF193:
 5122 107a 4D435744 		.ascii	"MCWDT_CTL\000"
 5122      545F4354 
 5122      4C00
 5123              	.LASF272:
 5124 1084 72656665 		.ascii	"referenceDiv\000"
 5124      72656E63 
 5124      65446976 
 5124      00
 5125              	.LASF192:
 5126 1091 4D435744 		.ascii	"MCWDT_CONFIG\000"
 5126      545F434F 
 5126      4E464947 
 5126      00
 5127              	.LASF303:
 5128 109e 76656374 		.ascii	"vectorTableOffset\000"
 5128      6F725461 
 5128      626C654F 
 5128      66667365 
 5128      7400
 5129              	.LASF245:
 5130 10b0 5057525F 		.ascii	"PWR_TRIM_PWRSYS_CTL\000"
 5130      5452494D 
ARM GAS  C:\Users\cypress\AppData\Local\Temp\ccIrd8u1.s 			page 131


 5130      5F505752 
 5130      5359535F 
 5130      43544C00 
 5131              	.LASF156:
 5132 10c4 42554646 		.ascii	"BUFF_CTL\000"
 5132      5F43544C 
 5132      00
 5133              	.LASF117:
 5134 10cd 52544F43 		.ascii	"RTOC2_KEY_BLOCK_ADDR\000"
 5134      325F4B45 
 5134      595F424C 
 5134      4F434B5F 
 5134      41444452 
 5135              	.LASF120:
 5136 10e2 52544F43 		.ascii	"RTOC2_FIRST_USER_APP_FORMAT\000"
 5136      325F4649 
 5136      5253545F 
 5136      55534552 
 5136      5F415050 
 5137              	.LASF0:
 5138 10fe 7369676E 		.ascii	"signed char\000"
 5138      65642063 
 5138      68617200 
 5139              	.LASF242:
 5140 110a 434C4B5F 		.ascii	"CLK_TRIM_CCO_CTL2\000"
 5140      5452494D 
 5140      5F43434F 
 5140      5F43544C 
 5140      3200
 5141              	.LASF5:
 5142 111c 73686F72 		.ascii	"short unsigned int\000"
 5142      7420756E 
 5142      7369676E 
 5142      65642069 
 5142      6E7400
 5143              	.LASF161:
 5144 112f 52455345 		.ascii	"RESERVED20\000"
 5144      52564544 
 5144      323000
 5145              	.LASF163:
 5146 113a 52455345 		.ascii	"RESERVED21\000"
 5146      52564544 
 5146      323100
 5147              	.LASF165:
 5148 1145 52455345 		.ascii	"RESERVED22\000"
 5148      52564544 
 5148      323200
 5149              	.LASF167:
 5150 1150 52455345 		.ascii	"RESERVED23\000"
 5150      52564544 
 5150      323300
 5151              	.LASF169:
 5152 115b 52455345 		.ascii	"RESERVED24\000"
 5152      52564544 
 5152      323400
 5153              	.LASF171:
 5154 1166 52455345 		.ascii	"RESERVED25\000"
ARM GAS  C:\Users\cypress\AppData\Local\Temp\ccIrd8u1.s 			page 132


 5154      52564544 
 5154      323500
 5155              	.LASF271:
 5156 1171 66656564 		.ascii	"feedbackDiv\000"
 5156      6261636B 
 5156      44697600 
 5157              	.LASF94:
 5158 117d 52544F43 		.ascii	"RTOC1_MAGIC_NUMBER\000"
 5158      315F4D41 
 5158      4749435F 
 5158      4E554D42 
 5158      455200
 5159              	.LASF153:
 5160 1190 5544425F 		.ascii	"UDB_PWR_CTL\000"
 5160      5057525F 
 5160      43544C00 
 5161              	.LASF253:
 5162 119c 646F7562 		.ascii	"double\000"
 5162      6C6500
 5163              	.LASF267:
 5164 11a3 6F757470 		.ascii	"outputDiv\000"
 5164      75744469 
 5164      7600
 5165              	.LASF191:
 5166 11ad 4D435744 		.ascii	"MCWDT_MATCH\000"
 5166      545F4D41 
 5166      54434800 
 5167              	.LASF38:
 5168 11b9 4C444F5F 		.ascii	"LDO_1P1V_TRIM\000"
 5168      31503156 
 5168      5F545249 
 5168      4D00
 5169              	.LASF284:
 5170 11c7 63795F64 		.ascii	"cy_delayFreqHz\000"
 5170      656C6179 
 5170      46726571 
 5170      487A00
 5171              	.LASF44:
 5172 11d6 52455345 		.ascii	"RESERVED7\000"
 5172      52564544 
 5172      3700
 5173              	.LASF211:
 5174 11e0 434C4B5F 		.ascii	"CLK_DSI_SELECT\000"
 5174      4453495F 
 5174      53454C45 
 5174      435400
 5175              	.LASF275:
 5176 11ef 53797374 		.ascii	"SystemInit\000"
 5176      656D496E 
 5176      697400
 5177              	.LASF188:
 5178 11fa 4950435F 		.ascii	"IPC_Type\000"
 5178      54797065 
 5178      00
 5179              	.LASF186:
 5180 1203 53545255 		.ascii	"STRUCT\000"
 5180      435400
ARM GAS  C:\Users\cypress\AppData\Local\Temp\ccIrd8u1.s 			page 133


 5181              	.LASF274:
 5182 120a 53797374 		.ascii	"SystemCoreClockUpdate\000"
 5182      656D436F 
 5182      7265436C 
 5182      6F636B55 
 5182      70646174 
 5183              	.LASF295:
 5184 1220 43795F53 		.ascii	"Cy_SaveIRQ\000"
 5184      61766549 
 5184      525100
 5185              	.LASF126:
 5186 122b 52544F43 		.ascii	"RTOC2_FLAGS\000"
 5186      325F464C 
 5186      41475300 
 5187              	.LASF158:
 5188 1237 53595354 		.ascii	"SYSTICK_CTL\000"
 5188      49434B5F 
 5188      43544C00 
 5189              	.LASF80:
 5190 1243 5055424C 		.ascii	"PUBLIC_KEY\000"
 5190      49435F4B 
 5190      455900
 5191              	.LASF121:
 5192 124e 52544F43 		.ascii	"RTOC2_SECOND_USER_APP_ADDR\000"
 5192      325F5345 
 5192      434F4E44 
 5192      5F555345 
 5192      525F4150 
 5193              		.ident	"GCC: (GNU Tools for ARM Embedded Processors) 5.4.1 20160609 (release) [ARM/embedded-5-bran
