ARM GAS  C:\Users\Agentos\AppData\Local\Temp\ccYwDzr6.s 			page 1


   1              		.syntax unified
   2              		.cpu cortex-m4
   3              		.eabi_attribute 27, 1
   4              		.fpu fpv4-sp-d16
   5              		.eabi_attribute 20, 1
   6              		.eabi_attribute 21, 1
   7              		.eabi_attribute 23, 3
   8              		.eabi_attribute 24, 1
   9              		.eabi_attribute 25, 1
  10              		.eabi_attribute 26, 1
  11              		.eabi_attribute 30, 1
  12              		.eabi_attribute 34, 1
  13              		.eabi_attribute 18, 4
  14              		.thumb
  15              		.syntax unified
  16              		.file	"dfu_user.c"
  17              		.text
  18              	.Ltext0:
  19              		.cfi_sections	.debug_frame
  20              		.section	.text.IsMultipleOf,"ax",%progbits
  21              		.align	2
  22              		.thumb
  23              		.thumb_func
  24              		.type	IsMultipleOf, %function
  25              	IsMultipleOf:
  26              	.LFB132:
  27              		.file 1 "dfu_user.c"
   1:dfu_user.c    **** /***************************************************************************//**
   2:dfu_user.c    **** * \file dfu_user.c
   3:dfu_user.c    **** * \version 3.0
   4:dfu_user.c    **** * 
   5:dfu_user.c    **** * This file provides the custom API for a firmware application with 
   6:dfu_user.c    **** * DFU SDK.
   7:dfu_user.c    **** * - Cy_DFU_ReadData (address, length, ctl, params) - to read  the NVM block
   8:dfu_user.c    **** * - Cy_Bootalod_WriteData(address, length, ctl, params) - to write the NVM block
   9:dfu_user.c    **** *
  10:dfu_user.c    **** * - Cy_DFU_TransportStart() to start a communication interface
  11:dfu_user.c    **** * - Cy_DFU_TransportStop () to stop  a communication interface
  12:dfu_user.c    **** * - Cy_DFU_TransportReset() to reset a communication interface
  13:dfu_user.c    **** * - Cy_DFU_TransportRead (buffer, size, count, timeout)
  14:dfu_user.c    **** * - Cy_DFU_TransportWrite(buffer, size, count, timeout)
  15:dfu_user.c    **** *
  16:dfu_user.c    **** ********************************************************************************
  17:dfu_user.c    **** * \copyright
  18:dfu_user.c    **** * Copyright 2016-2018, Cypress Semiconductor Corporation.  All rights reserved.
  19:dfu_user.c    **** * You may use this file only in accordance with the license, terms, conditions,
  20:dfu_user.c    **** * disclaimers, and limitations in the end user license agreement accompanying
  21:dfu_user.c    **** * the software package with which this file was provided.
  22:dfu_user.c    **** *******************************************************************************/
  23:dfu_user.c    **** 
  24:dfu_user.c    **** #include <string.h>
  25:dfu_user.c    **** #include "transport_uart.h"
  26:dfu_user.c    **** #include "cy_syslib.h"
  27:dfu_user.c    **** #include "cy_flash.h"
  28:dfu_user.c    **** #include "cy_dfu.h"
  29:dfu_user.c    **** 
  30:dfu_user.c    **** 
ARM GAS  C:\Users\Agentos\AppData\Local\Temp\ccYwDzr6.s 			page 2


  31:dfu_user.c    **** /*
  32:dfu_user.c    **** * The DFU SDK metadata initial value is placed here
  33:dfu_user.c    **** * Note: the number of elements equal to the number of the app multiplies by 2 
  34:dfu_user.c    **** *       because of the two fields per app plus one element for the CRC-32C field.
  35:dfu_user.c    **** */
  36:dfu_user.c    **** CY_SECTION(".cy_boot_metadata") __USED
  37:dfu_user.c    **** static const uint32_t cy_dfu_metadata[CY_FLASH_SIZEOF_ROW / sizeof(uint32_t)] =
  38:dfu_user.c    **** {
  39:dfu_user.c    ****     CY_DFU_APP0_VERIFY_START, CY_DFU_APP0_VERIFY_LENGTH, /* The App0 base address and length */
  40:dfu_user.c    ****     CY_DFU_APP1_VERIFY_START, CY_DFU_APP1_VERIFY_LENGTH, /* The App1 base address and length */
  41:dfu_user.c    ****     0u                                                             /* The rest does not matter     
  42:dfu_user.c    **** };
  43:dfu_user.c    **** 
  44:dfu_user.c    **** 
  45:dfu_user.c    **** static uint32_t IsMultipleOf(uint32_t value, uint32_t multiple);
  46:dfu_user.c    **** static void GetStartEndAddress(uint32_t appId, uint32_t *startAddress, uint32_t *endAddress);
  47:dfu_user.c    **** 
  48:dfu_user.c    **** 
  49:dfu_user.c    **** /*******************************************************************************
  50:dfu_user.c    **** * Function Name: IsMultipleOf
  51:dfu_user.c    **** ****************************************************************************//**
  52:dfu_user.c    **** *
  53:dfu_user.c    **** * This internal function check if value parameter is a multiple of parameter 
  54:dfu_user.c    **** * multiple
  55:dfu_user.c    **** *
  56:dfu_user.c    **** * \param value      value that will be checked
  57:dfu_user.c    **** * \param multiple   value with which value is checked 
  58:dfu_user.c    **** *
  59:dfu_user.c    **** * \return 1 - value is multiple of parameter multiple, else 0  
  60:dfu_user.c    **** *
  61:dfu_user.c    **** *******************************************************************************/
  62:dfu_user.c    **** static uint32_t IsMultipleOf(uint32_t value, uint32_t multiple)
  63:dfu_user.c    **** {
  28              		.loc 1 63 0
  29              		.cfi_startproc
  30              		@ args = 0, pretend = 0, frame = 0
  31              		@ frame_needed = 0, uses_anonymous_args = 0
  32              		@ link register save eliminated.
  33              	.LVL0:
  64:dfu_user.c    ****     return ( ((value % multiple) == 0u)? 1ul : 0ul);
  34              		.loc 1 64 0
  35 0000 B0FBF1F3 		udiv	r3, r0, r1
  36 0004 01FB1301 		mls	r1, r1, r3, r0
  37              	.LVL1:
  38 0008 09B9     		cbnz	r1, .L3
  39 000a 0120     		movs	r0, #1
  40              	.LVL2:
  41 000c 7047     		bx	lr
  42              	.LVL3:
  43              	.L3:
  44 000e 0020     		movs	r0, #0
  45              	.LVL4:
  65:dfu_user.c    **** }
  46              		.loc 1 65 0
  47 0010 7047     		bx	lr
  48              		.cfi_endproc
  49              	.LFE132:
ARM GAS  C:\Users\Agentos\AppData\Local\Temp\ccYwDzr6.s 			page 3


  50              		.size	IsMultipleOf, .-IsMultipleOf
  51 0012 00BF     		.section	.text.GetStartEndAddress,"ax",%progbits
  52              		.align	2
  53              		.thumb
  54              		.thumb_func
  55              		.type	GetStartEndAddress, %function
  56              	GetStartEndAddress:
  57              	.LFB133:
  66:dfu_user.c    **** 
  67:dfu_user.c    **** 
  68:dfu_user.c    **** /*******************************************************************************
  69:dfu_user.c    **** * Function Name: GetStartEndAddress
  70:dfu_user.c    **** ****************************************************************************//**
  71:dfu_user.c    **** *
  72:dfu_user.c    **** * This internal function returns start and end address of application
  73:dfu_user.c    **** *
  74:dfu_user.c    **** * \param appId          The application number
  75:dfu_user.c    **** * \param startAddress   The pointer to a variable where an application start
  76:dfu_user.c    **** *                       address is stored
  77:dfu_user.c    **** * \param endAddress     The pointer to a variable where a size of application 
  78:dfu_user.c    **** *                       area is stored.
  79:dfu_user.c    **** *
  80:dfu_user.c    **** *******************************************************************************/
  81:dfu_user.c    **** static void GetStartEndAddress(uint32_t appId, uint32_t *startAddress, uint32_t *endAddress)
  82:dfu_user.c    **** {
  58              		.loc 1 82 0
  59              		.cfi_startproc
  60              		@ args = 0, pretend = 0, frame = 8
  61              		@ frame_needed = 0, uses_anonymous_args = 0
  62              	.LVL5:
  63 0000 30B5     		push	{r4, r5, lr}
  64              		.cfi_def_cfa_offset 12
  65              		.cfi_offset 4, -12
  66              		.cfi_offset 5, -8
  67              		.cfi_offset 14, -4
  68 0002 83B0     		sub	sp, sp, #12
  69              		.cfi_def_cfa_offset 24
  70 0004 0D46     		mov	r5, r1
  71 0006 1446     		mov	r4, r2
  83:dfu_user.c    ****     uint32_t verifyStart;
  84:dfu_user.c    ****     uint32_t verifySize;
  85:dfu_user.c    **** 
  86:dfu_user.c    ****     (void)Cy_DFU_GetAppMetadata(appId, &verifyStart, &verifySize);
  72              		.loc 1 86 0
  73 0008 6A46     		mov	r2, sp
  74              	.LVL6:
  75 000a 01A9     		add	r1, sp, #4
  76              	.LVL7:
  77 000c FFF7FEFF 		bl	Cy_DFU_GetAppMetadata
  78              	.LVL8:
  87:dfu_user.c    **** 
  88:dfu_user.c    **** #if (CY_DFU_APP_FORMAT == CY_DFU_SIMPLIFIED_APP)
  89:dfu_user.c    ****     *startAddress = verifyStart - CY_DFU_SIGNATURE_SIZE; 
  90:dfu_user.c    ****     *endAddress = verifyStart + verifySize;
  91:dfu_user.c    **** #else
  92:dfu_user.c    ****     *startAddress = verifyStart; 
  79              		.loc 1 92 0
ARM GAS  C:\Users\Agentos\AppData\Local\Temp\ccYwDzr6.s 			page 4


  80 0010 019A     		ldr	r2, [sp, #4]
  81 0012 2A60     		str	r2, [r5]
  93:dfu_user.c    ****     *endAddress = verifyStart + verifySize + CY_DFU_SIGNATURE_SIZE;
  82              		.loc 1 93 0
  83 0014 009B     		ldr	r3, [sp]
  84 0016 1A44     		add	r2, r2, r3
  85 0018 024B     		ldr	r3, .L6
  86 001a 1344     		add	r3, r3, r2
  87 001c 2360     		str	r3, [r4]
  94:dfu_user.c    **** #endif
  95:dfu_user.c    **** }
  88              		.loc 1 95 0
  89 001e 03B0     		add	sp, sp, #12
  90              		.cfi_def_cfa_offset 12
  91              		@ sp needed
  92 0020 30BD     		pop	{r4, r5, pc}
  93              	.LVL9:
  94              	.L7:
  95 0022 00BF     		.align	2
  96              	.L6:
  97 0024 00000000 		.word	__cy_boot_signature_size
  98              		.cfi_endproc
  99              	.LFE133:
 100              		.size	GetStartEndAddress, .-GetStartEndAddress
 101              		.section	.text.Cy_DFU_WriteData,"ax",%progbits
 102              		.align	2
 103              		.global	Cy_DFU_WriteData
 104              		.thumb
 105              		.thumb_func
 106              		.type	Cy_DFU_WriteData, %function
 107              	Cy_DFU_WriteData:
 108              	.LFB134:
  96:dfu_user.c    **** 
  97:dfu_user.c    **** 
  98:dfu_user.c    **** /*******************************************************************************
  99:dfu_user.c    **** * Function Name: Cy_DFU_WriteData
 100:dfu_user.c    **** ****************************************************************************//**
 101:dfu_user.c    **** *
 102:dfu_user.c    **** * This function documentation is part of the DFU SDK API, see the
 103:dfu_user.c    **** * cy_dfu.h file or DFU SDK API Reference Manual for details.
 104:dfu_user.c    **** *
 105:dfu_user.c    **** *******************************************************************************/
 106:dfu_user.c    **** cy_en_dfu_status_t Cy_DFU_WriteData (uint32_t address, uint32_t length, uint32_t ctl, 
 107:dfu_user.c    ****                                                cy_stc_dfu_params_t *params)
 108:dfu_user.c    **** {
 109              		.loc 1 108 0
 110              		.cfi_startproc
 111              		@ args = 0, pretend = 0, frame = 8
 112              		@ frame_needed = 0, uses_anonymous_args = 0
 113              	.LVL10:
 114 0000 F0B5     		push	{r4, r5, r6, r7, lr}
 115              		.cfi_def_cfa_offset 20
 116              		.cfi_offset 4, -20
 117              		.cfi_offset 5, -16
 118              		.cfi_offset 6, -12
 119              		.cfi_offset 7, -8
 120              		.cfi_offset 14, -4
ARM GAS  C:\Users\Agentos\AppData\Local\Temp\ccYwDzr6.s 			page 5


 121 0002 83B0     		sub	sp, sp, #12
 122              		.cfi_def_cfa_offset 32
 123 0004 0446     		mov	r4, r0
 124 0006 0D46     		mov	r5, r1
 125 0008 1646     		mov	r6, r2
 126 000a 1F46     		mov	r7, r3
 127              	.LVL11:
 109:dfu_user.c    ****     /* User Flash Limits */
 110:dfu_user.c    ****     /* Note that App0 is out of range */
 111:dfu_user.c    ****     const uint32_t minUFlashAddress = CY_FLASH_BASE + CY_DFU_APP0_VERIFY_LENGTH;
 112:dfu_user.c    ****     const uint32_t maxUFlashAddress = CY_FLASH_BASE + CY_FLASH_SIZE;
 113:dfu_user.c    ****     /* EM_EEPROM Limits*/
 114:dfu_user.c    ****     const uint32_t minEmEepromAddress = CY_EM_EEPROM_BASE;
 115:dfu_user.c    ****     const uint32_t maxEmEepromAddress = CY_EM_EEPROM_BASE + CY_EM_EEPROM_SIZE;
 116:dfu_user.c    ****     
 117:dfu_user.c    ****     cy_en_dfu_status_t status = CY_DFU_SUCCESS;
 118:dfu_user.c    **** 
 119:dfu_user.c    ****     uint32_t app = Cy_DFU_GetRunningApp();
 128              		.loc 1 119 0
 129 000c FFF7FEFF 		bl	Cy_DFU_GetRunningApp
 130              	.LVL12:
 120:dfu_user.c    ****     uint32_t startAddress;
 121:dfu_user.c    ****     uint32_t endAddress;
 122:dfu_user.c    ****     
 123:dfu_user.c    ****     GetStartEndAddress(app, &startAddress, &endAddress);
 131              		.loc 1 123 0
 132 0010 6A46     		mov	r2, sp
 133 0012 01A9     		add	r1, sp, #4
 134 0014 FFF7FEFF 		bl	GetStartEndAddress
 135              	.LVL13:
 124:dfu_user.c    **** 
 125:dfu_user.c    ****     /* Check if the address  and length are valid 
 126:dfu_user.c    ****      * Note Length = 0 is valid for erase command */
 127:dfu_user.c    ****     if ( (IsMultipleOf(address, CY_FLASH_SIZEOF_ROW) == 0u) || 
 136              		.loc 1 127 0
 137 0018 4FF40071 		mov	r1, #512
 138 001c 2046     		mov	r0, r4
 139 001e FFF7FEFF 		bl	IsMultipleOf
 140              	.LVL14:
 141 0022 38B1     		cbz	r0, .L15
 142              		.loc 1 127 0 is_stmt 0 discriminator 1
 143 0024 B5F5007F 		cmp	r5, #512
 144 0028 06D0     		beq	.L16
 128:dfu_user.c    ****          ( (length != CY_FLASH_SIZEOF_ROW) && ( (ctl & CY_DFU_IOCTL_ERASE) == 0u) ) )
 145              		.loc 1 128 0 is_stmt 1
 146 002a 16F0010F 		tst	r6, #1
 147 002e 05D0     		beq	.L17
 117:dfu_user.c    **** 
 148              		.loc 1 117 0
 149 0030 0025     		movs	r5, #0
 150              	.LVL15:
 151 0032 04E0     		b	.L9
 152              	.LVL16:
 153              	.L15:
 129:dfu_user.c    ****     {
 130:dfu_user.c    ****         status = CY_DFU_ERROR_LENGTH;   
 154              		.loc 1 130 0
ARM GAS  C:\Users\Agentos\AppData\Local\Temp\ccYwDzr6.s 			page 6


 155 0034 154D     		ldr	r5, .L22
 156              	.LVL17:
 157 0036 02E0     		b	.L9
 158              	.LVL18:
 159              	.L16:
 117:dfu_user.c    **** 
 160              		.loc 1 117 0
 161 0038 0025     		movs	r5, #0
 162              	.LVL19:
 163 003a 00E0     		b	.L9
 164              	.LVL20:
 165              	.L17:
 166              		.loc 1 130 0
 167 003c 134D     		ldr	r5, .L22
 168              	.LVL21:
 169              	.L9:
 131:dfu_user.c    ****     }
 132:dfu_user.c    **** 
 133:dfu_user.c    ****     /* Refuse to write to a row within a range of the current application */ 
 134:dfu_user.c    ****     if ( (startAddress <= address) && (address < endAddress) )
 170              		.loc 1 134 0
 171 003e 019B     		ldr	r3, [sp, #4]
 172 0040 9C42     		cmp	r4, r3
 173 0042 03D3     		bcc	.L10
 174              		.loc 1 134 0 is_stmt 0 discriminator 1
 175 0044 009B     		ldr	r3, [sp]
 176 0046 9C42     		cmp	r4, r3
 177 0048 00D2     		bcs	.L10
 135:dfu_user.c    ****     {   /* It is forbidden to overwrite the currently running application */
 136:dfu_user.c    ****         status = CY_DFU_ERROR_ADDRESS;
 178              		.loc 1 136 0 is_stmt 1
 179 004a 114D     		ldr	r5, .L22+4
 180              	.LVL22:
 181              	.L10:
 137:dfu_user.c    ****     }
 138:dfu_user.c    **** #if CY_DFU_OPT_GOLDEN_IMAGE
 139:dfu_user.c    ****     if (status == CY_DFU_SUCCESS)
 140:dfu_user.c    ****     {
 141:dfu_user.c    ****         uint8_t goldenImages[] = { CY_DFU_GOLDEN_IMAGE_IDS() };
 142:dfu_user.c    ****         uint32_t count = sizeof(goldenImages) / sizeof(goldenImages[0]);
 143:dfu_user.c    ****         uint32_t idx;
 144:dfu_user.c    ****         for (idx = 0u; idx < count; ++idx)
 145:dfu_user.c    ****         {
 146:dfu_user.c    ****             app = goldenImages[idx];
 147:dfu_user.c    ****             GetStartEndAddress(app, &startAddress, &endAddress);
 148:dfu_user.c    **** 
 149:dfu_user.c    ****             if ( (startAddress <= address) && (address < endAddress) )
 150:dfu_user.c    ****             {
 151:dfu_user.c    ****                 status = Cy_DFU_ValidateApp(app, params);
 152:dfu_user.c    ****                 status = (status == CY_DFU_SUCCESS) ? CY_DFU_ERROR_ADDRESS : CY_DFU_SUCCESS;
 153:dfu_user.c    ****                 break;
 154:dfu_user.c    ****             }
 155:dfu_user.c    ****         }
 156:dfu_user.c    ****     } 
 157:dfu_user.c    **** #endif /* #if CY_DFU_OPT_GOLDEN_IMAGE != 0 */
 158:dfu_user.c    ****     
 159:dfu_user.c    ****     /* Check if the address is inside the valid range */
ARM GAS  C:\Users\Agentos\AppData\Local\Temp\ccYwDzr6.s 			page 7


 160:dfu_user.c    ****     if ( ( (minUFlashAddress <= address) && (address < maxUFlashAddress) ) 
 182              		.loc 1 160 0
 183 004c 114B     		ldr	r3, .L22+8
 184              	.LVL23:
 185 004e 9C42     		cmp	r4, r3
 186 0050 02D3     		bcc	.L11
 187              		.loc 1 160 0 is_stmt 0 discriminator 1
 188 0052 114B     		ldr	r3, .L22+12
 189              	.LVL24:
 190 0054 9C42     		cmp	r4, r3
 191 0056 05D9     		bls	.L12
 192              	.L11:
 161:dfu_user.c    ****       || ( (minEmEepromAddress <= address) && (address < maxEmEepromAddress) )  )
 193              		.loc 1 161 0 is_stmt 1
 194 0058 04F16C43 		add	r3, r4, #-335544320
 195 005c B3F5004F 		cmp	r3, #32768
 196 0060 00D3     		bcc	.L12
 162:dfu_user.c    ****     {   /* Do nothing, this is an allowed memory range to update to */
 163:dfu_user.c    ****     }
 164:dfu_user.c    ****     else
 165:dfu_user.c    ****     {
 166:dfu_user.c    ****         status = CY_DFU_ERROR_ADDRESS;   
 197              		.loc 1 166 0
 198 0062 0B4D     		ldr	r5, .L22+4
 199              	.LVL25:
 200              	.L12:
 167:dfu_user.c    ****     }
 168:dfu_user.c    ****     
 169:dfu_user.c    ****     if (status == CY_DFU_SUCCESS)
 201              		.loc 1 169 0
 202 0064 75B9     		cbnz	r5, .L13
 203              	.LBB2:
 170:dfu_user.c    ****     {
 171:dfu_user.c    ****         if ((ctl & CY_DFU_IOCTL_ERASE) != 0u)
 204              		.loc 1 171 0
 205 0066 16F0010F 		tst	r6, #1
 206 006a 05D0     		beq	.L14
 172:dfu_user.c    ****         {
 173:dfu_user.c    ****             (void) memset(params->dataBuffer, 0, CY_FLASH_SIZEOF_ROW);
 207              		.loc 1 173 0
 208 006c 4FF40072 		mov	r2, #512
 209 0070 0021     		movs	r1, #0
 210 0072 3868     		ldr	r0, [r7]
 211 0074 FFF7FEFF 		bl	memset
 212              	.LVL26:
 213              	.L14:
 174:dfu_user.c    ****         }
 175:dfu_user.c    ****         cy_en_flashdrv_status_t fstatus =  Cy_Flash_WriteRow(address, (uint32_t*)params->dataBuffer
 214              		.loc 1 175 0
 215 0078 3968     		ldr	r1, [r7]
 216 007a 2046     		mov	r0, r4
 217 007c FFF7FEFF 		bl	Cy_Flash_WriteRow
 218              	.LVL27:
 176:dfu_user.c    ****         status = (fstatus == CY_FLASH_DRV_SUCCESS) ? CY_DFU_SUCCESS : CY_DFU_ERROR_DATA;
 219              		.loc 1 176 0
 220 0080 00B1     		cbz	r0, .L13
 221 0082 064D     		ldr	r5, .L22+16
ARM GAS  C:\Users\Agentos\AppData\Local\Temp\ccYwDzr6.s 			page 8


 222              	.LVL28:
 223              	.L13:
 224              	.LBE2:
 177:dfu_user.c    ****     }
 178:dfu_user.c    ****     return (status);
 179:dfu_user.c    **** }
 225              		.loc 1 179 0
 226 0084 2846     		mov	r0, r5
 227 0086 03B0     		add	sp, sp, #12
 228              		.cfi_def_cfa_offset 20
 229              		@ sp needed
 230 0088 F0BD     		pop	{r4, r5, r6, r7, pc}
 231              	.LVL29:
 232              	.L23:
 233 008a 00BF     		.align	2
 234              	.L22:
 235 008c 03001A00 		.word	1703939
 236 0090 0A001A00 		.word	1703946
 237 0094 00000010 		.word	__cy_app0_verify_length+268435456
 238 0098 FFFF0F10 		.word	269484031
 239 009c 04001A00 		.word	1703940
 240              		.cfi_endproc
 241              	.LFE134:
 242              		.size	Cy_DFU_WriteData, .-Cy_DFU_WriteData
 243              		.section	.text.Cy_DFU_ReadData,"ax",%progbits
 244              		.align	2
 245              		.global	Cy_DFU_ReadData
 246              		.thumb
 247              		.thumb_func
 248              		.type	Cy_DFU_ReadData, %function
 249              	Cy_DFU_ReadData:
 250              	.LFB135:
 180:dfu_user.c    **** 
 181:dfu_user.c    **** 
 182:dfu_user.c    **** /*******************************************************************************
 183:dfu_user.c    **** * Function Name: Cy_DFU_ReadData
 184:dfu_user.c    **** ****************************************************************************//**
 185:dfu_user.c    **** *
 186:dfu_user.c    **** * This function documentation is part of the DFU SDK API, see the
 187:dfu_user.c    **** * cy_dfu.h file or DFU SDK API Reference Manual for details.
 188:dfu_user.c    **** *
 189:dfu_user.c    **** *******************************************************************************/
 190:dfu_user.c    **** cy_en_dfu_status_t Cy_DFU_ReadData (uint32_t address, uint32_t length, uint32_t ctl, 
 191:dfu_user.c    ****                                               cy_stc_dfu_params_t *params)
 192:dfu_user.c    **** {
 251              		.loc 1 192 0
 252              		.cfi_startproc
 253              		@ args = 0, pretend = 0, frame = 0
 254              		@ frame_needed = 0, uses_anonymous_args = 0
 255              	.LVL30:
 256 0000 2DE9F041 		push	{r4, r5, r6, r7, r8, lr}
 257              		.cfi_def_cfa_offset 24
 258              		.cfi_offset 4, -24
 259              		.cfi_offset 5, -20
 260              		.cfi_offset 6, -16
 261              		.cfi_offset 7, -12
 262              		.cfi_offset 8, -8
ARM GAS  C:\Users\Agentos\AppData\Local\Temp\ccYwDzr6.s 			page 9


 263              		.cfi_offset 14, -4
 264 0004 0446     		mov	r4, r0
 265 0006 0E46     		mov	r6, r1
 266 0008 1746     		mov	r7, r2
 267 000a 9846     		mov	r8, r3
 268              	.LVL31:
 193:dfu_user.c    ****     /* User Flash Limits */
 194:dfu_user.c    ****     /* Note that App0 is out of range */
 195:dfu_user.c    ****     const uint32_t minUFlashAddress = CY_FLASH_BASE + CY_DFU_APP0_VERIFY_LENGTH;
 196:dfu_user.c    ****     const uint32_t maxUFlashAddress = CY_FLASH_BASE + CY_FLASH_SIZE;
 197:dfu_user.c    ****     /* EM_EEPROM Limits*/
 198:dfu_user.c    ****     const uint32_t minEmEepromAddress = CY_EM_EEPROM_BASE;
 199:dfu_user.c    ****     const uint32_t maxEmEepromAddress = CY_EM_EEPROM_BASE + CY_EM_EEPROM_SIZE;
 200:dfu_user.c    ****     
 201:dfu_user.c    ****     cy_en_dfu_status_t status = CY_DFU_SUCCESS;
 202:dfu_user.c    **** 
 203:dfu_user.c    ****     /* Check if the length is valid */
 204:dfu_user.c    ****     if (IsMultipleOf(length, CY_FLASH_SIZEOF_ROW) == 0u) 
 269              		.loc 1 204 0
 270 000c 4FF40071 		mov	r1, #512
 271              	.LVL32:
 272 0010 3046     		mov	r0, r6
 273              	.LVL33:
 274 0012 FFF7FEFF 		bl	IsMultipleOf
 275              	.LVL34:
 276 0016 08B1     		cbz	r0, .L30
 201:dfu_user.c    **** 
 277              		.loc 1 201 0
 278 0018 0025     		movs	r5, #0
 279 001a 00E0     		b	.L25
 280              	.L30:
 205:dfu_user.c    ****     {
 206:dfu_user.c    ****         status = CY_DFU_ERROR_LENGTH;   
 281              		.loc 1 206 0
 282 001c 114D     		ldr	r5, .L34
 283              	.L25:
 284              	.LVL35:
 207:dfu_user.c    ****     }
 208:dfu_user.c    **** 
 209:dfu_user.c    ****     /* Check if the address is inside the valid range */
 210:dfu_user.c    ****     if ( ( (minUFlashAddress <= address) && (address < maxUFlashAddress) ) 
 285              		.loc 1 210 0
 286 001e 124B     		ldr	r3, .L34+4
 287              	.LVL36:
 288 0020 A342     		cmp	r3, r4
 289 0022 02D8     		bhi	.L26
 290              		.loc 1 210 0 is_stmt 0 discriminator 1
 291 0024 114B     		ldr	r3, .L34+8
 292              	.LVL37:
 293 0026 9C42     		cmp	r4, r3
 294 0028 05D9     		bls	.L27
 295              	.L26:
 211:dfu_user.c    ****       || ( (minEmEepromAddress <= address) && (address < maxEmEepromAddress) )  )
 296              		.loc 1 211 0 is_stmt 1
 297 002a 04F16C43 		add	r3, r4, #-335544320
 298 002e B3F5004F 		cmp	r3, #32768
 299 0032 00D3     		bcc	.L27
ARM GAS  C:\Users\Agentos\AppData\Local\Temp\ccYwDzr6.s 			page 10


 212:dfu_user.c    ****     {   /* Do nothing, this is an allowed memory range to update to */
 213:dfu_user.c    ****     }
 214:dfu_user.c    ****     else
 215:dfu_user.c    ****     {
 216:dfu_user.c    ****         status = CY_DFU_ERROR_ADDRESS;   
 300              		.loc 1 216 0
 301 0034 0E4D     		ldr	r5, .L34+12
 302              	.LVL38:
 303              	.L27:
 217:dfu_user.c    ****     }
 218:dfu_user.c    **** 
 219:dfu_user.c    ****     /* Read or Compare */
 220:dfu_user.c    ****     if (status == CY_DFU_SUCCESS)
 304              		.loc 1 220 0
 305 0036 8DB9     		cbnz	r5, .L28
 221:dfu_user.c    ****     {
 222:dfu_user.c    ****         if ((ctl & CY_DFU_IOCTL_COMPARE) == 0u)
 306              		.loc 1 222 0
 307 0038 17F0010F 		tst	r7, #1
 308 003c 06D1     		bne	.L29
 223:dfu_user.c    ****         {
 224:dfu_user.c    ****             (void) memcpy(params->dataBuffer, (const void *)address, length);
 309              		.loc 1 224 0
 310 003e 3246     		mov	r2, r6
 311 0040 2146     		mov	r1, r4
 312 0042 D8F80000 		ldr	r0, [r8]
 313 0046 FFF7FEFF 		bl	memcpy
 314              	.LVL39:
 315 004a 07E0     		b	.L28
 316              	.LVL40:
 317              	.L29:
 225:dfu_user.c    ****             status = CY_DFU_SUCCESS;
 226:dfu_user.c    ****         }
 227:dfu_user.c    ****         else
 228:dfu_user.c    ****         {
 229:dfu_user.c    ****             status = ( memcmp(params->dataBuffer, (const void *)address, length) == 0 )
 318              		.loc 1 229 0
 319 004c 3246     		mov	r2, r6
 320 004e 2146     		mov	r1, r4
 321 0050 D8F80000 		ldr	r0, [r8]
 322 0054 FFF7FEFF 		bl	memcmp
 323              	.LVL41:
 324 0058 00B1     		cbz	r0, .L28
 325 005a 064D     		ldr	r5, .L34+16
 326              	.LVL42:
 327              	.L28:
 230:dfu_user.c    ****                      ? CY_DFU_SUCCESS : CY_DFU_ERROR_VERIFY;
 231:dfu_user.c    ****         }
 232:dfu_user.c    ****     }
 233:dfu_user.c    ****     return (status);
 234:dfu_user.c    **** }
 328              		.loc 1 234 0
 329 005c 2846     		mov	r0, r5
 330 005e BDE8F081 		pop	{r4, r5, r6, r7, r8, pc}
 331              	.LVL43:
 332              	.L35:
 333 0062 00BF     		.align	2
ARM GAS  C:\Users\Agentos\AppData\Local\Temp\ccYwDzr6.s 			page 11


 334              	.L34:
 335 0064 03001A00 		.word	1703939
 336 0068 00000010 		.word	__cy_app0_verify_length+268435456
 337 006c FFFF0F10 		.word	269484031
 338 0070 0A001A00 		.word	1703946
 339 0074 02001A00 		.word	1703938
 340              		.cfi_endproc
 341              	.LFE135:
 342              		.size	Cy_DFU_ReadData, .-Cy_DFU_ReadData
 343              		.section	.text.Cy_DFU_TransportRead,"ax",%progbits
 344              		.align	2
 345              		.global	Cy_DFU_TransportRead
 346              		.thumb
 347              		.thumb_func
 348              		.type	Cy_DFU_TransportRead, %function
 349              	Cy_DFU_TransportRead:
 350              	.LFB136:
 235:dfu_user.c    **** 
 236:dfu_user.c    **** 
 237:dfu_user.c    **** /*******************************************************************************
 238:dfu_user.c    **** * Function Name: Cy_DFU_TransportRead
 239:dfu_user.c    **** ****************************************************************************//**
 240:dfu_user.c    **** *
 241:dfu_user.c    **** * This function documentation is part of the DFU SDK API, see the
 242:dfu_user.c    **** * cy_dfu.h file or DFU SDK API Reference Manual for details.
 243:dfu_user.c    **** *
 244:dfu_user.c    **** *******************************************************************************/
 245:dfu_user.c    **** cy_en_dfu_status_t Cy_DFU_TransportRead (uint8_t *buffer, uint32_t size, uint32_t *count, uint32_t 
 246:dfu_user.c    **** {
 351              		.loc 1 246 0
 352              		.cfi_startproc
 353              		@ args = 0, pretend = 0, frame = 0
 354              		@ frame_needed = 0, uses_anonymous_args = 0
 355              	.LVL44:
 356 0000 08B5     		push	{r3, lr}
 357              		.cfi_def_cfa_offset 8
 358              		.cfi_offset 3, -8
 359              		.cfi_offset 14, -4
 247:dfu_user.c    ****     return (UART_UartCyBtldrCommRead(buffer, size, count, timeout));
 360              		.loc 1 247 0
 361 0002 FFF7FEFF 		bl	UART_UartCyBtldrCommRead
 362              	.LVL45:
 248:dfu_user.c    **** }
 363              		.loc 1 248 0
 364 0006 08BD     		pop	{r3, pc}
 365              		.cfi_endproc
 366              	.LFE136:
 367              		.size	Cy_DFU_TransportRead, .-Cy_DFU_TransportRead
 368              		.section	.text.Cy_DFU_TransportWrite,"ax",%progbits
 369              		.align	2
 370              		.global	Cy_DFU_TransportWrite
 371              		.thumb
 372              		.thumb_func
 373              		.type	Cy_DFU_TransportWrite, %function
 374              	Cy_DFU_TransportWrite:
 375              	.LFB137:
 249:dfu_user.c    **** 
ARM GAS  C:\Users\Agentos\AppData\Local\Temp\ccYwDzr6.s 			page 12


 250:dfu_user.c    **** /*******************************************************************************
 251:dfu_user.c    **** * Function Name: Cy_DFU_TransportWrite
 252:dfu_user.c    **** ****************************************************************************//**
 253:dfu_user.c    **** *
 254:dfu_user.c    **** * This function documentation is part of the DFU SDK API, see the
 255:dfu_user.c    **** * cy_dfu.h file or DFU SDK API Reference Manual for details.
 256:dfu_user.c    **** *
 257:dfu_user.c    **** *******************************************************************************/
 258:dfu_user.c    **** cy_en_dfu_status_t Cy_DFU_TransportWrite(uint8_t *buffer, uint32_t size, uint32_t *count, uint32_t 
 259:dfu_user.c    **** {
 376              		.loc 1 259 0
 377              		.cfi_startproc
 378              		@ args = 0, pretend = 0, frame = 0
 379              		@ frame_needed = 0, uses_anonymous_args = 0
 380              	.LVL46:
 381 0000 08B5     		push	{r3, lr}
 382              		.cfi_def_cfa_offset 8
 383              		.cfi_offset 3, -8
 384              		.cfi_offset 14, -4
 260:dfu_user.c    ****     return (UART_UartCyBtldrCommWrite(buffer, size, count, timeout));
 385              		.loc 1 260 0
 386 0002 FFF7FEFF 		bl	UART_UartCyBtldrCommWrite
 387              	.LVL47:
 261:dfu_user.c    **** }
 388              		.loc 1 261 0
 389 0006 08BD     		pop	{r3, pc}
 390              		.cfi_endproc
 391              	.LFE137:
 392              		.size	Cy_DFU_TransportWrite, .-Cy_DFU_TransportWrite
 393              		.section	.text.Cy_DFU_TransportReset,"ax",%progbits
 394              		.align	2
 395              		.global	Cy_DFU_TransportReset
 396              		.thumb
 397              		.thumb_func
 398              		.type	Cy_DFU_TransportReset, %function
 399              	Cy_DFU_TransportReset:
 400              	.LFB138:
 262:dfu_user.c    **** 
 263:dfu_user.c    **** /*******************************************************************************
 264:dfu_user.c    **** * Function Name: Cy_DFU_TransportReset
 265:dfu_user.c    **** ****************************************************************************//**
 266:dfu_user.c    **** *
 267:dfu_user.c    **** * This function documentation is part of the DFU SDK API, see the
 268:dfu_user.c    **** * cy_dfu.h file or DFU SDK API Reference Manual for details.
 269:dfu_user.c    **** *
 270:dfu_user.c    **** *******************************************************************************/
 271:dfu_user.c    **** void Cy_DFU_TransportReset(void)
 272:dfu_user.c    **** {
 401              		.loc 1 272 0
 402              		.cfi_startproc
 403              		@ args = 0, pretend = 0, frame = 0
 404              		@ frame_needed = 0, uses_anonymous_args = 0
 405 0000 08B5     		push	{r3, lr}
 406              		.cfi_def_cfa_offset 8
 407              		.cfi_offset 3, -8
 408              		.cfi_offset 14, -4
 273:dfu_user.c    ****     UART_UartCyBtldrCommReset();
ARM GAS  C:\Users\Agentos\AppData\Local\Temp\ccYwDzr6.s 			page 13


 409              		.loc 1 273 0
 410 0002 FFF7FEFF 		bl	UART_UartCyBtldrCommReset
 411              	.LVL48:
 412 0006 08BD     		pop	{r3, pc}
 413              		.cfi_endproc
 414              	.LFE138:
 415              		.size	Cy_DFU_TransportReset, .-Cy_DFU_TransportReset
 416              		.section	.text.Cy_DFU_TransportStart,"ax",%progbits
 417              		.align	2
 418              		.global	Cy_DFU_TransportStart
 419              		.thumb
 420              		.thumb_func
 421              		.type	Cy_DFU_TransportStart, %function
 422              	Cy_DFU_TransportStart:
 423              	.LFB139:
 274:dfu_user.c    **** }
 275:dfu_user.c    **** 
 276:dfu_user.c    **** /*******************************************************************************
 277:dfu_user.c    **** * Function Name: Cy_DFU_TransportStart
 278:dfu_user.c    **** ****************************************************************************//**
 279:dfu_user.c    **** *
 280:dfu_user.c    **** * This function documentation is part of the DFU SDK API, see the
 281:dfu_user.c    **** * cy_dfu.h file or DFU SDK API Reference Manual for details.
 282:dfu_user.c    **** *
 283:dfu_user.c    **** *******************************************************************************/
 284:dfu_user.c    **** void Cy_DFU_TransportStart(void)
 285:dfu_user.c    **** {
 424              		.loc 1 285 0
 425              		.cfi_startproc
 426              		@ args = 0, pretend = 0, frame = 0
 427              		@ frame_needed = 0, uses_anonymous_args = 0
 428 0000 08B5     		push	{r3, lr}
 429              		.cfi_def_cfa_offset 8
 430              		.cfi_offset 3, -8
 431              		.cfi_offset 14, -4
 286:dfu_user.c    ****     UART_UartCyBtldrCommStart();
 432              		.loc 1 286 0
 433 0002 FFF7FEFF 		bl	UART_UartCyBtldrCommStart
 434              	.LVL49:
 435 0006 08BD     		pop	{r3, pc}
 436              		.cfi_endproc
 437              	.LFE139:
 438              		.size	Cy_DFU_TransportStart, .-Cy_DFU_TransportStart
 439              		.section	.text.Cy_DFU_TransportStop,"ax",%progbits
 440              		.align	2
 441              		.global	Cy_DFU_TransportStop
 442              		.thumb
 443              		.thumb_func
 444              		.type	Cy_DFU_TransportStop, %function
 445              	Cy_DFU_TransportStop:
 446              	.LFB140:
 287:dfu_user.c    **** }
 288:dfu_user.c    **** 
 289:dfu_user.c    **** /*******************************************************************************
 290:dfu_user.c    **** * Function Name: Cy_DFU_TransportStop
 291:dfu_user.c    **** ****************************************************************************//**
 292:dfu_user.c    **** *
ARM GAS  C:\Users\Agentos\AppData\Local\Temp\ccYwDzr6.s 			page 14


 293:dfu_user.c    **** * This function documentation is part of the DFU SDK API, see the
 294:dfu_user.c    **** * cy_dfu.h file or DFU SDK API Reference Manual for details.
 295:dfu_user.c    **** *
 296:dfu_user.c    **** *******************************************************************************/
 297:dfu_user.c    **** void Cy_DFU_TransportStop(void)
 298:dfu_user.c    **** {
 447              		.loc 1 298 0
 448              		.cfi_startproc
 449              		@ args = 0, pretend = 0, frame = 0
 450              		@ frame_needed = 0, uses_anonymous_args = 0
 451 0000 08B5     		push	{r3, lr}
 452              		.cfi_def_cfa_offset 8
 453              		.cfi_offset 3, -8
 454              		.cfi_offset 14, -4
 299:dfu_user.c    ****     UART_UartCyBtldrCommStop();
 455              		.loc 1 299 0
 456 0002 FFF7FEFF 		bl	UART_UartCyBtldrCommStop
 457              	.LVL50:
 458 0006 08BD     		pop	{r3, pc}
 459              		.cfi_endproc
 460              	.LFE140:
 461              		.size	Cy_DFU_TransportStop, .-Cy_DFU_TransportStop
 462              		.section	.cy_boot_metadata,"a",%progbits
 463              		.align	2
 464              		.type	cy_dfu_metadata, %object
 465              		.size	cy_dfu_metadata, 512
 466              	cy_dfu_metadata:
 467 0000 00000000 		.word	__cy_app0_verify_start
 468 0004 00000000 		.word	__cy_app0_verify_length
 469 0008 00000000 		.word	__cy_app1_verify_start
 470 000c 00000000 		.word	__cy_app1_verify_length
 471 0010 00000000 		.word	0
 472 0014 00000000 		.space	492
 472      00000000 
 472      00000000 
 472      00000000 
 472      00000000 
 473              		.text
 474              	.Letext0:
 475              		.file 2 "c:\\program files (x86)\\cypress\\psoc creator\\4.2\\psoc creator\\import\\gnu\\arm\\5.4.
 476              		.file 3 "c:\\program files (x86)\\cypress\\psoc creator\\4.2\\psoc creator\\import\\gnu\\arm\\5.4.
 477              		.file 4 "Generated_Source\\PSoC6\\pdl\\drivers/peripheral/flash/cy_flash.h"
 478              		.file 5 "Generated_Source\\PSoC6\\pdl\\dfu/cy_dfu.h"
 479              		.file 6 "Generated_Source\\PSoC6\\pdl\\cmsis/include/core_cm4.h"
 480              		.file 7 "./dfu_user.h"
 481              		.file 8 "c:\\program files (x86)\\cypress\\psoc creator\\4.2\\psoc creator\\import\\gnu\\arm\\5.4.
 482              		.file 9 "transport_uart.h"