ARM GAS  C:\Users\Agentos\AppData\Local\Temp\cc4ZrSyY.s 			page 1


   1              		.syntax unified
   2              		.cpu cortex-m4
   3              		.eabi_attribute 27, 1
   4              		.fpu fpv4-sp-d16
   5              		.eabi_attribute 20, 1
   6              		.eabi_attribute 21, 1
   7              		.eabi_attribute 23, 3
   8              		.eabi_attribute 24, 1
   9              		.eabi_attribute 25, 1
  10              		.eabi_attribute 26, 1
  11              		.eabi_attribute 30, 1
  12              		.eabi_attribute 34, 1
  13              		.eabi_attribute 18, 4
  14              		.thumb
  15              		.syntax unified
  16              		.file	"LCDConf.c"
  17              		.text
  18              	.Ltext0:
  19              		.cfi_sections	.debug_frame
  20              		.section	.text.LCD_X_Config,"ax",%progbits
  21              		.align	2
  22              		.global	LCD_X_Config
  23              		.thumb
  24              		.thumb_func
  25              		.type	LCD_X_Config, %function
  26              	LCD_X_Config:
  27              	.LFB1:
  28              		.file 1 "LCDConf.c"
   1:LCDConf.c     **** /*********************************************************************
   2:LCDConf.c     **** *                SEGGER Microcontroller GmbH & Co. KG                *
   3:LCDConf.c     **** *        Solutions for real time microcontroller applications        *
   4:LCDConf.c     **** **********************************************************************
   5:LCDConf.c     **** *                                                                    *
   6:LCDConf.c     **** *        (c) 1996 - 2017  SEGGER Microcontroller GmbH & Co. KG       *
   7:LCDConf.c     **** *                                                                    *
   8:LCDConf.c     **** *        Internet: www.segger.com    Support:  support@segger.com    *
   9:LCDConf.c     **** *                                                                    *
  10:LCDConf.c     **** **********************************************************************
  11:LCDConf.c     **** 
  12:LCDConf.c     **** ** emWin V5.46 - Graphical user interface for embedded applications **
  13:LCDConf.c     **** All  Intellectual Property rights  in the Software belongs to  SEGGER.
  14:LCDConf.c     **** emWin is protected by  international copyright laws.  Knowledge of the
  15:LCDConf.c     **** source code may not be used to write a similar product.  This file may
  16:LCDConf.c     **** only be used in accordance with the following terms:
  17:LCDConf.c     **** 
  18:LCDConf.c     **** The software  has been licensed to  Cypress Semiconductor Corporation,
  19:LCDConf.c     **** whose registered  office is situated  at 198 Champion Ct. San Jose, CA 
  20:LCDConf.c     **** 95134 USA  solely for the  purposes of creating  libraries for Cypress
  21:LCDConf.c     **** PSoC3 and  PSoC5 processor-based devices,  sublicensed and distributed
  22:LCDConf.c     **** under  the  terms  and  conditions  of  the  Cypress  End User License
  23:LCDConf.c     **** Agreement.
  24:LCDConf.c     **** Full source code is available at: www.segger.com
  25:LCDConf.c     **** 
  26:LCDConf.c     **** We appreciate your understanding and fairness.
  27:LCDConf.c     **** ----------------------------------------------------------------------
  28:LCDConf.c     **** Licensing information
  29:LCDConf.c     **** Licensor:                 SEGGER Microcontroller Systems LLC
ARM GAS  C:\Users\Agentos\AppData\Local\Temp\cc4ZrSyY.s 			page 2


  30:LCDConf.c     **** Licensed to:              Cypress Semiconductor Corp, 198 Champion Ct., San Jose, CA 95134, USA
  31:LCDConf.c     **** Licensed SEGGER software: emWin
  32:LCDConf.c     **** License number:           GUI-00319
  33:LCDConf.c     **** License model:            Services and License Agreement, signed June 10th, 2009
  34:LCDConf.c     **** Licensed platform:        Any Cypress platform (Initial targets are: PSoC3, PSoC5)
  35:LCDConf.c     **** ----------------------------------------------------------------------
  36:LCDConf.c     **** Support and Update Agreement (SUA)
  37:LCDConf.c     **** SUA period:               2009-06-12 - 2022-07-27
  38:LCDConf.c     **** Contact to extend SUA:    sales@segger.com
  39:LCDConf.c     **** ----------------------------------------------------------------------
  40:LCDConf.c     **** File        : LCDConf.c
  41:LCDConf.c     **** Purpose     : Display controller configuration (single layer)
  42:LCDConf.c     **** ---------------------------END-OF-HEADER------------------------------
  43:LCDConf.c     **** */
  44:LCDConf.c     **** 
  45:LCDConf.c     **** #include "GUI.h"
  46:LCDConf.c     **** #include "GUIDRV_FlexColor.h"
  47:LCDConf.c     **** 
  48:LCDConf.c     **** /*********************************************************************
  49:LCDConf.c     **** *
  50:LCDConf.c     **** *       Layer configuration (to be modified)
  51:LCDConf.c     **** *
  52:LCDConf.c     **** **********************************************************************
  53:LCDConf.c     **** */
  54:LCDConf.c     **** //
  55:LCDConf.c     **** // Physical display size
  56:LCDConf.c     **** //   The display size should be adapted in order to match the size of
  57:LCDConf.c     **** //   the target display.
  58:LCDConf.c     **** //
  59:LCDConf.c     **** #define XSIZE_PHYS 240
  60:LCDConf.c     **** #define YSIZE_PHYS 320
  61:LCDConf.c     **** 
  62:LCDConf.c     **** //
  63:LCDConf.c     **** // Color conversion
  64:LCDConf.c     **** //   The color conversion functions should be selected according to
  65:LCDConf.c     **** //   the color mode of the target display. Details can be found in
  66:LCDConf.c     **** //   the chapter "Colors" in the emWin user manual.
  67:LCDConf.c     **** //
  68:LCDConf.c     **** #define COLOR_CONVERSION GUICC_M565
  69:LCDConf.c     **** 
  70:LCDConf.c     **** //
  71:LCDConf.c     **** // Display driver
  72:LCDConf.c     **** //
  73:LCDConf.c     **** #define DISPLAY_DRIVER GUIDRV_FLEXCOLOR
  74:LCDConf.c     **** 
  75:LCDConf.c     **** /*********************************************************************
  76:LCDConf.c     **** *
  77:LCDConf.c     **** *       Configuration checking
  78:LCDConf.c     **** *
  79:LCDConf.c     **** **********************************************************************
  80:LCDConf.c     **** */
  81:LCDConf.c     **** #ifndef   VXSIZE_PHYS
  82:LCDConf.c     ****   #define VXSIZE_PHYS XSIZE_PHYS
  83:LCDConf.c     **** #endif
  84:LCDConf.c     **** #ifndef   VYSIZE_PHYS
  85:LCDConf.c     ****   #define VYSIZE_PHYS YSIZE_PHYS
  86:LCDConf.c     **** #endif
ARM GAS  C:\Users\Agentos\AppData\Local\Temp\cc4ZrSyY.s 			page 3


  87:LCDConf.c     **** #ifndef   XSIZE_PHYS
  88:LCDConf.c     ****   #error Physical X size of display is not defined!
  89:LCDConf.c     **** #endif
  90:LCDConf.c     **** #ifndef   YSIZE_PHYS
  91:LCDConf.c     ****   #error Physical Y size of display is not defined!
  92:LCDConf.c     **** #endif
  93:LCDConf.c     **** #ifndef   COLOR_CONVERSION
  94:LCDConf.c     ****   #error Color conversion not defined!
  95:LCDConf.c     **** #endif
  96:LCDConf.c     **** #ifndef   DISPLAY_DRIVER
  97:LCDConf.c     ****   #error No display driver defined!
  98:LCDConf.c     **** #endif
  99:LCDConf.c     **** 
 100:LCDConf.c     **** /********************************************************************
 101:LCDConf.c     **** *
 102:LCDConf.c     **** *       _InitController
 103:LCDConf.c     **** *
 104:LCDConf.c     **** * Purpose:
 105:LCDConf.c     **** *   Initializes the LCD controller
 106:LCDConf.c     **** *
 107:LCDConf.c     **** */
 108:LCDConf.c     **** static void _InitController(void) {
 109:LCDConf.c     ****   /* Set up the display controller and put it into operation. If the 
 110:LCDConf.c     ****   *  display controller is not initialized by any external routine 
 111:LCDConf.c     ****   *  this needs to be adapted by the customer.
 112:LCDConf.c     ****   */
 113:LCDConf.c     **** }
 114:LCDConf.c     **** 
 115:LCDConf.c     **** /*********************************************************************
 116:LCDConf.c     **** *
 117:LCDConf.c     **** *       Public code
 118:LCDConf.c     **** *
 119:LCDConf.c     **** **********************************************************************
 120:LCDConf.c     **** */
 121:LCDConf.c     **** /*********************************************************************
 122:LCDConf.c     **** *
 123:LCDConf.c     **** *       LCD_X_Config
 124:LCDConf.c     **** *
 125:LCDConf.c     **** * Function description
 126:LCDConf.c     **** *   Called during the initialization process in order to set up the
 127:LCDConf.c     **** *   display driver configuration.
 128:LCDConf.c     **** */
 129:LCDConf.c     **** void LCD_X_Config(void) {
  29              		.loc 1 129 0
  30              		.cfi_startproc
  31              		@ args = 0, pretend = 0, frame = 128
  32              		@ frame_needed = 0, uses_anonymous_args = 0
  33 0000 30B5     		push	{r4, r5, lr}
  34              		.cfi_def_cfa_offset 12
  35              		.cfi_offset 4, -12
  36              		.cfi_offset 5, -8
  37              		.cfi_offset 14, -4
  38 0002 A1B0     		sub	sp, sp, #132
  39              		.cfi_def_cfa_offset 144
 130:LCDConf.c     ****   GUI_DEVICE * pDevice;
 131:LCDConf.c     ****   CONFIG_FLEXCOLOR Config = {0};
  40              		.loc 1 131 0
ARM GAS  C:\Users\Agentos\AppData\Local\Temp\cc4ZrSyY.s 			page 4


  41 0004 0024     		movs	r4, #0
  42 0006 1B94     		str	r4, [sp, #108]
  43 0008 1C94     		str	r4, [sp, #112]
  44 000a 1D94     		str	r4, [sp, #116]
  45 000c 1E94     		str	r4, [sp, #120]
  46 000e 1F94     		str	r4, [sp, #124]
 132:LCDConf.c     ****   GUI_PORT_API PortAPI = {0};
  47              		.loc 1 132 0
  48 0010 6822     		movs	r2, #104
  49 0012 2146     		mov	r1, r4
  50 0014 01A8     		add	r0, sp, #4
  51 0016 FFF7FEFF 		bl	memset
  52              	.LVL0:
 133:LCDConf.c     ****   //
 134:LCDConf.c     ****   // Set the display driver and color conversion
 135:LCDConf.c     ****   //
 136:LCDConf.c     ****   pDevice = GUI_DEVICE_CreateAndLink(DISPLAY_DRIVER, COLOR_CONVERSION, 0, 0);
  53              		.loc 1 136 0
  54 001a 2346     		mov	r3, r4
  55 001c 2246     		mov	r2, r4
  56 001e 0F49     		ldr	r1, .L3
  57 0020 0F48     		ldr	r0, .L3+4
  58 0022 FFF7FEFF 		bl	GUI_DEVICE_CreateAndLink
  59              	.LVL1:
  60 0026 0546     		mov	r5, r0
  61              	.LVL2:
 137:LCDConf.c     ****   //
 138:LCDConf.c     ****   // Display driver configuration
 139:LCDConf.c     ****   //
 140:LCDConf.c     ****   LCD_SetSizeEx    (0, XSIZE_PHYS,   YSIZE_PHYS);
  62              		.loc 1 140 0
  63 0028 4FF4A072 		mov	r2, #320
  64 002c F021     		movs	r1, #240
  65 002e 2046     		mov	r0, r4
  66              	.LVL3:
  67 0030 FFF7FEFF 		bl	LCD_SetSizeEx
  68              	.LVL4:
 141:LCDConf.c     ****   LCD_SetVSizeEx   (0, VXSIZE_PHYS,  VYSIZE_PHYS);
  69              		.loc 1 141 0
  70 0034 4FF4A072 		mov	r2, #320
  71 0038 F021     		movs	r1, #240
  72 003a 2046     		mov	r0, r4
  73 003c FFF7FEFF 		bl	LCD_SetVSizeEx
  74              	.LVL5:
 142:LCDConf.c     ****   //
 143:LCDConf.c     ****   // Orientation
 144:LCDConf.c     ****   //
 145:LCDConf.c     ****   Config.Orientation   = GUI_MIRROR_Y | GUI_SWAP_XY;
  75              		.loc 1 145 0
  76 0040 0623     		movs	r3, #6
  77 0042 1D93     		str	r3, [sp, #116]
 146:LCDConf.c     ****   GUIDRV_FlexColor_Config(pDevice, &Config);
  78              		.loc 1 146 0
  79 0044 1BA9     		add	r1, sp, #108
  80 0046 2846     		mov	r0, r5
  81 0048 FFF7FEFF 		bl	GUIDRV_FlexColor_Config
  82              	.LVL6:
ARM GAS  C:\Users\Agentos\AppData\Local\Temp\cc4ZrSyY.s 			page 5


 147:LCDConf.c     ****   //
 148:LCDConf.c     ****   // Set controller and operation mode
 149:LCDConf.c     ****   //
 150:LCDConf.c     ****   #warning Set display access API pointers, LCD controller, driver mode and remove this line. For d
 151:LCDConf.c     ****   
 152:LCDConf.c     ****   GUIDRV_FlexColor_SetFunc(pDevice, &PortAPI, GUIDRV_FLEXCOLOR_F66709, GUIDRV_FLEXCOLOR_M16C0B8);
  83              		.loc 1 152 0
  84 004c 054B     		ldr	r3, .L3+8
  85 004e 064A     		ldr	r2, .L3+12
  86 0050 01A9     		add	r1, sp, #4
  87 0052 2846     		mov	r0, r5
  88 0054 FFF7FEFF 		bl	GUIDRV_FlexColor_SetFunc
  89              	.LVL7:
 153:LCDConf.c     **** }
  90              		.loc 1 153 0
  91 0058 21B0     		add	sp, sp, #132
  92              		.cfi_def_cfa_offset 12
  93              		@ sp needed
  94 005a 30BD     		pop	{r4, r5, pc}
  95              	.LVL8:
  96              	.L4:
  97              		.align	2
  98              	.L3:
  99 005c 00000000 		.word	LCD_API_ColorConv_M565
 100 0060 00000000 		.word	GUIDRV_FlexColor_API
 101 0064 00000000 		.word	GUIDRV_FlexColor_SetMode16bppC0B8
 102 0068 00000000 		.word	GUIDRV_FlexColor_SetFunc66709
 103              		.cfi_endproc
 104              	.LFE1:
 105              		.size	LCD_X_Config, .-LCD_X_Config
 106              		.section	.text.LCD_X_DisplayDriver,"ax",%progbits
 107              		.align	2
 108              		.global	LCD_X_DisplayDriver
 109              		.thumb
 110              		.thumb_func
 111              		.type	LCD_X_DisplayDriver, %function
 112              	LCD_X_DisplayDriver:
 113              	.LFB2:
 154:LCDConf.c     **** 
 155:LCDConf.c     **** /*********************************************************************
 156:LCDConf.c     **** *
 157:LCDConf.c     **** *       LCD_X_DisplayDriver
 158:LCDConf.c     **** *
 159:LCDConf.c     **** * Purpose:
 160:LCDConf.c     **** *   This function is called by the display driver for several purposes.
 161:LCDConf.c     **** *   To support the according task, the routine needs to be adapted to
 162:LCDConf.c     **** *   the display controller. Note that the commands marked
 163:LCDConf.c     **** *   "optional" are not cogently required and should only be adapted if 
 164:LCDConf.c     **** *   the display controller supports these features.
 165:LCDConf.c     **** *
 166:LCDConf.c     **** * Parameter:
 167:LCDConf.c     **** *   LayerIndex - Zero based layer index
 168:LCDConf.c     **** *   Cmd        - Command to be executed
 169:LCDConf.c     **** *   pData      - Pointer to a data structure.
 170:LCDConf.c     **** * 
 171:LCDConf.c     **** * Return Value:
 172:LCDConf.c     **** *   < -1 - Error
ARM GAS  C:\Users\Agentos\AppData\Local\Temp\cc4ZrSyY.s 			page 6


 173:LCDConf.c     **** *     -1 - The command is not handled.
 174:LCDConf.c     **** *      0 - OK.
 175:LCDConf.c     **** */
 176:LCDConf.c     **** int LCD_X_DisplayDriver(unsigned LayerIndex, unsigned Cmd, void * pData) {
 114              		.loc 1 176 0
 115              		.cfi_startproc
 116              		@ args = 0, pretend = 0, frame = 0
 117              		@ frame_needed = 0, uses_anonymous_args = 0
 118              		@ link register save eliminated.
 119              	.LVL9:
 177:LCDConf.c     ****   int r;
 178:LCDConf.c     ****   
 179:LCDConf.c     ****   GUI_USE_PARA(LayerIndex);
 180:LCDConf.c     ****   GUI_USE_PARA(pData);
 181:LCDConf.c     ****   
 182:LCDConf.c     ****   switch (Cmd) {
 120              		.loc 1 182 0
 121 0000 0129     		cmp	r1, #1
 122 0002 02D0     		beq	.L8
 183:LCDConf.c     ****   case LCD_X_INITCONTROLLER: {
 184:LCDConf.c     ****     //
 185:LCDConf.c     ****     // Called during the initialization process in order to set up the
 186:LCDConf.c     ****     // display controller and put it into operation. If the display
 187:LCDConf.c     ****     // controller is not initialized by any external routine, this needs
 188:LCDConf.c     ****     // to be adapted by the customer...
 189:LCDConf.c     ****     //
 190:LCDConf.c     ****     // ...
 191:LCDConf.c     ****     _InitController();
 192:LCDConf.c     ****     return 0;
 193:LCDConf.c     ****   }
 194:LCDConf.c     ****   default:
 195:LCDConf.c     ****     r = -1;
 196:LCDConf.c     ****   }
 197:LCDConf.c     ****   return r;
 123              		.loc 1 197 0
 124 0004 4FF0FF30 		mov	r0, #-1
 125              	.LVL10:
 126 0008 7047     		bx	lr
 127              	.LVL11:
 128              	.L8:
 192:LCDConf.c     ****   }
 129              		.loc 1 192 0
 130 000a 0020     		movs	r0, #0
 131              	.LVL12:
 198:LCDConf.c     **** }
 132              		.loc 1 198 0
 133 000c 7047     		bx	lr
 134              		.cfi_endproc
 135              	.LFE2:
 136              		.size	LCD_X_DisplayDriver, .-LCD_X_DisplayDriver
 137 000e 00BF     		.text
 138              	.Letext0:
 139              		.file 2 "Generated_Source\\PSoC6\\pdl\\middleware/emWin/code/include/LCD.h"
 140              		.file 3 "Generated_Source\\PSoC6\\pdl\\middleware/emWin/code/include/GUI.h"
 141              		.file 4 "Generated_Source\\PSoC6\\pdl\\middleware/emWin/code/include/GUI_Type.h"
 142              		.file 5 "Generated_Source\\PSoC6\\pdl\\middleware/emWin/code/drivers/FlexColor/GUIDRV_FlexColor.h"