ARM GAS  C:\Users\cypress\AppData\Local\Temp\ccubSXOs.s 			page 1


   1              		.syntax unified
   2              		.cpu cortex-m0
   3              		.fpu softvfp
   4              		.eabi_attribute 20, 1
   5              		.eabi_attribute 21, 1
   6              		.eabi_attribute 23, 3
   7              		.eabi_attribute 24, 1
   8              		.eabi_attribute 25, 1
   9              		.eabi_attribute 26, 1
  10              		.eabi_attribute 30, 6
  11              		.eabi_attribute 34, 0
  12              		.eabi_attribute 18, 4
  13              		.thumb
  14              		.syntax unified
  15              		.file	"BLE_HAL_PVT.c"
  16              		.text
  17              	.Ltext0:
  18              		.cfi_sections	.debug_frame
  19              		.section	.text.CyBLE_Nvram_Write,"ax",%progbits
  20              		.align	2
  21              		.global	CyBLE_Nvram_Write
  22              		.code	16
  23              		.thumb_func
  24              		.type	CyBLE_Nvram_Write, %function
  25              	CyBLE_Nvram_Write:
  26              	.LFB2:
  27              		.file 1 "Generated_Source\\PSoC4\\BLE_HAL_PVT.c"
   1:Generated_Source\PSoC4/BLE_HAL_PVT.c **** /***************************************************************************//**
   2:Generated_Source\PSoC4/BLE_HAL_PVT.c **** * \file CYBLE_HAL_PVT.c
   3:Generated_Source\PSoC4/BLE_HAL_PVT.c **** * \version 3.30
   4:Generated_Source\PSoC4/BLE_HAL_PVT.c **** *
   5:Generated_Source\PSoC4/BLE_HAL_PVT.c **** * \brief
   6:Generated_Source\PSoC4/BLE_HAL_PVT.c **** *  This file contains the source code for the HAL section of the BLE component
   7:Generated_Source\PSoC4/BLE_HAL_PVT.c **** *
   8:Generated_Source\PSoC4/BLE_HAL_PVT.c **** ********************************************************************************
   9:Generated_Source\PSoC4/BLE_HAL_PVT.c **** * \copyright
  10:Generated_Source\PSoC4/BLE_HAL_PVT.c **** * Copyright 2014-2016, Cypress Semiconductor Corporation.  All rights reserved.
  11:Generated_Source\PSoC4/BLE_HAL_PVT.c **** * You may use this file only in accordance with the license, terms, conditions,
  12:Generated_Source\PSoC4/BLE_HAL_PVT.c **** * disclaimers, and limitations in the end user license agreement accompanying
  13:Generated_Source\PSoC4/BLE_HAL_PVT.c **** * the software package with which this file was provided.
  14:Generated_Source\PSoC4/BLE_HAL_PVT.c **** *******************************************************************************/
  15:Generated_Source\PSoC4/BLE_HAL_PVT.c **** 
  16:Generated_Source\PSoC4/BLE_HAL_PVT.c **** #include "BLE_HAL_PVT.h"
  17:Generated_Source\PSoC4/BLE_HAL_PVT.c **** 
  18:Generated_Source\PSoC4/BLE_HAL_PVT.c **** 
  19:Generated_Source\PSoC4/BLE_HAL_PVT.c **** #if(CYBLE_MODE == CYBLE_HCI)
  20:Generated_Source\PSoC4/BLE_HAL_PVT.c **** 
  21:Generated_Source\PSoC4/BLE_HAL_PVT.c **** 
  22:Generated_Source\PSoC4/BLE_HAL_PVT.c **** /*******************************************************************************
  23:Generated_Source\PSoC4/BLE_HAL_PVT.c **** * Function Name: CyBLE_Uart_Start
  24:Generated_Source\PSoC4/BLE_HAL_PVT.c **** ****************************************************************************//**
  25:Generated_Source\PSoC4/BLE_HAL_PVT.c **** *
  26:Generated_Source\PSoC4/BLE_HAL_PVT.c **** *  Enables the platform UART Tx and RX interrupts and then enables the UART
  27:Generated_Source\PSoC4/BLE_HAL_PVT.c **** *  component.
  28:Generated_Source\PSoC4/BLE_HAL_PVT.c **** *
  29:Generated_Source\PSoC4/BLE_HAL_PVT.c **** * \return
  30:Generated_Source\PSoC4/BLE_HAL_PVT.c **** *  None
ARM GAS  C:\Users\cypress\AppData\Local\Temp\ccubSXOs.s 			page 2


  31:Generated_Source\PSoC4/BLE_HAL_PVT.c **** *
  32:Generated_Source\PSoC4/BLE_HAL_PVT.c **** *******************************************************************************/
  33:Generated_Source\PSoC4/BLE_HAL_PVT.c **** void CyBLE_Uart_Start (void)
  34:Generated_Source\PSoC4/BLE_HAL_PVT.c **** {
  35:Generated_Source\PSoC4/BLE_HAL_PVT.c ****     #if (CYBLE_HCI_TYPE == CYBLE_HCI_OVER_UART)
  36:Generated_Source\PSoC4/BLE_HAL_PVT.c ****         /* Setup ISR */
  37:Generated_Source\PSoC4/BLE_HAL_PVT.c ****         BLE_uart_isr_StartEx(&CyBLE_Uart_Interrupt);
  38:Generated_Source\PSoC4/BLE_HAL_PVT.c **** 
  39:Generated_Source\PSoC4/BLE_HAL_PVT.c ****         BLE_HAL_Uart_Start();
  40:Generated_Source\PSoC4/BLE_HAL_PVT.c ****     #endif /* (CYBLE_HCI_TYPE == CYBLE_HCI_OVER_UART) */
  41:Generated_Source\PSoC4/BLE_HAL_PVT.c **** }
  42:Generated_Source\PSoC4/BLE_HAL_PVT.c **** 
  43:Generated_Source\PSoC4/BLE_HAL_PVT.c **** 
  44:Generated_Source\PSoC4/BLE_HAL_PVT.c **** /*******************************************************************************
  45:Generated_Source\PSoC4/BLE_HAL_PVT.c **** * Function Name: CyBLE_Uart_Stop
  46:Generated_Source\PSoC4/BLE_HAL_PVT.c **** ****************************************************************************//**
  47:Generated_Source\PSoC4/BLE_HAL_PVT.c **** *
  48:Generated_Source\PSoC4/BLE_HAL_PVT.c **** *  Disables the UART, clears all pending interrupts and disables the UART Tx
  49:Generated_Source\PSoC4/BLE_HAL_PVT.c **** *  and RX interrupts. This will also empty out the FIFOs.
  50:Generated_Source\PSoC4/BLE_HAL_PVT.c **** *
  51:Generated_Source\PSoC4/BLE_HAL_PVT.c **** * \return
  52:Generated_Source\PSoC4/BLE_HAL_PVT.c **** *  None
  53:Generated_Source\PSoC4/BLE_HAL_PVT.c **** *
  54:Generated_Source\PSoC4/BLE_HAL_PVT.c **** *******************************************************************************/
  55:Generated_Source\PSoC4/BLE_HAL_PVT.c **** void CyBLE_Uart_Stop (void)
  56:Generated_Source\PSoC4/BLE_HAL_PVT.c **** {
  57:Generated_Source\PSoC4/BLE_HAL_PVT.c ****     #if (CYBLE_HCI_TYPE == CYBLE_HCI_OVER_UART)
  58:Generated_Source\PSoC4/BLE_HAL_PVT.c ****         /* Stop interrupt and UART */
  59:Generated_Source\PSoC4/BLE_HAL_PVT.c ****         BLE_uart_isr_Stop();
  60:Generated_Source\PSoC4/BLE_HAL_PVT.c **** 
  61:Generated_Source\PSoC4/BLE_HAL_PVT.c ****         BLE_HAL_Uart_Stop();
  62:Generated_Source\PSoC4/BLE_HAL_PVT.c ****     #endif /* (CYBLE_HCI_TYPE == CYBLE_HCI_OVER_UART) */
  63:Generated_Source\PSoC4/BLE_HAL_PVT.c **** }
  64:Generated_Source\PSoC4/BLE_HAL_PVT.c **** 
  65:Generated_Source\PSoC4/BLE_HAL_PVT.c **** 
  66:Generated_Source\PSoC4/BLE_HAL_PVT.c **** /*******************************************************************************
  67:Generated_Source\PSoC4/BLE_HAL_PVT.c **** * Function Name: CyBLE_Uart_Transmit
  68:Generated_Source\PSoC4/BLE_HAL_PVT.c **** ****************************************************************************//**
  69:Generated_Source\PSoC4/BLE_HAL_PVT.c **** *
  70:Generated_Source\PSoC4/BLE_HAL_PVT.c **** *  Sends the data to Uart Tx FIFO. The API handles data length up to the 
  71:Generated_Source\PSoC4/BLE_HAL_PVT.c **** *  supported Tx FIFO length of the uart hardware module.
  72:Generated_Source\PSoC4/BLE_HAL_PVT.c **** *
  73:Generated_Source\PSoC4/BLE_HAL_PVT.c **** *  \param data: Pointer to the data to send through the UART
  74:Generated_Source\PSoC4/BLE_HAL_PVT.c **** *  \param length: the length of data to transmit in bytes
  75:Generated_Source\PSoC4/BLE_HAL_PVT.c **** *
  76:Generated_Source\PSoC4/BLE_HAL_PVT.c **** * \return
  77:Generated_Source\PSoC4/BLE_HAL_PVT.c **** *  None
  78:Generated_Source\PSoC4/BLE_HAL_PVT.c **** *
  79:Generated_Source\PSoC4/BLE_HAL_PVT.c **** *******************************************************************************/
  80:Generated_Source\PSoC4/BLE_HAL_PVT.c **** void CyBLE_Uart_Transmit (const uint8 *dataBuf, uint8 length)
  81:Generated_Source\PSoC4/BLE_HAL_PVT.c **** {
  82:Generated_Source\PSoC4/BLE_HAL_PVT.c ****     #if (CYBLE_HCI_TYPE == CYBLE_HCI_OVER_UART)
  83:Generated_Source\PSoC4/BLE_HAL_PVT.c ****         BLE_HAL_Uart_SpiUartPutArray(dataBuf, (uint32)length);
  84:Generated_Source\PSoC4/BLE_HAL_PVT.c ****     #endif /* (CYBLE_HCI_TYPE == CYBLE_HCI_OVER_UART) */
  85:Generated_Source\PSoC4/BLE_HAL_PVT.c **** }
  86:Generated_Source\PSoC4/BLE_HAL_PVT.c **** 
  87:Generated_Source\PSoC4/BLE_HAL_PVT.c **** /*******************************************************************************
ARM GAS  C:\Users\cypress\AppData\Local\Temp\ccubSXOs.s 			page 3


  88:Generated_Source\PSoC4/BLE_HAL_PVT.c **** * Function Name: CyBLE_Uart_Isr_Enable
  89:Generated_Source\PSoC4/BLE_HAL_PVT.c **** ****************************************************************************//**
  90:Generated_Source\PSoC4/BLE_HAL_PVT.c **** *
  91:Generated_Source\PSoC4/BLE_HAL_PVT.c **** *   Enables the UART interrupt to the interrupt controller. 
  92:Generated_Source\PSoC4/BLE_HAL_PVT.c **** *   Do not call this function unless CyBLE_Uart_Start() has been called or the
  93:Generated_Source\PSoC4/BLE_HAL_PVT.c **** *   functionality of the SysInt_Init() function, which sets the vector and the
  94:Generated_Source\PSoC4/BLE_HAL_PVT.c **** *   priority, has been called.
  95:Generated_Source\PSoC4/BLE_HAL_PVT.c **** *
  96:Generated_Source\PSoC4/BLE_HAL_PVT.c **** *******************************************************************************/
  97:Generated_Source\PSoC4/BLE_HAL_PVT.c **** void CyBLE_Uart_Isr_Enable(void)
  98:Generated_Source\PSoC4/BLE_HAL_PVT.c **** {
  99:Generated_Source\PSoC4/BLE_HAL_PVT.c ****     #if (CYBLE_HCI_TYPE == CYBLE_HCI_OVER_UART)
 100:Generated_Source\PSoC4/BLE_HAL_PVT.c ****         BLE_uart_isr_Enable();
 101:Generated_Source\PSoC4/BLE_HAL_PVT.c ****     #endif /* (CYBLE_HCI_TYPE == CYBLE_HCI_OVER_UART) */
 102:Generated_Source\PSoC4/BLE_HAL_PVT.c **** }
 103:Generated_Source\PSoC4/BLE_HAL_PVT.c **** 
 104:Generated_Source\PSoC4/BLE_HAL_PVT.c **** 
 105:Generated_Source\PSoC4/BLE_HAL_PVT.c **** /*******************************************************************************
 106:Generated_Source\PSoC4/BLE_HAL_PVT.c **** * Function Name: CyBLE_Uart_Isr_Disable
 107:Generated_Source\PSoC4/BLE_HAL_PVT.c **** ****************************************************************************//**
 108:Generated_Source\PSoC4/BLE_HAL_PVT.c **** *
 109:Generated_Source\PSoC4/BLE_HAL_PVT.c **** *   Disables the UART Interrupt in the interrupt controller.
 110:Generated_Source\PSoC4/BLE_HAL_PVT.c **** *
 111:Generated_Source\PSoC4/BLE_HAL_PVT.c **** *******************************************************************************/
 112:Generated_Source\PSoC4/BLE_HAL_PVT.c **** void CyBLE_Uart_Isr_Disable(void)
 113:Generated_Source\PSoC4/BLE_HAL_PVT.c **** {
 114:Generated_Source\PSoC4/BLE_HAL_PVT.c ****     #if (CYBLE_HCI_TYPE == CYBLE_HCI_OVER_UART)
 115:Generated_Source\PSoC4/BLE_HAL_PVT.c ****         BLE_uart_isr_Disable();
 116:Generated_Source\PSoC4/BLE_HAL_PVT.c ****     #endif /* (CYBLE_HCI_TYPE == CYBLE_HCI_OVER_UART) */
 117:Generated_Source\PSoC4/BLE_HAL_PVT.c **** }
 118:Generated_Source\PSoC4/BLE_HAL_PVT.c **** 
 119:Generated_Source\PSoC4/BLE_HAL_PVT.c **** #endif /* (CYBLE_MODE == CYBLE_HCI) */
 120:Generated_Source\PSoC4/BLE_HAL_PVT.c **** 
 121:Generated_Source\PSoC4/BLE_HAL_PVT.c **** 
 122:Generated_Source\PSoC4/BLE_HAL_PVT.c **** /*******************************************************************************
 123:Generated_Source\PSoC4/BLE_HAL_PVT.c **** * Function Name: CyBLE_Nvram_Write
 124:Generated_Source\PSoC4/BLE_HAL_PVT.c **** ****************************************************************************//**
 125:Generated_Source\PSoC4/BLE_HAL_PVT.c **** *
 126:Generated_Source\PSoC4/BLE_HAL_PVT.c **** *  This API writes the data to the NVRAM store. It will check the appropriate
 127:Generated_Source\PSoC4/BLE_HAL_PVT.c **** *  alignment of a start address and also perform an address range check based
 128:Generated_Source\PSoC4/BLE_HAL_PVT.c **** *  on the length before performing the write operation.
 129:Generated_Source\PSoC4/BLE_HAL_PVT.c **** *  This function performs memory compare and writes only row where there are new
 130:Generated_Source\PSoC4/BLE_HAL_PVT.c **** *  data to write.
 131:Generated_Source\PSoC4/BLE_HAL_PVT.c **** *
 132:Generated_Source\PSoC4/BLE_HAL_PVT.c **** *  \param buffer:   Pointer to the buffer containing the data to be stored.
 133:Generated_Source\PSoC4/BLE_HAL_PVT.c **** *  \param varFlash: Pointer to the array or variable in the flash.
 134:Generated_Source\PSoC4/BLE_HAL_PVT.c **** *  \param length:    The length of the data in bytes.
 135:Generated_Source\PSoC4/BLE_HAL_PVT.c **** *
 136:Generated_Source\PSoC4/BLE_HAL_PVT.c **** * \return
 137:Generated_Source\PSoC4/BLE_HAL_PVT.c **** *  CYRET_SUCCESS    a successful write
 138:Generated_Source\PSoC4/BLE_HAL_PVT.c **** *  CYRET_BAD_PARAM  A request to write outside the flash boundary.
 139:Generated_Source\PSoC4/BLE_HAL_PVT.c **** *  CYRET_UNKNOWN    Other errors in writing the flash
 140:Generated_Source\PSoC4/BLE_HAL_PVT.c **** *
 141:Generated_Source\PSoC4/BLE_HAL_PVT.c **** * \sideeffect
 142:Generated_Source\PSoC4/BLE_HAL_PVT.c **** *  For BLE devices with 128K of Flash memory this API will automatically 
 143:Generated_Source\PSoC4/BLE_HAL_PVT.c **** *  modify the clock settings for the device.
 144:Generated_Source\PSoC4/BLE_HAL_PVT.c **** *  Writing to flash requires changes to be done to the IMO (set to 48 MHz)
ARM GAS  C:\Users\cypress\AppData\Local\Temp\ccubSXOs.s 			page 4


 145:Generated_Source\PSoC4/BLE_HAL_PVT.c **** *  and HFCLK (source set to IMO) settings. The configuration is restored before
 146:Generated_Source\PSoC4/BLE_HAL_PVT.c **** *  returning. This will impact the operation of most of the hardware in the
 147:Generated_Source\PSoC4/BLE_HAL_PVT.c **** *  device.
 148:Generated_Source\PSoC4/BLE_HAL_PVT.c **** *
 149:Generated_Source\PSoC4/BLE_HAL_PVT.c **** *******************************************************************************/
 150:Generated_Source\PSoC4/BLE_HAL_PVT.c **** cystatus CyBLE_Nvram_Write (const uint8 buffer[], const uint8 varFlash[], uint16 length)
 151:Generated_Source\PSoC4/BLE_HAL_PVT.c **** {
  28              		.loc 1 151 0
  29              		.cfi_startproc
  30              		@ args = 0, pretend = 0, frame = 176
  31              		@ frame_needed = 1, uses_anonymous_args = 0
  32 0000 80B5     		push	{r7, lr}
  33              		.cfi_def_cfa_offset 8
  34              		.cfi_offset 7, -8
  35              		.cfi_offset 14, -4
  36 0002 ACB0     		sub	sp, sp, #176
  37              		.cfi_def_cfa_offset 184
  38 0004 00AF     		add	r7, sp, #0
  39              		.cfi_def_cfa_register 7
  40 0006 F860     		str	r0, [r7, #12]
  41 0008 B960     		str	r1, [r7, #8]
  42 000a BB1D     		adds	r3, r7, #6
  43 000c 1A80     		strh	r2, [r3]
 152:Generated_Source\PSoC4/BLE_HAL_PVT.c ****     uint8 writeBuffer[CY_FLASH_SIZEOF_ROW];
 153:Generated_Source\PSoC4/BLE_HAL_PVT.c ****     uint32 rowId;
 154:Generated_Source\PSoC4/BLE_HAL_PVT.c ****     uint32 dstIndex;
 155:Generated_Source\PSoC4/BLE_HAL_PVT.c ****     uint32 srcIndex = 0u;
  44              		.loc 1 155 0
  45 000e 0023     		movs	r3, #0
  46 0010 A422     		movs	r2, #164
  47 0012 BA18     		adds	r2, r7, r2
  48 0014 1360     		str	r3, [r2]
 156:Generated_Source\PSoC4/BLE_HAL_PVT.c ****     cystatus rc = CYRET_SUCCESS;
  49              		.loc 1 156 0
  50 0016 0023     		movs	r3, #0
  51 0018 A022     		movs	r2, #160
  52 001a BA18     		adds	r2, r7, r2
  53 001c 1360     		str	r3, [r2]
 157:Generated_Source\PSoC4/BLE_HAL_PVT.c ****     uint32 eeOffset;
 158:Generated_Source\PSoC4/BLE_HAL_PVT.c ****     uint32 byteOffset;
 159:Generated_Source\PSoC4/BLE_HAL_PVT.c ****     uint32 rowsNotEqual;
 160:Generated_Source\PSoC4/BLE_HAL_PVT.c **** 
 161:Generated_Source\PSoC4/BLE_HAL_PVT.c ****     eeOffset = (uint32)varFlash;
  54              		.loc 1 161 0
  55 001e BB68     		ldr	r3, [r7, #8]
  56 0020 9422     		movs	r2, #148
  57 0022 BA18     		adds	r2, r7, r2
  58 0024 1360     		str	r3, [r2]
 162:Generated_Source\PSoC4/BLE_HAL_PVT.c **** 
 163:Generated_Source\PSoC4/BLE_HAL_PVT.c ****     /* Make sure, that varFlash[] points to Flash */
 164:Generated_Source\PSoC4/BLE_HAL_PVT.c ****     if ((eeOffset + length) < CYBLE_HAL_FLASH_END_ADDR)
  59              		.loc 1 164 0
  60 0026 BB1D     		adds	r3, r7, #6
  61 0028 1A88     		ldrh	r2, [r3]
  62 002a 9423     		movs	r3, #148
  63 002c FB18     		adds	r3, r7, r3
  64 002e 1B68     		ldr	r3, [r3]
ARM GAS  C:\Users\cypress\AppData\Local\Temp\ccubSXOs.s 			page 5


  65 0030 D318     		adds	r3, r2, r3
  66 0032 594A     		ldr	r2, .L14
  67 0034 9342     		cmp	r3, r2
  68 0036 00D9     		bls	.LCB36
  69 0038 94E0     		b	.L2	@long jump
  70              	.LCB36:
 165:Generated_Source\PSoC4/BLE_HAL_PVT.c ****     {
 166:Generated_Source\PSoC4/BLE_HAL_PVT.c ****         rowId = eeOffset / CY_FLASH_SIZEOF_ROW;
  71              		.loc 1 166 0
  72 003a 9423     		movs	r3, #148
  73 003c FB18     		adds	r3, r7, r3
  74 003e 1B68     		ldr	r3, [r3]
  75 0040 DB09     		lsrs	r3, r3, #7
  76 0042 AC22     		movs	r2, #172
  77 0044 BA18     		adds	r2, r7, r2
  78 0046 1360     		str	r3, [r2]
 167:Generated_Source\PSoC4/BLE_HAL_PVT.c ****         byteOffset = CY_FLASH_SIZEOF_ROW * rowId;
  79              		.loc 1 167 0
  80 0048 AC23     		movs	r3, #172
  81 004a FB18     		adds	r3, r7, r3
  82 004c 1B68     		ldr	r3, [r3]
  83 004e DB01     		lsls	r3, r3, #7
  84 0050 9C22     		movs	r2, #156
  85 0052 BA18     		adds	r2, r7, r2
  86 0054 1360     		str	r3, [r2]
 168:Generated_Source\PSoC4/BLE_HAL_PVT.c **** 
 169:Generated_Source\PSoC4/BLE_HAL_PVT.c ****         while ((srcIndex < length) && (rc == CYRET_SUCCESS))
  87              		.loc 1 169 0
  88 0056 77E0     		b	.L3
  89              	.L11:
 170:Generated_Source\PSoC4/BLE_HAL_PVT.c ****         {
 171:Generated_Source\PSoC4/BLE_HAL_PVT.c ****             rowsNotEqual = 0u;
  90              		.loc 1 171 0
  91 0058 0023     		movs	r3, #0
  92 005a 9822     		movs	r2, #152
  93 005c BA18     		adds	r2, r7, r2
  94 005e 1360     		str	r3, [r2]
 172:Generated_Source\PSoC4/BLE_HAL_PVT.c ****             /* Copy data to the write buffer either from the source buffer or from the flash */
 173:Generated_Source\PSoC4/BLE_HAL_PVT.c ****             for (dstIndex = 0u; dstIndex < CY_FLASH_SIZEOF_ROW; dstIndex++)
  95              		.loc 1 173 0
  96 0060 0023     		movs	r3, #0
  97 0062 A822     		movs	r2, #168
  98 0064 BA18     		adds	r2, r7, r2
  99 0066 1360     		str	r3, [r2]
 100 0068 50E0     		b	.L4
 101              	.L8:
 174:Generated_Source\PSoC4/BLE_HAL_PVT.c ****             {
 175:Generated_Source\PSoC4/BLE_HAL_PVT.c ****                 if ((byteOffset >= eeOffset) && (srcIndex < length))
 102              		.loc 1 175 0
 103 006a 9C23     		movs	r3, #156
 104 006c FB18     		adds	r3, r7, r3
 105 006e 1A68     		ldr	r2, [r3]
 106 0070 9423     		movs	r3, #148
 107 0072 FB18     		adds	r3, r7, r3
 108 0074 1B68     		ldr	r3, [r3]
 109 0076 9A42     		cmp	r2, r3
 110 0078 2DD3     		bcc	.L5
ARM GAS  C:\Users\cypress\AppData\Local\Temp\ccubSXOs.s 			page 6


 111              		.loc 1 175 0 is_stmt 0 discriminator 1
 112 007a BB1D     		adds	r3, r7, #6
 113 007c 1A88     		ldrh	r2, [r3]
 114 007e A423     		movs	r3, #164
 115 0080 FB18     		adds	r3, r7, r3
 116 0082 1B68     		ldr	r3, [r3]
 117 0084 9A42     		cmp	r2, r3
 118 0086 26D9     		bls	.L5
 176:Generated_Source\PSoC4/BLE_HAL_PVT.c ****                 {
 177:Generated_Source\PSoC4/BLE_HAL_PVT.c ****                     writeBuffer[dstIndex] = buffer[srcIndex];
 119              		.loc 1 177 0 is_stmt 1
 120 0088 FA68     		ldr	r2, [r7, #12]
 121 008a A423     		movs	r3, #164
 122 008c FB18     		adds	r3, r7, r3
 123 008e 1B68     		ldr	r3, [r3]
 124 0090 D318     		adds	r3, r2, r3
 125 0092 1978     		ldrb	r1, [r3]
 126 0094 1423     		movs	r3, #20
 127 0096 FA18     		adds	r2, r7, r3
 128 0098 A823     		movs	r3, #168
 129 009a FB18     		adds	r3, r7, r3
 130 009c 1B68     		ldr	r3, [r3]
 131 009e D318     		adds	r3, r2, r3
 132 00a0 0A1C     		adds	r2, r1, #0
 133 00a2 1A70     		strb	r2, [r3]
 178:Generated_Source\PSoC4/BLE_HAL_PVT.c ****                     /* Detect that row programming is required */
 179:Generated_Source\PSoC4/BLE_HAL_PVT.c ****                     if(CY_GET_XTND_REG8(CYDEV_FLASH_BASE + byteOffset) != buffer[srcIndex])
 134              		.loc 1 179 0
 135 00a4 9C23     		movs	r3, #156
 136 00a6 FB18     		adds	r3, r7, r3
 137 00a8 1B68     		ldr	r3, [r3]
 138 00aa 1B78     		ldrb	r3, [r3]
 139 00ac DAB2     		uxtb	r2, r3
 140 00ae F968     		ldr	r1, [r7, #12]
 141 00b0 A423     		movs	r3, #164
 142 00b2 FB18     		adds	r3, r7, r3
 143 00b4 1B68     		ldr	r3, [r3]
 144 00b6 CB18     		adds	r3, r1, r3
 145 00b8 1B78     		ldrb	r3, [r3]
 146 00ba 9A42     		cmp	r2, r3
 147 00bc 03D0     		beq	.L6
 180:Generated_Source\PSoC4/BLE_HAL_PVT.c ****                     {
 181:Generated_Source\PSoC4/BLE_HAL_PVT.c ****                         rowsNotEqual = 1u;  
 148              		.loc 1 181 0
 149 00be 0123     		movs	r3, #1
 150 00c0 9822     		movs	r2, #152
 151 00c2 BA18     		adds	r2, r7, r2
 152 00c4 1360     		str	r3, [r2]
 153              	.L6:
 182:Generated_Source\PSoC4/BLE_HAL_PVT.c ****                     }
 183:Generated_Source\PSoC4/BLE_HAL_PVT.c ****                     srcIndex++;
 154              		.loc 1 183 0
 155 00c6 A423     		movs	r3, #164
 156 00c8 FB18     		adds	r3, r7, r3
 157 00ca 1B68     		ldr	r3, [r3]
 158 00cc 0133     		adds	r3, r3, #1
 159 00ce A422     		movs	r2, #164
ARM GAS  C:\Users\cypress\AppData\Local\Temp\ccubSXOs.s 			page 7


 160 00d0 BA18     		adds	r2, r7, r2
 161 00d2 1360     		str	r3, [r2]
 162 00d4 0CE0     		b	.L7
 163              	.L5:
 184:Generated_Source\PSoC4/BLE_HAL_PVT.c ****                 }
 185:Generated_Source\PSoC4/BLE_HAL_PVT.c ****                 else
 186:Generated_Source\PSoC4/BLE_HAL_PVT.c ****                 {
 187:Generated_Source\PSoC4/BLE_HAL_PVT.c ****                     writeBuffer[dstIndex] = CY_GET_XTND_REG8(CYDEV_FLASH_BASE + byteOffset);
 164              		.loc 1 187 0
 165 00d6 9C23     		movs	r3, #156
 166 00d8 FB18     		adds	r3, r7, r3
 167 00da 1B68     		ldr	r3, [r3]
 168 00dc 1B78     		ldrb	r3, [r3]
 169 00de D9B2     		uxtb	r1, r3
 170 00e0 1423     		movs	r3, #20
 171 00e2 FA18     		adds	r2, r7, r3
 172 00e4 A823     		movs	r3, #168
 173 00e6 FB18     		adds	r3, r7, r3
 174 00e8 1B68     		ldr	r3, [r3]
 175 00ea D318     		adds	r3, r2, r3
 176 00ec 0A1C     		adds	r2, r1, #0
 177 00ee 1A70     		strb	r2, [r3]
 178              	.L7:
 188:Generated_Source\PSoC4/BLE_HAL_PVT.c ****                 }
 189:Generated_Source\PSoC4/BLE_HAL_PVT.c ****                 byteOffset++;
 179              		.loc 1 189 0 discriminator 2
 180 00f0 9C23     		movs	r3, #156
 181 00f2 FB18     		adds	r3, r7, r3
 182 00f4 1B68     		ldr	r3, [r3]
 183 00f6 0133     		adds	r3, r3, #1
 184 00f8 9C22     		movs	r2, #156
 185 00fa BA18     		adds	r2, r7, r2
 186 00fc 1360     		str	r3, [r2]
 173:Generated_Source\PSoC4/BLE_HAL_PVT.c ****             {
 187              		.loc 1 173 0 discriminator 2
 188 00fe A823     		movs	r3, #168
 189 0100 FB18     		adds	r3, r7, r3
 190 0102 1B68     		ldr	r3, [r3]
 191 0104 0133     		adds	r3, r3, #1
 192 0106 A822     		movs	r2, #168
 193 0108 BA18     		adds	r2, r7, r2
 194 010a 1360     		str	r3, [r2]
 195              	.L4:
 173:Generated_Source\PSoC4/BLE_HAL_PVT.c ****             {
 196              		.loc 1 173 0 is_stmt 0 discriminator 1
 197 010c A823     		movs	r3, #168
 198 010e FB18     		adds	r3, r7, r3
 199 0110 1B68     		ldr	r3, [r3]
 200 0112 7F2B     		cmp	r3, #127
 201 0114 A9D9     		bls	.L8
 190:Generated_Source\PSoC4/BLE_HAL_PVT.c ****             }
 191:Generated_Source\PSoC4/BLE_HAL_PVT.c **** 
 192:Generated_Source\PSoC4/BLE_HAL_PVT.c ****             if(rowsNotEqual != 0u)
 202              		.loc 1 192 0 is_stmt 1
 203 0116 9823     		movs	r3, #152
 204 0118 FB18     		adds	r3, r7, r3
 205 011a 1B68     		ldr	r3, [r3]
ARM GAS  C:\Users\cypress\AppData\Local\Temp\ccubSXOs.s 			page 8


 206 011c 002B     		cmp	r3, #0
 207 011e 0CD0     		beq	.L9
 193:Generated_Source\PSoC4/BLE_HAL_PVT.c ****             {
 194:Generated_Source\PSoC4/BLE_HAL_PVT.c ****                 /* Write flash row */
 195:Generated_Source\PSoC4/BLE_HAL_PVT.c ****                 rc = CySysFlashWriteRow(rowId, writeBuffer);
 208              		.loc 1 195 0
 209 0120 1423     		movs	r3, #20
 210 0122 FA18     		adds	r2, r7, r3
 211 0124 AC23     		movs	r3, #172
 212 0126 FB18     		adds	r3, r7, r3
 213 0128 1B68     		ldr	r3, [r3]
 214 012a 1100     		movs	r1, r2
 215 012c 1800     		movs	r0, r3
 216 012e FFF7FEFF 		bl	CySysFlashWriteRow
 217 0132 0300     		movs	r3, r0
 218 0134 A022     		movs	r2, #160
 219 0136 BA18     		adds	r2, r7, r2
 220 0138 1360     		str	r3, [r2]
 221              	.L9:
 196:Generated_Source\PSoC4/BLE_HAL_PVT.c ****             }
 197:Generated_Source\PSoC4/BLE_HAL_PVT.c **** 
 198:Generated_Source\PSoC4/BLE_HAL_PVT.c ****             /* Go to the next row */
 199:Generated_Source\PSoC4/BLE_HAL_PVT.c ****             rowId++;
 222              		.loc 1 199 0
 223 013a AC23     		movs	r3, #172
 224 013c FB18     		adds	r3, r7, r3
 225 013e 1B68     		ldr	r3, [r3]
 226 0140 0133     		adds	r3, r3, #1
 227 0142 AC22     		movs	r2, #172
 228 0144 BA18     		adds	r2, r7, r2
 229 0146 1360     		str	r3, [r2]
 230              	.L3:
 169:Generated_Source\PSoC4/BLE_HAL_PVT.c ****         {
 231              		.loc 1 169 0
 232 0148 BB1D     		adds	r3, r7, #6
 233 014a 1A88     		ldrh	r2, [r3]
 234 014c A423     		movs	r3, #164
 235 014e FB18     		adds	r3, r7, r3
 236 0150 1B68     		ldr	r3, [r3]
 237 0152 9A42     		cmp	r2, r3
 238 0154 0AD9     		bls	.L10
 169:Generated_Source\PSoC4/BLE_HAL_PVT.c ****         {
 239              		.loc 1 169 0 is_stmt 0 discriminator 1
 240 0156 A023     		movs	r3, #160
 241 0158 FB18     		adds	r3, r7, r3
 242 015a 1B68     		ldr	r3, [r3]
 243 015c 002B     		cmp	r3, #0
 244 015e 00D1     		bne	.LCB201
 245 0160 7AE7     		b	.L11	@long jump
 246              	.LCB201:
 247 0162 03E0     		b	.L10
 248              	.L2:
 200:Generated_Source\PSoC4/BLE_HAL_PVT.c ****         }
 201:Generated_Source\PSoC4/BLE_HAL_PVT.c ****     }
 202:Generated_Source\PSoC4/BLE_HAL_PVT.c ****     else
 203:Generated_Source\PSoC4/BLE_HAL_PVT.c ****     {
 204:Generated_Source\PSoC4/BLE_HAL_PVT.c ****         rc = CYRET_BAD_PARAM;
ARM GAS  C:\Users\cypress\AppData\Local\Temp\ccubSXOs.s 			page 9


 249              		.loc 1 204 0 is_stmt 1
 250 0164 0123     		movs	r3, #1
 251 0166 A022     		movs	r2, #160
 252 0168 BA18     		adds	r2, r7, r2
 253 016a 1360     		str	r3, [r2]
 254              	.L10:
 205:Generated_Source\PSoC4/BLE_HAL_PVT.c ****     }
 206:Generated_Source\PSoC4/BLE_HAL_PVT.c **** 
 207:Generated_Source\PSoC4/BLE_HAL_PVT.c ****     /* Mask return codes from flash, if they are not supported */
 208:Generated_Source\PSoC4/BLE_HAL_PVT.c ****     if ((CYRET_SUCCESS != rc) && (CYRET_BAD_PARAM != rc))
 255              		.loc 1 208 0
 256 016c A023     		movs	r3, #160
 257 016e FB18     		adds	r3, r7, r3
 258 0170 1B68     		ldr	r3, [r3]
 259 0172 002B     		cmp	r3, #0
 260 0174 09D0     		beq	.L12
 261              		.loc 1 208 0 is_stmt 0 discriminator 1
 262 0176 A023     		movs	r3, #160
 263 0178 FB18     		adds	r3, r7, r3
 264 017a 1B68     		ldr	r3, [r3]
 265 017c 012B     		cmp	r3, #1
 266 017e 04D0     		beq	.L12
 209:Generated_Source\PSoC4/BLE_HAL_PVT.c ****     {
 210:Generated_Source\PSoC4/BLE_HAL_PVT.c ****         rc = CYRET_UNKNOWN;
 267              		.loc 1 210 0 is_stmt 1
 268 0180 0123     		movs	r3, #1
 269 0182 5B42     		rsbs	r3, r3, #0
 270 0184 A022     		movs	r2, #160
 271 0186 BA18     		adds	r2, r7, r2
 272 0188 1360     		str	r3, [r2]
 273              	.L12:
 211:Generated_Source\PSoC4/BLE_HAL_PVT.c ****     }
 212:Generated_Source\PSoC4/BLE_HAL_PVT.c ****     
 213:Generated_Source\PSoC4/BLE_HAL_PVT.c ****     return (rc);
 274              		.loc 1 213 0
 275 018a A023     		movs	r3, #160
 276 018c FB18     		adds	r3, r7, r3
 277 018e 1B68     		ldr	r3, [r3]
 214:Generated_Source\PSoC4/BLE_HAL_PVT.c **** }
 278              		.loc 1 214 0
 279 0190 1800     		movs	r0, r3
 280 0192 BD46     		mov	sp, r7
 281 0194 2CB0     		add	sp, sp, #176
 282              		@ sp needed
 283 0196 80BD     		pop	{r7, pc}
 284              	.L15:
 285              		.align	2
 286              	.L14:
 287 0198 FFFF0100 		.word	131071
 288              		.cfi_endproc
 289              	.LFE2:
 290              		.size	CyBLE_Nvram_Write, .-CyBLE_Nvram_Write
 291              		.section	.text.CyBLE_Nvram_Erase,"ax",%progbits
 292              		.align	2
 293              		.global	CyBLE_Nvram_Erase
 294              		.code	16
 295              		.thumb_func
ARM GAS  C:\Users\cypress\AppData\Local\Temp\ccubSXOs.s 			page 10


 296              		.type	CyBLE_Nvram_Erase, %function
 297              	CyBLE_Nvram_Erase:
 298              	.LFB3:
 215:Generated_Source\PSoC4/BLE_HAL_PVT.c **** 
 216:Generated_Source\PSoC4/BLE_HAL_PVT.c **** /*******************************************************************************
 217:Generated_Source\PSoC4/BLE_HAL_PVT.c **** * Function Name: CyBLE_Nvram_Erase
 218:Generated_Source\PSoC4/BLE_HAL_PVT.c **** ****************************************************************************//**
 219:Generated_Source\PSoC4/BLE_HAL_PVT.c **** *
 220:Generated_Source\PSoC4/BLE_HAL_PVT.c **** *  This API erases the data from the NVRAM store. This API will perform an 
 221:Generated_Source\PSoC4/BLE_HAL_PVT.c **** *  address range check based on the length before performing erase operation.
 222:Generated_Source\PSoC4/BLE_HAL_PVT.c **** *
 223:Generated_Source\PSoC4/BLE_HAL_PVT.c **** *  \param varFlash: the pointer to the array or variable in the flash.
 224:Generated_Source\PSoC4/BLE_HAL_PVT.c **** *  \param length:    the length of the data in bytes.
 225:Generated_Source\PSoC4/BLE_HAL_PVT.c **** *
 226:Generated_Source\PSoC4/BLE_HAL_PVT.c **** * \return
 227:Generated_Source\PSoC4/BLE_HAL_PVT.c **** *  CYRET_SUCCESS    a successful write
 228:Generated_Source\PSoC4/BLE_HAL_PVT.c **** *  CYRET_BAD_PARAM  A request to write outside the flash boundary.
 229:Generated_Source\PSoC4/BLE_HAL_PVT.c **** *  CYRET_UNKNOWN    Other errors in writing the flash
 230:Generated_Source\PSoC4/BLE_HAL_PVT.c **** *
 231:Generated_Source\PSoC4/BLE_HAL_PVT.c **** *******************************************************************************/
 232:Generated_Source\PSoC4/BLE_HAL_PVT.c **** cystatus CyBLE_Nvram_Erase (const uint8 *varFlash, uint16 length)
 233:Generated_Source\PSoC4/BLE_HAL_PVT.c **** {
 299              		.loc 1 233 0
 300              		.cfi_startproc
 301              		@ args = 0, pretend = 0, frame = 152
 302              		@ frame_needed = 1, uses_anonymous_args = 0
 303 0000 80B5     		push	{r7, lr}
 304              		.cfi_def_cfa_offset 8
 305              		.cfi_offset 7, -8
 306              		.cfi_offset 14, -4
 307 0002 A6B0     		sub	sp, sp, #152
 308              		.cfi_def_cfa_offset 160
 309 0004 00AF     		add	r7, sp, #0
 310              		.cfi_def_cfa_register 7
 311 0006 7860     		str	r0, [r7, #4]
 312 0008 0A00     		movs	r2, r1
 313 000a BB1C     		adds	r3, r7, #2
 314 000c 1A80     		strh	r2, [r3]
 234:Generated_Source\PSoC4/BLE_HAL_PVT.c ****     const uint8 *tempFlash;
 235:Generated_Source\PSoC4/BLE_HAL_PVT.c ****     uint8 flashBuffer[CY_FLASH_SIZEOF_ROW] = {0u};
 315              		.loc 1 235 0
 316 000e 0C23     		movs	r3, #12
 317 0010 FB18     		adds	r3, r7, r3
 318 0012 1800     		movs	r0, r3
 319 0014 8023     		movs	r3, #128
 320 0016 1A00     		movs	r2, r3
 321 0018 0021     		movs	r1, #0
 322 001a FFF7FEFF 		bl	memset
 236:Generated_Source\PSoC4/BLE_HAL_PVT.c ****     uint16 lengthFlash;
 237:Generated_Source\PSoC4/BLE_HAL_PVT.c ****     uint16 lengthRemaining;
 238:Generated_Source\PSoC4/BLE_HAL_PVT.c ****     cystatus rc = CYRET_UNKNOWN;
 323              		.loc 1 238 0
 324 001e 0123     		movs	r3, #1
 325 0020 5B42     		rsbs	r3, r3, #0
 326 0022 8C22     		movs	r2, #140
 327 0024 BA18     		adds	r2, r7, r2
 328 0026 1360     		str	r3, [r2]
ARM GAS  C:\Users\cypress\AppData\Local\Temp\ccubSXOs.s 			page 11


 239:Generated_Source\PSoC4/BLE_HAL_PVT.c **** 
 240:Generated_Source\PSoC4/BLE_HAL_PVT.c ****     tempFlash = varFlash;
 329              		.loc 1 240 0
 330 0028 7B68     		ldr	r3, [r7, #4]
 331 002a 9422     		movs	r2, #148
 332 002c BA18     		adds	r2, r7, r2
 333 002e 1360     		str	r3, [r2]
 241:Generated_Source\PSoC4/BLE_HAL_PVT.c ****     lengthRemaining = length;
 334              		.loc 1 241 0
 335 0030 9023     		movs	r3, #144
 336 0032 FB18     		adds	r3, r7, r3
 337 0034 BA1C     		adds	r2, r7, #2
 338 0036 1288     		ldrh	r2, [r2]
 339 0038 1A80     		strh	r2, [r3]
 242:Generated_Source\PSoC4/BLE_HAL_PVT.c **** 
 243:Generated_Source\PSoC4/BLE_HAL_PVT.c ****     while(lengthRemaining > 0u)
 340              		.loc 1 243 0
 341 003a 34E0     		b	.L17
 342              	.L22:
 244:Generated_Source\PSoC4/BLE_HAL_PVT.c ****     {
 245:Generated_Source\PSoC4/BLE_HAL_PVT.c ****         if(lengthRemaining < CY_FLASH_SIZEOF_ROW)
 343              		.loc 1 245 0
 344 003c 9023     		movs	r3, #144
 345 003e FB18     		adds	r3, r7, r3
 346 0040 1B88     		ldrh	r3, [r3]
 347 0042 7F2B     		cmp	r3, #127
 348 0044 06D8     		bhi	.L18
 246:Generated_Source\PSoC4/BLE_HAL_PVT.c ****         {
 247:Generated_Source\PSoC4/BLE_HAL_PVT.c ****             lengthFlash = lengthRemaining;
 349              		.loc 1 247 0
 350 0046 9223     		movs	r3, #146
 351 0048 FB18     		adds	r3, r7, r3
 352 004a 9022     		movs	r2, #144
 353 004c BA18     		adds	r2, r7, r2
 354 004e 1288     		ldrh	r2, [r2]
 355 0050 1A80     		strh	r2, [r3]
 356 0052 03E0     		b	.L19
 357              	.L18:
 248:Generated_Source\PSoC4/BLE_HAL_PVT.c ****         }
 249:Generated_Source\PSoC4/BLE_HAL_PVT.c ****         else
 250:Generated_Source\PSoC4/BLE_HAL_PVT.c ****         {
 251:Generated_Source\PSoC4/BLE_HAL_PVT.c ****             lengthFlash = CY_FLASH_SIZEOF_ROW;
 358              		.loc 1 251 0
 359 0054 9223     		movs	r3, #146
 360 0056 FB18     		adds	r3, r7, r3
 361 0058 8022     		movs	r2, #128
 362 005a 1A80     		strh	r2, [r3]
 363              	.L19:
 252:Generated_Source\PSoC4/BLE_HAL_PVT.c ****         }
 253:Generated_Source\PSoC4/BLE_HAL_PVT.c ****         rc = CyBLE_Nvram_Write(flashBuffer, tempFlash, lengthFlash);
 364              		.loc 1 253 0
 365 005c 9223     		movs	r3, #146
 366 005e FB18     		adds	r3, r7, r3
 367 0060 1A88     		ldrh	r2, [r3]
 368 0062 9423     		movs	r3, #148
 369 0064 FB18     		adds	r3, r7, r3
 370 0066 1968     		ldr	r1, [r3]
ARM GAS  C:\Users\cypress\AppData\Local\Temp\ccubSXOs.s 			page 12


 371 0068 0C23     		movs	r3, #12
 372 006a FB18     		adds	r3, r7, r3
 373 006c 1800     		movs	r0, r3
 374 006e FFF7FEFF 		bl	CyBLE_Nvram_Write
 375 0072 0300     		movs	r3, r0
 376 0074 8C22     		movs	r2, #140
 377 0076 BA18     		adds	r2, r7, r2
 378 0078 1360     		str	r3, [r2]
 254:Generated_Source\PSoC4/BLE_HAL_PVT.c ****         if(rc != CYRET_SUCCESS)
 379              		.loc 1 254 0
 380 007a 8C23     		movs	r3, #140
 381 007c FB18     		adds	r3, r7, r3
 382 007e 1B68     		ldr	r3, [r3]
 383 0080 002B     		cmp	r3, #0
 384 0082 16D1     		bne	.L24
 255:Generated_Source\PSoC4/BLE_HAL_PVT.c ****         {
 256:Generated_Source\PSoC4/BLE_HAL_PVT.c ****             break;
 257:Generated_Source\PSoC4/BLE_HAL_PVT.c ****         }
 258:Generated_Source\PSoC4/BLE_HAL_PVT.c ****         tempFlash += CY_FLASH_SIZEOF_ROW;
 385              		.loc 1 258 0
 386 0084 9423     		movs	r3, #148
 387 0086 FB18     		adds	r3, r7, r3
 388 0088 1B68     		ldr	r3, [r3]
 389 008a 8033     		adds	r3, r3, #128
 390 008c 9422     		movs	r2, #148
 391 008e BA18     		adds	r2, r7, r2
 392 0090 1360     		str	r3, [r2]
 259:Generated_Source\PSoC4/BLE_HAL_PVT.c ****         lengthRemaining -= lengthFlash;
 393              		.loc 1 259 0
 394 0092 9023     		movs	r3, #144
 395 0094 FB18     		adds	r3, r7, r3
 396 0096 9022     		movs	r2, #144
 397 0098 B918     		adds	r1, r7, r2
 398 009a 9222     		movs	r2, #146
 399 009c BA18     		adds	r2, r7, r2
 400 009e 0988     		ldrh	r1, [r1]
 401 00a0 1288     		ldrh	r2, [r2]
 402 00a2 8A1A     		subs	r2, r1, r2
 403 00a4 1A80     		strh	r2, [r3]
 404              	.L17:
 243:Generated_Source\PSoC4/BLE_HAL_PVT.c ****     {
 405              		.loc 1 243 0
 406 00a6 9023     		movs	r3, #144
 407 00a8 FB18     		adds	r3, r7, r3
 408 00aa 1B88     		ldrh	r3, [r3]
 409 00ac 002B     		cmp	r3, #0
 410 00ae C5D1     		bne	.L22
 411 00b0 00E0     		b	.L21
 412              	.L24:
 256:Generated_Source\PSoC4/BLE_HAL_PVT.c ****         }
 413              		.loc 1 256 0
 414 00b2 C046     		nop
 415              	.L21:
 260:Generated_Source\PSoC4/BLE_HAL_PVT.c ****     }
 261:Generated_Source\PSoC4/BLE_HAL_PVT.c **** 
 262:Generated_Source\PSoC4/BLE_HAL_PVT.c ****     return rc;
 416              		.loc 1 262 0
ARM GAS  C:\Users\cypress\AppData\Local\Temp\ccubSXOs.s 			page 13


 417 00b4 8C23     		movs	r3, #140
 418 00b6 FB18     		adds	r3, r7, r3
 419 00b8 1B68     		ldr	r3, [r3]
 263:Generated_Source\PSoC4/BLE_HAL_PVT.c **** }
 420              		.loc 1 263 0
 421 00ba 1800     		movs	r0, r3
 422 00bc BD46     		mov	sp, r7
 423 00be 26B0     		add	sp, sp, #152
 424              		@ sp needed
 425 00c0 80BD     		pop	{r7, pc}
 426              		.cfi_endproc
 427              	.LFE3:
 428              		.size	CyBLE_Nvram_Erase, .-CyBLE_Nvram_Erase
 429 00c2 C046     		.section	.text.CyBLE_Bless_LlRegRead,"ax",%progbits
 430              		.align	2
 431              		.global	CyBLE_Bless_LlRegRead
 432              		.code	16
 433              		.thumb_func
 434              		.type	CyBLE_Bless_LlRegRead, %function
 435              	CyBLE_Bless_LlRegRead:
 436              	.LFB4:
 264:Generated_Source\PSoC4/BLE_HAL_PVT.c **** 
 265:Generated_Source\PSoC4/BLE_HAL_PVT.c **** 
 266:Generated_Source\PSoC4/BLE_HAL_PVT.c **** /*******************************************************************************
 267:Generated_Source\PSoC4/BLE_HAL_PVT.c **** * Function Name: CyBLE_Bless_LlRegRead
 268:Generated_Source\PSoC4/BLE_HAL_PVT.c **** ****************************************************************************//**
 269:Generated_Source\PSoC4/BLE_HAL_PVT.c **** *
 270:Generated_Source\PSoC4/BLE_HAL_PVT.c **** *  This API reads the content of the BLESS Link Layer register from the stack.
 271:Generated_Source\PSoC4/BLE_HAL_PVT.c **** *
 272:Generated_Source\PSoC4/BLE_HAL_PVT.c **** *  \param blessAddr: the pointer to the BLESS link layer address.
 273:Generated_Source\PSoC4/BLE_HAL_PVT.c **** *  \param regValue: the pointer to the buffer space to copy the read value.
 274:Generated_Source\PSoC4/BLE_HAL_PVT.c **** *
 275:Generated_Source\PSoC4/BLE_HAL_PVT.c **** * \return
 276:Generated_Source\PSoC4/BLE_HAL_PVT.c **** *  None
 277:Generated_Source\PSoC4/BLE_HAL_PVT.c **** *
 278:Generated_Source\PSoC4/BLE_HAL_PVT.c **** *******************************************************************************/
 279:Generated_Source\PSoC4/BLE_HAL_PVT.c **** void CyBLE_Bless_LlRegRead (const reg32 *blessAddr, uint16 *regValue)
 280:Generated_Source\PSoC4/BLE_HAL_PVT.c **** {
 437              		.loc 1 280 0
 438              		.cfi_startproc
 439              		@ args = 0, pretend = 0, frame = 8
 440              		@ frame_needed = 1, uses_anonymous_args = 0
 441 0000 80B5     		push	{r7, lr}
 442              		.cfi_def_cfa_offset 8
 443              		.cfi_offset 7, -8
 444              		.cfi_offset 14, -4
 445 0002 82B0     		sub	sp, sp, #8
 446              		.cfi_def_cfa_offset 16
 447 0004 00AF     		add	r7, sp, #0
 448              		.cfi_def_cfa_register 7
 449 0006 7860     		str	r0, [r7, #4]
 450 0008 3960     		str	r1, [r7]
 281:Generated_Source\PSoC4/BLE_HAL_PVT.c ****     *regValue = (uint16)CY_GET_REG32(blessAddr);
 451              		.loc 1 281 0
 452 000a 7B68     		ldr	r3, [r7, #4]
 453 000c 1B68     		ldr	r3, [r3]
 454 000e 9AB2     		uxth	r2, r3
ARM GAS  C:\Users\cypress\AppData\Local\Temp\ccubSXOs.s 			page 14


 455 0010 3B68     		ldr	r3, [r7]
 456 0012 1A80     		strh	r2, [r3]
 282:Generated_Source\PSoC4/BLE_HAL_PVT.c **** }
 457              		.loc 1 282 0
 458 0014 C046     		nop
 459 0016 BD46     		mov	sp, r7
 460 0018 02B0     		add	sp, sp, #8
 461              		@ sp needed
 462 001a 80BD     		pop	{r7, pc}
 463              		.cfi_endproc
 464              	.LFE4:
 465              		.size	CyBLE_Bless_LlRegRead, .-CyBLE_Bless_LlRegRead
 466              		.section	.text.CyBLE_Bless_LlRegWrite,"ax",%progbits
 467              		.align	2
 468              		.global	CyBLE_Bless_LlRegWrite
 469              		.code	16
 470              		.thumb_func
 471              		.type	CyBLE_Bless_LlRegWrite, %function
 472              	CyBLE_Bless_LlRegWrite:
 473              	.LFB5:
 283:Generated_Source\PSoC4/BLE_HAL_PVT.c **** 
 284:Generated_Source\PSoC4/BLE_HAL_PVT.c **** 
 285:Generated_Source\PSoC4/BLE_HAL_PVT.c **** /*******************************************************************************
 286:Generated_Source\PSoC4/BLE_HAL_PVT.c **** * Function Name: CyBLE_Bless_LlRegWrite
 287:Generated_Source\PSoC4/BLE_HAL_PVT.c **** ****************************************************************************//**
 288:Generated_Source\PSoC4/BLE_HAL_PVT.c **** *
 289:Generated_Source\PSoC4/BLE_HAL_PVT.c **** *  This API writes to the BLESS Link Layer register from the stack.
 290:Generated_Source\PSoC4/BLE_HAL_PVT.c **** *
 291:Generated_Source\PSoC4/BLE_HAL_PVT.c **** *  \param blessAddr: the pointer to the BLESS link layer address.
 292:Generated_Source\PSoC4/BLE_HAL_PVT.c **** *  \param regValue: the pointer to the value to be written to the BLESS LL reg.
 293:Generated_Source\PSoC4/BLE_HAL_PVT.c **** *
 294:Generated_Source\PSoC4/BLE_HAL_PVT.c **** * \return
 295:Generated_Source\PSoC4/BLE_HAL_PVT.c **** *  None
 296:Generated_Source\PSoC4/BLE_HAL_PVT.c **** *
 297:Generated_Source\PSoC4/BLE_HAL_PVT.c **** *******************************************************************************/
 298:Generated_Source\PSoC4/BLE_HAL_PVT.c **** void CyBLE_Bless_LlRegWrite (reg32 *blessAddr, const uint16 regValue)
 299:Generated_Source\PSoC4/BLE_HAL_PVT.c **** {
 474              		.loc 1 299 0
 475              		.cfi_startproc
 476              		@ args = 0, pretend = 0, frame = 8
 477              		@ frame_needed = 1, uses_anonymous_args = 0
 478 0000 80B5     		push	{r7, lr}
 479              		.cfi_def_cfa_offset 8
 480              		.cfi_offset 7, -8
 481              		.cfi_offset 14, -4
 482 0002 82B0     		sub	sp, sp, #8
 483              		.cfi_def_cfa_offset 16
 484 0004 00AF     		add	r7, sp, #0
 485              		.cfi_def_cfa_register 7
 486 0006 7860     		str	r0, [r7, #4]
 487 0008 0A00     		movs	r2, r1
 488 000a BB1C     		adds	r3, r7, #2
 489 000c 1A80     		strh	r2, [r3]
 300:Generated_Source\PSoC4/BLE_HAL_PVT.c ****     CY_SET_REG32(blessAddr, regValue);
 490              		.loc 1 300 0
 491 000e BB1C     		adds	r3, r7, #2
 492 0010 1A88     		ldrh	r2, [r3]
ARM GAS  C:\Users\cypress\AppData\Local\Temp\ccubSXOs.s 			page 15


 493 0012 7B68     		ldr	r3, [r7, #4]
 494 0014 1A60     		str	r2, [r3]
 301:Generated_Source\PSoC4/BLE_HAL_PVT.c **** }
 495              		.loc 1 301 0
 496 0016 C046     		nop
 497 0018 BD46     		mov	sp, r7
 498 001a 02B0     		add	sp, sp, #8
 499              		@ sp needed
 500 001c 80BD     		pop	{r7, pc}
 501              		.cfi_endproc
 502              	.LFE5:
 503              		.size	CyBLE_Bless_LlRegWrite, .-CyBLE_Bless_LlRegWrite
 504 001e C046     		.section	.text.CyBLE_Bless_RfRegRead,"ax",%progbits
 505              		.align	2
 506              		.global	CyBLE_Bless_RfRegRead
 507              		.code	16
 508              		.thumb_func
 509              		.type	CyBLE_Bless_RfRegRead, %function
 510              	CyBLE_Bless_RfRegRead:
 511              	.LFB6:
 302:Generated_Source\PSoC4/BLE_HAL_PVT.c **** 
 303:Generated_Source\PSoC4/BLE_HAL_PVT.c **** 
 304:Generated_Source\PSoC4/BLE_HAL_PVT.c **** /*******************************************************************************
 305:Generated_Source\PSoC4/BLE_HAL_PVT.c **** * Function Name: CyBLE_Bless_RfRegRead
 306:Generated_Source\PSoC4/BLE_HAL_PVT.c **** ****************************************************************************//**
 307:Generated_Source\PSoC4/BLE_HAL_PVT.c **** *
 308:Generated_Source\PSoC4/BLE_HAL_PVT.c **** *  This API reads the content of the BLESS RF register from the stack.
 309:Generated_Source\PSoC4/BLE_HAL_PVT.c **** *
 310:Generated_Source\PSoC4/BLE_HAL_PVT.c **** *  \param blessAddr: the pointer to BLESS RF register address.
 311:Generated_Source\PSoC4/BLE_HAL_PVT.c **** *  \param regValue: the pointer to the buffer space to copy the read value.
 312:Generated_Source\PSoC4/BLE_HAL_PVT.c **** *
 313:Generated_Source\PSoC4/BLE_HAL_PVT.c **** * \return
 314:Generated_Source\PSoC4/BLE_HAL_PVT.c **** *  None
 315:Generated_Source\PSoC4/BLE_HAL_PVT.c **** *
 316:Generated_Source\PSoC4/BLE_HAL_PVT.c **** *******************************************************************************/
 317:Generated_Source\PSoC4/BLE_HAL_PVT.c **** void CyBLE_Bless_RfRegRead (const reg32 *blessAddr, uint16 *regValue)
 318:Generated_Source\PSoC4/BLE_HAL_PVT.c **** {
 512              		.loc 1 318 0
 513              		.cfi_startproc
 514              		@ args = 0, pretend = 0, frame = 8
 515              		@ frame_needed = 1, uses_anonymous_args = 0
 516 0000 80B5     		push	{r7, lr}
 517              		.cfi_def_cfa_offset 8
 518              		.cfi_offset 7, -8
 519              		.cfi_offset 14, -4
 520 0002 82B0     		sub	sp, sp, #8
 521              		.cfi_def_cfa_offset 16
 522 0004 00AF     		add	r7, sp, #0
 523              		.cfi_def_cfa_register 7
 524 0006 7860     		str	r0, [r7, #4]
 525 0008 3960     		str	r1, [r7]
 319:Generated_Source\PSoC4/BLE_HAL_PVT.c ****     *regValue = (uint16)CY_GET_REG32(blessAddr);
 526              		.loc 1 319 0
 527 000a 7B68     		ldr	r3, [r7, #4]
 528 000c 1B68     		ldr	r3, [r3]
 529 000e 9AB2     		uxth	r2, r3
 530 0010 3B68     		ldr	r3, [r7]
ARM GAS  C:\Users\cypress\AppData\Local\Temp\ccubSXOs.s 			page 16


 531 0012 1A80     		strh	r2, [r3]
 320:Generated_Source\PSoC4/BLE_HAL_PVT.c **** }
 532              		.loc 1 320 0
 533 0014 C046     		nop
 534 0016 BD46     		mov	sp, r7
 535 0018 02B0     		add	sp, sp, #8
 536              		@ sp needed
 537 001a 80BD     		pop	{r7, pc}
 538              		.cfi_endproc
 539              	.LFE6:
 540              		.size	CyBLE_Bless_RfRegRead, .-CyBLE_Bless_RfRegRead
 541              		.section	.text.CyBLE_Bless_RfRegWrite,"ax",%progbits
 542              		.align	2
 543              		.global	CyBLE_Bless_RfRegWrite
 544              		.code	16
 545              		.thumb_func
 546              		.type	CyBLE_Bless_RfRegWrite, %function
 547              	CyBLE_Bless_RfRegWrite:
 548              	.LFB7:
 321:Generated_Source\PSoC4/BLE_HAL_PVT.c **** 
 322:Generated_Source\PSoC4/BLE_HAL_PVT.c **** 
 323:Generated_Source\PSoC4/BLE_HAL_PVT.c **** /*******************************************************************************
 324:Generated_Source\PSoC4/BLE_HAL_PVT.c **** * Function Name: CyBLE_Bless_RfRegWrite
 325:Generated_Source\PSoC4/BLE_HAL_PVT.c **** ****************************************************************************//**
 326:Generated_Source\PSoC4/BLE_HAL_PVT.c **** *
 327:Generated_Source\PSoC4/BLE_HAL_PVT.c **** *  This API writes to the BLESS RF register from the stack.
 328:Generated_Source\PSoC4/BLE_HAL_PVT.c **** *
 329:Generated_Source\PSoC4/BLE_HAL_PVT.c **** *  \param blessAddr: the pointer to the BLESS RF address.
 330:Generated_Source\PSoC4/BLE_HAL_PVT.c **** *  \param regValue: the pointer to the value to be written to the BLESS RF reg.
 331:Generated_Source\PSoC4/BLE_HAL_PVT.c **** *
 332:Generated_Source\PSoC4/BLE_HAL_PVT.c **** * \return
 333:Generated_Source\PSoC4/BLE_HAL_PVT.c **** *  None
 334:Generated_Source\PSoC4/BLE_HAL_PVT.c **** *
 335:Generated_Source\PSoC4/BLE_HAL_PVT.c **** *******************************************************************************/
 336:Generated_Source\PSoC4/BLE_HAL_PVT.c **** void CyBLE_Bless_RfRegWrite (reg32 *blessAddr, const uint16 regValue)
 337:Generated_Source\PSoC4/BLE_HAL_PVT.c **** {
 549              		.loc 1 337 0
 550              		.cfi_startproc
 551              		@ args = 0, pretend = 0, frame = 8
 552              		@ frame_needed = 1, uses_anonymous_args = 0
 553 0000 80B5     		push	{r7, lr}
 554              		.cfi_def_cfa_offset 8
 555              		.cfi_offset 7, -8
 556              		.cfi_offset 14, -4
 557 0002 82B0     		sub	sp, sp, #8
 558              		.cfi_def_cfa_offset 16
 559 0004 00AF     		add	r7, sp, #0
 560              		.cfi_def_cfa_register 7
 561 0006 7860     		str	r0, [r7, #4]
 562 0008 0A00     		movs	r2, r1
 563 000a BB1C     		adds	r3, r7, #2
 564 000c 1A80     		strh	r2, [r3]
 338:Generated_Source\PSoC4/BLE_HAL_PVT.c ****      CY_SET_REG32(blessAddr, regValue);
 565              		.loc 1 338 0
 566 000e BB1C     		adds	r3, r7, #2
 567 0010 1A88     		ldrh	r2, [r3]
 568 0012 7B68     		ldr	r3, [r7, #4]
ARM GAS  C:\Users\cypress\AppData\Local\Temp\ccubSXOs.s 			page 17


 569 0014 1A60     		str	r2, [r3]
 339:Generated_Source\PSoC4/BLE_HAL_PVT.c **** }
 570              		.loc 1 339 0
 571 0016 C046     		nop
 572 0018 BD46     		mov	sp, r7
 573 001a 02B0     		add	sp, sp, #8
 574              		@ sp needed
 575 001c 80BD     		pop	{r7, pc}
 576              		.cfi_endproc
 577              	.LFE7:
 578              		.size	CyBLE_Bless_RfRegWrite, .-CyBLE_Bless_RfRegWrite
 579 001e C046     		.section	.text.CyBLE_BlessDeviceConfig,"ax",%progbits
 580              		.align	2
 581              		.global	CyBLE_BlessDeviceConfig
 582              		.code	16
 583              		.thumb_func
 584              		.type	CyBLE_BlessDeviceConfig, %function
 585              	CyBLE_BlessDeviceConfig:
 586              	.LFB8:
 340:Generated_Source\PSoC4/BLE_HAL_PVT.c **** 
 341:Generated_Source\PSoC4/BLE_HAL_PVT.c **** /*******************************************************************************
 342:Generated_Source\PSoC4/BLE_HAL_PVT.c **** * Function Name: CyBLE_BlessDeviceConfig
 343:Generated_Source\PSoC4/BLE_HAL_PVT.c **** ****************************************************************************//**
 344:Generated_Source\PSoC4/BLE_HAL_PVT.c **** *
 345:Generated_Source\PSoC4/BLE_HAL_PVT.c **** *  This function configures BLESS registers by trimmed values stored in SFLASH.
 346:Generated_Source\PSoC4/BLE_HAL_PVT.c **** *
 347:Generated_Source\PSoC4/BLE_HAL_PVT.c **** * \return
 348:Generated_Source\PSoC4/BLE_HAL_PVT.c **** *  None
 349:Generated_Source\PSoC4/BLE_HAL_PVT.c **** *
 350:Generated_Source\PSoC4/BLE_HAL_PVT.c **** *******************************************************************************/
 351:Generated_Source\PSoC4/BLE_HAL_PVT.c **** void CyBLE_BlessDeviceConfig(void)
 352:Generated_Source\PSoC4/BLE_HAL_PVT.c **** {
 587              		.loc 1 352 0
 588              		.cfi_startproc
 589              		@ args = 0, pretend = 0, frame = 16
 590              		@ frame_needed = 1, uses_anonymous_args = 0
 591 0000 80B5     		push	{r7, lr}
 592              		.cfi_def_cfa_offset 8
 593              		.cfi_offset 7, -8
 594              		.cfi_offset 14, -4
 595 0002 84B0     		sub	sp, sp, #16
 596              		.cfi_def_cfa_offset 24
 597 0004 00AF     		add	r7, sp, #0
 598              		.cfi_def_cfa_register 7
 353:Generated_Source\PSoC4/BLE_HAL_PVT.c **** #if (CYIPBLOCK_m0s8bless_VERSION < 3)
 354:Generated_Source\PSoC4/BLE_HAL_PVT.c ****     
 355:Generated_Source\PSoC4/BLE_HAL_PVT.c ****     uint32 trimRegValue;
 356:Generated_Source\PSoC4/BLE_HAL_PVT.c ****     uint32 ldo;
 357:Generated_Source\PSoC4/BLE_HAL_PVT.c ****     uint16 trimRef34Val;
 358:Generated_Source\PSoC4/BLE_HAL_PVT.c ****     uint16 trimRef38Val;    
 359:Generated_Source\PSoC4/BLE_HAL_PVT.c ****     uint32 siliconRev;
 360:Generated_Source\PSoC4/BLE_HAL_PVT.c **** 
 361:Generated_Source\PSoC4/BLE_HAL_PVT.c ****     trimRegValue = ((uint32)CYBLE_SFLASH_BLESS_BB_BUMP2_HIGH_REG << 8u) | CYBLE_SFLASH_BLESS_BB_BUM
 599              		.loc 1 361 0
 600 0006 494B     		ldr	r3, .L38
 601 0008 1B78     		ldrb	r3, [r3]
 602 000a DBB2     		uxtb	r3, r3
ARM GAS  C:\Users\cypress\AppData\Local\Temp\ccubSXOs.s 			page 18


 603 000c 1B02     		lsls	r3, r3, #8
 604 000e 484A     		ldr	r2, .L38+4
 605 0010 1278     		ldrb	r2, [r2]
 606 0012 D2B2     		uxtb	r2, r2
 607 0014 1343     		orrs	r3, r2
 608 0016 FB60     		str	r3, [r7, #12]
 362:Generated_Source\PSoC4/BLE_HAL_PVT.c ****     ldo = ((uint32)CYBLE_SFLASH_BLESS_LDO_HIGH_REG << 8u) | CYBLE_SFLASH_BLESS_LDO_LOW_REG;
 609              		.loc 1 362 0
 610 0018 464B     		ldr	r3, .L38+8
 611 001a 1B78     		ldrb	r3, [r3]
 612 001c DBB2     		uxtb	r3, r3
 613 001e 1B02     		lsls	r3, r3, #8
 614 0020 454A     		ldr	r2, .L38+12
 615 0022 1278     		ldrb	r2, [r2]
 616 0024 D2B2     		uxtb	r2, r2
 617 0026 1343     		orrs	r3, r2
 618 0028 BB60     		str	r3, [r7, #8]
 363:Generated_Source\PSoC4/BLE_HAL_PVT.c **** 
 364:Generated_Source\PSoC4/BLE_HAL_PVT.c ****     if ((ldo == CYBLE_SFLASH_BLERD_LDO_REG_VAL1) && (trimRegValue == CYBLE_SFLASH_BLERD_BB_BUMP2_RE
 619              		.loc 1 364 0
 620 002a BB68     		ldr	r3, [r7, #8]
 621 002c 434A     		ldr	r2, .L38+16
 622 002e 9342     		cmp	r3, r2
 623 0030 07D1     		bne	.L30
 624              		.loc 1 364 0 is_stmt 0 discriminator 1
 625 0032 FB68     		ldr	r3, [r7, #12]
 626 0034 072B     		cmp	r3, #7
 627 0036 04D1     		bne	.L30
 365:Generated_Source\PSoC4/BLE_HAL_PVT.c ****     {
 366:Generated_Source\PSoC4/BLE_HAL_PVT.c ****         ldo = CYBLE_BLERD_LDO_REG_VAL_FINAL;
 628              		.loc 1 366 0 is_stmt 1
 629 0038 414B     		ldr	r3, .L38+20
 630 003a BB60     		str	r3, [r7, #8]
 367:Generated_Source\PSoC4/BLE_HAL_PVT.c ****         trimRegValue = CYBLE_BLERD_BB_BUMP2_REG_VAL_FINAL;
 631              		.loc 1 367 0
 632 003c 0423     		movs	r3, #4
 633 003e FB60     		str	r3, [r7, #12]
 634 0040 09E0     		b	.L31
 635              	.L30:
 368:Generated_Source\PSoC4/BLE_HAL_PVT.c ****     }
 369:Generated_Source\PSoC4/BLE_HAL_PVT.c ****     else if ((ldo == CYBLE_SFLASH_BLERD_LDO_REG_VAL2) && (trimRegValue == CYBLE_BLERD_BB_BUMP2_REG_
 636              		.loc 1 369 0
 637 0042 BA68     		ldr	r2, [r7, #8]
 638 0044 D423     		movs	r3, #212
 639 0046 1B01     		lsls	r3, r3, #4
 640 0048 9A42     		cmp	r2, r3
 641 004a 04D1     		bne	.L31
 642              		.loc 1 369 0 is_stmt 0 discriminator 1
 643 004c FB68     		ldr	r3, [r7, #12]
 644 004e 042B     		cmp	r3, #4
 645 0050 01D1     		bne	.L31
 370:Generated_Source\PSoC4/BLE_HAL_PVT.c ****     {
 371:Generated_Source\PSoC4/BLE_HAL_PVT.c ****         ldo = CYBLE_BLERD_LDO_REG_VAL_FINAL;
 646              		.loc 1 371 0 is_stmt 1
 647 0052 3B4B     		ldr	r3, .L38+20
 648 0054 BB60     		str	r3, [r7, #8]
 649              	.L31:
ARM GAS  C:\Users\cypress\AppData\Local\Temp\ccubSXOs.s 			page 19


 372:Generated_Source\PSoC4/BLE_HAL_PVT.c ****     }
 373:Generated_Source\PSoC4/BLE_HAL_PVT.c ****     else
 374:Generated_Source\PSoC4/BLE_HAL_PVT.c ****     {
 375:Generated_Source\PSoC4/BLE_HAL_PVT.c ****     }
 376:Generated_Source\PSoC4/BLE_HAL_PVT.c **** 
 377:Generated_Source\PSoC4/BLE_HAL_PVT.c ****     CYBLE_BLE_BLERD_LDO_REG = ldo;
 650              		.loc 1 377 0
 651 0056 3B4B     		ldr	r3, .L38+24
 652 0058 BA68     		ldr	r2, [r7, #8]
 653 005a 1A60     		str	r2, [r3]
 378:Generated_Source\PSoC4/BLE_HAL_PVT.c ****     CYBLE_BLE_BLERD_BB_BUMP2_REG = trimRegValue;
 654              		.loc 1 378 0
 655 005c 3A4B     		ldr	r3, .L38+28
 656 005e FA68     		ldr	r2, [r7, #12]
 657 0060 1A60     		str	r2, [r3]
 379:Generated_Source\PSoC4/BLE_HAL_PVT.c **** 
 380:Generated_Source\PSoC4/BLE_HAL_PVT.c ****     /* Edit only XTAL fast charge bit */
 381:Generated_Source\PSoC4/BLE_HAL_PVT.c ****     trimRegValue = ((uint32)CYBLE_SFLASH_BLESS_BB_XO_HIGH_REG << 8u) | CYBLE_SFLASH_BLESS_BB_XO_LOW
 658              		.loc 1 381 0
 659 0062 3A4B     		ldr	r3, .L38+32
 660 0064 1B78     		ldrb	r3, [r3]
 661 0066 DBB2     		uxtb	r3, r3
 662 0068 1B02     		lsls	r3, r3, #8
 663 006a 394A     		ldr	r2, .L38+36
 664 006c 1278     		ldrb	r2, [r2]
 665 006e D2B2     		uxtb	r2, r2
 666 0070 1343     		orrs	r3, r2
 667 0072 FB60     		str	r3, [r7, #12]
 382:Generated_Source\PSoC4/BLE_HAL_PVT.c **** 
 383:Generated_Source\PSoC4/BLE_HAL_PVT.c ****     if ((trimRegValue == CYBLE_SFLASH_BLERD_BB_XO_REG_VAL1) || (trimRegValue == CYBLE_SFLASH_BLERD_
 668              		.loc 1 383 0
 669 0074 FA68     		ldr	r2, [r7, #12]
 670 0076 8023     		movs	r3, #128
 671 0078 9B01     		lsls	r3, r3, #6
 672 007a 9A42     		cmp	r2, r3
 673 007c 02D0     		beq	.L32
 674              		.loc 1 383 0 is_stmt 0 discriminator 1
 675 007e FB68     		ldr	r3, [r7, #12]
 676 0080 002B     		cmp	r3, #0
 677 0082 01D1     		bne	.L33
 678              	.L32:
 384:Generated_Source\PSoC4/BLE_HAL_PVT.c ****     {
 385:Generated_Source\PSoC4/BLE_HAL_PVT.c ****         trimRegValue = CYBLE_BLERD_BB_XO_REG_VAL_FINAL;
 679              		.loc 1 385 0 is_stmt 1
 680 0084 334B     		ldr	r3, .L38+40
 681 0086 FB60     		str	r3, [r7, #12]
 682              	.L33:
 386:Generated_Source\PSoC4/BLE_HAL_PVT.c ****     }
 387:Generated_Source\PSoC4/BLE_HAL_PVT.c ****     
 388:Generated_Source\PSoC4/BLE_HAL_PVT.c ****     CYBLE_BLE_BLERD_BB_XO_REG = trimRegValue;
 683              		.loc 1 388 0
 684 0088 334B     		ldr	r3, .L38+44
 685 008a FA68     		ldr	r2, [r7, #12]
 686 008c 1A60     		str	r2, [r3]
 389:Generated_Source\PSoC4/BLE_HAL_PVT.c ****     
 390:Generated_Source\PSoC4/BLE_HAL_PVT.c ****     trimRegValue = ((uint32)CYBLE_SFLASH_BLESS_SY_BUMP1_HIGH_REG << 8u) | CYBLE_SFLASH_BLESS_SY_BUM
 687              		.loc 1 390 0
ARM GAS  C:\Users\cypress\AppData\Local\Temp\ccubSXOs.s 			page 20


 688 008e 334B     		ldr	r3, .L38+48
 689 0090 1B78     		ldrb	r3, [r3]
 690 0092 DBB2     		uxtb	r3, r3
 691 0094 1B02     		lsls	r3, r3, #8
 692 0096 324A     		ldr	r2, .L38+52
 693 0098 1278     		ldrb	r2, [r2]
 694 009a D2B2     		uxtb	r2, r2
 695 009c 1343     		orrs	r3, r2
 696 009e FB60     		str	r3, [r7, #12]
 391:Generated_Source\PSoC4/BLE_HAL_PVT.c **** 
 392:Generated_Source\PSoC4/BLE_HAL_PVT.c ****     if ((trimRegValue == CYBLE_SFLASH_BLERD_SY_BUMP1_REG_VAL1) || 
 697              		.loc 1 392 0
 698 00a0 FB68     		ldr	r3, [r7, #12]
 699 00a2 304A     		ldr	r2, .L38+56
 700 00a4 9342     		cmp	r3, r2
 701 00a6 06D0     		beq	.L34
 702              		.loc 1 392 0 is_stmt 0 discriminator 1
 703 00a8 FB68     		ldr	r3, [r7, #12]
 704 00aa 2F4A     		ldr	r2, .L38+60
 705 00ac 9342     		cmp	r3, r2
 706 00ae 02D0     		beq	.L34
 393:Generated_Source\PSoC4/BLE_HAL_PVT.c ****         (trimRegValue == CYBLE_SFLASH_BLERD_SY_BUMP1_REG_VAL2) ||  
 707              		.loc 1 393 0 is_stmt 1
 708 00b0 FB68     		ldr	r3, [r7, #12]
 709 00b2 052B     		cmp	r3, #5
 710 00b4 01D1     		bne	.L35
 711              	.L34:
 394:Generated_Source\PSoC4/BLE_HAL_PVT.c ****         (trimRegValue == CYBLE_SFLASH_BLERD_SY_BUMP1_REG_VAL3))
 395:Generated_Source\PSoC4/BLE_HAL_PVT.c ****     {
 396:Generated_Source\PSoC4/BLE_HAL_PVT.c ****         trimRegValue = CYBLE_BLERD_SY_BUMP1_REG_VAL_FINAL;
 712              		.loc 1 396 0
 713 00b6 2D4B     		ldr	r3, .L38+64
 714 00b8 FB60     		str	r3, [r7, #12]
 715              	.L35:
 397:Generated_Source\PSoC4/BLE_HAL_PVT.c ****     }
 398:Generated_Source\PSoC4/BLE_HAL_PVT.c ****     CYBLE_BLE_BLERD_SY_BUMP1_REG = trimRegValue;
 716              		.loc 1 398 0
 717 00ba 2D4B     		ldr	r3, .L38+68
 718 00bc FA68     		ldr	r2, [r7, #12]
 719 00be 1A60     		str	r2, [r3]
 399:Generated_Source\PSoC4/BLE_HAL_PVT.c **** 
 400:Generated_Source\PSoC4/BLE_HAL_PVT.c ****     /* Following code is for F02FN trimming */
 401:Generated_Source\PSoC4/BLE_HAL_PVT.c ****     siliconRev = (CYBLE_BLE_SILICON_REV_REG >> 4u);
 720              		.loc 1 401 0
 721 00c0 2C4B     		ldr	r3, .L38+72
 722 00c2 1B68     		ldr	r3, [r3]
 723 00c4 1B09     		lsrs	r3, r3, #4
 724 00c6 7B60     		str	r3, [r7, #4]
 402:Generated_Source\PSoC4/BLE_HAL_PVT.c ****     
 403:Generated_Source\PSoC4/BLE_HAL_PVT.c ****     if((CYBLE_BLE_FAMILY_ID_REG == CYBLE_PSOC4A_BLE256DMA_FID) && (siliconRev >= 0x02u) &&
 725              		.loc 1 403 0
 726 00c8 2B4B     		ldr	r3, .L38+76
 727 00ca 1B68     		ldr	r3, [r3]
 728 00cc AA2B     		cmp	r3, #170
 729 00ce 29D1     		bne	.L37
 730              		.loc 1 403 0 is_stmt 0 discriminator 1
 731 00d0 7B68     		ldr	r3, [r7, #4]
ARM GAS  C:\Users\cypress\AppData\Local\Temp\ccubSXOs.s 			page 21


 732 00d2 012B     		cmp	r3, #1
 733 00d4 26D9     		bls	.L37
 404:Generated_Source\PSoC4/BLE_HAL_PVT.c ****         (CYBLE_SFLASH_BLESS_SY_BUMP1_HIGH_REG == 0x0Eu))
 734              		.loc 1 404 0 is_stmt 1 discriminator 2
 735 00d6 214B     		ldr	r3, .L38+48
 736 00d8 1B78     		ldrb	r3, [r3]
 737 00da DBB2     		uxtb	r3, r3
 403:Generated_Source\PSoC4/BLE_HAL_PVT.c ****         (CYBLE_SFLASH_BLESS_SY_BUMP1_HIGH_REG == 0x0Eu))
 738              		.loc 1 403 0 discriminator 2
 739 00dc 0E2B     		cmp	r3, #14
 740 00de 21D1     		bne	.L37
 405:Generated_Source\PSoC4/BLE_HAL_PVT.c **** 	{
 406:Generated_Source\PSoC4/BLE_HAL_PVT.c **** 		trimRef34Val = ((uint16)(((uint16) CYBLE_BLE_BLESS_REG34_TRIM_HIGH_REG) << 8u)) |
 741              		.loc 1 406 0
 742 00e0 264B     		ldr	r3, .L38+80
 743 00e2 1B78     		ldrb	r3, [r3]
 744 00e4 DBB2     		uxtb	r3, r3
 745 00e6 9BB2     		uxth	r3, r3
 746 00e8 1B02     		lsls	r3, r3, #8
 747 00ea 99B2     		uxth	r1, r3
 407:Generated_Source\PSoC4/BLE_HAL_PVT.c ****                         ((uint16)CYBLE_BLE_BLESS_REG34_TRIM_LOW_REG);
 748              		.loc 1 407 0
 749 00ec 244B     		ldr	r3, .L38+84
 750 00ee 1B78     		ldrb	r3, [r3]
 751 00f0 DBB2     		uxtb	r3, r3
 406:Generated_Source\PSoC4/BLE_HAL_PVT.c ****                         ((uint16)CYBLE_BLE_BLESS_REG34_TRIM_LOW_REG);
 752              		.loc 1 406 0
 753 00f2 9AB2     		uxth	r2, r3
 754 00f4 BB1C     		adds	r3, r7, #2
 755 00f6 0A43     		orrs	r2, r1
 756 00f8 1A80     		strh	r2, [r3]
 408:Generated_Source\PSoC4/BLE_HAL_PVT.c **** 		CYBLE_BLERD_SY_BUMP2_REG = trimRef34Val;
 757              		.loc 1 408 0
 758 00fa 224B     		ldr	r3, .L38+88
 759 00fc BA1C     		adds	r2, r7, #2
 760 00fe 1288     		ldrh	r2, [r2]
 761 0100 1A60     		str	r2, [r3]
 409:Generated_Source\PSoC4/BLE_HAL_PVT.c **** 	
 410:Generated_Source\PSoC4/BLE_HAL_PVT.c **** 		trimRef38Val = ((uint16)(((uint16)CYBLE_BLE_BLESS_REG38_TRIM_HIGH_REG) << 8u)) |
 762              		.loc 1 410 0
 763 0102 214B     		ldr	r3, .L38+92
 764 0104 1B78     		ldrb	r3, [r3]
 765 0106 DBB2     		uxtb	r3, r3
 766 0108 9BB2     		uxth	r3, r3
 767 010a 1B02     		lsls	r3, r3, #8
 768 010c 99B2     		uxth	r1, r3
 411:Generated_Source\PSoC4/BLE_HAL_PVT.c ****             ((uint16) CYBLE_BLE_BLESS_REG38_TRIM_LOW_REG);
 769              		.loc 1 411 0
 770 010e 1F4B     		ldr	r3, .L38+96
 771 0110 1B78     		ldrb	r3, [r3]
 772 0112 DBB2     		uxtb	r3, r3
 410:Generated_Source\PSoC4/BLE_HAL_PVT.c ****             ((uint16) CYBLE_BLE_BLESS_REG38_TRIM_LOW_REG);
 773              		.loc 1 410 0
 774 0114 9AB2     		uxth	r2, r3
 775 0116 3B00     		movs	r3, r7
 776 0118 0A43     		orrs	r2, r1
 777 011a 1A80     		strh	r2, [r3]
ARM GAS  C:\Users\cypress\AppData\Local\Temp\ccubSXOs.s 			page 22


 412:Generated_Source\PSoC4/BLE_HAL_PVT.c **** 		CYBLE_BLERD_RX_BUMP2_REG = trimRef38Val;
 778              		.loc 1 412 0
 779 011c 1C4B     		ldr	r3, .L38+100
 780 011e 3A00     		movs	r2, r7
 781 0120 1288     		ldrh	r2, [r2]
 782 0122 1A60     		str	r2, [r3]
 783              	.L37:
 413:Generated_Source\PSoC4/BLE_HAL_PVT.c **** 	}
 414:Generated_Source\PSoC4/BLE_HAL_PVT.c **** #endif /* (CYIPBLOCK_m0s8bless_VERSION < 3) */
 415:Generated_Source\PSoC4/BLE_HAL_PVT.c **** }
 784              		.loc 1 415 0
 785 0124 C046     		nop
 786 0126 BD46     		mov	sp, r7
 787 0128 04B0     		add	sp, sp, #16
 788              		@ sp needed
 789 012a 80BD     		pop	{r7, pc}
 790              	.L39:
 791              		.align	2
 792              	.L38:
 793 012c D9F0FF0F 		.word	268431577
 794 0130 D8F0FF0F 		.word	268431576
 795 0134 DFF0FF0F 		.word	268431583
 796 0138 DEF0FF0F 		.word	268431582
 797 013c 580B0000 		.word	2904
 798 0140 580D0000 		.word	3416
 799 0144 6C002E40 		.word	1076756588
 800 0148 74002E40 		.word	1076756596
 801 014c DBF0FF0F 		.word	268431579
 802 0150 DAF0FF0F 		.word	268431578
 803 0154 02200000 		.word	8194
 804 0158 78002E40 		.word	1076756600
 805 015c DDF0FF0F 		.word	268431581
 806 0160 DCF0FF0F 		.word	268431580
 807 0164 0F0F0000 		.word	3855
 808 0168 05050000 		.word	1285
 809 016c 050F0000 		.word	3845
 810 0170 80002E40 		.word	1076756608
 811 0174 EC0F00F0 		.word	-268431380
 812 0178 E00F00F0 		.word	-268431392
 813 017c 6DF2FF0F 		.word	268431981
 814 0180 6CF2FF0F 		.word	268431980
 815 0184 84002E40 		.word	1076756612
 816 0188 6FF2FF0F 		.word	268431983
 817 018c 6EF2FF0F 		.word	268431982
 818 0190 94002E40 		.word	1076756628
 819              		.cfi_endproc
 820              	.LFE8:
 821              		.size	CyBLE_BlessDeviceConfig, .-CyBLE_BlessDeviceConfig
 822              		.section	.text.CyBleHal_DelayUs,"ax",%progbits
 823              		.align	2
 824              		.global	CyBleHal_DelayUs
 825              		.code	16
 826              		.thumb_func
 827              		.type	CyBleHal_DelayUs, %function
 828              	CyBleHal_DelayUs:
 829              	.LFB9:
 416:Generated_Source\PSoC4/BLE_HAL_PVT.c **** 
ARM GAS  C:\Users\cypress\AppData\Local\Temp\ccubSXOs.s 			page 23


 417:Generated_Source\PSoC4/BLE_HAL_PVT.c **** 
 418:Generated_Source\PSoC4/BLE_HAL_PVT.c **** /* Interface to CyDelayUs function */
 419:Generated_Source\PSoC4/BLE_HAL_PVT.c **** void CyBleHal_DelayUs(uint16 delayVal)
 420:Generated_Source\PSoC4/BLE_HAL_PVT.c **** {
 830              		.loc 1 420 0
 831              		.cfi_startproc
 832              		@ args = 0, pretend = 0, frame = 8
 833              		@ frame_needed = 1, uses_anonymous_args = 0
 834 0000 80B5     		push	{r7, lr}
 835              		.cfi_def_cfa_offset 8
 836              		.cfi_offset 7, -8
 837              		.cfi_offset 14, -4
 838 0002 82B0     		sub	sp, sp, #8
 839              		.cfi_def_cfa_offset 16
 840 0004 00AF     		add	r7, sp, #0
 841              		.cfi_def_cfa_register 7
 842 0006 0200     		movs	r2, r0
 843 0008 BB1D     		adds	r3, r7, #6
 844 000a 1A80     		strh	r2, [r3]
 421:Generated_Source\PSoC4/BLE_HAL_PVT.c ****     CyDelayUs(delayVal);
 845              		.loc 1 421 0
 846 000c BB1D     		adds	r3, r7, #6
 847 000e 1B88     		ldrh	r3, [r3]
 848 0010 1800     		movs	r0, r3
 849 0012 FFF7FEFF 		bl	CyDelayUs
 422:Generated_Source\PSoC4/BLE_HAL_PVT.c **** }
 850              		.loc 1 422 0
 851 0016 C046     		nop
 852 0018 BD46     		mov	sp, r7
 853 001a 02B0     		add	sp, sp, #8
 854              		@ sp needed
 855 001c 80BD     		pop	{r7, pc}
 856              		.cfi_endproc
 857              	.LFE9:
 858              		.size	CyBleHal_DelayUs, .-CyBleHal_DelayUs
 859 001e C046     		.section	.text.CyBleHal_DelayMs,"ax",%progbits
 860              		.align	2
 861              		.global	CyBleHal_DelayMs
 862              		.code	16
 863              		.thumb_func
 864              		.type	CyBleHal_DelayMs, %function
 865              	CyBleHal_DelayMs:
 866              	.LFB10:
 423:Generated_Source\PSoC4/BLE_HAL_PVT.c **** 
 424:Generated_Source\PSoC4/BLE_HAL_PVT.c **** /* Interface to CyDelay function */
 425:Generated_Source\PSoC4/BLE_HAL_PVT.c **** void CyBleHal_DelayMs(uint32 delayVal)
 426:Generated_Source\PSoC4/BLE_HAL_PVT.c **** {
 867              		.loc 1 426 0
 868              		.cfi_startproc
 869              		@ args = 0, pretend = 0, frame = 8
 870              		@ frame_needed = 1, uses_anonymous_args = 0
 871 0000 80B5     		push	{r7, lr}
 872              		.cfi_def_cfa_offset 8
 873              		.cfi_offset 7, -8
 874              		.cfi_offset 14, -4
 875 0002 82B0     		sub	sp, sp, #8
 876              		.cfi_def_cfa_offset 16
ARM GAS  C:\Users\cypress\AppData\Local\Temp\ccubSXOs.s 			page 24


 877 0004 00AF     		add	r7, sp, #0
 878              		.cfi_def_cfa_register 7
 879 0006 7860     		str	r0, [r7, #4]
 427:Generated_Source\PSoC4/BLE_HAL_PVT.c ****     CyDelay(delayVal);
 880              		.loc 1 427 0
 881 0008 7B68     		ldr	r3, [r7, #4]
 882 000a 1800     		movs	r0, r3
 883 000c FFF7FEFF 		bl	CyDelay
 428:Generated_Source\PSoC4/BLE_HAL_PVT.c **** }
 884              		.loc 1 428 0
 885 0010 C046     		nop
 886 0012 BD46     		mov	sp, r7
 887 0014 02B0     		add	sp, sp, #8
 888              		@ sp needed
 889 0016 80BD     		pop	{r7, pc}
 890              		.cfi_endproc
 891              	.LFE10:
 892              		.size	CyBleHal_DelayMs, .-CyBleHal_DelayMs
 893              		.section	.text.CyBleHal_EnableGlobalInterrupts,"ax",%progbits
 894              		.align	2
 895              		.global	CyBleHal_EnableGlobalInterrupts
 896              		.code	16
 897              		.thumb_func
 898              		.type	CyBleHal_EnableGlobalInterrupts, %function
 899              	CyBleHal_EnableGlobalInterrupts:
 900              	.LFB11:
 429:Generated_Source\PSoC4/BLE_HAL_PVT.c **** 
 430:Generated_Source\PSoC4/BLE_HAL_PVT.c **** /* Interface to BLE_bless_isr_Enable function */
 431:Generated_Source\PSoC4/BLE_HAL_PVT.c **** void CyBleHal_EnableGlobalInterrupts(void)
 432:Generated_Source\PSoC4/BLE_HAL_PVT.c **** {
 901              		.loc 1 432 0
 902              		.cfi_startproc
 903              		@ args = 0, pretend = 0, frame = 0
 904              		@ frame_needed = 1, uses_anonymous_args = 0
 905 0000 80B5     		push	{r7, lr}
 906              		.cfi_def_cfa_offset 8
 907              		.cfi_offset 7, -8
 908              		.cfi_offset 14, -4
 909 0002 00AF     		add	r7, sp, #0
 910              		.cfi_def_cfa_register 7
 433:Generated_Source\PSoC4/BLE_HAL_PVT.c ****     BLE_bless_isr_Enable();
 911              		.loc 1 433 0
 912 0004 FFF7FEFF 		bl	BLE_bless_isr_Enable
 434:Generated_Source\PSoC4/BLE_HAL_PVT.c **** }
 913              		.loc 1 434 0
 914 0008 C046     		nop
 915 000a BD46     		mov	sp, r7
 916              		@ sp needed
 917 000c 80BD     		pop	{r7, pc}
 918              		.cfi_endproc
 919              	.LFE11:
 920              		.size	CyBleHal_EnableGlobalInterrupts, .-CyBleHal_EnableGlobalInterrupts
 921 000e C046     		.section	.text.CyBleHal_DisableGlobalInterrupts,"ax",%progbits
 922              		.align	2
 923              		.global	CyBleHal_DisableGlobalInterrupts
 924              		.code	16
 925              		.thumb_func
ARM GAS  C:\Users\cypress\AppData\Local\Temp\ccubSXOs.s 			page 25


 926              		.type	CyBleHal_DisableGlobalInterrupts, %function
 927              	CyBleHal_DisableGlobalInterrupts:
 928              	.LFB12:
 435:Generated_Source\PSoC4/BLE_HAL_PVT.c **** 
 436:Generated_Source\PSoC4/BLE_HAL_PVT.c **** /* Interface to BLE_bless_isr_Disable function */
 437:Generated_Source\PSoC4/BLE_HAL_PVT.c **** void CyBleHal_DisableGlobalInterrupts(void)
 438:Generated_Source\PSoC4/BLE_HAL_PVT.c **** {
 929              		.loc 1 438 0
 930              		.cfi_startproc
 931              		@ args = 0, pretend = 0, frame = 0
 932              		@ frame_needed = 1, uses_anonymous_args = 0
 933 0000 80B5     		push	{r7, lr}
 934              		.cfi_def_cfa_offset 8
 935              		.cfi_offset 7, -8
 936              		.cfi_offset 14, -4
 937 0002 00AF     		add	r7, sp, #0
 938              		.cfi_def_cfa_register 7
 439:Generated_Source\PSoC4/BLE_HAL_PVT.c ****     BLE_bless_isr_Disable();
 939              		.loc 1 439 0
 940 0004 FFF7FEFF 		bl	BLE_bless_isr_Disable
 440:Generated_Source\PSoC4/BLE_HAL_PVT.c **** }
 941              		.loc 1 440 0
 942 0008 C046     		nop
 943 000a BD46     		mov	sp, r7
 944              		@ sp needed
 945 000c 80BD     		pop	{r7, pc}
 946              		.cfi_endproc
 947              	.LFE12:
 948              		.size	CyBleHal_DisableGlobalInterrupts, .-CyBleHal_DisableGlobalInterrupts
 949 000e C046     		.section	.text.CyBle_HalInit,"ax",%progbits
 950              		.align	2
 951              		.global	CyBle_HalInit
 952              		.code	16
 953              		.thumb_func
 954              		.type	CyBle_HalInit, %function
 955              	CyBle_HalInit:
 956              	.LFB13:
 441:Generated_Source\PSoC4/BLE_HAL_PVT.c **** 
 442:Generated_Source\PSoC4/BLE_HAL_PVT.c **** /*******************************************************************************
 443:Generated_Source\PSoC4/BLE_HAL_PVT.c **** * Function Name: CyBle_HalInit
 444:Generated_Source\PSoC4/BLE_HAL_PVT.c **** ****************************************************************************//**
 445:Generated_Source\PSoC4/BLE_HAL_PVT.c **** *
 446:Generated_Source\PSoC4/BLE_HAL_PVT.c **** *  Initializes the BLESS interrupt.
 447:Generated_Source\PSoC4/BLE_HAL_PVT.c **** *
 448:Generated_Source\PSoC4/BLE_HAL_PVT.c **** * \return
 449:Generated_Source\PSoC4/BLE_HAL_PVT.c **** *  None
 450:Generated_Source\PSoC4/BLE_HAL_PVT.c **** *
 451:Generated_Source\PSoC4/BLE_HAL_PVT.c **** *******************************************************************************/
 452:Generated_Source\PSoC4/BLE_HAL_PVT.c **** void CyBle_HalInit(void)
 453:Generated_Source\PSoC4/BLE_HAL_PVT.c **** {
 957              		.loc 1 453 0
 958              		.cfi_startproc
 959              		@ args = 0, pretend = 0, frame = 0
 960              		@ frame_needed = 1, uses_anonymous_args = 0
 961 0000 80B5     		push	{r7, lr}
 962              		.cfi_def_cfa_offset 8
 963              		.cfi_offset 7, -8
ARM GAS  C:\Users\cypress\AppData\Local\Temp\ccubSXOs.s 			page 26


 964              		.cfi_offset 14, -4
 965 0002 00AF     		add	r7, sp, #0
 966              		.cfi_def_cfa_register 7
 454:Generated_Source\PSoC4/BLE_HAL_PVT.c ****     /* For all we know the interrupt is active. */
 455:Generated_Source\PSoC4/BLE_HAL_PVT.c ****     BLE_bless_isr_Disable();
 967              		.loc 1 455 0
 968 0004 FFF7FEFF 		bl	BLE_bless_isr_Disable
 456:Generated_Source\PSoC4/BLE_HAL_PVT.c **** 
 457:Generated_Source\PSoC4/BLE_HAL_PVT.c ****     /* Set the ISR to point to the BLE_bless_isr Interrupt. */
 458:Generated_Source\PSoC4/BLE_HAL_PVT.c ****     BLE_bless_isr_SetVector(&CyBLE_Bless_Interrupt);
 969              		.loc 1 458 0
 970 0008 044B     		ldr	r3, .L45
 971 000a 1800     		movs	r0, r3
 972 000c FFF7FEFF 		bl	BLE_bless_isr_SetVector
 459:Generated_Source\PSoC4/BLE_HAL_PVT.c **** 
 460:Generated_Source\PSoC4/BLE_HAL_PVT.c ****     /* Set the priority. */
 461:Generated_Source\PSoC4/BLE_HAL_PVT.c ****     BLE_bless_isr_SetPriority((uint8)BLE_bless_isr_INTC_PRIOR_NUMBER);
 973              		.loc 1 461 0
 974 0010 0320     		movs	r0, #3
 975 0012 FFF7FEFF 		bl	BLE_bless_isr_SetPriority
 462:Generated_Source\PSoC4/BLE_HAL_PVT.c **** }
 976              		.loc 1 462 0
 977 0016 C046     		nop
 978 0018 BD46     		mov	sp, r7
 979              		@ sp needed
 980 001a 80BD     		pop	{r7, pc}
 981              	.L46:
 982              		.align	2
 983              	.L45:
 984 001c 00000000 		.word	CyBLE_Bless_Interrupt
 985              		.cfi_endproc
 986              	.LFE13:
 987              		.size	CyBle_HalInit, .-CyBle_HalInit
 988              		.section	.text.CYBLE_BlessStart,"ax",%progbits
 989              		.align	2
 990              		.global	CYBLE_BlessStart
 991              		.code	16
 992              		.thumb_func
 993              		.type	CYBLE_BlessStart, %function
 994              	CYBLE_BlessStart:
 995              	.LFB14:
 463:Generated_Source\PSoC4/BLE_HAL_PVT.c **** 
 464:Generated_Source\PSoC4/BLE_HAL_PVT.c **** 
 465:Generated_Source\PSoC4/BLE_HAL_PVT.c **** /*******************************************************************************
 466:Generated_Source\PSoC4/BLE_HAL_PVT.c **** * Function Name: CYBLE_BlessStart
 467:Generated_Source\PSoC4/BLE_HAL_PVT.c **** ****************************************************************************//**
 468:Generated_Source\PSoC4/BLE_HAL_PVT.c **** *
 469:Generated_Source\PSoC4/BLE_HAL_PVT.c **** *  Start Interrupt Controller API.
 470:Generated_Source\PSoC4/BLE_HAL_PVT.c **** *
 471:Generated_Source\PSoC4/BLE_HAL_PVT.c **** * \return
 472:Generated_Source\PSoC4/BLE_HAL_PVT.c **** *  None
 473:Generated_Source\PSoC4/BLE_HAL_PVT.c **** *
 474:Generated_Source\PSoC4/BLE_HAL_PVT.c **** *******************************************************************************/
 475:Generated_Source\PSoC4/BLE_HAL_PVT.c **** void CYBLE_BlessStart(void)
 476:Generated_Source\PSoC4/BLE_HAL_PVT.c **** {
 996              		.loc 1 476 0
 997              		.cfi_startproc
ARM GAS  C:\Users\cypress\AppData\Local\Temp\ccubSXOs.s 			page 27


 998              		@ args = 0, pretend = 0, frame = 0
 999              		@ frame_needed = 1, uses_anonymous_args = 0
 1000 0000 80B5     		push	{r7, lr}
 1001              		.cfi_def_cfa_offset 8
 1002              		.cfi_offset 7, -8
 1003              		.cfi_offset 14, -4
 1004 0002 00AF     		add	r7, sp, #0
 1005              		.cfi_def_cfa_register 7
 477:Generated_Source\PSoC4/BLE_HAL_PVT.c **** #if((CYBLE_M0S8BLESS_VERSION_3) && (CYBLE_EXT_PA_ENABLED))
 478:Generated_Source\PSoC4/BLE_HAL_PVT.c ****     CYBLE_EXT_PA_LNA_CTRL_REG |= CYBLE_EXT_PA_LNA_ENABLE | CYBLE_EXT_OUT_EN_DRIVE_VAL; 
 479:Generated_Source\PSoC4/BLE_HAL_PVT.c **** #endif  /* (CYBLE_M0S8BLESS_VERSION_3) */
 480:Generated_Source\PSoC4/BLE_HAL_PVT.c **** 
 481:Generated_Source\PSoC4/BLE_HAL_PVT.c ****     BLE_bless_isr_StartEx(&CyBLE_Bless_Interrupt);
 1006              		.loc 1 481 0
 1007 0004 034B     		ldr	r3, .L48
 1008 0006 1800     		movs	r0, r3
 1009 0008 FFF7FEFF 		bl	BLE_bless_isr_StartEx
 482:Generated_Source\PSoC4/BLE_HAL_PVT.c **** }
 1010              		.loc 1 482 0
 1011 000c C046     		nop
 1012 000e BD46     		mov	sp, r7
 1013              		@ sp needed
 1014 0010 80BD     		pop	{r7, pc}
 1015              	.L49:
 1016 0012 C046     		.align	2
 1017              	.L48:
 1018 0014 00000000 		.word	CyBLE_Bless_Interrupt
 1019              		.cfi_endproc
 1020              	.LFE14:
 1021              		.size	CYBLE_BlessStart, .-CYBLE_BlessStart
 1022              		.section	.text.CyBLE_GetIpBlockVersion,"ax",%progbits
 1023              		.align	2
 1024              		.global	CyBLE_GetIpBlockVersion
 1025              		.code	16
 1026              		.thumb_func
 1027              		.type	CyBLE_GetIpBlockVersion, %function
 1028              	CyBLE_GetIpBlockVersion:
 1029              	.LFB15:
 483:Generated_Source\PSoC4/BLE_HAL_PVT.c **** 
 484:Generated_Source\PSoC4/BLE_HAL_PVT.c **** 
 485:Generated_Source\PSoC4/BLE_HAL_PVT.c **** /*******************************************************************************
 486:Generated_Source\PSoC4/BLE_HAL_PVT.c **** * Function Name: CyBLE_GetIpBlockVersion
 487:Generated_Source\PSoC4/BLE_HAL_PVT.c **** ****************************************************************************//**
 488:Generated_Source\PSoC4/BLE_HAL_PVT.c **** *
 489:Generated_Source\PSoC4/BLE_HAL_PVT.c **** * This API returns the version of m0s8bless ip block.
 490:Generated_Source\PSoC4/BLE_HAL_PVT.c **** *
 491:Generated_Source\PSoC4/BLE_HAL_PVT.c **** * \return
 492:Generated_Source\PSoC4/BLE_HAL_PVT.c **** * uint32 bits:
 493:Generated_Source\PSoC4/BLE_HAL_PVT.c **** * 7:0 - ip version ( 1 - BLE_ver1, 2 - BLE_ver2, 3 - BLE_ver3 )
 494:Generated_Source\PSoC4/BLE_HAL_PVT.c **** * 15:8 - flash size ( 0 - 128k, 1 - 256k )
 495:Generated_Source\PSoC4/BLE_HAL_PVT.c **** * 16 - PSVP device
 496:Generated_Source\PSoC4/BLE_HAL_PVT.c **** * 31:17 - reserved for future usage
 497:Generated_Source\PSoC4/BLE_HAL_PVT.c **** *
 498:Generated_Source\PSoC4/BLE_HAL_PVT.c **** *******************************************************************************/
 499:Generated_Source\PSoC4/BLE_HAL_PVT.c **** uint32 CyBLE_GetIpBlockVersion(void)
 500:Generated_Source\PSoC4/BLE_HAL_PVT.c **** {
 1030              		.loc 1 500 0
ARM GAS  C:\Users\cypress\AppData\Local\Temp\ccubSXOs.s 			page 28


 1031              		.cfi_startproc
 1032              		@ args = 0, pretend = 0, frame = 0
 1033              		@ frame_needed = 1, uses_anonymous_args = 0
 1034 0000 80B5     		push	{r7, lr}
 1035              		.cfi_def_cfa_offset 8
 1036              		.cfi_offset 7, -8
 1037              		.cfi_offset 14, -4
 1038 0002 00AF     		add	r7, sp, #0
 1039              		.cfi_def_cfa_register 7
 501:Generated_Source\PSoC4/BLE_HAL_PVT.c ****     return(((uint32)CYBLE_M0S8BLESS_VERSION) | ((uint32)((uint32)CYBLE_FLASH_SIZE) << 8u) |
 1040              		.loc 1 501 0
 1041 0004 0223     		movs	r3, #2
 1042 0006 FF33     		adds	r3, r3, #255
 502:Generated_Source\PSoC4/BLE_HAL_PVT.c ****         ((uint32)(((uint32)CYBLE_PSVP_DEVICE)) << 16u));
 503:Generated_Source\PSoC4/BLE_HAL_PVT.c **** }
 1043              		.loc 1 503 0
 1044 0008 1800     		movs	r0, r3
 1045 000a BD46     		mov	sp, r7
 1046              		@ sp needed
 1047 000c 80BD     		pop	{r7, pc}
 1048              		.cfi_endproc
 1049              	.LFE15:
 1050              		.size	CyBLE_GetIpBlockVersion, .-CyBLE_GetIpBlockVersion
 1051 000e C046     		.section	.text.CyBle_Hal_pairing_local_public_key_handler,"ax",%progbits
 1052              		.align	2
 1053              		.global	CyBle_Hal_pairing_local_public_key_handler
 1054              		.code	16
 1055              		.thumb_func
 1056              		.type	CyBle_Hal_pairing_local_public_key_handler, %function
 1057              	CyBle_Hal_pairing_local_public_key_handler:
 1058              	.LFB16:
 504:Generated_Source\PSoC4/BLE_HAL_PVT.c **** 
 505:Generated_Source\PSoC4/BLE_HAL_PVT.c **** /* Mapping functions for stack size optimization */
 506:Generated_Source\PSoC4/BLE_HAL_PVT.c **** #if(CYBLE_MODE_PROFILE)
 507:Generated_Source\PSoC4/BLE_HAL_PVT.c ****     
 508:Generated_Source\PSoC4/BLE_HAL_PVT.c **** #if(CYBLE_SECURE_CONN_FEATURE_ENABLED)
 509:Generated_Source\PSoC4/BLE_HAL_PVT.c ****     
 510:Generated_Source\PSoC4/BLE_HAL_PVT.c ****     CYBLE_API_RESULT_T CyBle_Hal_pairing_local_public_key_handler(void *param)
 511:Generated_Source\PSoC4/BLE_HAL_PVT.c ****     {
 512:Generated_Source\PSoC4/BLE_HAL_PVT.c ****         return (CyBle_Hal_mapping_pairing_local_public_key_handler(param));
 513:Generated_Source\PSoC4/BLE_HAL_PVT.c ****     }
 514:Generated_Source\PSoC4/BLE_HAL_PVT.c ****      
 515:Generated_Source\PSoC4/BLE_HAL_PVT.c ****     CYBLE_API_RESULT_T CyBle_Hal_pairing_remote_key_handler(void *param)
 516:Generated_Source\PSoC4/BLE_HAL_PVT.c ****     {
 517:Generated_Source\PSoC4/BLE_HAL_PVT.c ****         return (CyBle_Hal_mapping_pairing_remote_key_handler(param));
 518:Generated_Source\PSoC4/BLE_HAL_PVT.c ****     }
 519:Generated_Source\PSoC4/BLE_HAL_PVT.c ****      
 520:Generated_Source\PSoC4/BLE_HAL_PVT.c ****     CYBLE_API_RESULT_T CyBle_Hal_pairing_dhkey_handler(void *param)
 521:Generated_Source\PSoC4/BLE_HAL_PVT.c ****     {
 522:Generated_Source\PSoC4/BLE_HAL_PVT.c ****         return (CyBle_Hal_mapping_pairing_dhkey_handler(param));
 523:Generated_Source\PSoC4/BLE_HAL_PVT.c ****     }
 524:Generated_Source\PSoC4/BLE_HAL_PVT.c **** 
 525:Generated_Source\PSoC4/BLE_HAL_PVT.c ****     CYBLE_API_RESULT_T CyBle_Hal_pairing_dhkey_check_handler(void *param)
 526:Generated_Source\PSoC4/BLE_HAL_PVT.c ****     {
 527:Generated_Source\PSoC4/BLE_HAL_PVT.c ****         return (CyBle_Hal_mapping_pairing_dhkey_check_handler(param));
 528:Generated_Source\PSoC4/BLE_HAL_PVT.c ****     }
 529:Generated_Source\PSoC4/BLE_HAL_PVT.c **** 
ARM GAS  C:\Users\cypress\AppData\Local\Temp\ccubSXOs.s 			page 29


 530:Generated_Source\PSoC4/BLE_HAL_PVT.c ****     CYBLE_API_RESULT_T CyBle_Hal_pairing_keypress_notification_handler(void *param)
 531:Generated_Source\PSoC4/BLE_HAL_PVT.c ****     {
 532:Generated_Source\PSoC4/BLE_HAL_PVT.c ****         return (CyBle_Hal_mapping_pairing_keypress_notification_handler(param));
 533:Generated_Source\PSoC4/BLE_HAL_PVT.c ****     }
 534:Generated_Source\PSoC4/BLE_HAL_PVT.c **** 
 535:Generated_Source\PSoC4/BLE_HAL_PVT.c ****     CYBLE_API_RESULT_T CyBle_Hal_pairing_rand_handler(void *param)
 536:Generated_Source\PSoC4/BLE_HAL_PVT.c ****     {
 537:Generated_Source\PSoC4/BLE_HAL_PVT.c ****         return (CyBle_Hal_mapping_pairing_rand_handler(param));
 538:Generated_Source\PSoC4/BLE_HAL_PVT.c ****     }
 539:Generated_Source\PSoC4/BLE_HAL_PVT.c **** 
 540:Generated_Source\PSoC4/BLE_HAL_PVT.c ****     CYBLE_API_RESULT_T CyBle_Hal_pairing_confirm_handler(void *param)
 541:Generated_Source\PSoC4/BLE_HAL_PVT.c ****     {
 542:Generated_Source\PSoC4/BLE_HAL_PVT.c ****         return (CyBle_Hal_mapping_pairing_confirm_handler(param));
 543:Generated_Source\PSoC4/BLE_HAL_PVT.c ****     }
 544:Generated_Source\PSoC4/BLE_HAL_PVT.c **** 
 545:Generated_Source\PSoC4/BLE_HAL_PVT.c ****     CYBLE_API_RESULT_T CyBle_Hal_pairing_lr_confirming_handler(void *param)
 546:Generated_Source\PSoC4/BLE_HAL_PVT.c ****     {
 547:Generated_Source\PSoC4/BLE_HAL_PVT.c ****         return (CyBle_Hal_mapping_pairing_lr_confirming_handler(param));
 548:Generated_Source\PSoC4/BLE_HAL_PVT.c ****     }
 549:Generated_Source\PSoC4/BLE_HAL_PVT.c ****     
 550:Generated_Source\PSoC4/BLE_HAL_PVT.c ****     CYBLE_API_RESULT_T CyBle_Hal_pairing_sc_tbx_dhkey_generate_complete(void* param)
 551:Generated_Source\PSoC4/BLE_HAL_PVT.c ****     {
 552:Generated_Source\PSoC4/BLE_HAL_PVT.c ****         CyBle_Hal_mapping_tbx_dhkey_generate_complete(param);
 553:Generated_Source\PSoC4/BLE_HAL_PVT.c ****         return (CYBLE_ERROR_OK);
 554:Generated_Source\PSoC4/BLE_HAL_PVT.c ****     }
 555:Generated_Source\PSoC4/BLE_HAL_PVT.c **** 
 556:Generated_Source\PSoC4/BLE_HAL_PVT.c ****     CYBLE_API_RESULT_T CyBle_Hal_pairing_sc_tbx_local_pubkey_generate_complete(void)
 557:Generated_Source\PSoC4/BLE_HAL_PVT.c ****     {
 558:Generated_Source\PSoC4/BLE_HAL_PVT.c ****         CyBle_Hal_mapping_tbx_local_pubkey_generate_complete();
 559:Generated_Source\PSoC4/BLE_HAL_PVT.c ****         return (CYBLE_ERROR_OK);
 560:Generated_Source\PSoC4/BLE_HAL_PVT.c ****     }
 561:Generated_Source\PSoC4/BLE_HAL_PVT.c **** 
 562:Generated_Source\PSoC4/BLE_HAL_PVT.c ****     CYBLE_API_RESULT_T CyBle_Hal_pairing_sc_tbx_generate_local_P256_public_key(uint8 param)
 563:Generated_Source\PSoC4/BLE_HAL_PVT.c ****     {
 564:Generated_Source\PSoC4/BLE_HAL_PVT.c ****         return (CyBle_Hal_mapping_tbx_generate_local_P256_public_key(param));
 565:Generated_Source\PSoC4/BLE_HAL_PVT.c ****     }
 566:Generated_Source\PSoC4/BLE_HAL_PVT.c **** 
 567:Generated_Source\PSoC4/BLE_HAL_PVT.c ****     CYBLE_API_RESULT_T CyBle_Hal_pairing_sc_tbx_generate_DHkey(void  * param1, void  * param2)
 568:Generated_Source\PSoC4/BLE_HAL_PVT.c ****     {
 569:Generated_Source\PSoC4/BLE_HAL_PVT.c ****         return (CyBle_Hal_mapping_tbx_generate_DHkey(param1, param2));
 570:Generated_Source\PSoC4/BLE_HAL_PVT.c ****     }
 571:Generated_Source\PSoC4/BLE_HAL_PVT.c **** 
 572:Generated_Source\PSoC4/BLE_HAL_PVT.c ****     void CyBle_Hal_smp_sc_cmac_complete(void)
 573:Generated_Source\PSoC4/BLE_HAL_PVT.c ****     {
 574:Generated_Source\PSoC4/BLE_HAL_PVT.c ****        CyBle_Hal_Mapping_smp_sc_cmac_complete();
 575:Generated_Source\PSoC4/BLE_HAL_PVT.c ****     }
 576:Generated_Source\PSoC4/BLE_HAL_PVT.c **** 
 577:Generated_Source\PSoC4/BLE_HAL_PVT.c ****     CYBLE_API_RESULT_T CyBle_Hal_se_smp_sc_user_passkey_handler(void *param1, void *param2)
 578:Generated_Source\PSoC4/BLE_HAL_PVT.c ****     {
 579:Generated_Source\PSoC4/BLE_HAL_PVT.c ****         return (CyBle_Hal_mapping_se_smp_sc_user_passkey_handler(param1, param2));
 580:Generated_Source\PSoC4/BLE_HAL_PVT.c ****     }
 581:Generated_Source\PSoC4/BLE_HAL_PVT.c **** 
 582:Generated_Source\PSoC4/BLE_HAL_PVT.c ****     void CyBle_Hal_EccPointMult(void)
 583:Generated_Source\PSoC4/BLE_HAL_PVT.c ****     {
 584:Generated_Source\PSoC4/BLE_HAL_PVT.c ****         CyBle_Hal_Mapping_EccPointMult();
 585:Generated_Source\PSoC4/BLE_HAL_PVT.c ****     }
 586:Generated_Source\PSoC4/BLE_HAL_PVT.c ****     
ARM GAS  C:\Users\cypress\AppData\Local\Temp\ccubSXOs.s 			page 30


 587:Generated_Source\PSoC4/BLE_HAL_PVT.c **** #else     /* If feature is not required, return error. */
 588:Generated_Source\PSoC4/BLE_HAL_PVT.c ****     
 589:Generated_Source\PSoC4/BLE_HAL_PVT.c ****     CYBLE_API_RESULT_T CyBle_Hal_pairing_local_public_key_handler(void *param CYBLE_UNUSED_ATTR)
 590:Generated_Source\PSoC4/BLE_HAL_PVT.c ****     {
 1059              		.loc 1 590 0
 1060              		.cfi_startproc
 1061              		@ args = 0, pretend = 0, frame = 8
 1062              		@ frame_needed = 1, uses_anonymous_args = 0
 1063 0000 80B5     		push	{r7, lr}
 1064              		.cfi_def_cfa_offset 8
 1065              		.cfi_offset 7, -8
 1066              		.cfi_offset 14, -4
 1067 0002 82B0     		sub	sp, sp, #8
 1068              		.cfi_def_cfa_offset 16
 1069 0004 00AF     		add	r7, sp, #0
 1070              		.cfi_def_cfa_register 7
 1071 0006 7860     		str	r0, [r7, #4]
 591:Generated_Source\PSoC4/BLE_HAL_PVT.c ****         return (CYBLE_ERROR_UNSUPPORTED_FEATURE_OR_PARAMETER_VALUE);
 1072              		.loc 1 591 0
 1073 0008 2B23     		movs	r3, #43
 592:Generated_Source\PSoC4/BLE_HAL_PVT.c ****     }
 1074              		.loc 1 592 0
 1075 000a 1800     		movs	r0, r3
 1076 000c BD46     		mov	sp, r7
 1077 000e 02B0     		add	sp, sp, #8
 1078              		@ sp needed
 1079 0010 80BD     		pop	{r7, pc}
 1080              		.cfi_endproc
 1081              	.LFE16:
 1082              		.size	CyBle_Hal_pairing_local_public_key_handler, .-CyBle_Hal_pairing_local_public_key_handler
 1083 0012 C046     		.section	.text.CyBle_Hal_pairing_remote_key_handler,"ax",%progbits
 1084              		.align	2
 1085              		.global	CyBle_Hal_pairing_remote_key_handler
 1086              		.code	16
 1087              		.thumb_func
 1088              		.type	CyBle_Hal_pairing_remote_key_handler, %function
 1089              	CyBle_Hal_pairing_remote_key_handler:
 1090              	.LFB17:
 593:Generated_Source\PSoC4/BLE_HAL_PVT.c ****      
 594:Generated_Source\PSoC4/BLE_HAL_PVT.c ****     CYBLE_API_RESULT_T CyBle_Hal_pairing_remote_key_handler(void *param CYBLE_UNUSED_ATTR)
 595:Generated_Source\PSoC4/BLE_HAL_PVT.c ****     {
 1091              		.loc 1 595 0
 1092              		.cfi_startproc
 1093              		@ args = 0, pretend = 0, frame = 8
 1094              		@ frame_needed = 1, uses_anonymous_args = 0
 1095 0000 80B5     		push	{r7, lr}
 1096              		.cfi_def_cfa_offset 8
 1097              		.cfi_offset 7, -8
 1098              		.cfi_offset 14, -4
 1099 0002 82B0     		sub	sp, sp, #8
 1100              		.cfi_def_cfa_offset 16
 1101 0004 00AF     		add	r7, sp, #0
 1102              		.cfi_def_cfa_register 7
 1103 0006 7860     		str	r0, [r7, #4]
 596:Generated_Source\PSoC4/BLE_HAL_PVT.c ****         return (CYBLE_ERROR_UNSUPPORTED_FEATURE_OR_PARAMETER_VALUE);
 1104              		.loc 1 596 0
 1105 0008 2B23     		movs	r3, #43
ARM GAS  C:\Users\cypress\AppData\Local\Temp\ccubSXOs.s 			page 31


 597:Generated_Source\PSoC4/BLE_HAL_PVT.c ****     }
 1106              		.loc 1 597 0
 1107 000a 1800     		movs	r0, r3
 1108 000c BD46     		mov	sp, r7
 1109 000e 02B0     		add	sp, sp, #8
 1110              		@ sp needed
 1111 0010 80BD     		pop	{r7, pc}
 1112              		.cfi_endproc
 1113              	.LFE17:
 1114              		.size	CyBle_Hal_pairing_remote_key_handler, .-CyBle_Hal_pairing_remote_key_handler
 1115 0012 C046     		.section	.text.CyBle_Hal_pairing_dhkey_handler,"ax",%progbits
 1116              		.align	2
 1117              		.global	CyBle_Hal_pairing_dhkey_handler
 1118              		.code	16
 1119              		.thumb_func
 1120              		.type	CyBle_Hal_pairing_dhkey_handler, %function
 1121              	CyBle_Hal_pairing_dhkey_handler:
 1122              	.LFB18:
 598:Generated_Source\PSoC4/BLE_HAL_PVT.c ****      
 599:Generated_Source\PSoC4/BLE_HAL_PVT.c ****     CYBLE_API_RESULT_T CyBle_Hal_pairing_dhkey_handler(void *param CYBLE_UNUSED_ATTR)
 600:Generated_Source\PSoC4/BLE_HAL_PVT.c ****     {
 1123              		.loc 1 600 0
 1124              		.cfi_startproc
 1125              		@ args = 0, pretend = 0, frame = 8
 1126              		@ frame_needed = 1, uses_anonymous_args = 0
 1127 0000 80B5     		push	{r7, lr}
 1128              		.cfi_def_cfa_offset 8
 1129              		.cfi_offset 7, -8
 1130              		.cfi_offset 14, -4
 1131 0002 82B0     		sub	sp, sp, #8
 1132              		.cfi_def_cfa_offset 16
 1133 0004 00AF     		add	r7, sp, #0
 1134              		.cfi_def_cfa_register 7
 1135 0006 7860     		str	r0, [r7, #4]
 601:Generated_Source\PSoC4/BLE_HAL_PVT.c ****         return (CYBLE_ERROR_UNSUPPORTED_FEATURE_OR_PARAMETER_VALUE);
 1136              		.loc 1 601 0
 1137 0008 2B23     		movs	r3, #43
 602:Generated_Source\PSoC4/BLE_HAL_PVT.c ****     }
 1138              		.loc 1 602 0
 1139 000a 1800     		movs	r0, r3
 1140 000c BD46     		mov	sp, r7
 1141 000e 02B0     		add	sp, sp, #8
 1142              		@ sp needed
 1143 0010 80BD     		pop	{r7, pc}
 1144              		.cfi_endproc
 1145              	.LFE18:
 1146              		.size	CyBle_Hal_pairing_dhkey_handler, .-CyBle_Hal_pairing_dhkey_handler
 1147 0012 C046     		.section	.text.CyBle_Hal_pairing_dhkey_check_handler,"ax",%progbits
 1148              		.align	2
 1149              		.global	CyBle_Hal_pairing_dhkey_check_handler
 1150              		.code	16
 1151              		.thumb_func
 1152              		.type	CyBle_Hal_pairing_dhkey_check_handler, %function
 1153              	CyBle_Hal_pairing_dhkey_check_handler:
 1154              	.LFB19:
 603:Generated_Source\PSoC4/BLE_HAL_PVT.c **** 
 604:Generated_Source\PSoC4/BLE_HAL_PVT.c ****     CYBLE_API_RESULT_T CyBle_Hal_pairing_dhkey_check_handler(void *param CYBLE_UNUSED_ATTR)
ARM GAS  C:\Users\cypress\AppData\Local\Temp\ccubSXOs.s 			page 32


 605:Generated_Source\PSoC4/BLE_HAL_PVT.c ****     {
 1155              		.loc 1 605 0
 1156              		.cfi_startproc
 1157              		@ args = 0, pretend = 0, frame = 8
 1158              		@ frame_needed = 1, uses_anonymous_args = 0
 1159 0000 80B5     		push	{r7, lr}
 1160              		.cfi_def_cfa_offset 8
 1161              		.cfi_offset 7, -8
 1162              		.cfi_offset 14, -4
 1163 0002 82B0     		sub	sp, sp, #8
 1164              		.cfi_def_cfa_offset 16
 1165 0004 00AF     		add	r7, sp, #0
 1166              		.cfi_def_cfa_register 7
 1167 0006 7860     		str	r0, [r7, #4]
 606:Generated_Source\PSoC4/BLE_HAL_PVT.c ****         return (CYBLE_ERROR_UNSUPPORTED_FEATURE_OR_PARAMETER_VALUE);
 1168              		.loc 1 606 0
 1169 0008 2B23     		movs	r3, #43
 607:Generated_Source\PSoC4/BLE_HAL_PVT.c ****     }
 1170              		.loc 1 607 0
 1171 000a 1800     		movs	r0, r3
 1172 000c BD46     		mov	sp, r7
 1173 000e 02B0     		add	sp, sp, #8
 1174              		@ sp needed
 1175 0010 80BD     		pop	{r7, pc}
 1176              		.cfi_endproc
 1177              	.LFE19:
 1178              		.size	CyBle_Hal_pairing_dhkey_check_handler, .-CyBle_Hal_pairing_dhkey_check_handler
 1179 0012 C046     		.section	.text.CyBle_Hal_pairing_keypress_notification_handler,"ax",%progbits
 1180              		.align	2
 1181              		.global	CyBle_Hal_pairing_keypress_notification_handler
 1182              		.code	16
 1183              		.thumb_func
 1184              		.type	CyBle_Hal_pairing_keypress_notification_handler, %function
 1185              	CyBle_Hal_pairing_keypress_notification_handler:
 1186              	.LFB20:
 608:Generated_Source\PSoC4/BLE_HAL_PVT.c **** 
 609:Generated_Source\PSoC4/BLE_HAL_PVT.c ****     CYBLE_API_RESULT_T CyBle_Hal_pairing_keypress_notification_handler(void *param CYBLE_UNUSED_ATT
 610:Generated_Source\PSoC4/BLE_HAL_PVT.c ****     {
 1187              		.loc 1 610 0
 1188              		.cfi_startproc
 1189              		@ args = 0, pretend = 0, frame = 8
 1190              		@ frame_needed = 1, uses_anonymous_args = 0
 1191 0000 80B5     		push	{r7, lr}
 1192              		.cfi_def_cfa_offset 8
 1193              		.cfi_offset 7, -8
 1194              		.cfi_offset 14, -4
 1195 0002 82B0     		sub	sp, sp, #8
 1196              		.cfi_def_cfa_offset 16
 1197 0004 00AF     		add	r7, sp, #0
 1198              		.cfi_def_cfa_register 7
 1199 0006 7860     		str	r0, [r7, #4]
 611:Generated_Source\PSoC4/BLE_HAL_PVT.c ****         return (CYBLE_ERROR_UNSUPPORTED_FEATURE_OR_PARAMETER_VALUE);
 1200              		.loc 1 611 0
 1201 0008 2B23     		movs	r3, #43
 612:Generated_Source\PSoC4/BLE_HAL_PVT.c ****     }
 1202              		.loc 1 612 0
 1203 000a 1800     		movs	r0, r3
ARM GAS  C:\Users\cypress\AppData\Local\Temp\ccubSXOs.s 			page 33


 1204 000c BD46     		mov	sp, r7
 1205 000e 02B0     		add	sp, sp, #8
 1206              		@ sp needed
 1207 0010 80BD     		pop	{r7, pc}
 1208              		.cfi_endproc
 1209              	.LFE20:
 1210              		.size	CyBle_Hal_pairing_keypress_notification_handler, .-CyBle_Hal_pairing_keypress_notification_h
 1211 0012 C046     		.section	.text.CyBle_Hal_pairing_rand_handler,"ax",%progbits
 1212              		.align	2
 1213              		.global	CyBle_Hal_pairing_rand_handler
 1214              		.code	16
 1215              		.thumb_func
 1216              		.type	CyBle_Hal_pairing_rand_handler, %function
 1217              	CyBle_Hal_pairing_rand_handler:
 1218              	.LFB21:
 613:Generated_Source\PSoC4/BLE_HAL_PVT.c **** 
 614:Generated_Source\PSoC4/BLE_HAL_PVT.c ****     CYBLE_API_RESULT_T CyBle_Hal_pairing_rand_handler(void *param CYBLE_UNUSED_ATTR)
 615:Generated_Source\PSoC4/BLE_HAL_PVT.c ****     {
 1219              		.loc 1 615 0
 1220              		.cfi_startproc
 1221              		@ args = 0, pretend = 0, frame = 8
 1222              		@ frame_needed = 1, uses_anonymous_args = 0
 1223 0000 80B5     		push	{r7, lr}
 1224              		.cfi_def_cfa_offset 8
 1225              		.cfi_offset 7, -8
 1226              		.cfi_offset 14, -4
 1227 0002 82B0     		sub	sp, sp, #8
 1228              		.cfi_def_cfa_offset 16
 1229 0004 00AF     		add	r7, sp, #0
 1230              		.cfi_def_cfa_register 7
 1231 0006 7860     		str	r0, [r7, #4]
 616:Generated_Source\PSoC4/BLE_HAL_PVT.c ****         return (CYBLE_ERROR_UNSUPPORTED_FEATURE_OR_PARAMETER_VALUE);
 1232              		.loc 1 616 0
 1233 0008 2B23     		movs	r3, #43
 617:Generated_Source\PSoC4/BLE_HAL_PVT.c ****     }
 1234              		.loc 1 617 0
 1235 000a 1800     		movs	r0, r3
 1236 000c BD46     		mov	sp, r7
 1237 000e 02B0     		add	sp, sp, #8
 1238              		@ sp needed
 1239 0010 80BD     		pop	{r7, pc}
 1240              		.cfi_endproc
 1241              	.LFE21:
 1242              		.size	CyBle_Hal_pairing_rand_handler, .-CyBle_Hal_pairing_rand_handler
 1243 0012 C046     		.section	.text.CyBle_Hal_pairing_confirm_handler,"ax",%progbits
 1244              		.align	2
 1245              		.global	CyBle_Hal_pairing_confirm_handler
 1246              		.code	16
 1247              		.thumb_func
 1248              		.type	CyBle_Hal_pairing_confirm_handler, %function
 1249              	CyBle_Hal_pairing_confirm_handler:
 1250              	.LFB22:
 618:Generated_Source\PSoC4/BLE_HAL_PVT.c ****     
 619:Generated_Source\PSoC4/BLE_HAL_PVT.c ****     CYBLE_API_RESULT_T CyBle_Hal_pairing_confirm_handler(void *param CYBLE_UNUSED_ATTR)
 620:Generated_Source\PSoC4/BLE_HAL_PVT.c ****     {
 1251              		.loc 1 620 0
 1252              		.cfi_startproc
ARM GAS  C:\Users\cypress\AppData\Local\Temp\ccubSXOs.s 			page 34


 1253              		@ args = 0, pretend = 0, frame = 8
 1254              		@ frame_needed = 1, uses_anonymous_args = 0
 1255 0000 80B5     		push	{r7, lr}
 1256              		.cfi_def_cfa_offset 8
 1257              		.cfi_offset 7, -8
 1258              		.cfi_offset 14, -4
 1259 0002 82B0     		sub	sp, sp, #8
 1260              		.cfi_def_cfa_offset 16
 1261 0004 00AF     		add	r7, sp, #0
 1262              		.cfi_def_cfa_register 7
 1263 0006 7860     		str	r0, [r7, #4]
 621:Generated_Source\PSoC4/BLE_HAL_PVT.c ****         return (CYBLE_ERROR_UNSUPPORTED_FEATURE_OR_PARAMETER_VALUE);
 1264              		.loc 1 621 0
 1265 0008 2B23     		movs	r3, #43
 622:Generated_Source\PSoC4/BLE_HAL_PVT.c ****     }
 1266              		.loc 1 622 0
 1267 000a 1800     		movs	r0, r3
 1268 000c BD46     		mov	sp, r7
 1269 000e 02B0     		add	sp, sp, #8
 1270              		@ sp needed
 1271 0010 80BD     		pop	{r7, pc}
 1272              		.cfi_endproc
 1273              	.LFE22:
 1274              		.size	CyBle_Hal_pairing_confirm_handler, .-CyBle_Hal_pairing_confirm_handler
 1275 0012 C046     		.section	.text.CyBle_Hal_pairing_lr_confirming_handler,"ax",%progbits
 1276              		.align	2
 1277              		.global	CyBle_Hal_pairing_lr_confirming_handler
 1278              		.code	16
 1279              		.thumb_func
 1280              		.type	CyBle_Hal_pairing_lr_confirming_handler, %function
 1281              	CyBle_Hal_pairing_lr_confirming_handler:
 1282              	.LFB23:
 623:Generated_Source\PSoC4/BLE_HAL_PVT.c **** 
 624:Generated_Source\PSoC4/BLE_HAL_PVT.c ****     CYBLE_API_RESULT_T CyBle_Hal_pairing_lr_confirming_handler(void *param CYBLE_UNUSED_ATTR)
 625:Generated_Source\PSoC4/BLE_HAL_PVT.c ****     {
 1283              		.loc 1 625 0
 1284              		.cfi_startproc
 1285              		@ args = 0, pretend = 0, frame = 8
 1286              		@ frame_needed = 1, uses_anonymous_args = 0
 1287 0000 80B5     		push	{r7, lr}
 1288              		.cfi_def_cfa_offset 8
 1289              		.cfi_offset 7, -8
 1290              		.cfi_offset 14, -4
 1291 0002 82B0     		sub	sp, sp, #8
 1292              		.cfi_def_cfa_offset 16
 1293 0004 00AF     		add	r7, sp, #0
 1294              		.cfi_def_cfa_register 7
 1295 0006 7860     		str	r0, [r7, #4]
 626:Generated_Source\PSoC4/BLE_HAL_PVT.c ****         return (CYBLE_ERROR_UNSUPPORTED_FEATURE_OR_PARAMETER_VALUE);
 1296              		.loc 1 626 0
 1297 0008 2B23     		movs	r3, #43
 627:Generated_Source\PSoC4/BLE_HAL_PVT.c ****     }
 1298              		.loc 1 627 0
 1299 000a 1800     		movs	r0, r3
 1300 000c BD46     		mov	sp, r7
 1301 000e 02B0     		add	sp, sp, #8
 1302              		@ sp needed
ARM GAS  C:\Users\cypress\AppData\Local\Temp\ccubSXOs.s 			page 35


 1303 0010 80BD     		pop	{r7, pc}
 1304              		.cfi_endproc
 1305              	.LFE23:
 1306              		.size	CyBle_Hal_pairing_lr_confirming_handler, .-CyBle_Hal_pairing_lr_confirming_handler
 1307 0012 C046     		.section	.text.CyBle_Hal_pairing_sc_tbx_dhkey_generate_complete,"ax",%progbits
 1308              		.align	2
 1309              		.global	CyBle_Hal_pairing_sc_tbx_dhkey_generate_complete
 1310              		.code	16
 1311              		.thumb_func
 1312              		.type	CyBle_Hal_pairing_sc_tbx_dhkey_generate_complete, %function
 1313              	CyBle_Hal_pairing_sc_tbx_dhkey_generate_complete:
 1314              	.LFB24:
 628:Generated_Source\PSoC4/BLE_HAL_PVT.c ****     
 629:Generated_Source\PSoC4/BLE_HAL_PVT.c ****     CYBLE_API_RESULT_T CyBle_Hal_pairing_sc_tbx_dhkey_generate_complete(void* param CYBLE_UNUSED_AT
 630:Generated_Source\PSoC4/BLE_HAL_PVT.c ****     {
 1315              		.loc 1 630 0
 1316              		.cfi_startproc
 1317              		@ args = 0, pretend = 0, frame = 8
 1318              		@ frame_needed = 1, uses_anonymous_args = 0
 1319 0000 80B5     		push	{r7, lr}
 1320              		.cfi_def_cfa_offset 8
 1321              		.cfi_offset 7, -8
 1322              		.cfi_offset 14, -4
 1323 0002 82B0     		sub	sp, sp, #8
 1324              		.cfi_def_cfa_offset 16
 1325 0004 00AF     		add	r7, sp, #0
 1326              		.cfi_def_cfa_register 7
 1327 0006 7860     		str	r0, [r7, #4]
 631:Generated_Source\PSoC4/BLE_HAL_PVT.c ****         return (CYBLE_ERROR_UNSUPPORTED_FEATURE_OR_PARAMETER_VALUE);
 1328              		.loc 1 631 0
 1329 0008 2B23     		movs	r3, #43
 632:Generated_Source\PSoC4/BLE_HAL_PVT.c ****     }
 1330              		.loc 1 632 0
 1331 000a 1800     		movs	r0, r3
 1332 000c BD46     		mov	sp, r7
 1333 000e 02B0     		add	sp, sp, #8
 1334              		@ sp needed
 1335 0010 80BD     		pop	{r7, pc}
 1336              		.cfi_endproc
 1337              	.LFE24:
 1338              		.size	CyBle_Hal_pairing_sc_tbx_dhkey_generate_complete, .-CyBle_Hal_pairing_sc_tbx_dhkey_generate_
 1339 0012 C046     		.section	.text.CyBle_Hal_pairing_sc_tbx_local_pubkey_generate_complete,"ax",%progbits
 1340              		.align	2
 1341              		.global	CyBle_Hal_pairing_sc_tbx_local_pubkey_generate_complete
 1342              		.code	16
 1343              		.thumb_func
 1344              		.type	CyBle_Hal_pairing_sc_tbx_local_pubkey_generate_complete, %function
 1345              	CyBle_Hal_pairing_sc_tbx_local_pubkey_generate_complete:
 1346              	.LFB25:
 633:Generated_Source\PSoC4/BLE_HAL_PVT.c **** 
 634:Generated_Source\PSoC4/BLE_HAL_PVT.c ****     CYBLE_API_RESULT_T CyBle_Hal_pairing_sc_tbx_local_pubkey_generate_complete(void)
 635:Generated_Source\PSoC4/BLE_HAL_PVT.c ****     {
 1347              		.loc 1 635 0
 1348              		.cfi_startproc
 1349              		@ args = 0, pretend = 0, frame = 0
 1350              		@ frame_needed = 1, uses_anonymous_args = 0
 1351 0000 80B5     		push	{r7, lr}
ARM GAS  C:\Users\cypress\AppData\Local\Temp\ccubSXOs.s 			page 36


 1352              		.cfi_def_cfa_offset 8
 1353              		.cfi_offset 7, -8
 1354              		.cfi_offset 14, -4
 1355 0002 00AF     		add	r7, sp, #0
 1356              		.cfi_def_cfa_register 7
 636:Generated_Source\PSoC4/BLE_HAL_PVT.c ****         return (CYBLE_ERROR_UNSUPPORTED_FEATURE_OR_PARAMETER_VALUE);
 1357              		.loc 1 636 0
 1358 0004 2B23     		movs	r3, #43
 637:Generated_Source\PSoC4/BLE_HAL_PVT.c ****     }
 1359              		.loc 1 637 0
 1360 0006 1800     		movs	r0, r3
 1361 0008 BD46     		mov	sp, r7
 1362              		@ sp needed
 1363 000a 80BD     		pop	{r7, pc}
 1364              		.cfi_endproc
 1365              	.LFE25:
 1366              		.size	CyBle_Hal_pairing_sc_tbx_local_pubkey_generate_complete, .-CyBle_Hal_pairing_sc_tbx_local_pu
 1367              		.section	.text.CyBle_Hal_pairing_sc_tbx_generate_local_P256_public_key,"ax",%progbits
 1368              		.align	2
 1369              		.global	CyBle_Hal_pairing_sc_tbx_generate_local_P256_public_key
 1370              		.code	16
 1371              		.thumb_func
 1372              		.type	CyBle_Hal_pairing_sc_tbx_generate_local_P256_public_key, %function
 1373              	CyBle_Hal_pairing_sc_tbx_generate_local_P256_public_key:
 1374              	.LFB26:
 638:Generated_Source\PSoC4/BLE_HAL_PVT.c **** 
 639:Generated_Source\PSoC4/BLE_HAL_PVT.c ****     CYBLE_API_RESULT_T CyBle_Hal_pairing_sc_tbx_generate_local_P256_public_key(uint8 param CYBLE_UN
 640:Generated_Source\PSoC4/BLE_HAL_PVT.c ****     {
 1375              		.loc 1 640 0
 1376              		.cfi_startproc
 1377              		@ args = 0, pretend = 0, frame = 8
 1378              		@ frame_needed = 1, uses_anonymous_args = 0
 1379 0000 80B5     		push	{r7, lr}
 1380              		.cfi_def_cfa_offset 8
 1381              		.cfi_offset 7, -8
 1382              		.cfi_offset 14, -4
 1383 0002 82B0     		sub	sp, sp, #8
 1384              		.cfi_def_cfa_offset 16
 1385 0004 00AF     		add	r7, sp, #0
 1386              		.cfi_def_cfa_register 7
 1387 0006 0200     		movs	r2, r0
 1388 0008 FB1D     		adds	r3, r7, #7
 1389 000a 1A70     		strb	r2, [r3]
 641:Generated_Source\PSoC4/BLE_HAL_PVT.c ****         return (CYBLE_ERROR_UNSUPPORTED_FEATURE_OR_PARAMETER_VALUE);
 1390              		.loc 1 641 0
 1391 000c 2B23     		movs	r3, #43
 642:Generated_Source\PSoC4/BLE_HAL_PVT.c ****     }
 1392              		.loc 1 642 0
 1393 000e 1800     		movs	r0, r3
 1394 0010 BD46     		mov	sp, r7
 1395 0012 02B0     		add	sp, sp, #8
 1396              		@ sp needed
 1397 0014 80BD     		pop	{r7, pc}
 1398              		.cfi_endproc
 1399              	.LFE26:
 1400              		.size	CyBle_Hal_pairing_sc_tbx_generate_local_P256_public_key, .-CyBle_Hal_pairing_sc_tbx_generate
 1401 0016 C046     		.section	.text.CyBle_Hal_pairing_sc_tbx_generate_DHkey,"ax",%progbits
ARM GAS  C:\Users\cypress\AppData\Local\Temp\ccubSXOs.s 			page 37


 1402              		.align	2
 1403              		.global	CyBle_Hal_pairing_sc_tbx_generate_DHkey
 1404              		.code	16
 1405              		.thumb_func
 1406              		.type	CyBle_Hal_pairing_sc_tbx_generate_DHkey, %function
 1407              	CyBle_Hal_pairing_sc_tbx_generate_DHkey:
 1408              	.LFB27:
 643:Generated_Source\PSoC4/BLE_HAL_PVT.c **** 
 644:Generated_Source\PSoC4/BLE_HAL_PVT.c ****     CYBLE_API_RESULT_T CyBle_Hal_pairing_sc_tbx_generate_DHkey(void  * param1 CYBLE_UNUSED_ATTR,
 645:Generated_Source\PSoC4/BLE_HAL_PVT.c ****                                                                void  * param2 CYBLE_UNUSED_ATTR)
 646:Generated_Source\PSoC4/BLE_HAL_PVT.c ****     {
 1409              		.loc 1 646 0
 1410              		.cfi_startproc
 1411              		@ args = 0, pretend = 0, frame = 8
 1412              		@ frame_needed = 1, uses_anonymous_args = 0
 1413 0000 80B5     		push	{r7, lr}
 1414              		.cfi_def_cfa_offset 8
 1415              		.cfi_offset 7, -8
 1416              		.cfi_offset 14, -4
 1417 0002 82B0     		sub	sp, sp, #8
 1418              		.cfi_def_cfa_offset 16
 1419 0004 00AF     		add	r7, sp, #0
 1420              		.cfi_def_cfa_register 7
 1421 0006 7860     		str	r0, [r7, #4]
 1422 0008 3960     		str	r1, [r7]
 647:Generated_Source\PSoC4/BLE_HAL_PVT.c ****         return (CYBLE_ERROR_UNSUPPORTED_FEATURE_OR_PARAMETER_VALUE);
 1423              		.loc 1 647 0
 1424 000a 2B23     		movs	r3, #43
 648:Generated_Source\PSoC4/BLE_HAL_PVT.c ****     }
 1425              		.loc 1 648 0
 1426 000c 1800     		movs	r0, r3
 1427 000e BD46     		mov	sp, r7
 1428 0010 02B0     		add	sp, sp, #8
 1429              		@ sp needed
 1430 0012 80BD     		pop	{r7, pc}
 1431              		.cfi_endproc
 1432              	.LFE27:
 1433              		.size	CyBle_Hal_pairing_sc_tbx_generate_DHkey, .-CyBle_Hal_pairing_sc_tbx_generate_DHkey
 1434              		.section	.text.CyBle_Hal_smp_sc_cmac_complete,"ax",%progbits
 1435              		.align	2
 1436              		.global	CyBle_Hal_smp_sc_cmac_complete
 1437              		.code	16
 1438              		.thumb_func
 1439              		.type	CyBle_Hal_smp_sc_cmac_complete, %function
 1440              	CyBle_Hal_smp_sc_cmac_complete:
 1441              	.LFB28:
 649:Generated_Source\PSoC4/BLE_HAL_PVT.c **** 
 650:Generated_Source\PSoC4/BLE_HAL_PVT.c ****     void CyBle_Hal_smp_sc_cmac_complete(void)
 651:Generated_Source\PSoC4/BLE_HAL_PVT.c ****     {
 1442              		.loc 1 651 0
 1443              		.cfi_startproc
 1444              		@ args = 0, pretend = 0, frame = 0
 1445              		@ frame_needed = 1, uses_anonymous_args = 0
 1446 0000 80B5     		push	{r7, lr}
 1447              		.cfi_def_cfa_offset 8
 1448              		.cfi_offset 7, -8
 1449              		.cfi_offset 14, -4
ARM GAS  C:\Users\cypress\AppData\Local\Temp\ccubSXOs.s 			page 38


 1450 0002 00AF     		add	r7, sp, #0
 1451              		.cfi_def_cfa_register 7
 652:Generated_Source\PSoC4/BLE_HAL_PVT.c ****     }
 1452              		.loc 1 652 0
 1453 0004 C046     		nop
 1454 0006 BD46     		mov	sp, r7
 1455              		@ sp needed
 1456 0008 80BD     		pop	{r7, pc}
 1457              		.cfi_endproc
 1458              	.LFE28:
 1459              		.size	CyBle_Hal_smp_sc_cmac_complete, .-CyBle_Hal_smp_sc_cmac_complete
 1460              		.section	.text.CyBle_Hal_se_smp_sc_user_passkey_handler,"ax",%progbits
 1461              		.align	2
 1462              		.global	CyBle_Hal_se_smp_sc_user_passkey_handler
 1463              		.code	16
 1464              		.thumb_func
 1465              		.type	CyBle_Hal_se_smp_sc_user_passkey_handler, %function
 1466              	CyBle_Hal_se_smp_sc_user_passkey_handler:
 1467              	.LFB29:
 653:Generated_Source\PSoC4/BLE_HAL_PVT.c **** 
 654:Generated_Source\PSoC4/BLE_HAL_PVT.c ****     CYBLE_API_RESULT_T CyBle_Hal_se_smp_sc_user_passkey_handler(void  * param1 CYBLE_UNUSED_ATTR,
 655:Generated_Source\PSoC4/BLE_HAL_PVT.c ****                                                                 void  * param2 CYBLE_UNUSED_ATTR)
 656:Generated_Source\PSoC4/BLE_HAL_PVT.c ****     {
 1468              		.loc 1 656 0
 1469              		.cfi_startproc
 1470              		@ args = 0, pretend = 0, frame = 8
 1471              		@ frame_needed = 1, uses_anonymous_args = 0
 1472 0000 80B5     		push	{r7, lr}
 1473              		.cfi_def_cfa_offset 8
 1474              		.cfi_offset 7, -8
 1475              		.cfi_offset 14, -4
 1476 0002 82B0     		sub	sp, sp, #8
 1477              		.cfi_def_cfa_offset 16
 1478 0004 00AF     		add	r7, sp, #0
 1479              		.cfi_def_cfa_register 7
 1480 0006 7860     		str	r0, [r7, #4]
 1481 0008 3960     		str	r1, [r7]
 657:Generated_Source\PSoC4/BLE_HAL_PVT.c ****         return (CYBLE_ERROR_UNSUPPORTED_FEATURE_OR_PARAMETER_VALUE);
 1482              		.loc 1 657 0
 1483 000a 2B23     		movs	r3, #43
 658:Generated_Source\PSoC4/BLE_HAL_PVT.c ****     }
 1484              		.loc 1 658 0
 1485 000c 1800     		movs	r0, r3
 1486 000e BD46     		mov	sp, r7
 1487 0010 02B0     		add	sp, sp, #8
 1488              		@ sp needed
 1489 0012 80BD     		pop	{r7, pc}
 1490              		.cfi_endproc
 1491              	.LFE29:
 1492              		.size	CyBle_Hal_se_smp_sc_user_passkey_handler, .-CyBle_Hal_se_smp_sc_user_passkey_handler
 1493              		.section	.text.CyBle_Hal_EccPointMult,"ax",%progbits
 1494              		.align	2
 1495              		.global	CyBle_Hal_EccPointMult
 1496              		.code	16
 1497              		.thumb_func
 1498              		.type	CyBle_Hal_EccPointMult, %function
 1499              	CyBle_Hal_EccPointMult:
ARM GAS  C:\Users\cypress\AppData\Local\Temp\ccubSXOs.s 			page 39


 1500              	.LFB30:
 659:Generated_Source\PSoC4/BLE_HAL_PVT.c **** 
 660:Generated_Source\PSoC4/BLE_HAL_PVT.c ****     void CyBle_Hal_EccPointMult(void)
 661:Generated_Source\PSoC4/BLE_HAL_PVT.c ****     {
 1501              		.loc 1 661 0
 1502              		.cfi_startproc
 1503              		@ args = 0, pretend = 0, frame = 0
 1504              		@ frame_needed = 1, uses_anonymous_args = 0
 1505 0000 80B5     		push	{r7, lr}
 1506              		.cfi_def_cfa_offset 8
 1507              		.cfi_offset 7, -8
 1508              		.cfi_offset 14, -4
 1509 0002 00AF     		add	r7, sp, #0
 1510              		.cfi_def_cfa_register 7
 662:Generated_Source\PSoC4/BLE_HAL_PVT.c ****     }
 1511              		.loc 1 662 0
 1512 0004 C046     		nop
 1513 0006 BD46     		mov	sp, r7
 1514              		@ sp needed
 1515 0008 80BD     		pop	{r7, pc}
 1516              		.cfi_endproc
 1517              	.LFE30:
 1518              		.size	CyBle_Hal_EccPointMult, .-CyBle_Hal_EccPointMult
 1519              		.section	.text.BLE_CMP_FTR_API_lec_hci_handle_read_local_P256_public_key_command,"ax",%progbits
 1520              		.align	2
 1521              		.global	BLE_CMP_FTR_API_lec_hci_handle_read_local_P256_public_key_command
 1522              		.code	16
 1523              		.thumb_func
 1524              		.type	BLE_CMP_FTR_API_lec_hci_handle_read_local_P256_public_key_command, %function
 1525              	BLE_CMP_FTR_API_lec_hci_handle_read_local_P256_public_key_command:
 1526              	.LFB31:
 663:Generated_Source\PSoC4/BLE_HAL_PVT.c ****     
 664:Generated_Source\PSoC4/BLE_HAL_PVT.c **** #endif /* (CYBLE_SECURE_CONN_FEATURE_ENABLED) */
 665:Generated_Source\PSoC4/BLE_HAL_PVT.c **** 
 666:Generated_Source\PSoC4/BLE_HAL_PVT.c **** #endif /* CYBLE_MODE_PROFILE */
 667:Generated_Source\PSoC4/BLE_HAL_PVT.c **** 
 668:Generated_Source\PSoC4/BLE_HAL_PVT.c **** #if(CYBLE_SECURE_CONN_FEATURE_ENABLED)
 669:Generated_Source\PSoC4/BLE_HAL_PVT.c ****     
 670:Generated_Source\PSoC4/BLE_HAL_PVT.c ****     uint16 BLE_CMP_FTR_API_lec_hci_handle_read_local_P256_public_key_command(void *param)
 671:Generated_Source\PSoC4/BLE_HAL_PVT.c ****     {
 672:Generated_Source\PSoC4/BLE_HAL_PVT.c ****         return (BLE_STK_FTR_API_lec_hci_handle_read_local_P256_public_key_command(param));
 673:Generated_Source\PSoC4/BLE_HAL_PVT.c ****     }
 674:Generated_Source\PSoC4/BLE_HAL_PVT.c ****     
 675:Generated_Source\PSoC4/BLE_HAL_PVT.c ****     uint16 BLE_CMP_FTR_API_lec_hci_handle_generate_DHkey_command(void *param)
 676:Generated_Source\PSoC4/BLE_HAL_PVT.c ****     {
 677:Generated_Source\PSoC4/BLE_HAL_PVT.c ****         return (BLE_STK_FTR_API_lec_hci_handle_generate_DHkey_command(param));
 678:Generated_Source\PSoC4/BLE_HAL_PVT.c ****     }
 679:Generated_Source\PSoC4/BLE_HAL_PVT.c **** 
 680:Generated_Source\PSoC4/BLE_HAL_PVT.c **** #else     /* If feature is not required, return error. */
 681:Generated_Source\PSoC4/BLE_HAL_PVT.c ****     
 682:Generated_Source\PSoC4/BLE_HAL_PVT.c ****     uint16 BLE_CMP_FTR_API_lec_hci_handle_read_local_P256_public_key_command(void *param CYBLE_UNUS
 683:Generated_Source\PSoC4/BLE_HAL_PVT.c ****     {
 1527              		.loc 1 683 0
 1528              		.cfi_startproc
 1529              		@ args = 0, pretend = 0, frame = 8
 1530              		@ frame_needed = 1, uses_anonymous_args = 0
 1531 0000 80B5     		push	{r7, lr}
ARM GAS  C:\Users\cypress\AppData\Local\Temp\ccubSXOs.s 			page 40


 1532              		.cfi_def_cfa_offset 8
 1533              		.cfi_offset 7, -8
 1534              		.cfi_offset 14, -4
 1535 0002 82B0     		sub	sp, sp, #8
 1536              		.cfi_def_cfa_offset 16
 1537 0004 00AF     		add	r7, sp, #0
 1538              		.cfi_def_cfa_register 7
 1539 0006 7860     		str	r0, [r7, #4]
 684:Generated_Source\PSoC4/BLE_HAL_PVT.c ****         return (CYBLE_UNKNOWN_HCI_COMMAND_ERROR);
 1540              		.loc 1 684 0
 1541 0008 0123     		movs	r3, #1
 685:Generated_Source\PSoC4/BLE_HAL_PVT.c ****     }
 1542              		.loc 1 685 0
 1543 000a 1800     		movs	r0, r3
 1544 000c BD46     		mov	sp, r7
 1545 000e 02B0     		add	sp, sp, #8
 1546              		@ sp needed
 1547 0010 80BD     		pop	{r7, pc}
 1548              		.cfi_endproc
 1549              	.LFE31:
 1550              		.size	BLE_CMP_FTR_API_lec_hci_handle_read_local_P256_public_key_command, .-BLE_CMP_FTR_API_lec_hci
 1551 0012 C046     		.section	.text.BLE_CMP_FTR_API_lec_hci_handle_generate_DHkey_command,"ax",%progbits
 1552              		.align	2
 1553              		.global	BLE_CMP_FTR_API_lec_hci_handle_generate_DHkey_command
 1554              		.code	16
 1555              		.thumb_func
 1556              		.type	BLE_CMP_FTR_API_lec_hci_handle_generate_DHkey_command, %function
 1557              	BLE_CMP_FTR_API_lec_hci_handle_generate_DHkey_command:
 1558              	.LFB32:
 686:Generated_Source\PSoC4/BLE_HAL_PVT.c ****     
 687:Generated_Source\PSoC4/BLE_HAL_PVT.c ****     uint16 BLE_CMP_FTR_API_lec_hci_handle_generate_DHkey_command(void *param CYBLE_UNUSED_ATTR)
 688:Generated_Source\PSoC4/BLE_HAL_PVT.c ****     {
 1559              		.loc 1 688 0
 1560              		.cfi_startproc
 1561              		@ args = 0, pretend = 0, frame = 8
 1562              		@ frame_needed = 1, uses_anonymous_args = 0
 1563 0000 80B5     		push	{r7, lr}
 1564              		.cfi_def_cfa_offset 8
 1565              		.cfi_offset 7, -8
 1566              		.cfi_offset 14, -4
 1567 0002 82B0     		sub	sp, sp, #8
 1568              		.cfi_def_cfa_offset 16
 1569 0004 00AF     		add	r7, sp, #0
 1570              		.cfi_def_cfa_register 7
 1571 0006 7860     		str	r0, [r7, #4]
 689:Generated_Source\PSoC4/BLE_HAL_PVT.c ****         return (CYBLE_UNKNOWN_HCI_COMMAND_ERROR);
 1572              		.loc 1 689 0
 1573 0008 0123     		movs	r3, #1
 690:Generated_Source\PSoC4/BLE_HAL_PVT.c ****     }
 1574              		.loc 1 690 0
 1575 000a 1800     		movs	r0, r3
 1576 000c BD46     		mov	sp, r7
 1577 000e 02B0     		add	sp, sp, #8
 1578              		@ sp needed
 1579 0010 80BD     		pop	{r7, pc}
 1580              		.cfi_endproc
 1581              	.LFE32:
ARM GAS  C:\Users\cypress\AppData\Local\Temp\ccubSXOs.s 			page 41


 1582              		.size	BLE_CMP_FTR_API_lec_hci_handle_generate_DHkey_command, .-BLE_CMP_FTR_API_lec_hci_handle_gene
 1583 0012 C046     		.text
 1584              	.Letext0:
 1585              		.file 2 "Generated_Source\\PSoC4\\cytypes.h"
 1586              		.file 3 "Generated_Source\\PSoC4\\BLE_Stack.h"