ARM GAS  C:\Users\cypress\AppData\Local\Temp\ccgxY6Ea.s 			page 1


   1              		.syntax unified
   2              		.cpu cortex-m0
   3              		.fpu softvfp
   4              		.eabi_attribute 20, 1
   5              		.eabi_attribute 21, 1
   6              		.eabi_attribute 23, 3
   7              		.eabi_attribute 24, 1
   8              		.eabi_attribute 25, 1
   9              		.eabi_attribute 26, 1
  10              		.eabi_attribute 30, 6
  11              		.eabi_attribute 34, 0
  12              		.eabi_attribute 18, 4
  13              		.thumb
  14              		.syntax unified
  15              		.file	"cgmss.c"
  16              		.text
  17              	.Ltext0:
  18              		.cfi_sections	.debug_frame
  19              		.global	cgmsFlag
  20              		.bss
  21              		.type	cgmsFlag, %object
  22              		.size	cgmsFlag, 1
  23              	cgmsFlag:
  24 0000 00       		.space	1
  25              		.global	recCnt
  26              		.data
  27              		.type	recCnt, %object
  28              		.size	recCnt, 1
  29              	recCnt:
  30 0000 01       		.byte	1
  31              		.global	racpOpCode
  32              		.bss
  33              		.type	racpOpCode, %object
  34              		.size	racpOpCode, 1
  35              	racpOpCode:
  36 0001 00       		.space	1
  37              		.global	racpOperator
  38              		.type	racpOperator, %object
  39              		.size	racpOperator, 1
  40              	racpOperator:
  41 0002 00       		.space	1
  42              		.comm	racpOperand,3,4
  43              		.comm	socpOpCode,1,1
  44              		.comm	socp,13,4
  45              		.global	socpLength
  46              		.type	socpLength, %object
  47              		.size	socpLength, 1
  48              	socpLength:
  49 0003 00       		.space	1
  50              		.global	socpOpd
  51              		.align	1
  52              		.type	socpOpd, %object
  53              		.size	socpOpd, 2
  54              	socpOpd:
  55 0004 0000     		.space	2
  56              		.global	socpOpdPtr
  57              		.data
ARM GAS  C:\Users\cypress\AppData\Local\Temp\ccgxY6Ea.s 			page 2


  58 0001 000000   		.align	2
  59              		.type	socpOpdPtr, %object
  60              		.size	socpOpdPtr, 4
  61              	socpOpdPtr:
  62 0004 00000000 		.word	socpOpd
  63              		.global	commInterval
  64              		.type	commInterval, %object
  65              		.size	commInterval, 1
  66              	commInterval:
  67 0008 05       		.byte	5
  68              		.global	socpRecNum
  69 0009 00       		.align	1
  70              		.type	socpRecNum, %object
  71              		.size	socpRecNum, 2
  72              	socpRecNum:
  73 000a 0100     		.short	1
  74              		.global	alrt
  75              		.align	2
  76              		.type	alrt, %object
  77              		.size	alrt, 12
  78              	alrt:
  79 000c 0500     		.short	5
  80 000e 0500     		.short	5
  81 0010 0500     		.short	5
  82 0012 0500     		.short	5
  83 0014 0500     		.short	5
  84 0016 0500     		.short	5
  85              		.comm	attr,24,4
  86              		.global	length
  87              		.bss
  88              		.type	length, %object
  89              		.size	length, 1
  90              	length:
  91 0006 00       		.space	1
  92              		.comm	cgft,8,4
  93              		.comm	sstm,10,4
  94              		.global	timeZone
  95              		.section	.rodata
  96              		.align	2
  97              		.type	timeZone, %object
  98              		.size	timeZone, 40
  99              	timeZone:
 100 0000 D0       		.byte	-48
 101 0001 D4       		.byte	-44
 102 0002 D8       		.byte	-40
 103 0003 DA       		.byte	-38
 104 0004 DC       		.byte	-36
 105 0005 E0       		.byte	-32
 106 0006 E4       		.byte	-28
 107 0007 E8       		.byte	-24
 108 0008 EC       		.byte	-20
 109 0009 EE       		.byte	-18
 110 000a F0       		.byte	-16
 111 000b F2       		.byte	-14
 112 000c F4       		.byte	-12
 113 000d F8       		.byte	-8
 114 000e FC       		.byte	-4
ARM GAS  C:\Users\cypress\AppData\Local\Temp\ccgxY6Ea.s 			page 3


 115 000f 00       		.byte	0
 116 0010 04       		.byte	4
 117 0011 08       		.byte	8
 118 0012 0C       		.byte	12
 119 0013 0E       		.byte	14
 120 0014 10       		.byte	16
 121 0015 12       		.byte	18
 122 0016 14       		.byte	20
 123 0017 16       		.byte	22
 124 0018 17       		.byte	23
 125 0019 18       		.byte	24
 126 001a 1A       		.byte	26
 127 001b 1C       		.byte	28
 128 001c 20       		.byte	32
 129 001d 23       		.byte	35
 130 001e 24       		.byte	36
 131 001f 26       		.byte	38
 132 0020 28       		.byte	40
 133 0021 2A       		.byte	42
 134 0022 2C       		.byte	44
 135 0023 2E       		.byte	46
 136 0024 30       		.byte	48
 137 0025 33       		.byte	51
 138 0026 34       		.byte	52
 139 0027 38       		.byte	56
 140              		.global	recStatus
 141              		.bss
 142 0007 00       		.align	2
 143              		.type	recStatus, %object
 144              		.size	recStatus, 3
 145              	recStatus:
 146 0008 000000   		.space	3
 147              		.global	cgmt
 148              		.data
 149              		.align	2
 150              		.type	cgmt, %object
 151              		.size	cgmt, 48
 152              	cgmt:
 153 0018 E3       		.byte	-29
 154 0019 00       		.space	1
 155 001a 32B0     		.short	-20430
 156 001c 0100     		.short	1
 157 001e 0000     		.space	2
 158 0020 02040100 		.word	66562
 159 0024 0000     		.short	0
 160 0026 0000     		.short	0
 161 0028 E2       		.byte	-30
 162 0029 00       		.space	1
 163 002a 32B0     		.short	-20430
 164 002c 0200     		.short	2
 165 002e 0000     		.space	2
 166 0030 02040100 		.word	66562
 167 0034 0000     		.short	0
 168 0036 0000     		.short	0
 169 0038 E0       		.byte	-32
 170 0039 00       		.space	1
 171 003a 32B0     		.short	-20430
ARM GAS  C:\Users\cypress\AppData\Local\Temp\ccgxY6Ea.s 			page 4


 172 003c 0300     		.short	3
 173 003e 0000     		.space	2
 174 0040 02040100 		.word	66562
 175 0044 0000     		.short	0
 176 0046 0000     		.short	0
 177              		.section	.rodata
 178              		.align	2
 179              	.LC1:
 180 0028 43474D20 		.ascii	"CGM Measurement \000"
 180      4D656173 
 180      7572656D 
 180      656E7420 
 180      00
 181 0039 000000   		.align	2
 182              	.LC3:
 183 003c 43474D20 		.ascii	"CGM Feature \000"
 183      46656174 
 183      75726520 
 183      00
 184 0049 000000   		.align	2
 185              	.LC5:
 186 004c 43474D20 		.ascii	"CGM Status \000"
 186      53746174 
 186      75732000 
 187              		.align	2
 188              	.LC7:
 189 0058 43474D20 		.ascii	"CGM Session Start Time \000"
 189      53657373 
 189      696F6E20 
 189      53746172 
 189      74205469 
 190              		.align	2
 191              	.LC9:
 192 0070 43474D20 		.ascii	"CGM Session Run Time \000"
 192      53657373 
 192      696F6E20 
 192      52756E20 
 192      54696D65 
 193 0086 0000     		.align	2
 194              	.LC11:
 195 0088 52414350 		.ascii	"RACP \000"
 195      2000
 196 008e 0000     		.align	2
 197              	.LC13:
 198 0090 534F4350 		.ascii	"SOCP \000"
 198      2000
 199 0096 0000     		.align	2
 200              	.LC15:
 201 0098 556E6B6E 		.ascii	"Unknown CGM\000"
 201      6F776E20 
 201      43474D00 
 202              		.align	2
 203              	.LC17:
 204 00a4 63686172 		.ascii	"characteristic \000"
 204      61637465 
 204      72697374 
 204      69632000 
ARM GAS  C:\Users\cypress\AppData\Local\Temp\ccgxY6Ea.s 			page 5


 205              		.section	.text.CgmsPrintCharName,"ax",%progbits
 206              		.align	2
 207              		.global	CgmsPrintCharName
 208              		.code	16
 209              		.thumb_func
 210              		.type	CgmsPrintCharName, %function
 211              	CgmsPrintCharName:
 212              	.LFB36:
 213              		.file 1 "cgmss.c"
   1:cgmss.c       **** /*******************************************************************************
   2:cgmss.c       **** * File Name: cgmss.c
   3:cgmss.c       **** *
   4:cgmss.c       **** * Version 1.0
   5:cgmss.c       **** *
   6:cgmss.c       **** * Description:
   7:cgmss.c       **** *  This file contains the Continuous Glucose Monitoring Service related code.
   8:cgmss.c       **** *
   9:cgmss.c       **** * Hardware Dependency:
  10:cgmss.c       **** *  CY8CKIT-042 BLE
  11:cgmss.c       **** *
  12:cgmss.c       **** ********************************************************************************
  13:cgmss.c       **** * Copyright 2016, Cypress Semiconductor Corporation.  All rights reserved.
  14:cgmss.c       **** * You may use this file only in accordance with the license, terms, conditions,
  15:cgmss.c       **** * disclaimers, and limitations in the end user license agreement accompanying
  16:cgmss.c       **** * the software package with which this file was provided.
  17:cgmss.c       **** *******************************************************************************/
  18:cgmss.c       **** 
  19:cgmss.c       **** #include "cgmss.h"
  20:cgmss.c       **** 
  21:cgmss.c       **** 
  22:cgmss.c       **** uint8 cgmsFlag = 0u;
  23:cgmss.c       **** uint8 recCnt = 1u;
  24:cgmss.c       **** uint8 racpOpCode = 0u;
  25:cgmss.c       **** uint8 racpOperator = 0u;
  26:cgmss.c       **** uint8 racpOperand[3u];
  27:cgmss.c       **** 
  28:cgmss.c       **** CYBLE_CGMS_SOCP_OPC_T socpOpCode;
  29:cgmss.c       **** uint8 socp[13];
  30:cgmss.c       **** uint8 socpLength = 0u;
  31:cgmss.c       **** sfloat socpOpd = 0u;
  32:cgmss.c       **** sfloat* socpOpdPtr = &socpOpd;
  33:cgmss.c       **** uint8 commInterval = 5u;
  34:cgmss.c       **** uint16 socpRecNum = 1u;
  35:cgmss.c       **** CYBLE_CGMS_ALRT_T alrt = {5u,5u,5u,5u,5u,5u};
  36:cgmss.c       **** 
  37:cgmss.c       **** uint8 attr[24u];
  38:cgmss.c       **** uint8 length = 0u;
  39:cgmss.c       **** CYBLE_CGMS_CGFT_T cgft;
  40:cgmss.c       **** CYBLE_CGMS_SSTM_T sstm;
  41:cgmss.c       **** const CYBLE_TIME_ZONE_T timeZone[CYBLE_TIME_ZONE_VAL_NUM] =
  42:cgmss.c       **** {
  43:cgmss.c       ****     CYBLE_TIME_ZONE_M1200, /* UTC-12:00 */
  44:cgmss.c       ****     CYBLE_TIME_ZONE_M1100, /* UTC-11:00 */
  45:cgmss.c       ****     CYBLE_TIME_ZONE_M1000, /* UTC-10:00 */
  46:cgmss.c       ****     CYBLE_TIME_ZONE_M0930, /* UTC-9:30 */
  47:cgmss.c       ****     CYBLE_TIME_ZONE_M0900, /* UTC-9:00 */
  48:cgmss.c       ****     CYBLE_TIME_ZONE_M0800, /* UTC-8:00 */
ARM GAS  C:\Users\cypress\AppData\Local\Temp\ccgxY6Ea.s 			page 6


  49:cgmss.c       ****     CYBLE_TIME_ZONE_M0700, /* UTC-7:00 */
  50:cgmss.c       ****     CYBLE_TIME_ZONE_M0600, /* UTC-6:00 */
  51:cgmss.c       ****     CYBLE_TIME_ZONE_M0500, /* UTC-5:00 */
  52:cgmss.c       ****     CYBLE_TIME_ZONE_M0430, /* UTC-4:30 */
  53:cgmss.c       ****     CYBLE_TIME_ZONE_M0400, /* UTC-4:00 */
  54:cgmss.c       ****     CYBLE_TIME_ZONE_M0330, /* UTC-3:30 */
  55:cgmss.c       ****     CYBLE_TIME_ZONE_M0300, /* UTC-3:00 */
  56:cgmss.c       ****     CYBLE_TIME_ZONE_M0200, /* UTC-2:00 */
  57:cgmss.c       ****     CYBLE_TIME_ZONE_M0100, /* UTC-1:00 */
  58:cgmss.c       ****     CYBLE_TIME_ZONE_ZERO,  /* UTC+0:00 */
  59:cgmss.c       ****     CYBLE_TIME_ZONE_P0100, /* UTC+1:00 */
  60:cgmss.c       ****     CYBLE_TIME_ZONE_P0200, /* UTC+2:00 */
  61:cgmss.c       ****     CYBLE_TIME_ZONE_P0300, /* UTC+3:00 */
  62:cgmss.c       ****     CYBLE_TIME_ZONE_P0330, /* UTC+3:30 */
  63:cgmss.c       ****     CYBLE_TIME_ZONE_P0400, /* UTC+4:00 */
  64:cgmss.c       ****     CYBLE_TIME_ZONE_P0430, /* UTC+4:30 */
  65:cgmss.c       ****     CYBLE_TIME_ZONE_P0500, /* UTC+5:00 */
  66:cgmss.c       ****     CYBLE_TIME_ZONE_P0530, /* UTC+5:30 */
  67:cgmss.c       ****     CYBLE_TIME_ZONE_P0545, /* UTC+5:45 */
  68:cgmss.c       ****     CYBLE_TIME_ZONE_P0600, /* UTC+6:00 */
  69:cgmss.c       ****     CYBLE_TIME_ZONE_P0630, /* UTC+6:30 */
  70:cgmss.c       ****     CYBLE_TIME_ZONE_P0700, /* UTC+7:00 */
  71:cgmss.c       ****     CYBLE_TIME_ZONE_P0800, /* UTC+8:00 */
  72:cgmss.c       ****     CYBLE_TIME_ZONE_P0845, /* UTC+8:45 */
  73:cgmss.c       ****     CYBLE_TIME_ZONE_P0900, /* UTC+9:00 */
  74:cgmss.c       ****     CYBLE_TIME_ZONE_P0930, /* UTC+9:30 */
  75:cgmss.c       ****     CYBLE_TIME_ZONE_P1000, /* UTC+10:00 */
  76:cgmss.c       ****     CYBLE_TIME_ZONE_P1030, /* UTC+10:30 */
  77:cgmss.c       ****     CYBLE_TIME_ZONE_P1100, /* UTC+11:00 */
  78:cgmss.c       ****     CYBLE_TIME_ZONE_P1130, /* UTC+11:30 */
  79:cgmss.c       ****     CYBLE_TIME_ZONE_P1200, /* UTC+12:00 */
  80:cgmss.c       ****     CYBLE_TIME_ZONE_P1245, /* UTC+12:45 */
  81:cgmss.c       ****     CYBLE_TIME_ZONE_P1300, /* UTC+13:00 */
  82:cgmss.c       ****     CYBLE_TIME_ZONE_P1400  /* UTC+14:00 */
  83:cgmss.c       **** };
  84:cgmss.c       **** 
  85:cgmss.c       **** uint8 recStatus[REC_NUM] = {REC_STATUS_OK, REC_STATUS_OK, REC_STATUS_OK};
  86:cgmss.c       **** 
  87:cgmss.c       **** CYBLE_CGMS_CGMT_T cgmt[REC_NUM] =
  88:cgmss.c       **** {
  89:cgmss.c       ****     {   CYBLE_CGMS_GLMT_FLG_TI | 
  90:cgmss.c       ****         CYBLE_CGMS_GLMT_FLG_QA | 
  91:cgmss.c       ****         CYBLE_CGMS_GLMT_FLG_WG | 
  92:cgmss.c       ****         CYBLE_CGMS_GLMT_FLG_CT |
  93:cgmss.c       ****         CYBLE_CGMS_GLMT_FLG_ST, /* flags */
  94:cgmss.c       ****         0xb032u /* 50 mg/dL */, /* CGM Glucose Concentration */
  95:cgmss.c       ****         1u, /* timeOffset */
  96:cgmss.c       ****         CYBLE_CGMS_GLMT_SSA_BL | CYBLE_CGMS_GLMT_SSA_CR | CYBLE_CGMS_GLMT_SSA_RL, /* Sensor Status 
  97:cgmss.c       ****         0u, /* CGM Trend Information */
  98:cgmss.c       ****         0u, /* CGM Quality */
  99:cgmss.c       ****     },
 100:cgmss.c       ****     {   CYBLE_CGMS_GLMT_FLG_QA | 
 101:cgmss.c       ****         CYBLE_CGMS_GLMT_FLG_WG | 
 102:cgmss.c       ****         CYBLE_CGMS_GLMT_FLG_CT |
 103:cgmss.c       ****         CYBLE_CGMS_GLMT_FLG_ST, /* flags */
 104:cgmss.c       ****         0xb032u /* 50 mg/dL */, /* CGM Glucose Concentration */
 105:cgmss.c       ****         2u, /* timeOffset */
ARM GAS  C:\Users\cypress\AppData\Local\Temp\ccgxY6Ea.s 			page 7


 106:cgmss.c       ****         CYBLE_CGMS_GLMT_SSA_BL | CYBLE_CGMS_GLMT_SSA_CR | CYBLE_CGMS_GLMT_SSA_RL, /* Sensor Status 
 107:cgmss.c       ****         0u, /* CGM Trend Information */
 108:cgmss.c       ****         0u, /* CGM Quality */
 109:cgmss.c       ****     },
 110:cgmss.c       ****     {   CYBLE_CGMS_GLMT_FLG_WG | 
 111:cgmss.c       ****         CYBLE_CGMS_GLMT_FLG_CT |
 112:cgmss.c       ****         CYBLE_CGMS_GLMT_FLG_ST, /* flags */
 113:cgmss.c       ****         0xb032u /* 50 mg/dL */, /* CGM Glucose Concentration */
 114:cgmss.c       ****         3u, /* timeOffset */
 115:cgmss.c       ****         CYBLE_CGMS_GLMT_SSA_BL | CYBLE_CGMS_GLMT_SSA_CR | CYBLE_CGMS_GLMT_SSA_RL, /* Sensor Status 
 116:cgmss.c       ****         0u, /* CGM Trend Information */
 117:cgmss.c       ****         0u, /* CGM Quality */
 118:cgmss.c       ****     }
 119:cgmss.c       **** };
 120:cgmss.c       **** 
 121:cgmss.c       **** void CgmsPrintCharName(CYBLE_CGMS_CHAR_INDEX_T charIndex)
 122:cgmss.c       **** {
 214              		.loc 1 122 0
 215              		.cfi_startproc
 216              		@ args = 0, pretend = 0, frame = 8
 217              		@ frame_needed = 1, uses_anonymous_args = 0
 218 0000 80B5     		push	{r7, lr}
 219              		.cfi_def_cfa_offset 8
 220              		.cfi_offset 7, -8
 221              		.cfi_offset 14, -4
 222 0002 82B0     		sub	sp, sp, #8
 223              		.cfi_def_cfa_offset 16
 224 0004 00AF     		add	r7, sp, #0
 225              		.cfi_def_cfa_register 7
 226 0006 0200     		movs	r2, r0
 227 0008 FB1D     		adds	r3, r7, #7
 228 000a 1A70     		strb	r2, [r3]
 123:cgmss.c       ****     switch(charIndex)
 229              		.loc 1 123 0
 230 000c FB1D     		adds	r3, r7, #7
 231 000e 1B78     		ldrb	r3, [r3]
 232 0010 062B     		cmp	r3, #6
 233 0012 27D8     		bhi	.L2
 234 0014 9A00     		lsls	r2, r3, #2
 235 0016 1A4B     		ldr	r3, .L12
 236 0018 D318     		adds	r3, r2, r3
 237 001a 1B68     		ldr	r3, [r3]
 238 001c 9F46     		mov	pc, r3
 239              		.section	.rodata
 240              		.align	2
 241              	.L4:
 242 00b4 1E000000 		.word	.L3
 243 00b8 28000000 		.word	.L5
 244 00bc 32000000 		.word	.L6
 245 00c0 3C000000 		.word	.L7
 246 00c4 46000000 		.word	.L8
 247 00c8 50000000 		.word	.L9
 248 00cc 5A000000 		.word	.L10
 249              		.section	.text.CgmsPrintCharName
 250              	.L3:
 124:cgmss.c       ****     {
 125:cgmss.c       ****         case CYBLE_CGMS_CGMT:                    
ARM GAS  C:\Users\cypress\AppData\Local\Temp\ccgxY6Ea.s 			page 8


 126:cgmss.c       ****             DBG_PRINTF("CGM Measurement ");
 251              		.loc 1 126 0
 252 001e 194B     		ldr	r3, .L12+4
 253 0020 1800     		movs	r0, r3
 254 0022 FFF7FEFF 		bl	printf
 127:cgmss.c       ****             break;
 255              		.loc 1 127 0
 256 0026 22E0     		b	.L11
 257              	.L5:
 128:cgmss.c       ****         
 129:cgmss.c       ****         case CYBLE_CGMS_CGFT:                    
 130:cgmss.c       ****             DBG_PRINTF("CGM Feature ");
 258              		.loc 1 130 0
 259 0028 174B     		ldr	r3, .L12+8
 260 002a 1800     		movs	r0, r3
 261 002c FFF7FEFF 		bl	printf
 131:cgmss.c       ****             break;
 262              		.loc 1 131 0
 263 0030 1DE0     		b	.L11
 264              	.L6:
 132:cgmss.c       ****             
 133:cgmss.c       ****         case CYBLE_CGMS_CGST:
 134:cgmss.c       ****             DBG_PRINTF("CGM Status ");
 265              		.loc 1 134 0
 266 0032 164B     		ldr	r3, .L12+12
 267 0034 1800     		movs	r0, r3
 268 0036 FFF7FEFF 		bl	printf
 135:cgmss.c       ****             break;
 269              		.loc 1 135 0
 270 003a 18E0     		b	.L11
 271              	.L7:
 136:cgmss.c       ****             
 137:cgmss.c       ****         case CYBLE_CGMS_SSTM:
 138:cgmss.c       ****             DBG_PRINTF("CGM Session Start Time ");
 272              		.loc 1 138 0
 273 003c 144B     		ldr	r3, .L12+16
 274 003e 1800     		movs	r0, r3
 275 0040 FFF7FEFF 		bl	printf
 139:cgmss.c       ****             break;
 276              		.loc 1 139 0
 277 0044 13E0     		b	.L11
 278              	.L8:
 140:cgmss.c       ****             
 141:cgmss.c       ****         case CYBLE_CGMS_SRTM:
 142:cgmss.c       ****             DBG_PRINTF("CGM Session Run Time ");
 279              		.loc 1 142 0
 280 0046 134B     		ldr	r3, .L12+20
 281 0048 1800     		movs	r0, r3
 282 004a FFF7FEFF 		bl	printf
 143:cgmss.c       ****             break;
 283              		.loc 1 143 0
 284 004e 0EE0     		b	.L11
 285              	.L9:
 144:cgmss.c       ****             
 145:cgmss.c       ****         case CYBLE_CGMS_RACP:
 146:cgmss.c       ****             DBG_PRINTF("RACP ");
 286              		.loc 1 146 0
ARM GAS  C:\Users\cypress\AppData\Local\Temp\ccgxY6Ea.s 			page 9


 287 0050 114B     		ldr	r3, .L12+24
 288 0052 1800     		movs	r0, r3
 289 0054 FFF7FEFF 		bl	printf
 147:cgmss.c       ****             break;
 290              		.loc 1 147 0
 291 0058 09E0     		b	.L11
 292              	.L10:
 148:cgmss.c       ****             
 149:cgmss.c       ****         case CYBLE_CGMS_SOCP:
 150:cgmss.c       ****             DBG_PRINTF("SOCP ");
 293              		.loc 1 150 0
 294 005a 104B     		ldr	r3, .L12+28
 295 005c 1800     		movs	r0, r3
 296 005e FFF7FEFF 		bl	printf
 151:cgmss.c       ****             break;
 297              		.loc 1 151 0
 298 0062 04E0     		b	.L11
 299              	.L2:
 152:cgmss.c       ****             
 153:cgmss.c       ****         default:
 154:cgmss.c       ****             DBG_PRINTF("Unknown CGM");
 300              		.loc 1 154 0
 301 0064 0E4B     		ldr	r3, .L12+32
 302 0066 1800     		movs	r0, r3
 303 0068 FFF7FEFF 		bl	printf
 155:cgmss.c       ****             break;
 304              		.loc 1 155 0
 305 006c C046     		nop
 306              	.L11:
 156:cgmss.c       ****     }
 157:cgmss.c       ****     
 158:cgmss.c       ****     DBG_PRINTF("characteristic ");
 307              		.loc 1 158 0
 308 006e 0D4B     		ldr	r3, .L12+36
 309 0070 1800     		movs	r0, r3
 310 0072 FFF7FEFF 		bl	printf
 159:cgmss.c       **** }
 311              		.loc 1 159 0
 312 0076 C046     		nop
 313 0078 BD46     		mov	sp, r7
 314 007a 02B0     		add	sp, sp, #8
 315              		@ sp needed
 316 007c 80BD     		pop	{r7, pc}
 317              	.L13:
 318 007e C046     		.align	2
 319              	.L12:
 320 0080 B4000000 		.word	.L4
 321 0084 28000000 		.word	.LC1
 322 0088 3C000000 		.word	.LC3
 323 008c 4C000000 		.word	.LC5
 324 0090 58000000 		.word	.LC7
 325 0094 70000000 		.word	.LC9
 326 0098 88000000 		.word	.LC11
 327 009c 90000000 		.word	.LC13
 328 00a0 98000000 		.word	.LC15
 329 00a4 A4000000 		.word	.LC17
 330              		.cfi_endproc
ARM GAS  C:\Users\cypress\AppData\Local\Temp\ccgxY6Ea.s 			page 10


 331              	.LFE36:
 332              		.size	CgmsPrintCharName, .-CgmsPrintCharName
 333              		.section	.text.CgmsCrc,"ax",%progbits
 334              		.align	2
 335              		.global	CgmsCrc
 336              		.code	16
 337              		.thumb_func
 338              		.type	CgmsCrc, %function
 339              	CgmsCrc:
 340              	.LFB37:
 160:cgmss.c       **** 
 161:cgmss.c       **** /******************************************************************************
 162:cgmss.c       **** ##Function Name: CgmsCrc
 163:cgmss.c       **** *******************************************************************************
 164:cgmss.c       **** 
 165:cgmss.c       **** Summary:
 166:cgmss.c       ****  Calculates a 16-bit CRC value with seed 0xFFFF and polynomial D16+D12+D5+1.
 167:cgmss.c       **** 
 168:cgmss.c       **** Parameters:
 169:cgmss.c       ****  uint8 length: The length of the data.
 170:cgmss.c       ****  uint8 *dataPtr: The pointer to the data.
 171:cgmss.c       **** 
 172:cgmss.c       **** Return:
 173:cgmss.c       ****  A uint16 CRC value.
 174:cgmss.c       **** 
 175:cgmss.c       **** ******************************************************************************/
 176:cgmss.c       **** uint16 CgmsCrc(uint8 length, uint8 *dataPtr)
 177:cgmss.c       **** {
 341              		.loc 1 177 0
 342              		.cfi_startproc
 343              		@ args = 0, pretend = 0, frame = 16
 344              		@ frame_needed = 1, uses_anonymous_args = 0
 345 0000 80B5     		push	{r7, lr}
 346              		.cfi_def_cfa_offset 8
 347              		.cfi_offset 7, -8
 348              		.cfi_offset 14, -4
 349 0002 84B0     		sub	sp, sp, #16
 350              		.cfi_def_cfa_offset 24
 351 0004 00AF     		add	r7, sp, #0
 352              		.cfi_def_cfa_register 7
 353 0006 0200     		movs	r2, r0
 354 0008 3960     		str	r1, [r7]
 355 000a FB1D     		adds	r3, r7, #7
 356 000c 1A70     		strb	r2, [r3]
 178:cgmss.c       ****     uint8  bit, byte;
 179:cgmss.c       ****     uint16 data, crc = CYBLE_CGMS_CRC_SEED;
 357              		.loc 1 179 0
 358 000e 0A23     		movs	r3, #10
 359 0010 FB18     		adds	r3, r7, r3
 360 0012 0122     		movs	r2, #1
 361 0014 5242     		rsbs	r2, r2, #0
 362 0016 1A80     		strh	r2, [r3]
 180:cgmss.c       ****     
 181:cgmss.c       ****     for(byte = 0; byte < length; byte++)
 363              		.loc 1 181 0
 364 0018 0E23     		movs	r3, #14
 365 001a FB18     		adds	r3, r7, r3
ARM GAS  C:\Users\cypress\AppData\Local\Temp\ccgxY6Ea.s 			page 11


 366 001c 0022     		movs	r2, #0
 367 001e 1A70     		strb	r2, [r3]
 368 0020 45E0     		b	.L15
 369              	.L20:
 182:cgmss.c       ****     {
 183:cgmss.c       ****         data = (uint16) dataPtr[byte];
 370              		.loc 1 183 0
 371 0022 0E23     		movs	r3, #14
 372 0024 FB18     		adds	r3, r7, r3
 373 0026 1B78     		ldrb	r3, [r3]
 374 0028 3A68     		ldr	r2, [r7]
 375 002a D318     		adds	r3, r2, r3
 376 002c 1A78     		ldrb	r2, [r3]
 377 002e 0C23     		movs	r3, #12
 378 0030 FB18     		adds	r3, r7, r3
 379 0032 1A80     		strh	r2, [r3]
 184:cgmss.c       ****         for(bit = 0u; bit < 8u; bit++)
 380              		.loc 1 184 0
 381 0034 0F23     		movs	r3, #15
 382 0036 FB18     		adds	r3, r7, r3
 383 0038 0022     		movs	r2, #0
 384 003a 1A70     		strb	r2, [r3]
 385 003c 2BE0     		b	.L16
 386              	.L19:
 185:cgmss.c       ****         {
 186:cgmss.c       ****             if(0u != ((crc ^ data) & 0x0001u))
 387              		.loc 1 186 0
 388 003e 0A23     		movs	r3, #10
 389 0040 FA18     		adds	r2, r7, r3
 390 0042 0C23     		movs	r3, #12
 391 0044 FB18     		adds	r3, r7, r3
 392 0046 1288     		ldrh	r2, [r2]
 393 0048 1B88     		ldrh	r3, [r3]
 394 004a 5340     		eors	r3, r2
 395 004c 9BB2     		uxth	r3, r3
 396 004e 1A00     		movs	r2, r3
 397 0050 0123     		movs	r3, #1
 398 0052 1340     		ands	r3, r2
 399 0054 0AD0     		beq	.L17
 187:cgmss.c       ****             {
 188:cgmss.c       ****                 crc = (crc >> 1u) ^ CYBLE_CGMS_CRC_POLY;
 400              		.loc 1 188 0
 401 0056 0A23     		movs	r3, #10
 402 0058 FB18     		adds	r3, r7, r3
 403 005a 1B88     		ldrh	r3, [r3]
 404 005c 5B08     		lsrs	r3, r3, #1
 405 005e 9AB2     		uxth	r2, r3
 406 0060 0A23     		movs	r3, #10
 407 0062 FB18     		adds	r3, r7, r3
 408 0064 1949     		ldr	r1, .L22
 409 0066 4A40     		eors	r2, r1
 410 0068 1A80     		strh	r2, [r3]
 411 006a 06E0     		b	.L18
 412              	.L17:
 189:cgmss.c       ****             }
 190:cgmss.c       ****             else
 191:cgmss.c       ****             {
ARM GAS  C:\Users\cypress\AppData\Local\Temp\ccgxY6Ea.s 			page 12


 192:cgmss.c       ****                 crc >>= 1u;
 413              		.loc 1 192 0
 414 006c 0A23     		movs	r3, #10
 415 006e FB18     		adds	r3, r7, r3
 416 0070 0A22     		movs	r2, #10
 417 0072 BA18     		adds	r2, r7, r2
 418 0074 1288     		ldrh	r2, [r2]
 419 0076 5208     		lsrs	r2, r2, #1
 420 0078 1A80     		strh	r2, [r3]
 421              	.L18:
 193:cgmss.c       ****             }
 194:cgmss.c       ****             
 195:cgmss.c       ****             data >>= 1u;
 422              		.loc 1 195 0 discriminator 2
 423 007a 0C23     		movs	r3, #12
 424 007c FB18     		adds	r3, r7, r3
 425 007e 0C22     		movs	r2, #12
 426 0080 BA18     		adds	r2, r7, r2
 427 0082 1288     		ldrh	r2, [r2]
 428 0084 5208     		lsrs	r2, r2, #1
 429 0086 1A80     		strh	r2, [r3]
 184:cgmss.c       ****         {
 430              		.loc 1 184 0 discriminator 2
 431 0088 0F23     		movs	r3, #15
 432 008a FB18     		adds	r3, r7, r3
 433 008c 1A78     		ldrb	r2, [r3]
 434 008e 0F23     		movs	r3, #15
 435 0090 FB18     		adds	r3, r7, r3
 436 0092 0132     		adds	r2, r2, #1
 437 0094 1A70     		strb	r2, [r3]
 438              	.L16:
 184:cgmss.c       ****         {
 439              		.loc 1 184 0 is_stmt 0 discriminator 1
 440 0096 0F23     		movs	r3, #15
 441 0098 FB18     		adds	r3, r7, r3
 442 009a 1B78     		ldrb	r3, [r3]
 443 009c 072B     		cmp	r3, #7
 444 009e CED9     		bls	.L19
 181:cgmss.c       ****     {
 445              		.loc 1 181 0 is_stmt 1 discriminator 2
 446 00a0 0E23     		movs	r3, #14
 447 00a2 FB18     		adds	r3, r7, r3
 448 00a4 1A78     		ldrb	r2, [r3]
 449 00a6 0E23     		movs	r3, #14
 450 00a8 FB18     		adds	r3, r7, r3
 451 00aa 0132     		adds	r2, r2, #1
 452 00ac 1A70     		strb	r2, [r3]
 453              	.L15:
 181:cgmss.c       ****     {
 454              		.loc 1 181 0 is_stmt 0 discriminator 1
 455 00ae 0E23     		movs	r3, #14
 456 00b0 FA18     		adds	r2, r7, r3
 457 00b2 FB1D     		adds	r3, r7, #7
 458 00b4 1278     		ldrb	r2, [r2]
 459 00b6 1B78     		ldrb	r3, [r3]
 460 00b8 9A42     		cmp	r2, r3
 461 00ba B2D3     		bcc	.L20
ARM GAS  C:\Users\cypress\AppData\Local\Temp\ccgxY6Ea.s 			page 13


 196:cgmss.c       ****         }
 197:cgmss.c       ****     }
 198:cgmss.c       **** 
 199:cgmss.c       ****     return(crc);
 462              		.loc 1 199 0 is_stmt 1
 463 00bc 0A23     		movs	r3, #10
 464 00be FB18     		adds	r3, r7, r3
 465 00c0 1B88     		ldrh	r3, [r3]
 200:cgmss.c       **** }
 466              		.loc 1 200 0
 467 00c2 1800     		movs	r0, r3
 468 00c4 BD46     		mov	sp, r7
 469 00c6 04B0     		add	sp, sp, #16
 470              		@ sp needed
 471 00c8 80BD     		pop	{r7, pc}
 472              	.L23:
 473 00ca C046     		.align	2
 474              	.L22:
 475 00cc 0884FFFF 		.word	-31736
 476              		.cfi_endproc
 477              	.LFE37:
 478              		.size	CgmsCrc, .-CgmsCrc
 479              		.section	.text.CgmsCrcLength,"ax",%progbits
 480              		.align	2
 481              		.global	CgmsCrcLength
 482              		.code	16
 483              		.thumb_func
 484              		.type	CgmsCrcLength, %function
 485              	CgmsCrcLength:
 486              	.LFB38:
 201:cgmss.c       **** 
 202:cgmss.c       **** 
 203:cgmss.c       **** /******************************************************************************
 204:cgmss.c       **** ##Function Name: CgmsCrcLength
 205:cgmss.c       **** *******************************************************************************
 206:cgmss.c       **** 
 207:cgmss.c       **** Summary:
 208:cgmss.c       ****   Adds the CRC value to the end of the attribute payload 
 209:cgmss.c       ****   and returns the actual length of the attribute
 210:cgmss.c       ****   taking into account whether the CRC calculation feature is active.
 211:cgmss.c       **** 
 212:cgmss.c       ****   Uses the above declared CgmsCrc();
 213:cgmss.c       **** 
 214:cgmss.c       **** Parameters:
 215:cgmss.c       ****  uint8 length: The length of the attribute payload without CRC.
 216:cgmss.c       ****  uint8 *dataPtr: The pointer to the attribute payload.
 217:cgmss.c       **** 
 218:cgmss.c       **** Return:
 219:cgmss.c       ****  A uint8 length of the attribute, within CRC if the CRC feature is active.
 220:cgmss.c       **** 
 221:cgmss.c       **** ******************************************************************************/
 222:cgmss.c       **** uint8 CgmsCrcLength(uint8 length, uint8* dataPtr)
 223:cgmss.c       **** {
 487              		.loc 1 223 0
 488              		.cfi_startproc
 489              		@ args = 0, pretend = 0, frame = 8
 490              		@ frame_needed = 1, uses_anonymous_args = 0
ARM GAS  C:\Users\cypress\AppData\Local\Temp\ccgxY6Ea.s 			page 14


 491 0000 90B5     		push	{r4, r7, lr}
 492              		.cfi_def_cfa_offset 12
 493              		.cfi_offset 4, -12
 494              		.cfi_offset 7, -8
 495              		.cfi_offset 14, -4
 496 0002 83B0     		sub	sp, sp, #12
 497              		.cfi_def_cfa_offset 24
 498 0004 00AF     		add	r7, sp, #0
 499              		.cfi_def_cfa_register 7
 500 0006 0200     		movs	r2, r0
 501 0008 3960     		str	r1, [r7]
 502 000a FB1D     		adds	r3, r7, #7
 503 000c 1A70     		strb	r2, [r3]
 224:cgmss.c       ****     if(0u != (cgft.feature & CYBLE_CGMS_CGFT_FTR_EC))
 504              		.loc 1 224 0
 505 000e 104B     		ldr	r3, .L27
 506 0010 1A68     		ldr	r2, [r3]
 507 0012 8023     		movs	r3, #128
 508 0014 5B01     		lsls	r3, r3, #5
 509 0016 1340     		ands	r3, r2
 510 0018 14D0     		beq	.L25
 225:cgmss.c       ****     {
 226:cgmss.c       ****         CyBle_Set16ByPtr(&dataPtr[length], CgmsCrc(length, dataPtr));
 511              		.loc 1 226 0
 512 001a FB1D     		adds	r3, r7, #7
 513 001c 1B78     		ldrb	r3, [r3]
 514 001e 3A68     		ldr	r2, [r7]
 515 0020 D418     		adds	r4, r2, r3
 516 0022 3A68     		ldr	r2, [r7]
 517 0024 FB1D     		adds	r3, r7, #7
 518 0026 1B78     		ldrb	r3, [r3]
 519 0028 1100     		movs	r1, r2
 520 002a 1800     		movs	r0, r3
 521 002c FFF7FEFF 		bl	CgmsCrc
 522 0030 0300     		movs	r3, r0
 523 0032 1900     		movs	r1, r3
 524 0034 2000     		movs	r0, r4
 525 0036 FFF7FEFF 		bl	CyBle_Set16ByPtr
 227:cgmss.c       ****         length += 2;
 526              		.loc 1 227 0
 527 003a FB1D     		adds	r3, r7, #7
 528 003c FA1D     		adds	r2, r7, #7
 529 003e 1278     		ldrb	r2, [r2]
 530 0040 0232     		adds	r2, r2, #2
 531 0042 1A70     		strb	r2, [r3]
 532              	.L25:
 228:cgmss.c       ****     }
 229:cgmss.c       ****     
 230:cgmss.c       ****     return(length);
 533              		.loc 1 230 0
 534 0044 FB1D     		adds	r3, r7, #7
 535 0046 1B78     		ldrb	r3, [r3]
 231:cgmss.c       **** }
 536              		.loc 1 231 0
 537 0048 1800     		movs	r0, r3
 538 004a BD46     		mov	sp, r7
 539 004c 03B0     		add	sp, sp, #12
ARM GAS  C:\Users\cypress\AppData\Local\Temp\ccgxY6Ea.s 			page 15


 540              		@ sp needed
 541 004e 90BD     		pop	{r4, r7, pc}
 542              	.L28:
 543              		.align	2
 544              	.L27:
 545 0050 00000000 		.word	cgft
 546              		.cfi_endproc
 547              	.LFE38:
 548              		.size	CgmsCrcLength, .-CgmsCrcLength
 549              		.section	.rodata
 550              		.align	2
 551              	.LC21:
 552 00d0 43686563 		.ascii	"Check CRC: \000"
 552      6B204352 
 552      433A2000 
 553              		.align	2
 554              	.LC23:
 555 00dc 696E7661 		.ascii	"invalid CRC\015\000"
 555      6C696420 
 555      4352430D 
 555      00
 556 00e9 000000   		.align	2
 557              	.LC25:
 558 00ec 6F6B0D00 		.ascii	"ok\015\000"
 559              		.align	2
 560              	.LC27:
 561 00f0 6D697373 		.ascii	"missing CRC\015\000"
 561      696E6720 
 561      4352430D 
 561      00
 562              		.section	.text.CgmsCrcCheck,"ax",%progbits
 563              		.align	2
 564              		.global	CgmsCrcCheck
 565              		.code	16
 566              		.thumb_func
 567              		.type	CgmsCrcCheck, %function
 568              	CgmsCrcCheck:
 569              	.LFB39:
 232:cgmss.c       **** 
 233:cgmss.c       **** 
 234:cgmss.c       **** /******************************************************************************
 235:cgmss.c       **** ##Function Name: CgmsCrcCheck
 236:cgmss.c       **** *******************************************************************************
 237:cgmss.c       **** 
 238:cgmss.c       **** Summary:
 239:cgmss.c       ****   Checks the CRC value in the received attribute payload
 240:cgmss.c       ****   taking into account whether the CRC calculation feature is active.
 241:cgmss.c       **** 
 242:cgmss.c       ****   Uses the above declared CgmsCrc();
 243:cgmss.c       **** 
 244:cgmss.c       **** Parameters:
 245:cgmss.c       ****   uint16 attrSize: The length of the attribute payload without CRC.
 246:cgmss.c       ****   CYBLE_GATT_VALUE_T *gattValue: The pointer to the GATT value.
 247:cgmss.c       **** 
 248:cgmss.c       **** Return:
 249:cgmss.c       ****   CYBLE_GATT_ERR_CODE_T result of the CRC checking if the CRC feature is active.
 250:cgmss.c       ****   Following are the possible error codes:
ARM GAS  C:\Users\cypress\AppData\Local\Temp\ccgxY6Ea.s 			page 16


 251:cgmss.c       ****    CYBLE_GATT_ERR_NONE               CRC is correct.
 252:cgmss.c       ****    CYBLE_GATT_ERR_INVALID_CRC        CRC doesn't match.
 253:cgmss.c       ****    CYBLE_GATT_ERR_MISSING_CRC        CRC is absent.
 254:cgmss.c       **** 
 255:cgmss.c       **** ******************************************************************************/
 256:cgmss.c       **** CYBLE_GATT_ERR_CODE_T CgmsCrcCheck(uint16 attrSize, CYBLE_GATT_VALUE_T *gattValue)
 257:cgmss.c       **** {
 570              		.loc 1 257 0
 571              		.cfi_startproc
 572              		@ args = 0, pretend = 0, frame = 16
 573              		@ frame_needed = 1, uses_anonymous_args = 0
 574 0000 90B5     		push	{r4, r7, lr}
 575              		.cfi_def_cfa_offset 12
 576              		.cfi_offset 4, -12
 577              		.cfi_offset 7, -8
 578              		.cfi_offset 14, -4
 579 0002 85B0     		sub	sp, sp, #20
 580              		.cfi_def_cfa_offset 32
 581 0004 00AF     		add	r7, sp, #0
 582              		.cfi_def_cfa_register 7
 583 0006 0200     		movs	r2, r0
 584 0008 3960     		str	r1, [r7]
 585 000a BB1D     		adds	r3, r7, #6
 586 000c 1A80     		strh	r2, [r3]
 258:cgmss.c       ****     CYBLE_GATT_ERR_CODE_T gattError = CYBLE_GATT_ERR_NONE;
 587              		.loc 1 258 0
 588 000e 0F23     		movs	r3, #15
 589 0010 FB18     		adds	r3, r7, r3
 590 0012 0022     		movs	r2, #0
 591 0014 1A70     		strb	r2, [r3]
 259:cgmss.c       ****     
 260:cgmss.c       ****     if(0u != (CYBLE_CGMS_CGFT_FTR_EC & cgft.feature))
 592              		.loc 1 260 0
 593 0016 224B     		ldr	r3, .L35
 594 0018 1A68     		ldr	r2, [r3]
 595 001a 8023     		movs	r3, #128
 596 001c 5B01     		lsls	r3, r3, #5
 597 001e 1340     		ands	r3, r2
 598 0020 36D0     		beq	.L30
 261:cgmss.c       ****     {
 262:cgmss.c       ****         DBG_PRINTF("Check CRC: ");
 599              		.loc 1 262 0
 600 0022 204B     		ldr	r3, .L35+4
 601 0024 1800     		movs	r0, r3
 602 0026 FFF7FEFF 		bl	printf
 263:cgmss.c       ****         
 264:cgmss.c       ****         if((attrSize + CYBLE_CGMS_CRC_SIZE) == gattValue->len)
 603              		.loc 1 264 0
 604 002a BB1D     		adds	r3, r7, #6
 605 002c 1B88     		ldrh	r3, [r3]
 606 002e 0233     		adds	r3, r3, #2
 607 0030 3A68     		ldr	r2, [r7]
 608 0032 9288     		ldrh	r2, [r2, #4]
 609 0034 9342     		cmp	r3, r2
 610 0036 23D1     		bne	.L31
 265:cgmss.c       ****         {   
 266:cgmss.c       ****             if(CyBle_Get16ByPtr(&gattValue->val[attrSize]) != 
ARM GAS  C:\Users\cypress\AppData\Local\Temp\ccgxY6Ea.s 			page 17


 611              		.loc 1 266 0
 612 0038 3B68     		ldr	r3, [r7]
 613 003a 1A68     		ldr	r2, [r3]
 614 003c BB1D     		adds	r3, r7, #6
 615 003e 1B88     		ldrh	r3, [r3]
 616 0040 D318     		adds	r3, r2, r3
 617 0042 1800     		movs	r0, r3
 618 0044 FFF7FEFF 		bl	CyBle_Get16ByPtr
 619 0048 0300     		movs	r3, r0
 620 004a 1C00     		movs	r4, r3
 267:cgmss.c       ****                 CgmsCrc(attrSize, gattValue->val))
 621              		.loc 1 267 0
 622 004c BB1D     		adds	r3, r7, #6
 623 004e 1B88     		ldrh	r3, [r3]
 624 0050 DAB2     		uxtb	r2, r3
 625 0052 3B68     		ldr	r3, [r7]
 626 0054 1B68     		ldr	r3, [r3]
 627 0056 1900     		movs	r1, r3
 628 0058 1000     		movs	r0, r2
 629 005a FFF7FEFF 		bl	CgmsCrc
 630 005e 0300     		movs	r3, r0
 266:cgmss.c       ****                 CgmsCrc(attrSize, gattValue->val))
 631              		.loc 1 266 0
 632 0060 9C42     		cmp	r4, r3
 633 0062 08D0     		beq	.L32
 268:cgmss.c       ****             {
 269:cgmss.c       ****                 gattError = CYBLE_GATT_ERR_INVALID_CRC;
 634              		.loc 1 269 0
 635 0064 0F23     		movs	r3, #15
 636 0066 FB18     		adds	r3, r7, r3
 637 0068 8122     		movs	r2, #129
 638 006a 1A70     		strb	r2, [r3]
 270:cgmss.c       ****                 DBG_PRINTF("invalid CRC\r\n");
 639              		.loc 1 270 0
 640 006c 0E4B     		ldr	r3, .L35+8
 641 006e 1800     		movs	r0, r3
 642 0070 FFF7FEFF 		bl	puts
 643 0074 0CE0     		b	.L30
 644              	.L32:
 271:cgmss.c       ****             }
 272:cgmss.c       ****             else
 273:cgmss.c       ****             {
 274:cgmss.c       ****                 DBG_PRINTF("ok\r\n");
 645              		.loc 1 274 0
 646 0076 0D4B     		ldr	r3, .L35+12
 647 0078 1800     		movs	r0, r3
 648 007a FFF7FEFF 		bl	puts
 649 007e 07E0     		b	.L30
 650              	.L31:
 275:cgmss.c       ****             }
 276:cgmss.c       ****         }
 277:cgmss.c       ****         else
 278:cgmss.c       ****         {
 279:cgmss.c       ****             gattError = CYBLE_GATT_ERR_MISSING_CRC;
 651              		.loc 1 279 0
 652 0080 0F23     		movs	r3, #15
 653 0082 FB18     		adds	r3, r7, r3
ARM GAS  C:\Users\cypress\AppData\Local\Temp\ccgxY6Ea.s 			page 18


 654 0084 8022     		movs	r2, #128
 655 0086 1A70     		strb	r2, [r3]
 280:cgmss.c       ****             DBG_PRINTF("missing CRC\r\n");
 656              		.loc 1 280 0
 657 0088 094B     		ldr	r3, .L35+16
 658 008a 1800     		movs	r0, r3
 659 008c FFF7FEFF 		bl	puts
 660              	.L30:
 281:cgmss.c       ****         }
 282:cgmss.c       ****     }
 283:cgmss.c       ****     
 284:cgmss.c       ****     return(gattError);
 661              		.loc 1 284 0
 662 0090 0F23     		movs	r3, #15
 663 0092 FB18     		adds	r3, r7, r3
 664 0094 1B78     		ldrb	r3, [r3]
 285:cgmss.c       **** }
 665              		.loc 1 285 0
 666 0096 1800     		movs	r0, r3
 667 0098 BD46     		mov	sp, r7
 668 009a 05B0     		add	sp, sp, #20
 669              		@ sp needed
 670 009c 90BD     		pop	{r4, r7, pc}
 671              	.L36:
 672 009e C046     		.align	2
 673              	.L35:
 674 00a0 00000000 		.word	cgft
 675 00a4 D0000000 		.word	.LC21
 676 00a8 DC000000 		.word	.LC23
 677 00ac EC000000 		.word	.LC25
 678 00b0 F0000000 		.word	.LC27
 679              		.cfi_endproc
 680              	.LFE39:
 681              		.size	CgmsCrcCheck, .-CgmsCrcCheck
 682              		.section	.rodata
 683 00fd 000000   		.align	2
 684              	.LC31:
 685 0100 4379426C 		.ascii	"CyBle_CgmssGetCharacteristicValue API Error: \000"
 685      655F4367 
 685      6D737347 
 685      65744368 
 685      61726163 
 686              		.section	.text.CgmsInit,"ax",%progbits
 687              		.align	2
 688              		.global	CgmsInit
 689              		.code	16
 690              		.thumb_func
 691              		.type	CgmsInit, %function
 692              	CgmsInit:
 693              	.LFB40:
 286:cgmss.c       **** 
 287:cgmss.c       **** 
 288:cgmss.c       **** /******************************************************************************
 289:cgmss.c       **** ##Function Name: CgmsInit
 290:cgmss.c       **** *******************************************************************************
 291:cgmss.c       **** 
 292:cgmss.c       **** Summary:
ARM GAS  C:\Users\cypress\AppData\Local\Temp\ccgxY6Ea.s 			page 19


 293:cgmss.c       ****   Does the initialization of the CGM Service.
 294:cgmss.c       ****   Registers CGMS CallBack and reads the initial CGM feature characteristic.
 295:cgmss.c       **** 
 296:cgmss.c       **** ******************************************************************************/
 297:cgmss.c       **** void CgmsInit(void)
 298:cgmss.c       **** {
 694              		.loc 1 298 0
 695              		.cfi_startproc
 696              		@ args = 0, pretend = 0, frame = 8
 697              		@ frame_needed = 1, uses_anonymous_args = 0
 698 0000 80B5     		push	{r7, lr}
 699              		.cfi_def_cfa_offset 8
 700              		.cfi_offset 7, -8
 701              		.cfi_offset 14, -4
 702 0002 82B0     		sub	sp, sp, #8
 703              		.cfi_def_cfa_offset 16
 704 0004 00AF     		add	r7, sp, #0
 705              		.cfi_def_cfa_register 7
 299:cgmss.c       ****     uint8 acgft[6u];
 300:cgmss.c       ****     
 301:cgmss.c       ****     CyBle_CgmsRegisterAttrCallback(CgmsCallBack);
 706              		.loc 1 301 0
 707 0006 1F4B     		ldr	r3, .L41
 708 0008 1800     		movs	r0, r3
 709 000a FFF7FEFF 		bl	CyBle_CgmsRegisterAttrCallback
 302:cgmss.c       ****     
 303:cgmss.c       ****     apiResult = CyBle_CgmssGetCharacteristicValue(CYBLE_CGMS_CGFT, 6u, acgft);
 710              		.loc 1 303 0
 711 000e 3B00     		movs	r3, r7
 712 0010 1A00     		movs	r2, r3
 713 0012 0621     		movs	r1, #6
 714 0014 0120     		movs	r0, #1
 715 0016 FFF7FEFF 		bl	CyBle_CgmssGetCharacteristicValue
 716 001a 0300     		movs	r3, r0
 717 001c 1A00     		movs	r2, r3
 718 001e 1A4B     		ldr	r3, .L41+4
 719 0020 1A80     		strh	r2, [r3]
 304:cgmss.c       ****     if(apiResult != CYBLE_ERROR_OK)
 720              		.loc 1 304 0
 721 0022 194B     		ldr	r3, .L41+4
 722 0024 1B88     		ldrh	r3, [r3]
 723 0026 002B     		cmp	r3, #0
 724 0028 06D0     		beq	.L38
 305:cgmss.c       **** 	{
 306:cgmss.c       **** 		DBG_PRINTF("CyBle_CgmssGetCharacteristicValue API Error: ");
 725              		.loc 1 306 0
 726 002a 184B     		ldr	r3, .L41+8
 727 002c 1800     		movs	r0, r3
 728 002e FFF7FEFF 		bl	printf
 307:cgmss.c       ****         PrintApiResult();
 729              		.loc 1 307 0
 730 0032 FFF7FEFF 		bl	PrintApiResult
 308:cgmss.c       **** 	}
 309:cgmss.c       ****     else
 310:cgmss.c       ****     {
 311:cgmss.c       ****         cgft.feature = (uint32) acgft[0];
 312:cgmss.c       ****         cgft.feature |= (uint32) (acgft[1] << 8u);
ARM GAS  C:\Users\cypress\AppData\Local\Temp\ccgxY6Ea.s 			page 20


 313:cgmss.c       ****         cgft.feature |= (uint32) (acgft[2] << 16u);
 314:cgmss.c       ****         cgft.type = acgft[3] & CYBLE_CGMS_CGFT_TYPE_MASK;
 315:cgmss.c       ****         cgft.sampLoc = (acgft[3] & CYBLE_CGMS_CGFT_SL_MASK) >> CYBLE_CGMS_CGFT_SL_SHIFT;
 316:cgmss.c       ****     }
 317:cgmss.c       **** }
 731              		.loc 1 317 0
 732 0036 21E0     		b	.L40
 733              	.L38:
 311:cgmss.c       ****         cgft.feature |= (uint32) (acgft[1] << 8u);
 734              		.loc 1 311 0
 735 0038 3B00     		movs	r3, r7
 736 003a 1B78     		ldrb	r3, [r3]
 737 003c 1A00     		movs	r2, r3
 738 003e 144B     		ldr	r3, .L41+12
 739 0040 1A60     		str	r2, [r3]
 312:cgmss.c       ****         cgft.feature |= (uint32) (acgft[2] << 16u);
 740              		.loc 1 312 0
 741 0042 134B     		ldr	r3, .L41+12
 742 0044 1B68     		ldr	r3, [r3]
 743 0046 3A00     		movs	r2, r7
 744 0048 5278     		ldrb	r2, [r2, #1]
 745 004a 1202     		lsls	r2, r2, #8
 746 004c 1A43     		orrs	r2, r3
 747 004e 104B     		ldr	r3, .L41+12
 748 0050 1A60     		str	r2, [r3]
 313:cgmss.c       ****         cgft.type = acgft[3] & CYBLE_CGMS_CGFT_TYPE_MASK;
 749              		.loc 1 313 0
 750 0052 0F4B     		ldr	r3, .L41+12
 751 0054 1B68     		ldr	r3, [r3]
 752 0056 3A00     		movs	r2, r7
 753 0058 9278     		ldrb	r2, [r2, #2]
 754 005a 1204     		lsls	r2, r2, #16
 755 005c 1A43     		orrs	r2, r3
 756 005e 0C4B     		ldr	r3, .L41+12
 757 0060 1A60     		str	r2, [r3]
 314:cgmss.c       ****         cgft.sampLoc = (acgft[3] & CYBLE_CGMS_CGFT_SL_MASK) >> CYBLE_CGMS_CGFT_SL_SHIFT;
 758              		.loc 1 314 0
 759 0062 3B00     		movs	r3, r7
 760 0064 DB78     		ldrb	r3, [r3, #3]
 761 0066 0F22     		movs	r2, #15
 762 0068 1340     		ands	r3, r2
 763 006a DAB2     		uxtb	r2, r3
 764 006c 084B     		ldr	r3, .L41+12
 765 006e 1A71     		strb	r2, [r3, #4]
 315:cgmss.c       ****     }
 766              		.loc 1 315 0
 767 0070 3B00     		movs	r3, r7
 768 0072 DB78     		ldrb	r3, [r3, #3]
 769 0074 1B09     		lsrs	r3, r3, #4
 770 0076 DAB2     		uxtb	r2, r3
 771 0078 054B     		ldr	r3, .L41+12
 772 007a 5A71     		strb	r2, [r3, #5]
 773              	.L40:
 774              		.loc 1 317 0
 775 007c C046     		nop
 776 007e BD46     		mov	sp, r7
 777 0080 02B0     		add	sp, sp, #8
ARM GAS  C:\Users\cypress\AppData\Local\Temp\ccgxY6Ea.s 			page 21


 778              		@ sp needed
 779 0082 80BD     		pop	{r7, pc}
 780              	.L42:
 781              		.align	2
 782              	.L41:
 783 0084 00000000 		.word	CgmsCallBack
 784 0088 00000000 		.word	apiResult
 785 008c 00010000 		.word	.LC31
 786 0090 00000000 		.word	cgft
 787              		.cfi_endproc
 788              	.LFE40:
 789              		.size	CgmsInit, .-CgmsInit
 790              		.section	.rodata
 791 012e 0000     		.align	2
 792              	.LC35:
 793 0130 69732077 		.ascii	"is written: \000"
 793      72697474 
 793      656E3A20 
 793      00
 794 013d 000000   		.align	2
 795              	.LC38:
 796 0140 25322E32 		.ascii	"%2.2x \000"
 796      782000
 797 0147 00       		.align	2
 798              	.LC40:
 799 0148 0D00     		.ascii	"\015\000"
 800 014a 0000     		.align	2
 801              	.LC44:
 802 014c 696E7661 		.ascii	"invalid PDU\015\000"
 802      6C696420 
 802      5044550D 
 802      00
 803 0159 000000   		.align	2
 804              	.LC47:
 805 015c 4F70636F 		.ascii	"Opcode: \000"
 805      64653A20 
 805      00
 806 0165 000000   		.align	2
 807              	.LC50:
 808 0168 5265706F 		.ascii	"Report stored records \015\000"
 808      72742073 
 808      746F7265 
 808      64207265 
 808      636F7264 
 809              		.align	2
 810              	.LC52:
 811 0180 44656C65 		.ascii	"Delete stored records \015\000"
 811      74652073 
 811      746F7265 
 811      64207265 
 811      636F7264 
 812              		.align	2
 813              	.LC54:
 814 0198 41626F72 		.ascii	"Abort operation \015\000"
 814      74206F70 
 814      65726174 
 814      696F6E20 
ARM GAS  C:\Users\cypress\AppData\Local\Temp\ccgxY6Ea.s 			page 22


 814      0D00
 815 01aa 0000     		.align	2
 816              	.LC56:
 817 01ac 5265706F 		.ascii	"Report number of stored records \015\000"
 817      7274206E 
 817      756D6265 
 817      72206F66 
 817      2073746F 
 818 01ce 0000     		.align	2
 819              	.LC58:
 820 01d0 556E6B6E 		.ascii	"Unknown \015\000"
 820      6F776E20 
 820      0D00
 821 01da 0000     		.align	2
 822              	.LC60:
 823 01dc 4F706572 		.ascii	"Operator: \000"
 823      61746F72 
 823      3A2000
 824 01e7 00       		.align	2
 825              	.LC65:
 826 01e8 4E756C6C 		.ascii	"Null \015\000"
 826      200D00
 827 01ef 00       		.align	2
 828              	.LC67:
 829 01f0 4C617374 		.ascii	"Last record \015\000"
 829      20726563 
 829      6F726420 
 829      0D00
 830 01fe 0000     		.align	2
 831              	.LC69:
 832 0200 46697273 		.ascii	"First record \015\000"
 832      74207265 
 832      636F7264 
 832      200D00
 833 020f 00       		.align	2
 834              	.LC71:
 835 0210 416C6C20 		.ascii	"All records \015\000"
 835      7265636F 
 835      72647320 
 835      0D00
 836 021e 0000     		.align	2
 837              	.LC73:
 838 0220 4C657373 		.ascii	"Less than or equal to \015\000"
 838      20746861 
 838      6E206F72 
 838      20657175 
 838      616C2074 
 839              		.align	2
 840              	.LC75:
 841 0238 4F706572 		.ascii	"Operand: \000"
 841      616E643A 
 841      2000
 842 0242 0000     		.align	2
 843              	.LC78:
 844 0244 54696D65 		.ascii	"Time Offset: %x \015\012\000"
 844      204F6666 
 844      7365743A 
ARM GAS  C:\Users\cypress\AppData\Local\Temp\ccgxY6Ea.s 			page 23


 844      20257820 
 844      0D0A00
 845 0257 00       		.align	2
 846              	.LC80:
 847 0258 496E7661 		.ascii	"Invalid \015\000"
 847      6C696420 
 847      0D00
 848 0262 0000     		.align	2
 849              	.LC82:
 850 0264 47726561 		.ascii	"Greater than or equal to \015\000"
 850      74657220 
 850      7468616E 
 850      206F7220 
 850      65717561 
 851 027f 00       		.align	2
 852              	.LC84:
 853 0280 57697468 		.ascii	"Within range of (inclusive) \015\000"
 853      696E2072 
 853      616E6765 
 853      206F6620 
 853      28696E63 
 854 029e 0000     		.align	2
 855              	.LC86:
 856 02a0 54696D65 		.ascii	"Time Offsets: %x, %x \015\012\000"
 856      204F6666 
 856      73657473 
 856      3A202578 
 856      2C202578 
 857              		.align	2
 858              	.LC92:
 859 02b8 47657420 		.ascii	"Get CGM Communication Interval\015\000"
 859      43474D20 
 859      436F6D6D 
 859      756E6963 
 859      6174696F 
 860              		.align	2
 861              	.LC95:
 862 02d8 52657370 		.ascii	"Response: Communication Interval: 0x%2.2x\015\012\000"
 862      6F6E7365 
 862      3A20436F 
 862      6D6D756E 
 862      69636174 
 863              		.align	2
 864              	.LC97:
 865 0304 53657420 		.ascii	"Set CGM Communication Interval\015\000"
 865      43474D20 
 865      436F6D6D 
 865      756E6963 
 865      6174696F 
 866              		.align	2
 867              	.LC99:
 868 0324 4F706572 		.ascii	"Operand: 0x%2.2x \015\012\000"
 868      616E643A 
 868      20307825 
 868      322E3278 
 868      200D0A00 
 869              		.align	2
ARM GAS  C:\Users\cypress\AppData\Local\Temp\ccgxY6Ea.s 			page 24


 870              	.LC101:
 871 0338 53657420 		.ascii	"Set Glucose Calibration Value\015\000"
 871      476C7563 
 871      6F736520 
 871      43616C69 
 871      62726174 
 872 0357 00       		.align	2
 873              	.LC103:
 874 0358 4F706572 		.ascii	"Operand:\015\012 Glucose Concentration 0x%4.4x\015\012"
 874      616E643A 
 874      0D0A2047 
 874      6C75636F 
 874      73652043 
 875 0382 00       		.ascii	"\000"
 876 0383 00       		.align	2
 877              	.LC105:
 878 0384 2043616C 		.ascii	" Calibration Time 0x%4.4x\015\012\000"
 878      69627261 
 878      74696F6E 
 878      2054696D 
 878      65203078 
 879              		.align	2
 880              	.LC107:
 881 03a0 2053616D 		.ascii	" Sample Location 0x%2.2x\015\012\000"
 881      706C6520 
 881      4C6F6361 
 881      74696F6E 
 881      20307825 
 882 03bb 00       		.align	2
 883              	.LC109:
 884 03bc 204E6578 		.ascii	" Next Calibration 0x%4.4x\015\012\000"
 884      74204361 
 884      6C696272 
 884      6174696F 
 884      6E203078 
 885              		.align	2
 886              	.LC111:
 887 03d8 2043616C 		.ascii	" Calibration Data Record Number 0x%4.4x\015\012\000"
 887      69627261 
 887      74696F6E 
 887      20446174 
 887      61205265 
 888 0402 0000     		.align	2
 889              	.LC113:
 890 0404 2043616C 		.ascii	" Calibration Status 0x%2.2x\015\012\000"
 890      69627261 
 890      74696F6E 
 890      20537461 
 890      74757320 
 891 0422 0000     		.align	2
 892              	.LC115:
 893 0424 47657420 		.ascii	"Get Glucose Calibration Value\015\000"
 893      476C7563 
 893      6F736520 
 893      43616C69 
 893      62726174 
 894 0443 00       		.align	2
ARM GAS  C:\Users\cypress\AppData\Local\Temp\ccgxY6Ea.s 			page 25


 895              	.LC117:
 896 0444 4F706572 		.ascii	"Operand: Calibration Data Record Number: 0x%4.4x \015"
 896      616E643A 
 896      2043616C 
 896      69627261 
 896      74696F6E 
 897 0476 0A00     		.ascii	"\012\000"
 898              		.align	2
 899              	.LC121:
 900 0478 52657370 		.ascii	"Response:\015\012 Glucose Concentration 0x004e(78mg"
 900      6F6E7365 
 900      3A0D0A20 
 900      476C7563 
 900      6F736520 
 901 04a5 2F644C29 		.ascii	"/dL)\015\000"
 901      0D00
 902 04ab 00       		.align	2
 903              	.LC124:
 904 04ac 2043616C 		.ascii	" Calibration Time 0x0005 (5 minutes)\015\000"
 904      69627261 
 904      74696F6E 
 904      2054696D 
 904      65203078 
 905 04d2 0000     		.align	2
 906              	.LC127:
 907 04d4 2053616D 		.ascii	" Sample Location 0x06\015\000"
 907      706C6520 
 907      4C6F6361 
 907      74696F6E 
 907      20307830 
 908 04eb 00       		.align	2
 909              	.LC129:
 910 04ec 204E6578 		.ascii	" Next Calibration 0x0005 (5 minutes)\015\000"
 910      74204361 
 910      6C696272 
 910      6174696F 
 910      6E203078 
 911 0512 0000     		.align	2
 912              	.LC132:
 913 0514 2043616C 		.ascii	" Calibration Data Record Number 0x%4.4x \015\012\000"
 913      69627261 
 913      74696F6E 
 913      20446174 
 913      61205265 
 914 053f 00       		.align	2
 915              	.LC135:
 916 0540 2043616C 		.ascii	" Calibration Status 0x00\015\000"
 916      69627261 
 916      74696F6E 
 916      20537461 
 916      74757320 
 917 055a 0000     		.align	2
 918              	.LC137:
 919 055c 47657420 		.ascii	"Get Patient High Alert Level\015\000"
 919      50617469 
 919      656E7420 
 919      48696768 
ARM GAS  C:\Users\cypress\AppData\Local\Temp\ccgxY6Ea.s 			page 26


 919      20416C65 
 920 057a 0000     		.align	2
 921              	.LC140:
 922 057c 52657370 		.ascii	"Response: Patient High Alert Level: 0x%4.4x\015\012"
 922      6F6E7365 
 922      3A205061 
 922      7469656E 
 922      74204869 
 923 05a9 00       		.ascii	"\000"
 924 05aa 0000     		.align	2
 925              	.LC142:
 926 05ac 53657420 		.ascii	"Set Patient High Alert Level\015\000"
 926      50617469 
 926      656E7420 
 926      48696768 
 926      20416C65 
 927 05ca 0000     		.align	2
 928              	.LC146:
 929 05cc 4F706572 		.ascii	"Operand: Patient High Alert Level: 0x%4.4x \015\012"
 929      616E643A 
 929      20506174 
 929      69656E74 
 929      20486967 
 930 05f9 00       		.ascii	"\000"
 931 05fa 0000     		.align	2
 932              	.LC148:
 933 05fc 47657420 		.ascii	"Get Patient Low Alert Level\015\000"
 933      50617469 
 933      656E7420 
 933      4C6F7720 
 933      416C6572 
 934 0619 000000   		.align	2
 935              	.LC150:
 936 061c 53657420 		.ascii	"Set Patient Low Alert Level\015\000"
 936      50617469 
 936      656E7420 
 936      4C6F7720 
 936      416C6572 
 937 0639 000000   		.align	2
 938              	.LC153:
 939 063c 4F706572 		.ascii	"Operand: Patient Low Alert Level: 0x%4.4x \015\012\000"
 939      616E643A 
 939      20506174 
 939      69656E74 
 939      204C6F77 
 940 0669 000000   		.align	2
 941              	.LC155:
 942 066c 47657420 		.ascii	"Get Hypo Alert Level\015\000"
 942      4879706F 
 942      20416C65 
 942      7274204C 
 942      6576656C 
 943 0682 0000     		.align	2
 944              	.LC157:
 945 0684 52657370 		.ascii	"Response: Hypo Alert Level: 0x%4.4x\015\012\000"
 945      6F6E7365 
 945      3A204879 
ARM GAS  C:\Users\cypress\AppData\Local\Temp\ccgxY6Ea.s 			page 27


 945      706F2041 
 945      6C657274 
 946 06aa 0000     		.align	2
 947              	.LC159:
 948 06ac 53657420 		.ascii	"Set Hypo Alert Level\015\000"
 948      4879706F 
 948      20416C65 
 948      7274204C 
 948      6576656C 
 949 06c2 0000     		.align	2
 950              	.LC162:
 951 06c4 4F706572 		.ascii	"Operand: Hypo Alert Level: 0x%4.4x \015\012\000"
 951      616E643A 
 951      20487970 
 951      6F20416C 
 951      65727420 
 952 06ea 0000     		.align	2
 953              	.LC164:
 954 06ec 47657420 		.ascii	"Get Hyper Alert Level\015\000"
 954      48797065 
 954      7220416C 
 954      65727420 
 954      4C657665 
 955 0703 00       		.align	2
 956              	.LC166:
 957 0704 52657370 		.ascii	"Response: Hyper Alert Level: 0x%4.4x\015\012\000"
 957      6F6E7365 
 957      3A204879 
 957      70657220 
 957      416C6572 
 958 072b 00       		.align	2
 959              	.LC168:
 960 072c 53657420 		.ascii	"Set Hyper Alert Level\015\000"
 960      48797065 
 960      7220416C 
 960      65727420 
 960      4C657665 
 961 0743 00       		.align	2
 962              	.LC171:
 963 0744 4F706572 		.ascii	"Operand: Hyper Alert Level: 0x%4.4x \015\012\000"
 963      616E643A 
 963      20487970 
 963      65722041 
 963      6C657274 
 964 076b 00       		.align	2
 965              	.LC173:
 966 076c 47657420 		.ascii	"Get Rate of Decrease Alert Level\015\000"
 966      52617465 
 966      206F6620 
 966      44656372 
 966      65617365 
 967 078e 0000     		.align	2
 968              	.LC175:
 969 0790 52657370 		.ascii	"Response: Rate of Decrease Alert Level: 0x%4.4x\015"
 969      6F6E7365 
 969      3A205261 
 969      7465206F 
ARM GAS  C:\Users\cypress\AppData\Local\Temp\ccgxY6Ea.s 			page 28


 969      66204465 
 970 07c0 0A00     		.ascii	"\012\000"
 971 07c2 0000     		.align	2
 972              	.LC177:
 973 07c4 53657420 		.ascii	"Set Rate of Decrease Alert Level\015\000"
 973      52617465 
 973      206F6620 
 973      44656372 
 973      65617365 
 974 07e6 0000     		.align	2
 975              	.LC180:
 976 07e8 4F706572 		.ascii	"Operand: Rate of Decrease Alert Level: 0x%4.4x \015"
 976      616E643A 
 976      20526174 
 976      65206F66 
 976      20446563 
 977 0818 0A00     		.ascii	"\012\000"
 978 081a 0000     		.align	2
 979              	.LC182:
 980 081c 47657420 		.ascii	"Get Rate of Increase Alert Level\015\000"
 980      52617465 
 980      206F6620 
 980      496E6372 
 980      65617365 
 981 083e 0000     		.align	2
 982              	.LC184:
 983 0840 52657370 		.ascii	"Response: Rate of Increase Alert Level: 0x%4.4x\015"
 983      6F6E7365 
 983      3A205261 
 983      7465206F 
 983      6620496E 
 984 0870 0A00     		.ascii	"\012\000"
 985 0872 0000     		.align	2
 986              	.LC186:
 987 0874 53657420 		.ascii	"Set Rate of Increase Alert Level\015\000"
 987      52617465 
 987      206F6620 
 987      496E6372 
 987      65617365 
 988 0896 0000     		.align	2
 989              	.LC189:
 990 0898 4F706572 		.ascii	"Operand: Rate of Increase Alert Level: 0x%4.4x \015"
 990      616E643A 
 990      20526174 
 990      65206F66 
 990      20496E63 
 991 08c8 0A00     		.ascii	"\012\000"
 992 08ca 0000     		.align	2
 993              	.LC191:
 994 08cc 52657365 		.ascii	"Reset Device Specific Alert\015\000"
 994      74204465 
 994      76696365 
 994      20537065 
 994      63696669 
 995 08e9 000000   		.align	2
 996              	.LC193:
 997 08ec 53746172 		.ascii	"Start the Session\015\000"
ARM GAS  C:\Users\cypress\AppData\Local\Temp\ccgxY6Ea.s 			page 29


 997      74207468 
 997      65205365 
 997      7373696F 
 997      6E0D00
 998 08ff 00       		.align	2
 999              	.LC197:
 1000 0900 53746F70 		.ascii	"Stop the Session\015\000"
 1000      20746865 
 1000      20536573 
 1000      73696F6E 
 1000      0D00
 1001 0912 0000     		.align	2
 1002              	.LC199:
 1003 0914 4E6F7420 		.ascii	"Not Supported \015\000"
 1003      53757070 
 1003      6F727465 
 1003      64200D00 
 1004              		.align	2
 1005              	.LC201:
 1006 0924 476C7563 		.ascii	"Glucose Notification is Enabled \015\000"
 1006      6F736520 
 1006      4E6F7469 
 1006      66696361 
 1006      74696F6E 
 1007 0946 0000     		.align	2
 1008              	.LC203:
 1009 0948 476C7563 		.ascii	"Glucose Notification is Disabled \015\000"
 1009      6F736520 
 1009      4E6F7469 
 1009      66696361 
 1009      74696F6E 
 1010 096b 00       		.align	2
 1011              	.LC205:
 1012 096c 52414350 		.ascii	"RACP Indication is Enabled \015\000"
 1012      20496E64 
 1012      69636174 
 1012      696F6E20 
 1012      69732045 
 1013 0989 000000   		.align	2
 1014              	.LC207:
 1015 098c 52414350 		.ascii	"RACP Indication is Disabled \015\000"
 1015      20496E64 
 1015      69636174 
 1015      696F6E20 
 1015      69732044 
 1016 09aa 0000     		.align	2
 1017              	.LC209:
 1018 09ac 52414350 		.ascii	"RACP Indication is Confirmed \015\000"
 1018      20496E64 
 1018      69636174 
 1018      696F6E20 
 1018      69732043 
 1019 09cb 00       		.align	2
 1020              	.LC211:
 1021 09cc 756E6B6E 		.ascii	"unknown CGMS event: %lx \015\012\000"
 1021      6F776E20 
 1021      43474D53 
ARM GAS  C:\Users\cypress\AppData\Local\Temp\ccgxY6Ea.s 			page 30


 1021      20657665 
 1021      6E743A20 
 1022              		.section	.text.CgmsCallBack,"ax",%progbits
 1023              		.align	2
 1024              		.global	CgmsCallBack
 1025              		.code	16
 1026              		.thumb_func
 1027              		.type	CgmsCallBack, %function
 1028              	CgmsCallBack:
 1029              	.LFB41:
 318:cgmss.c       **** 
 319:cgmss.c       **** 
 320:cgmss.c       **** /******************************************************************************
 321:cgmss.c       **** ##Function Name: CgmsCallBack
 322:cgmss.c       **** *******************************************************************************
 323:cgmss.c       **** 
 324:cgmss.c       **** Summary:
 325:cgmss.c       ****   A CallBack function to handle CGMS specific events.
 326:cgmss.c       **** 
 327:cgmss.c       **** ******************************************************************************/
 328:cgmss.c       **** void CgmsCallBack(uint32 event, void* eventParam)
 329:cgmss.c       **** {    
 1030              		.loc 1 329 0
 1031              		.cfi_startproc
 1032              		@ args = 0, pretend = 0, frame = 16
 1033              		@ frame_needed = 1, uses_anonymous_args = 0
 1034 0000 90B5     		push	{r4, r7, lr}
 1035              		.cfi_def_cfa_offset 12
 1036              		.cfi_offset 4, -12
 1037              		.cfi_offset 7, -8
 1038              		.cfi_offset 14, -4
 1039 0002 85B0     		sub	sp, sp, #20
 1040              		.cfi_def_cfa_offset 32
 1041 0004 00AF     		add	r7, sp, #0
 1042              		.cfi_def_cfa_register 7
 1043 0006 7860     		str	r0, [r7, #4]
 1044 0008 3960     		str	r1, [r7]
 330:cgmss.c       ****     switch(event)
 1045              		.loc 1 330 0
 1046 000a 7B68     		ldr	r3, [r7, #4]
 1047 000c 4C3B     		subs	r3, r3, #76
 1048 000e FF3B     		subs	r3, r3, #255
 1049 0010 052B     		cmp	r3, #5
 1050 0012 01D9     		bls	.LCB538
 1051 0014 00F0B6FD 		bl	.L44	@far jump
 1052              	.LCB538:
 1053 0018 9A00     		lsls	r2, r3, #2
 1054 001a DA4B     		ldr	r3, .L137
 1055 001c D318     		adds	r3, r2, r3
 1056 001e 1B68     		ldr	r3, [r3]
 1057 0020 9F46     		mov	pc, r3
 1058              		.section	.rodata
 1059 09e7 00       		.align	2
 1060              	.L46:
 1061 09e8 660B0000 		.word	.L45
 1062 09ec 700B0000 		.word	.L47
 1063 09f0 7A0B0000 		.word	.L48
ARM GAS  C:\Users\cypress\AppData\Local\Temp\ccgxY6Ea.s 			page 31


 1064 09f4 520B0000 		.word	.L49
 1065 09f8 5C0B0000 		.word	.L50
 1066 09fc 22000000 		.word	.L51
 1067              		.section	.text.CgmsCallBack
 1068              	.L51:
 1069              	.LBB2:
 331:cgmss.c       ****     {
 332:cgmss.c       ****         case CYBLE_EVT_CGMSS_WRITE_CHAR:
 333:cgmss.c       ****             {
 334:cgmss.c       ****                 uint16 attrSize = 0u;
 1070              		.loc 1 334 0
 1071 0022 0E23     		movs	r3, #14
 1072 0024 FB18     		adds	r3, r7, r3
 1073 0026 0022     		movs	r2, #0
 1074 0028 1A80     		strh	r2, [r3]
 335:cgmss.c       ****                 CYBLE_GATT_ERR_CODE_T cgmsGattError = CYBLE_GATT_ERR_NONE;
 1075              		.loc 1 335 0
 1076 002a 0D23     		movs	r3, #13
 1077 002c FB18     		adds	r3, r7, r3
 1078 002e 0022     		movs	r2, #0
 1079 0030 1A70     		strb	r2, [r3]
 336:cgmss.c       ****                 
 337:cgmss.c       ****                 CgmsPrintCharName(((CYBLE_CGMS_CHAR_VALUE_T *)eventParam)->charIndex);
 1080              		.loc 1 337 0
 1081 0032 3B68     		ldr	r3, [r7]
 1082 0034 9B78     		ldrb	r3, [r3, #2]
 1083 0036 1800     		movs	r0, r3
 1084 0038 FFF7FEFF 		bl	CgmsPrintCharName
 338:cgmss.c       ****                 DBG_PRINTF("is written: ");
 1085              		.loc 1 338 0
 1086 003c D24B     		ldr	r3, .L137+4
 1087 003e 1800     		movs	r0, r3
 1088 0040 FFF7FEFF 		bl	printf
 339:cgmss.c       ****                 for(i = 0; i < ((CYBLE_CGMS_CHAR_VALUE_T *)eventParam)->value->len; i++)
 1089              		.loc 1 339 0
 1090 0044 D14B     		ldr	r3, .L137+8
 1091 0046 0022     		movs	r2, #0
 1092 0048 1A80     		strh	r2, [r3]
 1093 004a 12E0     		b	.L52
 1094              	.L53:
 340:cgmss.c       ****                 {
 341:cgmss.c       ****                     DBG_PRINTF("%2.2x ", ((CYBLE_CGMS_CHAR_VALUE_T *)eventParam)->value->val[i]);
 1095              		.loc 1 341 0 discriminator 3
 1096 004c 3B68     		ldr	r3, [r7]
 1097 004e 5B68     		ldr	r3, [r3, #4]
 1098 0050 1B68     		ldr	r3, [r3]
 1099 0052 CE4A     		ldr	r2, .L137+8
 1100 0054 1288     		ldrh	r2, [r2]
 1101 0056 9B18     		adds	r3, r3, r2
 1102 0058 1B78     		ldrb	r3, [r3]
 1103 005a 1A00     		movs	r2, r3
 1104 005c CC4B     		ldr	r3, .L137+12
 1105 005e 1100     		movs	r1, r2
 1106 0060 1800     		movs	r0, r3
 1107 0062 FFF7FEFF 		bl	printf
 339:cgmss.c       ****                 for(i = 0; i < ((CYBLE_CGMS_CHAR_VALUE_T *)eventParam)->value->len; i++)
 1108              		.loc 1 339 0 discriminator 3
ARM GAS  C:\Users\cypress\AppData\Local\Temp\ccgxY6Ea.s 			page 32


 1109 0066 C94B     		ldr	r3, .L137+8
 1110 0068 1B88     		ldrh	r3, [r3]
 1111 006a 0133     		adds	r3, r3, #1
 1112 006c 9AB2     		uxth	r2, r3
 1113 006e C74B     		ldr	r3, .L137+8
 1114 0070 1A80     		strh	r2, [r3]
 1115              	.L52:
 339:cgmss.c       ****                 for(i = 0; i < ((CYBLE_CGMS_CHAR_VALUE_T *)eventParam)->value->len; i++)
 1116              		.loc 1 339 0 is_stmt 0 discriminator 1
 1117 0072 3B68     		ldr	r3, [r7]
 1118 0074 5B68     		ldr	r3, [r3, #4]
 1119 0076 9A88     		ldrh	r2, [r3, #4]
 1120 0078 C44B     		ldr	r3, .L137+8
 1121 007a 1B88     		ldrh	r3, [r3]
 1122 007c 9A42     		cmp	r2, r3
 1123 007e E5D8     		bhi	.L53
 342:cgmss.c       ****                 }
 343:cgmss.c       ****                 DBG_PRINTF("\r\n");
 1124              		.loc 1 343 0 is_stmt 1
 1125 0080 C44B     		ldr	r3, .L137+16
 1126 0082 1800     		movs	r0, r3
 1127 0084 FFF7FEFF 		bl	puts
 344:cgmss.c       ****             
 345:cgmss.c       ****                 switch(((CYBLE_CGMS_CHAR_VALUE_T *)eventParam)->charIndex)
 1128              		.loc 1 345 0
 1129 0088 3B68     		ldr	r3, [r7]
 1130 008a 9B78     		ldrb	r3, [r3, #2]
 1131 008c 052B     		cmp	r3, #5
 1132 008e 00D1     		bne	.LCB606
 1133 0090 74E0     		b	.L55	@long jump
 1134              	.LCB606:
 1135 0092 062B     		cmp	r3, #6
 1136 0094 00D1     		bne	.LCB608
 1137 0096 C4E1     		b	.L56	@long jump
 1138              	.LCB608:
 1139 0098 032B     		cmp	r3, #3
 1140 009a 01D0     		beq	.L57
 346:cgmss.c       ****                 {
 347:cgmss.c       ****                     case CYBLE_CGMS_SSTM:
 348:cgmss.c       ****                         cgmsGattError = CgmsCrcCheck(CYBLE_CGMS_SSTM_SIZE, ((CYBLE_CGMS_CHAR_VALUE_
 349:cgmss.c       ****                         
 350:cgmss.c       ****                         sstm.sst.year = CyBle_Get16ByPtr(&((CYBLE_CGMS_CHAR_VALUE_T *)eventParam)->
 351:cgmss.c       ****                         sstm.sst.month = ((CYBLE_CGMS_CHAR_VALUE_T *)eventParam)->value->val[2u];
 352:cgmss.c       ****                         sstm.sst.day = ((CYBLE_CGMS_CHAR_VALUE_T *)eventParam)->value->val[3u];
 353:cgmss.c       ****                         sstm.sst.hours = ((CYBLE_CGMS_CHAR_VALUE_T *)eventParam)->value->val[4u];
 354:cgmss.c       ****                         sstm.sst.minutes = ((CYBLE_CGMS_CHAR_VALUE_T *)eventParam)->value->val[5u];
 355:cgmss.c       ****                         sstm.sst.seconds = ((CYBLE_CGMS_CHAR_VALUE_T *)eventParam)->value->val[6u];
 356:cgmss.c       ****                         sstm.timeZone = (CYBLE_TIME_ZONE_T)((CYBLE_CGMS_CHAR_VALUE_T *)eventParam)-
 357:cgmss.c       ****                         sstm.dstOffset = (CYBLE_DSTOFFSET_T)((CYBLE_CGMS_CHAR_VALUE_T *)eventParam)
 358:cgmss.c       ****                         
 359:cgmss.c       ****                         cgmsGattError = CYBLE_GATT_ERR_INVALID_PDU;
 360:cgmss.c       ****                         for(i = 0; i < CYBLE_TIME_ZONE_VAL_NUM; i++)
 361:cgmss.c       ****                         {
 362:cgmss.c       ****                             if(timeZone[i] == sstm.timeZone)
 363:cgmss.c       ****                             {
 364:cgmss.c       ****                                 cgmsGattError = CYBLE_GATT_ERR_NONE;
 365:cgmss.c       ****                             }
ARM GAS  C:\Users\cypress\AppData\Local\Temp\ccgxY6Ea.s 			page 33


 366:cgmss.c       ****                         }
 367:cgmss.c       ****                         
 368:cgmss.c       ****                         if(cgmsGattError != CYBLE_GATT_ERR_NONE)
 369:cgmss.c       ****                         {
 370:cgmss.c       ****                             DBG_PRINTF("invalid PDU\r\n");   
 371:cgmss.c       ****                         }
 372:cgmss.c       ****                         break;
 373:cgmss.c       ****                     
 374:cgmss.c       ****                     case CYBLE_CGMS_RACP:                    
 375:cgmss.c       ****                         cgmsFlag |= CGMS_FLAG_RACP;
 376:cgmss.c       ****                         
 377:cgmss.c       ****                         DBG_PRINTF("Opcode: ");
 378:cgmss.c       ****                         racpOpCode = ((CYBLE_CGMS_CHAR_VALUE_T *)eventParam)->value->val[0];
 379:cgmss.c       ****                         switch(racpOpCode)
 380:cgmss.c       ****                         {
 381:cgmss.c       ****                             case CYBLE_CGMS_RACP_OPC_REPORT_REC:
 382:cgmss.c       ****                                 DBG_PRINTF("Report stored records \r\n");
 383:cgmss.c       ****                                 break;
 384:cgmss.c       ****                                 
 385:cgmss.c       ****                             case CYBLE_CGMS_RACP_OPC_DELETE_REC:
 386:cgmss.c       ****                                 DBG_PRINTF("Delete stored records \r\n");
 387:cgmss.c       ****                                 break;
 388:cgmss.c       ****                                 
 389:cgmss.c       ****                             case CYBLE_CGMS_RACP_OPC_ABORT_OPN:
 390:cgmss.c       ****                                 DBG_PRINTF("Abort operation \r\n");
 391:cgmss.c       ****                                 break;
 392:cgmss.c       ****                                 
 393:cgmss.c       ****                             case CYBLE_CGMS_RACP_OPC_REPORT_NUM_REC:
 394:cgmss.c       ****                                 DBG_PRINTF("Report number of stored records \r\n");
 395:cgmss.c       ****                                 break;
 396:cgmss.c       ****                                 
 397:cgmss.c       ****                             default:
 398:cgmss.c       ****                                 DBG_PRINTF("Unknown \r\n");
 399:cgmss.c       ****                                 break;
 400:cgmss.c       ****                         }
 401:cgmss.c       ****                         
 402:cgmss.c       ****                         DBG_PRINTF("Operator: ");
 403:cgmss.c       ****                         racpOperator = ((CYBLE_CGMS_CHAR_VALUE_T *)eventParam)->value->val[1];
 404:cgmss.c       ****                         attr[3u] = CYBLE_CGMS_RACP_RSP_SUCCESS;
 405:cgmss.c       ****                         switch(racpOperator)
 406:cgmss.c       ****                         {
 407:cgmss.c       ****                             case CYBLE_CGMS_RACP_OPR_NULL:
 408:cgmss.c       ****                                 DBG_PRINTF("Null \r\n");
 409:cgmss.c       ****                                 break;
 410:cgmss.c       ****                             
 411:cgmss.c       ****                             case CYBLE_CGMS_RACP_OPR_LAST:
 412:cgmss.c       ****                                 DBG_PRINTF("Last record \r\n");
 413:cgmss.c       ****                                 break;
 414:cgmss.c       ****                                 
 415:cgmss.c       ****                             case CYBLE_CGMS_RACP_OPR_FIRST:
 416:cgmss.c       ****                                 DBG_PRINTF("First record \r\n");
 417:cgmss.c       ****                                 break;
 418:cgmss.c       ****                                 
 419:cgmss.c       ****                             case CYBLE_CGMS_RACP_OPR_ALL:
 420:cgmss.c       ****                                 DBG_PRINTF("All records \r\n");
 421:cgmss.c       ****                                 if(((CYBLE_CGMS_CHAR_VALUE_T *)eventParam)->value->len > 2u)
 422:cgmss.c       ****                                 {
ARM GAS  C:\Users\cypress\AppData\Local\Temp\ccgxY6Ea.s 			page 34


 423:cgmss.c       ****                                     attr[3u] = CYBLE_CGMS_RACP_RSP_INV_OPD;
 424:cgmss.c       ****                                 }
 425:cgmss.c       ****                                 break;
 426:cgmss.c       ****                             
 427:cgmss.c       ****                             case CYBLE_CGMS_RACP_OPR_LESS:
 428:cgmss.c       ****                                 DBG_PRINTF("Less than or equal to \r\n");
 429:cgmss.c       ****                                 DBG_PRINTF("Operand: ");
 430:cgmss.c       ****                                 if(((CYBLE_CGMS_CHAR_VALUE_T *)eventParam)->value->len == 5u)
 431:cgmss.c       ****                                 {
 432:cgmss.c       ****                                     racpOperand[0] = ((CYBLE_CGMS_CHAR_VALUE_T *)eventParam)->value
 433:cgmss.c       ****                                     if(CYBLE_CGMS_RACP_OPD_1 == racpOperand[0u])
 434:cgmss.c       ****                                     {
 435:cgmss.c       ****                                         racpOperand[1] = ((CYBLE_CGMS_CHAR_VALUE_T *)eventParam)->v
 436:cgmss.c       ****                                         DBG_PRINTF("Time Offset: %x \r\n", racpOperand[1u]);
 437:cgmss.c       ****                                     }
 438:cgmss.c       ****                                     else
 439:cgmss.c       ****                                     {
 440:cgmss.c       ****                                         DBG_PRINTF("Unknown \r\n");
 441:cgmss.c       ****                                     }
 442:cgmss.c       ****                                 }
 443:cgmss.c       ****                                 else
 444:cgmss.c       ****                                 {
 445:cgmss.c       ****                                     attr[3u] = CYBLE_CGMS_RACP_RSP_INV_OPD;
 446:cgmss.c       ****                                     DBG_PRINTF("Invalid \r\n");
 447:cgmss.c       ****                                 }
 448:cgmss.c       ****                                 break;
 449:cgmss.c       ****                                 
 450:cgmss.c       ****                             case CYBLE_CGMS_RACP_OPR_GREAT:
 451:cgmss.c       ****                                 DBG_PRINTF("Greater than or equal to \r\n");
 452:cgmss.c       ****                                 DBG_PRINTF("Operand: ");
 453:cgmss.c       ****                                 if(((CYBLE_CGMS_CHAR_VALUE_T *)eventParam)->value->len == 5u)
 454:cgmss.c       ****                                 {
 455:cgmss.c       ****                                     racpOperand[0u] = ((CYBLE_CGMS_CHAR_VALUE_T *)eventParam)->valu
 456:cgmss.c       ****                                     if(CYBLE_CGMS_RACP_OPD_1 == racpOperand[0u])
 457:cgmss.c       ****                                     {
 458:cgmss.c       ****                                         racpOperand[1u] = ((CYBLE_CGMS_CHAR_VALUE_T *)eventParam)->
 459:cgmss.c       ****                                         DBG_PRINTF("Time Offset: %x \r\n", racpOperand[1u]);
 460:cgmss.c       ****                                     }
 461:cgmss.c       ****                                     else
 462:cgmss.c       ****                                     {
 463:cgmss.c       ****                                         DBG_PRINTF("Unknown \r\n");
 464:cgmss.c       ****                                     }
 465:cgmss.c       ****                                 }
 466:cgmss.c       ****                                 else
 467:cgmss.c       ****                                 {
 468:cgmss.c       ****                                     attr[3u] = CYBLE_CGMS_RACP_RSP_INV_OPD;
 469:cgmss.c       ****                                     DBG_PRINTF("Invalid \r\n");
 470:cgmss.c       ****                                 }
 471:cgmss.c       ****                                 break;
 472:cgmss.c       ****                             
 473:cgmss.c       ****                             case CYBLE_CGMS_RACP_OPR_WITHIN:
 474:cgmss.c       ****                                 DBG_PRINTF("Within range of (inclusive) \r\n");
 475:cgmss.c       ****                                 DBG_PRINTF("Operand: ");
 476:cgmss.c       ****                                 if(((CYBLE_CGMS_CHAR_VALUE_T *)eventParam)->value->len == 7u)
 477:cgmss.c       ****                                 {
 478:cgmss.c       ****                                     racpOperand[0] = ((CYBLE_CGMS_CHAR_VALUE_T *)eventParam)->value
 479:cgmss.c       ****                                     if(CYBLE_CGMS_RACP_OPD_1 == racpOperand[0u])
ARM GAS  C:\Users\cypress\AppData\Local\Temp\ccgxY6Ea.s 			page 35


 480:cgmss.c       ****                                     {
 481:cgmss.c       ****                                         racpOperand[1] = ((CYBLE_CGMS_CHAR_VALUE_T *)eventParam)->v
 482:cgmss.c       ****                                         racpOperand[2] = ((CYBLE_CGMS_CHAR_VALUE_T *)eventParam)->v
 483:cgmss.c       ****                                         DBG_PRINTF("Time Offsets: %x, %x \r\n", racpOperand[1u], ra
 484:cgmss.c       ****                                     }
 485:cgmss.c       ****                                     else
 486:cgmss.c       ****                                     {
 487:cgmss.c       ****                                         DBG_PRINTF("Unknown \r\n");
 488:cgmss.c       ****                                     }
 489:cgmss.c       ****                                 }
 490:cgmss.c       ****                                 else
 491:cgmss.c       ****                                 {
 492:cgmss.c       ****                                     attr[3u] = CYBLE_CGMS_RACP_RSP_INV_OPD;
 493:cgmss.c       ****                                     DBG_PRINTF("Invalid \r\n");
 494:cgmss.c       ****                                 }
 495:cgmss.c       ****                                 break;
 496:cgmss.c       ****                         
 497:cgmss.c       ****                             default:
 498:cgmss.c       ****                                 DBG_PRINTF("Unknown \r\n");
 499:cgmss.c       ****                                 break;
 500:cgmss.c       ****                         }
 501:cgmss.c       ****                         break;
 502:cgmss.c       ****                         
 503:cgmss.c       ****                     case CYBLE_CGMS_SOCP:
 504:cgmss.c       ****                         
 505:cgmss.c       ****                         socpOpCode = (CYBLE_CGMS_SOCP_OPC_T)((CYBLE_CGMS_CHAR_VALUE_T *)eventParam)
 506:cgmss.c       ****                         socp[2u] = CYBLE_CGMS_SOCP_RSP_SUCCESS;
 507:cgmss.c       ****                         
 508:cgmss.c       ****                         switch(socpOpCode)
 509:cgmss.c       ****                         {
 510:cgmss.c       ****                             case CYBLE_CGMS_SOCP_OPC_STSN:
 511:cgmss.c       ****                             case CYBLE_CGMS_SOCP_OPC_SPSN:
 512:cgmss.c       ****                                 attrSize = CYBLE_CGMS_SOCP_OPC_SN;
 513:cgmss.c       ****                                 break;
 514:cgmss.c       ****                             
 515:cgmss.c       ****                             case CYBLE_CGMS_SOCP_OPC_SINT:
 516:cgmss.c       ****                                 attrSize = CYBLE_CGMS_SOCP_OPC_IN;
 517:cgmss.c       ****                                 break;
 518:cgmss.c       ****                             
 519:cgmss.c       ****                             case CYBLE_CGMS_SOCP_OPC_SHAL:
 520:cgmss.c       ****                             case CYBLE_CGMS_SOCP_OPC_SLAL:
 521:cgmss.c       ****                             case CYBLE_CGMS_SOCP_OPC_SHPO:
 522:cgmss.c       ****                             case CYBLE_CGMS_SOCP_OPC_SHPR:
 523:cgmss.c       ****                             case CYBLE_CGMS_SOCP_OPC_SDEC:
 524:cgmss.c       ****                             case CYBLE_CGMS_SOCP_OPC_SINC:
 525:cgmss.c       ****                                 attrSize = CYBLE_CGMS_SOCP_OPC_AL;
 526:cgmss.c       ****                                 break;
 527:cgmss.c       ****                             
 528:cgmss.c       ****                             case CYBLE_CGMS_SOCP_OPC_SGCV:
 529:cgmss.c       ****                                 attrSize = CYBLE_CGMS_SOCP_OPC_CV;
 530:cgmss.c       ****                                 break;
 531:cgmss.c       ****                             
 532:cgmss.c       ****                             default:
 533:cgmss.c       ****                                 socp[2u] = CYBLE_CGMS_SOCP_RSP_UNSPRT_OPC;
 534:cgmss.c       ****                                 break;
 535:cgmss.c       ****                         }
 536:cgmss.c       ****                         
ARM GAS  C:\Users\cypress\AppData\Local\Temp\ccgxY6Ea.s 			page 36


 537:cgmss.c       ****                         if(socp[2u] == CYBLE_CGMS_SOCP_RSP_SUCCESS)
 538:cgmss.c       ****                         {
 539:cgmss.c       ****                             cgmsGattError = CgmsCrcCheck(attrSize, ((CYBLE_CGMS_CHAR_VALUE_T *)even
 540:cgmss.c       ****                         }
 541:cgmss.c       ****                                                 
 542:cgmss.c       ****                         if(cgmsGattError == CYBLE_GATT_ERR_NONE)
 543:cgmss.c       ****                         {
 544:cgmss.c       ****                             cgmsFlag |= CGMS_FLAG_SOCP;
 545:cgmss.c       ****                             DBG_PRINTF("Opcode: ");
 546:cgmss.c       ****                             
 547:cgmss.c       ****                             switch(socpOpCode)
 548:cgmss.c       ****                             {
 549:cgmss.c       ****                                 case CYBLE_CGMS_SOCP_OPC_GINT:
 550:cgmss.c       ****                                     DBG_PRINTF("Get CGM Communication Interval\r\n");
 551:cgmss.c       ****                                     DBG_PRINTF("Response: Communication Interval: 0x%2.2x\r\n", com
 552:cgmss.c       ****                                     socp[0u] = CYBLE_CGMS_SOCP_OPC_RINT;
 553:cgmss.c       ****                                     socp[1u] = commInterval;
 554:cgmss.c       ****                                     break;
 555:cgmss.c       ****                                     
 556:cgmss.c       ****                                 case CYBLE_CGMS_SOCP_OPC_SINT:
 557:cgmss.c       ****                                     DBG_PRINTF("Set CGM Communication Interval\r\n");
 558:cgmss.c       ****                                     commInterval = ((CYBLE_CGMS_CHAR_VALUE_T *)eventParam)->value->
 559:cgmss.c       ****                                     DBG_PRINTF("Operand: 0x%2.2x \r\n", commInterval);
 560:cgmss.c       ****                                     socp[1u] = CYBLE_CGMS_SOCP_OPC_SINT;
 561:cgmss.c       ****                                     break;
 562:cgmss.c       ****                                     
 563:cgmss.c       ****                                 case CYBLE_CGMS_SOCP_OPC_SGCV:
 564:cgmss.c       ****                                     DBG_PRINTF("Set Glucose Calibration Value\r\n"); 
 565:cgmss.c       ****                                     socp[1u] = CYBLE_CGMS_SOCP_OPC_SGCV;
 566:cgmss.c       ****                                     DBG_PRINTF("Operand:\r\n Glucose Concentration 0x%4.4x\r\n",
 567:cgmss.c       ****                                         CyBle_Get16ByPtr(&((CYBLE_CGMS_CHAR_VALUE_T *)eventParam)->
 568:cgmss.c       ****                                     DBG_PRINTF(" Calibration Time 0x%4.4x\r\n",
 569:cgmss.c       ****                                         CyBle_Get16ByPtr(&((CYBLE_CGMS_CHAR_VALUE_T *)eventParam)->
 570:cgmss.c       ****                                     DBG_PRINTF(" Sample Location 0x%2.2x\r\n", ((CYBLE_CGMS_CHAR_VA
 571:cgmss.c       ****                                     DBG_PRINTF(" Next Calibration 0x%4.4x\r\n",
 572:cgmss.c       ****                                         CyBle_Get16ByPtr(&((CYBLE_CGMS_CHAR_VALUE_T *)eventParam)->
 573:cgmss.c       ****                                     DBG_PRINTF(" Calibration Data Record Number 0x%4.4x\r\n",
 574:cgmss.c       ****                                         CyBle_Get16ByPtr(&((CYBLE_CGMS_CHAR_VALUE_T *)eventParam)->
 575:cgmss.c       ****                                     DBG_PRINTF(" Calibration Status 0x%2.2x\r\n", ((CYBLE_CGMS_CHAR
 576:cgmss.c       ****                                     break;
 577:cgmss.c       ****                                     
 578:cgmss.c       ****                                 case CYBLE_CGMS_SOCP_OPC_GGCV:
 579:cgmss.c       ****                                     DBG_PRINTF("Get Glucose Calibration Value\r\n");
 580:cgmss.c       ****                                     DBG_PRINTF("Operand: Calibration Data Record Number: 0x%4.4x \r
 581:cgmss.c       ****                                             CyBle_Get16ByPtr(&((CYBLE_CGMS_CHAR_VALUE_T *)eventPara
 582:cgmss.c       ****                                     if(0xfffeu == CyBle_Get16ByPtr(&((CYBLE_CGMS_CHAR_VALUE_T *)eve
 583:cgmss.c       ****                                     {
 584:cgmss.c       ****                                         socp[0u] = CYBLE_CGMS_SOCP_OPC_RSPC;
 585:cgmss.c       ****                                         socp[1u] = CYBLE_CGMS_SOCP_OPC_GGCV;
 586:cgmss.c       ****                                         socp[2u] = CYBLE_CGMS_SOCP_RSP_POOR;
 587:cgmss.c       ****                                         socpLength = 3u;
 588:cgmss.c       ****                                     }
 589:cgmss.c       ****                                     else
 590:cgmss.c       ****                                     {
 591:cgmss.c       ****                                     
 592:cgmss.c       ****                                         if(0xffffu == CyBle_Get16ByPtr(&((CYBLE_CGMS_CHAR_VALUE_T *
 593:cgmss.c       ****                                         {
ARM GAS  C:\Users\cypress\AppData\Local\Temp\ccgxY6Ea.s 			page 37


 594:cgmss.c       ****                                             socpRecNum++;
 595:cgmss.c       ****                                         }
 596:cgmss.c       ****                                         else
 597:cgmss.c       ****                                         {
 598:cgmss.c       ****                                             socpRecNum = CyBle_Get16ByPtr(&((CYBLE_CGMS_CHAR_VALUE_
 599:cgmss.c       ****                                         }
 600:cgmss.c       ****                                         
 601:cgmss.c       ****                                         socp[0u] = CYBLE_CGMS_SOCP_OPC_RGCV;
 602:cgmss.c       ****                                         DBG_PRINTF("Response:\r\n Glucose Concentration 0x004e(78mg
 603:cgmss.c       ****                                         CyBle_Set16ByPtr(&socp[1u], 0x004eu);
 604:cgmss.c       ****                                         DBG_PRINTF(" Calibration Time 0x0005 (5 minutes)\r\n");
 605:cgmss.c       ****                                         CyBle_Set16ByPtr(&socp[3u], 0x0005u);
 606:cgmss.c       ****                                         DBG_PRINTF(" Sample Location 0x06\r\n");
 607:cgmss.c       ****                                         socp[5] = 0x06u;
 608:cgmss.c       ****                                         DBG_PRINTF(" Next Calibration 0x0005 (5 minutes)\r\n");
 609:cgmss.c       ****                                         CyBle_Set16ByPtr(&socp[6u], 0x0005u);
 610:cgmss.c       ****                                         DBG_PRINTF(" Calibration Data Record Number 0x%4.4x \r\n", 
 611:cgmss.c       ****                                         CyBle_Set16ByPtr(&socp[8u], socpRecNum);
 612:cgmss.c       ****                                         DBG_PRINTF(" Calibration Status 0x00\r\n");
 613:cgmss.c       ****                                         socp[10u] = 0x00u;
 614:cgmss.c       ****                                         socpLength = 11u;
 615:cgmss.c       ****                                     }
 616:cgmss.c       ****                                     break;
 617:cgmss.c       ****                                     
 618:cgmss.c       ****                                 case CYBLE_CGMS_SOCP_OPC_GHAL:
 619:cgmss.c       ****                                     DBG_PRINTF("Get Patient High Alert Level\r\n"); 
 620:cgmss.c       ****                                     DBG_PRINTF("Response: Patient High Alert Level: 0x%4.4x\r\n", a
 621:cgmss.c       ****                                     socp[0u] = CYBLE_CGMS_SOCP_OPC_RHAL;
 622:cgmss.c       ****                                     CyBle_Set16ByPtr(&socp[1u], alrt.hal);
 623:cgmss.c       ****                                     break;
 624:cgmss.c       ****                                     
 625:cgmss.c       ****                                 case CYBLE_CGMS_SOCP_OPC_SHAL:
 626:cgmss.c       ****                                     DBG_PRINTF("Set Patient High Alert Level\r\n");
 627:cgmss.c       ****                                     socpOpd = CyBle_Get16ByPtr(&((CYBLE_CGMS_CHAR_VALUE_T *)eventPa
 628:cgmss.c       ****                                     socpOpdPtr = &alrt.hal;
 629:cgmss.c       ****                                     DBG_PRINTF("Operand: Patient High Alert Level: 0x%4.4x \r\n", s
 630:cgmss.c       ****                                     socp[1u] = CYBLE_CGMS_SOCP_OPC_SHAL;
 631:cgmss.c       ****                                     break;
 632:cgmss.c       ****                                     
 633:cgmss.c       ****                                 case CYBLE_CGMS_SOCP_OPC_GLAL:
 634:cgmss.c       ****                                     DBG_PRINTF("Get Patient Low Alert Level\r\n"); 
 635:cgmss.c       ****                                     DBG_PRINTF("Response: Patient High Alert Level: 0x%4.4x\r\n", a
 636:cgmss.c       ****                                     socp[0u] = CYBLE_CGMS_SOCP_OPC_RLAL;
 637:cgmss.c       ****                                     CyBle_Set16ByPtr(&socp[1u], alrt.lal);
 638:cgmss.c       ****                                     break;
 639:cgmss.c       ****                                     
 640:cgmss.c       ****                                 case CYBLE_CGMS_SOCP_OPC_SLAL:
 641:cgmss.c       ****                                     DBG_PRINTF("Set Patient Low Alert Level\r\n");
 642:cgmss.c       ****                                     socpOpd = CyBle_Get16ByPtr(&((CYBLE_CGMS_CHAR_VALUE_T *)eventPa
 643:cgmss.c       ****                                     socpOpdPtr = &alrt.lal;
 644:cgmss.c       ****                                     DBG_PRINTF("Operand: Patient Low Alert Level: 0x%4.4x \r\n", so
 645:cgmss.c       ****                                     socp[1u] = CYBLE_CGMS_SOCP_OPC_SLAL;
 646:cgmss.c       ****                                     break;
 647:cgmss.c       ****                                     
 648:cgmss.c       ****                                 case CYBLE_CGMS_SOCP_OPC_GHPO:
 649:cgmss.c       ****                                     DBG_PRINTF("Get Hypo Alert Level\r\n"); 
 650:cgmss.c       ****                                     DBG_PRINTF("Response: Hypo Alert Level: 0x%4.4x\r\n", alrt.hpo)
ARM GAS  C:\Users\cypress\AppData\Local\Temp\ccgxY6Ea.s 			page 38


 651:cgmss.c       ****                                     socp[0u] = CYBLE_CGMS_SOCP_OPC_RHPO;
 652:cgmss.c       ****                                     CyBle_Set16ByPtr(&socp[1u], alrt.hpo);
 653:cgmss.c       ****                                     break;
 654:cgmss.c       ****                                     
 655:cgmss.c       ****                                 case CYBLE_CGMS_SOCP_OPC_SHPO:
 656:cgmss.c       ****                                     DBG_PRINTF("Set Hypo Alert Level\r\n");
 657:cgmss.c       ****                                     socpOpd = CyBle_Get16ByPtr(&((CYBLE_CGMS_CHAR_VALUE_T *)eventPa
 658:cgmss.c       ****                                     socpOpdPtr = &alrt.hpo;
 659:cgmss.c       ****                                     DBG_PRINTF("Operand: Hypo Alert Level: 0x%4.4x \r\n", socpOpd);
 660:cgmss.c       ****                                     socp[1u] = CYBLE_CGMS_SOCP_OPC_SHPO;
 661:cgmss.c       ****                                     break;
 662:cgmss.c       ****                                     
 663:cgmss.c       ****                                 case CYBLE_CGMS_SOCP_OPC_GHPR:
 664:cgmss.c       ****                                     DBG_PRINTF("Get Hyper Alert Level\r\n"); 
 665:cgmss.c       ****                                     DBG_PRINTF("Response: Hyper Alert Level: 0x%4.4x\r\n", alrt.hpr
 666:cgmss.c       ****                                     socp[0u] = CYBLE_CGMS_SOCP_OPC_RHPR;
 667:cgmss.c       ****                                     CyBle_Set16ByPtr(&socp[1u], alrt.hpr);
 668:cgmss.c       ****                                     break;
 669:cgmss.c       ****                                     
 670:cgmss.c       ****                                 case CYBLE_CGMS_SOCP_OPC_SHPR:
 671:cgmss.c       ****                                     DBG_PRINTF("Set Hyper Alert Level\r\n");
 672:cgmss.c       ****                                     socpOpd = CyBle_Get16ByPtr(&((CYBLE_CGMS_CHAR_VALUE_T *)eventPa
 673:cgmss.c       ****                                     socpOpdPtr = &alrt.hpr;
 674:cgmss.c       ****                                     DBG_PRINTF("Operand: Hyper Alert Level: 0x%4.4x \r\n", socpOpd)
 675:cgmss.c       ****                                     socp[1u] = CYBLE_CGMS_SOCP_OPC_SHPR;
 676:cgmss.c       ****                                     break;
 677:cgmss.c       ****                                     
 678:cgmss.c       ****                                 case CYBLE_CGMS_SOCP_OPC_GDEC:
 679:cgmss.c       ****                                     DBG_PRINTF("Get Rate of Decrease Alert Level\r\n"); 
 680:cgmss.c       ****                                     DBG_PRINTF("Response: Rate of Decrease Alert Level: 0x%4.4x\r\n
 681:cgmss.c       ****                                     socp[0u] = CYBLE_CGMS_SOCP_OPC_RDEC;
 682:cgmss.c       ****                                     CyBle_Set16ByPtr(&socp[1u], alrt.dec);
 683:cgmss.c       ****                                     break;
 684:cgmss.c       ****                                     
 685:cgmss.c       ****                                 case CYBLE_CGMS_SOCP_OPC_SDEC:
 686:cgmss.c       ****                                     DBG_PRINTF("Set Rate of Decrease Alert Level\r\n");
 687:cgmss.c       ****                                     socpOpd = CyBle_Get16ByPtr(&((CYBLE_CGMS_CHAR_VALUE_T *)eventPa
 688:cgmss.c       ****                                     socpOpdPtr = &alrt.dec;
 689:cgmss.c       ****                                     DBG_PRINTF("Operand: Rate of Decrease Alert Level: 0x%4.4x \r\n
 690:cgmss.c       ****                                     socp[1u] = CYBLE_CGMS_SOCP_OPC_SDEC;
 691:cgmss.c       ****                                     break;
 692:cgmss.c       ****                                     
 693:cgmss.c       ****                                 case CYBLE_CGMS_SOCP_OPC_GINC:
 694:cgmss.c       ****                                     DBG_PRINTF("Get Rate of Increase Alert Level\r\n"); 
 695:cgmss.c       ****                                     DBG_PRINTF("Response: Rate of Increase Alert Level: 0x%4.4x\r\n
 696:cgmss.c       ****                                     socp[0u] = CYBLE_CGMS_SOCP_OPC_RINC;
 697:cgmss.c       ****                                     CyBle_Set16ByPtr(&socp[1u], alrt.inc);
 698:cgmss.c       ****                                     break;
 699:cgmss.c       ****                                     
 700:cgmss.c       ****                                 case CYBLE_CGMS_SOCP_OPC_SINC:
 701:cgmss.c       ****                                     DBG_PRINTF("Set Rate of Increase Alert Level\r\n");
 702:cgmss.c       ****                                     socpOpd = CyBle_Get16ByPtr(&((CYBLE_CGMS_CHAR_VALUE_T *)eventPa
 703:cgmss.c       ****                                     socpOpdPtr = &alrt.inc;
 704:cgmss.c       ****                                     DBG_PRINTF("Operand: Rate of Increase Alert Level: 0x%4.4x \r\n
 705:cgmss.c       ****                                     socp[1u] = CYBLE_CGMS_SOCP_OPC_SINC;
 706:cgmss.c       ****                                     break;
 707:cgmss.c       ****                                     
ARM GAS  C:\Users\cypress\AppData\Local\Temp\ccgxY6Ea.s 			page 39


 708:cgmss.c       ****                                 case CYBLE_CGMS_SOCP_OPC_RDSA:
 709:cgmss.c       ****                                     DBG_PRINTF("Reset Device Specific Alert\r\n"); 
 710:cgmss.c       ****                                     socp[1u] = CYBLE_CGMS_SOCP_OPC_RDSA;
 711:cgmss.c       ****                                     break;
 712:cgmss.c       ****                                     
 713:cgmss.c       ****                                 case CYBLE_CGMS_SOCP_OPC_STSN:
 714:cgmss.c       ****                                     DBG_PRINTF("Start the Session\r\n");
 715:cgmss.c       ****                                     apiResult = CyBle_CgmssGetCharacteristicValue(CYBLE_CGMS_CGST, 
 716:cgmss.c       ****                                     if(apiResult != CYBLE_ERROR_OK)
 717:cgmss.c       ****                                     {
 718:cgmss.c       ****                                         DBG_PRINTF("CyBle_CgmssGetCharacteristicValue API Error: ")
 719:cgmss.c       ****                                         PrintApiResult();
 720:cgmss.c       ****                                     }
 721:cgmss.c       ****                                     
 722:cgmss.c       ****                                     if(0u != (attr[2] & (uint8) CYBLE_CGMS_GLMT_SSA_SS))
 723:cgmss.c       ****                                     {
 724:cgmss.c       ****                                         attr[2u] &= (uint8) ~CYBLE_CGMS_GLMT_SSA_SS;
 725:cgmss.c       ****                                     
 726:cgmss.c       ****                                         apiResult = CyBle_CgmssSetCharacteristicValue(CYBLE_CGMS_CG
 727:cgmss.c       ****                                         if(apiResult != CYBLE_ERROR_OK)
 728:cgmss.c       ****                                         {
 729:cgmss.c       ****                                             DBG_PRINTF("CyBle_CgmssGetCharacteristicValue API Error
 730:cgmss.c       ****                                             PrintApiResult();
 731:cgmss.c       ****                                         }
 732:cgmss.c       ****                                     }
 733:cgmss.c       ****                                     else
 734:cgmss.c       ****                                     {
 735:cgmss.c       ****                                         socp[2u] = CYBLE_CGMS_SOCP_RSP_NO_COMPL;
 736:cgmss.c       ****                                     }
 737:cgmss.c       ****                                     socp[1u] = CYBLE_CGMS_SOCP_OPC_STSN;
 738:cgmss.c       ****                                     break;
 739:cgmss.c       ****                                     
 740:cgmss.c       ****                                 case CYBLE_CGMS_SOCP_OPC_SPSN:
 741:cgmss.c       ****                                     DBG_PRINTF("Stop the Session\r\n");
 742:cgmss.c       ****                                     apiResult = CyBle_CgmssGetCharacteristicValue(CYBLE_CGMS_CGST, 
 743:cgmss.c       ****                                     if(apiResult != CYBLE_ERROR_OK)
 744:cgmss.c       ****                                     {
 745:cgmss.c       ****                                         DBG_PRINTF("CyBle_CgmssGetCharacteristicValue API Error: ")
 746:cgmss.c       ****                                         PrintApiResult();
 747:cgmss.c       ****                                     }
 748:cgmss.c       ****                                     
 749:cgmss.c       ****                                     attr[2u] |= (uint8) CYBLE_CGMS_GLMT_SSA_SS;
 750:cgmss.c       ****                                     
 751:cgmss.c       ****                                     apiResult = CyBle_CgmssSetCharacteristicValue(CYBLE_CGMS_CGST, 
 752:cgmss.c       ****                                     if(apiResult != CYBLE_ERROR_OK)
 753:cgmss.c       ****                                     {
 754:cgmss.c       ****                                         DBG_PRINTF("CyBle_CgmssGetCharacteristicValue API Error: ")
 755:cgmss.c       ****                                         PrintApiResult();
 756:cgmss.c       ****                                     }
 757:cgmss.c       ****                                     
 758:cgmss.c       ****                                     socp[1u] = CYBLE_CGMS_SOCP_OPC_SPSN;
 759:cgmss.c       ****                                     break;
 760:cgmss.c       ****                                     
 761:cgmss.c       ****                                 default:
 762:cgmss.c       ****                                     DBG_PRINTF("Not Supported \r\n");
 763:cgmss.c       ****                                     break;
 764:cgmss.c       ****                             }
ARM GAS  C:\Users\cypress\AppData\Local\Temp\ccgxY6Ea.s 			page 40


 765:cgmss.c       ****                         }
 766:cgmss.c       ****                         break;
 767:cgmss.c       ****                         
 768:cgmss.c       ****                     default:
 769:cgmss.c       ****                         break;
 1141              		.loc 1 769 0
 1142 009c 00F053FD 		bl	.L62	@ far jump
 1143              	.L57:
 348:cgmss.c       ****                         
 1144              		.loc 1 348 0
 1145 00a0 3B68     		ldr	r3, [r7]
 1146 00a2 5B68     		ldr	r3, [r3, #4]
 1147 00a4 0D22     		movs	r2, #13
 1148 00a6 BC18     		adds	r4, r7, r2
 1149 00a8 1900     		movs	r1, r3
 1150 00aa 0920     		movs	r0, #9
 1151 00ac FFF7FEFF 		bl	CgmsCrcCheck
 1152 00b0 0300     		movs	r3, r0
 1153 00b2 2370     		strb	r3, [r4]
 350:cgmss.c       ****                         sstm.sst.month = ((CYBLE_CGMS_CHAR_VALUE_T *)eventParam)->value->val[2u];
 1154              		.loc 1 350 0
 1155 00b4 3B68     		ldr	r3, [r7]
 1156 00b6 5B68     		ldr	r3, [r3, #4]
 1157 00b8 1B68     		ldr	r3, [r3]
 1158 00ba 1800     		movs	r0, r3
 1159 00bc FFF7FEFF 		bl	CyBle_Get16ByPtr
 1160 00c0 0300     		movs	r3, r0
 1161 00c2 1A00     		movs	r2, r3
 1162 00c4 B44B     		ldr	r3, .L137+20
 1163 00c6 1A80     		strh	r2, [r3]
 351:cgmss.c       ****                         sstm.sst.day = ((CYBLE_CGMS_CHAR_VALUE_T *)eventParam)->value->val[3u];
 1164              		.loc 1 351 0
 1165 00c8 3B68     		ldr	r3, [r7]
 1166 00ca 5B68     		ldr	r3, [r3, #4]
 1167 00cc 1B68     		ldr	r3, [r3]
 1168 00ce 9A78     		ldrb	r2, [r3, #2]
 1169 00d0 B14B     		ldr	r3, .L137+20
 1170 00d2 9A70     		strb	r2, [r3, #2]
 352:cgmss.c       ****                         sstm.sst.hours = ((CYBLE_CGMS_CHAR_VALUE_T *)eventParam)->value->val[4u];
 1171              		.loc 1 352 0
 1172 00d4 3B68     		ldr	r3, [r7]
 1173 00d6 5B68     		ldr	r3, [r3, #4]
 1174 00d8 1B68     		ldr	r3, [r3]
 1175 00da DA78     		ldrb	r2, [r3, #3]
 1176 00dc AE4B     		ldr	r3, .L137+20
 1177 00de DA70     		strb	r2, [r3, #3]
 353:cgmss.c       ****                         sstm.sst.minutes = ((CYBLE_CGMS_CHAR_VALUE_T *)eventParam)->value->val[5u];
 1178              		.loc 1 353 0
 1179 00e0 3B68     		ldr	r3, [r7]
 1180 00e2 5B68     		ldr	r3, [r3, #4]
 1181 00e4 1B68     		ldr	r3, [r3]
 1182 00e6 1A79     		ldrb	r2, [r3, #4]
 1183 00e8 AB4B     		ldr	r3, .L137+20
 1184 00ea 1A71     		strb	r2, [r3, #4]
 354:cgmss.c       ****                         sstm.sst.seconds = ((CYBLE_CGMS_CHAR_VALUE_T *)eventParam)->value->val[6u];
 1185              		.loc 1 354 0
 1186 00ec 3B68     		ldr	r3, [r7]
ARM GAS  C:\Users\cypress\AppData\Local\Temp\ccgxY6Ea.s 			page 41


 1187 00ee 5B68     		ldr	r3, [r3, #4]
 1188 00f0 1B68     		ldr	r3, [r3]
 1189 00f2 5A79     		ldrb	r2, [r3, #5]
 1190 00f4 A84B     		ldr	r3, .L137+20
 1191 00f6 5A71     		strb	r2, [r3, #5]
 355:cgmss.c       ****                         sstm.timeZone = (CYBLE_TIME_ZONE_T)((CYBLE_CGMS_CHAR_VALUE_T *)eventParam)-
 1192              		.loc 1 355 0
 1193 00f8 3B68     		ldr	r3, [r7]
 1194 00fa 5B68     		ldr	r3, [r3, #4]
 1195 00fc 1B68     		ldr	r3, [r3]
 1196 00fe 9A79     		ldrb	r2, [r3, #6]
 1197 0100 A54B     		ldr	r3, .L137+20
 1198 0102 9A71     		strb	r2, [r3, #6]
 356:cgmss.c       ****                         sstm.dstOffset = (CYBLE_DSTOFFSET_T)((CYBLE_CGMS_CHAR_VALUE_T *)eventParam)
 1199              		.loc 1 356 0
 1200 0104 3B68     		ldr	r3, [r7]
 1201 0106 5B68     		ldr	r3, [r3, #4]
 1202 0108 1B68     		ldr	r3, [r3]
 1203 010a 0733     		adds	r3, r3, #7
 1204 010c 1B78     		ldrb	r3, [r3]
 1205 010e 5AB2     		sxtb	r2, r3
 1206 0110 A14B     		ldr	r3, .L137+20
 1207 0112 1A72     		strb	r2, [r3, #8]
 357:cgmss.c       ****                         
 1208              		.loc 1 357 0
 1209 0114 3B68     		ldr	r3, [r7]
 1210 0116 5B68     		ldr	r3, [r3, #4]
 1211 0118 1B68     		ldr	r3, [r3]
 1212 011a 0833     		adds	r3, r3, #8
 1213 011c 1A78     		ldrb	r2, [r3]
 1214 011e 9E4B     		ldr	r3, .L137+20
 1215 0120 5A72     		strb	r2, [r3, #9]
 359:cgmss.c       ****                         for(i = 0; i < CYBLE_TIME_ZONE_VAL_NUM; i++)
 1216              		.loc 1 359 0
 1217 0122 0D23     		movs	r3, #13
 1218 0124 FB18     		adds	r3, r7, r3
 1219 0126 0422     		movs	r2, #4
 1220 0128 1A70     		strb	r2, [r3]
 360:cgmss.c       ****                         {
 1221              		.loc 1 360 0
 1222 012a 984B     		ldr	r3, .L137+8
 1223 012c 0022     		movs	r2, #0
 1224 012e 1A80     		strh	r2, [r3]
 1225 0130 13E0     		b	.L58
 1226              	.L60:
 362:cgmss.c       ****                             {
 1227              		.loc 1 362 0
 1228 0132 964B     		ldr	r3, .L137+8
 1229 0134 1B88     		ldrh	r3, [r3]
 1230 0136 1A00     		movs	r2, r3
 1231 0138 984B     		ldr	r3, .L137+24
 1232 013a 9A56     		ldrsb	r2, [r3, r2]
 1233 013c 964B     		ldr	r3, .L137+20
 1234 013e 1B7A     		ldrb	r3, [r3, #8]
 1235 0140 5BB2     		sxtb	r3, r3
 1236 0142 9A42     		cmp	r2, r3
 1237 0144 03D1     		bne	.L59
ARM GAS  C:\Users\cypress\AppData\Local\Temp\ccgxY6Ea.s 			page 42


 364:cgmss.c       ****                             }
 1238              		.loc 1 364 0
 1239 0146 0D23     		movs	r3, #13
 1240 0148 FB18     		adds	r3, r7, r3
 1241 014a 0022     		movs	r2, #0
 1242 014c 1A70     		strb	r2, [r3]
 1243              	.L59:
 360:cgmss.c       ****                         {
 1244              		.loc 1 360 0 discriminator 2
 1245 014e 8F4B     		ldr	r3, .L137+8
 1246 0150 1B88     		ldrh	r3, [r3]
 1247 0152 0133     		adds	r3, r3, #1
 1248 0154 9AB2     		uxth	r2, r3
 1249 0156 8D4B     		ldr	r3, .L137+8
 1250 0158 1A80     		strh	r2, [r3]
 1251              	.L58:
 360:cgmss.c       ****                         {
 1252              		.loc 1 360 0 is_stmt 0 discriminator 1
 1253 015a 8C4B     		ldr	r3, .L137+8
 1254 015c 1B88     		ldrh	r3, [r3]
 1255 015e 272B     		cmp	r3, #39
 1256 0160 E7D9     		bls	.L60
 368:cgmss.c       ****                         {
 1257              		.loc 1 368 0 is_stmt 1
 1258 0162 0D23     		movs	r3, #13
 1259 0164 FB18     		adds	r3, r7, r3
 1260 0166 1B78     		ldrb	r3, [r3]
 1261 0168 002B     		cmp	r3, #0
 1262 016a 01D1     		bne	.LCB721
 1263 016c 00F0E8FC 		bl	.L134	@far jump
 1264              	.LCB721:
 370:cgmss.c       ****                         }
 1265              		.loc 1 370 0
 1266 0170 8B4B     		ldr	r3, .L137+28
 1267 0172 1800     		movs	r0, r3
 1268 0174 FFF7FEFF 		bl	puts
 372:cgmss.c       ****                     
 1269              		.loc 1 372 0
 1270 0178 00F0E2FC 		bl	.L134	@ far jump
 1271              	.L55:
 375:cgmss.c       ****                         
 1272              		.loc 1 375 0
 1273 017c 894B     		ldr	r3, .L137+32
 1274 017e 1B78     		ldrb	r3, [r3]
 1275 0180 0222     		movs	r2, #2
 1276 0182 1343     		orrs	r3, r2
 1277 0184 DAB2     		uxtb	r2, r3
 1278 0186 874B     		ldr	r3, .L137+32
 1279 0188 1A70     		strb	r2, [r3]
 377:cgmss.c       ****                         racpOpCode = ((CYBLE_CGMS_CHAR_VALUE_T *)eventParam)->value->val[0];
 1280              		.loc 1 377 0
 1281 018a 874B     		ldr	r3, .L137+36
 1282 018c 1800     		movs	r0, r3
 1283 018e FFF7FEFF 		bl	printf
 378:cgmss.c       ****                         switch(racpOpCode)
 1284              		.loc 1 378 0
 1285 0192 3B68     		ldr	r3, [r7]
ARM GAS  C:\Users\cypress\AppData\Local\Temp\ccgxY6Ea.s 			page 43


 1286 0194 5B68     		ldr	r3, [r3, #4]
 1287 0196 1B68     		ldr	r3, [r3]
 1288 0198 1A78     		ldrb	r2, [r3]
 1289 019a 844B     		ldr	r3, .L137+40
 1290 019c 1A70     		strb	r2, [r3]
 379:cgmss.c       ****                         {
 1291              		.loc 1 379 0
 1292 019e 834B     		ldr	r3, .L137+40
 1293 01a0 1B78     		ldrb	r3, [r3]
 1294 01a2 022B     		cmp	r3, #2
 1295 01a4 0DD0     		beq	.L64
 1296 01a6 02DC     		bgt	.L65
 1297 01a8 012B     		cmp	r3, #1
 1298 01aa 05D0     		beq	.L66
 1299 01ac 18E0     		b	.L63
 1300              	.L65:
 1301 01ae 032B     		cmp	r3, #3
 1302 01b0 0CD0     		beq	.L67
 1303 01b2 042B     		cmp	r3, #4
 1304 01b4 0FD0     		beq	.L68
 1305 01b6 13E0     		b	.L63
 1306              	.L66:
 382:cgmss.c       ****                                 break;
 1307              		.loc 1 382 0
 1308 01b8 7D4B     		ldr	r3, .L137+44
 1309 01ba 1800     		movs	r0, r3
 1310 01bc FFF7FEFF 		bl	puts
 383:cgmss.c       ****                                 
 1311              		.loc 1 383 0
 1312 01c0 13E0     		b	.L69
 1313              	.L64:
 386:cgmss.c       ****                                 break;
 1314              		.loc 1 386 0
 1315 01c2 7C4B     		ldr	r3, .L137+48
 1316 01c4 1800     		movs	r0, r3
 1317 01c6 FFF7FEFF 		bl	puts
 387:cgmss.c       ****                                 
 1318              		.loc 1 387 0
 1319 01ca 0EE0     		b	.L69
 1320              	.L67:
 390:cgmss.c       ****                                 break;
 1321              		.loc 1 390 0
 1322 01cc 7A4B     		ldr	r3, .L137+52
 1323 01ce 1800     		movs	r0, r3
 1324 01d0 FFF7FEFF 		bl	puts
 391:cgmss.c       ****                                 
 1325              		.loc 1 391 0
 1326 01d4 09E0     		b	.L69
 1327              	.L68:
 394:cgmss.c       ****                                 break;
 1328              		.loc 1 394 0
 1329 01d6 794B     		ldr	r3, .L137+56
 1330 01d8 1800     		movs	r0, r3
 1331 01da FFF7FEFF 		bl	puts
 395:cgmss.c       ****                                 
 1332              		.loc 1 395 0
 1333 01de 04E0     		b	.L69
ARM GAS  C:\Users\cypress\AppData\Local\Temp\ccgxY6Ea.s 			page 44


 1334              	.L63:
 398:cgmss.c       ****                                 break;
 1335              		.loc 1 398 0
 1336 01e0 774B     		ldr	r3, .L137+60
 1337 01e2 1800     		movs	r0, r3
 1338 01e4 FFF7FEFF 		bl	puts
 399:cgmss.c       ****                         }
 1339              		.loc 1 399 0
 1340 01e8 C046     		nop
 1341              	.L69:
 402:cgmss.c       ****                         racpOperator = ((CYBLE_CGMS_CHAR_VALUE_T *)eventParam)->value->val[1];
 1342              		.loc 1 402 0
 1343 01ea 764B     		ldr	r3, .L137+64
 1344 01ec 1800     		movs	r0, r3
 1345 01ee FFF7FEFF 		bl	printf
 403:cgmss.c       ****                         attr[3u] = CYBLE_CGMS_RACP_RSP_SUCCESS;
 1346              		.loc 1 403 0
 1347 01f2 3B68     		ldr	r3, [r7]
 1348 01f4 5B68     		ldr	r3, [r3, #4]
 1349 01f6 1B68     		ldr	r3, [r3]
 1350 01f8 5A78     		ldrb	r2, [r3, #1]
 1351 01fa 734B     		ldr	r3, .L137+68
 1352 01fc 1A70     		strb	r2, [r3]
 404:cgmss.c       ****                         switch(racpOperator)
 1353              		.loc 1 404 0
 1354 01fe 734B     		ldr	r3, .L137+72
 1355 0200 0122     		movs	r2, #1
 1356 0202 DA70     		strb	r2, [r3, #3]
 405:cgmss.c       ****                         {
 1357              		.loc 1 405 0
 1358 0204 704B     		ldr	r3, .L137+68
 1359 0206 1B78     		ldrb	r3, [r3]
 1360 0208 062B     		cmp	r3, #6
 1361 020a 00D9     		bls	.LCB814
 1362 020c 02E1     		b	.L70	@long jump
 1363              	.LCB814:
 1364 020e 9A00     		lsls	r2, r3, #2
 1365 0210 6F4B     		ldr	r3, .L137+76
 1366 0212 D318     		adds	r3, r2, r3
 1367 0214 1B68     		ldr	r3, [r3]
 1368 0216 9F46     		mov	pc, r3
 1369              		.section	.rodata
 1370              		.align	2
 1371              	.L72:
 1372 0a00 18020000 		.word	.L71
 1373 0a04 36020000 		.word	.L73
 1374 0a08 52020000 		.word	.L74
 1375 0a0c B8020000 		.word	.L75
 1376 0a10 1E030000 		.word	.L76
 1377 0a14 2C020000 		.word	.L77
 1378 0a18 22020000 		.word	.L78
 1379              		.section	.text.CgmsCallBack
 1380              	.L71:
 408:cgmss.c       ****                                 break;
 1381              		.loc 1 408 0
 1382 0218 6E4B     		ldr	r3, .L137+80
 1383 021a 1800     		movs	r0, r3
ARM GAS  C:\Users\cypress\AppData\Local\Temp\ccgxY6Ea.s 			page 45


 1384 021c FFF7FEFF 		bl	puts
 409:cgmss.c       ****                             
 1385              		.loc 1 409 0
 1386 0220 FEE0     		b	.L79
 1387              	.L78:
 412:cgmss.c       ****                                 break;
 1388              		.loc 1 412 0
 1389 0222 6D4B     		ldr	r3, .L137+84
 1390 0224 1800     		movs	r0, r3
 1391 0226 FFF7FEFF 		bl	puts
 413:cgmss.c       ****                                 
 1392              		.loc 1 413 0
 1393 022a F9E0     		b	.L79
 1394              	.L77:
 416:cgmss.c       ****                                 break;
 1395              		.loc 1 416 0
 1396 022c 6B4B     		ldr	r3, .L137+88
 1397 022e 1800     		movs	r0, r3
 1398 0230 FFF7FEFF 		bl	puts
 417:cgmss.c       ****                                 
 1399              		.loc 1 417 0
 1400 0234 F4E0     		b	.L79
 1401              	.L73:
 420:cgmss.c       ****                                 if(((CYBLE_CGMS_CHAR_VALUE_T *)eventParam)->value->len > 2u)
 1402              		.loc 1 420 0
 1403 0236 6A4B     		ldr	r3, .L137+92
 1404 0238 1800     		movs	r0, r3
 1405 023a FFF7FEFF 		bl	puts
 421:cgmss.c       ****                                 {
 1406              		.loc 1 421 0
 1407 023e 3B68     		ldr	r3, [r7]
 1408 0240 5B68     		ldr	r3, [r3, #4]
 1409 0242 9B88     		ldrh	r3, [r3, #4]
 1410 0244 022B     		cmp	r3, #2
 1411 0246 00D8     		bhi	.LCB854
 1412 0248 E9E0     		b	.L135	@long jump
 1413              	.LCB854:
 423:cgmss.c       ****                                 }
 1414              		.loc 1 423 0
 1415 024a 604B     		ldr	r3, .L137+72
 1416 024c 0522     		movs	r2, #5
 1417 024e DA70     		strb	r2, [r3, #3]
 425:cgmss.c       ****                             
 1418              		.loc 1 425 0
 1419 0250 E5E0     		b	.L135
 1420              	.L74:
 428:cgmss.c       ****                                 DBG_PRINTF("Operand: ");
 1421              		.loc 1 428 0
 1422 0252 644B     		ldr	r3, .L137+96
 1423 0254 1800     		movs	r0, r3
 1424 0256 FFF7FEFF 		bl	puts
 429:cgmss.c       ****                                 if(((CYBLE_CGMS_CHAR_VALUE_T *)eventParam)->value->len == 5u)
 1425              		.loc 1 429 0
 1426 025a 634B     		ldr	r3, .L137+100
 1427 025c 1800     		movs	r0, r3
 1428 025e FFF7FEFF 		bl	printf
 430:cgmss.c       ****                                 {
ARM GAS  C:\Users\cypress\AppData\Local\Temp\ccgxY6Ea.s 			page 46


 1429              		.loc 1 430 0
 1430 0262 3B68     		ldr	r3, [r7]
 1431 0264 5B68     		ldr	r3, [r3, #4]
 1432 0266 9B88     		ldrh	r3, [r3, #4]
 1433 0268 052B     		cmp	r3, #5
 1434 026a 1DD1     		bne	.L81
 432:cgmss.c       ****                                     if(CYBLE_CGMS_RACP_OPD_1 == racpOperand[0u])
 1435              		.loc 1 432 0
 1436 026c 3B68     		ldr	r3, [r7]
 1437 026e 5B68     		ldr	r3, [r3, #4]
 1438 0270 1B68     		ldr	r3, [r3]
 1439 0272 9A78     		ldrb	r2, [r3, #2]
 1440 0274 5D4B     		ldr	r3, .L137+104
 1441 0276 1A70     		strb	r2, [r3]
 433:cgmss.c       ****                                     {
 1442              		.loc 1 433 0
 1443 0278 5C4B     		ldr	r3, .L137+104
 1444 027a 1B78     		ldrb	r3, [r3]
 1445 027c 012B     		cmp	r3, #1
 1446 027e 0ED1     		bne	.L82
 435:cgmss.c       ****                                         DBG_PRINTF("Time Offset: %x \r\n", racpOperand[1u]);
 1447              		.loc 1 435 0
 1448 0280 3B68     		ldr	r3, [r7]
 1449 0282 5B68     		ldr	r3, [r3, #4]
 1450 0284 1B68     		ldr	r3, [r3]
 1451 0286 DA78     		ldrb	r2, [r3, #3]
 1452 0288 584B     		ldr	r3, .L137+104
 1453 028a 5A70     		strb	r2, [r3, #1]
 436:cgmss.c       ****                                     }
 1454              		.loc 1 436 0
 1455 028c 574B     		ldr	r3, .L137+104
 1456 028e 5B78     		ldrb	r3, [r3, #1]
 1457 0290 1A00     		movs	r2, r3
 1458 0292 574B     		ldr	r3, .L137+108
 1459 0294 1100     		movs	r1, r2
 1460 0296 1800     		movs	r0, r3
 1461 0298 FFF7FEFF 		bl	printf
 448:cgmss.c       ****                                 
 1462              		.loc 1 448 0
 1463 029c C0E0     		b	.L79
 1464              	.L82:
 440:cgmss.c       ****                                     }
 1465              		.loc 1 440 0
 1466 029e 484B     		ldr	r3, .L137+60
 1467 02a0 1800     		movs	r0, r3
 1468 02a2 FFF7FEFF 		bl	puts
 448:cgmss.c       ****                                 
 1469              		.loc 1 448 0
 1470 02a6 BBE0     		b	.L79
 1471              	.L81:
 445:cgmss.c       ****                                     DBG_PRINTF("Invalid \r\n");
 1472              		.loc 1 445 0
 1473 02a8 484B     		ldr	r3, .L137+72
 1474 02aa 0522     		movs	r2, #5
 1475 02ac DA70     		strb	r2, [r3, #3]
 446:cgmss.c       ****                                 }
 1476              		.loc 1 446 0
ARM GAS  C:\Users\cypress\AppData\Local\Temp\ccgxY6Ea.s 			page 47


 1477 02ae 514B     		ldr	r3, .L137+112
 1478 02b0 1800     		movs	r0, r3
 1479 02b2 FFF7FEFF 		bl	puts
 448:cgmss.c       ****                                 
 1480              		.loc 1 448 0
 1481 02b6 B3E0     		b	.L79
 1482              	.L75:
 451:cgmss.c       ****                                 DBG_PRINTF("Operand: ");
 1483              		.loc 1 451 0
 1484 02b8 4F4B     		ldr	r3, .L137+116
 1485 02ba 1800     		movs	r0, r3
 1486 02bc FFF7FEFF 		bl	puts
 452:cgmss.c       ****                                 if(((CYBLE_CGMS_CHAR_VALUE_T *)eventParam)->value->len == 5u)
 1487              		.loc 1 452 0
 1488 02c0 494B     		ldr	r3, .L137+100
 1489 02c2 1800     		movs	r0, r3
 1490 02c4 FFF7FEFF 		bl	printf
 453:cgmss.c       ****                                 {
 1491              		.loc 1 453 0
 1492 02c8 3B68     		ldr	r3, [r7]
 1493 02ca 5B68     		ldr	r3, [r3, #4]
 1494 02cc 9B88     		ldrh	r3, [r3, #4]
 1495 02ce 052B     		cmp	r3, #5
 1496 02d0 1DD1     		bne	.L85
 455:cgmss.c       ****                                     if(CYBLE_CGMS_RACP_OPD_1 == racpOperand[0u])
 1497              		.loc 1 455 0
 1498 02d2 3B68     		ldr	r3, [r7]
 1499 02d4 5B68     		ldr	r3, [r3, #4]
 1500 02d6 1B68     		ldr	r3, [r3]
 1501 02d8 9A78     		ldrb	r2, [r3, #2]
 1502 02da 444B     		ldr	r3, .L137+104
 1503 02dc 1A70     		strb	r2, [r3]
 456:cgmss.c       ****                                     {
 1504              		.loc 1 456 0
 1505 02de 434B     		ldr	r3, .L137+104
 1506 02e0 1B78     		ldrb	r3, [r3]
 1507 02e2 012B     		cmp	r3, #1
 1508 02e4 0ED1     		bne	.L86
 458:cgmss.c       ****                                         DBG_PRINTF("Time Offset: %x \r\n", racpOperand[1u]);
 1509              		.loc 1 458 0
 1510 02e6 3B68     		ldr	r3, [r7]
 1511 02e8 5B68     		ldr	r3, [r3, #4]
 1512 02ea 1B68     		ldr	r3, [r3]
 1513 02ec DA78     		ldrb	r2, [r3, #3]
 1514 02ee 3F4B     		ldr	r3, .L137+104
 1515 02f0 5A70     		strb	r2, [r3, #1]
 459:cgmss.c       ****                                     }
 1516              		.loc 1 459 0
 1517 02f2 3E4B     		ldr	r3, .L137+104
 1518 02f4 5B78     		ldrb	r3, [r3, #1]
 1519 02f6 1A00     		movs	r2, r3
 1520 02f8 3D4B     		ldr	r3, .L137+108
 1521 02fa 1100     		movs	r1, r2
 1522 02fc 1800     		movs	r0, r3
 1523 02fe FFF7FEFF 		bl	printf
 471:cgmss.c       ****                             
 1524              		.loc 1 471 0
ARM GAS  C:\Users\cypress\AppData\Local\Temp\ccgxY6Ea.s 			page 48


 1525 0302 8DE0     		b	.L79
 1526              	.L86:
 463:cgmss.c       ****                                     }
 1527              		.loc 1 463 0
 1528 0304 2E4B     		ldr	r3, .L137+60
 1529 0306 1800     		movs	r0, r3
 1530 0308 FFF7FEFF 		bl	puts
 471:cgmss.c       ****                             
 1531              		.loc 1 471 0
 1532 030c 88E0     		b	.L79
 1533              	.L85:
 468:cgmss.c       ****                                     DBG_PRINTF("Invalid \r\n");
 1534              		.loc 1 468 0
 1535 030e 2F4B     		ldr	r3, .L137+72
 1536 0310 0522     		movs	r2, #5
 1537 0312 DA70     		strb	r2, [r3, #3]
 469:cgmss.c       ****                                 }
 1538              		.loc 1 469 0
 1539 0314 374B     		ldr	r3, .L137+112
 1540 0316 1800     		movs	r0, r3
 1541 0318 FFF7FEFF 		bl	puts
 471:cgmss.c       ****                             
 1542              		.loc 1 471 0
 1543 031c 80E0     		b	.L79
 1544              	.L76:
 474:cgmss.c       ****                                 DBG_PRINTF("Operand: ");
 1545              		.loc 1 474 0
 1546 031e 374B     		ldr	r3, .L137+120
 1547 0320 1800     		movs	r0, r3
 1548 0322 FFF7FEFF 		bl	puts
 475:cgmss.c       ****                                 if(((CYBLE_CGMS_CHAR_VALUE_T *)eventParam)->value->len == 7u)
 1549              		.loc 1 475 0
 1550 0326 304B     		ldr	r3, .L137+100
 1551 0328 1800     		movs	r0, r3
 1552 032a FFF7FEFF 		bl	printf
 476:cgmss.c       ****                                 {
 1553              		.loc 1 476 0
 1554 032e 3B68     		ldr	r3, [r7]
 1555 0330 5B68     		ldr	r3, [r3, #4]
 1556 0332 9B88     		ldrh	r3, [r3, #4]
 1557 0334 072B     		cmp	r3, #7
 1558 0336 65D1     		bne	.L89
 478:cgmss.c       ****                                     if(CYBLE_CGMS_RACP_OPD_1 == racpOperand[0u])
 1559              		.loc 1 478 0
 1560 0338 3B68     		ldr	r3, [r7]
 1561 033a 5B68     		ldr	r3, [r3, #4]
 1562 033c 1B68     		ldr	r3, [r3]
 1563 033e 9A78     		ldrb	r2, [r3, #2]
 1564 0340 2A4B     		ldr	r3, .L137+104
 1565 0342 1A70     		strb	r2, [r3]
 479:cgmss.c       ****                                     {
 1566              		.loc 1 479 0
 1567 0344 294B     		ldr	r3, .L137+104
 1568 0346 1B78     		ldrb	r3, [r3]
 1569 0348 012B     		cmp	r3, #1
 1570 034a 16D1     		bne	.L90
 481:cgmss.c       ****                                         racpOperand[2] = ((CYBLE_CGMS_CHAR_VALUE_T *)eventParam)->v
ARM GAS  C:\Users\cypress\AppData\Local\Temp\ccgxY6Ea.s 			page 49


 1571              		.loc 1 481 0
 1572 034c 3B68     		ldr	r3, [r7]
 1573 034e 5B68     		ldr	r3, [r3, #4]
 1574 0350 1B68     		ldr	r3, [r3]
 1575 0352 DA78     		ldrb	r2, [r3, #3]
 1576 0354 254B     		ldr	r3, .L137+104
 1577 0356 5A70     		strb	r2, [r3, #1]
 482:cgmss.c       ****                                         DBG_PRINTF("Time Offsets: %x, %x \r\n", racpOperand[1u], ra
 1578              		.loc 1 482 0
 1579 0358 3B68     		ldr	r3, [r7]
 1580 035a 5B68     		ldr	r3, [r3, #4]
 1581 035c 1B68     		ldr	r3, [r3]
 1582 035e 5A79     		ldrb	r2, [r3, #5]
 1583 0360 224B     		ldr	r3, .L137+104
 1584 0362 9A70     		strb	r2, [r3, #2]
 483:cgmss.c       ****                                     }
 1585              		.loc 1 483 0
 1586 0364 214B     		ldr	r3, .L137+104
 1587 0366 5B78     		ldrb	r3, [r3, #1]
 1588 0368 1900     		movs	r1, r3
 1589 036a 204B     		ldr	r3, .L137+104
 1590 036c 9B78     		ldrb	r3, [r3, #2]
 1591 036e 1A00     		movs	r2, r3
 1592 0370 234B     		ldr	r3, .L137+124
 1593 0372 1800     		movs	r0, r3
 1594 0374 FFF7FEFF 		bl	printf
 495:cgmss.c       ****                         
 1595              		.loc 1 495 0
 1596 0378 52E0     		b	.L79
 1597              	.L90:
 487:cgmss.c       ****                                     }
 1598              		.loc 1 487 0
 1599 037a 114B     		ldr	r3, .L137+60
 1600 037c 1800     		movs	r0, r3
 1601 037e FFF7FEFF 		bl	puts
 495:cgmss.c       ****                         
 1602              		.loc 1 495 0
 1603 0382 4DE0     		b	.L79
 1604              	.L138:
 1605              		.align	2
 1606              	.L137:
 1607 0384 E8090000 		.word	.L46
 1608 0388 30010000 		.word	.LC35
 1609 038c 00000000 		.word	i
 1610 0390 40010000 		.word	.LC38
 1611 0394 48010000 		.word	.LC40
 1612 0398 00000000 		.word	sstm
 1613 039c 00000000 		.word	timeZone
 1614 03a0 4C010000 		.word	.LC44
 1615 03a4 00000000 		.word	cgmsFlag
 1616 03a8 5C010000 		.word	.LC47
 1617 03ac 00000000 		.word	racpOpCode
 1618 03b0 68010000 		.word	.LC50
 1619 03b4 80010000 		.word	.LC52
 1620 03b8 98010000 		.word	.LC54
 1621 03bc AC010000 		.word	.LC56
 1622 03c0 D0010000 		.word	.LC58
ARM GAS  C:\Users\cypress\AppData\Local\Temp\ccgxY6Ea.s 			page 50


 1623 03c4 DC010000 		.word	.LC60
 1624 03c8 00000000 		.word	racpOperator
 1625 03cc 00000000 		.word	attr
 1626 03d0 000A0000 		.word	.L72
 1627 03d4 E8010000 		.word	.LC65
 1628 03d8 F0010000 		.word	.LC67
 1629 03dc 00020000 		.word	.LC69
 1630 03e0 10020000 		.word	.LC71
 1631 03e4 20020000 		.word	.LC73
 1632 03e8 38020000 		.word	.LC75
 1633 03ec 00000000 		.word	racpOperand
 1634 03f0 44020000 		.word	.LC78
 1635 03f4 58020000 		.word	.LC80
 1636 03f8 64020000 		.word	.LC82
 1637 03fc 80020000 		.word	.LC84
 1638 0400 A0020000 		.word	.LC86
 1639              	.L89:
 492:cgmss.c       ****                                     DBG_PRINTF("Invalid \r\n");
 1640              		.loc 1 492 0
 1641 0404 EB4B     		ldr	r3, .L139
 1642 0406 0522     		movs	r2, #5
 1643 0408 DA70     		strb	r2, [r3, #3]
 493:cgmss.c       ****                                 }
 1644              		.loc 1 493 0
 1645 040a EB4B     		ldr	r3, .L139+4
 1646 040c 1800     		movs	r0, r3
 1647 040e FFF7FEFF 		bl	puts
 495:cgmss.c       ****                         
 1648              		.loc 1 495 0
 1649 0412 05E0     		b	.L79
 1650              	.L70:
 498:cgmss.c       ****                                 break;
 1651              		.loc 1 498 0
 1652 0414 E94B     		ldr	r3, .L139+8
 1653 0416 1800     		movs	r0, r3
 1654 0418 FFF7FEFF 		bl	puts
 499:cgmss.c       ****                         }
 1655              		.loc 1 499 0
 1656 041c 00E0     		b	.L79
 1657              	.L135:
 425:cgmss.c       ****                             
 1658              		.loc 1 425 0
 1659 041e C046     		nop
 1660              	.L79:
 501:cgmss.c       ****                         
 1661              		.loc 1 501 0 discriminator 7
 1662 0420 91E3     		b	.L62
 1663              	.L56:
 505:cgmss.c       ****                         socp[2u] = CYBLE_CGMS_SOCP_RSP_SUCCESS;
 1664              		.loc 1 505 0
 1665 0422 3B68     		ldr	r3, [r7]
 1666 0424 5B68     		ldr	r3, [r3, #4]
 1667 0426 1B68     		ldr	r3, [r3]
 1668 0428 1A78     		ldrb	r2, [r3]
 1669 042a E54B     		ldr	r3, .L139+12
 1670 042c 1A70     		strb	r2, [r3]
 506:cgmss.c       ****                         
ARM GAS  C:\Users\cypress\AppData\Local\Temp\ccgxY6Ea.s 			page 51


 1671              		.loc 1 506 0
 1672 042e E54B     		ldr	r3, .L139+16
 1673 0430 0122     		movs	r2, #1
 1674 0432 9A70     		strb	r2, [r3, #2]
 508:cgmss.c       ****                         {
 1675              		.loc 1 508 0
 1676 0434 E24B     		ldr	r3, .L139+12
 1677 0436 1B78     		ldrb	r3, [r3]
 1678 0438 1B2B     		cmp	r3, #27
 1679 043a 18D8     		bhi	.L93
 1680 043c 9A00     		lsls	r2, r3, #2
 1681 043e E24B     		ldr	r3, .L139+20
 1682 0440 D318     		adds	r3, r2, r3
 1683 0442 1B68     		ldr	r3, [r3]
 1684 0444 9F46     		mov	pc, r3
 1685              		.section	.rodata
 1686              		.align	2
 1687              	.L95:
 1688 0a1c 6E040000 		.word	.L93
 1689 0a20 50040000 		.word	.L94
 1690 0a24 6E040000 		.word	.L93
 1691 0a28 6E040000 		.word	.L93
 1692 0a2c 64040000 		.word	.L96
 1693 0a30 6E040000 		.word	.L93
 1694 0a34 6E040000 		.word	.L93
 1695 0a38 5A040000 		.word	.L97
 1696 0a3c 6E040000 		.word	.L93
 1697 0a40 6E040000 		.word	.L93
 1698 0a44 5A040000 		.word	.L97
 1699 0a48 6E040000 		.word	.L93
 1700 0a4c 6E040000 		.word	.L93
 1701 0a50 5A040000 		.word	.L97
 1702 0a54 6E040000 		.word	.L93
 1703 0a58 6E040000 		.word	.L93
 1704 0a5c 5A040000 		.word	.L97
 1705 0a60 6E040000 		.word	.L93
 1706 0a64 6E040000 		.word	.L93
 1707 0a68 5A040000 		.word	.L97
 1708 0a6c 6E040000 		.word	.L93
 1709 0a70 6E040000 		.word	.L93
 1710 0a74 5A040000 		.word	.L97
 1711 0a78 6E040000 		.word	.L93
 1712 0a7c 6E040000 		.word	.L93
 1713 0a80 6E040000 		.word	.L93
 1714 0a84 46040000 		.word	.L98
 1715 0a88 46040000 		.word	.L98
 1716              		.section	.text.CgmsCallBack
 1717              	.L98:
 512:cgmss.c       ****                                 break;
 1718              		.loc 1 512 0
 1719 0446 0E23     		movs	r3, #14
 1720 0448 FB18     		adds	r3, r7, r3
 1721 044a 0122     		movs	r2, #1
 1722 044c 1A80     		strh	r2, [r3]
 513:cgmss.c       ****                             
 1723              		.loc 1 513 0
 1724 044e 12E0     		b	.L99
ARM GAS  C:\Users\cypress\AppData\Local\Temp\ccgxY6Ea.s 			page 52


 1725              	.L94:
 516:cgmss.c       ****                                 break;
 1726              		.loc 1 516 0
 1727 0450 0E23     		movs	r3, #14
 1728 0452 FB18     		adds	r3, r7, r3
 1729 0454 0222     		movs	r2, #2
 1730 0456 1A80     		strh	r2, [r3]
 517:cgmss.c       ****                             
 1731              		.loc 1 517 0
 1732 0458 0DE0     		b	.L99
 1733              	.L97:
 525:cgmss.c       ****                                 break;
 1734              		.loc 1 525 0
 1735 045a 0E23     		movs	r3, #14
 1736 045c FB18     		adds	r3, r7, r3
 1737 045e 0322     		movs	r2, #3
 1738 0460 1A80     		strh	r2, [r3]
 526:cgmss.c       ****                             
 1739              		.loc 1 526 0
 1740 0462 08E0     		b	.L99
 1741              	.L96:
 529:cgmss.c       ****                                 break;
 1742              		.loc 1 529 0
 1743 0464 0E23     		movs	r3, #14
 1744 0466 FB18     		adds	r3, r7, r3
 1745 0468 0B22     		movs	r2, #11
 1746 046a 1A80     		strh	r2, [r3]
 530:cgmss.c       ****                             
 1747              		.loc 1 530 0
 1748 046c 03E0     		b	.L99
 1749              	.L93:
 533:cgmss.c       ****                                 break;
 1750              		.loc 1 533 0
 1751 046e D54B     		ldr	r3, .L139+16
 1752 0470 0222     		movs	r2, #2
 1753 0472 9A70     		strb	r2, [r3, #2]
 534:cgmss.c       ****                         }
 1754              		.loc 1 534 0
 1755 0474 C046     		nop
 1756              	.L99:
 537:cgmss.c       ****                         {
 1757              		.loc 1 537 0
 1758 0476 D34B     		ldr	r3, .L139+16
 1759 0478 9B78     		ldrb	r3, [r3, #2]
 1760 047a 012B     		cmp	r3, #1
 1761 047c 0CD1     		bne	.L100
 539:cgmss.c       ****                         }
 1762              		.loc 1 539 0
 1763 047e 3B68     		ldr	r3, [r7]
 1764 0480 5A68     		ldr	r2, [r3, #4]
 1765 0482 0D23     		movs	r3, #13
 1766 0484 FC18     		adds	r4, r7, r3
 1767 0486 0E23     		movs	r3, #14
 1768 0488 FB18     		adds	r3, r7, r3
 1769 048a 1B88     		ldrh	r3, [r3]
 1770 048c 1100     		movs	r1, r2
 1771 048e 1800     		movs	r0, r3
ARM GAS  C:\Users\cypress\AppData\Local\Temp\ccgxY6Ea.s 			page 53


 1772 0490 FFF7FEFF 		bl	CgmsCrcCheck
 1773 0494 0300     		movs	r3, r0
 1774 0496 2370     		strb	r3, [r4]
 1775              	.L100:
 542:cgmss.c       ****                         {
 1776              		.loc 1 542 0
 1777 0498 0D23     		movs	r3, #13
 1778 049a FB18     		adds	r3, r7, r3
 1779 049c 1B78     		ldrb	r3, [r3]
 1780 049e 002B     		cmp	r3, #0
 1781 04a0 00D0     		beq	.LCB1170
 1782 04a2 4FE3     		b	.L136	@long jump
 1783              	.LCB1170:
 544:cgmss.c       ****                             DBG_PRINTF("Opcode: ");
 1784              		.loc 1 544 0
 1785 04a4 C94B     		ldr	r3, .L139+24
 1786 04a6 1B78     		ldrb	r3, [r3]
 1787 04a8 0122     		movs	r2, #1
 1788 04aa 1343     		orrs	r3, r2
 1789 04ac DAB2     		uxtb	r2, r3
 1790 04ae C74B     		ldr	r3, .L139+24
 1791 04b0 1A70     		strb	r2, [r3]
 545:cgmss.c       ****                             
 1792              		.loc 1 545 0
 1793 04b2 C74B     		ldr	r3, .L139+28
 1794 04b4 1800     		movs	r0, r3
 1795 04b6 FFF7FEFF 		bl	printf
 547:cgmss.c       ****                             {
 1796              		.loc 1 547 0
 1797 04ba C14B     		ldr	r3, .L139+12
 1798 04bc 1B78     		ldrb	r3, [r3]
 1799 04be 1B2B     		cmp	r3, #27
 1800 04c0 00D9     		bls	.LCB1184
 1801 04c2 37E3     		b	.L102	@long jump
 1802              	.LCB1184:
 1803 04c4 9A00     		lsls	r2, r3, #2
 1804 04c6 C34B     		ldr	r3, .L139+32
 1805 04c8 D318     		adds	r3, r2, r3
 1806 04ca 1B68     		ldr	r3, [r3]
 1807 04cc 9F46     		mov	pc, r3
 1808              		.section	.rodata
 1809              		.align	2
 1810              	.L104:
 1811 0a8c 340B0000 		.word	.L102
 1812 0a90 F6040000 		.word	.L103
 1813 0a94 CE040000 		.word	.L105
 1814 0a98 340B0000 		.word	.L102
 1815 0a9c 22050000 		.word	.L106
 1816 0aa0 CE050000 		.word	.L107
 1817 0aa4 340B0000 		.word	.L102
 1818 0aa8 0C070000 		.word	.L108
 1819 0aac DE060000 		.word	.L109
 1820 0ab0 340B0000 		.word	.L102
 1821 0ab4 76070000 		.word	.L110
 1822 0ab8 48070000 		.word	.L111
 1823 0abc 340B0000 		.word	.L102
 1824 0ac0 A2080000 		.word	.L112
ARM GAS  C:\Users\cypress\AppData\Local\Temp\ccgxY6Ea.s 			page 54


 1825 0ac4 74080000 		.word	.L113
 1826 0ac8 340B0000 		.word	.L102
 1827 0acc 0C090000 		.word	.L114
 1828 0ad0 DE080000 		.word	.L115
 1829 0ad4 340B0000 		.word	.L102
 1830 0ad8 76090000 		.word	.L116
 1831 0adc 48090000 		.word	.L117
 1832 0ae0 340B0000 		.word	.L102
 1833 0ae4 E0090000 		.word	.L118
 1834 0ae8 B2090000 		.word	.L119
 1835 0aec 340B0000 		.word	.L102
 1836 0af0 1C0A0000 		.word	.L120
 1837 0af4 2C0A0000 		.word	.L121
 1838 0af8 BA0A0000 		.word	.L122
 1839              		.section	.text.CgmsCallBack
 1840              	.L105:
 550:cgmss.c       ****                                     DBG_PRINTF("Response: Communication Interval: 0x%2.2x\r\n", com
 1841              		.loc 1 550 0
 1842 04ce C24B     		ldr	r3, .L139+36
 1843 04d0 1800     		movs	r0, r3
 1844 04d2 FFF7FEFF 		bl	puts
 551:cgmss.c       ****                                     socp[0u] = CYBLE_CGMS_SOCP_OPC_RINT;
 1845              		.loc 1 551 0
 1846 04d6 C14B     		ldr	r3, .L139+40
 1847 04d8 1B78     		ldrb	r3, [r3]
 1848 04da 1A00     		movs	r2, r3
 1849 04dc C04B     		ldr	r3, .L139+44
 1850 04de 1100     		movs	r1, r2
 1851 04e0 1800     		movs	r0, r3
 1852 04e2 FFF7FEFF 		bl	printf
 552:cgmss.c       ****                                     socp[1u] = commInterval;
 1853              		.loc 1 552 0
 1854 04e6 B74B     		ldr	r3, .L139+16
 1855 04e8 0322     		movs	r2, #3
 1856 04ea 1A70     		strb	r2, [r3]
 553:cgmss.c       ****                                     break;
 1857              		.loc 1 553 0
 1858 04ec BB4B     		ldr	r3, .L139+40
 1859 04ee 1A78     		ldrb	r2, [r3]
 1860 04f0 B44B     		ldr	r3, .L139+16
 1861 04f2 5A70     		strb	r2, [r3, #1]
 554:cgmss.c       ****                                     
 1862              		.loc 1 554 0
 1863 04f4 23E3     		b	.L101
 1864              	.L103:
 557:cgmss.c       ****                                     commInterval = ((CYBLE_CGMS_CHAR_VALUE_T *)eventParam)->value->
 1865              		.loc 1 557 0
 1866 04f6 BB4B     		ldr	r3, .L139+48
 1867 04f8 1800     		movs	r0, r3
 1868 04fa FFF7FEFF 		bl	puts
 558:cgmss.c       ****                                     DBG_PRINTF("Operand: 0x%2.2x \r\n", commInterval);
 1869              		.loc 1 558 0
 1870 04fe 3B68     		ldr	r3, [r7]
 1871 0500 5B68     		ldr	r3, [r3, #4]
 1872 0502 1B68     		ldr	r3, [r3]
 1873 0504 5A78     		ldrb	r2, [r3, #1]
 1874 0506 B54B     		ldr	r3, .L139+40
ARM GAS  C:\Users\cypress\AppData\Local\Temp\ccgxY6Ea.s 			page 55


 1875 0508 1A70     		strb	r2, [r3]
 559:cgmss.c       ****                                     socp[1u] = CYBLE_CGMS_SOCP_OPC_SINT;
 1876              		.loc 1 559 0
 1877 050a B44B     		ldr	r3, .L139+40
 1878 050c 1B78     		ldrb	r3, [r3]
 1879 050e 1A00     		movs	r2, r3
 1880 0510 B54B     		ldr	r3, .L139+52
 1881 0512 1100     		movs	r1, r2
 1882 0514 1800     		movs	r0, r3
 1883 0516 FFF7FEFF 		bl	printf
 560:cgmss.c       ****                                     break;
 1884              		.loc 1 560 0
 1885 051a AA4B     		ldr	r3, .L139+16
 1886 051c 0122     		movs	r2, #1
 1887 051e 5A70     		strb	r2, [r3, #1]
 561:cgmss.c       ****                                     
 1888              		.loc 1 561 0
 1889 0520 0DE3     		b	.L101
 1890              	.L106:
 564:cgmss.c       ****                                     socp[1u] = CYBLE_CGMS_SOCP_OPC_SGCV;
 1891              		.loc 1 564 0
 1892 0522 B24B     		ldr	r3, .L139+56
 1893 0524 1800     		movs	r0, r3
 1894 0526 FFF7FEFF 		bl	puts
 565:cgmss.c       ****                                     DBG_PRINTF("Operand:\r\n Glucose Concentration 0x%4.4x\r\n",
 1895              		.loc 1 565 0
 1896 052a A64B     		ldr	r3, .L139+16
 1897 052c 0422     		movs	r2, #4
 1898 052e 5A70     		strb	r2, [r3, #1]
 566:cgmss.c       ****                                         CyBle_Get16ByPtr(&((CYBLE_CGMS_CHAR_VALUE_T *)eventParam)->
 1899              		.loc 1 566 0
 1900 0530 3B68     		ldr	r3, [r7]
 1901 0532 5B68     		ldr	r3, [r3, #4]
 1902 0534 1B68     		ldr	r3, [r3]
 1903 0536 0133     		adds	r3, r3, #1
 1904 0538 1800     		movs	r0, r3
 1905 053a FFF7FEFF 		bl	CyBle_Get16ByPtr
 1906 053e 0300     		movs	r3, r0
 1907 0540 1A00     		movs	r2, r3
 1908 0542 AB4B     		ldr	r3, .L139+60
 1909 0544 1100     		movs	r1, r2
 1910 0546 1800     		movs	r0, r3
 1911 0548 FFF7FEFF 		bl	printf
 568:cgmss.c       ****                                         CyBle_Get16ByPtr(&((CYBLE_CGMS_CHAR_VALUE_T *)eventParam)->
 1912              		.loc 1 568 0
 1913 054c 3B68     		ldr	r3, [r7]
 1914 054e 5B68     		ldr	r3, [r3, #4]
 1915 0550 1B68     		ldr	r3, [r3]
 1916 0552 0333     		adds	r3, r3, #3
 1917 0554 1800     		movs	r0, r3
 1918 0556 FFF7FEFF 		bl	CyBle_Get16ByPtr
 1919 055a 0300     		movs	r3, r0
 1920 055c 1A00     		movs	r2, r3
 1921 055e A54B     		ldr	r3, .L139+64
 1922 0560 1100     		movs	r1, r2
 1923 0562 1800     		movs	r0, r3
 1924 0564 FFF7FEFF 		bl	printf
ARM GAS  C:\Users\cypress\AppData\Local\Temp\ccgxY6Ea.s 			page 56


 570:cgmss.c       ****                                     DBG_PRINTF(" Next Calibration 0x%4.4x\r\n",
 1925              		.loc 1 570 0
 1926 0568 3B68     		ldr	r3, [r7]
 1927 056a 5B68     		ldr	r3, [r3, #4]
 1928 056c 1B68     		ldr	r3, [r3]
 1929 056e 0533     		adds	r3, r3, #5
 1930 0570 1B78     		ldrb	r3, [r3]
 1931 0572 1A00     		movs	r2, r3
 1932 0574 A04B     		ldr	r3, .L139+68
 1933 0576 1100     		movs	r1, r2
 1934 0578 1800     		movs	r0, r3
 1935 057a FFF7FEFF 		bl	printf
 571:cgmss.c       ****                                         CyBle_Get16ByPtr(&((CYBLE_CGMS_CHAR_VALUE_T *)eventParam)->
 1936              		.loc 1 571 0
 1937 057e 3B68     		ldr	r3, [r7]
 1938 0580 5B68     		ldr	r3, [r3, #4]
 1939 0582 1B68     		ldr	r3, [r3]
 1940 0584 0633     		adds	r3, r3, #6
 1941 0586 1800     		movs	r0, r3
 1942 0588 FFF7FEFF 		bl	CyBle_Get16ByPtr
 1943 058c 0300     		movs	r3, r0
 1944 058e 1A00     		movs	r2, r3
 1945 0590 9A4B     		ldr	r3, .L139+72
 1946 0592 1100     		movs	r1, r2
 1947 0594 1800     		movs	r0, r3
 1948 0596 FFF7FEFF 		bl	printf
 573:cgmss.c       ****                                         CyBle_Get16ByPtr(&((CYBLE_CGMS_CHAR_VALUE_T *)eventParam)->
 1949              		.loc 1 573 0
 1950 059a 3B68     		ldr	r3, [r7]
 1951 059c 5B68     		ldr	r3, [r3, #4]
 1952 059e 1B68     		ldr	r3, [r3]
 1953 05a0 0833     		adds	r3, r3, #8
 1954 05a2 1800     		movs	r0, r3
 1955 05a4 FFF7FEFF 		bl	CyBle_Get16ByPtr
 1956 05a8 0300     		movs	r3, r0
 1957 05aa 1A00     		movs	r2, r3
 1958 05ac 944B     		ldr	r3, .L139+76
 1959 05ae 1100     		movs	r1, r2
 1960 05b0 1800     		movs	r0, r3
 1961 05b2 FFF7FEFF 		bl	printf
 575:cgmss.c       ****                                     break;
 1962              		.loc 1 575 0
 1963 05b6 3B68     		ldr	r3, [r7]
 1964 05b8 5B68     		ldr	r3, [r3, #4]
 1965 05ba 1B68     		ldr	r3, [r3]
 1966 05bc 0A33     		adds	r3, r3, #10
 1967 05be 1B78     		ldrb	r3, [r3]
 1968 05c0 1A00     		movs	r2, r3
 1969 05c2 904B     		ldr	r3, .L139+80
 1970 05c4 1100     		movs	r1, r2
 1971 05c6 1800     		movs	r0, r3
 1972 05c8 FFF7FEFF 		bl	printf
 576:cgmss.c       ****                                     
 1973              		.loc 1 576 0
 1974 05cc B7E2     		b	.L101
 1975              	.L107:
 579:cgmss.c       ****                                     DBG_PRINTF("Operand: Calibration Data Record Number: 0x%4.4x \r
ARM GAS  C:\Users\cypress\AppData\Local\Temp\ccgxY6Ea.s 			page 57


 1976              		.loc 1 579 0
 1977 05ce 8E4B     		ldr	r3, .L139+84
 1978 05d0 1800     		movs	r0, r3
 1979 05d2 FFF7FEFF 		bl	puts
 580:cgmss.c       ****                                             CyBle_Get16ByPtr(&((CYBLE_CGMS_CHAR_VALUE_T *)eventPara
 1980              		.loc 1 580 0
 1981 05d6 3B68     		ldr	r3, [r7]
 1982 05d8 5B68     		ldr	r3, [r3, #4]
 1983 05da 1B68     		ldr	r3, [r3]
 1984 05dc 0133     		adds	r3, r3, #1
 1985 05de 1800     		movs	r0, r3
 1986 05e0 FFF7FEFF 		bl	CyBle_Get16ByPtr
 1987 05e4 0300     		movs	r3, r0
 1988 05e6 1A00     		movs	r2, r3
 1989 05e8 884B     		ldr	r3, .L139+88
 1990 05ea 1100     		movs	r1, r2
 1991 05ec 1800     		movs	r0, r3
 1992 05ee FFF7FEFF 		bl	printf
 582:cgmss.c       ****                                     {
 1993              		.loc 1 582 0
 1994 05f2 3B68     		ldr	r3, [r7]
 1995 05f4 5B68     		ldr	r3, [r3, #4]
 1996 05f6 1B68     		ldr	r3, [r3]
 1997 05f8 0133     		adds	r3, r3, #1
 1998 05fa 1800     		movs	r0, r3
 1999 05fc FFF7FEFF 		bl	CyBle_Get16ByPtr
 2000 0600 0300     		movs	r3, r0
 2001 0602 1A00     		movs	r2, r3
 2002 0604 824B     		ldr	r3, .L139+92
 2003 0606 9A42     		cmp	r2, r3
 2004 0608 0CD1     		bne	.L123
 584:cgmss.c       ****                                         socp[1u] = CYBLE_CGMS_SOCP_OPC_GGCV;
 2005              		.loc 1 584 0
 2006 060a 6E4B     		ldr	r3, .L139+16
 2007 060c 1C22     		movs	r2, #28
 2008 060e 1A70     		strb	r2, [r3]
 585:cgmss.c       ****                                         socp[2u] = CYBLE_CGMS_SOCP_RSP_POOR;
 2009              		.loc 1 585 0
 2010 0610 6C4B     		ldr	r3, .L139+16
 2011 0612 0522     		movs	r2, #5
 2012 0614 5A70     		strb	r2, [r3, #1]
 586:cgmss.c       ****                                         socpLength = 3u;
 2013              		.loc 1 586 0
 2014 0616 6B4B     		ldr	r3, .L139+16
 2015 0618 0522     		movs	r2, #5
 2016 061a 9A70     		strb	r2, [r3, #2]
 587:cgmss.c       ****                                     }
 2017              		.loc 1 587 0
 2018 061c 7D4B     		ldr	r3, .L139+96
 2019 061e 0322     		movs	r2, #3
 2020 0620 1A70     		strb	r2, [r3]
 616:cgmss.c       ****                                     
 2021              		.loc 1 616 0
 2022 0622 8CE2     		b	.L101
 2023              	.L123:
 592:cgmss.c       ****                                         {
 2024              		.loc 1 592 0
ARM GAS  C:\Users\cypress\AppData\Local\Temp\ccgxY6Ea.s 			page 58


 2025 0624 3B68     		ldr	r3, [r7]
 2026 0626 5B68     		ldr	r3, [r3, #4]
 2027 0628 1B68     		ldr	r3, [r3]
 2028 062a 0133     		adds	r3, r3, #1
 2029 062c 1800     		movs	r0, r3
 2030 062e FFF7FEFF 		bl	CyBle_Get16ByPtr
 2031 0632 0300     		movs	r3, r0
 2032 0634 1A00     		movs	r2, r3
 2033 0636 784B     		ldr	r3, .L139+100
 2034 0638 9A42     		cmp	r2, r3
 2035 063a 06D1     		bne	.L125
 594:cgmss.c       ****                                         }
 2036              		.loc 1 594 0
 2037 063c 774B     		ldr	r3, .L139+104
 2038 063e 1B88     		ldrh	r3, [r3]
 2039 0640 0133     		adds	r3, r3, #1
 2040 0642 9AB2     		uxth	r2, r3
 2041 0644 754B     		ldr	r3, .L139+104
 2042 0646 1A80     		strh	r2, [r3]
 2043 0648 0AE0     		b	.L126
 2044              	.L125:
 598:cgmss.c       ****                                         }
 2045              		.loc 1 598 0
 2046 064a 3B68     		ldr	r3, [r7]
 2047 064c 5B68     		ldr	r3, [r3, #4]
 2048 064e 1B68     		ldr	r3, [r3]
 2049 0650 0133     		adds	r3, r3, #1
 2050 0652 1800     		movs	r0, r3
 2051 0654 FFF7FEFF 		bl	CyBle_Get16ByPtr
 2052 0658 0300     		movs	r3, r0
 2053 065a 1A00     		movs	r2, r3
 2054 065c 6F4B     		ldr	r3, .L139+104
 2055 065e 1A80     		strh	r2, [r3]
 2056              	.L126:
 601:cgmss.c       ****                                         DBG_PRINTF("Response:\r\n Glucose Concentration 0x004e(78mg
 2057              		.loc 1 601 0
 2058 0660 584B     		ldr	r3, .L139+16
 2059 0662 0622     		movs	r2, #6
 2060 0664 1A70     		strb	r2, [r3]
 602:cgmss.c       ****                                         CyBle_Set16ByPtr(&socp[1u], 0x004eu);
 2061              		.loc 1 602 0
 2062 0666 6E4B     		ldr	r3, .L139+108
 2063 0668 1800     		movs	r0, r3
 2064 066a FFF7FEFF 		bl	puts
 603:cgmss.c       ****                                         DBG_PRINTF(" Calibration Time 0x0005 (5 minutes)\r\n");
 2065              		.loc 1 603 0
 2066 066e 6D4B     		ldr	r3, .L139+112
 2067 0670 4E21     		movs	r1, #78
 2068 0672 1800     		movs	r0, r3
 2069 0674 FFF7FEFF 		bl	CyBle_Set16ByPtr
 604:cgmss.c       ****                                         CyBle_Set16ByPtr(&socp[3u], 0x0005u);
 2070              		.loc 1 604 0
 2071 0678 6B4B     		ldr	r3, .L139+116
 2072 067a 1800     		movs	r0, r3
 2073 067c FFF7FEFF 		bl	puts
 605:cgmss.c       ****                                         DBG_PRINTF(" Sample Location 0x06\r\n");
 2074              		.loc 1 605 0
ARM GAS  C:\Users\cypress\AppData\Local\Temp\ccgxY6Ea.s 			page 59


 2075 0680 6A4B     		ldr	r3, .L139+120
 2076 0682 0521     		movs	r1, #5
 2077 0684 1800     		movs	r0, r3
 2078 0686 FFF7FEFF 		bl	CyBle_Set16ByPtr
 606:cgmss.c       ****                                         socp[5] = 0x06u;
 2079              		.loc 1 606 0
 2080 068a 694B     		ldr	r3, .L139+124
 2081 068c 1800     		movs	r0, r3
 2082 068e FFF7FEFF 		bl	puts
 607:cgmss.c       ****                                         DBG_PRINTF(" Next Calibration 0x0005 (5 minutes)\r\n");
 2083              		.loc 1 607 0
 2084 0692 4C4B     		ldr	r3, .L139+16
 2085 0694 0622     		movs	r2, #6
 2086 0696 5A71     		strb	r2, [r3, #5]
 608:cgmss.c       ****                                         CyBle_Set16ByPtr(&socp[6u], 0x0005u);
 2087              		.loc 1 608 0
 2088 0698 664B     		ldr	r3, .L139+128
 2089 069a 1800     		movs	r0, r3
 2090 069c FFF7FEFF 		bl	puts
 609:cgmss.c       ****                                         DBG_PRINTF(" Calibration Data Record Number 0x%4.4x \r\n", 
 2091              		.loc 1 609 0
 2092 06a0 654B     		ldr	r3, .L139+132
 2093 06a2 0521     		movs	r1, #5
 2094 06a4 1800     		movs	r0, r3
 2095 06a6 FFF7FEFF 		bl	CyBle_Set16ByPtr
 610:cgmss.c       ****                                         CyBle_Set16ByPtr(&socp[8u], socpRecNum);
 2096              		.loc 1 610 0
 2097 06aa 5C4B     		ldr	r3, .L139+104
 2098 06ac 1B88     		ldrh	r3, [r3]
 2099 06ae 1A00     		movs	r2, r3
 2100 06b0 624B     		ldr	r3, .L139+136
 2101 06b2 1100     		movs	r1, r2
 2102 06b4 1800     		movs	r0, r3
 2103 06b6 FFF7FEFF 		bl	printf
 611:cgmss.c       ****                                         DBG_PRINTF(" Calibration Status 0x00\r\n");
 2104              		.loc 1 611 0
 2105 06ba 584B     		ldr	r3, .L139+104
 2106 06bc 1A88     		ldrh	r2, [r3]
 2107 06be 604B     		ldr	r3, .L139+140
 2108 06c0 1100     		movs	r1, r2
 2109 06c2 1800     		movs	r0, r3
 2110 06c4 FFF7FEFF 		bl	CyBle_Set16ByPtr
 612:cgmss.c       ****                                         socp[10u] = 0x00u;
 2111              		.loc 1 612 0
 2112 06c8 5E4B     		ldr	r3, .L139+144
 2113 06ca 1800     		movs	r0, r3
 2114 06cc FFF7FEFF 		bl	puts
 613:cgmss.c       ****                                         socpLength = 11u;
 2115              		.loc 1 613 0
 2116 06d0 3C4B     		ldr	r3, .L139+16
 2117 06d2 0022     		movs	r2, #0
 2118 06d4 9A72     		strb	r2, [r3, #10]
 614:cgmss.c       ****                                     }
 2119              		.loc 1 614 0
 2120 06d6 4F4B     		ldr	r3, .L139+96
 2121 06d8 0B22     		movs	r2, #11
 2122 06da 1A70     		strb	r2, [r3]
ARM GAS  C:\Users\cypress\AppData\Local\Temp\ccgxY6Ea.s 			page 60


 616:cgmss.c       ****                                     
 2123              		.loc 1 616 0
 2124 06dc 2FE2     		b	.L101
 2125              	.L109:
 619:cgmss.c       ****                                     DBG_PRINTF("Response: Patient High Alert Level: 0x%4.4x\r\n", a
 2126              		.loc 1 619 0
 2127 06de 5A4B     		ldr	r3, .L139+148
 2128 06e0 1800     		movs	r0, r3
 2129 06e2 FFF7FEFF 		bl	puts
 620:cgmss.c       ****                                     socp[0u] = CYBLE_CGMS_SOCP_OPC_RHAL;
 2130              		.loc 1 620 0
 2131 06e6 594B     		ldr	r3, .L139+152
 2132 06e8 1B88     		ldrh	r3, [r3]
 2133 06ea 1A00     		movs	r2, r3
 2134 06ec 584B     		ldr	r3, .L139+156
 2135 06ee 1100     		movs	r1, r2
 2136 06f0 1800     		movs	r0, r3
 2137 06f2 FFF7FEFF 		bl	printf
 621:cgmss.c       ****                                     CyBle_Set16ByPtr(&socp[1u], alrt.hal);
 2138              		.loc 1 621 0
 2139 06f6 334B     		ldr	r3, .L139+16
 2140 06f8 0922     		movs	r2, #9
 2141 06fa 1A70     		strb	r2, [r3]
 622:cgmss.c       ****                                     break;
 2142              		.loc 1 622 0
 2143 06fc 534B     		ldr	r3, .L139+152
 2144 06fe 1A88     		ldrh	r2, [r3]
 2145 0700 484B     		ldr	r3, .L139+112
 2146 0702 1100     		movs	r1, r2
 2147 0704 1800     		movs	r0, r3
 2148 0706 FFF7FEFF 		bl	CyBle_Set16ByPtr
 623:cgmss.c       ****                                     
 2149              		.loc 1 623 0
 2150 070a 18E2     		b	.L101
 2151              	.L108:
 626:cgmss.c       ****                                     socpOpd = CyBle_Get16ByPtr(&((CYBLE_CGMS_CHAR_VALUE_T *)eventPa
 2152              		.loc 1 626 0
 2153 070c 514B     		ldr	r3, .L139+160
 2154 070e 1800     		movs	r0, r3
 2155 0710 FFF7FEFF 		bl	puts
 627:cgmss.c       ****                                     socpOpdPtr = &alrt.hal;
 2156              		.loc 1 627 0
 2157 0714 3B68     		ldr	r3, [r7]
 2158 0716 5B68     		ldr	r3, [r3, #4]
 2159 0718 1B68     		ldr	r3, [r3]
 2160 071a 0133     		adds	r3, r3, #1
 2161 071c 1800     		movs	r0, r3
 2162 071e FFF7FEFF 		bl	CyBle_Get16ByPtr
 2163 0722 0300     		movs	r3, r0
 2164 0724 1A00     		movs	r2, r3
 2165 0726 4C4B     		ldr	r3, .L139+164
 2166 0728 1A80     		strh	r2, [r3]
 628:cgmss.c       ****                                     DBG_PRINTF("Operand: Patient High Alert Level: 0x%4.4x \r\n", s
 2167              		.loc 1 628 0
 2168 072a 4C4B     		ldr	r3, .L139+168
 2169 072c 474A     		ldr	r2, .L139+152
 2170 072e 1A60     		str	r2, [r3]
ARM GAS  C:\Users\cypress\AppData\Local\Temp\ccgxY6Ea.s 			page 61


 629:cgmss.c       ****                                     socp[1u] = CYBLE_CGMS_SOCP_OPC_SHAL;
 2171              		.loc 1 629 0
 2172 0730 494B     		ldr	r3, .L139+164
 2173 0732 1B88     		ldrh	r3, [r3]
 2174 0734 1A00     		movs	r2, r3
 2175 0736 4A4B     		ldr	r3, .L139+172
 2176 0738 1100     		movs	r1, r2
 2177 073a 1800     		movs	r0, r3
 2178 073c FFF7FEFF 		bl	printf
 630:cgmss.c       ****                                     break;
 2179              		.loc 1 630 0
 2180 0740 204B     		ldr	r3, .L139+16
 2181 0742 0722     		movs	r2, #7
 2182 0744 5A70     		strb	r2, [r3, #1]
 631:cgmss.c       ****                                     
 2183              		.loc 1 631 0
 2184 0746 FAE1     		b	.L101
 2185              	.L111:
 634:cgmss.c       ****                                     DBG_PRINTF("Response: Patient High Alert Level: 0x%4.4x\r\n", a
 2186              		.loc 1 634 0
 2187 0748 464B     		ldr	r3, .L139+176
 2188 074a 1800     		movs	r0, r3
 2189 074c FFF7FEFF 		bl	puts
 635:cgmss.c       ****                                     socp[0u] = CYBLE_CGMS_SOCP_OPC_RLAL;
 2190              		.loc 1 635 0
 2191 0750 3E4B     		ldr	r3, .L139+152
 2192 0752 5B88     		ldrh	r3, [r3, #2]
 2193 0754 1A00     		movs	r2, r3
 2194 0756 3E4B     		ldr	r3, .L139+156
 2195 0758 1100     		movs	r1, r2
 2196 075a 1800     		movs	r0, r3
 2197 075c FFF7FEFF 		bl	printf
 636:cgmss.c       ****                                     CyBle_Set16ByPtr(&socp[1u], alrt.lal);
 2198              		.loc 1 636 0
 2199 0760 184B     		ldr	r3, .L139+16
 2200 0762 0C22     		movs	r2, #12
 2201 0764 1A70     		strb	r2, [r3]
 637:cgmss.c       ****                                     break;
 2202              		.loc 1 637 0
 2203 0766 394B     		ldr	r3, .L139+152
 2204 0768 5A88     		ldrh	r2, [r3, #2]
 2205 076a 2E4B     		ldr	r3, .L139+112
 2206 076c 1100     		movs	r1, r2
 2207 076e 1800     		movs	r0, r3
 2208 0770 FFF7FEFF 		bl	CyBle_Set16ByPtr
 638:cgmss.c       ****                                     
 2209              		.loc 1 638 0
 2210 0774 E3E1     		b	.L101
 2211              	.L110:
 641:cgmss.c       ****                                     socpOpd = CyBle_Get16ByPtr(&((CYBLE_CGMS_CHAR_VALUE_T *)eventPa
 2212              		.loc 1 641 0
 2213 0776 3C4B     		ldr	r3, .L139+180
 2214 0778 1800     		movs	r0, r3
 2215 077a FFF7FEFF 		bl	puts
 642:cgmss.c       ****                                     socpOpdPtr = &alrt.lal;
 2216              		.loc 1 642 0
 2217 077e 3B68     		ldr	r3, [r7]
ARM GAS  C:\Users\cypress\AppData\Local\Temp\ccgxY6Ea.s 			page 62


 2218 0780 5B68     		ldr	r3, [r3, #4]
 2219 0782 1B68     		ldr	r3, [r3]
 2220 0784 0133     		adds	r3, r3, #1
 2221 0786 1800     		movs	r0, r3
 2222 0788 FFF7FEFF 		bl	CyBle_Get16ByPtr
 2223 078c 0300     		movs	r3, r0
 2224 078e 1A00     		movs	r2, r3
 2225 0790 314B     		ldr	r3, .L139+164
 2226 0792 1A80     		strh	r2, [r3]
 643:cgmss.c       ****                                     DBG_PRINTF("Operand: Patient Low Alert Level: 0x%4.4x \r\n", so
 2227              		.loc 1 643 0
 2228 0794 314B     		ldr	r3, .L139+168
 2229 0796 354A     		ldr	r2, .L139+184
 2230 0798 1A60     		str	r2, [r3]
 644:cgmss.c       ****                                     socp[1u] = CYBLE_CGMS_SOCP_OPC_SLAL;
 2231              		.loc 1 644 0
 2232 079a 2F4B     		ldr	r3, .L139+164
 2233 079c 1B88     		ldrh	r3, [r3]
 2234 079e 1A00     		movs	r2, r3
 2235 07a0 334B     		ldr	r3, .L139+188
 2236 07a2 1100     		movs	r1, r2
 2237 07a4 1800     		movs	r0, r3
 2238 07a6 FFF7FEFF 		bl	printf
 645:cgmss.c       ****                                     break;
 2239              		.loc 1 645 0
 2240 07aa 064B     		ldr	r3, .L139+16
 2241 07ac 0A22     		movs	r2, #10
 2242 07ae 5A70     		strb	r2, [r3, #1]
 646:cgmss.c       ****                                     
 2243              		.loc 1 646 0
 2244 07b0 C5E1     		b	.L101
 2245              	.L140:
 2246 07b2 C046     		.align	2
 2247              	.L139:
 2248 07b4 00000000 		.word	attr
 2249 07b8 58020000 		.word	.LC80
 2250 07bc D0010000 		.word	.LC58
 2251 07c0 00000000 		.word	socpOpCode
 2252 07c4 00000000 		.word	socp
 2253 07c8 1C0A0000 		.word	.L95
 2254 07cc 00000000 		.word	cgmsFlag
 2255 07d0 5C010000 		.word	.LC47
 2256 07d4 8C0A0000 		.word	.L104
 2257 07d8 B8020000 		.word	.LC92
 2258 07dc 00000000 		.word	commInterval
 2259 07e0 D8020000 		.word	.LC95
 2260 07e4 04030000 		.word	.LC97
 2261 07e8 24030000 		.word	.LC99
 2262 07ec 38030000 		.word	.LC101
 2263 07f0 58030000 		.word	.LC103
 2264 07f4 84030000 		.word	.LC105
 2265 07f8 A0030000 		.word	.LC107
 2266 07fc BC030000 		.word	.LC109
 2267 0800 D8030000 		.word	.LC111
 2268 0804 04040000 		.word	.LC113
 2269 0808 24040000 		.word	.LC115
 2270 080c 44040000 		.word	.LC117
ARM GAS  C:\Users\cypress\AppData\Local\Temp\ccgxY6Ea.s 			page 63


 2271 0810 FEFF0000 		.word	65534
 2272 0814 00000000 		.word	socpLength
 2273 0818 FFFF0000 		.word	65535
 2274 081c 00000000 		.word	socpRecNum
 2275 0820 78040000 		.word	.LC121
 2276 0824 01000000 		.word	socp+1
 2277 0828 AC040000 		.word	.LC124
 2278 082c 03000000 		.word	socp+3
 2279 0830 D4040000 		.word	.LC127
 2280 0834 EC040000 		.word	.LC129
 2281 0838 06000000 		.word	socp+6
 2282 083c 14050000 		.word	.LC132
 2283 0840 08000000 		.word	socp+8
 2284 0844 40050000 		.word	.LC135
 2285 0848 5C050000 		.word	.LC137
 2286 084c 00000000 		.word	alrt
 2287 0850 7C050000 		.word	.LC140
 2288 0854 AC050000 		.word	.LC142
 2289 0858 00000000 		.word	socpOpd
 2290 085c 00000000 		.word	socpOpdPtr
 2291 0860 CC050000 		.word	.LC146
 2292 0864 FC050000 		.word	.LC148
 2293 0868 1C060000 		.word	.LC150
 2294 086c 02000000 		.word	alrt+2
 2295 0870 3C060000 		.word	.LC153
 2296              	.L113:
 649:cgmss.c       ****                                     DBG_PRINTF("Response: Hypo Alert Level: 0x%4.4x\r\n", alrt.hpo)
 2297              		.loc 1 649 0
 2298 0874 C94B     		ldr	r3, .L141
 2299 0876 1800     		movs	r0, r3
 2300 0878 FFF7FEFF 		bl	puts
 650:cgmss.c       ****                                     socp[0u] = CYBLE_CGMS_SOCP_OPC_RHPO;
 2301              		.loc 1 650 0
 2302 087c C84B     		ldr	r3, .L141+4
 2303 087e 9B88     		ldrh	r3, [r3, #4]
 2304 0880 1A00     		movs	r2, r3
 2305 0882 C84B     		ldr	r3, .L141+8
 2306 0884 1100     		movs	r1, r2
 2307 0886 1800     		movs	r0, r3
 2308 0888 FFF7FEFF 		bl	printf
 651:cgmss.c       ****                                     CyBle_Set16ByPtr(&socp[1u], alrt.hpo);
 2309              		.loc 1 651 0
 2310 088c C64B     		ldr	r3, .L141+12
 2311 088e 0F22     		movs	r2, #15
 2312 0890 1A70     		strb	r2, [r3]
 652:cgmss.c       ****                                     break;
 2313              		.loc 1 652 0
 2314 0892 C34B     		ldr	r3, .L141+4
 2315 0894 9A88     		ldrh	r2, [r3, #4]
 2316 0896 C54B     		ldr	r3, .L141+16
 2317 0898 1100     		movs	r1, r2
 2318 089a 1800     		movs	r0, r3
 2319 089c FFF7FEFF 		bl	CyBle_Set16ByPtr
 653:cgmss.c       ****                                     
 2320              		.loc 1 653 0
 2321 08a0 4DE1     		b	.L101
 2322              	.L112:
ARM GAS  C:\Users\cypress\AppData\Local\Temp\ccgxY6Ea.s 			page 64


 656:cgmss.c       ****                                     socpOpd = CyBle_Get16ByPtr(&((CYBLE_CGMS_CHAR_VALUE_T *)eventPa
 2323              		.loc 1 656 0
 2324 08a2 C34B     		ldr	r3, .L141+20
 2325 08a4 1800     		movs	r0, r3
 2326 08a6 FFF7FEFF 		bl	puts
 657:cgmss.c       ****                                     socpOpdPtr = &alrt.hpo;
 2327              		.loc 1 657 0
 2328 08aa 3B68     		ldr	r3, [r7]
 2329 08ac 5B68     		ldr	r3, [r3, #4]
 2330 08ae 1B68     		ldr	r3, [r3]
 2331 08b0 0133     		adds	r3, r3, #1
 2332 08b2 1800     		movs	r0, r3
 2333 08b4 FFF7FEFF 		bl	CyBle_Get16ByPtr
 2334 08b8 0300     		movs	r3, r0
 2335 08ba 1A00     		movs	r2, r3
 2336 08bc BD4B     		ldr	r3, .L141+24
 2337 08be 1A80     		strh	r2, [r3]
 658:cgmss.c       ****                                     DBG_PRINTF("Operand: Hypo Alert Level: 0x%4.4x \r\n", socpOpd);
 2338              		.loc 1 658 0
 2339 08c0 BD4B     		ldr	r3, .L141+28
 2340 08c2 BE4A     		ldr	r2, .L141+32
 2341 08c4 1A60     		str	r2, [r3]
 659:cgmss.c       ****                                     socp[1u] = CYBLE_CGMS_SOCP_OPC_SHPO;
 2342              		.loc 1 659 0
 2343 08c6 BB4B     		ldr	r3, .L141+24
 2344 08c8 1B88     		ldrh	r3, [r3]
 2345 08ca 1A00     		movs	r2, r3
 2346 08cc BC4B     		ldr	r3, .L141+36
 2347 08ce 1100     		movs	r1, r2
 2348 08d0 1800     		movs	r0, r3
 2349 08d2 FFF7FEFF 		bl	printf
 660:cgmss.c       ****                                     break;
 2350              		.loc 1 660 0
 2351 08d6 B44B     		ldr	r3, .L141+12
 2352 08d8 0D22     		movs	r2, #13
 2353 08da 5A70     		strb	r2, [r3, #1]
 661:cgmss.c       ****                                     
 2354              		.loc 1 661 0
 2355 08dc 2FE1     		b	.L101
 2356              	.L115:
 664:cgmss.c       ****                                     DBG_PRINTF("Response: Hyper Alert Level: 0x%4.4x\r\n", alrt.hpr
 2357              		.loc 1 664 0
 2358 08de B94B     		ldr	r3, .L141+40
 2359 08e0 1800     		movs	r0, r3
 2360 08e2 FFF7FEFF 		bl	puts
 665:cgmss.c       ****                                     socp[0u] = CYBLE_CGMS_SOCP_OPC_RHPR;
 2361              		.loc 1 665 0
 2362 08e6 AE4B     		ldr	r3, .L141+4
 2363 08e8 DB88     		ldrh	r3, [r3, #6]
 2364 08ea 1A00     		movs	r2, r3
 2365 08ec B64B     		ldr	r3, .L141+44
 2366 08ee 1100     		movs	r1, r2
 2367 08f0 1800     		movs	r0, r3
 2368 08f2 FFF7FEFF 		bl	printf
 666:cgmss.c       ****                                     CyBle_Set16ByPtr(&socp[1u], alrt.hpr);
 2369              		.loc 1 666 0
 2370 08f6 AC4B     		ldr	r3, .L141+12
ARM GAS  C:\Users\cypress\AppData\Local\Temp\ccgxY6Ea.s 			page 65


 2371 08f8 1222     		movs	r2, #18
 2372 08fa 1A70     		strb	r2, [r3]
 667:cgmss.c       ****                                     break;
 2373              		.loc 1 667 0
 2374 08fc A84B     		ldr	r3, .L141+4
 2375 08fe DA88     		ldrh	r2, [r3, #6]
 2376 0900 AA4B     		ldr	r3, .L141+16
 2377 0902 1100     		movs	r1, r2
 2378 0904 1800     		movs	r0, r3
 2379 0906 FFF7FEFF 		bl	CyBle_Set16ByPtr
 668:cgmss.c       ****                                     
 2380              		.loc 1 668 0
 2381 090a 18E1     		b	.L101
 2382              	.L114:
 671:cgmss.c       ****                                     socpOpd = CyBle_Get16ByPtr(&((CYBLE_CGMS_CHAR_VALUE_T *)eventPa
 2383              		.loc 1 671 0
 2384 090c AF4B     		ldr	r3, .L141+48
 2385 090e 1800     		movs	r0, r3
 2386 0910 FFF7FEFF 		bl	puts
 672:cgmss.c       ****                                     socpOpdPtr = &alrt.hpr;
 2387              		.loc 1 672 0
 2388 0914 3B68     		ldr	r3, [r7]
 2389 0916 5B68     		ldr	r3, [r3, #4]
 2390 0918 1B68     		ldr	r3, [r3]
 2391 091a 0133     		adds	r3, r3, #1
 2392 091c 1800     		movs	r0, r3
 2393 091e FFF7FEFF 		bl	CyBle_Get16ByPtr
 2394 0922 0300     		movs	r3, r0
 2395 0924 1A00     		movs	r2, r3
 2396 0926 A34B     		ldr	r3, .L141+24
 2397 0928 1A80     		strh	r2, [r3]
 673:cgmss.c       ****                                     DBG_PRINTF("Operand: Hyper Alert Level: 0x%4.4x \r\n", socpOpd)
 2398              		.loc 1 673 0
 2399 092a A34B     		ldr	r3, .L141+28
 2400 092c A84A     		ldr	r2, .L141+52
 2401 092e 1A60     		str	r2, [r3]
 674:cgmss.c       ****                                     socp[1u] = CYBLE_CGMS_SOCP_OPC_SHPR;
 2402              		.loc 1 674 0
 2403 0930 A04B     		ldr	r3, .L141+24
 2404 0932 1B88     		ldrh	r3, [r3]
 2405 0934 1A00     		movs	r2, r3
 2406 0936 A74B     		ldr	r3, .L141+56
 2407 0938 1100     		movs	r1, r2
 2408 093a 1800     		movs	r0, r3
 2409 093c FFF7FEFF 		bl	printf
 675:cgmss.c       ****                                     break;
 2410              		.loc 1 675 0
 2411 0940 994B     		ldr	r3, .L141+12
 2412 0942 1022     		movs	r2, #16
 2413 0944 5A70     		strb	r2, [r3, #1]
 676:cgmss.c       ****                                     
 2414              		.loc 1 676 0
 2415 0946 FAE0     		b	.L101
 2416              	.L117:
 679:cgmss.c       ****                                     DBG_PRINTF("Response: Rate of Decrease Alert Level: 0x%4.4x\r\n
 2417              		.loc 1 679 0
 2418 0948 A34B     		ldr	r3, .L141+60
ARM GAS  C:\Users\cypress\AppData\Local\Temp\ccgxY6Ea.s 			page 66


 2419 094a 1800     		movs	r0, r3
 2420 094c FFF7FEFF 		bl	puts
 680:cgmss.c       ****                                     socp[0u] = CYBLE_CGMS_SOCP_OPC_RDEC;
 2421              		.loc 1 680 0
 2422 0950 934B     		ldr	r3, .L141+4
 2423 0952 1B89     		ldrh	r3, [r3, #8]
 2424 0954 1A00     		movs	r2, r3
 2425 0956 A14B     		ldr	r3, .L141+64
 2426 0958 1100     		movs	r1, r2
 2427 095a 1800     		movs	r0, r3
 2428 095c FFF7FEFF 		bl	printf
 681:cgmss.c       ****                                     CyBle_Set16ByPtr(&socp[1u], alrt.dec);
 2429              		.loc 1 681 0
 2430 0960 914B     		ldr	r3, .L141+12
 2431 0962 1522     		movs	r2, #21
 2432 0964 1A70     		strb	r2, [r3]
 682:cgmss.c       ****                                     break;
 2433              		.loc 1 682 0
 2434 0966 8E4B     		ldr	r3, .L141+4
 2435 0968 1A89     		ldrh	r2, [r3, #8]
 2436 096a 904B     		ldr	r3, .L141+16
 2437 096c 1100     		movs	r1, r2
 2438 096e 1800     		movs	r0, r3
 2439 0970 FFF7FEFF 		bl	CyBle_Set16ByPtr
 683:cgmss.c       ****                                     
 2440              		.loc 1 683 0
 2441 0974 E3E0     		b	.L101
 2442              	.L116:
 686:cgmss.c       ****                                     socpOpd = CyBle_Get16ByPtr(&((CYBLE_CGMS_CHAR_VALUE_T *)eventPa
 2443              		.loc 1 686 0
 2444 0976 9A4B     		ldr	r3, .L141+68
 2445 0978 1800     		movs	r0, r3
 2446 097a FFF7FEFF 		bl	puts
 687:cgmss.c       ****                                     socpOpdPtr = &alrt.dec;
 2447              		.loc 1 687 0
 2448 097e 3B68     		ldr	r3, [r7]
 2449 0980 5B68     		ldr	r3, [r3, #4]
 2450 0982 1B68     		ldr	r3, [r3]
 2451 0984 0133     		adds	r3, r3, #1
 2452 0986 1800     		movs	r0, r3
 2453 0988 FFF7FEFF 		bl	CyBle_Get16ByPtr
 2454 098c 0300     		movs	r3, r0
 2455 098e 1A00     		movs	r2, r3
 2456 0990 884B     		ldr	r3, .L141+24
 2457 0992 1A80     		strh	r2, [r3]
 688:cgmss.c       ****                                     DBG_PRINTF("Operand: Rate of Decrease Alert Level: 0x%4.4x \r\n
 2458              		.loc 1 688 0
 2459 0994 884B     		ldr	r3, .L141+28
 2460 0996 934A     		ldr	r2, .L141+72
 2461 0998 1A60     		str	r2, [r3]
 689:cgmss.c       ****                                     socp[1u] = CYBLE_CGMS_SOCP_OPC_SDEC;
 2462              		.loc 1 689 0
 2463 099a 864B     		ldr	r3, .L141+24
 2464 099c 1B88     		ldrh	r3, [r3]
 2465 099e 1A00     		movs	r2, r3
 2466 09a0 914B     		ldr	r3, .L141+76
 2467 09a2 1100     		movs	r1, r2
ARM GAS  C:\Users\cypress\AppData\Local\Temp\ccgxY6Ea.s 			page 67


 2468 09a4 1800     		movs	r0, r3
 2469 09a6 FFF7FEFF 		bl	printf
 690:cgmss.c       ****                                     break;
 2470              		.loc 1 690 0
 2471 09aa 7F4B     		ldr	r3, .L141+12
 2472 09ac 1322     		movs	r2, #19
 2473 09ae 5A70     		strb	r2, [r3, #1]
 691:cgmss.c       ****                                     
 2474              		.loc 1 691 0
 2475 09b0 C5E0     		b	.L101
 2476              	.L119:
 694:cgmss.c       ****                                     DBG_PRINTF("Response: Rate of Increase Alert Level: 0x%4.4x\r\n
 2477              		.loc 1 694 0
 2478 09b2 8E4B     		ldr	r3, .L141+80
 2479 09b4 1800     		movs	r0, r3
 2480 09b6 FFF7FEFF 		bl	puts
 695:cgmss.c       ****                                     socp[0u] = CYBLE_CGMS_SOCP_OPC_RINC;
 2481              		.loc 1 695 0
 2482 09ba 794B     		ldr	r3, .L141+4
 2483 09bc 5B89     		ldrh	r3, [r3, #10]
 2484 09be 1A00     		movs	r2, r3
 2485 09c0 8B4B     		ldr	r3, .L141+84
 2486 09c2 1100     		movs	r1, r2
 2487 09c4 1800     		movs	r0, r3
 2488 09c6 FFF7FEFF 		bl	printf
 696:cgmss.c       ****                                     CyBle_Set16ByPtr(&socp[1u], alrt.inc);
 2489              		.loc 1 696 0
 2490 09ca 774B     		ldr	r3, .L141+12
 2491 09cc 1822     		movs	r2, #24
 2492 09ce 1A70     		strb	r2, [r3]
 697:cgmss.c       ****                                     break;
 2493              		.loc 1 697 0
 2494 09d0 734B     		ldr	r3, .L141+4
 2495 09d2 5A89     		ldrh	r2, [r3, #10]
 2496 09d4 754B     		ldr	r3, .L141+16
 2497 09d6 1100     		movs	r1, r2
 2498 09d8 1800     		movs	r0, r3
 2499 09da FFF7FEFF 		bl	CyBle_Set16ByPtr
 698:cgmss.c       ****                                     
 2500              		.loc 1 698 0
 2501 09de AEE0     		b	.L101
 2502              	.L118:
 701:cgmss.c       ****                                     socpOpd = CyBle_Get16ByPtr(&((CYBLE_CGMS_CHAR_VALUE_T *)eventPa
 2503              		.loc 1 701 0
 2504 09e0 844B     		ldr	r3, .L141+88
 2505 09e2 1800     		movs	r0, r3
 2506 09e4 FFF7FEFF 		bl	puts
 702:cgmss.c       ****                                     socpOpdPtr = &alrt.inc;
 2507              		.loc 1 702 0
 2508 09e8 3B68     		ldr	r3, [r7]
 2509 09ea 5B68     		ldr	r3, [r3, #4]
 2510 09ec 1B68     		ldr	r3, [r3]
 2511 09ee 0133     		adds	r3, r3, #1
 2512 09f0 1800     		movs	r0, r3
 2513 09f2 FFF7FEFF 		bl	CyBle_Get16ByPtr
 2514 09f6 0300     		movs	r3, r0
 2515 09f8 1A00     		movs	r2, r3
ARM GAS  C:\Users\cypress\AppData\Local\Temp\ccgxY6Ea.s 			page 68


 2516 09fa 6E4B     		ldr	r3, .L141+24
 2517 09fc 1A80     		strh	r2, [r3]
 703:cgmss.c       ****                                     DBG_PRINTF("Operand: Rate of Increase Alert Level: 0x%4.4x \r\n
 2518              		.loc 1 703 0
 2519 09fe 6E4B     		ldr	r3, .L141+28
 2520 0a00 7D4A     		ldr	r2, .L141+92
 2521 0a02 1A60     		str	r2, [r3]
 704:cgmss.c       ****                                     socp[1u] = CYBLE_CGMS_SOCP_OPC_SINC;
 2522              		.loc 1 704 0
 2523 0a04 6B4B     		ldr	r3, .L141+24
 2524 0a06 1B88     		ldrh	r3, [r3]
 2525 0a08 1A00     		movs	r2, r3
 2526 0a0a 7C4B     		ldr	r3, .L141+96
 2527 0a0c 1100     		movs	r1, r2
 2528 0a0e 1800     		movs	r0, r3
 2529 0a10 FFF7FEFF 		bl	printf
 705:cgmss.c       ****                                     break;
 2530              		.loc 1 705 0
 2531 0a14 644B     		ldr	r3, .L141+12
 2532 0a16 1622     		movs	r2, #22
 2533 0a18 5A70     		strb	r2, [r3, #1]
 706:cgmss.c       ****                                     
 2534              		.loc 1 706 0
 2535 0a1a 90E0     		b	.L101
 2536              	.L120:
 709:cgmss.c       ****                                     socp[1u] = CYBLE_CGMS_SOCP_OPC_RDSA;
 2537              		.loc 1 709 0
 2538 0a1c 784B     		ldr	r3, .L141+100
 2539 0a1e 1800     		movs	r0, r3
 2540 0a20 FFF7FEFF 		bl	puts
 710:cgmss.c       ****                                     break;
 2541              		.loc 1 710 0
 2542 0a24 604B     		ldr	r3, .L141+12
 2543 0a26 1922     		movs	r2, #25
 2544 0a28 5A70     		strb	r2, [r3, #1]
 711:cgmss.c       ****                                     
 2545              		.loc 1 711 0
 2546 0a2a 88E0     		b	.L101
 2547              	.L121:
 714:cgmss.c       ****                                     apiResult = CyBle_CgmssGetCharacteristicValue(CYBLE_CGMS_CGST, 
 2548              		.loc 1 714 0
 2549 0a2c 754B     		ldr	r3, .L141+104
 2550 0a2e 1800     		movs	r0, r3
 2551 0a30 FFF7FEFF 		bl	puts
 715:cgmss.c       ****                                     if(apiResult != CYBLE_ERROR_OK)
 2552              		.loc 1 715 0
 2553 0a34 744B     		ldr	r3, .L141+108
 2554 0a36 1A00     		movs	r2, r3
 2555 0a38 0721     		movs	r1, #7
 2556 0a3a 0220     		movs	r0, #2
 2557 0a3c FFF7FEFF 		bl	CyBle_CgmssGetCharacteristicValue
 2558 0a40 0300     		movs	r3, r0
 2559 0a42 1A00     		movs	r2, r3
 2560 0a44 714B     		ldr	r3, .L141+112
 2561 0a46 1A80     		strh	r2, [r3]
 716:cgmss.c       ****                                     {
 2562              		.loc 1 716 0
ARM GAS  C:\Users\cypress\AppData\Local\Temp\ccgxY6Ea.s 			page 69


 2563 0a48 704B     		ldr	r3, .L141+112
 2564 0a4a 1B88     		ldrh	r3, [r3]
 2565 0a4c 002B     		cmp	r3, #0
 2566 0a4e 05D0     		beq	.L127
 718:cgmss.c       ****                                         PrintApiResult();
 2567              		.loc 1 718 0
 2568 0a50 6F4B     		ldr	r3, .L141+116
 2569 0a52 1800     		movs	r0, r3
 2570 0a54 FFF7FEFF 		bl	printf
 719:cgmss.c       ****                                     }
 2571              		.loc 1 719 0
 2572 0a58 FFF7FEFF 		bl	PrintApiResult
 2573              	.L127:
 722:cgmss.c       ****                                     {
 2574              		.loc 1 722 0
 2575 0a5c 6A4B     		ldr	r3, .L141+108
 2576 0a5e 9B78     		ldrb	r3, [r3, #2]
 2577 0a60 1A00     		movs	r2, r3
 2578 0a62 0123     		movs	r3, #1
 2579 0a64 1340     		ands	r3, r2
 2580 0a66 21D0     		beq	.L128
 724:cgmss.c       ****                                     
 2581              		.loc 1 724 0
 2582 0a68 674B     		ldr	r3, .L141+108
 2583 0a6a 9B78     		ldrb	r3, [r3, #2]
 2584 0a6c 0122     		movs	r2, #1
 2585 0a6e 9343     		bics	r3, r2
 2586 0a70 DAB2     		uxtb	r2, r3
 2587 0a72 654B     		ldr	r3, .L141+108
 2588 0a74 9A70     		strb	r2, [r3, #2]
 726:cgmss.c       ****                                         if(apiResult != CYBLE_ERROR_OK)
 2589              		.loc 1 726 0
 2590 0a76 644B     		ldr	r3, .L141+108
 2591 0a78 1900     		movs	r1, r3
 2592 0a7a 0520     		movs	r0, #5
 2593 0a7c FFF7FEFF 		bl	CgmsCrcLength
 2594 0a80 0300     		movs	r3, r0
 2595 0a82 1900     		movs	r1, r3
 2596 0a84 604B     		ldr	r3, .L141+108
 2597 0a86 1A00     		movs	r2, r3
 2598 0a88 0220     		movs	r0, #2
 2599 0a8a FFF7FEFF 		bl	CyBle_CgmssSetCharacteristicValue
 2600 0a8e 0300     		movs	r3, r0
 2601 0a90 1A00     		movs	r2, r3
 2602 0a92 5E4B     		ldr	r3, .L141+112
 2603 0a94 1A80     		strh	r2, [r3]
 727:cgmss.c       ****                                         {
 2604              		.loc 1 727 0
 2605 0a96 5D4B     		ldr	r3, .L141+112
 2606 0a98 1B88     		ldrh	r3, [r3]
 2607 0a9a 002B     		cmp	r3, #0
 2608 0a9c 09D0     		beq	.L130
 729:cgmss.c       ****                                             PrintApiResult();
 2609              		.loc 1 729 0
 2610 0a9e 5C4B     		ldr	r3, .L141+116
 2611 0aa0 1800     		movs	r0, r3
 2612 0aa2 FFF7FEFF 		bl	printf
ARM GAS  C:\Users\cypress\AppData\Local\Temp\ccgxY6Ea.s 			page 70


 730:cgmss.c       ****                                         }
 2613              		.loc 1 730 0
 2614 0aa6 FFF7FEFF 		bl	PrintApiResult
 2615 0aaa 02E0     		b	.L130
 2616              	.L128:
 735:cgmss.c       ****                                     }
 2617              		.loc 1 735 0
 2618 0aac 3E4B     		ldr	r3, .L141+12
 2619 0aae 0422     		movs	r2, #4
 2620 0ab0 9A70     		strb	r2, [r3, #2]
 2621              	.L130:
 737:cgmss.c       ****                                     break;
 2622              		.loc 1 737 0
 2623 0ab2 3D4B     		ldr	r3, .L141+12
 2624 0ab4 1A22     		movs	r2, #26
 2625 0ab6 5A70     		strb	r2, [r3, #1]
 738:cgmss.c       ****                                     
 2626              		.loc 1 738 0
 2627 0ab8 41E0     		b	.L101
 2628              	.L122:
 741:cgmss.c       ****                                     apiResult = CyBle_CgmssGetCharacteristicValue(CYBLE_CGMS_CGST, 
 2629              		.loc 1 741 0
 2630 0aba 564B     		ldr	r3, .L141+120
 2631 0abc 1800     		movs	r0, r3
 2632 0abe FFF7FEFF 		bl	puts
 742:cgmss.c       ****                                     if(apiResult != CYBLE_ERROR_OK)
 2633              		.loc 1 742 0
 2634 0ac2 514B     		ldr	r3, .L141+108
 2635 0ac4 1A00     		movs	r2, r3
 2636 0ac6 0721     		movs	r1, #7
 2637 0ac8 0220     		movs	r0, #2
 2638 0aca FFF7FEFF 		bl	CyBle_CgmssGetCharacteristicValue
 2639 0ace 0300     		movs	r3, r0
 2640 0ad0 1A00     		movs	r2, r3
 2641 0ad2 4E4B     		ldr	r3, .L141+112
 2642 0ad4 1A80     		strh	r2, [r3]
 743:cgmss.c       ****                                     {
 2643              		.loc 1 743 0
 2644 0ad6 4D4B     		ldr	r3, .L141+112
 2645 0ad8 1B88     		ldrh	r3, [r3]
 2646 0ada 002B     		cmp	r3, #0
 2647 0adc 05D0     		beq	.L131
 745:cgmss.c       ****                                         PrintApiResult();
 2648              		.loc 1 745 0
 2649 0ade 4C4B     		ldr	r3, .L141+116
 2650 0ae0 1800     		movs	r0, r3
 2651 0ae2 FFF7FEFF 		bl	printf
 746:cgmss.c       ****                                     }
 2652              		.loc 1 746 0
 2653 0ae6 FFF7FEFF 		bl	PrintApiResult
 2654              	.L131:
 749:cgmss.c       ****                                     
 2655              		.loc 1 749 0
 2656 0aea 474B     		ldr	r3, .L141+108
 2657 0aec 9B78     		ldrb	r3, [r3, #2]
 2658 0aee 0122     		movs	r2, #1
 2659 0af0 1343     		orrs	r3, r2
ARM GAS  C:\Users\cypress\AppData\Local\Temp\ccgxY6Ea.s 			page 71


 2660 0af2 DAB2     		uxtb	r2, r3
 2661 0af4 444B     		ldr	r3, .L141+108
 2662 0af6 9A70     		strb	r2, [r3, #2]
 751:cgmss.c       ****                                     if(apiResult != CYBLE_ERROR_OK)
 2663              		.loc 1 751 0
 2664 0af8 434B     		ldr	r3, .L141+108
 2665 0afa 1900     		movs	r1, r3
 2666 0afc 0520     		movs	r0, #5
 2667 0afe FFF7FEFF 		bl	CgmsCrcLength
 2668 0b02 0300     		movs	r3, r0
 2669 0b04 1900     		movs	r1, r3
 2670 0b06 404B     		ldr	r3, .L141+108
 2671 0b08 1A00     		movs	r2, r3
 2672 0b0a 0220     		movs	r0, #2
 2673 0b0c FFF7FEFF 		bl	CyBle_CgmssSetCharacteristicValue
 2674 0b10 0300     		movs	r3, r0
 2675 0b12 1A00     		movs	r2, r3
 2676 0b14 3D4B     		ldr	r3, .L141+112
 2677 0b16 1A80     		strh	r2, [r3]
 752:cgmss.c       ****                                     {
 2678              		.loc 1 752 0
 2679 0b18 3C4B     		ldr	r3, .L141+112
 2680 0b1a 1B88     		ldrh	r3, [r3]
 2681 0b1c 002B     		cmp	r3, #0
 2682 0b1e 05D0     		beq	.L132
 754:cgmss.c       ****                                         PrintApiResult();
 2683              		.loc 1 754 0
 2684 0b20 3B4B     		ldr	r3, .L141+116
 2685 0b22 1800     		movs	r0, r3
 2686 0b24 FFF7FEFF 		bl	printf
 755:cgmss.c       ****                                     }
 2687              		.loc 1 755 0
 2688 0b28 FFF7FEFF 		bl	PrintApiResult
 2689              	.L132:
 758:cgmss.c       ****                                     break;
 2690              		.loc 1 758 0
 2691 0b2c 1E4B     		ldr	r3, .L141+12
 2692 0b2e 1B22     		movs	r2, #27
 2693 0b30 5A70     		strb	r2, [r3, #1]
 759:cgmss.c       ****                                     
 2694              		.loc 1 759 0
 2695 0b32 04E0     		b	.L101
 2696              	.L102:
 762:cgmss.c       ****                                     break;
 2697              		.loc 1 762 0
 2698 0b34 384B     		ldr	r3, .L141+124
 2699 0b36 1800     		movs	r0, r3
 2700 0b38 FFF7FEFF 		bl	puts
 763:cgmss.c       ****                             }
 2701              		.loc 1 763 0
 2702 0b3c C046     		nop
 2703              	.L101:
 766:cgmss.c       ****                         
 2704              		.loc 1 766 0 discriminator 8
 2705 0b3e 01E0     		b	.L136
 2706              	.L134:
 372:cgmss.c       ****                     
ARM GAS  C:\Users\cypress\AppData\Local\Temp\ccgxY6Ea.s 			page 72


 2707              		.loc 1 372 0
 2708 0b40 C046     		nop
 2709 0b42 00E0     		b	.L62
 2710              	.L136:
 766:cgmss.c       ****                         
 2711              		.loc 1 766 0
 2712 0b44 C046     		nop
 2713              	.L62:
 770:cgmss.c       ****                 }
 771:cgmss.c       ****                 
 772:cgmss.c       ****                 ((CYBLE_CGMS_CHAR_VALUE_T*)eventParam)->gattErrorCode = cgmsGattError;
 2714              		.loc 1 772 0
 2715 0b46 3B68     		ldr	r3, [r7]
 2716 0b48 0D22     		movs	r2, #13
 2717 0b4a BA18     		adds	r2, r7, r2
 2718 0b4c 1278     		ldrb	r2, [r2]
 2719 0b4e 1A72     		strb	r2, [r3, #8]
 2720              	.LBE2:
 773:cgmss.c       ****             }
 774:cgmss.c       ****             break;
 2721              		.loc 1 774 0
 2722 0b50 1FE0     		b	.L133
 2723              	.L49:
 775:cgmss.c       ****         
 776:cgmss.c       ****         case CYBLE_EVT_CGMSS_NOTIFICATION_ENABLED:
 777:cgmss.c       ****             DBG_PRINTF("Glucose Notification is Enabled \r\n");
 2724              		.loc 1 777 0
 2725 0b52 324B     		ldr	r3, .L141+128
 2726 0b54 1800     		movs	r0, r3
 2727 0b56 FFF7FEFF 		bl	puts
 778:cgmss.c       ****             break;
 2728              		.loc 1 778 0
 2729 0b5a 1AE0     		b	.L133
 2730              	.L50:
 779:cgmss.c       ****                 
 780:cgmss.c       ****         case CYBLE_EVT_CGMSS_NOTIFICATION_DISABLED:
 781:cgmss.c       ****             DBG_PRINTF("Glucose Notification is Disabled \r\n");
 2731              		.loc 1 781 0
 2732 0b5c 304B     		ldr	r3, .L141+132
 2733 0b5e 1800     		movs	r0, r3
 2734 0b60 FFF7FEFF 		bl	puts
 782:cgmss.c       ****             break;
 2735              		.loc 1 782 0
 2736 0b64 15E0     		b	.L133
 2737              	.L45:
 783:cgmss.c       ****             
 784:cgmss.c       ****         case CYBLE_EVT_CGMSS_INDICATION_ENABLED:
 785:cgmss.c       ****             DBG_PRINTF("RACP Indication is Enabled \r\n");
 2738              		.loc 1 785 0
 2739 0b66 2F4B     		ldr	r3, .L141+136
 2740 0b68 1800     		movs	r0, r3
 2741 0b6a FFF7FEFF 		bl	puts
 786:cgmss.c       ****             break;
 2742              		.loc 1 786 0
 2743 0b6e 10E0     		b	.L133
 2744              	.L47:
 787:cgmss.c       ****                 
ARM GAS  C:\Users\cypress\AppData\Local\Temp\ccgxY6Ea.s 			page 73


 788:cgmss.c       ****         case CYBLE_EVT_CGMSS_INDICATION_DISABLED:
 789:cgmss.c       ****             DBG_PRINTF("RACP Indication is Disabled \r\n");
 2745              		.loc 1 789 0
 2746 0b70 2D4B     		ldr	r3, .L141+140
 2747 0b72 1800     		movs	r0, r3
 2748 0b74 FFF7FEFF 		bl	puts
 790:cgmss.c       ****             break;
 2749              		.loc 1 790 0
 2750 0b78 0BE0     		b	.L133
 2751              	.L48:
 791:cgmss.c       ****             
 792:cgmss.c       ****         case CYBLE_EVT_CGMSS_INDICATION_CONFIRMED:
 793:cgmss.c       ****             DBG_PRINTF("RACP Indication is Confirmed \r\n");
 2752              		.loc 1 793 0
 2753 0b7a 2C4B     		ldr	r3, .L141+144
 2754 0b7c 1800     		movs	r0, r3
 2755 0b7e FFF7FEFF 		bl	puts
 794:cgmss.c       ****             break;
 2756              		.loc 1 794 0
 2757 0b82 06E0     		b	.L133
 2758              	.L44:
 795:cgmss.c       **** 
 796:cgmss.c       **** 		default:
 797:cgmss.c       ****             DBG_PRINTF("unknown CGMS event: %lx \r\n", event);
 2759              		.loc 1 797 0
 2760 0b84 7A68     		ldr	r2, [r7, #4]
 2761 0b86 2A4B     		ldr	r3, .L141+148
 2762 0b88 1100     		movs	r1, r2
 2763 0b8a 1800     		movs	r0, r3
 2764 0b8c FFF7FEFF 		bl	printf
 798:cgmss.c       **** 			break;
 2765              		.loc 1 798 0
 2766 0b90 C046     		nop
 2767              	.L133:
 799:cgmss.c       ****     }
 800:cgmss.c       **** }
 2768              		.loc 1 800 0
 2769 0b92 C046     		nop
 2770 0b94 BD46     		mov	sp, r7
 2771 0b96 05B0     		add	sp, sp, #20
 2772              		@ sp needed
 2773 0b98 90BD     		pop	{r4, r7, pc}
 2774              	.L142:
 2775 0b9a C046     		.align	2
 2776              	.L141:
 2777 0b9c 6C060000 		.word	.LC155
 2778 0ba0 00000000 		.word	alrt
 2779 0ba4 84060000 		.word	.LC157
 2780 0ba8 00000000 		.word	socp
 2781 0bac 01000000 		.word	socp+1
 2782 0bb0 AC060000 		.word	.LC159
 2783 0bb4 00000000 		.word	socpOpd
 2784 0bb8 00000000 		.word	socpOpdPtr
 2785 0bbc 04000000 		.word	alrt+4
 2786 0bc0 C4060000 		.word	.LC162
 2787 0bc4 EC060000 		.word	.LC164
 2788 0bc8 04070000 		.word	.LC166
ARM GAS  C:\Users\cypress\AppData\Local\Temp\ccgxY6Ea.s 			page 74


 2789 0bcc 2C070000 		.word	.LC168
 2790 0bd0 06000000 		.word	alrt+6
 2791 0bd4 44070000 		.word	.LC171
 2792 0bd8 6C070000 		.word	.LC173
 2793 0bdc 90070000 		.word	.LC175
 2794 0be0 C4070000 		.word	.LC177
 2795 0be4 08000000 		.word	alrt+8
 2796 0be8 E8070000 		.word	.LC180
 2797 0bec 1C080000 		.word	.LC182
 2798 0bf0 40080000 		.word	.LC184
 2799 0bf4 74080000 		.word	.LC186
 2800 0bf8 0A000000 		.word	alrt+10
 2801 0bfc 98080000 		.word	.LC189
 2802 0c00 CC080000 		.word	.LC191
 2803 0c04 EC080000 		.word	.LC193
 2804 0c08 00000000 		.word	attr
 2805 0c0c 00000000 		.word	apiResult
 2806 0c10 00010000 		.word	.LC31
 2807 0c14 00090000 		.word	.LC197
 2808 0c18 14090000 		.word	.LC199
 2809 0c1c 24090000 		.word	.LC201
 2810 0c20 48090000 		.word	.LC203
 2811 0c24 6C090000 		.word	.LC205
 2812 0c28 8C090000 		.word	.LC207
 2813 0c2c AC090000 		.word	.LC209
 2814 0c30 CC090000 		.word	.LC211
 2815              		.cfi_endproc
 2816              	.LFE41:
 2817              		.size	CgmsCallBack, .-CgmsCallBack
 2818              		.section	.rodata
 2819              		.align	2
 2820              	.LC217:
 2821 0afc 43676D73 		.ascii	"CgmsSendCgmtNtf API Error: \000"
 2821      53656E64 
 2821      43676D74 
 2821      4E746620 
 2821      41504920 
 2822              		.align	2
 2823              	.LC219:
 2824 0b18 43676D74 		.ascii	"Cgmt Ntf: \000"
 2824      204E7466 
 2824      3A2000
 2825              		.section	.text.CgmsSendCgmtNtf,"ax",%progbits
 2826              		.align	2
 2827              		.global	CgmsSendCgmtNtf
 2828              		.code	16
 2829              		.thumb_func
 2830              		.type	CgmsSendCgmtNtf, %function
 2831              	CgmsSendCgmtNtf:
 2832              	.LFB42:
 801:cgmss.c       **** 
 802:cgmss.c       **** 
 803:cgmss.c       **** /******************************************************************************
 804:cgmss.c       **** ##Function Name: CgmsSendCgmtNtf
 805:cgmss.c       **** *******************************************************************************
 806:cgmss.c       **** 
 807:cgmss.c       **** Summary:
ARM GAS  C:\Users\cypress\AppData\Local\Temp\ccgxY6Ea.s 			page 75


 808:cgmss.c       ****   Packs the payload and sends a notification
 809:cgmss.c       ****   of the CGM Measurement characteristic.
 810:cgmss.c       **** 
 811:cgmss.c       ****   Uses the above declared CgmsCrc();
 812:cgmss.c       **** 
 813:cgmss.c       **** Parameters:
 814:cgmss.c       ****   CYBLE_CGMS_CGMT_T cgmt - The CGM Measurement characteristic value structure.
 815:cgmss.c       **** 
 816:cgmss.c       **** Return:
 817:cgmss.c       ****   None. 
 818:cgmss.c       **** 
 819:cgmss.c       **** ******************************************************************************/
 820:cgmss.c       **** void CgmsSendCgmtNtf(CYBLE_CGMS_CGMT_T cgmt)
 821:cgmss.c       **** {
 2833              		.loc 1 821 0
 2834              		.cfi_startproc
 2835              		@ args = 0, pretend = 0, frame = 40
 2836              		@ frame_needed = 1, uses_anonymous_args = 0
 2837 0000 90B5     		push	{r4, r7, lr}
 2838              		.cfi_def_cfa_offset 12
 2839              		.cfi_offset 4, -12
 2840              		.cfi_offset 7, -8
 2841              		.cfi_offset 14, -4
 2842 0002 8BB0     		sub	sp, sp, #44
 2843              		.cfi_def_cfa_offset 56
 2844 0004 00AF     		add	r7, sp, #0
 2845              		.cfi_def_cfa_register 7
 2846 0006 3C00     		movs	r4, r7
 2847 0008 2060     		str	r0, [r4]
 2848 000a 6160     		str	r1, [r4, #4]
 2849 000c A260     		str	r2, [r4, #8]
 2850 000e E360     		str	r3, [r4, #12]
 822:cgmss.c       ****     uint8 pdu[sizeof(CYBLE_CGMS_CGMT_T)];
 823:cgmss.c       ****     uint8 ptr, b;
 824:cgmss.c       ****     
 825:cgmss.c       ****     /* "Flags" octet goes second */
 826:cgmss.c       **** 	pdu[1u] = cgmt.flags;
 2851              		.loc 1 826 0
 2852 0010 3B00     		movs	r3, r7
 2853 0012 1A78     		ldrb	r2, [r3]
 2854 0014 1423     		movs	r3, #20
 2855 0016 FB18     		adds	r3, r7, r3
 2856 0018 5A70     		strb	r2, [r3, #1]
 827:cgmss.c       ****     
 828:cgmss.c       ****     /* CGM Glucose Concentration is third and forth bytes */
 829:cgmss.c       **** 	CyBle_Set16ByPtr(&pdu[2u], cgmt.gluConc);
 2857              		.loc 1 829 0
 2858 001a 3B00     		movs	r3, r7
 2859 001c 5A88     		ldrh	r2, [r3, #2]
 2860 001e 1423     		movs	r3, #20
 2861 0020 FB18     		adds	r3, r7, r3
 2862 0022 0233     		adds	r3, r3, #2
 2863 0024 1100     		movs	r1, r2
 2864 0026 1800     		movs	r0, r3
 2865 0028 FFF7FEFF 		bl	CyBle_Set16ByPtr
 830:cgmss.c       ****     
 831:cgmss.c       ****     /* Time Offset consumes next two bytes */
ARM GAS  C:\Users\cypress\AppData\Local\Temp\ccgxY6Ea.s 			page 76


 832:cgmss.c       ****     CyBle_Set16ByPtr(&pdu[4u], cgmt.timeOffset);
 2866              		.loc 1 832 0
 2867 002c 3B00     		movs	r3, r7
 2868 002e 9A88     		ldrh	r2, [r3, #4]
 2869 0030 1423     		movs	r3, #20
 2870 0032 FB18     		adds	r3, r7, r3
 2871 0034 0433     		adds	r3, r3, #4
 2872 0036 1100     		movs	r1, r2
 2873 0038 1800     		movs	r0, r3
 2874 003a FFF7FEFF 		bl	CyBle_Set16ByPtr
 833:cgmss.c       ****     
 834:cgmss.c       ****     ptr = 6u; /* size of size + flags + gluConc + timeOffset) */
 2875              		.loc 1 834 0
 2876 003e 2723     		movs	r3, #39
 2877 0040 FB18     		adds	r3, r7, r3
 2878 0042 0622     		movs	r2, #6
 2879 0044 1A70     		strb	r2, [r3]
 835:cgmss.c       ****         
 836:cgmss.c       ****     /* if "Warning-Octet present" flag is set */
 837:cgmss.c       ****     if(0u != (cgmt.flags & CYBLE_CGMS_GLMT_FLG_WG))
 2880              		.loc 1 837 0
 2881 0046 3B00     		movs	r3, r7
 2882 0048 1B78     		ldrb	r3, [r3]
 2883 004a 1A00     		movs	r2, r3
 2884 004c 2023     		movs	r3, #32
 2885 004e 1340     		ands	r3, r2
 2886 0050 12D0     		beq	.L144
 838:cgmss.c       ****     {
 839:cgmss.c       ****         /* set the next byte of CGM Measurement characteristic value */
 840:cgmss.c       ****         pdu[ptr] = cgmt.ssa & CYBLE_CGMS_GLMT_SSA_WGM;
 2887              		.loc 1 840 0
 2888 0052 2723     		movs	r3, #39
 2889 0054 FB18     		adds	r3, r7, r3
 2890 0056 1A78     		ldrb	r2, [r3]
 2891 0058 3B00     		movs	r3, r7
 2892 005a 9B68     		ldr	r3, [r3, #8]
 2893 005c DBB2     		uxtb	r3, r3
 2894 005e 3F21     		movs	r1, #63
 2895 0060 0B40     		ands	r3, r1
 2896 0062 D9B2     		uxtb	r1, r3
 2897 0064 1423     		movs	r3, #20
 2898 0066 FB18     		adds	r3, r7, r3
 2899 0068 9954     		strb	r1, [r3, r2]
 841:cgmss.c       ****         ptr++;
 2900              		.loc 1 841 0
 2901 006a 2723     		movs	r3, #39
 2902 006c FB18     		adds	r3, r7, r3
 2903 006e 1A78     		ldrb	r2, [r3]
 2904 0070 2723     		movs	r3, #39
 2905 0072 FB18     		adds	r3, r7, r3
 2906 0074 0132     		adds	r2, r2, #1
 2907 0076 1A70     		strb	r2, [r3]
 2908              	.L144:
 842:cgmss.c       ****     }
 843:cgmss.c       ****     
 844:cgmss.c       ****     if(0u != (cgmt.flags & CYBLE_CGMS_GLMT_FLG_CT))
 2909              		.loc 1 844 0
ARM GAS  C:\Users\cypress\AppData\Local\Temp\ccgxY6Ea.s 			page 77


 2910 0078 3B00     		movs	r3, r7
 2911 007a 1B78     		ldrb	r3, [r3]
 2912 007c 1A00     		movs	r2, r3
 2913 007e 4023     		movs	r3, #64
 2914 0080 1340     		ands	r3, r2
 2915 0082 13D0     		beq	.L145
 845:cgmss.c       ****     {
 846:cgmss.c       ****         pdu[ptr] = (cgmt.ssa & CYBLE_CGMS_GLMT_SSA_CTM) >> CYBLE_CGMS_GLMT_SSA_CTS;
 2916              		.loc 1 846 0
 2917 0084 2723     		movs	r3, #39
 2918 0086 FB18     		adds	r3, r7, r3
 2919 0088 1A78     		ldrb	r2, [r3]
 2920 008a 3B00     		movs	r3, r7
 2921 008c 9B68     		ldr	r3, [r3, #8]
 2922 008e 1B0A     		lsrs	r3, r3, #8
 2923 0090 DBB2     		uxtb	r3, r3
 2924 0092 3F21     		movs	r1, #63
 2925 0094 0B40     		ands	r3, r1
 2926 0096 D9B2     		uxtb	r1, r3
 2927 0098 1423     		movs	r3, #20
 2928 009a FB18     		adds	r3, r7, r3
 2929 009c 9954     		strb	r1, [r3, r2]
 847:cgmss.c       ****         ptr++;
 2930              		.loc 1 847 0
 2931 009e 2723     		movs	r3, #39
 2932 00a0 FB18     		adds	r3, r7, r3
 2933 00a2 1A78     		ldrb	r2, [r3]
 2934 00a4 2723     		movs	r3, #39
 2935 00a6 FB18     		adds	r3, r7, r3
 2936 00a8 0132     		adds	r2, r2, #1
 2937 00aa 1A70     		strb	r2, [r3]
 2938              	.L145:
 848:cgmss.c       ****     }
 849:cgmss.c       ****     
 850:cgmss.c       ****     if(0u != (cgmt.flags & CYBLE_CGMS_GLMT_FLG_ST))
 2939              		.loc 1 850 0
 2940 00ac 3B00     		movs	r3, r7
 2941 00ae 1B78     		ldrb	r3, [r3]
 2942 00b0 5BB2     		sxtb	r3, r3
 2943 00b2 002B     		cmp	r3, #0
 2944 00b4 10DA     		bge	.L146
 851:cgmss.c       ****     {
 852:cgmss.c       ****         pdu[ptr] = (cgmt.ssa & CYBLE_CGMS_GLMT_SSA_STM) >> CYBLE_CGMS_GLMT_SSA_STS;
 2945              		.loc 1 852 0
 2946 00b6 2723     		movs	r3, #39
 2947 00b8 FB18     		adds	r3, r7, r3
 2948 00ba 1A78     		ldrb	r2, [r3]
 2949 00bc 3B00     		movs	r3, r7
 2950 00be 9B68     		ldr	r3, [r3, #8]
 2951 00c0 1B0C     		lsrs	r3, r3, #16
 2952 00c2 D9B2     		uxtb	r1, r3
 2953 00c4 1423     		movs	r3, #20
 2954 00c6 FB18     		adds	r3, r7, r3
 2955 00c8 9954     		strb	r1, [r3, r2]
 853:cgmss.c       ****         ptr++;
 2956              		.loc 1 853 0
 2957 00ca 2723     		movs	r3, #39
ARM GAS  C:\Users\cypress\AppData\Local\Temp\ccgxY6Ea.s 			page 78


 2958 00cc FB18     		adds	r3, r7, r3
 2959 00ce 1A78     		ldrb	r2, [r3]
 2960 00d0 2723     		movs	r3, #39
 2961 00d2 FB18     		adds	r3, r7, r3
 2962 00d4 0132     		adds	r2, r2, #1
 2963 00d6 1A70     		strb	r2, [r3]
 2964              	.L146:
 854:cgmss.c       ****     }
 855:cgmss.c       ****     
 856:cgmss.c       ****     if((0u != (cgft.feature & CYBLE_CGMS_CGFT_FTR_TI)) && 
 2965              		.loc 1 856 0
 2966 00d8 654B     		ldr	r3, .L156
 2967 00da 1A68     		ldr	r2, [r3]
 2968 00dc 8023     		movs	r3, #128
 2969 00de 1B02     		lsls	r3, r3, #8
 2970 00e0 1340     		ands	r3, r2
 2971 00e2 18D0     		beq	.L147
 857:cgmss.c       ****             (0u != (cgmt.flags & CYBLE_CGMS_GLMT_FLG_TI)))
 2972              		.loc 1 857 0 discriminator 1
 2973 00e4 3B00     		movs	r3, r7
 2974 00e6 1B78     		ldrb	r3, [r3]
 2975 00e8 1A00     		movs	r2, r3
 2976 00ea 0123     		movs	r3, #1
 2977 00ec 1340     		ands	r3, r2
 856:cgmss.c       ****             (0u != (cgmt.flags & CYBLE_CGMS_GLMT_FLG_TI)))
 2978              		.loc 1 856 0 discriminator 1
 2979 00ee 12D0     		beq	.L147
 858:cgmss.c       ****     {
 859:cgmss.c       ****         CyBle_Set16ByPtr(&pdu[ptr], cgmt.trend);
 2980              		.loc 1 859 0
 2981 00f0 2723     		movs	r3, #39
 2982 00f2 FB18     		adds	r3, r7, r3
 2983 00f4 1B78     		ldrb	r3, [r3]
 2984 00f6 1422     		movs	r2, #20
 2985 00f8 BA18     		adds	r2, r7, r2
 2986 00fa D218     		adds	r2, r2, r3
 2987 00fc 3B00     		movs	r3, r7
 2988 00fe 9B89     		ldrh	r3, [r3, #12]
 2989 0100 1900     		movs	r1, r3
 2990 0102 1000     		movs	r0, r2
 2991 0104 FFF7FEFF 		bl	CyBle_Set16ByPtr
 860:cgmss.c       ****         ptr += 2;
 2992              		.loc 1 860 0
 2993 0108 2723     		movs	r3, #39
 2994 010a FB18     		adds	r3, r7, r3
 2995 010c 2722     		movs	r2, #39
 2996 010e BA18     		adds	r2, r7, r2
 2997 0110 1278     		ldrb	r2, [r2]
 2998 0112 0232     		adds	r2, r2, #2
 2999 0114 1A70     		strb	r2, [r3]
 3000              	.L147:
 861:cgmss.c       ****     }
 862:cgmss.c       ****     
 863:cgmss.c       ****     if((0u != (cgft.feature & CYBLE_CGMS_CGFT_FTR_QA)) && 
 3001              		.loc 1 863 0
 3002 0116 564B     		ldr	r3, .L156
 3003 0118 1A68     		ldr	r2, [r3]
ARM GAS  C:\Users\cypress\AppData\Local\Temp\ccgxY6Ea.s 			page 79


 3004 011a 8023     		movs	r3, #128
 3005 011c 5B02     		lsls	r3, r3, #9
 3006 011e 1340     		ands	r3, r2
 3007 0120 18D0     		beq	.L148
 864:cgmss.c       ****             (0u != (cgmt.flags & CYBLE_CGMS_GLMT_FLG_QA)))
 3008              		.loc 1 864 0 discriminator 1
 3009 0122 3B00     		movs	r3, r7
 3010 0124 1B78     		ldrb	r3, [r3]
 3011 0126 1A00     		movs	r2, r3
 3012 0128 0223     		movs	r3, #2
 3013 012a 1340     		ands	r3, r2
 863:cgmss.c       ****             (0u != (cgmt.flags & CYBLE_CGMS_GLMT_FLG_QA)))
 3014              		.loc 1 863 0 discriminator 1
 3015 012c 12D0     		beq	.L148
 865:cgmss.c       ****     {
 866:cgmss.c       ****         CyBle_Set16ByPtr(&pdu[ptr], cgmt.quality);
 3016              		.loc 1 866 0
 3017 012e 2723     		movs	r3, #39
 3018 0130 FB18     		adds	r3, r7, r3
 3019 0132 1B78     		ldrb	r3, [r3]
 3020 0134 1422     		movs	r2, #20
 3021 0136 BA18     		adds	r2, r7, r2
 3022 0138 D218     		adds	r2, r2, r3
 3023 013a 3B00     		movs	r3, r7
 3024 013c DB89     		ldrh	r3, [r3, #14]
 3025 013e 1900     		movs	r1, r3
 3026 0140 1000     		movs	r0, r2
 3027 0142 FFF7FEFF 		bl	CyBle_Set16ByPtr
 867:cgmss.c       ****         ptr += 2;
 3028              		.loc 1 867 0
 3029 0146 2723     		movs	r3, #39
 3030 0148 FB18     		adds	r3, r7, r3
 3031 014a 2722     		movs	r2, #39
 3032 014c BA18     		adds	r2, r7, r2
 3033 014e 1278     		ldrb	r2, [r2]
 3034 0150 0232     		adds	r2, r2, #2
 3035 0152 1A70     		strb	r2, [r3]
 3036              	.L148:
 868:cgmss.c       ****     }
 869:cgmss.c       ****     
 870:cgmss.c       ****     if(0u != (cgft.feature & CYBLE_CGMS_CGFT_FTR_EC))
 3037              		.loc 1 870 0
 3038 0154 464B     		ldr	r3, .L156
 3039 0156 1A68     		ldr	r2, [r3]
 3040 0158 8023     		movs	r3, #128
 3041 015a 5B01     		lsls	r3, r3, #5
 3042 015c 1340     		ands	r3, r2
 3043 015e 22D0     		beq	.L149
 871:cgmss.c       ****     {
 872:cgmss.c       ****         /* Size includes crc field */
 873:cgmss.c       **** 	    pdu[0u] = ptr + 2;
 3044              		.loc 1 873 0
 3045 0160 2723     		movs	r3, #39
 3046 0162 FB18     		adds	r3, r7, r3
 3047 0164 1B78     		ldrb	r3, [r3]
 3048 0166 0233     		adds	r3, r3, #2
 3049 0168 DAB2     		uxtb	r2, r3
ARM GAS  C:\Users\cypress\AppData\Local\Temp\ccgxY6Ea.s 			page 80


 3050 016a 1423     		movs	r3, #20
 3051 016c FB18     		adds	r3, r7, r3
 3052 016e 1A70     		strb	r2, [r3]
 874:cgmss.c       ****         CyBle_Set16ByPtr(&pdu[ptr], CgmsCrc(ptr, pdu));
 3053              		.loc 1 874 0
 3054 0170 2723     		movs	r3, #39
 3055 0172 FB18     		adds	r3, r7, r3
 3056 0174 1B78     		ldrb	r3, [r3]
 3057 0176 1422     		movs	r2, #20
 3058 0178 BA18     		adds	r2, r7, r2
 3059 017a D418     		adds	r4, r2, r3
 3060 017c 1423     		movs	r3, #20
 3061 017e FA18     		adds	r2, r7, r3
 3062 0180 2723     		movs	r3, #39
 3063 0182 FB18     		adds	r3, r7, r3
 3064 0184 1B78     		ldrb	r3, [r3]
 3065 0186 1100     		movs	r1, r2
 3066 0188 1800     		movs	r0, r3
 3067 018a FFF7FEFF 		bl	CgmsCrc
 3068 018e 0300     		movs	r3, r0
 3069 0190 1900     		movs	r1, r3
 3070 0192 2000     		movs	r0, r4
 3071 0194 FFF7FEFF 		bl	CyBle_Set16ByPtr
 875:cgmss.c       ****         ptr = pdu[0u];
 3072              		.loc 1 875 0
 3073 0198 2723     		movs	r3, #39
 3074 019a FB18     		adds	r3, r7, r3
 3075 019c 1422     		movs	r2, #20
 3076 019e BA18     		adds	r2, r7, r2
 3077 01a0 1278     		ldrb	r2, [r2]
 3078 01a2 1A70     		strb	r2, [r3]
 3079 01a4 05E0     		b	.L150
 3080              	.L149:
 876:cgmss.c       ****     }
 877:cgmss.c       ****     else
 878:cgmss.c       ****     {
 879:cgmss.c       ****         pdu[0u] = ptr;
 3081              		.loc 1 879 0
 3082 01a6 1423     		movs	r3, #20
 3083 01a8 FB18     		adds	r3, r7, r3
 3084 01aa 2722     		movs	r2, #39
 3085 01ac BA18     		adds	r2, r7, r2
 3086 01ae 1278     		ldrb	r2, [r2]
 3087 01b0 1A70     		strb	r2, [r3]
 3088              	.L150:
 880:cgmss.c       ****     }
 881:cgmss.c       ****         
 882:cgmss.c       ****     do
 883:cgmss.c       ****     {
 884:cgmss.c       ****         CyBle_ProcessEvents();
 3089              		.loc 1 884 0 discriminator 1
 3090 01b2 FFF7FEFF 		bl	CyBle_ProcessEvents
 885:cgmss.c       ****     }
 886:cgmss.c       ****     while(CyBle_GattGetBusyStatus() == CYBLE_STACK_STATE_BUSY);
 3091              		.loc 1 886 0 discriminator 1
 3092 01b6 2F4B     		ldr	r3, .L156+4
 3093 01b8 1B78     		ldrb	r3, [r3]
ARM GAS  C:\Users\cypress\AppData\Local\Temp\ccgxY6Ea.s 			page 81


 3094 01ba DBB2     		uxtb	r3, r3
 3095 01bc 2722     		movs	r2, #39
 3096 01be BA18     		adds	r2, r7, r2
 3097 01c0 2721     		movs	r1, #39
 3098 01c2 7918     		adds	r1, r7, r1
 3099 01c4 0978     		ldrb	r1, [r1]
 3100 01c6 1170     		strb	r1, [r2]
 3101 01c8 012B     		cmp	r3, #1
 3102 01ca F2D0     		beq	.L150
 887:cgmss.c       ****     
 888:cgmss.c       ****     apiResult = CyBle_CgmssSendNotification(cyBle_connHandle, CYBLE_CGMS_CGMT, ptr, pdu);
 3103              		.loc 1 888 0
 3104 01cc 1423     		movs	r3, #20
 3105 01ce FC18     		adds	r4, r7, r3
 3106 01d0 2723     		movs	r3, #39
 3107 01d2 FB18     		adds	r3, r7, r3
 3108 01d4 1978     		ldrb	r1, [r3]
 3109 01d6 284B     		ldr	r3, .L156+8
 3110 01d8 1A78     		ldrb	r2, [r3]
 3111 01da 5B78     		ldrb	r3, [r3, #1]
 3112 01dc 1B02     		lsls	r3, r3, #8
 3113 01de 1343     		orrs	r3, r2
 3114 01e0 0020     		movs	r0, #0
 3115 01e2 1B04     		lsls	r3, r3, #16
 3116 01e4 1B0C     		lsrs	r3, r3, #16
 3117 01e6 020C     		lsrs	r2, r0, #16
 3118 01e8 1204     		lsls	r2, r2, #16
 3119 01ea 1343     		orrs	r3, r2
 3120 01ec 1800     		movs	r0, r3
 3121 01ee 2300     		movs	r3, r4
 3122 01f0 0A00     		movs	r2, r1
 3123 01f2 0021     		movs	r1, #0
 3124 01f4 FFF7FEFF 		bl	CyBle_CgmssSendNotification
 3125 01f8 0300     		movs	r3, r0
 3126 01fa 1A00     		movs	r2, r3
 3127 01fc 1F4B     		ldr	r3, .L156+12
 3128 01fe 1A80     		strh	r2, [r3]
 889:cgmss.c       **** 	if(apiResult != CYBLE_ERROR_OK)
 3129              		.loc 1 889 0
 3130 0200 1E4B     		ldr	r3, .L156+12
 3131 0202 1B88     		ldrh	r3, [r3]
 3132 0204 002B     		cmp	r3, #0
 3133 0206 06D0     		beq	.L151
 890:cgmss.c       **** 	{
 891:cgmss.c       **** 		DBG_PRINTF("CgmsSendCgmtNtf API Error: ");
 3134              		.loc 1 891 0
 3135 0208 1D4B     		ldr	r3, .L156+16
 3136 020a 1800     		movs	r0, r3
 3137 020c FFF7FEFF 		bl	printf
 892:cgmss.c       ****         PrintApiResult();
 3138              		.loc 1 892 0
 3139 0210 FFF7FEFF 		bl	PrintApiResult
 893:cgmss.c       **** 	}
 894:cgmss.c       ****     else
 895:cgmss.c       ****     {
 896:cgmss.c       ****         DBG_PRINTF("Cgmt Ntf: ");
 897:cgmss.c       ****         for(b = 0; b < ptr; b++)
ARM GAS  C:\Users\cypress\AppData\Local\Temp\ccgxY6Ea.s 			page 82


 898:cgmss.c       ****         {
 899:cgmss.c       ****             DBG_PRINTF("%2.2x ", pdu[b]);
 900:cgmss.c       ****         }
 901:cgmss.c       ****         DBG_PRINTF("\r\n");
 902:cgmss.c       ****     }
 903:cgmss.c       **** }
 3140              		.loc 1 903 0
 3141 0214 27E0     		b	.L155
 3142              	.L151:
 896:cgmss.c       ****         for(b = 0; b < ptr; b++)
 3143              		.loc 1 896 0
 3144 0216 1B4B     		ldr	r3, .L156+20
 3145 0218 1800     		movs	r0, r3
 3146 021a FFF7FEFF 		bl	printf
 897:cgmss.c       ****         {
 3147              		.loc 1 897 0
 3148 021e 2623     		movs	r3, #38
 3149 0220 FB18     		adds	r3, r7, r3
 3150 0222 0022     		movs	r2, #0
 3151 0224 1A70     		strb	r2, [r3]
 3152 0226 12E0     		b	.L153
 3153              	.L154:
 899:cgmss.c       ****         }
 3154              		.loc 1 899 0 discriminator 3
 3155 0228 2623     		movs	r3, #38
 3156 022a FB18     		adds	r3, r7, r3
 3157 022c 1B78     		ldrb	r3, [r3]
 3158 022e 1422     		movs	r2, #20
 3159 0230 BA18     		adds	r2, r7, r2
 3160 0232 D35C     		ldrb	r3, [r2, r3]
 3161 0234 1A00     		movs	r2, r3
 3162 0236 144B     		ldr	r3, .L156+24
 3163 0238 1100     		movs	r1, r2
 3164 023a 1800     		movs	r0, r3
 3165 023c FFF7FEFF 		bl	printf
 897:cgmss.c       ****         {
 3166              		.loc 1 897 0 discriminator 3
 3167 0240 2623     		movs	r3, #38
 3168 0242 FB18     		adds	r3, r7, r3
 3169 0244 1A78     		ldrb	r2, [r3]
 3170 0246 2623     		movs	r3, #38
 3171 0248 FB18     		adds	r3, r7, r3
 3172 024a 0132     		adds	r2, r2, #1
 3173 024c 1A70     		strb	r2, [r3]
 3174              	.L153:
 897:cgmss.c       ****         {
 3175              		.loc 1 897 0 is_stmt 0 discriminator 1
 3176 024e 2623     		movs	r3, #38
 3177 0250 FA18     		adds	r2, r7, r3
 3178 0252 2723     		movs	r3, #39
 3179 0254 FB18     		adds	r3, r7, r3
 3180 0256 1278     		ldrb	r2, [r2]
 3181 0258 1B78     		ldrb	r3, [r3]
 3182 025a 9A42     		cmp	r2, r3
 3183 025c E4D3     		bcc	.L154
 901:cgmss.c       ****     }
 3184              		.loc 1 901 0 is_stmt 1
ARM GAS  C:\Users\cypress\AppData\Local\Temp\ccgxY6Ea.s 			page 83


 3185 025e 0B4B     		ldr	r3, .L156+28
 3186 0260 1800     		movs	r0, r3
 3187 0262 FFF7FEFF 		bl	puts
 3188              	.L155:
 3189              		.loc 1 903 0
 3190 0266 C046     		nop
 3191 0268 BD46     		mov	sp, r7
 3192 026a 0BB0     		add	sp, sp, #44
 3193              		@ sp needed
 3194 026c 90BD     		pop	{r4, r7, pc}
 3195              	.L157:
 3196 026e C046     		.align	2
 3197              	.L156:
 3198 0270 00000000 		.word	cgft
 3199 0274 00000000 		.word	cyBle_busyStatus
 3200 0278 00000000 		.word	cyBle_connHandle
 3201 027c 00000000 		.word	apiResult
 3202 0280 FC0A0000 		.word	.LC217
 3203 0284 180B0000 		.word	.LC219
 3204 0288 40010000 		.word	.LC38
 3205 028c 48010000 		.word	.LC40
 3206              		.cfi_endproc
 3207              	.LFE42:
 3208              		.size	CgmsSendCgmtNtf, .-CgmsSendCgmtNtf
 3209              		.section	.text.CgmsRacpOpCodeProcess,"ax",%progbits
 3210              		.align	2
 3211              		.global	CgmsRacpOpCodeProcess
 3212              		.code	16
 3213              		.thumb_func
 3214              		.type	CgmsRacpOpCodeProcess, %function
 3215              	CgmsRacpOpCodeProcess:
 3216              	.LFB43:
 904:cgmss.c       **** 
 905:cgmss.c       **** 
 906:cgmss.c       **** /******************************************************************************
 907:cgmss.c       **** ##Function Name: CgmsRacpOpCodeProcess
 908:cgmss.c       **** *******************************************************************************
 909:cgmss.c       **** 
 910:cgmss.c       **** Summary:
 911:cgmss.c       ****   Processes the CGM record depending on RACP OpCode.
 912:cgmss.c       **** 
 913:cgmss.c       **** Parameters:
 914:cgmss.c       ****   uint8 recNum: the number of the CGM record.
 915:cgmss.c       **** 
 916:cgmss.c       **** Return:
 917:cgmss.c       ****   None. 
 918:cgmss.c       **** 
 919:cgmss.c       **** ******************************************************************************/
 920:cgmss.c       **** void CgmsRacpOpCodeProcess(uint8 recNum)
 921:cgmss.c       **** {
 3217              		.loc 1 921 0
 3218              		.cfi_startproc
 3219              		@ args = 0, pretend = 0, frame = 8
 3220              		@ frame_needed = 1, uses_anonymous_args = 0
 3221 0000 90B5     		push	{r4, r7, lr}
 3222              		.cfi_def_cfa_offset 12
 3223              		.cfi_offset 4, -12
ARM GAS  C:\Users\cypress\AppData\Local\Temp\ccgxY6Ea.s 			page 84


 3224              		.cfi_offset 7, -8
 3225              		.cfi_offset 14, -4
 3226 0002 83B0     		sub	sp, sp, #12
 3227              		.cfi_def_cfa_offset 24
 3228 0004 00AF     		add	r7, sp, #0
 3229              		.cfi_def_cfa_register 7
 3230 0006 0200     		movs	r2, r0
 3231 0008 FB1D     		adds	r3, r7, #7
 3232 000a 1A70     		strb	r2, [r3]
 922:cgmss.c       ****     attr[3u] = CYBLE_CGMS_RACP_RSP_SUCCESS;
 3233              		.loc 1 922 0
 3234 000c 164B     		ldr	r3, .L165
 3235 000e 0122     		movs	r2, #1
 3236 0010 DA70     		strb	r2, [r3, #3]
 923:cgmss.c       ****     
 924:cgmss.c       ****     switch(racpOpCode)
 3237              		.loc 1 924 0
 3238 0012 164B     		ldr	r3, .L165+4
 3239 0014 1B78     		ldrb	r3, [r3]
 3240 0016 022B     		cmp	r3, #2
 3241 0018 18D0     		beq	.L160
 3242 001a 042B     		cmp	r3, #4
 3243 001c 0FD0     		beq	.L161
 3244 001e 012B     		cmp	r3, #1
 3245 0020 1AD1     		bne	.L164
 925:cgmss.c       ****     {
 926:cgmss.c       ****         case CYBLE_CGMS_RACP_OPC_REPORT_REC:
 927:cgmss.c       ****             CgmsSendCgmtNtf(cgmt[recNum]);
 3246              		.loc 1 927 0
 3247 0022 FB1D     		adds	r3, r7, #7
 3248 0024 1B78     		ldrb	r3, [r3]
 3249 0026 124C     		ldr	r4, .L165+8
 3250 0028 1B01     		lsls	r3, r3, #4
 3251 002a 1859     		ldr	r0, [r3, r4]
 3252 002c E218     		adds	r2, r4, r3
 3253 002e 5168     		ldr	r1, [r2, #4]
 3254 0030 E218     		adds	r2, r4, r3
 3255 0032 9268     		ldr	r2, [r2, #8]
 3256 0034 E318     		adds	r3, r4, r3
 3257 0036 DB68     		ldr	r3, [r3, #12]
 3258 0038 FFF7FEFF 		bl	CgmsSendCgmtNtf
 928:cgmss.c       ****             break;
 3259              		.loc 1 928 0
 3260 003c 10E0     		b	.L163
 3261              	.L161:
 929:cgmss.c       ****             
 930:cgmss.c       ****         case CYBLE_CGMS_RACP_OPC_REPORT_NUM_REC:
 931:cgmss.c       ****             recCnt++;
 3262              		.loc 1 931 0
 3263 003e 0D4B     		ldr	r3, .L165+12
 3264 0040 1B78     		ldrb	r3, [r3]
 3265 0042 0133     		adds	r3, r3, #1
 3266 0044 DAB2     		uxtb	r2, r3
 3267 0046 0B4B     		ldr	r3, .L165+12
 3268 0048 1A70     		strb	r2, [r3]
 932:cgmss.c       ****             break;
 3269              		.loc 1 932 0
ARM GAS  C:\Users\cypress\AppData\Local\Temp\ccgxY6Ea.s 			page 85


 3270 004a 09E0     		b	.L163
 3271              	.L160:
 933:cgmss.c       ****             
 934:cgmss.c       ****         case CYBLE_CGMS_RACP_OPC_DELETE_REC:
 935:cgmss.c       ****             recStatus[recNum] = REC_STATUS_DELETED;
 3272              		.loc 1 935 0
 3273 004c FB1D     		adds	r3, r7, #7
 3274 004e 1B78     		ldrb	r3, [r3]
 3275 0050 094A     		ldr	r2, .L165+16
 3276 0052 0121     		movs	r1, #1
 3277 0054 D154     		strb	r1, [r2, r3]
 936:cgmss.c       ****             break;
 3278              		.loc 1 936 0
 3279 0056 03E0     		b	.L163
 3280              	.L164:
 937:cgmss.c       ****             
 938:cgmss.c       ****         default:
 939:cgmss.c       ****             attr[3u] = CYBLE_CGMS_RACP_RSP_UNSPRT_OPC;
 3281              		.loc 1 939 0
 3282 0058 034B     		ldr	r3, .L165
 3283 005a 0222     		movs	r2, #2
 3284 005c DA70     		strb	r2, [r3, #3]
 940:cgmss.c       ****             break;
 3285              		.loc 1 940 0
 3286 005e C046     		nop
 3287              	.L163:
 941:cgmss.c       ****     }
 942:cgmss.c       **** }
 3288              		.loc 1 942 0
 3289 0060 C046     		nop
 3290 0062 BD46     		mov	sp, r7
 3291 0064 03B0     		add	sp, sp, #12
 3292              		@ sp needed
 3293 0066 90BD     		pop	{r4, r7, pc}
 3294              	.L166:
 3295              		.align	2
 3296              	.L165:
 3297 0068 00000000 		.word	attr
 3298 006c 00000000 		.word	racpOpCode
 3299 0070 00000000 		.word	cgmt
 3300 0074 00000000 		.word	recCnt
 3301 0078 00000000 		.word	recStatus
 3302              		.cfi_endproc
 3303              	.LFE43:
 3304              		.size	CgmsRacpOpCodeProcess, .-CgmsRacpOpCodeProcess
 3305              		.section	.rodata
 3306 0b23 00       		.align	2
 3307              	.LC241:
 3308 0b24 4379426C 		.ascii	"CyBle_CgmssSendIndication API Error: \000"
 3308      655F4367 
 3308      6D737353 
 3308      656E6449 
 3308      6E646963 
 3309 0b4a 0000     		.align	2
 3310              	.LC243:
 3311 0b4c 52414350 		.ascii	"RACP Ind: \000"
 3311      20496E64 
ARM GAS  C:\Users\cypress\AppData\Local\Temp\ccgxY6Ea.s 			page 86


 3311      3A2000
 3312 0b57 00       		.align	2
 3313              	.LC254:
 3314 0b58 534F4350 		.ascii	"SOCP Ind: \000"
 3314      20496E64 
 3314      3A2000
 3315              		.section	.text.CgmsProcess,"ax",%progbits
 3316              		.align	2
 3317              		.global	CgmsProcess
 3318              		.code	16
 3319              		.thumb_func
 3320              		.type	CgmsProcess, %function
 3321              	CgmsProcess:
 3322              	.LFB44:
 943:cgmss.c       **** 
 944:cgmss.c       **** 
 945:cgmss.c       **** /******************************************************************************
 946:cgmss.c       **** ##Function Name: CgmsProcess
 947:cgmss.c       **** *******************************************************************************
 948:cgmss.c       **** 
 949:cgmss.c       **** Summary:
 950:cgmss.c       ****   Processes the CGM control points requests.
 951:cgmss.c       **** 
 952:cgmss.c       **** ******************************************************************************/
 953:cgmss.c       **** void CgmsProcess(void)
 954:cgmss.c       **** {
 3323              		.loc 1 954 0
 3324              		.cfi_startproc
 3325              		@ args = 0, pretend = 0, frame = 8
 3326              		@ frame_needed = 1, uses_anonymous_args = 0
 3327 0000 90B5     		push	{r4, r7, lr}
 3328              		.cfi_def_cfa_offset 12
 3329              		.cfi_offset 4, -12
 3330              		.cfi_offset 7, -8
 3331              		.cfi_offset 14, -4
 3332 0002 83B0     		sub	sp, sp, #12
 3333              		.cfi_def_cfa_offset 24
 3334 0004 00AF     		add	r7, sp, #0
 3335              		.cfi_def_cfa_register 7
 955:cgmss.c       ****     uint8 recNum;
 956:cgmss.c       ****             
 957:cgmss.c       ****     if((cgmsFlag & CGMS_FLAG_RACP) != 0u)
 3336              		.loc 1 957 0
 3337 0006 B64B     		ldr	r3, .L234
 3338 0008 1B78     		ldrb	r3, [r3]
 3339 000a 1A00     		movs	r2, r3
 3340 000c 0223     		movs	r3, #2
 3341 000e 1340     		ands	r3, r2
 3342 0010 00D1     		bne	.LCB2557
 3343 0012 A8E1     		b	.L168	@long jump
 3344              	.LCB2557:
 958:cgmss.c       ****     {
 959:cgmss.c       ****         switch(racpOperator)
 3345              		.loc 1 959 0
 3346 0014 B34B     		ldr	r3, .L234+4
 3347 0016 1B78     		ldrb	r3, [r3]
 3348 0018 062B     		cmp	r3, #6
ARM GAS  C:\Users\cypress\AppData\Local\Temp\ccgxY6Ea.s 			page 87


 3349 001a 00D9     		bls	.LCB2561
 3350 001c 03E1     		b	.L169	@long jump
 3351              	.LCB2561:
 3352 001e 9A00     		lsls	r2, r3, #2
 3353 0020 B14B     		ldr	r3, .L234+8
 3354 0022 D318     		adds	r3, r2, r3
 3355 0024 1B68     		ldr	r3, [r3]
 3356 0026 9F46     		mov	pc, r3
 3357              		.section	.rodata
 3358 0b63 00       		.align	2
 3359              	.L171:
 3360 0b64 28000000 		.word	.L170
 3361 0b68 6A000000 		.word	.L172
 3362 0b6c B2000000 		.word	.L173
 3363 0b70 22010000 		.word	.L174
 3364 0b74 92010000 		.word	.L175
 3365 0b78 58000000 		.word	.L176
 3366 0b7c 46000000 		.word	.L177
 3367              		.section	.text.CgmsProcess
 3368              	.L170:
 960:cgmss.c       ****         {
 961:cgmss.c       ****             case CYBLE_CGMS_RACP_OPR_NULL:
 962:cgmss.c       ****                 switch(racpOpCode)
 3369              		.loc 1 962 0
 3370 0028 B04B     		ldr	r3, .L234+12
 3371 002a 1B78     		ldrb	r3, [r3]
 3372 002c 012B     		cmp	r3, #1
 3373 002e 08DB     		blt	.L225
 3374 0030 022B     		cmp	r3, #2
 3375 0032 02DD     		ble	.L179
 3376 0034 042B     		cmp	r3, #4
 3377 0036 00D0     		beq	.L179
 963:cgmss.c       ****                 {
 964:cgmss.c       ****                     case CYBLE_CGMS_RACP_OPC_REPORT_REC:
 965:cgmss.c       ****                     case CYBLE_CGMS_RACP_OPC_DELETE_REC:
 966:cgmss.c       ****                     case CYBLE_CGMS_RACP_OPC_REPORT_NUM_REC:
 967:cgmss.c       ****                         attr[3u] = CYBLE_CGMS_RACP_RSP_INV_OPR;
 968:cgmss.c       ****                         break;
 969:cgmss.c       ****                         
 970:cgmss.c       ****                     default:
 971:cgmss.c       ****                         break;
 3378              		.loc 1 971 0
 3379 0038 03E0     		b	.L225
 3380              	.L179:
 967:cgmss.c       ****                         break;
 3381              		.loc 1 967 0
 3382 003a AD4B     		ldr	r3, .L234+16
 3383 003c 0322     		movs	r2, #3
 3384 003e DA70     		strb	r2, [r3, #3]
 968:cgmss.c       ****                         
 3385              		.loc 1 968 0
 3386 0040 00E0     		b	.L180
 3387              	.L225:
 3388              		.loc 1 971 0
 3389 0042 C046     		nop
 3390              	.L180:
 972:cgmss.c       ****                 }
ARM GAS  C:\Users\cypress\AppData\Local\Temp\ccgxY6Ea.s 			page 88


 973:cgmss.c       ****                 break;
 3391              		.loc 1 973 0 discriminator 1
 3392 0044 FEE0     		b	.L181
 3393              	.L177:
 974:cgmss.c       ****             
 975:cgmss.c       ****             case CYBLE_CGMS_RACP_OPR_LAST:
 976:cgmss.c       ****                 if(CYBLE_CGMS_RACP_RSP_SUCCESS == attr[3u])
 3394              		.loc 1 976 0
 3395 0046 AA4B     		ldr	r3, .L234+16
 3396 0048 DB78     		ldrb	r3, [r3, #3]
 3397 004a 012B     		cmp	r3, #1
 3398 004c 00D0     		beq	.LCB2602
 3399 004e EEE0     		b	.L226	@long jump
 3400              	.LCB2602:
 977:cgmss.c       ****                 {
 978:cgmss.c       ****                     CgmsRacpOpCodeProcess(REC_NUM - 1u);
 3401              		.loc 1 978 0
 3402 0050 0220     		movs	r0, #2
 3403 0052 FFF7FEFF 		bl	CgmsRacpOpCodeProcess
 979:cgmss.c       ****                 }
 980:cgmss.c       ****                 break;
 3404              		.loc 1 980 0
 3405 0056 EAE0     		b	.L226
 3406              	.L176:
 981:cgmss.c       ****                 
 982:cgmss.c       ****             case CYBLE_CGMS_RACP_OPR_FIRST:
 983:cgmss.c       ****                 if(CYBLE_CGMS_RACP_RSP_SUCCESS == attr[3u])
 3407              		.loc 1 983 0
 3408 0058 A54B     		ldr	r3, .L234+16
 3409 005a DB78     		ldrb	r3, [r3, #3]
 3410 005c 012B     		cmp	r3, #1
 3411 005e 00D0     		beq	.LCB2612
 3412 0060 E7E0     		b	.L227	@long jump
 3413              	.LCB2612:
 984:cgmss.c       ****                 {
 985:cgmss.c       ****                     CgmsRacpOpCodeProcess(0u);
 3414              		.loc 1 985 0
 3415 0062 0020     		movs	r0, #0
 3416 0064 FFF7FEFF 		bl	CgmsRacpOpCodeProcess
 986:cgmss.c       ****                 }
 987:cgmss.c       ****                 break;
 3417              		.loc 1 987 0
 3418 0068 E3E0     		b	.L227
 3419              	.L172:
 988:cgmss.c       ****                 
 989:cgmss.c       ****             case CYBLE_CGMS_RACP_OPR_ALL:
 990:cgmss.c       ****                 if(CYBLE_CGMS_RACP_RSP_SUCCESS == attr[3u])
 3420              		.loc 1 990 0
 3421 006a A14B     		ldr	r3, .L234+16
 3422 006c DB78     		ldrb	r3, [r3, #3]
 3423 006e 012B     		cmp	r3, #1
 3424 0070 00D0     		beq	.LCB2622
 3425 0072 E0E0     		b	.L228	@long jump
 3426              	.LCB2622:
 991:cgmss.c       ****                 {
 992:cgmss.c       ****                     attr[3u] = CYBLE_CGMS_RACP_RSP_NO_REC;
 3427              		.loc 1 992 0
ARM GAS  C:\Users\cypress\AppData\Local\Temp\ccgxY6Ea.s 			page 89


 3428 0074 9E4B     		ldr	r3, .L234+16
 3429 0076 0622     		movs	r2, #6
 3430 0078 DA70     		strb	r2, [r3, #3]
 993:cgmss.c       ****                     recCnt = 0u;
 3431              		.loc 1 993 0
 3432 007a 9E4B     		ldr	r3, .L234+20
 3433 007c 0022     		movs	r2, #0
 3434 007e 1A70     		strb	r2, [r3]
 994:cgmss.c       ****                     for(recNum = 0u; recNum < REC_NUM; recNum++)
 3435              		.loc 1 994 0
 3436 0080 FB1D     		adds	r3, r7, #7
 3437 0082 0022     		movs	r2, #0
 3438 0084 1A70     		strb	r2, [r3]
 3439 0086 0FE0     		b	.L185
 3440              	.L187:
 995:cgmss.c       ****                     {  
 996:cgmss.c       ****                         if(REC_STATUS_OK == recStatus[recNum])
 3441              		.loc 1 996 0
 3442 0088 FB1D     		adds	r3, r7, #7
 3443 008a 1B78     		ldrb	r3, [r3]
 3444 008c 9A4A     		ldr	r2, .L234+24
 3445 008e D35C     		ldrb	r3, [r2, r3]
 3446 0090 002B     		cmp	r3, #0
 3447 0092 04D1     		bne	.L186
 997:cgmss.c       ****                         {
 998:cgmss.c       ****                             CgmsRacpOpCodeProcess(recNum);
 3448              		.loc 1 998 0
 3449 0094 FB1D     		adds	r3, r7, #7
 3450 0096 1B78     		ldrb	r3, [r3]
 3451 0098 1800     		movs	r0, r3
 3452 009a FFF7FEFF 		bl	CgmsRacpOpCodeProcess
 3453              	.L186:
 994:cgmss.c       ****                     {  
 3454              		.loc 1 994 0 discriminator 2
 3455 009e FB1D     		adds	r3, r7, #7
 3456 00a0 1A78     		ldrb	r2, [r3]
 3457 00a2 FB1D     		adds	r3, r7, #7
 3458 00a4 0132     		adds	r2, r2, #1
 3459 00a6 1A70     		strb	r2, [r3]
 3460              	.L185:
 994:cgmss.c       ****                     {  
 3461              		.loc 1 994 0 is_stmt 0 discriminator 1
 3462 00a8 FB1D     		adds	r3, r7, #7
 3463 00aa 1B78     		ldrb	r3, [r3]
 3464 00ac 022B     		cmp	r3, #2
 3465 00ae EBD9     		bls	.L187
 999:cgmss.c       ****                         } 
1000:cgmss.c       ****                     }
1001:cgmss.c       ****                 }
1002:cgmss.c       ****                 break;
 3466              		.loc 1 1002 0 is_stmt 1
 3467 00b0 C1E0     		b	.L228
 3468              	.L173:
1003:cgmss.c       ****                 
1004:cgmss.c       ****             case CYBLE_CGMS_RACP_OPR_LESS:
1005:cgmss.c       ****                 if(CYBLE_CGMS_RACP_RSP_SUCCESS == attr[3u])
 3469              		.loc 1 1005 0
ARM GAS  C:\Users\cypress\AppData\Local\Temp\ccgxY6Ea.s 			page 90


 3470 00b2 8F4B     		ldr	r3, .L234+16
 3471 00b4 DB78     		ldrb	r3, [r3, #3]
 3472 00b6 012B     		cmp	r3, #1
 3473 00b8 00D0     		beq	.LCB2666
 3474 00ba BEE0     		b	.L229	@long jump
 3475              	.LCB2666:
1006:cgmss.c       ****                 {
1007:cgmss.c       ****                     attr[3] = CYBLE_CGMS_RACP_RSP_NO_REC;
 3476              		.loc 1 1007 0
 3477 00bc 8C4B     		ldr	r3, .L234+16
 3478 00be 0622     		movs	r2, #6
 3479 00c0 DA70     		strb	r2, [r3, #3]
1008:cgmss.c       ****                     
1009:cgmss.c       ****                     if(CYBLE_CGMS_RACP_OPD_1 == racpOperand[0u])
 3480              		.loc 1 1009 0
 3481 00c2 8E4B     		ldr	r3, .L234+28
 3482 00c4 1B78     		ldrb	r3, [r3]
 3483 00c6 012B     		cmp	r3, #1
 3484 00c8 27D1     		bne	.L189
1010:cgmss.c       ****                     {
1011:cgmss.c       ****                         recCnt = 0u;
 3485              		.loc 1 1011 0
 3486 00ca 8A4B     		ldr	r3, .L234+20
 3487 00cc 0022     		movs	r2, #0
 3488 00ce 1A70     		strb	r2, [r3]
1012:cgmss.c       ****                         for(recNum = 0; recNum < REC_NUM; recNum++)
 3489              		.loc 1 1012 0
 3490 00d0 FB1D     		adds	r3, r7, #7
 3491 00d2 0022     		movs	r2, #0
 3492 00d4 1A70     		strb	r2, [r3]
 3493 00d6 1BE0     		b	.L190
 3494              	.L192:
1013:cgmss.c       ****                         {
1014:cgmss.c       ****                             if((cgmt[recNum].timeOffset <= racpOperand[1u]) && (REC_STATUS_OK == re
 3495              		.loc 1 1014 0
 3496 00d8 FB1D     		adds	r3, r7, #7
 3497 00da 1B78     		ldrb	r3, [r3]
 3498 00dc 884A     		ldr	r2, .L234+32
 3499 00de 1B01     		lsls	r3, r3, #4
 3500 00e0 D318     		adds	r3, r2, r3
 3501 00e2 0433     		adds	r3, r3, #4
 3502 00e4 1A88     		ldrh	r2, [r3]
 3503 00e6 854B     		ldr	r3, .L234+28
 3504 00e8 5B78     		ldrb	r3, [r3, #1]
 3505 00ea 9BB2     		uxth	r3, r3
 3506 00ec 9A42     		cmp	r2, r3
 3507 00ee 0AD8     		bhi	.L191
 3508              		.loc 1 1014 0 is_stmt 0 discriminator 1
 3509 00f0 FB1D     		adds	r3, r7, #7
 3510 00f2 1B78     		ldrb	r3, [r3]
 3511 00f4 804A     		ldr	r2, .L234+24
 3512 00f6 D35C     		ldrb	r3, [r2, r3]
 3513 00f8 002B     		cmp	r3, #0
 3514 00fa 04D1     		bne	.L191
1015:cgmss.c       ****                             {
1016:cgmss.c       ****                                 CgmsRacpOpCodeProcess(recNum);
 3515              		.loc 1 1016 0 is_stmt 1
ARM GAS  C:\Users\cypress\AppData\Local\Temp\ccgxY6Ea.s 			page 91


 3516 00fc FB1D     		adds	r3, r7, #7
 3517 00fe 1B78     		ldrb	r3, [r3]
 3518 0100 1800     		movs	r0, r3
 3519 0102 FFF7FEFF 		bl	CgmsRacpOpCodeProcess
 3520              	.L191:
1012:cgmss.c       ****                         {
 3521              		.loc 1 1012 0 discriminator 2
 3522 0106 FB1D     		adds	r3, r7, #7
 3523 0108 1A78     		ldrb	r2, [r3]
 3524 010a FB1D     		adds	r3, r7, #7
 3525 010c 0132     		adds	r2, r2, #1
 3526 010e 1A70     		strb	r2, [r3]
 3527              	.L190:
1012:cgmss.c       ****                         {
 3528              		.loc 1 1012 0 is_stmt 0 discriminator 1
 3529 0110 FB1D     		adds	r3, r7, #7
 3530 0112 1B78     		ldrb	r3, [r3]
 3531 0114 022B     		cmp	r3, #2
 3532 0116 DFD9     		bls	.L192
1017:cgmss.c       ****                             }    
1018:cgmss.c       ****                         }
1019:cgmss.c       ****                     }
1020:cgmss.c       ****                     else
1021:cgmss.c       ****                     {
1022:cgmss.c       ****                         attr[3u] = CYBLE_CGMS_RACP_RSP_UNSPRT_OPD;
1023:cgmss.c       ****                     }
1024:cgmss.c       ****                 }
1025:cgmss.c       ****                 break;
 3533              		.loc 1 1025 0 is_stmt 1
 3534 0118 8FE0     		b	.L229
 3535              	.L189:
1022:cgmss.c       ****                     }
 3536              		.loc 1 1022 0
 3537 011a 754B     		ldr	r3, .L234+16
 3538 011c 0922     		movs	r2, #9
 3539 011e DA70     		strb	r2, [r3, #3]
 3540              		.loc 1 1025 0
 3541 0120 8BE0     		b	.L229
 3542              	.L174:
1026:cgmss.c       ****                 
1027:cgmss.c       ****             case CYBLE_CGMS_RACP_OPR_GREAT:
1028:cgmss.c       ****                 if(CYBLE_CGMS_RACP_RSP_SUCCESS == attr[3u])
 3543              		.loc 1 1028 0
 3544 0122 734B     		ldr	r3, .L234+16
 3545 0124 DB78     		ldrb	r3, [r3, #3]
 3546 0126 012B     		cmp	r3, #1
 3547 0128 00D0     		beq	.LCB2733
 3548 012a 88E0     		b	.L230	@long jump
 3549              	.LCB2733:
1029:cgmss.c       ****                 {
1030:cgmss.c       ****                     attr[3u] = CYBLE_CGMS_RACP_RSP_NO_REC;
 3550              		.loc 1 1030 0
 3551 012c 704B     		ldr	r3, .L234+16
 3552 012e 0622     		movs	r2, #6
 3553 0130 DA70     		strb	r2, [r3, #3]
1031:cgmss.c       ****                     
1032:cgmss.c       ****                     if(CYBLE_CGMS_RACP_OPD_1 == racpOperand[0u])
ARM GAS  C:\Users\cypress\AppData\Local\Temp\ccgxY6Ea.s 			page 92


 3554              		.loc 1 1032 0
 3555 0132 724B     		ldr	r3, .L234+28
 3556 0134 1B78     		ldrb	r3, [r3]
 3557 0136 012B     		cmp	r3, #1
 3558 0138 27D1     		bne	.L194
1033:cgmss.c       ****                     {
1034:cgmss.c       ****                         recCnt = 0u;
 3559              		.loc 1 1034 0
 3560 013a 6E4B     		ldr	r3, .L234+20
 3561 013c 0022     		movs	r2, #0
 3562 013e 1A70     		strb	r2, [r3]
1035:cgmss.c       ****                         for(recNum = 0; recNum < REC_NUM; recNum++)
 3563              		.loc 1 1035 0
 3564 0140 FB1D     		adds	r3, r7, #7
 3565 0142 0022     		movs	r2, #0
 3566 0144 1A70     		strb	r2, [r3]
 3567 0146 1BE0     		b	.L195
 3568              	.L197:
1036:cgmss.c       ****                         {
1037:cgmss.c       ****                             if((cgmt[recNum].timeOffset >= racpOperand[1u]) && (REC_STATUS_OK == re
 3569              		.loc 1 1037 0
 3570 0148 FB1D     		adds	r3, r7, #7
 3571 014a 1B78     		ldrb	r3, [r3]
 3572 014c 6C4A     		ldr	r2, .L234+32
 3573 014e 1B01     		lsls	r3, r3, #4
 3574 0150 D318     		adds	r3, r2, r3
 3575 0152 0433     		adds	r3, r3, #4
 3576 0154 1A88     		ldrh	r2, [r3]
 3577 0156 694B     		ldr	r3, .L234+28
 3578 0158 5B78     		ldrb	r3, [r3, #1]
 3579 015a 9BB2     		uxth	r3, r3
 3580 015c 9A42     		cmp	r2, r3
 3581 015e 0AD3     		bcc	.L196
 3582              		.loc 1 1037 0 is_stmt 0 discriminator 1
 3583 0160 FB1D     		adds	r3, r7, #7
 3584 0162 1B78     		ldrb	r3, [r3]
 3585 0164 644A     		ldr	r2, .L234+24
 3586 0166 D35C     		ldrb	r3, [r2, r3]
 3587 0168 002B     		cmp	r3, #0
 3588 016a 04D1     		bne	.L196
1038:cgmss.c       ****                             {
1039:cgmss.c       ****                                 CgmsRacpOpCodeProcess(recNum);
 3589              		.loc 1 1039 0 is_stmt 1
 3590 016c FB1D     		adds	r3, r7, #7
 3591 016e 1B78     		ldrb	r3, [r3]
 3592 0170 1800     		movs	r0, r3
 3593 0172 FFF7FEFF 		bl	CgmsRacpOpCodeProcess
 3594              	.L196:
1035:cgmss.c       ****                         {
 3595              		.loc 1 1035 0 discriminator 2
 3596 0176 FB1D     		adds	r3, r7, #7
 3597 0178 1A78     		ldrb	r2, [r3]
 3598 017a FB1D     		adds	r3, r7, #7
 3599 017c 0132     		adds	r2, r2, #1
 3600 017e 1A70     		strb	r2, [r3]
 3601              	.L195:
1035:cgmss.c       ****                         {
ARM GAS  C:\Users\cypress\AppData\Local\Temp\ccgxY6Ea.s 			page 93


 3602              		.loc 1 1035 0 is_stmt 0 discriminator 1
 3603 0180 FB1D     		adds	r3, r7, #7
 3604 0182 1B78     		ldrb	r3, [r3]
 3605 0184 022B     		cmp	r3, #2
 3606 0186 DFD9     		bls	.L197
1040:cgmss.c       ****                             }    
1041:cgmss.c       ****                         }
1042:cgmss.c       ****                     }
1043:cgmss.c       ****                     else
1044:cgmss.c       ****                     {
1045:cgmss.c       ****                         attr[3u] = CYBLE_CGMS_RACP_RSP_UNSPRT_OPD;
1046:cgmss.c       ****                     }
1047:cgmss.c       ****                 }
1048:cgmss.c       ****                 break;
 3607              		.loc 1 1048 0 is_stmt 1
 3608 0188 59E0     		b	.L230
 3609              	.L194:
1045:cgmss.c       ****                     }
 3610              		.loc 1 1045 0
 3611 018a 594B     		ldr	r3, .L234+16
 3612 018c 0922     		movs	r2, #9
 3613 018e DA70     		strb	r2, [r3, #3]
 3614              		.loc 1 1048 0
 3615 0190 55E0     		b	.L230
 3616              	.L175:
1049:cgmss.c       ****                 
1050:cgmss.c       ****             case CYBLE_CGMS_RACP_OPR_WITHIN:
1051:cgmss.c       ****                 if(CYBLE_CGMS_RACP_RSP_SUCCESS == attr[3u])
 3617              		.loc 1 1051 0
 3618 0192 574B     		ldr	r3, .L234+16
 3619 0194 DB78     		ldrb	r3, [r3, #3]
 3620 0196 012B     		cmp	r3, #1
 3621 0198 53D1     		bne	.L231
1052:cgmss.c       ****                 {
1053:cgmss.c       ****                     attr[3u] = CYBLE_CGMS_RACP_RSP_NO_REC;
 3622              		.loc 1 1053 0
 3623 019a 554B     		ldr	r3, .L234+16
 3624 019c 0622     		movs	r2, #6
 3625 019e DA70     		strb	r2, [r3, #3]
1054:cgmss.c       ****                     
1055:cgmss.c       ****                     if(CYBLE_CGMS_RACP_OPD_1 == racpOperand[0u])
 3626              		.loc 1 1055 0
 3627 01a0 564B     		ldr	r3, .L234+28
 3628 01a2 1B78     		ldrb	r3, [r3]
 3629 01a4 012B     		cmp	r3, #1
 3630 01a6 3AD1     		bne	.L199
1056:cgmss.c       ****                     {
1057:cgmss.c       ****                         if(racpOperand[1] > racpOperand[2u])
 3631              		.loc 1 1057 0
 3632 01a8 544B     		ldr	r3, .L234+28
 3633 01aa 5A78     		ldrb	r2, [r3, #1]
 3634 01ac 534B     		ldr	r3, .L234+28
 3635 01ae 9B78     		ldrb	r3, [r3, #2]
 3636 01b0 9A42     		cmp	r2, r3
 3637 01b2 03D9     		bls	.L200
1058:cgmss.c       ****                         {
1059:cgmss.c       ****                             attr[3u] = CYBLE_CGMS_RACP_RSP_INV_OPD;   
ARM GAS  C:\Users\cypress\AppData\Local\Temp\ccgxY6Ea.s 			page 94


 3638              		.loc 1 1059 0
 3639 01b4 4E4B     		ldr	r3, .L234+16
 3640 01b6 0522     		movs	r2, #5
 3641 01b8 DA70     		strb	r2, [r3, #3]
1060:cgmss.c       ****                         }
1061:cgmss.c       ****                         else
1062:cgmss.c       ****                         {
1063:cgmss.c       ****                             for(recNum = 0; recNum < REC_NUM; recNum++)
1064:cgmss.c       ****                             {
1065:cgmss.c       ****                                 if((cgmt[recNum].timeOffset >= racpOperand[1u]) &&
1066:cgmss.c       ****                                     (cgmt[recNum].timeOffset <= racpOperand[2u]) &&
1067:cgmss.c       ****                                         (REC_STATUS_OK == recStatus[recNum]))
1068:cgmss.c       ****                                 {
1069:cgmss.c       ****                                     CgmsRacpOpCodeProcess(recNum);    
1070:cgmss.c       ****                                 }
1071:cgmss.c       ****                             }
1072:cgmss.c       ****                         }
1073:cgmss.c       ****                     }
1074:cgmss.c       ****                     else
1075:cgmss.c       ****                     {
1076:cgmss.c       ****                         attr[3u] = CYBLE_CGMS_RACP_RSP_UNSPRT_OPD;
1077:cgmss.c       ****                     }
1078:cgmss.c       ****                 }
1079:cgmss.c       ****                 break;
 3642              		.loc 1 1079 0
 3643 01ba 42E0     		b	.L231
 3644              	.L200:
1063:cgmss.c       ****                             {
 3645              		.loc 1 1063 0
 3646 01bc FB1D     		adds	r3, r7, #7
 3647 01be 0022     		movs	r2, #0
 3648 01c0 1A70     		strb	r2, [r3]
 3649 01c2 27E0     		b	.L201
 3650              	.L203:
1065:cgmss.c       ****                                     (cgmt[recNum].timeOffset <= racpOperand[2u]) &&
 3651              		.loc 1 1065 0
 3652 01c4 FB1D     		adds	r3, r7, #7
 3653 01c6 1B78     		ldrb	r3, [r3]
 3654 01c8 4D4A     		ldr	r2, .L234+32
 3655 01ca 1B01     		lsls	r3, r3, #4
 3656 01cc D318     		adds	r3, r2, r3
 3657 01ce 0433     		adds	r3, r3, #4
 3658 01d0 1A88     		ldrh	r2, [r3]
 3659 01d2 4A4B     		ldr	r3, .L234+28
 3660 01d4 5B78     		ldrb	r3, [r3, #1]
 3661 01d6 9BB2     		uxth	r3, r3
 3662 01d8 9A42     		cmp	r2, r3
 3663 01da 16D3     		bcc	.L202
1066:cgmss.c       ****                                         (REC_STATUS_OK == recStatus[recNum]))
 3664              		.loc 1 1066 0 discriminator 1
 3665 01dc FB1D     		adds	r3, r7, #7
 3666 01de 1B78     		ldrb	r3, [r3]
 3667 01e0 474A     		ldr	r2, .L234+32
 3668 01e2 1B01     		lsls	r3, r3, #4
 3669 01e4 D318     		adds	r3, r2, r3
 3670 01e6 0433     		adds	r3, r3, #4
 3671 01e8 1A88     		ldrh	r2, [r3]
ARM GAS  C:\Users\cypress\AppData\Local\Temp\ccgxY6Ea.s 			page 95


 3672 01ea 444B     		ldr	r3, .L234+28
 3673 01ec 9B78     		ldrb	r3, [r3, #2]
 3674 01ee 9BB2     		uxth	r3, r3
1065:cgmss.c       ****                                     (cgmt[recNum].timeOffset <= racpOperand[2u]) &&
 3675              		.loc 1 1065 0 discriminator 1
 3676 01f0 9A42     		cmp	r2, r3
 3677 01f2 0AD8     		bhi	.L202
1067:cgmss.c       ****                                 {
 3678              		.loc 1 1067 0
 3679 01f4 FB1D     		adds	r3, r7, #7
 3680 01f6 1B78     		ldrb	r3, [r3]
 3681 01f8 3F4A     		ldr	r2, .L234+24
 3682 01fa D35C     		ldrb	r3, [r2, r3]
1066:cgmss.c       ****                                         (REC_STATUS_OK == recStatus[recNum]))
 3683              		.loc 1 1066 0
 3684 01fc 002B     		cmp	r3, #0
 3685 01fe 04D1     		bne	.L202
1069:cgmss.c       ****                                 }
 3686              		.loc 1 1069 0
 3687 0200 FB1D     		adds	r3, r7, #7
 3688 0202 1B78     		ldrb	r3, [r3]
 3689 0204 1800     		movs	r0, r3
 3690 0206 FFF7FEFF 		bl	CgmsRacpOpCodeProcess
 3691              	.L202:
1063:cgmss.c       ****                             {
 3692              		.loc 1 1063 0 discriminator 2
 3693 020a FB1D     		adds	r3, r7, #7
 3694 020c 1A78     		ldrb	r2, [r3]
 3695 020e FB1D     		adds	r3, r7, #7
 3696 0210 0132     		adds	r2, r2, #1
 3697 0212 1A70     		strb	r2, [r3]
 3698              	.L201:
1063:cgmss.c       ****                             {
 3699              		.loc 1 1063 0 is_stmt 0 discriminator 1
 3700 0214 FB1D     		adds	r3, r7, #7
 3701 0216 1B78     		ldrb	r3, [r3]
 3702 0218 022B     		cmp	r3, #2
 3703 021a D3D9     		bls	.L203
 3704              		.loc 1 1079 0 is_stmt 1
 3705 021c 11E0     		b	.L231
 3706              	.L199:
1076:cgmss.c       ****                     }
 3707              		.loc 1 1076 0
 3708 021e 344B     		ldr	r3, .L234+16
 3709 0220 0922     		movs	r2, #9
 3710 0222 DA70     		strb	r2, [r3, #3]
 3711              		.loc 1 1079 0
 3712 0224 0DE0     		b	.L231
 3713              	.L169:
1080:cgmss.c       ****                 
1081:cgmss.c       ****             default:
1082:cgmss.c       ****                 attr[3u] = CYBLE_CGMS_RACP_RSP_UNSPRT_OPR;
 3714              		.loc 1 1082 0
 3715 0226 324B     		ldr	r3, .L234+16
 3716 0228 0422     		movs	r2, #4
 3717 022a DA70     		strb	r2, [r3, #3]
1083:cgmss.c       ****                 break;
ARM GAS  C:\Users\cypress\AppData\Local\Temp\ccgxY6Ea.s 			page 96


 3718              		.loc 1 1083 0
 3719 022c 0AE0     		b	.L181
 3720              	.L226:
 980:cgmss.c       ****                 
 3721              		.loc 1 980 0
 3722 022e C046     		nop
 3723 0230 08E0     		b	.L181
 3724              	.L227:
 987:cgmss.c       ****                 
 3725              		.loc 1 987 0
 3726 0232 C046     		nop
 3727 0234 06E0     		b	.L181
 3728              	.L228:
1002:cgmss.c       ****                 
 3729              		.loc 1 1002 0
 3730 0236 C046     		nop
 3731 0238 04E0     		b	.L181
 3732              	.L229:
1025:cgmss.c       ****                 
 3733              		.loc 1 1025 0
 3734 023a C046     		nop
 3735 023c 02E0     		b	.L181
 3736              	.L230:
1048:cgmss.c       ****                 
 3737              		.loc 1 1048 0
 3738 023e C046     		nop
 3739 0240 00E0     		b	.L181
 3740              	.L231:
1079:cgmss.c       ****                 
 3741              		.loc 1 1079 0
 3742 0242 C046     		nop
 3743              	.L181:
1084:cgmss.c       ****         }
1085:cgmss.c       ****         
1086:cgmss.c       ****         attr[1u] = CYBLE_CGMS_RACP_OPR_NULL;
 3744              		.loc 1 1086 0
 3745 0244 2A4B     		ldr	r3, .L234+16
 3746 0246 0022     		movs	r2, #0
 3747 0248 5A70     		strb	r2, [r3, #1]
1087:cgmss.c       ****         length = 4u;
 3748              		.loc 1 1087 0
 3749 024a 2E4B     		ldr	r3, .L234+36
 3750 024c 0422     		movs	r2, #4
 3751 024e 1A70     		strb	r2, [r3]
1088:cgmss.c       ****         
1089:cgmss.c       ****         if(CYBLE_CGMS_RACP_OPC_REPORT_NUM_REC == racpOpCode)
 3752              		.loc 1 1089 0
 3753 0250 264B     		ldr	r3, .L234+12
 3754 0252 1B78     		ldrb	r3, [r3]
 3755 0254 042B     		cmp	r3, #4
 3756 0256 0AD1     		bne	.L204
1090:cgmss.c       ****         {
1091:cgmss.c       ****             attr[0u] = CYBLE_CGMS_RACP_OPC_NUM_REC_RSP;
 3757              		.loc 1 1091 0
 3758 0258 254B     		ldr	r3, .L234+16
 3759 025a 0522     		movs	r2, #5
 3760 025c 1A70     		strb	r2, [r3]
ARM GAS  C:\Users\cypress\AppData\Local\Temp\ccgxY6Ea.s 			page 97


1092:cgmss.c       ****             attr[2u] = recCnt;
 3761              		.loc 1 1092 0
 3762 025e 254B     		ldr	r3, .L234+20
 3763 0260 1A78     		ldrb	r2, [r3]
 3764 0262 234B     		ldr	r3, .L234+16
 3765 0264 9A70     		strb	r2, [r3, #2]
1093:cgmss.c       ****             attr[3u] = 0u;
 3766              		.loc 1 1093 0
 3767 0266 224B     		ldr	r3, .L234+16
 3768 0268 0022     		movs	r2, #0
 3769 026a DA70     		strb	r2, [r3, #3]
 3770 026c 06E0     		b	.L205
 3771              	.L204:
1094:cgmss.c       ****         }
1095:cgmss.c       ****         else
1096:cgmss.c       ****         {
1097:cgmss.c       ****             attr[0u] = CYBLE_CGMS_RACP_OPC_RSP_CODE;
 3772              		.loc 1 1097 0
 3773 026e 204B     		ldr	r3, .L234+16
 3774 0270 0622     		movs	r2, #6
 3775 0272 1A70     		strb	r2, [r3]
1098:cgmss.c       ****             attr[2u] = racpOpCode;
 3776              		.loc 1 1098 0
 3777 0274 1D4B     		ldr	r3, .L234+12
 3778 0276 1A78     		ldrb	r2, [r3]
 3779 0278 1D4B     		ldr	r3, .L234+16
 3780 027a 9A70     		strb	r2, [r3, #2]
 3781              	.L205:
1099:cgmss.c       ****         }
1100:cgmss.c       ****         
1101:cgmss.c       ****         do
1102:cgmss.c       ****         {
1103:cgmss.c       ****             CyBle_ProcessEvents();
 3782              		.loc 1 1103 0 discriminator 1
 3783 027c FFF7FEFF 		bl	CyBle_ProcessEvents
1104:cgmss.c       ****         }
1105:cgmss.c       ****         while(CyBle_GattGetBusyStatus() == CYBLE_STACK_STATE_BUSY);
 3784              		.loc 1 1105 0 discriminator 1
 3785 0280 214B     		ldr	r3, .L234+40
 3786 0282 1B78     		ldrb	r3, [r3]
 3787 0284 DBB2     		uxtb	r3, r3
 3788 0286 012B     		cmp	r3, #1
 3789 0288 F8D0     		beq	.L205
1106:cgmss.c       ****         
1107:cgmss.c       ****         apiResult = CyBle_CgmssSendIndication(cyBle_connHandle, CYBLE_CGMS_RACP, length, attr);
 3790              		.loc 1 1107 0
 3791 028a 1E4B     		ldr	r3, .L234+36
 3792 028c 1978     		ldrb	r1, [r3]
 3793 028e 184C     		ldr	r4, .L234+16
 3794 0290 1E4B     		ldr	r3, .L234+44
 3795 0292 1A78     		ldrb	r2, [r3]
 3796 0294 5B78     		ldrb	r3, [r3, #1]
 3797 0296 1B02     		lsls	r3, r3, #8
 3798 0298 1343     		orrs	r3, r2
 3799 029a 0020     		movs	r0, #0
 3800 029c 1B04     		lsls	r3, r3, #16
 3801 029e 1B0C     		lsrs	r3, r3, #16
ARM GAS  C:\Users\cypress\AppData\Local\Temp\ccgxY6Ea.s 			page 98


 3802 02a0 020C     		lsrs	r2, r0, #16
 3803 02a2 1204     		lsls	r2, r2, #16
 3804 02a4 1343     		orrs	r3, r2
 3805 02a6 1800     		movs	r0, r3
 3806 02a8 2300     		movs	r3, r4
 3807 02aa 0A00     		movs	r2, r1
 3808 02ac 0521     		movs	r1, #5
 3809 02ae FFF7FEFF 		bl	CyBle_CgmssSendIndication
 3810 02b2 0300     		movs	r3, r0
 3811 02b4 1A00     		movs	r2, r3
 3812 02b6 164B     		ldr	r3, .L234+48
 3813 02b8 1A80     		strh	r2, [r3]
1108:cgmss.c       ****         if(apiResult != CYBLE_ERROR_OK)
 3814              		.loc 1 1108 0
 3815 02ba 154B     		ldr	r3, .L234+48
 3816 02bc 1B88     		ldrh	r3, [r3]
 3817 02be 002B     		cmp	r3, #0
 3818 02c0 06D0     		beq	.L206
1109:cgmss.c       ****     	{
1110:cgmss.c       ****     		DBG_PRINTF("CyBle_CgmssSendIndication API Error: ");
 3819              		.loc 1 1110 0
 3820 02c2 144B     		ldr	r3, .L234+52
 3821 02c4 1800     		movs	r0, r3
 3822 02c6 FFF7FEFF 		bl	printf
1111:cgmss.c       ****             PrintApiResult();
 3823              		.loc 1 1111 0
 3824 02ca FFF7FEFF 		bl	PrintApiResult
 3825 02ce 43E0     		b	.L207
 3826              	.L206:
1112:cgmss.c       ****     	}
1113:cgmss.c       ****         else
1114:cgmss.c       ****         {
1115:cgmss.c       ****             DBG_PRINTF("RACP Ind: ");
 3827              		.loc 1 1115 0
 3828 02d0 114B     		ldr	r3, .L234+56
 3829 02d2 1800     		movs	r0, r3
 3830 02d4 FFF7FEFF 		bl	printf
1116:cgmss.c       ****             for(i = 0; i < length; i++)
 3831              		.loc 1 1116 0
 3832 02d8 104B     		ldr	r3, .L234+60
 3833 02da 0022     		movs	r2, #0
 3834 02dc 1A80     		strh	r2, [r3]
 3835 02de 30E0     		b	.L208
 3836              	.L235:
 3837              		.align	2
 3838              	.L234:
 3839 02e0 00000000 		.word	cgmsFlag
 3840 02e4 00000000 		.word	racpOperator
 3841 02e8 640B0000 		.word	.L171
 3842 02ec 00000000 		.word	racpOpCode
 3843 02f0 00000000 		.word	attr
 3844 02f4 00000000 		.word	recCnt
 3845 02f8 00000000 		.word	recStatus
 3846 02fc 00000000 		.word	racpOperand
 3847 0300 00000000 		.word	cgmt
 3848 0304 00000000 		.word	length
 3849 0308 00000000 		.word	cyBle_busyStatus
ARM GAS  C:\Users\cypress\AppData\Local\Temp\ccgxY6Ea.s 			page 99


 3850 030c 00000000 		.word	cyBle_connHandle
 3851 0310 00000000 		.word	apiResult
 3852 0314 240B0000 		.word	.LC241
 3853 0318 4C0B0000 		.word	.LC243
 3854 031c 00000000 		.word	i
 3855              	.L209:
1117:cgmss.c       ****             {
1118:cgmss.c       ****                 DBG_PRINTF("%2.2x ", attr[i]);
 3856              		.loc 1 1118 0 discriminator 3
 3857 0320 5C4B     		ldr	r3, .L236
 3858 0322 1B88     		ldrh	r3, [r3]
 3859 0324 1A00     		movs	r2, r3
 3860 0326 5C4B     		ldr	r3, .L236+4
 3861 0328 9B5C     		ldrb	r3, [r3, r2]
 3862 032a 1A00     		movs	r2, r3
 3863 032c 5B4B     		ldr	r3, .L236+8
 3864 032e 1100     		movs	r1, r2
 3865 0330 1800     		movs	r0, r3
 3866 0332 FFF7FEFF 		bl	printf
1116:cgmss.c       ****             for(i = 0; i < length; i++)
 3867              		.loc 1 1116 0 discriminator 3
 3868 0336 574B     		ldr	r3, .L236
 3869 0338 1B88     		ldrh	r3, [r3]
 3870 033a 0133     		adds	r3, r3, #1
 3871 033c 9AB2     		uxth	r2, r3
 3872 033e 554B     		ldr	r3, .L236
 3873 0340 1A80     		strh	r2, [r3]
 3874              	.L208:
1116:cgmss.c       ****             for(i = 0; i < length; i++)
 3875              		.loc 1 1116 0 is_stmt 0 discriminator 1
 3876 0342 574B     		ldr	r3, .L236+12
 3877 0344 1B78     		ldrb	r3, [r3]
 3878 0346 9AB2     		uxth	r2, r3
 3879 0348 524B     		ldr	r3, .L236
 3880 034a 1B88     		ldrh	r3, [r3]
 3881 034c 9A42     		cmp	r2, r3
 3882 034e E7D8     		bhi	.L209
1119:cgmss.c       ****             }
1120:cgmss.c       ****             DBG_PRINTF("\r\n");
 3883              		.loc 1 1120 0 is_stmt 1
 3884 0350 544B     		ldr	r3, .L236+16
 3885 0352 1800     		movs	r0, r3
 3886 0354 FFF7FEFF 		bl	puts
 3887              	.L207:
1121:cgmss.c       ****         }
1122:cgmss.c       ****         
1123:cgmss.c       ****         cgmsFlag &= (uint8) ~CGMS_FLAG_RACP;
 3888              		.loc 1 1123 0
 3889 0358 534B     		ldr	r3, .L236+20
 3890 035a 1B78     		ldrb	r3, [r3]
 3891 035c 0222     		movs	r2, #2
 3892 035e 9343     		bics	r3, r2
 3893 0360 DAB2     		uxtb	r2, r3
 3894 0362 514B     		ldr	r3, .L236+20
 3895 0364 1A70     		strb	r2, [r3]
 3896              	.L168:
1124:cgmss.c       ****     }
ARM GAS  C:\Users\cypress\AppData\Local\Temp\ccgxY6Ea.s 			page 100


1125:cgmss.c       ****     
1126:cgmss.c       ****     if(0u != (cgmsFlag & CGMS_FLAG_SOCP))
 3897              		.loc 1 1126 0
 3898 0366 504B     		ldr	r3, .L236+20
 3899 0368 1B78     		ldrb	r3, [r3]
 3900 036a 1A00     		movs	r2, r3
 3901 036c 0123     		movs	r3, #1
 3902 036e 1340     		ands	r3, r2
 3903 0370 00D1     		bne	.LCB3071
 3904 0372 8BE0     		b	.L232	@long jump
 3905              	.LCB3071:
1127:cgmss.c       ****     {
1128:cgmss.c       ****         switch(socpOpCode)
 3906              		.loc 1 1128 0
 3907 0374 4D4B     		ldr	r3, .L236+24
 3908 0376 1B78     		ldrb	r3, [r3]
 3909 0378 1B2B     		cmp	r3, #27
 3910 037a 26D8     		bhi	.L233
 3911 037c 9A00     		lsls	r2, r3, #2
 3912 037e 4C4B     		ldr	r3, .L236+28
 3913 0380 D318     		adds	r3, r2, r3
 3914 0382 1B68     		ldr	r3, [r3]
 3915 0384 9F46     		mov	pc, r3
 3916              		.section	.rodata
 3917              		.align	2
 3918              	.L213:
 3919 0b80 CA030000 		.word	.L233
 3920 0b84 9A030000 		.word	.L212
 3921 0b88 86030000 		.word	.L214
 3922 0b8c CA030000 		.word	.L233
 3923 0b90 9A030000 		.word	.L212
 3924 0b94 CA030000 		.word	.L233
 3925 0b98 CA030000 		.word	.L233
 3926 0b9c 9A030000 		.word	.L212
 3927 0ba0 C2030000 		.word	.L215
 3928 0ba4 CA030000 		.word	.L233
 3929 0ba8 9A030000 		.word	.L212
 3930 0bac C2030000 		.word	.L215
 3931 0bb0 CA030000 		.word	.L233
 3932 0bb4 9A030000 		.word	.L212
 3933 0bb8 C2030000 		.word	.L215
 3934 0bbc CA030000 		.word	.L233
 3935 0bc0 9A030000 		.word	.L212
 3936 0bc4 C2030000 		.word	.L215
 3937 0bc8 CA030000 		.word	.L233
 3938 0bcc 9A030000 		.word	.L212
 3939 0bd0 C2030000 		.word	.L215
 3940 0bd4 CA030000 		.word	.L233
 3941 0bd8 9A030000 		.word	.L212
 3942 0bdc C2030000 		.word	.L215
 3943 0be0 CA030000 		.word	.L233
 3944 0be4 8E030000 		.word	.L216
 3945 0be8 BC030000 		.word	.L217
 3946 0bec 8E030000 		.word	.L216
 3947              		.section	.text.CgmsProcess
 3948              	.L214:
1129:cgmss.c       ****         {
ARM GAS  C:\Users\cypress\AppData\Local\Temp\ccgxY6Ea.s 			page 101


1130:cgmss.c       ****             case CYBLE_CGMS_SOCP_OPC_GINT:
1131:cgmss.c       ****                 socpLength = 2u;
 3949              		.loc 1 1131 0
 3950 0386 4B4B     		ldr	r3, .L236+32
 3951 0388 0222     		movs	r2, #2
 3952 038a 1A70     		strb	r2, [r3]
1132:cgmss.c       ****                 break;
 3953              		.loc 1 1132 0
 3954 038c 1EE0     		b	.L218
 3955              	.L216:
1133:cgmss.c       ****             
1134:cgmss.c       ****             case CYBLE_CGMS_SOCP_OPC_RDSA:
1135:cgmss.c       ****             case CYBLE_CGMS_SOCP_OPC_SPSN:
1136:cgmss.c       ****                 socpOpd = 0u;    
 3956              		.loc 1 1136 0
 3957 038e 4A4B     		ldr	r3, .L236+36
 3958 0390 0022     		movs	r2, #0
 3959 0392 1A80     		strh	r2, [r3]
1137:cgmss.c       ****                 socpOpdPtr = &socpOpd;
 3960              		.loc 1 1137 0
 3961 0394 494B     		ldr	r3, .L236+40
 3962 0396 484A     		ldr	r2, .L236+36
 3963 0398 1A60     		str	r2, [r3]
 3964              	.L212:
1138:cgmss.c       ****             case CYBLE_CGMS_SOCP_OPC_SINT:
1139:cgmss.c       ****             case CYBLE_CGMS_SOCP_OPC_SGCV:
1140:cgmss.c       ****             case CYBLE_CGMS_SOCP_OPC_SHAL:
1141:cgmss.c       ****             case CYBLE_CGMS_SOCP_OPC_SLAL:
1142:cgmss.c       ****             case CYBLE_CGMS_SOCP_OPC_SHPO:
1143:cgmss.c       ****             case CYBLE_CGMS_SOCP_OPC_SHPR:
1144:cgmss.c       ****             case CYBLE_CGMS_SOCP_OPC_SDEC:
1145:cgmss.c       ****             case CYBLE_CGMS_SOCP_OPC_SINC:
1146:cgmss.c       ****                 
1147:cgmss.c       ****                 switch(socpOpd)
 3965              		.loc 1 1147 0
 3966 039a 474B     		ldr	r3, .L236+36
 3967 039c 1B88     		ldrh	r3, [r3]
 3968 039e 484A     		ldr	r2, .L236+44
 3969 03a0 9446     		mov	ip, r2
 3970 03a2 6344     		add	r3, r3, ip
 3971 03a4 042B     		cmp	r3, #4
 3972 03a6 03D8     		bhi	.L219
1148:cgmss.c       ****                 {
1149:cgmss.c       ****                     case SFLOAT_NAN:
1150:cgmss.c       ****                     case SFLOAT_NRES:
1151:cgmss.c       ****                     case SFLOAT_PINF:
1152:cgmss.c       ****                     case SFLOAT_NINF:
1153:cgmss.c       ****                     case SFLOAT_RSRV:
1154:cgmss.c       ****                         socp[2u] = CYBLE_CGMS_SOCP_RSP_POOR;
 3973              		.loc 1 1154 0
 3974 03a8 464B     		ldr	r3, .L236+48
 3975 03aa 0522     		movs	r2, #5
 3976 03ac 9A70     		strb	r2, [r3, #2]
1155:cgmss.c       ****                         break;
 3977              		.loc 1 1155 0
 3978 03ae 05E0     		b	.L217
 3979              	.L219:
ARM GAS  C:\Users\cypress\AppData\Local\Temp\ccgxY6Ea.s 			page 102


1156:cgmss.c       ****                         
1157:cgmss.c       ****                     default:
1158:cgmss.c       ****                         *socpOpdPtr = socpOpd;
 3980              		.loc 1 1158 0
 3981 03b0 424B     		ldr	r3, .L236+40
 3982 03b2 1B68     		ldr	r3, [r3]
 3983 03b4 404A     		ldr	r2, .L236+36
 3984 03b6 1288     		ldrh	r2, [r2]
 3985 03b8 1A80     		strh	r2, [r3]
1159:cgmss.c       ****                         break;
 3986              		.loc 1 1159 0
 3987 03ba C046     		nop
 3988              	.L217:
1160:cgmss.c       ****                 }
1161:cgmss.c       ****             case CYBLE_CGMS_SOCP_OPC_STSN:
1162:cgmss.c       ****                 socp[0u] = CYBLE_CGMS_SOCP_OPC_RSPC;
 3989              		.loc 1 1162 0
 3990 03bc 414B     		ldr	r3, .L236+48
 3991 03be 1C22     		movs	r2, #28
 3992 03c0 1A70     		strb	r2, [r3]
 3993              	.L215:
1163:cgmss.c       ****             case CYBLE_CGMS_SOCP_OPC_GHAL:
1164:cgmss.c       ****             case CYBLE_CGMS_SOCP_OPC_GLAL:
1165:cgmss.c       ****             case CYBLE_CGMS_SOCP_OPC_GHPO:
1166:cgmss.c       ****             case CYBLE_CGMS_SOCP_OPC_GHPR:
1167:cgmss.c       ****             case CYBLE_CGMS_SOCP_OPC_GDEC:
1168:cgmss.c       ****             case CYBLE_CGMS_SOCP_OPC_GINC:
1169:cgmss.c       ****                 socpLength = 3u;
 3994              		.loc 1 1169 0
 3995 03c2 3C4B     		ldr	r3, .L236+32
 3996 03c4 0322     		movs	r2, #3
 3997 03c6 1A70     		strb	r2, [r3]
1170:cgmss.c       ****                 break;
 3998              		.loc 1 1170 0
 3999 03c8 00E0     		b	.L218
 4000              	.L233:
1171:cgmss.c       ****             
1172:cgmss.c       ****             default:
1173:cgmss.c       ****                 break;
 4001              		.loc 1 1173 0
 4002 03ca C046     		nop
 4003              	.L218:
1174:cgmss.c       ****         }
1175:cgmss.c       ****         
1176:cgmss.c       ****         do
1177:cgmss.c       ****         {
1178:cgmss.c       ****             CyBle_ProcessEvents();
 4004              		.loc 1 1178 0 discriminator 1
 4005 03cc FFF7FEFF 		bl	CyBle_ProcessEvents
1179:cgmss.c       ****         }
1180:cgmss.c       ****         while(CyBle_GattGetBusyStatus() == CYBLE_STACK_STATE_BUSY);
 4006              		.loc 1 1180 0 discriminator 1
 4007 03d0 3D4B     		ldr	r3, .L236+52
 4008 03d2 1B78     		ldrb	r3, [r3]
 4009 03d4 DBB2     		uxtb	r3, r3
 4010 03d6 012B     		cmp	r3, #1
 4011 03d8 F8D0     		beq	.L218
ARM GAS  C:\Users\cypress\AppData\Local\Temp\ccgxY6Ea.s 			page 103


1181:cgmss.c       ****         
1182:cgmss.c       ****         socpLength = CgmsCrcLength(socpLength, socp);
 4012              		.loc 1 1182 0
 4013 03da 364B     		ldr	r3, .L236+32
 4014 03dc 1B78     		ldrb	r3, [r3]
 4015 03de 394A     		ldr	r2, .L236+48
 4016 03e0 1100     		movs	r1, r2
 4017 03e2 1800     		movs	r0, r3
 4018 03e4 FFF7FEFF 		bl	CgmsCrcLength
 4019 03e8 0300     		movs	r3, r0
 4020 03ea 1A00     		movs	r2, r3
 4021 03ec 314B     		ldr	r3, .L236+32
 4022 03ee 1A70     		strb	r2, [r3]
1183:cgmss.c       ****         apiResult = CyBle_CgmssSendIndication(cyBle_connHandle, CYBLE_CGMS_SOCP, socpLength, socp);
 4023              		.loc 1 1183 0
 4024 03f0 304B     		ldr	r3, .L236+32
 4025 03f2 1978     		ldrb	r1, [r3]
 4026 03f4 334C     		ldr	r4, .L236+48
 4027 03f6 354B     		ldr	r3, .L236+56
 4028 03f8 1A78     		ldrb	r2, [r3]
 4029 03fa 5B78     		ldrb	r3, [r3, #1]
 4030 03fc 1B02     		lsls	r3, r3, #8
 4031 03fe 1343     		orrs	r3, r2
 4032 0400 0020     		movs	r0, #0
 4033 0402 1B04     		lsls	r3, r3, #16
 4034 0404 1B0C     		lsrs	r3, r3, #16
 4035 0406 020C     		lsrs	r2, r0, #16
 4036 0408 1204     		lsls	r2, r2, #16
 4037 040a 1343     		orrs	r3, r2
 4038 040c 1800     		movs	r0, r3
 4039 040e 2300     		movs	r3, r4
 4040 0410 0A00     		movs	r2, r1
 4041 0412 0621     		movs	r1, #6
 4042 0414 FFF7FEFF 		bl	CyBle_CgmssSendIndication
 4043 0418 0300     		movs	r3, r0
 4044 041a 1A00     		movs	r2, r3
 4045 041c 2C4B     		ldr	r3, .L236+60
 4046 041e 1A80     		strh	r2, [r3]
1184:cgmss.c       ****         if(apiResult != CYBLE_ERROR_OK)
 4047              		.loc 1 1184 0
 4048 0420 2B4B     		ldr	r3, .L236+60
 4049 0422 1B88     		ldrh	r3, [r3]
 4050 0424 002B     		cmp	r3, #0
 4051 0426 06D0     		beq	.L221
1185:cgmss.c       ****     	{
1186:cgmss.c       ****     		DBG_PRINTF("CyBle_CgmssSendIndication API Error: ");
 4052              		.loc 1 1186 0
 4053 0428 2A4B     		ldr	r3, .L236+64
 4054 042a 1800     		movs	r0, r3
 4055 042c FFF7FEFF 		bl	printf
1187:cgmss.c       ****             PrintApiResult();
 4056              		.loc 1 1187 0
 4057 0430 FFF7FEFF 		bl	PrintApiResult
 4058 0434 23E0     		b	.L222
 4059              	.L221:
1188:cgmss.c       ****     	}
1189:cgmss.c       ****         else
ARM GAS  C:\Users\cypress\AppData\Local\Temp\ccgxY6Ea.s 			page 104


1190:cgmss.c       ****         {
1191:cgmss.c       ****             DBG_PRINTF("SOCP Ind: ");
 4060              		.loc 1 1191 0
 4061 0436 284B     		ldr	r3, .L236+68
 4062 0438 1800     		movs	r0, r3
 4063 043a FFF7FEFF 		bl	printf
1192:cgmss.c       ****             for(i = 0; i < socpLength; i++)
 4064              		.loc 1 1192 0
 4065 043e 154B     		ldr	r3, .L236
 4066 0440 0022     		movs	r2, #0
 4067 0442 1A80     		strh	r2, [r3]
 4068 0444 10E0     		b	.L223
 4069              	.L224:
1193:cgmss.c       ****             {
1194:cgmss.c       ****                 DBG_PRINTF("%2.2x ", socp[i]);
 4070              		.loc 1 1194 0 discriminator 3
 4071 0446 134B     		ldr	r3, .L236
 4072 0448 1B88     		ldrh	r3, [r3]
 4073 044a 1A00     		movs	r2, r3
 4074 044c 1D4B     		ldr	r3, .L236+48
 4075 044e 9B5C     		ldrb	r3, [r3, r2]
 4076 0450 1A00     		movs	r2, r3
 4077 0452 124B     		ldr	r3, .L236+8
 4078 0454 1100     		movs	r1, r2
 4079 0456 1800     		movs	r0, r3
 4080 0458 FFF7FEFF 		bl	printf
1192:cgmss.c       ****             for(i = 0; i < socpLength; i++)
 4081              		.loc 1 1192 0 discriminator 3
 4082 045c 0D4B     		ldr	r3, .L236
 4083 045e 1B88     		ldrh	r3, [r3]
 4084 0460 0133     		adds	r3, r3, #1
 4085 0462 9AB2     		uxth	r2, r3
 4086 0464 0B4B     		ldr	r3, .L236
 4087 0466 1A80     		strh	r2, [r3]
 4088              	.L223:
1192:cgmss.c       ****             for(i = 0; i < socpLength; i++)
 4089              		.loc 1 1192 0 is_stmt 0 discriminator 1
 4090 0468 124B     		ldr	r3, .L236+32
 4091 046a 1B78     		ldrb	r3, [r3]
 4092 046c 9AB2     		uxth	r2, r3
 4093 046e 094B     		ldr	r3, .L236
 4094 0470 1B88     		ldrh	r3, [r3]
 4095 0472 9A42     		cmp	r2, r3
 4096 0474 E7D8     		bhi	.L224
1195:cgmss.c       ****             }
1196:cgmss.c       ****             DBG_PRINTF("\r\n");
 4097              		.loc 1 1196 0 is_stmt 1
 4098 0476 0B4B     		ldr	r3, .L236+16
 4099 0478 1800     		movs	r0, r3
 4100 047a FFF7FEFF 		bl	puts
 4101              	.L222:
1197:cgmss.c       ****         }
1198:cgmss.c       ****         
1199:cgmss.c       ****         cgmsFlag &= (uint8) ~CGMS_FLAG_SOCP;
 4102              		.loc 1 1199 0
 4103 047e 0A4B     		ldr	r3, .L236+20
 4104 0480 1B78     		ldrb	r3, [r3]
ARM GAS  C:\Users\cypress\AppData\Local\Temp\ccgxY6Ea.s 			page 105


 4105 0482 0122     		movs	r2, #1
 4106 0484 9343     		bics	r3, r2
 4107 0486 DAB2     		uxtb	r2, r3
 4108 0488 074B     		ldr	r3, .L236+20
 4109 048a 1A70     		strb	r2, [r3]
 4110              	.L232:
1200:cgmss.c       ****     }
1201:cgmss.c       **** }
 4111              		.loc 1 1201 0
 4112 048c C046     		nop
 4113 048e BD46     		mov	sp, r7
 4114 0490 03B0     		add	sp, sp, #12
 4115              		@ sp needed
 4116 0492 90BD     		pop	{r4, r7, pc}
 4117              	.L237:
 4118              		.align	2
 4119              	.L236:
 4120 0494 00000000 		.word	i
 4121 0498 00000000 		.word	attr
 4122 049c 40010000 		.word	.LC38
 4123 04a0 00000000 		.word	length
 4124 04a4 48010000 		.word	.LC40
 4125 04a8 00000000 		.word	cgmsFlag
 4126 04ac 00000000 		.word	socpOpCode
 4127 04b0 800B0000 		.word	.L213
 4128 04b4 00000000 		.word	socpLength
 4129 04b8 00000000 		.word	socpOpd
 4130 04bc 00000000 		.word	socpOpdPtr
 4131 04c0 02F8FFFF 		.word	-2046
 4132 04c4 00000000 		.word	socp
 4133 04c8 00000000 		.word	cyBle_busyStatus
 4134 04cc 00000000 		.word	cyBle_connHandle
 4135 04d0 00000000 		.word	apiResult
 4136 04d4 240B0000 		.word	.LC241
 4137 04d8 580B0000 		.word	.LC254
 4138              		.cfi_endproc
 4139              	.LFE44:
 4140              		.size	CgmsProcess, .-CgmsProcess
 4141              		.text
 4142              	.Letext0:
 4143              		.file 2 "Generated_Source\\PSoC4/cytypes.h"
 4144              		.file 3 "Generated_Source\\PSoC4/BLE_Stack.h"
 4145              		.file 4 "Generated_Source\\PSoC4/BLE_StackGatt.h"
 4146              		.file 5 "Generated_Source\\PSoC4/BLE_bms.h"
 4147              		.file 6 "Generated_Source\\PSoC4/BLE_cgms.h"
 4148              		.file 7 "Generated_Source\\PSoC4/BLE_dis.h"
 4149              		.file 8 "Generated_Source\\PSoC4/BLE_eventHandler.h"
 4150              		.file 9 "cgmss.h"
 4151              		.file 10 "main.h"
 4152              		.section	.debug_info,"",%progbits
 4153              	.Ldebug_info0:
 4154 0000 EE160000 		.4byte	0x16ee
 4155 0004 0400     		.2byte	0x4
 4156 0006 00000000 		.4byte	.Ldebug_abbrev0
 4157 000a 04       		.byte	0x4
 4158 000b 01       		.uleb128 0x1
 4159 000c A3100000 		.4byte	.LASF667
ARM GAS  C:\Users\cypress\AppData\Local\Temp\ccgxY6Ea.s 			page 106


 4160 0010 0C       		.byte	0xc
 4161 0011 5A390000 		.4byte	.LASF668
 4162 0015 0B060000 		.4byte	.LASF669
 4163 0019 00000000 		.4byte	.Ldebug_ranges0+0
 4164 001d 00000000 		.4byte	0
 4165 0021 00000000 		.4byte	.Ldebug_line0
 4166 0025 02       		.uleb128 0x2
 4167 0026 01       		.byte	0x1
 4168 0027 06       		.byte	0x6
 4169 0028 41270000 		.4byte	.LASF0
 4170 002c 02       		.uleb128 0x2
 4171 002d 01       		.byte	0x1
 4172 002e 08       		.byte	0x8
 4173 002f 8D110000 		.4byte	.LASF1
 4174 0033 02       		.uleb128 0x2
 4175 0034 02       		.byte	0x2
 4176 0035 05       		.byte	0x5
 4177 0036 7F480000 		.4byte	.LASF2
 4178 003a 02       		.uleb128 0x2
 4179 003b 02       		.byte	0x2
 4180 003c 07       		.byte	0x7
 4181 003d 14270000 		.4byte	.LASF3
 4182 0041 02       		.uleb128 0x2
 4183 0042 04       		.byte	0x4
 4184 0043 05       		.byte	0x5
 4185 0044 5D2C0000 		.4byte	.LASF4
 4186 0048 02       		.uleb128 0x2
 4187 0049 04       		.byte	0x4
 4188 004a 07       		.byte	0x7
 4189 004b 94300000 		.4byte	.LASF5
 4190 004f 02       		.uleb128 0x2
 4191 0050 08       		.byte	0x8
 4192 0051 05       		.byte	0x5
 4193 0052 B3430000 		.4byte	.LASF6
 4194 0056 02       		.uleb128 0x2
 4195 0057 08       		.byte	0x8
 4196 0058 07       		.byte	0x7
 4197 0059 7F3E0000 		.4byte	.LASF7
 4198 005d 03       		.uleb128 0x3
 4199 005e 04       		.byte	0x4
 4200 005f 05       		.byte	0x5
 4201 0060 696E7400 		.ascii	"int\000"
 4202 0064 02       		.uleb128 0x2
 4203 0065 04       		.byte	0x4
 4204 0066 07       		.byte	0x7
 4205 0067 DF470000 		.4byte	.LASF8
 4206 006b 04       		.uleb128 0x4
 4207 006c B1090000 		.4byte	.LASF9
 4208 0070 02       		.byte	0x2
 4209 0071 D201     		.2byte	0x1d2
 4210 0073 2C000000 		.4byte	0x2c
 4211 0077 04       		.uleb128 0x4
 4212 0078 13300000 		.4byte	.LASF10
 4213 007c 02       		.byte	0x2
 4214 007d D301     		.2byte	0x1d3
 4215 007f 3A000000 		.4byte	0x3a
 4216 0083 04       		.uleb128 0x4
ARM GAS  C:\Users\cypress\AppData\Local\Temp\ccgxY6Ea.s 			page 107


 4217 0084 5D320000 		.4byte	.LASF11
 4218 0088 02       		.byte	0x2
 4219 0089 D401     		.2byte	0x1d4
 4220 008b 48000000 		.4byte	0x48
 4221 008f 02       		.uleb128 0x2
 4222 0090 04       		.byte	0x4
 4223 0091 04       		.byte	0x4
 4224 0092 0A120000 		.4byte	.LASF12
 4225 0096 02       		.uleb128 0x2
 4226 0097 08       		.byte	0x8
 4227 0098 04       		.byte	0x4
 4228 0099 3A380000 		.4byte	.LASF13
 4229 009d 02       		.uleb128 0x2
 4230 009e 01       		.byte	0x1
 4231 009f 08       		.byte	0x8
 4232 00a0 95310000 		.4byte	.LASF14
 4233 00a4 05       		.uleb128 0x5
 4234 00a5 6B000000 		.4byte	0x6b
 4235 00a9 02       		.uleb128 0x2
 4236 00aa 08       		.byte	0x8
 4237 00ab 04       		.byte	0x4
 4238 00ac 8F2F0000 		.4byte	.LASF15
 4239 00b0 02       		.uleb128 0x2
 4240 00b1 04       		.byte	0x4
 4241 00b2 07       		.byte	0x7
 4242 00b3 29260000 		.4byte	.LASF16
 4243 00b7 06       		.uleb128 0x6
 4244 00b8 04       		.byte	0x4
 4245 00b9 07       		.uleb128 0x7
 4246 00ba 01       		.byte	0x1
 4247 00bb 2C000000 		.4byte	0x2c
 4248 00bf 03       		.byte	0x3
 4249 00c0 4D01     		.2byte	0x14d
 4250 00c2 77020000 		.4byte	0x277
 4251 00c6 08       		.uleb128 0x8
 4252 00c7 D9260000 		.4byte	.LASF17
 4253 00cb 00       		.byte	0
 4254 00cc 08       		.uleb128 0x8
 4255 00cd 0B050000 		.4byte	.LASF18
 4256 00d1 01       		.byte	0x1
 4257 00d2 08       		.uleb128 0x8
 4258 00d3 64170000 		.4byte	.LASF19
 4259 00d7 02       		.byte	0x2
 4260 00d8 08       		.uleb128 0x8
 4261 00d9 4D0B0000 		.4byte	.LASF20
 4262 00dd 03       		.byte	0x3
 4263 00de 08       		.uleb128 0x8
 4264 00df C4050000 		.4byte	.LASF21
 4265 00e3 04       		.byte	0x4
 4266 00e4 08       		.uleb128 0x8
 4267 00e5 662E0000 		.4byte	.LASF22
 4268 00e9 05       		.byte	0x5
 4269 00ea 08       		.uleb128 0x8
 4270 00eb 361D0000 		.4byte	.LASF23
 4271 00ef 06       		.byte	0x6
 4272 00f0 08       		.uleb128 0x8
 4273 00f1 51160000 		.4byte	.LASF24
ARM GAS  C:\Users\cypress\AppData\Local\Temp\ccgxY6Ea.s 			page 108


 4274 00f5 20       		.byte	0x20
 4275 00f6 08       		.uleb128 0x8
 4276 00f7 E6130000 		.4byte	.LASF25
 4277 00fb 21       		.byte	0x21
 4278 00fc 08       		.uleb128 0x8
 4279 00fd D9050000 		.4byte	.LASF26
 4280 0101 22       		.byte	0x22
 4281 0102 08       		.uleb128 0x8
 4282 0103 05490000 		.4byte	.LASF27
 4283 0107 23       		.byte	0x23
 4284 0108 08       		.uleb128 0x8
 4285 0109 2C020000 		.4byte	.LASF28
 4286 010d 24       		.byte	0x24
 4287 010e 08       		.uleb128 0x8
 4288 010f EA3C0000 		.4byte	.LASF29
 4289 0113 25       		.byte	0x25
 4290 0114 08       		.uleb128 0x8
 4291 0115 AB110000 		.4byte	.LASF30
 4292 0119 26       		.byte	0x26
 4293 011a 08       		.uleb128 0x8
 4294 011b EE240000 		.4byte	.LASF31
 4295 011f 27       		.byte	0x27
 4296 0120 08       		.uleb128 0x8
 4297 0121 522F0000 		.4byte	.LASF32
 4298 0125 28       		.byte	0x28
 4299 0126 08       		.uleb128 0x8
 4300 0127 BB240000 		.4byte	.LASF33
 4301 012b 29       		.byte	0x29
 4302 012c 08       		.uleb128 0x8
 4303 012d 38400000 		.4byte	.LASF34
 4304 0131 2A       		.byte	0x2a
 4305 0132 08       		.uleb128 0x8
 4306 0133 1F440000 		.4byte	.LASF35
 4307 0137 2B       		.byte	0x2b
 4308 0138 08       		.uleb128 0x8
 4309 0139 072D0000 		.4byte	.LASF36
 4310 013d 2C       		.byte	0x2c
 4311 013e 08       		.uleb128 0x8
 4312 013f EA420000 		.4byte	.LASF37
 4313 0143 2D       		.byte	0x2d
 4314 0144 08       		.uleb128 0x8
 4315 0145 862A0000 		.4byte	.LASF38
 4316 0149 2E       		.byte	0x2e
 4317 014a 08       		.uleb128 0x8
 4318 014b C5460000 		.4byte	.LASF39
 4319 014f 2F       		.byte	0x2f
 4320 0150 08       		.uleb128 0x8
 4321 0151 BE1B0000 		.4byte	.LASF40
 4322 0155 30       		.byte	0x30
 4323 0156 08       		.uleb128 0x8
 4324 0157 EC470000 		.4byte	.LASF41
 4325 015b 31       		.byte	0x31
 4326 015c 08       		.uleb128 0x8
 4327 015d 6E090000 		.4byte	.LASF42
 4328 0161 32       		.byte	0x32
 4329 0162 08       		.uleb128 0x8
 4330 0163 350E0000 		.4byte	.LASF43
ARM GAS  C:\Users\cypress\AppData\Local\Temp\ccgxY6Ea.s 			page 109


 4331 0167 33       		.byte	0x33
 4332 0168 08       		.uleb128 0x8
 4333 0169 62390000 		.4byte	.LASF44
 4334 016d 34       		.byte	0x34
 4335 016e 08       		.uleb128 0x8
 4336 016f DA3F0000 		.4byte	.LASF45
 4337 0173 35       		.byte	0x35
 4338 0174 08       		.uleb128 0x8
 4339 0175 35430000 		.4byte	.LASF46
 4340 0179 36       		.byte	0x36
 4341 017a 08       		.uleb128 0x8
 4342 017b C0390000 		.4byte	.LASF47
 4343 017f 37       		.byte	0x37
 4344 0180 08       		.uleb128 0x8
 4345 0181 29100000 		.4byte	.LASF48
 4346 0185 40       		.byte	0x40
 4347 0186 08       		.uleb128 0x8
 4348 0187 05390000 		.4byte	.LASF49
 4349 018b 41       		.byte	0x41
 4350 018c 08       		.uleb128 0x8
 4351 018d EA1F0000 		.4byte	.LASF50
 4352 0191 42       		.byte	0x42
 4353 0192 08       		.uleb128 0x8
 4354 0193 F0350000 		.4byte	.LASF51
 4355 0197 43       		.byte	0x43
 4356 0198 08       		.uleb128 0x8
 4357 0199 DC060000 		.4byte	.LASF52
 4358 019d 44       		.byte	0x44
 4359 019e 08       		.uleb128 0x8
 4360 019f A62E0000 		.4byte	.LASF53
 4361 01a3 45       		.byte	0x45
 4362 01a4 08       		.uleb128 0x8
 4363 01a5 B5450000 		.4byte	.LASF54
 4364 01a9 46       		.byte	0x46
 4365 01aa 08       		.uleb128 0x8
 4366 01ab A3120000 		.4byte	.LASF55
 4367 01af 47       		.byte	0x47
 4368 01b0 08       		.uleb128 0x8
 4369 01b1 272B0000 		.4byte	.LASF56
 4370 01b5 48       		.byte	0x48
 4371 01b6 08       		.uleb128 0x8
 4372 01b7 A2070000 		.4byte	.LASF57
 4373 01bb 49       		.byte	0x49
 4374 01bc 08       		.uleb128 0x8
 4375 01bd F41C0000 		.4byte	.LASF58
 4376 01c1 4A       		.byte	0x4a
 4377 01c2 08       		.uleb128 0x8
 4378 01c3 AB0F0000 		.4byte	.LASF59
 4379 01c7 4B       		.byte	0x4b
 4380 01c8 08       		.uleb128 0x8
 4381 01c9 1F450000 		.4byte	.LASF60
 4382 01cd 4C       		.byte	0x4c
 4383 01ce 08       		.uleb128 0x8
 4384 01cf F92F0000 		.4byte	.LASF61
 4385 01d3 4D       		.byte	0x4d
 4386 01d4 08       		.uleb128 0x8
 4387 01d5 330F0000 		.4byte	.LASF62
ARM GAS  C:\Users\cypress\AppData\Local\Temp\ccgxY6Ea.s 			page 110


 4388 01d9 4E       		.byte	0x4e
 4389 01da 08       		.uleb128 0x8
 4390 01db EB330000 		.4byte	.LASF63
 4391 01df 4F       		.byte	0x4f
 4392 01e0 08       		.uleb128 0x8
 4393 01e1 651D0000 		.4byte	.LASF64
 4394 01e5 50       		.byte	0x50
 4395 01e6 08       		.uleb128 0x8
 4396 01e7 F7270000 		.4byte	.LASF65
 4397 01eb 51       		.byte	0x51
 4398 01ec 08       		.uleb128 0x8
 4399 01ed 47190000 		.4byte	.LASF66
 4400 01f1 52       		.byte	0x52
 4401 01f2 08       		.uleb128 0x8
 4402 01f3 C3370000 		.4byte	.LASF67
 4403 01f7 53       		.byte	0x53
 4404 01f8 08       		.uleb128 0x8
 4405 01f9 3E440000 		.4byte	.LASF68
 4406 01fd 54       		.byte	0x54
 4407 01fe 08       		.uleb128 0x8
 4408 01ff 61040000 		.4byte	.LASF69
 4409 0203 55       		.byte	0x55
 4410 0204 08       		.uleb128 0x8
 4411 0205 C1300000 		.4byte	.LASF70
 4412 0209 56       		.byte	0x56
 4413 020a 08       		.uleb128 0x8
 4414 020b D13D0000 		.4byte	.LASF71
 4415 020f 57       		.byte	0x57
 4416 0210 08       		.uleb128 0x8
 4417 0211 39450000 		.4byte	.LASF72
 4418 0215 58       		.byte	0x58
 4419 0216 08       		.uleb128 0x8
 4420 0217 103E0000 		.4byte	.LASF73
 4421 021b 70       		.byte	0x70
 4422 021c 08       		.uleb128 0x8
 4423 021d 55210000 		.4byte	.LASF74
 4424 0221 71       		.byte	0x71
 4425 0222 08       		.uleb128 0x8
 4426 0223 A80C0000 		.4byte	.LASF75
 4427 0227 72       		.byte	0x72
 4428 0228 08       		.uleb128 0x8
 4429 0229 DC120000 		.4byte	.LASF76
 4430 022d 73       		.byte	0x73
 4431 022e 08       		.uleb128 0x8
 4432 022f E2310000 		.4byte	.LASF77
 4433 0233 74       		.byte	0x74
 4434 0234 08       		.uleb128 0x8
 4435 0235 40130000 		.4byte	.LASF78
 4436 0239 75       		.byte	0x75
 4437 023a 08       		.uleb128 0x8
 4438 023b D8320000 		.4byte	.LASF79
 4439 023f 76       		.byte	0x76
 4440 0240 08       		.uleb128 0x8
 4441 0241 EE1B0000 		.4byte	.LASF80
 4442 0245 77       		.byte	0x77
 4443 0246 08       		.uleb128 0x8
 4444 0247 F3450000 		.4byte	.LASF81
ARM GAS  C:\Users\cypress\AppData\Local\Temp\ccgxY6Ea.s 			page 111


 4445 024b 78       		.byte	0x78
 4446 024c 08       		.uleb128 0x8
 4447 024d 58470000 		.4byte	.LASF82
 4448 0251 79       		.byte	0x79
 4449 0252 08       		.uleb128 0x8
 4450 0253 01190000 		.4byte	.LASF83
 4451 0257 7A       		.byte	0x7a
 4452 0258 08       		.uleb128 0x8
 4453 0259 56260000 		.4byte	.LASF84
 4454 025d FA       		.byte	0xfa
 4455 025e 08       		.uleb128 0x8
 4456 025f 69180000 		.4byte	.LASF85
 4457 0263 FB       		.byte	0xfb
 4458 0264 08       		.uleb128 0x8
 4459 0265 9A0D0000 		.4byte	.LASF86
 4460 0269 FC       		.byte	0xfc
 4461 026a 08       		.uleb128 0x8
 4462 026b 30420000 		.4byte	.LASF87
 4463 026f FD       		.byte	0xfd
 4464 0270 08       		.uleb128 0x8
 4465 0271 83000000 		.4byte	.LASF88
 4466 0275 FF       		.byte	0xff
 4467 0276 00       		.byte	0
 4468 0277 07       		.uleb128 0x7
 4469 0278 02       		.byte	0x2
 4470 0279 3A000000 		.4byte	0x3a
 4471 027d 03       		.byte	0x3
 4472 027e 0204     		.2byte	0x402
 4473 0280 50030000 		.4byte	0x350
 4474 0284 08       		.uleb128 0x8
 4475 0285 FE020000 		.4byte	.LASF89
 4476 0289 00       		.byte	0
 4477 028a 08       		.uleb128 0x8
 4478 028b 930B0000 		.4byte	.LASF90
 4479 028f 01       		.byte	0x1
 4480 0290 08       		.uleb128 0x8
 4481 0291 3F320000 		.4byte	.LASF91
 4482 0295 02       		.byte	0x2
 4483 0296 08       		.uleb128 0x8
 4484 0297 0B2F0000 		.4byte	.LASF92
 4485 029b 03       		.byte	0x3
 4486 029c 08       		.uleb128 0x8
 4487 029d 432E0000 		.4byte	.LASF93
 4488 02a1 04       		.byte	0x4
 4489 02a2 08       		.uleb128 0x8
 4490 02a3 3C3C0000 		.4byte	.LASF94
 4491 02a7 05       		.byte	0x5
 4492 02a8 08       		.uleb128 0x8
 4493 02a9 DF2F0000 		.4byte	.LASF95
 4494 02ad 06       		.byte	0x6
 4495 02ae 08       		.uleb128 0x8
 4496 02af BB320000 		.4byte	.LASF96
 4497 02b3 07       		.byte	0x7
 4498 02b4 08       		.uleb128 0x8
 4499 02b5 C8180000 		.4byte	.LASF97
 4500 02b9 08       		.byte	0x8
 4501 02ba 08       		.uleb128 0x8
ARM GAS  C:\Users\cypress\AppData\Local\Temp\ccgxY6Ea.s 			page 112


 4502 02bb 8D1E0000 		.4byte	.LASF98
 4503 02bf 09       		.byte	0x9
 4504 02c0 08       		.uleb128 0x8
 4505 02c1 29360000 		.4byte	.LASF99
 4506 02c5 0A       		.byte	0xa
 4507 02c6 08       		.uleb128 0x8
 4508 02c7 71030000 		.4byte	.LASF100
 4509 02cb 0B       		.byte	0xb
 4510 02cc 08       		.uleb128 0x8
 4511 02cd 1A300000 		.4byte	.LASF101
 4512 02d1 0C       		.byte	0xc
 4513 02d2 08       		.uleb128 0x8
 4514 02d3 83440000 		.4byte	.LASF102
 4515 02d7 0D       		.byte	0xd
 4516 02d8 08       		.uleb128 0x8
 4517 02d9 25000000 		.4byte	.LASF103
 4518 02dd 0E       		.byte	0xe
 4519 02de 08       		.uleb128 0x8
 4520 02df AC2C0000 		.4byte	.LASF104
 4521 02e3 0F       		.byte	0xf
 4522 02e4 08       		.uleb128 0x8
 4523 02e5 5F1E0000 		.4byte	.LASF105
 4524 02e9 10       		.byte	0x10
 4525 02ea 08       		.uleb128 0x8
 4526 02eb 3B3F0000 		.4byte	.LASF106
 4527 02ef 11       		.byte	0x11
 4528 02f0 08       		.uleb128 0x8
 4529 02f1 5B150000 		.4byte	.LASF107
 4530 02f5 12       		.byte	0x12
 4531 02f6 08       		.uleb128 0x8
 4532 02f7 68050000 		.4byte	.LASF108
 4533 02fb 13       		.byte	0x13
 4534 02fc 08       		.uleb128 0x8
 4535 02fd F11D0000 		.4byte	.LASF109
 4536 0301 27       		.byte	0x27
 4537 0302 08       		.uleb128 0x8
 4538 0303 F73F0000 		.4byte	.LASF110
 4539 0307 28       		.byte	0x28
 4540 0308 08       		.uleb128 0x8
 4541 0309 0D1C0000 		.4byte	.LASF111
 4542 030d 29       		.byte	0x29
 4543 030e 08       		.uleb128 0x8
 4544 030f D6450000 		.4byte	.LASF112
 4545 0313 2A       		.byte	0x2a
 4546 0314 08       		.uleb128 0x8
 4547 0315 5B4A0000 		.4byte	.LASF113
 4548 0319 2B       		.byte	0x2b
 4549 031a 08       		.uleb128 0x8
 4550 031b CD2E0000 		.4byte	.LASF114
 4551 031f 2C       		.byte	0x2c
 4552 0320 08       		.uleb128 0x8
 4553 0321 EE110000 		.4byte	.LASF115
 4554 0325 FE       		.byte	0xfe
 4555 0326 08       		.uleb128 0x8
 4556 0327 19360000 		.4byte	.LASF116
 4557 032b FF       		.byte	0xff
 4558 032c 09       		.uleb128 0x9
ARM GAS  C:\Users\cypress\AppData\Local\Temp\ccgxY6Ea.s 			page 113


 4559 032d 8A1A0000 		.4byte	.LASF117
 4560 0331 0001     		.2byte	0x100
 4561 0333 09       		.uleb128 0x9
 4562 0334 48020000 		.4byte	.LASF118
 4563 0338 0101     		.2byte	0x101
 4564 033a 09       		.uleb128 0x9
 4565 033b 3D0A0000 		.4byte	.LASF119
 4566 033f 0201     		.2byte	0x102
 4567 0341 09       		.uleb128 0x9
 4568 0342 B12B0000 		.4byte	.LASF120
 4569 0346 0301     		.2byte	0x103
 4570 0348 09       		.uleb128 0x9
 4571 0349 7E150000 		.4byte	.LASF121
 4572 034d 0401     		.2byte	0x104
 4573 034f 00       		.byte	0
 4574 0350 04       		.uleb128 0x4
 4575 0351 F91A0000 		.4byte	.LASF122
 4576 0355 03       		.byte	0x3
 4577 0356 7104     		.2byte	0x471
 4578 0358 77020000 		.4byte	0x277
 4579 035c 0A       		.uleb128 0xa
 4580 035d 6B000000 		.4byte	0x6b
 4581 0361 6C030000 		.4byte	0x36c
 4582 0365 0B       		.uleb128 0xb
 4583 0366 B0000000 		.4byte	0xb0
 4584 036a 05       		.byte	0x5
 4585 036b 00       		.byte	0
 4586 036c 0C       		.uleb128 0xc
 4587 036d 04       		.byte	0x4
 4588 036e 6B000000 		.4byte	0x6b
 4589 0372 0A       		.uleb128 0xa
 4590 0373 6B000000 		.4byte	0x6b
 4591 0377 82030000 		.4byte	0x382
 4592 037b 0B       		.uleb128 0xb
 4593 037c B0000000 		.4byte	0xb0
 4594 0380 0F       		.byte	0xf
 4595 0381 00       		.byte	0
 4596 0382 0D       		.uleb128 0xd
 4597 0383 01       		.byte	0x1
 4598 0384 2C000000 		.4byte	0x2c
 4599 0388 04       		.byte	0x4
 4600 0389 A5       		.byte	0xa5
 4601 038a 79040000 		.4byte	0x479
 4602 038e 08       		.uleb128 0x8
 4603 038f CC1E0000 		.4byte	.LASF123
 4604 0393 00       		.byte	0
 4605 0394 08       		.uleb128 0x8
 4606 0395 1C330000 		.4byte	.LASF124
 4607 0399 01       		.byte	0x1
 4608 039a 08       		.uleb128 0x8
 4609 039b E3480000 		.4byte	.LASF125
 4610 039f 02       		.byte	0x2
 4611 03a0 08       		.uleb128 0x8
 4612 03a1 892C0000 		.4byte	.LASF126
 4613 03a5 03       		.byte	0x3
 4614 03a6 08       		.uleb128 0x8
 4615 03a7 FD130000 		.4byte	.LASF127
ARM GAS  C:\Users\cypress\AppData\Local\Temp\ccgxY6Ea.s 			page 114


 4616 03ab 04       		.byte	0x4
 4617 03ac 08       		.uleb128 0x8
 4618 03ad 63380000 		.4byte	.LASF128
 4619 03b1 05       		.byte	0x5
 4620 03b2 08       		.uleb128 0x8
 4621 03b3 C1130000 		.4byte	.LASF129
 4622 03b7 06       		.byte	0x6
 4623 03b8 08       		.uleb128 0x8
 4624 03b9 59250000 		.4byte	.LASF130
 4625 03bd 07       		.byte	0x7
 4626 03be 08       		.uleb128 0x8
 4627 03bf E3250000 		.4byte	.LASF131
 4628 03c3 08       		.byte	0x8
 4629 03c4 08       		.uleb128 0x8
 4630 03c5 BE140000 		.4byte	.LASF132
 4631 03c9 09       		.byte	0x9
 4632 03ca 08       		.uleb128 0x8
 4633 03cb 75160000 		.4byte	.LASF133
 4634 03cf 0A       		.byte	0xa
 4635 03d0 08       		.uleb128 0x8
 4636 03d1 291C0000 		.4byte	.LASF134
 4637 03d5 0B       		.byte	0xb
 4638 03d6 08       		.uleb128 0x8
 4639 03d7 B6000000 		.4byte	.LASF135
 4640 03db 0C       		.byte	0xc
 4641 03dc 08       		.uleb128 0x8
 4642 03dd 8E430000 		.4byte	.LASF136
 4643 03e1 0D       		.byte	0xd
 4644 03e2 08       		.uleb128 0x8
 4645 03e3 611C0000 		.4byte	.LASF137
 4646 03e7 0E       		.byte	0xe
 4647 03e8 08       		.uleb128 0x8
 4648 03e9 3F480000 		.4byte	.LASF138
 4649 03ed 0F       		.byte	0xf
 4650 03ee 08       		.uleb128 0x8
 4651 03ef E52E0000 		.4byte	.LASF139
 4652 03f3 10       		.byte	0x10
 4653 03f4 08       		.uleb128 0x8
 4654 03f5 E0170000 		.4byte	.LASF140
 4655 03f9 11       		.byte	0x11
 4656 03fa 08       		.uleb128 0x8
 4657 03fb 010E0000 		.4byte	.LASF141
 4658 03ff 80       		.byte	0x80
 4659 0400 08       		.uleb128 0x8
 4660 0401 AF220000 		.4byte	.LASF142
 4661 0405 80       		.byte	0x80
 4662 0406 08       		.uleb128 0x8
 4663 0407 A8440000 		.4byte	.LASF143
 4664 040b 80       		.byte	0x80
 4665 040c 08       		.uleb128 0x8
 4666 040d 510F0000 		.4byte	.LASF144
 4667 0411 80       		.byte	0x80
 4668 0412 08       		.uleb128 0x8
 4669 0413 B2400000 		.4byte	.LASF145
 4670 0417 80       		.byte	0x80
 4671 0418 08       		.uleb128 0x8
 4672 0419 503D0000 		.4byte	.LASF146
ARM GAS  C:\Users\cypress\AppData\Local\Temp\ccgxY6Ea.s 			page 115


 4673 041d 80       		.byte	0x80
 4674 041e 08       		.uleb128 0x8
 4675 041f D03B0000 		.4byte	.LASF147
 4676 0423 80       		.byte	0x80
 4677 0424 08       		.uleb128 0x8
 4678 0425 04450000 		.4byte	.LASF148
 4679 0429 80       		.byte	0x80
 4680 042a 08       		.uleb128 0x8
 4681 042b 14070000 		.4byte	.LASF149
 4682 042f 81       		.byte	0x81
 4683 0430 08       		.uleb128 0x8
 4684 0431 08100000 		.4byte	.LASF150
 4685 0435 81       		.byte	0x81
 4686 0436 08       		.uleb128 0x8
 4687 0437 D3110000 		.4byte	.LASF151
 4688 043b 81       		.byte	0x81
 4689 043c 08       		.uleb128 0x8
 4690 043d CD1D0000 		.4byte	.LASF152
 4691 0441 81       		.byte	0x81
 4692 0442 08       		.uleb128 0x8
 4693 0443 043D0000 		.4byte	.LASF153
 4694 0447 82       		.byte	0x82
 4695 0448 08       		.uleb128 0x8
 4696 0449 4E350000 		.4byte	.LASF154
 4697 044d A0       		.byte	0xa0
 4698 044e 08       		.uleb128 0x8
 4699 044f 33370000 		.4byte	.LASF155
 4700 0453 A0       		.byte	0xa0
 4701 0454 08       		.uleb128 0x8
 4702 0455 7C280000 		.4byte	.LASF156
 4703 0459 A1       		.byte	0xa1
 4704 045a 08       		.uleb128 0x8
 4705 045b 403B0000 		.4byte	.LASF157
 4706 045f A2       		.byte	0xa2
 4707 0460 08       		.uleb128 0x8
 4708 0461 51140000 		.4byte	.LASF158
 4709 0465 A3       		.byte	0xa3
 4710 0466 08       		.uleb128 0x8
 4711 0467 31110000 		.4byte	.LASF159
 4712 046b FD       		.byte	0xfd
 4713 046c 08       		.uleb128 0x8
 4714 046d 90050000 		.4byte	.LASF160
 4715 0471 FE       		.byte	0xfe
 4716 0472 08       		.uleb128 0x8
 4717 0473 A1270000 		.4byte	.LASF161
 4718 0477 FF       		.byte	0xff
 4719 0478 00       		.byte	0
 4720 0479 04       		.uleb128 0x4
 4721 047a 77490000 		.4byte	.LASF162
 4722 047e 04       		.byte	0x4
 4723 047f 5F01     		.2byte	0x15f
 4724 0481 82030000 		.4byte	0x382
 4725 0485 0E       		.uleb128 0xe
 4726 0486 02       		.byte	0x2
 4727 0487 04       		.byte	0x4
 4728 0488 9301     		.2byte	0x193
 4729 048a A9040000 		.4byte	0x4a9
ARM GAS  C:\Users\cypress\AppData\Local\Temp\ccgxY6Ea.s 			page 116


 4730 048e 0F       		.uleb128 0xf
 4731 048f B2320000 		.4byte	.LASF163
 4732 0493 04       		.byte	0x4
 4733 0494 9A01     		.2byte	0x19a
 4734 0496 6B000000 		.4byte	0x6b
 4735 049a 00       		.byte	0
 4736 049b 0F       		.uleb128 0xf
 4737 049c 552D0000 		.4byte	.LASF164
 4738 04a0 04       		.byte	0x4
 4739 04a1 A001     		.2byte	0x1a0
 4740 04a3 6B000000 		.4byte	0x6b
 4741 04a7 01       		.byte	0x1
 4742 04a8 00       		.byte	0
 4743 04a9 04       		.uleb128 0x4
 4744 04aa 95370000 		.4byte	.LASF165
 4745 04ae 04       		.byte	0x4
 4746 04af A201     		.2byte	0x1a2
 4747 04b1 85040000 		.4byte	0x485
 4748 04b5 0E       		.uleb128 0xe
 4749 04b6 08       		.byte	0x8
 4750 04b7 04       		.byte	0x4
 4751 04b8 BE01     		.2byte	0x1be
 4752 04ba E6040000 		.4byte	0x4e6
 4753 04be 10       		.uleb128 0x10
 4754 04bf 76616C00 		.ascii	"val\000"
 4755 04c3 04       		.byte	0x4
 4756 04c4 C101     		.2byte	0x1c1
 4757 04c6 6C030000 		.4byte	0x36c
 4758 04ca 00       		.byte	0
 4759 04cb 10       		.uleb128 0x10
 4760 04cc 6C656E00 		.ascii	"len\000"
 4761 04d0 04       		.byte	0x4
 4762 04d1 C401     		.2byte	0x1c4
 4763 04d3 77000000 		.4byte	0x77
 4764 04d7 04       		.byte	0x4
 4765 04d8 0F       		.uleb128 0xf
 4766 04d9 3D2A0000 		.4byte	.LASF166
 4767 04dd 04       		.byte	0x4
 4768 04de CB01     		.2byte	0x1cb
 4769 04e0 77000000 		.4byte	0x77
 4770 04e4 06       		.byte	0x6
 4771 04e5 00       		.byte	0
 4772 04e6 04       		.uleb128 0x4
 4773 04e7 9F0E0000 		.4byte	.LASF167
 4774 04eb 04       		.byte	0x4
 4775 04ec CD01     		.2byte	0x1cd
 4776 04ee B5040000 		.4byte	0x4b5
 4777 04f2 0D       		.uleb128 0xd
 4778 04f3 01       		.byte	0x1
 4779 04f4 2C000000 		.4byte	0x2c
 4780 04f8 05       		.byte	0x5
 4781 04f9 22       		.byte	0x22
 4782 04fa 11050000 		.4byte	0x511
 4783 04fe 08       		.uleb128 0x8
 4784 04ff 4A120000 		.4byte	.LASF168
 4785 0503 00       		.byte	0
 4786 0504 08       		.uleb128 0x8
ARM GAS  C:\Users\cypress\AppData\Local\Temp\ccgxY6Ea.s 			page 117


 4787 0505 1F160000 		.4byte	.LASF169
 4788 0509 01       		.byte	0x1
 4789 050a 08       		.uleb128 0x8
 4790 050b 97340000 		.4byte	.LASF170
 4791 050f 02       		.byte	0x2
 4792 0510 00       		.byte	0
 4793 0511 0D       		.uleb128 0xd
 4794 0512 01       		.byte	0x1
 4795 0513 2C000000 		.4byte	0x2c
 4796 0517 05       		.byte	0x5
 4797 0518 2A       		.byte	0x2a
 4798 0519 2A050000 		.4byte	0x52a
 4799 051d 08       		.uleb128 0x8
 4800 051e D50B0000 		.4byte	.LASF171
 4801 0522 00       		.byte	0
 4802 0523 08       		.uleb128 0x8
 4803 0524 3B290000 		.4byte	.LASF172
 4804 0528 01       		.byte	0x1
 4805 0529 00       		.byte	0
 4806 052a 0C       		.uleb128 0xc
 4807 052b 04       		.byte	0x4
 4808 052c E6040000 		.4byte	0x4e6
 4809 0530 0D       		.uleb128 0xd
 4810 0531 01       		.byte	0x1
 4811 0532 2C000000 		.4byte	0x2c
 4812 0536 06       		.byte	0x6
 4813 0537 22       		.byte	0x22
 4814 0538 6D050000 		.4byte	0x56d
 4815 053c 08       		.uleb128 0x8
 4816 053d B0260000 		.4byte	.LASF173
 4817 0541 00       		.byte	0
 4818 0542 08       		.uleb128 0x8
 4819 0543 361E0000 		.4byte	.LASF174
 4820 0547 01       		.byte	0x1
 4821 0548 08       		.uleb128 0x8
 4822 0549 7F2D0000 		.4byte	.LASF175
 4823 054d 02       		.byte	0x2
 4824 054e 08       		.uleb128 0x8
 4825 054f D3250000 		.4byte	.LASF176
 4826 0553 03       		.byte	0x3
 4827 0554 08       		.uleb128 0x8
 4828 0555 9B110000 		.4byte	.LASF177
 4829 0559 04       		.byte	0x4
 4830 055a 08       		.uleb128 0x8
 4831 055b CE010000 		.4byte	.LASF178
 4832 055f 05       		.byte	0x5
 4833 0560 08       		.uleb128 0x8
 4834 0561 85400000 		.4byte	.LASF179
 4835 0565 06       		.byte	0x6
 4836 0566 08       		.uleb128 0x8
 4837 0567 A7200000 		.4byte	.LASF180
 4838 056b 07       		.byte	0x7
 4839 056c 00       		.byte	0
 4840 056d 11       		.uleb128 0x11
 4841 056e 4E2B0000 		.4byte	.LASF181
 4842 0572 06       		.byte	0x6
 4843 0573 2B       		.byte	0x2b
ARM GAS  C:\Users\cypress\AppData\Local\Temp\ccgxY6Ea.s 			page 118


 4844 0574 30050000 		.4byte	0x530
 4845 0578 0D       		.uleb128 0xd
 4846 0579 01       		.byte	0x1
 4847 057a 2C000000 		.4byte	0x2c
 4848 057e 06       		.byte	0x6
 4849 057f 2F       		.byte	0x2f
 4850 0580 91050000 		.4byte	0x591
 4851 0584 08       		.uleb128 0x8
 4852 0585 9F480000 		.4byte	.LASF182
 4853 0589 00       		.byte	0
 4854 058a 08       		.uleb128 0x8
 4855 058b C5060000 		.4byte	.LASF183
 4856 058f 01       		.byte	0x1
 4857 0590 00       		.byte	0
 4858 0591 12       		.uleb128 0x12
 4859 0592 0C       		.byte	0xc
 4860 0593 06       		.byte	0x6
 4861 0594 63       		.byte	0x63
 4862 0595 CA050000 		.4byte	0x5ca
 4863 0599 13       		.uleb128 0x13
 4864 059a 6F410000 		.4byte	.LASF184
 4865 059e 06       		.byte	0x6
 4866 059f 65       		.byte	0x65
 4867 05a0 A9040000 		.4byte	0x4a9
 4868 05a4 00       		.byte	0
 4869 05a5 13       		.uleb128 0x13
 4870 05a6 61020000 		.4byte	.LASF185
 4871 05aa 06       		.byte	0x6
 4872 05ab 66       		.byte	0x66
 4873 05ac 6D050000 		.4byte	0x56d
 4874 05b0 02       		.byte	0x2
 4875 05b1 13       		.uleb128 0x13
 4876 05b2 C61E0000 		.4byte	.LASF186
 4877 05b6 06       		.byte	0x6
 4878 05b7 67       		.byte	0x67
 4879 05b8 2A050000 		.4byte	0x52a
 4880 05bc 04       		.byte	0x4
 4881 05bd 13       		.uleb128 0x13
 4882 05be 41010000 		.4byte	.LASF187
 4883 05c2 06       		.byte	0x6
 4884 05c3 68       		.byte	0x68
 4885 05c4 79040000 		.4byte	0x479
 4886 05c8 08       		.byte	0x8
 4887 05c9 00       		.byte	0
 4888 05ca 11       		.uleb128 0x11
 4889 05cb 3D2D0000 		.4byte	.LASF188
 4890 05cf 06       		.byte	0x6
 4891 05d0 69       		.byte	0x69
 4892 05d1 91050000 		.4byte	0x591
 4893 05d5 0D       		.uleb128 0xd
 4894 05d6 01       		.byte	0x1
 4895 05d7 2C000000 		.4byte	0x2c
 4896 05db 07       		.byte	0x7
 4897 05dc 22       		.byte	0x22
 4898 05dd 1E060000 		.4byte	0x61e
 4899 05e1 08       		.uleb128 0x8
 4900 05e2 31300000 		.4byte	.LASF189
ARM GAS  C:\Users\cypress\AppData\Local\Temp\ccgxY6Ea.s 			page 119


 4901 05e6 00       		.byte	0
 4902 05e7 08       		.uleb128 0x8
 4903 05e8 5F3F0000 		.4byte	.LASF190
 4904 05ec 01       		.byte	0x1
 4905 05ed 08       		.uleb128 0x8
 4906 05ee 84270000 		.4byte	.LASF191
 4907 05f2 02       		.byte	0x2
 4908 05f3 08       		.uleb128 0x8
 4909 05f4 51290000 		.4byte	.LASF192
 4910 05f8 03       		.byte	0x3
 4911 05f9 08       		.uleb128 0x8
 4912 05fa D3420000 		.4byte	.LASF193
 4913 05fe 04       		.byte	0x4
 4914 05ff 08       		.uleb128 0x8
 4915 0600 76220000 		.4byte	.LASF194
 4916 0604 05       		.byte	0x5
 4917 0605 08       		.uleb128 0x8
 4918 0606 F53A0000 		.4byte	.LASF195
 4919 060a 06       		.byte	0x6
 4920 060b 08       		.uleb128 0x8
 4921 060c BE0A0000 		.4byte	.LASF196
 4922 0610 07       		.byte	0x7
 4923 0611 08       		.uleb128 0x8
 4924 0612 D53E0000 		.4byte	.LASF197
 4925 0616 08       		.byte	0x8
 4926 0617 08       		.uleb128 0x8
 4927 0618 18140000 		.4byte	.LASF198
 4928 061c 09       		.byte	0x9
 4929 061d 00       		.byte	0
 4930 061e 0D       		.uleb128 0xd
 4931 061f 02       		.byte	0x2
 4932 0620 3A000000 		.4byte	0x3a
 4933 0624 08       		.byte	0x8
 4934 0625 B1       		.byte	0xb1
 4935 0626 270E0000 		.4byte	0xe27
 4936 062a 09       		.uleb128 0x9
 4937 062b 2E160000 		.4byte	.LASF199
 4938 062f 0001     		.2byte	0x100
 4939 0631 09       		.uleb128 0x9
 4940 0632 36470000 		.4byte	.LASF200
 4941 0636 0101     		.2byte	0x101
 4942 0638 09       		.uleb128 0x9
 4943 0639 2B200000 		.4byte	.LASF201
 4944 063d 0201     		.2byte	0x102
 4945 063f 09       		.uleb128 0x9
 4946 0640 7D100000 		.4byte	.LASF202
 4947 0644 0301     		.2byte	0x103
 4948 0646 09       		.uleb128 0x9
 4949 0647 FC430000 		.4byte	.LASF203
 4950 064b 0401     		.2byte	0x104
 4951 064d 09       		.uleb128 0x9
 4952 064e 5F440000 		.4byte	.LASF204
 4953 0652 0501     		.2byte	0x105
 4954 0654 09       		.uleb128 0x9
 4955 0655 7A410000 		.4byte	.LASF205
 4956 0659 0601     		.2byte	0x106
 4957 065b 09       		.uleb128 0x9
ARM GAS  C:\Users\cypress\AppData\Local\Temp\ccgxY6Ea.s 			page 120


 4958 065c C72D0000 		.4byte	.LASF206
 4959 0660 0701     		.2byte	0x107
 4960 0662 09       		.uleb128 0x9
 4961 0663 F0410000 		.4byte	.LASF207
 4962 0667 0801     		.2byte	0x108
 4963 0669 09       		.uleb128 0x9
 4964 066a 28180000 		.4byte	.LASF208
 4965 066e 0901     		.2byte	0x109
 4966 0670 09       		.uleb128 0x9
 4967 0671 971B0000 		.4byte	.LASF209
 4968 0675 0A01     		.2byte	0x10a
 4969 0677 09       		.uleb128 0x9
 4970 0678 55230000 		.4byte	.LASF210
 4971 067c 0B01     		.2byte	0x10b
 4972 067e 09       		.uleb128 0x9
 4973 067f 4F3A0000 		.4byte	.LASF211
 4974 0683 0C01     		.2byte	0x10c
 4975 0685 09       		.uleb128 0x9
 4976 0686 91360000 		.4byte	.LASF212
 4977 068a 0D01     		.2byte	0x10d
 4978 068c 09       		.uleb128 0x9
 4979 068d 370C0000 		.4byte	.LASF213
 4980 0691 0E01     		.2byte	0x10e
 4981 0693 09       		.uleb128 0x9
 4982 0694 05220000 		.4byte	.LASF214
 4983 0698 0F01     		.2byte	0x10f
 4984 069a 09       		.uleb128 0x9
 4985 069b F50E0000 		.4byte	.LASF215
 4986 069f 1001     		.2byte	0x110
 4987 06a1 09       		.uleb128 0x9
 4988 06a2 05180000 		.4byte	.LASF216
 4989 06a6 1101     		.2byte	0x111
 4990 06a8 09       		.uleb128 0x9
 4991 06a9 39030000 		.4byte	.LASF217
 4992 06ad 1201     		.2byte	0x112
 4993 06af 09       		.uleb128 0x9
 4994 06b0 411A0000 		.4byte	.LASF218
 4995 06b4 1301     		.2byte	0x113
 4996 06b6 09       		.uleb128 0x9
 4997 06b7 AD3B0000 		.4byte	.LASF219
 4998 06bb 1401     		.2byte	0x114
 4999 06bd 09       		.uleb128 0x9
 5000 06be B10B0000 		.4byte	.LASF220
 5001 06c2 1501     		.2byte	0x115
 5002 06c4 09       		.uleb128 0x9
 5003 06c5 16290000 		.4byte	.LASF221
 5004 06c9 1601     		.2byte	0x116
 5005 06cb 09       		.uleb128 0x9
 5006 06cc 4F010000 		.4byte	.LASF222
 5007 06d0 1701     		.2byte	0x117
 5008 06d2 09       		.uleb128 0x9
 5009 06d3 1C400000 		.4byte	.LASF223
 5010 06d7 1801     		.2byte	0x118
 5011 06d9 09       		.uleb128 0x9
 5012 06da 7B470000 		.4byte	.LASF224
 5013 06de 1901     		.2byte	0x119
 5014 06e0 09       		.uleb128 0x9
ARM GAS  C:\Users\cypress\AppData\Local\Temp\ccgxY6Ea.s 			page 121


 5015 06e1 840E0000 		.4byte	.LASF225
 5016 06e5 1A01     		.2byte	0x11a
 5017 06e7 09       		.uleb128 0x9
 5018 06e8 9F210000 		.4byte	.LASF226
 5019 06ec 1B01     		.2byte	0x11b
 5020 06ee 09       		.uleb128 0x9
 5021 06ef 7A130000 		.4byte	.LASF227
 5022 06f3 1C01     		.2byte	0x11c
 5023 06f5 09       		.uleb128 0x9
 5024 06f6 61400000 		.4byte	.LASF228
 5025 06fa 1D01     		.2byte	0x11d
 5026 06fc 09       		.uleb128 0x9
 5027 06fd AB040000 		.4byte	.LASF229
 5028 0701 1E01     		.2byte	0x11e
 5029 0703 09       		.uleb128 0x9
 5030 0704 CE190000 		.4byte	.LASF230
 5031 0708 1F01     		.2byte	0x11f
 5032 070a 09       		.uleb128 0x9
 5033 070b 68190000 		.4byte	.LASF231
 5034 070f 2001     		.2byte	0x120
 5035 0711 09       		.uleb128 0x9
 5036 0712 85040000 		.4byte	.LASF232
 5037 0716 2101     		.2byte	0x121
 5038 0718 09       		.uleb128 0x9
 5039 0719 E6180000 		.4byte	.LASF233
 5040 071d 2201     		.2byte	0x122
 5041 071f 09       		.uleb128 0x9
 5042 0720 62070000 		.4byte	.LASF234
 5043 0724 2301     		.2byte	0x123
 5044 0726 09       		.uleb128 0x9
 5045 0727 FA120000 		.4byte	.LASF235
 5046 072b 2401     		.2byte	0x124
 5047 072d 09       		.uleb128 0x9
 5048 072e B63F0000 		.4byte	.LASF236
 5049 0732 2501     		.2byte	0x125
 5050 0734 09       		.uleb128 0x9
 5051 0735 76230000 		.4byte	.LASF237
 5052 0739 2601     		.2byte	0x126
 5053 073b 09       		.uleb128 0x9
 5054 073c 8E380000 		.4byte	.LASF238
 5055 0740 2701     		.2byte	0x127
 5056 0742 09       		.uleb128 0x9
 5057 0743 A31F0000 		.4byte	.LASF239
 5058 0747 2801     		.2byte	0x128
 5059 0749 09       		.uleb128 0x9
 5060 074a C53C0000 		.4byte	.LASF240
 5061 074e 2901     		.2byte	0x129
 5062 0750 09       		.uleb128 0x9
 5063 0751 ED2C0000 		.4byte	.LASF241
 5064 0755 2A01     		.2byte	0x12a
 5065 0757 09       		.uleb128 0x9
 5066 0758 963E0000 		.4byte	.LASF242
 5067 075c 2B01     		.2byte	0x12b
 5068 075e 09       		.uleb128 0x9
 5069 075f 3B2C0000 		.4byte	.LASF243
 5070 0763 2C01     		.2byte	0x12c
 5071 0765 09       		.uleb128 0x9
ARM GAS  C:\Users\cypress\AppData\Local\Temp\ccgxY6Ea.s 			page 122


 5072 0766 27170000 		.4byte	.LASF244
 5073 076a 2D01     		.2byte	0x12d
 5074 076c 09       		.uleb128 0x9
 5075 076d 53220000 		.4byte	.LASF245
 5076 0771 2E01     		.2byte	0x12e
 5077 0773 09       		.uleb128 0x9
 5078 0774 192A0000 		.4byte	.LASF246
 5079 0778 2F01     		.2byte	0x12f
 5080 077a 09       		.uleb128 0x9
 5081 077b BA290000 		.4byte	.LASF247
 5082 077f 3001     		.2byte	0x130
 5083 0781 09       		.uleb128 0x9
 5084 0782 D4070000 		.4byte	.LASF248
 5085 0786 3101     		.2byte	0x131
 5086 0788 09       		.uleb128 0x9
 5087 0789 F22A0000 		.4byte	.LASF249
 5088 078d 3201     		.2byte	0x132
 5089 078f 09       		.uleb128 0x9
 5090 0790 6C430000 		.4byte	.LASF250
 5091 0794 3301     		.2byte	0x133
 5092 0796 09       		.uleb128 0x9
 5093 0797 8A3B0000 		.4byte	.LASF251
 5094 079b 3401     		.2byte	0x134
 5095 079d 09       		.uleb128 0x9
 5096 079e 9A0A0000 		.4byte	.LASF252
 5097 07a2 3501     		.2byte	0x135
 5098 07a4 09       		.uleb128 0x9
 5099 07a5 90320000 		.4byte	.LASF253
 5100 07a9 3601     		.2byte	0x136
 5101 07ab 09       		.uleb128 0x9
 5102 07ac B23E0000 		.4byte	.LASF254
 5103 07b0 3701     		.2byte	0x137
 5104 07b2 09       		.uleb128 0x9
 5105 07b3 D3270000 		.4byte	.LASF255
 5106 07b7 3801     		.2byte	0x138
 5107 07b9 09       		.uleb128 0x9
 5108 07ba C8310000 		.4byte	.LASF256
 5109 07be 3901     		.2byte	0x139
 5110 07c0 09       		.uleb128 0x9
 5111 07c1 25190000 		.4byte	.LASF257
 5112 07c5 3A01     		.2byte	0x13a
 5113 07c7 09       		.uleb128 0x9
 5114 07c8 98170000 		.4byte	.LASF258
 5115 07cc 3B01     		.2byte	0x13b
 5116 07ce 09       		.uleb128 0x9
 5117 07cf E52B0000 		.4byte	.LASF259
 5118 07d3 3C01     		.2byte	0x13c
 5119 07d5 09       		.uleb128 0x9
 5120 07d6 BE1A0000 		.4byte	.LASF260
 5121 07da 3D01     		.2byte	0x13d
 5122 07dc 09       		.uleb128 0x9
 5123 07dd 74340000 		.4byte	.LASF261
 5124 07e1 3E01     		.2byte	0x13e
 5125 07e3 09       		.uleb128 0x9
 5126 07e4 16460000 		.4byte	.LASF262
 5127 07e8 3F01     		.2byte	0x13f
 5128 07ea 09       		.uleb128 0x9
ARM GAS  C:\Users\cypress\AppData\Local\Temp\ccgxY6Ea.s 			page 123


 5129 07eb 841D0000 		.4byte	.LASF263
 5130 07ef 4001     		.2byte	0x140
 5131 07f1 09       		.uleb128 0x9
 5132 07f2 E30F0000 		.4byte	.LASF264
 5133 07f6 4101     		.2byte	0x141
 5134 07f8 09       		.uleb128 0x9
 5135 07f9 E1230000 		.4byte	.LASF265
 5136 07fd 4201     		.2byte	0x142
 5137 07ff 09       		.uleb128 0x9
 5138 0800 CE030000 		.4byte	.LASF266
 5139 0804 4301     		.2byte	0x143
 5140 0806 09       		.uleb128 0x9
 5141 0807 7D450000 		.4byte	.LASF267
 5142 080b 4401     		.2byte	0x144
 5143 080d 09       		.uleb128 0x9
 5144 080e A5310000 		.4byte	.LASF268
 5145 0812 4501     		.2byte	0x145
 5146 0814 09       		.uleb128 0x9
 5147 0815 2F4A0000 		.4byte	.LASF269
 5148 0819 4601     		.2byte	0x146
 5149 081b 09       		.uleb128 0x9
 5150 081c B7090000 		.4byte	.LASF270
 5151 0820 4701     		.2byte	0x147
 5152 0822 09       		.uleb128 0x9
 5153 0823 302F0000 		.4byte	.LASF271
 5154 0827 4801     		.2byte	0x148
 5155 0829 09       		.uleb128 0x9
 5156 082a 9B140000 		.4byte	.LASF272
 5157 082e 4901     		.2byte	0x149
 5158 0830 09       		.uleb128 0x9
 5159 0831 691F0000 		.4byte	.LASF273
 5160 0835 4A01     		.2byte	0x14a
 5161 0837 09       		.uleb128 0x9
 5162 0838 72370000 		.4byte	.LASF274
 5163 083c 4B01     		.2byte	0x14b
 5164 083e 09       		.uleb128 0x9
 5165 083f 3A330000 		.4byte	.LASF275
 5166 0843 4C01     		.2byte	0x14c
 5167 0845 09       		.uleb128 0x9
 5168 0846 660B0000 		.4byte	.LASF276
 5169 084a 4D01     		.2byte	0x14d
 5170 084c 09       		.uleb128 0x9
 5171 084d F53B0000 		.4byte	.LASF277
 5172 0851 4E01     		.2byte	0x14e
 5173 0853 09       		.uleb128 0x9
 5174 0854 2A3D0000 		.4byte	.LASF278
 5175 0858 4F01     		.2byte	0x14f
 5176 085a 09       		.uleb128 0x9
 5177 085b BF3A0000 		.4byte	.LASF279
 5178 085f 5001     		.2byte	0x150
 5179 0861 09       		.uleb128 0x9
 5180 0862 95410000 		.4byte	.LASF280
 5181 0866 5101     		.2byte	0x151
 5182 0868 09       		.uleb128 0x9
 5183 0869 85070000 		.4byte	.LASF281
 5184 086d 5201     		.2byte	0x152
 5185 086f 09       		.uleb128 0x9
ARM GAS  C:\Users\cypress\AppData\Local\Temp\ccgxY6Ea.s 			page 124


 5186 0870 D11C0000 		.4byte	.LASF282
 5187 0874 5301     		.2byte	0x153
 5188 0876 09       		.uleb128 0x9
 5189 0877 08020000 		.4byte	.LASF283
 5190 087b 5401     		.2byte	0x154
 5191 087d 09       		.uleb128 0x9
 5192 087e 5F0C0000 		.4byte	.LASF284
 5193 0882 5501     		.2byte	0x155
 5194 0884 09       		.uleb128 0x9
 5195 0885 7F1C0000 		.4byte	.LASF285
 5196 0889 5601     		.2byte	0x156
 5197 088b 09       		.uleb128 0x9
 5198 088c 050B0000 		.4byte	.LASF286
 5199 0890 5701     		.2byte	0x157
 5200 0892 09       		.uleb128 0x9
 5201 0893 E0210000 		.4byte	.LASF287
 5202 0897 5801     		.2byte	0x158
 5203 0899 09       		.uleb128 0x9
 5204 089a DA430000 		.4byte	.LASF288
 5205 089e 5901     		.2byte	0x159
 5206 08a0 09       		.uleb128 0x9
 5207 08a1 662C0000 		.4byte	.LASF289
 5208 08a5 5A01     		.2byte	0x15a
 5209 08a7 09       		.uleb128 0x9
 5210 08a8 1B320000 		.4byte	.LASF290
 5211 08ac 5B01     		.2byte	0x15b
 5212 08ae 09       		.uleb128 0x9
 5213 08af 4D270000 		.4byte	.LASF291
 5214 08b3 5C01     		.2byte	0x15c
 5215 08b5 09       		.uleb128 0x9
 5216 08b6 1A3C0000 		.4byte	.LASF292
 5217 08ba 5D01     		.2byte	0x15d
 5218 08bc 09       		.uleb128 0x9
 5219 08bd 16420000 		.4byte	.LASF293
 5220 08c1 5E01     		.2byte	0x15e
 5221 08c3 09       		.uleb128 0x9
 5222 08c4 31410000 		.4byte	.LASF294
 5223 08c8 5F01     		.2byte	0x15f
 5224 08ca 09       		.uleb128 0x9
 5225 08cb 35250000 		.4byte	.LASF295
 5226 08cf 6001     		.2byte	0x160
 5227 08d1 09       		.uleb128 0x9
 5228 08d2 D2280000 		.4byte	.LASF296
 5229 08d6 6101     		.2byte	0x161
 5230 08d8 09       		.uleb128 0x9
 5231 08d9 9E130000 		.4byte	.LASF297
 5232 08dd 6201     		.2byte	0x162
 5233 08df 09       		.uleb128 0x9
 5234 08e0 2C3A0000 		.4byte	.LASF298
 5235 08e4 6301     		.2byte	0x163
 5236 08e6 09       		.uleb128 0x9
 5237 08e7 0F370000 		.4byte	.LASF299
 5238 08eb 6401     		.2byte	0x164
 5239 08ed 09       		.uleb128 0x9
 5240 08ee BB160000 		.4byte	.LASF300
 5241 08f2 6501     		.2byte	0x165
 5242 08f4 09       		.uleb128 0x9
ARM GAS  C:\Users\cypress\AppData\Local\Temp\ccgxY6Ea.s 			page 125


 5243 08f5 70310000 		.4byte	.LASF301
 5244 08f9 6601     		.2byte	0x166
 5245 08fb 09       		.uleb128 0x9
 5246 08fc 4E000000 		.4byte	.LASF302
 5247 0900 6701     		.2byte	0x167
 5248 0902 09       		.uleb128 0x9
 5249 0903 45050000 		.4byte	.LASF303
 5250 0907 6801     		.2byte	0x168
 5251 0909 09       		.uleb128 0x9
 5252 090a D1090000 		.4byte	.LASF304
 5253 090e 6901     		.2byte	0x169
 5254 0910 09       		.uleb128 0x9
 5255 0911 A6010000 		.4byte	.LASF305
 5256 0915 6A01     		.2byte	0x16a
 5257 0917 09       		.uleb128 0x9
 5258 0918 A31A0000 		.4byte	.LASF306
 5259 091c 6B01     		.2byte	0x16b
 5260 091e 09       		.uleb128 0x9
 5261 091f EF400000 		.4byte	.LASF307
 5262 0923 6C01     		.2byte	0x16c
 5263 0925 09       		.uleb128 0x9
 5264 0926 C8480000 		.4byte	.LASF308
 5265 092a 6D01     		.2byte	0x16d
 5266 092c 09       		.uleb128 0x9
 5267 092d 08350000 		.4byte	.LASF309
 5268 0931 6E01     		.2byte	0x16e
 5269 0933 09       		.uleb128 0x9
 5270 0934 6B020000 		.4byte	.LASF310
 5271 0938 6F01     		.2byte	0x16f
 5272 093a 09       		.uleb128 0x9
 5273 093b 4C0D0000 		.4byte	.LASF311
 5274 093f 7001     		.2byte	0x170
 5275 0941 09       		.uleb128 0x9
 5276 0942 59120000 		.4byte	.LASF312
 5277 0946 7101     		.2byte	0x171
 5278 0948 09       		.uleb128 0x9
 5279 0949 5B240000 		.4byte	.LASF313
 5280 094d 7201     		.2byte	0x172
 5281 094f 09       		.uleb128 0x9
 5282 0950 82200000 		.4byte	.LASF314
 5283 0954 7301     		.2byte	0x173
 5284 0956 09       		.uleb128 0x9
 5285 0957 EB380000 		.4byte	.LASF315
 5286 095b 7401     		.2byte	0x174
 5287 095d 09       		.uleb128 0x9
 5288 095e F5160000 		.4byte	.LASF316
 5289 0962 7501     		.2byte	0x175
 5290 0964 09       		.uleb128 0x9
 5291 0965 EB490000 		.4byte	.LASF317
 5292 0969 7601     		.2byte	0x176
 5293 096b 09       		.uleb128 0x9
 5294 096c 08200000 		.4byte	.LASF318
 5295 0970 7701     		.2byte	0x177
 5296 0972 09       		.uleb128 0x9
 5297 0973 822E0000 		.4byte	.LASF319
 5298 0977 7801     		.2byte	0x178
 5299 0979 09       		.uleb128 0x9
ARM GAS  C:\Users\cypress\AppData\Local\Temp\ccgxY6Ea.s 			page 126


 5300 097a 38150000 		.4byte	.LASF320
 5301 097e 7901     		.2byte	0x179
 5302 0980 09       		.uleb128 0x9
 5303 0981 77350000 		.4byte	.LASF321
 5304 0985 7A01     		.2byte	0x17a
 5305 0987 09       		.uleb128 0x9
 5306 0988 91030000 		.4byte	.LASF322
 5307 098c 7B01     		.2byte	0x17b
 5308 098e 09       		.uleb128 0x9
 5309 098f AE250000 		.4byte	.LASF323
 5310 0993 7C01     		.2byte	0x17c
 5311 0995 09       		.uleb128 0x9
 5312 0996 8F090000 		.4byte	.LASF324
 5313 099a 7D01     		.2byte	0x17d
 5314 099c 09       		.uleb128 0x9
 5315 099d 3F070000 		.4byte	.LASF325
 5316 09a1 7E01     		.2byte	0x17e
 5317 09a3 09       		.uleb128 0x9
 5318 09a4 1E050000 		.4byte	.LASF326
 5319 09a8 7F01     		.2byte	0x17f
 5320 09aa 09       		.uleb128 0x9
 5321 09ab 48420000 		.4byte	.LASF327
 5322 09af 8001     		.2byte	0x180
 5323 09b1 09       		.uleb128 0x9
 5324 09b2 57370000 		.4byte	.LASF328
 5325 09b6 8101     		.2byte	0x181
 5326 09b8 09       		.uleb128 0x9
 5327 09b9 0D4A0000 		.4byte	.LASF329
 5328 09bd 8201     		.2byte	0x182
 5329 09bf 09       		.uleb128 0x9
 5330 09c0 86060000 		.4byte	.LASF330
 5331 09c4 8301     		.2byte	0x183
 5332 09c6 09       		.uleb128 0x9
 5333 09c7 9E390000 		.4byte	.LASF331
 5334 09cb 8401     		.2byte	0x184
 5335 09cd 09       		.uleb128 0x9
 5336 09ce 54490000 		.4byte	.LASF332
 5337 09d2 8501     		.2byte	0x185
 5338 09d4 09       		.uleb128 0x9
 5339 09d5 68290000 		.4byte	.LASF333
 5340 09d9 8601     		.2byte	0x186
 5341 09db 09       		.uleb128 0x9
 5342 09dc 5B2D0000 		.4byte	.LASF334
 5343 09e0 8701     		.2byte	0x187
 5344 09e2 09       		.uleb128 0x9
 5345 09e3 3F040000 		.4byte	.LASF335
 5346 09e7 8801     		.2byte	0x188
 5347 09e9 09       		.uleb128 0x9
 5348 09ea F9320000 		.4byte	.LASF336
 5349 09ee 8901     		.2byte	0x189
 5350 09f0 09       		.uleb128 0x9
 5351 09f1 AA190000 		.4byte	.LASF337
 5352 09f5 8A01     		.2byte	0x18a
 5353 09f7 09       		.uleb128 0x9
 5354 09f8 7E3D0000 		.4byte	.LASF338
 5355 09fc 8B01     		.2byte	0x18b
 5356 09fe 09       		.uleb128 0x9
ARM GAS  C:\Users\cypress\AppData\Local\Temp\ccgxY6Ea.s 			page 127


 5357 09ff FD370000 		.4byte	.LASF339
 5358 0a03 8C01     		.2byte	0x18c
 5359 0a05 09       		.uleb128 0x9
 5360 0a06 86420000 		.4byte	.LASF340
 5361 0a0a 8D01     		.2byte	0x18d
 5362 0a0c 09       		.uleb128 0x9
 5363 0a0d 27270000 		.4byte	.LASF341
 5364 0a11 8E01     		.2byte	0x18e
 5365 0a13 09       		.uleb128 0x9
 5366 0a14 9A3F0000 		.4byte	.LASF342
 5367 0a18 8F01     		.2byte	0x18f
 5368 0a1a 09       		.uleb128 0x9
 5369 0a1b 0A340000 		.4byte	.LASF343
 5370 0a1f 9001     		.2byte	0x190
 5371 0a21 09       		.uleb128 0x9
 5372 0a22 472A0000 		.4byte	.LASF344
 5373 0a26 9101     		.2byte	0x191
 5374 0a28 09       		.uleb128 0x9
 5375 0a29 B3360000 		.4byte	.LASF345
 5376 0a2d 9201     		.2byte	0x192
 5377 0a2f 09       		.uleb128 0x9
 5378 0a30 121D0000 		.4byte	.LASF346
 5379 0a34 9301     		.2byte	0x193
 5380 0a36 09       		.uleb128 0x9
 5381 0a37 69080000 		.4byte	.LASF347
 5382 0a3b 9401     		.2byte	0x194
 5383 0a3d 09       		.uleb128 0x9
 5384 0a3e DE440000 		.4byte	.LASF348
 5385 0a42 9501     		.2byte	0x195
 5386 0a44 09       		.uleb128 0x9
 5387 0a45 3A460000 		.4byte	.LASF349
 5388 0a49 9601     		.2byte	0x196
 5389 0a4b 09       		.uleb128 0x9
 5390 0a4c 8D220000 		.4byte	.LASF350
 5391 0a50 9701     		.2byte	0x197
 5392 0a52 09       		.uleb128 0x9
 5393 0a53 22380000 		.4byte	.LASF351
 5394 0a57 9801     		.2byte	0x198
 5395 0a59 09       		.uleb128 0x9
 5396 0a5a BD200000 		.4byte	.LASF352
 5397 0a5e 9901     		.2byte	0x199
 5398 0a60 09       		.uleb128 0x9
 5399 0a61 F4280000 		.4byte	.LASF353
 5400 0a65 9A01     		.2byte	0x19a
 5401 0a67 09       		.uleb128 0x9
 5402 0a68 70300000 		.4byte	.LASF354
 5403 0a6c 9B01     		.2byte	0x19b
 5404 0a6e 09       		.uleb128 0x9
 5405 0a6f A2460000 		.4byte	.LASF355
 5406 0a73 9C01     		.2byte	0x19c
 5407 0a75 09       		.uleb128 0x9
 5408 0a76 32260000 		.4byte	.LASF356
 5409 0a7a 9D01     		.2byte	0x19d
 5410 0a7c 09       		.uleb128 0x9
 5411 0a7d 2D140000 		.4byte	.LASF357
 5412 0a81 9E01     		.2byte	0x19e
 5413 0a83 09       		.uleb128 0x9
ARM GAS  C:\Users\cypress\AppData\Local\Temp\ccgxY6Ea.s 			page 128


 5414 0a84 7E120000 		.4byte	.LASF358
 5415 0a88 9F01     		.2byte	0x19f
 5416 0a8a 09       		.uleb128 0x9
 5417 0a8b F0000000 		.4byte	.LASF359
 5418 0a8f A001     		.2byte	0x1a0
 5419 0a91 09       		.uleb128 0x9
 5420 0a92 00000000 		.4byte	.LASF360
 5421 0a96 A101     		.2byte	0x1a1
 5422 0a98 09       		.uleb128 0x9
 5423 0a99 EE460000 		.4byte	.LASF361
 5424 0a9d A201     		.2byte	0x1a2
 5425 0a9f 09       		.uleb128 0x9
 5426 0aa0 3E310000 		.4byte	.LASF362
 5427 0aa4 A301     		.2byte	0x1a3
 5428 0aa6 09       		.uleb128 0x9
 5429 0aa7 13430000 		.4byte	.LASF363
 5430 0aab A401     		.2byte	0x1a4
 5431 0aad 09       		.uleb128 0x9
 5432 0aae 32230000 		.4byte	.LASF364
 5433 0ab2 A501     		.2byte	0x1a5
 5434 0ab4 09       		.uleb128 0x9
 5435 0ab5 760A0000 		.4byte	.LASF365
 5436 0ab9 A601     		.2byte	0x1a6
 5437 0abb 09       		.uleb128 0x9
 5438 0abc 131E0000 		.4byte	.LASF366
 5439 0ac0 A701     		.2byte	0x1a7
 5440 0ac2 09       		.uleb128 0x9
 5441 0ac3 A81D0000 		.4byte	.LASF367
 5442 0ac7 A801     		.2byte	0x1a8
 5443 0ac9 09       		.uleb128 0x9
 5444 0aca 7B210000 		.4byte	.LASF368
 5445 0ace A901     		.2byte	0x1a9
 5446 0ad0 09       		.uleb128 0x9
 5447 0ad1 D2340000 		.4byte	.LASF369
 5448 0ad5 AA01     		.2byte	0x1aa
 5449 0ad7 09       		.uleb128 0x9
 5450 0ad8 1F2C0000 		.4byte	.LASF370
 5451 0adc AB01     		.2byte	0x1ab
 5452 0ade 09       		.uleb128 0x9
 5453 0adf 88180000 		.4byte	.LASF371
 5454 0ae3 AC01     		.2byte	0x1ac
 5455 0ae5 09       		.uleb128 0x9
 5456 0ae6 FF3E0000 		.4byte	.LASF372
 5457 0aea AD01     		.2byte	0x1ad
 5458 0aec 09       		.uleb128 0x9
 5459 0aed C8490000 		.4byte	.LASF373
 5460 0af1 AE01     		.2byte	0x1ae
 5461 0af3 09       		.uleb128 0x9
 5462 0af4 DA020000 		.4byte	.LASF374
 5463 0af8 AF01     		.2byte	0x1af
 5464 0afa 09       		.uleb128 0x9
 5465 0afb DA200000 		.4byte	.LASF375
 5466 0aff B001     		.2byte	0x1b0
 5467 0b01 09       		.uleb128 0x9
 5468 0b02 A3490000 		.4byte	.LASF376
 5469 0b06 B101     		.2byte	0x1b1
 5470 0b08 09       		.uleb128 0x9
ARM GAS  C:\Users\cypress\AppData\Local\Temp\ccgxY6Ea.s 			page 129


 5471 0b09 AF080000 		.4byte	.LASF377
 5472 0b0d B201     		.2byte	0x1b2
 5473 0b0f 09       		.uleb128 0x9
 5474 0b10 1C210000 		.4byte	.LASF378
 5475 0b14 B301     		.2byte	0x1b3
 5476 0b16 09       		.uleb128 0x9
 5477 0b17 A21E0000 		.4byte	.LASF379
 5478 0b1b B401     		.2byte	0x1b4
 5479 0b1d 09       		.uleb128 0x9
 5480 0b1e E6080000 		.4byte	.LASF380
 5481 0b22 B501     		.2byte	0x1b5
 5482 0b24 09       		.uleb128 0x9
 5483 0b25 42080000 		.4byte	.LASF381
 5484 0b29 B601     		.2byte	0x1b6
 5485 0b2b 09       		.uleb128 0x9
 5486 0b2c 4A170000 		.4byte	.LASF382
 5487 0b30 B701     		.2byte	0x1b7
 5488 0b32 09       		.uleb128 0x9
 5489 0b33 41380000 		.4byte	.LASF383
 5490 0b37 B801     		.2byte	0x1b8
 5491 0b39 09       		.uleb128 0x9
 5492 0b3a 671A0000 		.4byte	.LASF384
 5493 0b3e B901     		.2byte	0x1b9
 5494 0b40 09       		.uleb128 0x9
 5495 0b41 98240000 		.4byte	.LASF385
 5496 0b45 BA01     		.2byte	0x1ba
 5497 0b47 09       		.uleb128 0x9
 5498 0b48 FB230000 		.4byte	.LASF386
 5499 0b4c BB01     		.2byte	0x1bb
 5500 0b4e 09       		.uleb128 0x9
 5501 0b4f FE200000 		.4byte	.LASF387
 5502 0b53 BC01     		.2byte	0x1bc
 5503 0b55 09       		.uleb128 0x9
 5504 0b56 A9370000 		.4byte	.LASF388
 5505 0b5a BD01     		.2byte	0x1bd
 5506 0b5c 09       		.uleb128 0x9
 5507 0b5d 9B2F0000 		.4byte	.LASF389
 5508 0b61 BE01     		.2byte	0x1be
 5509 0b63 09       		.uleb128 0x9
 5510 0b64 0C1B0000 		.4byte	.LASF390
 5511 0b68 BF01     		.2byte	0x1bf
 5512 0b6a 09       		.uleb128 0x9
 5513 0b6b 1C040000 		.4byte	.LASF391
 5514 0b6f C001     		.2byte	0x1c0
 5515 0b71 09       		.uleb128 0x9
 5516 0b72 5C0E0000 		.4byte	.LASF392
 5517 0b76 C101     		.2byte	0x1c1
 5518 0b78 09       		.uleb128 0x9
 5519 0b79 1D010000 		.4byte	.LASF393
 5520 0b7d C201     		.2byte	0x1c2
 5521 0b7f 09       		.uleb128 0x9
 5522 0b80 C2210000 		.4byte	.LASF394
 5523 0b84 C301     		.2byte	0x1c3
 5524 0b86 09       		.uleb128 0x9
 5525 0b87 EE040000 		.4byte	.LASF395
 5526 0b8b C401     		.2byte	0x1c4
 5527 0b8d 09       		.uleb128 0x9
ARM GAS  C:\Users\cypress\AppData\Local\Temp\ccgxY6Ea.s 			page 130


 5528 0b8e D0040000 		.4byte	.LASF396
 5529 0b92 C501     		.2byte	0x1c5
 5530 0b94 09       		.uleb128 0x9
 5531 0b95 10230000 		.4byte	.LASF397
 5532 0b99 C601     		.2byte	0x1c6
 5533 0b9b 09       		.uleb128 0x9
 5534 0b9c 08470000 		.4byte	.LASF398
 5535 0ba0 C701     		.2byte	0x1c7
 5536 0ba2 09       		.uleb128 0x9
 5537 0ba3 1E130000 		.4byte	.LASF399
 5538 0ba7 C801     		.2byte	0x1c8
 5539 0ba9 09       		.uleb128 0x9
 5540 0baa 7D3C0000 		.4byte	.LASF400
 5541 0bae C901     		.2byte	0x1c9
 5542 0bb0 09       		.uleb128 0x9
 5543 0bb1 032E0000 		.4byte	.LASF401
 5544 0bb5 CA01     		.2byte	0x1ca
 5545 0bb7 09       		.uleb128 0x9
 5546 0bb8 290B0000 		.4byte	.LASF402
 5547 0bbc CB01     		.2byte	0x1cb
 5548 0bbe 09       		.uleb128 0x9
 5549 0bbf 8B290000 		.4byte	.LASF403
 5550 0bc3 CC01     		.2byte	0x1cc
 5551 0bc5 09       		.uleb128 0x9
 5552 0bc6 F0260000 		.4byte	.LASF404
 5553 0bca CD01     		.2byte	0x1cd
 5554 0bcc 09       		.uleb128 0x9
 5555 0bcd F00C0000 		.4byte	.LASF405
 5556 0bd1 CE01     		.2byte	0x1ce
 5557 0bd3 09       		.uleb128 0x9
 5558 0bd4 D62A0000 		.4byte	.LASF406
 5559 0bd8 CF01     		.2byte	0x1cf
 5560 0bda 09       		.uleb128 0x9
 5561 0bdb 4D410000 		.4byte	.LASF407
 5562 0bdf D001     		.2byte	0x1d0
 5563 0be1 09       		.uleb128 0x9
 5564 0be2 2B350000 		.4byte	.LASF408
 5565 0be6 D101     		.2byte	0x1d1
 5566 0be8 09       		.uleb128 0x9
 5567 0be9 BA150000 		.4byte	.LASF409
 5568 0bed D201     		.2byte	0x1d2
 5569 0bef 09       		.uleb128 0x9
 5570 0bf0 090C0000 		.4byte	.LASF410
 5571 0bf4 D301     		.2byte	0x1d3
 5572 0bf6 09       		.uleb128 0x9
 5573 0bf7 880F0000 		.4byte	.LASF411
 5574 0bfb D401     		.2byte	0x1d4
 5575 0bfd 09       		.uleb128 0x9
 5576 0bfe 91000000 		.4byte	.LASF412
 5577 0c02 D501     		.2byte	0x1d5
 5578 0c04 09       		.uleb128 0x9
 5579 0c05 2D220000 		.4byte	.LASF413
 5580 0c09 D601     		.2byte	0x1d6
 5581 0c0b 09       		.uleb128 0x9
 5582 0c0c A6300000 		.4byte	.LASF414
 5583 0c10 D701     		.2byte	0x1d7
 5584 0c12 09       		.uleb128 0x9
ARM GAS  C:\Users\cypress\AppData\Local\Temp\ccgxY6Ea.s 			page 131


 5585 0c13 8F330000 		.4byte	.LASF415
 5586 0c17 D801     		.2byte	0x1d8
 5587 0c19 09       		.uleb128 0x9
 5588 0c1a 83010000 		.4byte	.LASF416
 5589 0c1e D901     		.2byte	0x1d9
 5590 0c20 09       		.uleb128 0x9
 5591 0c21 2C340000 		.4byte	.LASF417
 5592 0c25 DA01     		.2byte	0x1da
 5593 0c27 09       		.uleb128 0x9
 5594 0c28 E40B0000 		.4byte	.LASF418
 5595 0c2c DB01     		.2byte	0x1db
 5596 0c2e 09       		.uleb128 0x9
 5597 0c2f 742F0000 		.4byte	.LASF419
 5598 0c33 DC01     		.2byte	0x1dc
 5599 0c35 09       		.uleb128 0x9
 5600 0c36 830C0000 		.4byte	.LASF420
 5601 0c3a DD01     		.2byte	0x1dd
 5602 0c3c 09       		.uleb128 0x9
 5603 0c3d 8F2D0000 		.4byte	.LASF421
 5604 0c41 DE01     		.2byte	0x1de
 5605 0c43 09       		.uleb128 0x9
 5606 0c44 363E0000 		.4byte	.LASF422
 5607 0c48 DF01     		.2byte	0x1df
 5608 0c4a 09       		.uleb128 0x9
 5609 0c4b 5E200000 		.4byte	.LASF423
 5610 0c4f E001     		.2byte	0x1e0
 5611 0c51 09       		.uleb128 0x9
 5612 0c52 00090000 		.4byte	.LASF424
 5613 0c56 E101     		.2byte	0x1e1
 5614 0c58 09       		.uleb128 0x9
 5615 0c59 D2400000 		.4byte	.LASF425
 5616 0c5d E201     		.2byte	0x1e2
 5617 0c5f 09       		.uleb128 0x9
 5618 0c60 0A150000 		.4byte	.LASF426
 5619 0c64 E301     		.2byte	0x1e3
 5620 0c66 09       		.uleb128 0x9
 5621 0c67 9B230000 		.4byte	.LASF427
 5622 0c6b E401     		.2byte	0x1e4
 5623 0c6d 09       		.uleb128 0x9
 5624 0c6e ED190000 		.4byte	.LASF428
 5625 0c72 E501     		.2byte	0x1e5
 5626 0c74 09       		.uleb128 0x9
 5627 0c75 7E460000 		.4byte	.LASF429
 5628 0c79 E601     		.2byte	0x1e6
 5629 0c7b 09       		.uleb128 0x9
 5630 0c7c BB170000 		.4byte	.LASF430
 5631 0c80 E701     		.2byte	0x1e7
 5632 0c82 09       		.uleb128 0x9
 5633 0c83 CB350000 		.4byte	.LASF431
 5634 0c87 E801     		.2byte	0x1e8
 5635 0c89 09       		.uleb128 0x9
 5636 0c8a 593E0000 		.4byte	.LASF432
 5637 0c8e E901     		.2byte	0x1e9
 5638 0c90 09       		.uleb128 0x9
 5639 0c91 9C3A0000 		.4byte	.LASF433
 5640 0c95 EA01     		.2byte	0x1ea
 5641 0c97 09       		.uleb128 0x9
ARM GAS  C:\Users\cypress\AppData\Local\Temp\ccgxY6Ea.s 			page 132


 5642 0c98 663B0000 		.4byte	.LASF434
 5643 0c9c EB01     		.2byte	0x1eb
 5644 0c9e 09       		.uleb128 0x9
 5645 0c9f 0D250000 		.4byte	.LASF435
 5646 0ca3 EC01     		.2byte	0x1ec
 5647 0ca5 09       		.uleb128 0x9
 5648 0ca6 5E330000 		.4byte	.LASF436
 5649 0caa ED01     		.2byte	0x1ed
 5650 0cac 09       		.uleb128 0x9
 5651 0cad 8D190000 		.4byte	.LASF437
 5652 0cb1 EE01     		.2byte	0x1ee
 5653 0cb3 09       		.uleb128 0x9
 5654 0cb4 D5410000 		.4byte	.LASF438
 5655 0cb8 EF01     		.2byte	0x1ef
 5656 0cba 09       		.uleb128 0x9
 5657 0cbb C71F0000 		.4byte	.LASF439
 5658 0cbf F001     		.2byte	0x1f0
 5659 0cc1 09       		.uleb128 0x9
 5660 0cc2 50340000 		.4byte	.LASF440
 5661 0cc6 F101     		.2byte	0x1f1
 5662 0cc8 09       		.uleb128 0x9
 5663 0cc9 E6140000 		.4byte	.LASF441
 5664 0ccd F201     		.2byte	0x1f2
 5665 0ccf 09       		.uleb128 0x9
 5666 0cd0 0C410000 		.4byte	.LASF442
 5667 0cd4 F301     		.2byte	0x1f3
 5668 0cd6 09       		.uleb128 0x9
 5669 0cd7 B80E0000 		.4byte	.LASF443
 5670 0cdb F401     		.2byte	0x1f4
 5671 0cdd 09       		.uleb128 0x9
 5672 0cde 5A3C0000 		.4byte	.LASF444
 5673 0ce2 F501     		.2byte	0x1f5
 5674 0ce4 09       		.uleb128 0x9
 5675 0ce5 A6350000 		.4byte	.LASF445
 5676 0ce9 F601     		.2byte	0x1f6
 5677 0ceb 09       		.uleb128 0x9
 5678 0cec AC340000 		.4byte	.LASF446
 5679 0cf0 F701     		.2byte	0x1f7
 5680 0cf2 09       		.uleb128 0x9
 5681 0cf3 73140000 		.4byte	.LASF447
 5682 0cf7 F801     		.2byte	0x1f8
 5683 0cf9 09       		.uleb128 0x9
 5684 0cfa DD150000 		.4byte	.LASF448
 5685 0cfe F901     		.2byte	0x1f9
 5686 0d00 09       		.uleb128 0x9
 5687 0d01 62060000 		.4byte	.LASF449
 5688 0d05 FA01     		.2byte	0x1fa
 5689 0d07 09       		.uleb128 0x9
 5690 0d08 FA150000 		.4byte	.LASF450
 5691 0d0c FB01     		.2byte	0x1fb
 5692 0d0e 09       		.uleb128 0x9
 5693 0d0f 16280000 		.4byte	.LASF451
 5694 0d13 FC01     		.2byte	0x1fc
 5695 0d15 09       		.uleb128 0x9
 5696 0d16 A0060000 		.4byte	.LASF452
 5697 0d1a FD01     		.2byte	0x1fd
 5698 0d1c 09       		.uleb128 0x9
ARM GAS  C:\Users\cypress\AppData\Local\Temp\ccgxY6Ea.s 			page 133


 5699 0d1d AC330000 		.4byte	.LASF453
 5700 0d21 FE01     		.2byte	0x1fe
 5701 0d23 09       		.uleb128 0x9
 5702 0d24 A4470000 		.4byte	.LASF454
 5703 0d28 FF01     		.2byte	0x1ff
 5704 0d2a 09       		.uleb128 0x9
 5705 0d2b A5020000 		.4byte	.LASF455
 5706 0d2f 0002     		.2byte	0x200
 5707 0d31 09       		.uleb128 0x9
 5708 0d32 27090000 		.4byte	.LASF456
 5709 0d36 0102     		.2byte	0x201
 5710 0d38 09       		.uleb128 0x9
 5711 0d39 76170000 		.4byte	.LASF457
 5712 0d3d 0202     		.2byte	0x202
 5713 0d3f 09       		.uleb128 0x9
 5714 0d40 4D300000 		.4byte	.LASF458
 5715 0d44 0302     		.2byte	0x203
 5716 0d46 09       		.uleb128 0x9
 5717 0d47 371B0000 		.4byte	.LASF459
 5718 0d4b 0402     		.2byte	0x204
 5719 0d4d 09       		.uleb128 0x9
 5720 0d4e 763F0000 		.4byte	.LASF460
 5721 0d52 0502     		.2byte	0x205
 5722 0d54 09       		.uleb128 0x9
 5723 0d55 0C0A0000 		.4byte	.LASF461
 5724 0d59 0602     		.2byte	0x206
 5725 0d5b 09       		.uleb128 0x9
 5726 0d5c F5390000 		.4byte	.LASF462
 5727 0d60 0702     		.2byte	0x207
 5728 0d62 09       		.uleb128 0x9
 5729 0d63 271A0000 		.4byte	.LASF463
 5730 0d67 0802     		.2byte	0x208
 5731 0d69 09       		.uleb128 0x9
 5732 0d6a A1160000 		.4byte	.LASF464
 5733 0d6e 0902     		.2byte	0x209
 5734 0d70 09       		.uleb128 0x9
 5735 0d71 2B490000 		.4byte	.LASF465
 5736 0d75 0A02     		.2byte	0x20a
 5737 0d77 09       		.uleb128 0x9
 5738 0d78 10480000 		.4byte	.LASF466
 5739 0d7c 0B02     		.2byte	0x20b
 5740 0d7e 09       		.uleb128 0x9
 5741 0d7f 59280000 		.4byte	.LASF467
 5742 0d83 0C02     		.2byte	0x20c
 5743 0d85 09       		.uleb128 0x9
 5744 0d86 C8330000 		.4byte	.LASF468
 5745 0d8a 0D02     		.2byte	0x20d
 5746 0d8c 09       		.uleb128 0x9
 5747 0d8d E01E0000 		.4byte	.LASF469
 5748 0d91 0E02     		.2byte	0x20e
 5749 0d93 09       		.uleb128 0x9
 5750 0d94 27240000 		.4byte	.LASF470
 5751 0d98 0F02     		.2byte	0x20f
 5752 0d9a 09       		.uleb128 0x9
 5753 0d9b 95150000 		.4byte	.LASF471
 5754 0d9f 1002     		.2byte	0x210
 5755 0da1 09       		.uleb128 0x9
ARM GAS  C:\Users\cypress\AppData\Local\Temp\ccgxY6Ea.s 			page 134


 5756 0da2 C40C0000 		.4byte	.LASF472
 5757 0da6 1102     		.2byte	0x211
 5758 0da8 09       		.uleb128 0x9
 5759 0da9 BE230000 		.4byte	.LASF473
 5760 0dad 1202     		.2byte	0x212
 5761 0daf 09       		.uleb128 0x9
 5762 0db0 62420000 		.4byte	.LASF474
 5763 0db4 1302     		.2byte	0x213
 5764 0db6 09       		.uleb128 0x9
 5765 0db7 A03C0000 		.4byte	.LASF475
 5766 0dbb 1402     		.2byte	0x214
 5767 0dbd 09       		.uleb128 0x9
 5768 0dbe 00320000 		.4byte	.LASF476
 5769 0dc2 1502     		.2byte	0x215
 5770 0dc4 09       		.uleb128 0x9
 5771 0dc5 A0420000 		.4byte	.LASF477
 5772 0dc9 1602     		.2byte	0x216
 5773 0dcb 09       		.uleb128 0x9
 5774 0dcc 4E180000 		.4byte	.LASF478
 5775 0dd0 1702     		.2byte	0x217
 5776 0dd2 09       		.uleb128 0x9
 5777 0dd3 7A390000 		.4byte	.LASF479
 5778 0dd7 1802     		.2byte	0x218
 5779 0dd9 09       		.uleb128 0x9
 5780 0dda 4B090000 		.4byte	.LASF480
 5781 0dde 1902     		.2byte	0x219
 5782 0de0 09       		.uleb128 0x9
 5783 0de1 5A460000 		.4byte	.LASF481
 5784 0de5 1A02     		.2byte	0x21a
 5785 0de7 09       		.uleb128 0x9
 5786 0de8 B0410000 		.4byte	.LASF482
 5787 0dec 1B02     		.2byte	0x21b
 5788 0dee 09       		.uleb128 0x9
 5789 0def 43360000 		.4byte	.LASF483
 5790 0df3 1C02     		.2byte	0x21c
 5791 0df5 09       		.uleb128 0x9
 5792 0df6 041F0000 		.4byte	.LASF484
 5793 0dfa 1D02     		.2byte	0x21d
 5794 0dfc 09       		.uleb128 0x9
 5795 0dfd 731B0000 		.4byte	.LASF485
 5796 0e01 1E02     		.2byte	0x21e
 5797 0e03 09       		.uleb128 0x9
 5798 0e04 CB2B0000 		.4byte	.LASF486
 5799 0e08 1F02     		.2byte	0x21f
 5800 0e0a 09       		.uleb128 0x9
 5801 0e0b E3300000 		.4byte	.LASF487
 5802 0e0f 2002     		.2byte	0x220
 5803 0e11 09       		.uleb128 0x9
 5804 0e12 E5220000 		.4byte	.LASF488
 5805 0e16 2102     		.2byte	0x221
 5806 0e18 09       		.uleb128 0x9
 5807 0e19 451F0000 		.4byte	.LASF489
 5808 0e1d 2202     		.2byte	0x222
 5809 0e1f 09       		.uleb128 0x9
 5810 0e20 E20D0000 		.4byte	.LASF490
 5811 0e24 00E0     		.2byte	0xe000
 5812 0e26 00       		.byte	0
ARM GAS  C:\Users\cypress\AppData\Local\Temp\ccgxY6Ea.s 			page 135


 5813 0e27 11       		.uleb128 0x11
 5814 0e28 8D300000 		.4byte	.LASF491
 5815 0e2c 09       		.byte	0x9
 5816 0e2d 16       		.byte	0x16
 5817 0e2e 77000000 		.4byte	0x77
 5818 0e32 12       		.uleb128 0x12
 5819 0e33 08       		.byte	0x8
 5820 0e34 09       		.byte	0x9
 5821 0e35 58       		.byte	0x58
 5822 0e36 830E0000 		.4byte	0xe83
 5823 0e3a 13       		.uleb128 0x13
 5824 0e3b 401F0000 		.4byte	.LASF492
 5825 0e3f 09       		.byte	0x9
 5826 0e40 5A       		.byte	0x5a
 5827 0e41 77000000 		.4byte	0x77
 5828 0e45 00       		.byte	0
 5829 0e46 13       		.uleb128 0x13
 5830 0e47 7F070000 		.4byte	.LASF493
 5831 0e4b 09       		.byte	0x9
 5832 0e4c 5B       		.byte	0x5b
 5833 0e4d 6B000000 		.4byte	0x6b
 5834 0e51 02       		.byte	0x2
 5835 0e52 14       		.uleb128 0x14
 5836 0e53 64617900 		.ascii	"day\000"
 5837 0e57 09       		.byte	0x9
 5838 0e58 5C       		.byte	0x5c
 5839 0e59 6B000000 		.4byte	0x6b
 5840 0e5d 03       		.byte	0x3
 5841 0e5e 13       		.uleb128 0x13
 5842 0e5f EA0C0000 		.4byte	.LASF494
 5843 0e63 09       		.byte	0x9
 5844 0e64 5D       		.byte	0x5d
 5845 0e65 6B000000 		.4byte	0x6b
 5846 0e69 04       		.byte	0x4
 5847 0e6a 13       		.uleb128 0x13
 5848 0e6b D6360000 		.4byte	.LASF495
 5849 0e6f 09       		.byte	0x9
 5850 0e70 5E       		.byte	0x5e
 5851 0e71 6B000000 		.4byte	0x6b
 5852 0e75 05       		.byte	0x5
 5853 0e76 13       		.uleb128 0x13
 5854 0e77 8B0B0000 		.4byte	.LASF496
 5855 0e7b 09       		.byte	0x9
 5856 0e7c 5F       		.byte	0x5f
 5857 0e7d 6B000000 		.4byte	0x6b
 5858 0e81 06       		.byte	0x6
 5859 0e82 00       		.byte	0
 5860 0e83 11       		.uleb128 0x11
 5861 0e84 2E3B0000 		.4byte	.LASF497
 5862 0e88 09       		.byte	0x9
 5863 0e89 60       		.byte	0x60
 5864 0e8a 320E0000 		.4byte	0xe32
 5865 0e8e 12       		.uleb128 0x12
 5866 0e8f 10       		.byte	0x10
 5867 0e90 09       		.byte	0x9
 5868 0e91 82       		.byte	0x82
 5869 0e92 DF0E0000 		.4byte	0xedf
ARM GAS  C:\Users\cypress\AppData\Local\Temp\ccgxY6Ea.s 			page 136


 5870 0e96 13       		.uleb128 0x13
 5871 0e97 294A0000 		.4byte	.LASF498
 5872 0e9b 09       		.byte	0x9
 5873 0e9c 84       		.byte	0x84
 5874 0e9d 6B000000 		.4byte	0x6b
 5875 0ea1 00       		.byte	0
 5876 0ea2 13       		.uleb128 0x13
 5877 0ea3 56200000 		.4byte	.LASF499
 5878 0ea7 09       		.byte	0x9
 5879 0ea8 85       		.byte	0x85
 5880 0ea9 270E0000 		.4byte	0xe27
 5881 0ead 02       		.byte	0x2
 5882 0eae 13       		.uleb128 0x13
 5883 0eaf 5C450000 		.4byte	.LASF500
 5884 0eb3 09       		.byte	0x9
 5885 0eb4 86       		.byte	0x86
 5886 0eb5 77000000 		.4byte	0x77
 5887 0eb9 04       		.byte	0x4
 5888 0eba 14       		.uleb128 0x14
 5889 0ebb 73736100 		.ascii	"ssa\000"
 5890 0ebf 09       		.byte	0x9
 5891 0ec0 87       		.byte	0x87
 5892 0ec1 83000000 		.4byte	0x83
 5893 0ec5 08       		.byte	0x8
 5894 0ec6 13       		.uleb128 0x13
 5895 0ec7 B20E0000 		.4byte	.LASF501
 5896 0ecb 09       		.byte	0x9
 5897 0ecc 88       		.byte	0x88
 5898 0ecd 270E0000 		.4byte	0xe27
 5899 0ed1 0C       		.byte	0xc
 5900 0ed2 13       		.uleb128 0x13
 5901 0ed3 75100000 		.4byte	.LASF502
 5902 0ed7 09       		.byte	0x9
 5903 0ed8 89       		.byte	0x89
 5904 0ed9 270E0000 		.4byte	0xe27
 5905 0edd 0E       		.byte	0xe
 5906 0ede 00       		.byte	0
 5907 0edf 11       		.uleb128 0x11
 5908 0ee0 2B2D0000 		.4byte	.LASF503
 5909 0ee4 09       		.byte	0x9
 5910 0ee5 8A       		.byte	0x8a
 5911 0ee6 8E0E0000 		.4byte	0xe8e
 5912 0eea 12       		.uleb128 0x12
 5913 0eeb 08       		.byte	0x8
 5914 0eec 09       		.byte	0x9
 5915 0eed A7       		.byte	0xa7
 5916 0eee 170F0000 		.4byte	0xf17
 5917 0ef2 13       		.uleb128 0x13
 5918 0ef3 08230000 		.4byte	.LASF504
 5919 0ef7 09       		.byte	0x9
 5920 0ef8 A9       		.byte	0xa9
 5921 0ef9 83000000 		.4byte	0x83
 5922 0efd 00       		.byte	0
 5923 0efe 13       		.uleb128 0x13
 5924 0eff FC0D0000 		.4byte	.LASF505
 5925 0f03 09       		.byte	0x9
 5926 0f04 AA       		.byte	0xaa
ARM GAS  C:\Users\cypress\AppData\Local\Temp\ccgxY6Ea.s 			page 137


 5927 0f05 6B000000 		.4byte	0x6b
 5928 0f09 04       		.byte	0x4
 5929 0f0a 13       		.uleb128 0x13
 5930 0f0b A7080000 		.4byte	.LASF506
 5931 0f0f 09       		.byte	0x9
 5932 0f10 AB       		.byte	0xab
 5933 0f11 6B000000 		.4byte	0x6b
 5934 0f15 05       		.byte	0x5
 5935 0f16 00       		.byte	0
 5936 0f17 11       		.uleb128 0x11
 5937 0f18 26120000 		.4byte	.LASF507
 5938 0f1c 09       		.byte	0x9
 5939 0f1d AC       		.byte	0xac
 5940 0f1e EA0E0000 		.4byte	0xeea
 5941 0f22 0D       		.uleb128 0xd
 5942 0f23 01       		.byte	0x1
 5943 0f24 25000000 		.4byte	0x25
 5944 0f28 09       		.byte	0x9
 5945 0f29 B2       		.byte	0xb2
 5946 0f2a 1F100000 		.4byte	0x101f
 5947 0f2e 15       		.uleb128 0x15
 5948 0f2f 703A0000 		.4byte	.LASF508
 5949 0f33 50       		.sleb128 -48
 5950 0f34 15       		.uleb128 0x15
 5951 0f35 79330000 		.4byte	.LASF509
 5952 0f39 54       		.sleb128 -44
 5953 0f3a 15       		.uleb128 0x15
 5954 0f3b 662B0000 		.4byte	.LASF510
 5955 0f3f 58       		.sleb128 -40
 5956 0f40 15       		.uleb128 0x15
 5957 0f41 8F020000 		.4byte	.LASF511
 5958 0f45 5A       		.sleb128 -38
 5959 0f46 15       		.uleb128 0x15
 5960 0f47 8D490000 		.4byte	.LASF512
 5961 0f4b 5C       		.sleb128 -36
 5962 0f4c 15       		.uleb128 0x15
 5963 0f4d BD420000 		.4byte	.LASF513
 5964 0f51 60       		.sleb128 -32
 5965 0f52 15       		.uleb128 0x15
 5966 0f53 863A0000 		.4byte	.LASF514
 5967 0f57 64       		.sleb128 -28
 5968 0f58 15       		.uleb128 0x15
 5969 0f59 5A310000 		.4byte	.LASF515
 5970 0f5d 68       		.sleb128 -24
 5971 0f5e 15       		.uleb128 0x15
 5972 0f5f 9B2B0000 		.4byte	.LASF516
 5973 0f63 6C       		.sleb128 -20
 5974 0f64 15       		.uleb128 0x15
 5975 0f65 A0280000 		.4byte	.LASF517
 5976 0f69 6E       		.sleb128 -18
 5977 0f6a 15       		.uleb128 0x15
 5978 0f6b D8240000 		.4byte	.LASF518
 5979 0f6f 70       		.sleb128 -16
 5980 0f70 15       		.uleb128 0x15
 5981 0f71 3F210000 		.4byte	.LASF519
 5982 0f75 72       		.sleb128 -14
 5983 0f76 15       		.uleb128 0x15
ARM GAS  C:\Users\cypress\AppData\Local\Temp\ccgxY6Ea.s 			page 138


 5984 0f77 4F1D0000 		.4byte	.LASF520
 5985 0f7b 74       		.sleb128 -12
 5986 0f7c 15       		.uleb128 0x15
 5987 0f7d DF160000 		.4byte	.LASF521
 5988 0f81 78       		.sleb128 -8
 5989 0f82 15       		.uleb128 0x15
 5990 0f83 1D0F0000 		.4byte	.LASF522
 5991 0f87 7C       		.sleb128 -4
 5992 0f88 08       		.uleb128 0x8
 5993 0f89 D1080000 		.4byte	.LASF523
 5994 0f8d 00       		.byte	0
 5995 0f8e 08       		.uleb128 0x8
 5996 0f8f 600A0000 		.4byte	.LASF524
 5997 0f93 04       		.byte	0x4
 5998 0f94 08       		.uleb128 0x8
 5999 0f95 10120000 		.4byte	.LASF525
 6000 0f99 08       		.byte	0x8
 6001 0f9a 08       		.uleb128 0x8
 6002 0f9b 111A0000 		.4byte	.LASF526
 6003 0f9f 0C       		.byte	0xc
 6004 0fa0 08       		.uleb128 0x8
 6005 0fa1 BB1C0000 		.4byte	.LASF527
 6006 0fa5 0E       		.byte	0xe
 6007 0fa6 08       		.uleb128 0x8
 6008 0fa7 4B1C0000 		.4byte	.LASF528
 6009 0fab 10       		.byte	0x10
 6010 0fac 08       		.uleb128 0x8
 6011 0fad 45240000 		.4byte	.LASF529
 6012 0fb1 12       		.byte	0x12
 6013 0fb2 08       		.uleb128 0x8
 6014 0fb3 BD270000 		.4byte	.LASF530
 6015 0fb7 14       		.byte	0x14
 6016 0fb8 08       		.uleb128 0x8
 6017 0fb9 C02A0000 		.4byte	.LASF531
 6018 0fbd 16       		.byte	0x16
 6019 0fbe 08       		.uleb128 0x8
 6020 0fbf 092C0000 		.4byte	.LASF532
 6021 0fc3 17       		.byte	0x17
 6022 0fc4 08       		.uleb128 0x8
 6023 0fc5 3F390000 		.4byte	.LASF533
 6024 0fc9 18       		.byte	0x18
 6025 0fca 08       		.uleb128 0x8
 6026 0fcb 7A320000 		.4byte	.LASF534
 6027 0fcf 1A       		.byte	0x1a
 6028 0fd0 08       		.uleb128 0x8
 6029 0fd1 7B360000 		.4byte	.LASF535
 6030 0fd5 1C       		.byte	0x1c
 6031 0fd6 08       		.uleb128 0x8
 6032 0fd7 FA3D0000 		.4byte	.LASF536
 6033 0fdb 20       		.byte	0x20
 6034 0fdc 08       		.uleb128 0x8
 6035 0fdd 56430000 		.4byte	.LASF537
 6036 0fe1 23       		.byte	0x23
 6037 0fe2 08       		.uleb128 0x8
 6038 0fe3 9F450000 		.4byte	.LASF538
 6039 0fe7 24       		.byte	0x24
 6040 0fe8 08       		.uleb128 0x8
ARM GAS  C:\Users\cypress\AppData\Local\Temp\ccgxY6Ea.s 			page 139


 6041 0fe9 89480000 		.4byte	.LASF539
 6042 0fed 26       		.byte	0x26
 6043 0fee 08       		.uleb128 0x8
 6044 0fef 6E270000 		.4byte	.LASF540
 6045 0ff3 28       		.byte	0x28
 6046 0ff4 08       		.uleb128 0x8
 6047 0ff5 AA2A0000 		.4byte	.LASF541
 6048 0ff9 2A       		.byte	0x2a
 6049 0ffa 08       		.uleb128 0x8
 6050 0ffb ED2D0000 		.4byte	.LASF542
 6051 0fff 2C       		.byte	0x2c
 6052 1000 08       		.uleb128 0x8
 6053 1001 64320000 		.4byte	.LASF543
 6054 1005 2E       		.byte	0x2e
 6055 1006 08       		.uleb128 0x8
 6056 1007 65360000 		.4byte	.LASF544
 6057 100b 30       		.byte	0x30
 6058 100c 08       		.uleb128 0x8
 6059 100d DF3A0000 		.4byte	.LASF545
 6060 1011 33       		.byte	0x33
 6061 1012 08       		.uleb128 0x8
 6062 1013 BB3D0000 		.4byte	.LASF546
 6063 1017 34       		.byte	0x34
 6064 1018 08       		.uleb128 0x8
 6065 1019 67450000 		.4byte	.LASF547
 6066 101d 38       		.byte	0x38
 6067 101e 00       		.byte	0
 6068 101f 11       		.uleb128 0x11
 6069 1020 D00D0000 		.4byte	.LASF548
 6070 1024 09       		.byte	0x9
 6071 1025 DB       		.byte	0xdb
 6072 1026 220F0000 		.4byte	0xf22
 6073 102a 0D       		.uleb128 0xd
 6074 102b 01       		.byte	0x1
 6075 102c 2C000000 		.4byte	0x2c
 6076 1030 09       		.byte	0x9
 6077 1031 E2       		.byte	0xe2
 6078 1032 4F100000 		.4byte	0x104f
 6079 1036 08       		.uleb128 0x8
 6080 1037 25150000 		.4byte	.LASF549
 6081 103b 00       		.byte	0
 6082 103c 08       		.uleb128 0x8
 6083 103d F9070000 		.4byte	.LASF550
 6084 1041 02       		.byte	0x2
 6085 1042 08       		.uleb128 0x8
 6086 1043 5E030000 		.4byte	.LASF551
 6087 1047 04       		.byte	0x4
 6088 1048 08       		.uleb128 0x8
 6089 1049 0D030000 		.4byte	.LASF552
 6090 104d 08       		.byte	0x8
 6091 104e 00       		.byte	0
 6092 104f 11       		.uleb128 0x11
 6093 1050 38120000 		.4byte	.LASF553
 6094 1054 09       		.byte	0x9
 6095 1055 E7       		.byte	0xe7
 6096 1056 2A100000 		.4byte	0x102a
 6097 105a 12       		.uleb128 0x12
ARM GAS  C:\Users\cypress\AppData\Local\Temp\ccgxY6Ea.s 			page 140


 6098 105b 0A       		.byte	0xa
 6099 105c 09       		.byte	0x9
 6100 105d EA       		.byte	0xea
 6101 105e 87100000 		.4byte	0x1087
 6102 1062 14       		.uleb128 0x14
 6103 1063 73737400 		.ascii	"sst\000"
 6104 1067 09       		.byte	0x9
 6105 1068 EC       		.byte	0xec
 6106 1069 830E0000 		.4byte	0xe83
 6107 106d 00       		.byte	0
 6108 106e 13       		.uleb128 0x13
 6109 106f 4D200000 		.4byte	.LASF554
 6110 1073 09       		.byte	0x9
 6111 1074 ED       		.byte	0xed
 6112 1075 1F100000 		.4byte	0x101f
 6113 1079 08       		.byte	0x8
 6114 107a 13       		.uleb128 0x13
 6115 107b B0290000 		.4byte	.LASF555
 6116 107f 09       		.byte	0x9
 6117 1080 EE       		.byte	0xee
 6118 1081 4F100000 		.4byte	0x104f
 6119 1085 09       		.byte	0x9
 6120 1086 00       		.byte	0
 6121 1087 11       		.uleb128 0x11
 6122 1088 C8020000 		.4byte	.LASF556
 6123 108c 09       		.byte	0x9
 6124 108d EF       		.byte	0xef
 6125 108e 5A100000 		.4byte	0x105a
 6126 1092 0D       		.uleb128 0xd
 6127 1093 01       		.byte	0x1
 6128 1094 2C000000 		.4byte	0x2c
 6129 1098 09       		.byte	0x9
 6130 1099 F4       		.byte	0xf4
 6131 109a C9100000 		.4byte	0x10c9
 6132 109e 08       		.uleb128 0x8
 6133 109f F5090000 		.4byte	.LASF557
 6134 10a3 00       		.byte	0
 6135 10a4 08       		.uleb128 0x8
 6136 10a5 DE290000 		.4byte	.LASF558
 6137 10a9 01       		.byte	0x1
 6138 10aa 08       		.uleb128 0x8
 6139 10ab 3A280000 		.4byte	.LASF559
 6140 10af 02       		.byte	0x2
 6141 10b0 08       		.uleb128 0x8
 6142 10b1 AA180000 		.4byte	.LASF560
 6143 10b5 03       		.byte	0x3
 6144 10b6 08       		.uleb128 0x8
 6145 10b7 74260000 		.4byte	.LASF561
 6146 10bb 04       		.byte	0x4
 6147 10bc 08       		.uleb128 0x8
 6148 10bd 8E250000 		.4byte	.LASF562
 6149 10c1 05       		.byte	0x5
 6150 10c2 08       		.uleb128 0x8
 6151 10c3 95400000 		.4byte	.LASF563
 6152 10c7 06       		.byte	0x6
 6153 10c8 00       		.byte	0
 6154 10c9 07       		.uleb128 0x7
ARM GAS  C:\Users\cypress\AppData\Local\Temp\ccgxY6Ea.s 			page 141


 6155 10ca 01       		.byte	0x1
 6156 10cb 2C000000 		.4byte	0x2c
 6157 10cf 09       		.byte	0x9
 6158 10d0 0001     		.2byte	0x100
 6159 10d2 01110000 		.4byte	0x1101
 6160 10d6 08       		.uleb128 0x8
 6161 10d7 A23D0000 		.4byte	.LASF564
 6162 10db 00       		.byte	0
 6163 10dc 08       		.uleb128 0x8
 6164 10dd 5B1B0000 		.4byte	.LASF565
 6165 10e1 01       		.byte	0x1
 6166 10e2 08       		.uleb128 0x8
 6167 10e3 271F0000 		.4byte	.LASF566
 6168 10e7 02       		.byte	0x2
 6169 10e8 08       		.uleb128 0x8
 6170 10e9 800D0000 		.4byte	.LASF567
 6171 10ed 03       		.byte	0x3
 6172 10ee 08       		.uleb128 0x8
 6173 10ef C1120000 		.4byte	.LASF568
 6174 10f3 04       		.byte	0x4
 6175 10f4 08       		.uleb128 0x8
 6176 10f5 FA060000 		.4byte	.LASF569
 6177 10f9 05       		.byte	0x5
 6178 10fa 08       		.uleb128 0x8
 6179 10fb 20030000 		.4byte	.LASF570
 6180 10ff 06       		.byte	0x6
 6181 1100 00       		.byte	0
 6182 1101 07       		.uleb128 0x7
 6183 1102 01       		.byte	0x1
 6184 1103 2C000000 		.4byte	0x2c
 6185 1107 09       		.byte	0x9
 6186 1108 0C01     		.2byte	0x10c
 6187 110a 39110000 		.4byte	0x1139
 6188 110e 08       		.uleb128 0x8
 6189 110f A41C0000 		.4byte	.LASF571
 6190 1113 00       		.byte	0
 6191 1114 08       		.uleb128 0x8
 6192 1115 0A0D0000 		.4byte	.LASF572
 6193 1119 01       		.byte	0x1
 6194 111a 08       		.uleb128 0x8
 6195 111b 200D0000 		.4byte	.LASF573
 6196 111f 02       		.byte	0x2
 6197 1120 08       		.uleb128 0x8
 6198 1121 272E0000 		.4byte	.LASF574
 6199 1125 03       		.byte	0x3
 6200 1126 08       		.uleb128 0x8
 6201 1127 360D0000 		.4byte	.LASF575
 6202 112b 04       		.byte	0x4
 6203 112c 08       		.uleb128 0x8
 6204 112d 0D260000 		.4byte	.LASF576
 6205 1131 05       		.byte	0x5
 6206 1132 08       		.uleb128 0x8
 6207 1133 F7360000 		.4byte	.LASF577
 6208 1137 06       		.byte	0x6
 6209 1138 00       		.byte	0
 6210 1139 07       		.uleb128 0x7
 6211 113a 01       		.byte	0x1
ARM GAS  C:\Users\cypress\AppData\Local\Temp\ccgxY6Ea.s 			page 142


 6212 113b 2C000000 		.4byte	0x2c
 6213 113f 09       		.byte	0x9
 6214 1140 1901     		.2byte	0x119
 6215 1142 83110000 		.4byte	0x1183
 6216 1146 08       		.uleb128 0x8
 6217 1147 77250000 		.4byte	.LASF578
 6218 114b 00       		.byte	0
 6219 114c 08       		.uleb128 0x8
 6220 114d B6280000 		.4byte	.LASF579
 6221 1151 01       		.byte	0x1
 6222 1152 08       		.uleb128 0x8
 6223 1153 AD380000 		.4byte	.LASF580
 6224 1157 02       		.byte	0x2
 6225 1158 08       		.uleb128 0x8
 6226 1159 6A2A0000 		.4byte	.LASF581
 6227 115d 03       		.byte	0x3
 6228 115e 08       		.uleb128 0x8
 6229 115f 20390000 		.4byte	.LASF582
 6230 1163 04       		.byte	0x4
 6231 1164 08       		.uleb128 0x8
 6232 1165 FD290000 		.4byte	.LASF583
 6233 1169 05       		.byte	0x5
 6234 116a 08       		.uleb128 0x8
 6235 116b 23310000 		.4byte	.LASF584
 6236 116f 06       		.byte	0x6
 6237 1170 08       		.uleb128 0x8
 6238 1171 D70E0000 		.4byte	.LASF585
 6239 1175 07       		.byte	0x7
 6240 1176 08       		.uleb128 0x8
 6241 1177 DE010000 		.4byte	.LASF586
 6242 117b 08       		.byte	0x8
 6243 117c 08       		.uleb128 0x8
 6244 117d CC380000 		.4byte	.LASF587
 6245 1181 09       		.byte	0x9
 6246 1182 00       		.byte	0
 6247 1183 0E       		.uleb128 0xe
 6248 1184 0C       		.byte	0xc
 6249 1185 09       		.byte	0x9
 6250 1186 2F01     		.2byte	0x12f
 6251 1188 DB110000 		.4byte	0x11db
 6252 118c 10       		.uleb128 0x10
 6253 118d 68616C00 		.ascii	"hal\000"
 6254 1191 09       		.byte	0x9
 6255 1192 3101     		.2byte	0x131
 6256 1194 270E0000 		.4byte	0xe27
 6257 1198 00       		.byte	0
 6258 1199 10       		.uleb128 0x10
 6259 119a 6C616C00 		.ascii	"lal\000"
 6260 119e 09       		.byte	0x9
 6261 119f 3201     		.2byte	0x132
 6262 11a1 270E0000 		.4byte	0xe27
 6263 11a5 02       		.byte	0x2
 6264 11a6 10       		.uleb128 0x10
 6265 11a7 68706F00 		.ascii	"hpo\000"
 6266 11ab 09       		.byte	0x9
 6267 11ac 3301     		.2byte	0x133
 6268 11ae 270E0000 		.4byte	0xe27
ARM GAS  C:\Users\cypress\AppData\Local\Temp\ccgxY6Ea.s 			page 143


 6269 11b2 04       		.byte	0x4
 6270 11b3 10       		.uleb128 0x10
 6271 11b4 68707200 		.ascii	"hpr\000"
 6272 11b8 09       		.byte	0x9
 6273 11b9 3401     		.2byte	0x134
 6274 11bb 270E0000 		.4byte	0xe27
 6275 11bf 06       		.byte	0x6
 6276 11c0 10       		.uleb128 0x10
 6277 11c1 64656300 		.ascii	"dec\000"
 6278 11c5 09       		.byte	0x9
 6279 11c6 3501     		.2byte	0x135
 6280 11c8 270E0000 		.4byte	0xe27
 6281 11cc 08       		.byte	0x8
 6282 11cd 10       		.uleb128 0x10
 6283 11ce 696E6300 		.ascii	"inc\000"
 6284 11d2 09       		.byte	0x9
 6285 11d3 3601     		.2byte	0x136
 6286 11d5 270E0000 		.4byte	0xe27
 6287 11d9 0A       		.byte	0xa
 6288 11da 00       		.byte	0
 6289 11db 04       		.uleb128 0x4
 6290 11dc B52D0000 		.4byte	.LASF588
 6291 11e0 09       		.byte	0x9
 6292 11e1 3701     		.2byte	0x137
 6293 11e3 83110000 		.4byte	0x1183
 6294 11e7 07       		.uleb128 0x7
 6295 11e8 01       		.byte	0x1
 6296 11e9 2C000000 		.4byte	0x2c
 6297 11ed 09       		.byte	0x9
 6298 11ee 3B01     		.2byte	0x13b
 6299 11f0 19120000 		.4byte	0x1219
 6300 11f4 08       		.uleb128 0x8
 6301 11f5 D60A0000 		.4byte	.LASF589
 6302 11f9 00       		.byte	0
 6303 11fa 08       		.uleb128 0x8
 6304 11fb D12C0000 		.4byte	.LASF590
 6305 11ff 01       		.byte	0x1
 6306 1200 08       		.uleb128 0x8
 6307 1201 7C2B0000 		.4byte	.LASF591
 6308 1205 02       		.byte	0x2
 6309 1206 08       		.uleb128 0x8
 6310 1207 BD2F0000 		.4byte	.LASF592
 6311 120b 03       		.byte	0x3
 6312 120c 08       		.uleb128 0x8
 6313 120d 0C080000 		.4byte	.LASF593
 6314 1211 04       		.byte	0x4
 6315 1212 08       		.uleb128 0x8
 6316 1213 E4370000 		.4byte	.LASF594
 6317 1217 05       		.byte	0x5
 6318 1218 00       		.byte	0
 6319 1219 07       		.uleb128 0x7
 6320 121a 01       		.byte	0x1
 6321 121b 2C000000 		.4byte	0x2c
 6322 121f 09       		.byte	0x9
 6323 1220 4601     		.2byte	0x146
 6324 1222 D5120000 		.4byte	0x12d5
 6325 1226 08       		.uleb128 0x8
ARM GAS  C:\Users\cypress\AppData\Local\Temp\ccgxY6Ea.s 			page 144


 6326 1227 8C1F0000 		.4byte	.LASF595
 6327 122b 00       		.byte	0
 6328 122c 08       		.uleb128 0x8
 6329 122d C1430000 		.4byte	.LASF596
 6330 1231 01       		.byte	0x1
 6331 1232 08       		.uleb128 0x8
 6332 1233 8E080000 		.4byte	.LASF597
 6333 1237 02       		.byte	0x2
 6334 1238 08       		.uleb128 0x8
 6335 1239 69110000 		.4byte	.LASF598
 6336 123d 03       		.byte	0x3
 6337 123e 08       		.uleb128 0x8
 6338 123f 97260000 		.4byte	.LASF599
 6339 1243 04       		.byte	0x4
 6340 1244 08       		.uleb128 0x8
 6341 1245 DE360000 		.4byte	.LASF600
 6342 1249 05       		.byte	0x5
 6343 124a 08       		.uleb128 0x8
 6344 124b B5030000 		.4byte	.LASF601
 6345 124f 06       		.byte	0x6
 6346 1250 08       		.uleb128 0x8
 6347 1251 0E2B0000 		.4byte	.LASF602
 6348 1255 07       		.byte	0x7
 6349 1256 08       		.uleb128 0x8
 6350 1257 153B0000 		.4byte	.LASF603
 6351 125b 08       		.byte	0x8
 6352 125c 08       		.uleb128 0x8
 6353 125d 29080000 		.4byte	.LASF604
 6354 1261 09       		.byte	0x9
 6355 1262 08       		.uleb128 0x8
 6356 1263 AF480000 		.4byte	.LASF605
 6357 1267 0A       		.byte	0xa
 6358 1268 08       		.uleb128 0x8
 6359 1269 AC0D0000 		.4byte	.LASF606
 6360 126d 0B       		.byte	0xb
 6361 126e 08       		.uleb128 0x8
 6362 126f 7F240000 		.4byte	.LASF607
 6363 1273 0C       		.byte	0xc
 6364 1274 08       		.uleb128 0x8
 6365 1275 E63E0000 		.4byte	.LASF608
 6366 1279 0D       		.byte	0xd
 6367 127a 08       		.uleb128 0x8
 6368 127b EA030000 		.4byte	.LASF609
 6369 127f 0E       		.byte	0xe
 6370 1280 08       		.uleb128 0x8
 6371 1281 BB070000 		.4byte	.LASF610
 6372 1285 0F       		.byte	0xf
 6373 1286 08       		.uleb128 0x8
 6374 1287 223F0000 		.4byte	.LASF611
 6375 128b 10       		.byte	0x10
 6376 128c 08       		.uleb128 0x8
 6377 128d 03040000 		.4byte	.LASF612
 6378 1291 11       		.byte	0x11
 6379 1292 08       		.uleb128 0x8
 6380 1293 E01A0000 		.4byte	.LASF613
 6381 1297 12       		.byte	0x12
 6382 1298 08       		.uleb128 0x8
ARM GAS  C:\Users\cypress\AppData\Local\Temp\ccgxY6Ea.s 			page 145


 6383 1299 61130000 		.4byte	.LASF614
 6384 129d 13       		.byte	0x13
 6385 129e 08       		.uleb128 0x8
 6386 129f C6470000 		.4byte	.LASF615
 6387 12a3 14       		.byte	0x14
 6388 12a4 08       		.uleb128 0x8
 6389 12a5 0E3A0000 		.4byte	.LASF616
 6390 12a9 15       		.byte	0x15
 6391 12aa 08       		.uleb128 0x8
 6392 12ab 5C100000 		.4byte	.LASF617
 6393 12af 16       		.byte	0x16
 6394 12b0 08       		.uleb128 0x8
 6395 12b1 CA0F0000 		.4byte	.LASF618
 6396 12b5 17       		.byte	0x17
 6397 12b6 08       		.uleb128 0x8
 6398 12b7 43100000 		.4byte	.LASF619
 6399 12bb 18       		.byte	0x18
 6400 12bc 08       		.uleb128 0x8
 6401 12bd 6A010000 		.4byte	.LASF620
 6402 12c1 19       		.byte	0x19
 6403 12c2 08       		.uleb128 0x8
 6404 12c3 C0260000 		.4byte	.LASF621
 6405 12c7 1A       		.byte	0x1a
 6406 12c8 08       		.uleb128 0x8
 6407 12c9 0A310000 		.4byte	.LASF622
 6408 12cd 1B       		.byte	0x1b
 6409 12ce 08       		.uleb128 0x8
 6410 12cf 461E0000 		.4byte	.LASF623
 6411 12d3 1C       		.byte	0x1c
 6412 12d4 00       		.byte	0
 6413 12d5 04       		.uleb128 0x4
 6414 12d6 11170000 		.4byte	.LASF624
 6415 12da 09       		.byte	0x9
 6416 12db 6401     		.2byte	0x164
 6417 12dd 19120000 		.4byte	0x1219
 6418 12e1 16       		.uleb128 0x16
 6419 12e2 66480000 		.4byte	.LASF635
 6420 12e6 01       		.byte	0x1
 6421 12e7 79       		.byte	0x79
 6422 12e8 00000000 		.4byte	.LFB36
 6423 12ec A8000000 		.4byte	.LFE36-.LFB36
 6424 12f0 01       		.uleb128 0x1
 6425 12f1 9C       		.byte	0x9c
 6426 12f2 05130000 		.4byte	0x1305
 6427 12f6 17       		.uleb128 0x17
 6428 12f7 61020000 		.4byte	.LASF185
 6429 12fb 01       		.byte	0x1
 6430 12fc 79       		.byte	0x79
 6431 12fd 6D050000 		.4byte	0x56d
 6432 1301 02       		.uleb128 0x2
 6433 1302 91       		.byte	0x91
 6434 1303 77       		.sleb128 -9
 6435 1304 00       		.byte	0
 6436 1305 18       		.uleb128 0x18
 6437 1306 534A0000 		.4byte	.LASF629
 6438 130a 01       		.byte	0x1
 6439 130b B0       		.byte	0xb0
ARM GAS  C:\Users\cypress\AppData\Local\Temp\ccgxY6Ea.s 			page 146


 6440 130c 77000000 		.4byte	0x77
 6441 1310 00000000 		.4byte	.LFB37
 6442 1314 D0000000 		.4byte	.LFE37-.LFB37
 6443 1318 01       		.uleb128 0x1
 6444 1319 9C       		.byte	0x9c
 6445 131a 73130000 		.4byte	0x1373
 6446 131e 17       		.uleb128 0x17
 6447 131f BD050000 		.4byte	.LASF625
 6448 1323 01       		.byte	0x1
 6449 1324 B0       		.byte	0xb0
 6450 1325 6B000000 		.4byte	0x6b
 6451 1329 02       		.uleb128 0x2
 6452 132a 91       		.byte	0x91
 6453 132b 6F       		.sleb128 -17
 6454 132c 17       		.uleb128 0x17
 6455 132d D6440000 		.4byte	.LASF626
 6456 1331 01       		.byte	0x1
 6457 1332 B0       		.byte	0xb0
 6458 1333 6C030000 		.4byte	0x36c
 6459 1337 02       		.uleb128 0x2
 6460 1338 91       		.byte	0x91
 6461 1339 68       		.sleb128 -24
 6462 133a 19       		.uleb128 0x19
 6463 133b 62697400 		.ascii	"bit\000"
 6464 133f 01       		.byte	0x1
 6465 1340 B2       		.byte	0xb2
 6466 1341 6B000000 		.4byte	0x6b
 6467 1345 02       		.uleb128 0x2
 6468 1346 91       		.byte	0x91
 6469 1347 77       		.sleb128 -9
 6470 1348 1A       		.uleb128 0x1a
 6471 1349 310A0000 		.4byte	.LASF627
 6472 134d 01       		.byte	0x1
 6473 134e B2       		.byte	0xb2
 6474 134f 6B000000 		.4byte	0x6b
 6475 1353 02       		.uleb128 0x2
 6476 1354 91       		.byte	0x91
 6477 1355 76       		.sleb128 -10
 6478 1356 1A       		.uleb128 0x1a
 6479 1357 273A0000 		.4byte	.LASF628
 6480 135b 01       		.byte	0x1
 6481 135c B3       		.byte	0xb3
 6482 135d 77000000 		.4byte	0x77
 6483 1361 02       		.uleb128 0x2
 6484 1362 91       		.byte	0x91
 6485 1363 74       		.sleb128 -12
 6486 1364 19       		.uleb128 0x19
 6487 1365 63726300 		.ascii	"crc\000"
 6488 1369 01       		.byte	0x1
 6489 136a B3       		.byte	0xb3
 6490 136b 77000000 		.4byte	0x77
 6491 136f 02       		.uleb128 0x2
 6492 1370 91       		.byte	0x91
 6493 1371 72       		.sleb128 -14
 6494 1372 00       		.byte	0
 6495 1373 1B       		.uleb128 0x1b
 6496 1374 5B110000 		.4byte	.LASF630
ARM GAS  C:\Users\cypress\AppData\Local\Temp\ccgxY6Ea.s 			page 147


 6497 1378 01       		.byte	0x1
 6498 1379 DE       		.byte	0xde
 6499 137a 6B000000 		.4byte	0x6b
 6500 137e 00000000 		.4byte	.LFB38
 6501 1382 54000000 		.4byte	.LFE38-.LFB38
 6502 1386 01       		.uleb128 0x1
 6503 1387 9C       		.byte	0x9c
 6504 1388 A9130000 		.4byte	0x13a9
 6505 138c 17       		.uleb128 0x17
 6506 138d BD050000 		.4byte	.LASF625
 6507 1391 01       		.byte	0x1
 6508 1392 DE       		.byte	0xde
 6509 1393 6B000000 		.4byte	0x6b
 6510 1397 02       		.uleb128 0x2
 6511 1398 91       		.byte	0x91
 6512 1399 6F       		.sleb128 -17
 6513 139a 17       		.uleb128 0x17
 6514 139b D6440000 		.4byte	.LASF626
 6515 139f 01       		.byte	0x1
 6516 13a0 DE       		.byte	0xde
 6517 13a1 6C030000 		.4byte	0x36c
 6518 13a5 02       		.uleb128 0x2
 6519 13a6 91       		.byte	0x91
 6520 13a7 68       		.sleb128 -24
 6521 13a8 00       		.byte	0
 6522 13a9 1C       		.uleb128 0x1c
 6523 13aa 99350000 		.4byte	.LASF631
 6524 13ae 01       		.byte	0x1
 6525 13af 0001     		.2byte	0x100
 6526 13b1 79040000 		.4byte	0x479
 6527 13b5 00000000 		.4byte	.LFB39
 6528 13b9 B4000000 		.4byte	.LFE39-.LFB39
 6529 13bd 01       		.uleb128 0x1
 6530 13be 9C       		.byte	0x9c
 6531 13bf F1130000 		.4byte	0x13f1
 6532 13c3 1D       		.uleb128 0x1d
 6533 13c4 14010000 		.4byte	.LASF632
 6534 13c8 01       		.byte	0x1
 6535 13c9 0001     		.2byte	0x100
 6536 13cb 77000000 		.4byte	0x77
 6537 13cf 02       		.uleb128 0x2
 6538 13d0 91       		.byte	0x91
 6539 13d1 66       		.sleb128 -26
 6540 13d2 1D       		.uleb128 0x1d
 6541 13d3 2D0C0000 		.4byte	.LASF633
 6542 13d7 01       		.byte	0x1
 6543 13d8 0001     		.2byte	0x100
 6544 13da 2A050000 		.4byte	0x52a
 6545 13de 02       		.uleb128 0x2
 6546 13df 91       		.byte	0x91
 6547 13e0 60       		.sleb128 -32
 6548 13e1 1E       		.uleb128 0x1e
 6549 13e2 0A270000 		.4byte	.LASF634
 6550 13e6 01       		.byte	0x1
 6551 13e7 0201     		.2byte	0x102
 6552 13e9 79040000 		.4byte	0x479
 6553 13ed 02       		.uleb128 0x2
ARM GAS  C:\Users\cypress\AppData\Local\Temp\ccgxY6Ea.s 			page 148


 6554 13ee 91       		.byte	0x91
 6555 13ef 6F       		.sleb128 -17
 6556 13f0 00       		.byte	0
 6557 13f1 1F       		.uleb128 0x1f
 6558 13f2 98160000 		.4byte	.LASF636
 6559 13f6 01       		.byte	0x1
 6560 13f7 2901     		.2byte	0x129
 6561 13f9 00000000 		.4byte	.LFB40
 6562 13fd 94000000 		.4byte	.LFE40-.LFB40
 6563 1401 01       		.uleb128 0x1
 6564 1402 9C       		.byte	0x9c
 6565 1403 17140000 		.4byte	0x1417
 6566 1407 1E       		.uleb128 0x1e
 6567 1408 D92F0000 		.4byte	.LASF637
 6568 140c 01       		.byte	0x1
 6569 140d 2B01     		.2byte	0x12b
 6570 140f 5C030000 		.4byte	0x35c
 6571 1413 02       		.uleb128 0x2
 6572 1414 91       		.byte	0x91
 6573 1415 70       		.sleb128 -16
 6574 1416 00       		.byte	0
 6575 1417 1F       		.uleb128 0x1f
 6576 1418 32480000 		.4byte	.LASF638
 6577 141c 01       		.byte	0x1
 6578 141d 4801     		.2byte	0x148
 6579 141f 00000000 		.4byte	.LFB41
 6580 1423 340C0000 		.4byte	.LFE41-.LFB41
 6581 1427 01       		.uleb128 0x1
 6582 1428 9C       		.byte	0x9c
 6583 1429 74140000 		.4byte	0x1474
 6584 142d 1D       		.uleb128 0x1d
 6585 142e 7D000000 		.4byte	.LASF639
 6586 1432 01       		.byte	0x1
 6587 1433 4801     		.2byte	0x148
 6588 1435 83000000 		.4byte	0x83
 6589 1439 02       		.uleb128 0x2
 6590 143a 91       		.byte	0x91
 6591 143b 64       		.sleb128 -28
 6592 143c 1D       		.uleb128 0x1d
 6593 143d 9A310000 		.4byte	.LASF640
 6594 1441 01       		.byte	0x1
 6595 1442 4801     		.2byte	0x148
 6596 1444 B7000000 		.4byte	0xb7
 6597 1448 02       		.uleb128 0x2
 6598 1449 91       		.byte	0x91
 6599 144a 60       		.sleb128 -32
 6600 144b 20       		.uleb128 0x20
 6601 144c 22000000 		.4byte	.LBB2
 6602 1450 2E0B0000 		.4byte	.LBE2-.LBB2
 6603 1454 1E       		.uleb128 0x1e
 6604 1455 14010000 		.4byte	.LASF632
 6605 1459 01       		.byte	0x1
 6606 145a 4E01     		.2byte	0x14e
 6607 145c 77000000 		.4byte	0x77
 6608 1460 02       		.uleb128 0x2
 6609 1461 91       		.byte	0x91
 6610 1462 6E       		.sleb128 -18
ARM GAS  C:\Users\cypress\AppData\Local\Temp\ccgxY6Ea.s 			page 149


 6611 1463 1E       		.uleb128 0x1e
 6612 1464 FD050000 		.4byte	.LASF641
 6613 1468 01       		.byte	0x1
 6614 1469 4F01     		.2byte	0x14f
 6615 146b 79040000 		.4byte	0x479
 6616 146f 02       		.uleb128 0x2
 6617 1470 91       		.byte	0x91
 6618 1471 6D       		.sleb128 -19
 6619 1472 00       		.byte	0
 6620 1473 00       		.byte	0
 6621 1474 1F       		.uleb128 0x1f
 6622 1475 700D0000 		.4byte	.LASF642
 6623 1479 01       		.byte	0x1
 6624 147a 3403     		.2byte	0x334
 6625 147c 00000000 		.4byte	.LFB42
 6626 1480 90020000 		.4byte	.LFE42-.LFB42
 6627 1484 01       		.uleb128 0x1
 6628 1485 9C       		.byte	0x9c
 6629 1486 C5140000 		.4byte	0x14c5
 6630 148a 1D       		.uleb128 0x1d
 6631 148b 55390000 		.4byte	.LASF643
 6632 148f 01       		.byte	0x1
 6633 1490 3403     		.2byte	0x334
 6634 1492 DF0E0000 		.4byte	0xedf
 6635 1496 02       		.uleb128 0x2
 6636 1497 91       		.byte	0x91
 6637 1498 48       		.sleb128 -56
 6638 1499 21       		.uleb128 0x21
 6639 149a 70647500 		.ascii	"pdu\000"
 6640 149e 01       		.byte	0x1
 6641 149f 3603     		.2byte	0x336
 6642 14a1 72030000 		.4byte	0x372
 6643 14a5 02       		.uleb128 0x2
 6644 14a6 91       		.byte	0x91
 6645 14a7 5C       		.sleb128 -36
 6646 14a8 21       		.uleb128 0x21
 6647 14a9 70747200 		.ascii	"ptr\000"
 6648 14ad 01       		.byte	0x1
 6649 14ae 3703     		.2byte	0x337
 6650 14b0 6B000000 		.4byte	0x6b
 6651 14b4 02       		.uleb128 0x2
 6652 14b5 91       		.byte	0x91
 6653 14b6 6F       		.sleb128 -17
 6654 14b7 21       		.uleb128 0x21
 6655 14b8 6200     		.ascii	"b\000"
 6656 14ba 01       		.byte	0x1
 6657 14bb 3703     		.2byte	0x337
 6658 14bd 6B000000 		.4byte	0x6b
 6659 14c1 02       		.uleb128 0x2
 6660 14c2 91       		.byte	0x91
 6661 14c3 6E       		.sleb128 -18
 6662 14c4 00       		.byte	0
 6663 14c5 1F       		.uleb128 0x1f
 6664 14c6 EF0A0000 		.4byte	.LASF644
 6665 14ca 01       		.byte	0x1
 6666 14cb 9803     		.2byte	0x398
 6667 14cd 00000000 		.4byte	.LFB43
ARM GAS  C:\Users\cypress\AppData\Local\Temp\ccgxY6Ea.s 			page 150


 6668 14d1 7C000000 		.4byte	.LFE43-.LFB43
 6669 14d5 01       		.uleb128 0x1
 6670 14d6 9C       		.byte	0x9c
 6671 14d7 EB140000 		.4byte	0x14eb
 6672 14db 1D       		.uleb128 0x1d
 6673 14dc 360A0000 		.4byte	.LASF645
 6674 14e0 01       		.byte	0x1
 6675 14e1 9803     		.2byte	0x398
 6676 14e3 6B000000 		.4byte	0x6b
 6677 14e7 02       		.uleb128 0x2
 6678 14e8 91       		.byte	0x91
 6679 14e9 6F       		.sleb128 -17
 6680 14ea 00       		.byte	0
 6681 14eb 1F       		.uleb128 0x1f
 6682 14ec 093B0000 		.4byte	.LASF646
 6683 14f0 01       		.byte	0x1
 6684 14f1 B903     		.2byte	0x3b9
 6685 14f3 00000000 		.4byte	.LFB44
 6686 14f7 DC040000 		.4byte	.LFE44-.LFB44
 6687 14fb 01       		.uleb128 0x1
 6688 14fc 9C       		.byte	0x9c
 6689 14fd 11150000 		.4byte	0x1511
 6690 1501 1E       		.uleb128 0x1e
 6691 1502 360A0000 		.4byte	.LASF645
 6692 1506 01       		.byte	0x1
 6693 1507 BB03     		.2byte	0x3bb
 6694 1509 6B000000 		.4byte	0x6b
 6695 150d 02       		.uleb128 0x2
 6696 150e 91       		.byte	0x91
 6697 150f 6F       		.sleb128 -17
 6698 1510 00       		.byte	0
 6699 1511 22       		.uleb128 0x22
 6700 1512 F7340000 		.4byte	.LASF647
 6701 1516 08       		.byte	0x8
 6702 1517 AA0A     		.2byte	0xaaa
 6703 1519 A9040000 		.4byte	0x4a9
 6704 151d 22       		.uleb128 0x22
 6705 151e DF000000 		.4byte	.LASF648
 6706 1522 08       		.byte	0x8
 6707 1523 AB0A     		.2byte	0xaab
 6708 1525 A4000000 		.4byte	0xa4
 6709 1529 23       		.uleb128 0x23
 6710 152a E41B0000 		.4byte	.LASF649
 6711 152e 0A       		.byte	0xa
 6712 152f 3A       		.byte	0x3a
 6713 1530 50030000 		.4byte	0x350
 6714 1534 24       		.uleb128 0x24
 6715 1535 6900     		.ascii	"i\000"
 6716 1537 0A       		.byte	0xa
 6717 1538 3B       		.byte	0x3b
 6718 1539 77000000 		.4byte	0x77
 6719 153d 0A       		.uleb128 0xa
 6720 153e 6B000000 		.4byte	0x6b
 6721 1542 4D150000 		.4byte	0x154d
 6722 1546 0B       		.uleb128 0xb
 6723 1547 B0000000 		.4byte	0xb0
 6724 154b 17       		.byte	0x17
ARM GAS  C:\Users\cypress\AppData\Local\Temp\ccgxY6Ea.s 			page 151


 6725 154c 00       		.byte	0
 6726 154d 25       		.uleb128 0x25
 6727 154e DA3A0000 		.4byte	.LASF650
 6728 1552 01       		.byte	0x1
 6729 1553 25       		.byte	0x25
 6730 1554 3D150000 		.4byte	0x153d
 6731 1558 05       		.uleb128 0x5
 6732 1559 03       		.byte	0x3
 6733 155a 00000000 		.4byte	attr
 6734 155e 0A       		.uleb128 0xa
 6735 155f DF0E0000 		.4byte	0xedf
 6736 1563 6E150000 		.4byte	0x156e
 6737 1567 0B       		.uleb128 0xb
 6738 1568 B0000000 		.4byte	0xb0
 6739 156c 02       		.byte	0x2
 6740 156d 00       		.byte	0
 6741 156e 25       		.uleb128 0x25
 6742 156f 55390000 		.4byte	.LASF643
 6743 1573 01       		.byte	0x1
 6744 1574 57       		.byte	0x57
 6745 1575 5E150000 		.4byte	0x155e
 6746 1579 05       		.uleb128 0x5
 6747 157a 03       		.byte	0x3
 6748 157b 00000000 		.4byte	cgmt
 6749 157f 25       		.uleb128 0x25
 6750 1580 05310000 		.4byte	.LASF651
 6751 1584 01       		.byte	0x1
 6752 1585 27       		.byte	0x27
 6753 1586 170F0000 		.4byte	0xf17
 6754 158a 05       		.uleb128 0x5
 6755 158b 03       		.byte	0x3
 6756 158c 00000000 		.4byte	cgft
 6757 1590 25       		.uleb128 0x25
 6758 1591 74000000 		.4byte	.LASF652
 6759 1595 01       		.byte	0x1
 6760 1596 16       		.byte	0x16
 6761 1597 6B000000 		.4byte	0x6b
 6762 159b 05       		.uleb128 0x5
 6763 159c 03       		.byte	0x3
 6764 159d 00000000 		.4byte	cgmsFlag
 6765 15a1 25       		.uleb128 0x25
 6766 15a2 78480000 		.4byte	.LASF653
 6767 15a6 01       		.byte	0x1
 6768 15a7 17       		.byte	0x17
 6769 15a8 6B000000 		.4byte	0x6b
 6770 15ac 05       		.uleb128 0x5
 6771 15ad 03       		.byte	0x3
 6772 15ae 00000000 		.4byte	recCnt
 6773 15b2 25       		.uleb128 0x25
 6774 15b3 2B470000 		.4byte	.LASF654
 6775 15b7 01       		.byte	0x1
 6776 15b8 18       		.byte	0x18
 6777 15b9 6B000000 		.4byte	0x6b
 6778 15bd 05       		.uleb128 0x5
 6779 15be 03       		.byte	0x3
 6780 15bf 00000000 		.4byte	racpOpCode
 6781 15c3 25       		.uleb128 0x25
ARM GAS  C:\Users\cypress\AppData\Local\Temp\ccgxY6Ea.s 			page 152


 6782 15c4 47490000 		.4byte	.LASF655
 6783 15c8 01       		.byte	0x1
 6784 15c9 19       		.byte	0x19
 6785 15ca 6B000000 		.4byte	0x6b
 6786 15ce 05       		.uleb128 0x5
 6787 15cf 03       		.byte	0x3
 6788 15d0 00000000 		.4byte	racpOperator
 6789 15d4 0A       		.uleb128 0xa
 6790 15d5 6B000000 		.4byte	0x6b
 6791 15d9 E4150000 		.4byte	0x15e4
 6792 15dd 0B       		.uleb128 0xb
 6793 15de B0000000 		.4byte	0xb0
 6794 15e2 02       		.byte	0x2
 6795 15e3 00       		.byte	0
 6796 15e4 25       		.uleb128 0x25
 6797 15e5 98470000 		.4byte	.LASF656
 6798 15e9 01       		.byte	0x1
 6799 15ea 1A       		.byte	0x1a
 6800 15eb D4150000 		.4byte	0x15d4
 6801 15ef 05       		.uleb128 0x5
 6802 15f0 03       		.byte	0x3
 6803 15f1 00000000 		.4byte	racpOperand
 6804 15f5 25       		.uleb128 0x25
 6805 15f6 0E360000 		.4byte	.LASF657
 6806 15fa 01       		.byte	0x1
 6807 15fb 1C       		.byte	0x1c
 6808 15fc D5120000 		.4byte	0x12d5
 6809 1600 05       		.uleb128 0x5
 6810 1601 03       		.byte	0x3
 6811 1602 00000000 		.4byte	socpOpCode
 6812 1606 0A       		.uleb128 0xa
 6813 1607 6B000000 		.4byte	0x6b
 6814 160b 16160000 		.4byte	0x1616
 6815 160f 0B       		.uleb128 0xb
 6816 1610 B0000000 		.4byte	0xb0
 6817 1614 0C       		.byte	0xc
 6818 1615 00       		.byte	0
 6819 1616 25       		.uleb128 0x25
 6820 1617 9C270000 		.4byte	.LASF658
 6821 161b 01       		.byte	0x1
 6822 161c 1D       		.byte	0x1d
 6823 161d 06160000 		.4byte	0x1606
 6824 1621 05       		.uleb128 0x5
 6825 1622 03       		.byte	0x3
 6826 1623 00000000 		.4byte	socp
 6827 1627 25       		.uleb128 0x25
 6828 1628 5E080000 		.4byte	.LASF659
 6829 162c 01       		.byte	0x1
 6830 162d 1E       		.byte	0x1e
 6831 162e 6B000000 		.4byte	0x6b
 6832 1632 05       		.uleb128 0x5
 6833 1633 03       		.byte	0x3
 6834 1634 00000000 		.4byte	socpLength
 6835 1638 25       		.uleb128 0x25
 6836 1639 1F240000 		.4byte	.LASF660
 6837 163d 01       		.byte	0x1
 6838 163e 1F       		.byte	0x1f
ARM GAS  C:\Users\cypress\AppData\Local\Temp\ccgxY6Ea.s 			page 153


 6839 163f 270E0000 		.4byte	0xe27
 6840 1643 05       		.uleb128 0x5
 6841 1644 03       		.byte	0x3
 6842 1645 00000000 		.4byte	socpOpd
 6843 1649 25       		.uleb128 0x25
 6844 164a 82110000 		.4byte	.LASF661
 6845 164e 01       		.byte	0x1
 6846 164f 20       		.byte	0x20
 6847 1650 5A160000 		.4byte	0x165a
 6848 1654 05       		.uleb128 0x5
 6849 1655 03       		.byte	0x3
 6850 1656 00000000 		.4byte	socpOpdPtr
 6851 165a 0C       		.uleb128 0xc
 6852 165b 04       		.byte	0x4
 6853 165c 270E0000 		.4byte	0xe27
 6854 1660 25       		.uleb128 0x25
 6855 1661 FB010000 		.4byte	.LASF662
 6856 1665 01       		.byte	0x1
 6857 1666 21       		.byte	0x21
 6858 1667 6B000000 		.4byte	0x6b
 6859 166b 05       		.uleb128 0x5
 6860 166c 03       		.byte	0x3
 6861 166d 00000000 		.4byte	commInterval
 6862 1671 25       		.uleb128 0x25
 6863 1672 C50D0000 		.4byte	.LASF663
 6864 1676 01       		.byte	0x1
 6865 1677 22       		.byte	0x22
 6866 1678 77000000 		.4byte	0x77
 6867 167c 05       		.uleb128 0x5
 6868 167d 03       		.byte	0x3
 6869 167e 00000000 		.4byte	socpRecNum
 6870 1682 25       		.uleb128 0x25
 6871 1683 DF1B0000 		.4byte	.LASF664
 6872 1687 01       		.byte	0x1
 6873 1688 23       		.byte	0x23
 6874 1689 DB110000 		.4byte	0x11db
 6875 168d 05       		.uleb128 0x5
 6876 168e 03       		.byte	0x3
 6877 168f 00000000 		.4byte	alrt
 6878 1693 25       		.uleb128 0x25
 6879 1694 BD050000 		.4byte	.LASF625
 6880 1698 01       		.byte	0x1
 6881 1699 26       		.byte	0x26
 6882 169a 6B000000 		.4byte	0x6b
 6883 169e 05       		.uleb128 0x5
 6884 169f 03       		.byte	0x3
 6885 16a0 00000000 		.4byte	length
 6886 16a4 25       		.uleb128 0x25
 6887 16a5 7F0E0000 		.4byte	.LASF665
 6888 16a9 01       		.byte	0x1
 6889 16aa 28       		.byte	0x28
 6890 16ab 87100000 		.4byte	0x1087
 6891 16af 05       		.uleb128 0x5
 6892 16b0 03       		.byte	0x3
 6893 16b1 00000000 		.4byte	sstm
 6894 16b5 0A       		.uleb128 0xa
 6895 16b6 C5160000 		.4byte	0x16c5
ARM GAS  C:\Users\cypress\AppData\Local\Temp\ccgxY6Ea.s 			page 154


 6896 16ba C5160000 		.4byte	0x16c5
 6897 16be 0B       		.uleb128 0xb
 6898 16bf B0000000 		.4byte	0xb0
 6899 16c3 27       		.byte	0x27
 6900 16c4 00       		.byte	0
 6901 16c5 26       		.uleb128 0x26
 6902 16c6 1F100000 		.4byte	0x101f
 6903 16ca 25       		.uleb128 0x25
 6904 16cb 4D200000 		.4byte	.LASF554
 6905 16cf 01       		.byte	0x1
 6906 16d0 29       		.byte	0x29
 6907 16d1 DB160000 		.4byte	0x16db
 6908 16d5 05       		.uleb128 0x5
 6909 16d6 03       		.byte	0x3
 6910 16d7 00000000 		.4byte	timeZone
 6911 16db 26       		.uleb128 0x26
 6912 16dc B5160000 		.4byte	0x16b5
 6913 16e0 25       		.uleb128 0x25
 6914 16e1 4F250000 		.4byte	.LASF666
 6915 16e5 01       		.byte	0x1
 6916 16e6 55       		.byte	0x55
 6917 16e7 D4150000 		.4byte	0x15d4
 6918 16eb 05       		.uleb128 0x5
 6919 16ec 03       		.byte	0x3
 6920 16ed 00000000 		.4byte	recStatus
 6921 16f1 00       		.byte	0
 6922              		.section	.debug_abbrev,"",%progbits
 6923              	.Ldebug_abbrev0:
 6924 0000 01       		.uleb128 0x1
 6925 0001 11       		.uleb128 0x11
 6926 0002 01       		.byte	0x1
 6927 0003 25       		.uleb128 0x25
 6928 0004 0E       		.uleb128 0xe
 6929 0005 13       		.uleb128 0x13
 6930 0006 0B       		.uleb128 0xb
 6931 0007 03       		.uleb128 0x3
 6932 0008 0E       		.uleb128 0xe
 6933 0009 1B       		.uleb128 0x1b
 6934 000a 0E       		.uleb128 0xe
 6935 000b 55       		.uleb128 0x55
 6936 000c 17       		.uleb128 0x17
 6937 000d 11       		.uleb128 0x11
 6938 000e 01       		.uleb128 0x1
 6939 000f 10       		.uleb128 0x10
 6940 0010 17       		.uleb128 0x17
 6941 0011 00       		.byte	0
 6942 0012 00       		.byte	0
 6943 0013 02       		.uleb128 0x2
 6944 0014 24       		.uleb128 0x24
 6945 0015 00       		.byte	0
 6946 0016 0B       		.uleb128 0xb
 6947 0017 0B       		.uleb128 0xb
 6948 0018 3E       		.uleb128 0x3e
 6949 0019 0B       		.uleb128 0xb
 6950 001a 03       		.uleb128 0x3
 6951 001b 0E       		.uleb128 0xe
 6952 001c 00       		.byte	0
ARM GAS  C:\Users\cypress\AppData\Local\Temp\ccgxY6Ea.s 			page 155


 6953 001d 00       		.byte	0
 6954 001e 03       		.uleb128 0x3
 6955 001f 24       		.uleb128 0x24
 6956 0020 00       		.byte	0
 6957 0021 0B       		.uleb128 0xb
 6958 0022 0B       		.uleb128 0xb
 6959 0023 3E       		.uleb128 0x3e
 6960 0024 0B       		.uleb128 0xb
 6961 0025 03       		.uleb128 0x3
 6962 0026 08       		.uleb128 0x8
 6963 0027 00       		.byte	0
 6964 0028 00       		.byte	0
 6965 0029 04       		.uleb128 0x4
 6966 002a 16       		.uleb128 0x16
 6967 002b 00       		.byte	0
 6968 002c 03       		.uleb128 0x3
 6969 002d 0E       		.uleb128 0xe
 6970 002e 3A       		.uleb128 0x3a
 6971 002f 0B       		.uleb128 0xb
 6972 0030 3B       		.uleb128 0x3b
 6973 0031 05       		.uleb128 0x5
 6974 0032 49       		.uleb128 0x49
 6975 0033 13       		.uleb128 0x13
 6976 0034 00       		.byte	0
 6977 0035 00       		.byte	0
 6978 0036 05       		.uleb128 0x5
 6979 0037 35       		.uleb128 0x35
 6980 0038 00       		.byte	0
 6981 0039 49       		.uleb128 0x49
 6982 003a 13       		.uleb128 0x13
 6983 003b 00       		.byte	0
 6984 003c 00       		.byte	0
 6985 003d 06       		.uleb128 0x6
 6986 003e 0F       		.uleb128 0xf
 6987 003f 00       		.byte	0
 6988 0040 0B       		.uleb128 0xb
 6989 0041 0B       		.uleb128 0xb
 6990 0042 00       		.byte	0
 6991 0043 00       		.byte	0
 6992 0044 07       		.uleb128 0x7
 6993 0045 04       		.uleb128 0x4
 6994 0046 01       		.byte	0x1
 6995 0047 0B       		.uleb128 0xb
 6996 0048 0B       		.uleb128 0xb
 6997 0049 49       		.uleb128 0x49
 6998 004a 13       		.uleb128 0x13
 6999 004b 3A       		.uleb128 0x3a
 7000 004c 0B       		.uleb128 0xb
 7001 004d 3B       		.uleb128 0x3b
 7002 004e 05       		.uleb128 0x5
 7003 004f 01       		.uleb128 0x1
 7004 0050 13       		.uleb128 0x13
 7005 0051 00       		.byte	0
 7006 0052 00       		.byte	0
 7007 0053 08       		.uleb128 0x8
 7008 0054 28       		.uleb128 0x28
 7009 0055 00       		.byte	0
ARM GAS  C:\Users\cypress\AppData\Local\Temp\ccgxY6Ea.s 			page 156


 7010 0056 03       		.uleb128 0x3
 7011 0057 0E       		.uleb128 0xe
 7012 0058 1C       		.uleb128 0x1c
 7013 0059 0B       		.uleb128 0xb
 7014 005a 00       		.byte	0
 7015 005b 00       		.byte	0
 7016 005c 09       		.uleb128 0x9
 7017 005d 28       		.uleb128 0x28
 7018 005e 00       		.byte	0
 7019 005f 03       		.uleb128 0x3
 7020 0060 0E       		.uleb128 0xe
 7021 0061 1C       		.uleb128 0x1c
 7022 0062 05       		.uleb128 0x5
 7023 0063 00       		.byte	0
 7024 0064 00       		.byte	0
 7025 0065 0A       		.uleb128 0xa
 7026 0066 01       		.uleb128 0x1
 7027 0067 01       		.byte	0x1
 7028 0068 49       		.uleb128 0x49
 7029 0069 13       		.uleb128 0x13
 7030 006a 01       		.uleb128 0x1
 7031 006b 13       		.uleb128 0x13
 7032 006c 00       		.byte	0
 7033 006d 00       		.byte	0
 7034 006e 0B       		.uleb128 0xb
 7035 006f 21       		.uleb128 0x21
 7036 0070 00       		.byte	0
 7037 0071 49       		.uleb128 0x49
 7038 0072 13       		.uleb128 0x13
 7039 0073 2F       		.uleb128 0x2f
 7040 0074 0B       		.uleb128 0xb
 7041 0075 00       		.byte	0
 7042 0076 00       		.byte	0
 7043 0077 0C       		.uleb128 0xc
 7044 0078 0F       		.uleb128 0xf
 7045 0079 00       		.byte	0
 7046 007a 0B       		.uleb128 0xb
 7047 007b 0B       		.uleb128 0xb
 7048 007c 49       		.uleb128 0x49
 7049 007d 13       		.uleb128 0x13
 7050 007e 00       		.byte	0
 7051 007f 00       		.byte	0
 7052 0080 0D       		.uleb128 0xd
 7053 0081 04       		.uleb128 0x4
 7054 0082 01       		.byte	0x1
 7055 0083 0B       		.uleb128 0xb
 7056 0084 0B       		.uleb128 0xb
 7057 0085 49       		.uleb128 0x49
 7058 0086 13       		.uleb128 0x13
 7059 0087 3A       		.uleb128 0x3a
 7060 0088 0B       		.uleb128 0xb
 7061 0089 3B       		.uleb128 0x3b
 7062 008a 0B       		.uleb128 0xb
 7063 008b 01       		.uleb128 0x1
 7064 008c 13       		.uleb128 0x13
 7065 008d 00       		.byte	0
 7066 008e 00       		.byte	0
ARM GAS  C:\Users\cypress\AppData\Local\Temp\ccgxY6Ea.s 			page 157


 7067 008f 0E       		.uleb128 0xe
 7068 0090 13       		.uleb128 0x13
 7069 0091 01       		.byte	0x1
 7070 0092 0B       		.uleb128 0xb
 7071 0093 0B       		.uleb128 0xb
 7072 0094 3A       		.uleb128 0x3a
 7073 0095 0B       		.uleb128 0xb
 7074 0096 3B       		.uleb128 0x3b
 7075 0097 05       		.uleb128 0x5
 7076 0098 01       		.uleb128 0x1
 7077 0099 13       		.uleb128 0x13
 7078 009a 00       		.byte	0
 7079 009b 00       		.byte	0
 7080 009c 0F       		.uleb128 0xf
 7081 009d 0D       		.uleb128 0xd
 7082 009e 00       		.byte	0
 7083 009f 03       		.uleb128 0x3
 7084 00a0 0E       		.uleb128 0xe
 7085 00a1 3A       		.uleb128 0x3a
 7086 00a2 0B       		.uleb128 0xb
 7087 00a3 3B       		.uleb128 0x3b
 7088 00a4 05       		.uleb128 0x5
 7089 00a5 49       		.uleb128 0x49
 7090 00a6 13       		.uleb128 0x13
 7091 00a7 38       		.uleb128 0x38
 7092 00a8 0B       		.uleb128 0xb
 7093 00a9 00       		.byte	0
 7094 00aa 00       		.byte	0
 7095 00ab 10       		.uleb128 0x10
 7096 00ac 0D       		.uleb128 0xd
 7097 00ad 00       		.byte	0
 7098 00ae 03       		.uleb128 0x3
 7099 00af 08       		.uleb128 0x8
 7100 00b0 3A       		.uleb128 0x3a
 7101 00b1 0B       		.uleb128 0xb
 7102 00b2 3B       		.uleb128 0x3b
 7103 00b3 05       		.uleb128 0x5
 7104 00b4 49       		.uleb128 0x49
 7105 00b5 13       		.uleb128 0x13
 7106 00b6 38       		.uleb128 0x38
 7107 00b7 0B       		.uleb128 0xb
 7108 00b8 00       		.byte	0
 7109 00b9 00       		.byte	0
 7110 00ba 11       		.uleb128 0x11
 7111 00bb 16       		.uleb128 0x16
 7112 00bc 00       		.byte	0
 7113 00bd 03       		.uleb128 0x3
 7114 00be 0E       		.uleb128 0xe
 7115 00bf 3A       		.uleb128 0x3a
 7116 00c0 0B       		.uleb128 0xb
 7117 00c1 3B       		.uleb128 0x3b
 7118 00c2 0B       		.uleb128 0xb
 7119 00c3 49       		.uleb128 0x49
 7120 00c4 13       		.uleb128 0x13
 7121 00c5 00       		.byte	0
 7122 00c6 00       		.byte	0
 7123 00c7 12       		.uleb128 0x12
ARM GAS  C:\Users\cypress\AppData\Local\Temp\ccgxY6Ea.s 			page 158


 7124 00c8 13       		.uleb128 0x13
 7125 00c9 01       		.byte	0x1
 7126 00ca 0B       		.uleb128 0xb
 7127 00cb 0B       		.uleb128 0xb
 7128 00cc 3A       		.uleb128 0x3a
 7129 00cd 0B       		.uleb128 0xb
 7130 00ce 3B       		.uleb128 0x3b
 7131 00cf 0B       		.uleb128 0xb
 7132 00d0 01       		.uleb128 0x1
 7133 00d1 13       		.uleb128 0x13
 7134 00d2 00       		.byte	0
 7135 00d3 00       		.byte	0
 7136 00d4 13       		.uleb128 0x13
 7137 00d5 0D       		.uleb128 0xd
 7138 00d6 00       		.byte	0
 7139 00d7 03       		.uleb128 0x3
 7140 00d8 0E       		.uleb128 0xe
 7141 00d9 3A       		.uleb128 0x3a
 7142 00da 0B       		.uleb128 0xb
 7143 00db 3B       		.uleb128 0x3b
 7144 00dc 0B       		.uleb128 0xb
 7145 00dd 49       		.uleb128 0x49
 7146 00de 13       		.uleb128 0x13
 7147 00df 38       		.uleb128 0x38
 7148 00e0 0B       		.uleb128 0xb
 7149 00e1 00       		.byte	0
 7150 00e2 00       		.byte	0
 7151 00e3 14       		.uleb128 0x14
 7152 00e4 0D       		.uleb128 0xd
 7153 00e5 00       		.byte	0
 7154 00e6 03       		.uleb128 0x3
 7155 00e7 08       		.uleb128 0x8
 7156 00e8 3A       		.uleb128 0x3a
 7157 00e9 0B       		.uleb128 0xb
 7158 00ea 3B       		.uleb128 0x3b
 7159 00eb 0B       		.uleb128 0xb
 7160 00ec 49       		.uleb128 0x49
 7161 00ed 13       		.uleb128 0x13
 7162 00ee 38       		.uleb128 0x38
 7163 00ef 0B       		.uleb128 0xb
 7164 00f0 00       		.byte	0
 7165 00f1 00       		.byte	0
 7166 00f2 15       		.uleb128 0x15
 7167 00f3 28       		.uleb128 0x28
 7168 00f4 00       		.byte	0
 7169 00f5 03       		.uleb128 0x3
 7170 00f6 0E       		.uleb128 0xe
 7171 00f7 1C       		.uleb128 0x1c
 7172 00f8 0D       		.uleb128 0xd
 7173 00f9 00       		.byte	0
 7174 00fa 00       		.byte	0
 7175 00fb 16       		.uleb128 0x16
 7176 00fc 2E       		.uleb128 0x2e
 7177 00fd 01       		.byte	0x1
 7178 00fe 3F       		.uleb128 0x3f
 7179 00ff 19       		.uleb128 0x19
 7180 0100 03       		.uleb128 0x3
ARM GAS  C:\Users\cypress\AppData\Local\Temp\ccgxY6Ea.s 			page 159


 7181 0101 0E       		.uleb128 0xe
 7182 0102 3A       		.uleb128 0x3a
 7183 0103 0B       		.uleb128 0xb
 7184 0104 3B       		.uleb128 0x3b
 7185 0105 0B       		.uleb128 0xb
 7186 0106 27       		.uleb128 0x27
 7187 0107 19       		.uleb128 0x19
 7188 0108 11       		.uleb128 0x11
 7189 0109 01       		.uleb128 0x1
 7190 010a 12       		.uleb128 0x12
 7191 010b 06       		.uleb128 0x6
 7192 010c 40       		.uleb128 0x40
 7193 010d 18       		.uleb128 0x18
 7194 010e 9642     		.uleb128 0x2116
 7195 0110 19       		.uleb128 0x19
 7196 0111 01       		.uleb128 0x1
 7197 0112 13       		.uleb128 0x13
 7198 0113 00       		.byte	0
 7199 0114 00       		.byte	0
 7200 0115 17       		.uleb128 0x17
 7201 0116 05       		.uleb128 0x5
 7202 0117 00       		.byte	0
 7203 0118 03       		.uleb128 0x3
 7204 0119 0E       		.uleb128 0xe
 7205 011a 3A       		.uleb128 0x3a
 7206 011b 0B       		.uleb128 0xb
 7207 011c 3B       		.uleb128 0x3b
 7208 011d 0B       		.uleb128 0xb
 7209 011e 49       		.uleb128 0x49
 7210 011f 13       		.uleb128 0x13
 7211 0120 02       		.uleb128 0x2
 7212 0121 18       		.uleb128 0x18
 7213 0122 00       		.byte	0
 7214 0123 00       		.byte	0
 7215 0124 18       		.uleb128 0x18
 7216 0125 2E       		.uleb128 0x2e
 7217 0126 01       		.byte	0x1
 7218 0127 3F       		.uleb128 0x3f
 7219 0128 19       		.uleb128 0x19
 7220 0129 03       		.uleb128 0x3
 7221 012a 0E       		.uleb128 0xe
 7222 012b 3A       		.uleb128 0x3a
 7223 012c 0B       		.uleb128 0xb
 7224 012d 3B       		.uleb128 0x3b
 7225 012e 0B       		.uleb128 0xb
 7226 012f 27       		.uleb128 0x27
 7227 0130 19       		.uleb128 0x19
 7228 0131 49       		.uleb128 0x49
 7229 0132 13       		.uleb128 0x13
 7230 0133 11       		.uleb128 0x11
 7231 0134 01       		.uleb128 0x1
 7232 0135 12       		.uleb128 0x12
 7233 0136 06       		.uleb128 0x6
 7234 0137 40       		.uleb128 0x40
 7235 0138 18       		.uleb128 0x18
 7236 0139 9742     		.uleb128 0x2117
 7237 013b 19       		.uleb128 0x19
ARM GAS  C:\Users\cypress\AppData\Local\Temp\ccgxY6Ea.s 			page 160


 7238 013c 01       		.uleb128 0x1
 7239 013d 13       		.uleb128 0x13
 7240 013e 00       		.byte	0
 7241 013f 00       		.byte	0
 7242 0140 19       		.uleb128 0x19
 7243 0141 34       		.uleb128 0x34
 7244 0142 00       		.byte	0
 7245 0143 03       		.uleb128 0x3
 7246 0144 08       		.uleb128 0x8
 7247 0145 3A       		.uleb128 0x3a
 7248 0146 0B       		.uleb128 0xb
 7249 0147 3B       		.uleb128 0x3b
 7250 0148 0B       		.uleb128 0xb
 7251 0149 49       		.uleb128 0x49
 7252 014a 13       		.uleb128 0x13
 7253 014b 02       		.uleb128 0x2
 7254 014c 18       		.uleb128 0x18
 7255 014d 00       		.byte	0
 7256 014e 00       		.byte	0
 7257 014f 1A       		.uleb128 0x1a
 7258 0150 34       		.uleb128 0x34
 7259 0151 00       		.byte	0
 7260 0152 03       		.uleb128 0x3
 7261 0153 0E       		.uleb128 0xe
 7262 0154 3A       		.uleb128 0x3a
 7263 0155 0B       		.uleb128 0xb
 7264 0156 3B       		.uleb128 0x3b
 7265 0157 0B       		.uleb128 0xb
 7266 0158 49       		.uleb128 0x49
 7267 0159 13       		.uleb128 0x13
 7268 015a 02       		.uleb128 0x2
 7269 015b 18       		.uleb128 0x18
 7270 015c 00       		.byte	0
 7271 015d 00       		.byte	0
 7272 015e 1B       		.uleb128 0x1b
 7273 015f 2E       		.uleb128 0x2e
 7274 0160 01       		.byte	0x1
 7275 0161 3F       		.uleb128 0x3f
 7276 0162 19       		.uleb128 0x19
 7277 0163 03       		.uleb128 0x3
 7278 0164 0E       		.uleb128 0xe
 7279 0165 3A       		.uleb128 0x3a
 7280 0166 0B       		.uleb128 0xb
 7281 0167 3B       		.uleb128 0x3b
 7282 0168 0B       		.uleb128 0xb
 7283 0169 27       		.uleb128 0x27
 7284 016a 19       		.uleb128 0x19
 7285 016b 49       		.uleb128 0x49
 7286 016c 13       		.uleb128 0x13
 7287 016d 11       		.uleb128 0x11
 7288 016e 01       		.uleb128 0x1
 7289 016f 12       		.uleb128 0x12
 7290 0170 06       		.uleb128 0x6
 7291 0171 40       		.uleb128 0x40
 7292 0172 18       		.uleb128 0x18
 7293 0173 9642     		.uleb128 0x2116
 7294 0175 19       		.uleb128 0x19
ARM GAS  C:\Users\cypress\AppData\Local\Temp\ccgxY6Ea.s 			page 161


 7295 0176 01       		.uleb128 0x1
 7296 0177 13       		.uleb128 0x13
 7297 0178 00       		.byte	0
 7298 0179 00       		.byte	0
 7299 017a 1C       		.uleb128 0x1c
 7300 017b 2E       		.uleb128 0x2e
 7301 017c 01       		.byte	0x1
 7302 017d 3F       		.uleb128 0x3f
 7303 017e 19       		.uleb128 0x19
 7304 017f 03       		.uleb128 0x3
 7305 0180 0E       		.uleb128 0xe
 7306 0181 3A       		.uleb128 0x3a
 7307 0182 0B       		.uleb128 0xb
 7308 0183 3B       		.uleb128 0x3b
 7309 0184 05       		.uleb128 0x5
 7310 0185 27       		.uleb128 0x27
 7311 0186 19       		.uleb128 0x19
 7312 0187 49       		.uleb128 0x49
 7313 0188 13       		.uleb128 0x13
 7314 0189 11       		.uleb128 0x11
 7315 018a 01       		.uleb128 0x1
 7316 018b 12       		.uleb128 0x12
 7317 018c 06       		.uleb128 0x6
 7318 018d 40       		.uleb128 0x40
 7319 018e 18       		.uleb128 0x18
 7320 018f 9642     		.uleb128 0x2116
 7321 0191 19       		.uleb128 0x19
 7322 0192 01       		.uleb128 0x1
 7323 0193 13       		.uleb128 0x13
 7324 0194 00       		.byte	0
 7325 0195 00       		.byte	0
 7326 0196 1D       		.uleb128 0x1d
 7327 0197 05       		.uleb128 0x5
 7328 0198 00       		.byte	0
 7329 0199 03       		.uleb128 0x3
 7330 019a 0E       		.uleb128 0xe
 7331 019b 3A       		.uleb128 0x3a
 7332 019c 0B       		.uleb128 0xb
 7333 019d 3B       		.uleb128 0x3b
 7334 019e 05       		.uleb128 0x5
 7335 019f 49       		.uleb128 0x49
 7336 01a0 13       		.uleb128 0x13
 7337 01a1 02       		.uleb128 0x2
 7338 01a2 18       		.uleb128 0x18
 7339 01a3 00       		.byte	0
 7340 01a4 00       		.byte	0
 7341 01a5 1E       		.uleb128 0x1e
 7342 01a6 34       		.uleb128 0x34
 7343 01a7 00       		.byte	0
 7344 01a8 03       		.uleb128 0x3
 7345 01a9 0E       		.uleb128 0xe
 7346 01aa 3A       		.uleb128 0x3a
 7347 01ab 0B       		.uleb128 0xb
 7348 01ac 3B       		.uleb128 0x3b
 7349 01ad 05       		.uleb128 0x5
 7350 01ae 49       		.uleb128 0x49
 7351 01af 13       		.uleb128 0x13
ARM GAS  C:\Users\cypress\AppData\Local\Temp\ccgxY6Ea.s 			page 162


 7352 01b0 02       		.uleb128 0x2
 7353 01b1 18       		.uleb128 0x18
 7354 01b2 00       		.byte	0
 7355 01b3 00       		.byte	0
 7356 01b4 1F       		.uleb128 0x1f
 7357 01b5 2E       		.uleb128 0x2e
 7358 01b6 01       		.byte	0x1
 7359 01b7 3F       		.uleb128 0x3f
 7360 01b8 19       		.uleb128 0x19
 7361 01b9 03       		.uleb128 0x3
 7362 01ba 0E       		.uleb128 0xe
 7363 01bb 3A       		.uleb128 0x3a
 7364 01bc 0B       		.uleb128 0xb
 7365 01bd 3B       		.uleb128 0x3b
 7366 01be 05       		.uleb128 0x5
 7367 01bf 27       		.uleb128 0x27
 7368 01c0 19       		.uleb128 0x19
 7369 01c1 11       		.uleb128 0x11
 7370 01c2 01       		.uleb128 0x1
 7371 01c3 12       		.uleb128 0x12
 7372 01c4 06       		.uleb128 0x6
 7373 01c5 40       		.uleb128 0x40
 7374 01c6 18       		.uleb128 0x18
 7375 01c7 9642     		.uleb128 0x2116
 7376 01c9 19       		.uleb128 0x19
 7377 01ca 01       		.uleb128 0x1
 7378 01cb 13       		.uleb128 0x13
 7379 01cc 00       		.byte	0
 7380 01cd 00       		.byte	0
 7381 01ce 20       		.uleb128 0x20
 7382 01cf 0B       		.uleb128 0xb
 7383 01d0 01       		.byte	0x1
 7384 01d1 11       		.uleb128 0x11
 7385 01d2 01       		.uleb128 0x1
 7386 01d3 12       		.uleb128 0x12
 7387 01d4 06       		.uleb128 0x6
 7388 01d5 00       		.byte	0
 7389 01d6 00       		.byte	0
 7390 01d7 21       		.uleb128 0x21
 7391 01d8 34       		.uleb128 0x34
 7392 01d9 00       		.byte	0
 7393 01da 03       		.uleb128 0x3
 7394 01db 08       		.uleb128 0x8
 7395 01dc 3A       		.uleb128 0x3a
 7396 01dd 0B       		.uleb128 0xb
 7397 01de 3B       		.uleb128 0x3b
 7398 01df 05       		.uleb128 0x5
 7399 01e0 49       		.uleb128 0x49
 7400 01e1 13       		.uleb128 0x13
 7401 01e2 02       		.uleb128 0x2
 7402 01e3 18       		.uleb128 0x18
 7403 01e4 00       		.byte	0
 7404 01e5 00       		.byte	0
 7405 01e6 22       		.uleb128 0x22
 7406 01e7 34       		.uleb128 0x34
 7407 01e8 00       		.byte	0
 7408 01e9 03       		.uleb128 0x3
ARM GAS  C:\Users\cypress\AppData\Local\Temp\ccgxY6Ea.s 			page 163


 7409 01ea 0E       		.uleb128 0xe
 7410 01eb 3A       		.uleb128 0x3a
 7411 01ec 0B       		.uleb128 0xb
 7412 01ed 3B       		.uleb128 0x3b
 7413 01ee 05       		.uleb128 0x5
 7414 01ef 49       		.uleb128 0x49
 7415 01f0 13       		.uleb128 0x13
 7416 01f1 3F       		.uleb128 0x3f
 7417 01f2 19       		.uleb128 0x19
 7418 01f3 3C       		.uleb128 0x3c
 7419 01f4 19       		.uleb128 0x19
 7420 01f5 00       		.byte	0
 7421 01f6 00       		.byte	0
 7422 01f7 23       		.uleb128 0x23
 7423 01f8 34       		.uleb128 0x34
 7424 01f9 00       		.byte	0
 7425 01fa 03       		.uleb128 0x3
 7426 01fb 0E       		.uleb128 0xe
 7427 01fc 3A       		.uleb128 0x3a
 7428 01fd 0B       		.uleb128 0xb
 7429 01fe 3B       		.uleb128 0x3b
 7430 01ff 0B       		.uleb128 0xb
 7431 0200 49       		.uleb128 0x49
 7432 0201 13       		.uleb128 0x13
 7433 0202 3F       		.uleb128 0x3f
 7434 0203 19       		.uleb128 0x19
 7435 0204 3C       		.uleb128 0x3c
 7436 0205 19       		.uleb128 0x19
 7437 0206 00       		.byte	0
 7438 0207 00       		.byte	0
 7439 0208 24       		.uleb128 0x24
 7440 0209 34       		.uleb128 0x34
 7441 020a 00       		.byte	0
 7442 020b 03       		.uleb128 0x3
 7443 020c 08       		.uleb128 0x8
 7444 020d 3A       		.uleb128 0x3a
 7445 020e 0B       		.uleb128 0xb
 7446 020f 3B       		.uleb128 0x3b
 7447 0210 0B       		.uleb128 0xb
 7448 0211 49       		.uleb128 0x49
 7449 0212 13       		.uleb128 0x13
 7450 0213 3F       		.uleb128 0x3f
 7451 0214 19       		.uleb128 0x19
 7452 0215 3C       		.uleb128 0x3c
 7453 0216 19       		.uleb128 0x19
 7454 0217 00       		.byte	0
 7455 0218 00       		.byte	0
 7456 0219 25       		.uleb128 0x25
 7457 021a 34       		.uleb128 0x34
 7458 021b 00       		.byte	0
 7459 021c 03       		.uleb128 0x3
 7460 021d 0E       		.uleb128 0xe
 7461 021e 3A       		.uleb128 0x3a
 7462 021f 0B       		.uleb128 0xb
 7463 0220 3B       		.uleb128 0x3b
 7464 0221 0B       		.uleb128 0xb
 7465 0222 49       		.uleb128 0x49
ARM GAS  C:\Users\cypress\AppData\Local\Temp\ccgxY6Ea.s 			page 164


 7466 0223 13       		.uleb128 0x13
 7467 0224 3F       		.uleb128 0x3f
 7468 0225 19       		.uleb128 0x19
 7469 0226 02       		.uleb128 0x2
 7470 0227 18       		.uleb128 0x18
 7471 0228 00       		.byte	0
 7472 0229 00       		.byte	0
 7473 022a 26       		.uleb128 0x26
 7474 022b 26       		.uleb128 0x26
 7475 022c 00       		.byte	0
 7476 022d 49       		.uleb128 0x49
 7477 022e 13       		.uleb128 0x13
 7478 022f 00       		.byte	0
 7479 0230 00       		.byte	0
 7480 0231 00       		.byte	0
 7481              		.section	.debug_aranges,"",%progbits
 7482 0000 5C000000 		.4byte	0x5c
 7483 0004 0200     		.2byte	0x2
 7484 0006 00000000 		.4byte	.Ldebug_info0
 7485 000a 04       		.byte	0x4
 7486 000b 00       		.byte	0
 7487 000c 0000     		.2byte	0
 7488 000e 0000     		.2byte	0
 7489 0010 00000000 		.4byte	.LFB36
 7490 0014 A8000000 		.4byte	.LFE36-.LFB36
 7491 0018 00000000 		.4byte	.LFB37
 7492 001c D0000000 		.4byte	.LFE37-.LFB37
 7493 0020 00000000 		.4byte	.LFB38
 7494 0024 54000000 		.4byte	.LFE38-.LFB38
 7495 0028 00000000 		.4byte	.LFB39
 7496 002c B4000000 		.4byte	.LFE39-.LFB39
 7497 0030 00000000 		.4byte	.LFB40
 7498 0034 94000000 		.4byte	.LFE40-.LFB40
 7499 0038 00000000 		.4byte	.LFB41
 7500 003c 340C0000 		.4byte	.LFE41-.LFB41
 7501 0040 00000000 		.4byte	.LFB42
 7502 0044 90020000 		.4byte	.LFE42-.LFB42
 7503 0048 00000000 		.4byte	.LFB43
 7504 004c 7C000000 		.4byte	.LFE43-.LFB43
 7505 0050 00000000 		.4byte	.LFB44
 7506 0054 DC040000 		.4byte	.LFE44-.LFB44
 7507 0058 00000000 		.4byte	0
 7508 005c 00000000 		.4byte	0
 7509              		.section	.debug_ranges,"",%progbits
 7510              	.Ldebug_ranges0:
 7511 0000 00000000 		.4byte	.LFB36
 7512 0004 A8000000 		.4byte	.LFE36
 7513 0008 00000000 		.4byte	.LFB37
 7514 000c D0000000 		.4byte	.LFE37
 7515 0010 00000000 		.4byte	.LFB38
 7516 0014 54000000 		.4byte	.LFE38
 7517 0018 00000000 		.4byte	.LFB39
 7518 001c B4000000 		.4byte	.LFE39
 7519 0020 00000000 		.4byte	.LFB40
 7520 0024 94000000 		.4byte	.LFE40
 7521 0028 00000000 		.4byte	.LFB41
 7522 002c 340C0000 		.4byte	.LFE41
ARM GAS  C:\Users\cypress\AppData\Local\Temp\ccgxY6Ea.s 			page 165


 7523 0030 00000000 		.4byte	.LFB42
 7524 0034 90020000 		.4byte	.LFE42
 7525 0038 00000000 		.4byte	.LFB43
 7526 003c 7C000000 		.4byte	.LFE43
 7527 0040 00000000 		.4byte	.LFB44
 7528 0044 DC040000 		.4byte	.LFE44
 7529 0048 00000000 		.4byte	0
 7530 004c 00000000 		.4byte	0
 7531              		.section	.debug_line,"",%progbits
 7532              	.Ldebug_line0:
 7533 0000 76040000 		.section	.debug_str,"MS",%progbits,1
 7533      0200B700 
 7533      00000201 
 7533      FB0E0D00 
 7533      01010101 
 7534              	.LASF360:
 7535 0000 4359424C 		.ascii	"CYBLE_EVT_HPSS_NOTIFICATION_DISABLED\000"
 7535      455F4556 
 7535      545F4850 
 7535      53535F4E 
 7535      4F544946 
 7536              	.LASF103:
 7537 0025 4359424C 		.ascii	"CYBLE_ERROR_L2CAP_PSM_ALREADY_REGISTERED\000"
 7537      455F4552 
 7537      524F525F 
 7537      4C324341 
 7537      505F5053 
 7538              	.LASF302:
 7539 004e 4359424C 		.ascii	"CYBLE_EVT_CSCSS_NOTIFICATION_DISABLED\000"
 7539      455F4556 
 7539      545F4353 
 7539      4353535F 
 7539      4E4F5449 
 7540              	.LASF652:
 7541 0074 63676D73 		.ascii	"cgmsFlag\000"
 7541      466C6167 
 7541      00
 7542              	.LASF639:
 7543 007d 6576656E 		.ascii	"event\000"
 7543      7400
 7544              	.LASF88:
 7545 0083 4359424C 		.ascii	"CYBLE_EVT_MAX\000"
 7545      455F4556 
 7545      545F4D41 
 7545      5800
 7546              	.LASF412:
 7547 0091 4359424C 		.ascii	"CYBLE_EVT_PASSS_NOTIFICATION_ENABLED\000"
 7547      455F4556 
 7547      545F5041 
 7547      5353535F 
 7547      4E4F5449 
 7548              	.LASF135:
 7549 00b6 4359424C 		.ascii	"CYBLE_GATT_ERR_INSUFFICIENT_ENC_KEY_SIZE\000"
 7549      455F4741 
 7549      54545F45 
 7549      52525F49 
 7549      4E535546 
ARM GAS  C:\Users\cypress\AppData\Local\Temp\ccgxY6Ea.s 			page 166


 7550              	.LASF648:
 7551 00df 6379426C 		.ascii	"cyBle_busyStatus\000"
 7551      655F6275 
 7551      73795374 
 7551      61747573 
 7551      00
 7552              	.LASF359:
 7553 00f0 4359424C 		.ascii	"CYBLE_EVT_HPSS_NOTIFICATION_ENABLED\000"
 7553      455F4556 
 7553      545F4850 
 7553      53535F4E 
 7553      4F544946 
 7554              	.LASF632:
 7555 0114 61747472 		.ascii	"attrSize\000"
 7555      53697A65 
 7555      00
 7556              	.LASF393:
 7557 011d 4359424C 		.ascii	"CYBLE_EVT_IPSC_WRITE_DESCR_RESPONSE\000"
 7557      455F4556 
 7557      545F4950 
 7557      53435F57 
 7557      52495445 
 7558              	.LASF187:
 7559 0141 67617474 		.ascii	"gattErrorCode\000"
 7559      4572726F 
 7559      72436F64 
 7559      6500
 7560              	.LASF222:
 7561 014f 4359424C 		.ascii	"CYBLE_EVT_AIOSS_CHAR_WRITE\000"
 7561      455F4556 
 7561      545F4149 
 7561      4F53535F 
 7561      43484152 
 7562              	.LASF620:
 7563 016a 4359424C 		.ascii	"CYBLE_CGMS_SOCP_OPC_RDSA\000"
 7563      455F4347 
 7563      4D535F53 
 7563      4F43505F 
 7563      4F50435F 
 7564              	.LASF416:
 7565 0183 4359424C 		.ascii	"CYBLE_EVT_PASSC_READ_CHAR_RESPONSE\000"
 7565      455F4556 
 7565      545F5041 
 7565      5353435F 
 7565      52454144 
 7566              	.LASF305:
 7567 01a6 4359424C 		.ascii	"CYBLE_EVT_CSCSS_INDICATION_CONFIRMATION\000"
 7567      455F4556 
 7567      545F4353 
 7567      4353535F 
 7567      494E4449 
 7568              	.LASF178:
 7569 01ce 4359424C 		.ascii	"CYBLE_CGMS_RACP\000"
 7569      455F4347 
 7569      4D535F52 
 7569      41435000 
 7570              	.LASF586:
ARM GAS  C:\Users\cypress\AppData\Local\Temp\ccgxY6Ea.s 			page 167


 7571 01de 4359424C 		.ascii	"CYBLE_CGMS_RACP_RSP_NO_COMPL\000"
 7571      455F4347 
 7571      4D535F52 
 7571      4143505F 
 7571      5253505F 
 7572              	.LASF662:
 7573 01fb 636F6D6D 		.ascii	"commInterval\000"
 7573      496E7465 
 7573      7276616C 
 7573      00
 7574              	.LASF283:
 7575 0208 4359424C 		.ascii	"CYBLE_EVT_CGMSC_WRITE_CHAR_RESPONSE\000"
 7575      455F4556 
 7575      545F4347 
 7575      4D53435F 
 7575      57524954 
 7576              	.LASF28:
 7577 022c 4359424C 		.ascii	"CYBLE_EVT_GAP_AUTH_COMPLETE\000"
 7577      455F4556 
 7577      545F4741 
 7577      505F4155 
 7577      54485F43 
 7578              	.LASF118:
 7579 0248 4359424C 		.ascii	"CYBLE_ERROR_IND_DISABLED\000"
 7579      455F4552 
 7579      524F525F 
 7579      494E445F 
 7579      44495341 
 7580              	.LASF185:
 7581 0261 63686172 		.ascii	"charIndex\000"
 7581      496E6465 
 7581      7800
 7582              	.LASF310:
 7583 026b 4359424C 		.ascii	"CYBLE_EVT_CSCSC_WRITE_CHAR_RESPONSE\000"
 7583      455F4556 
 7583      545F4353 
 7583      4353435F 
 7583      57524954 
 7584              	.LASF511:
 7585 028f 4359424C 		.ascii	"CYBLE_TIME_ZONE_M0930\000"
 7585      455F5449 
 7585      4D455F5A 
 7585      4F4E455F 
 7585      4D303933 
 7586              	.LASF455:
 7587 02a5 4359424C 		.ascii	"CYBLE_EVT_TPSC_READ_DESCR_RESPONSE\000"
 7587      455F4556 
 7587      545F5450 
 7587      53435F52 
 7587      4541445F 
 7588              	.LASF556:
 7589 02c8 4359424C 		.ascii	"CYBLE_CGMS_SSTM_T\000"
 7589      455F4347 
 7589      4D535F53 
 7589      53544D5F 
 7589      5400
 7590              	.LASF374:
ARM GAS  C:\Users\cypress\AppData\Local\Temp\ccgxY6Ea.s 			page 168


 7591 02da 4359424C 		.ascii	"CYBLE_EVT_HRSC_WRITE_DESCR_RESPONSE\000"
 7591      455F4556 
 7591      545F4852 
 7591      53435F57 
 7591      52495445 
 7592              	.LASF89:
 7593 02fe 4359424C 		.ascii	"CYBLE_ERROR_OK\000"
 7593      455F4552 
 7593      524F525F 
 7593      4F4B00
 7594              	.LASF552:
 7595 030d 4359424C 		.ascii	"CYBLE_DSTOFFSET_DD\000"
 7595      455F4453 
 7595      544F4646 
 7595      5345545F 
 7595      444400
 7596              	.LASF570:
 7597 0320 4359424C 		.ascii	"CYBLE_CGMS_RACP_OPR_LAST\000"
 7597      455F4347 
 7597      4D535F52 
 7597      4143505F 
 7597      4F50525F 
 7598              	.LASF217:
 7599 0339 4359424C 		.ascii	"CYBLE_EVT_AIOSS_NOTIFICATION_ENABLED\000"
 7599      455F4556 
 7599      545F4149 
 7599      4F53535F 
 7599      4E4F5449 
 7600              	.LASF551:
 7601 035e 4359424C 		.ascii	"CYBLE_DSTOFFSET_DT\000"
 7601      455F4453 
 7601      544F4646 
 7601      5345545F 
 7601      445400
 7602              	.LASF100:
 7603 0371 4359424C 		.ascii	"CYBLE_ERROR_BT_ON_NOT_COMPLETED\000"
 7603      455F4552 
 7603      524F525F 
 7603      42545F4F 
 7603      4E5F4E4F 
 7604              	.LASF322:
 7605 0391 4359424C 		.ascii	"CYBLE_EVT_ESSS_NOTIFICATION_ENABLED\000"
 7605      455F4556 
 7605      545F4553 
 7605      53535F4E 
 7605      4F544946 
 7606              	.LASF601:
 7607 03b5 4359424C 		.ascii	"CYBLE_CGMS_SOCP_OPC_RGCV\000"
 7607      455F4347 
 7607      4D535F53 
 7607      4F43505F 
 7607      4F50435F 
 7608              	.LASF266:
 7609 03ce 4359424C 		.ascii	"CYBLE_EVT_BLSC_NOTIFICATION\000"
 7609      455F4556 
 7609      545F424C 
 7609      53435F4E 
ARM GAS  C:\Users\cypress\AppData\Local\Temp\ccgxY6Ea.s 			page 169


 7609      4F544946 
 7610              	.LASF609:
 7611 03ea 4359424C 		.ascii	"CYBLE_CGMS_SOCP_OPC_GHPO\000"
 7611      455F4347 
 7611      4D535F53 
 7611      4F43505F 
 7611      4F50435F 
 7612              	.LASF612:
 7613 0403 4359424C 		.ascii	"CYBLE_CGMS_SOCP_OPC_GHPR\000"
 7613      455F4347 
 7613      4D535F53 
 7613      4F43505F 
 7613      4F50435F 
 7614              	.LASF391:
 7615 041c 4359424C 		.ascii	"CYBLE_EVT_IPSC_WRITE_CHAR_RESPONSE\000"
 7615      455F4556 
 7615      545F4950 
 7615      53435F57 
 7615      52495445 
 7616              	.LASF335:
 7617 043f 4359424C 		.ascii	"CYBLE_EVT_GLSS_INDICATION_ENABLED\000"
 7617      455F4556 
 7617      545F474C 
 7617      53535F49 
 7617      4E444943 
 7618              	.LASF69:
 7619 0461 4359424C 		.ascii	"CYBLE_EVT_GATTS_DATA_SIGNED_CMD_REQ\000"
 7619      455F4556 
 7619      545F4741 
 7619      5454535F 
 7619      44415441 
 7620              	.LASF232:
 7621 0485 4359424C 		.ascii	"CYBLE_EVT_ANCSS_NOTIFICATION_DISABLED\000"
 7621      455F4556 
 7621      545F414E 
 7621      4353535F 
 7621      4E4F5449 
 7622              	.LASF229:
 7623 04ab 4359424C 		.ascii	"CYBLE_EVT_AIOSC_WRITE_DESCR_RESPONSE\000"
 7623      455F4556 
 7623      545F4149 
 7623      4F53435F 
 7623      57524954 
 7624              	.LASF396:
 7625 04d0 4359424C 		.ascii	"CYBLE_EVT_LLSS_WRITE_CHAR_REQ\000"
 7625      455F4556 
 7625      545F4C4C 
 7625      53535F57 
 7625      52495445 
 7626              	.LASF395:
 7627 04ee 4359424C 		.ascii	"CYBLE_EVT_IPSC_READ_BLOB_RSP\000"
 7627      455F4556 
 7627      545F4950 
 7627      53435F52 
 7627      4541445F 
 7628              	.LASF18:
 7629 050b 4359424C 		.ascii	"CYBLE_EVT_STACK_ON\000"
ARM GAS  C:\Users\cypress\AppData\Local\Temp\ccgxY6Ea.s 			page 170


 7629      455F4556 
 7629      545F5354 
 7629      41434B5F 
 7629      4F4E00
 7630              	.LASF326:
 7631 051e 4359424C 		.ascii	"CYBLE_EVT_ESSS_INDICATION_CONFIRMATION\000"
 7631      455F4556 
 7631      545F4553 
 7631      53535F49 
 7631      4E444943 
 7632              	.LASF303:
 7633 0545 4359424C 		.ascii	"CYBLE_EVT_CSCSS_INDICATION_ENABLED\000"
 7633      455F4556 
 7633      545F4353 
 7633      4353535F 
 7633      494E4449 
 7634              	.LASF108:
 7635 0568 4359424C 		.ascii	"CYBLE_ERROR_GATT_DB_INVALID_ATTR_HANDLE\000"
 7635      455F4552 
 7635      524F525F 
 7635      47415454 
 7635      5F44425F 
 7636              	.LASF160:
 7637 0590 4359424C 		.ascii	"CYBLE_GATT_ERR_PROCEDURE_ALREADY_IN_PROGRESS\000"
 7637      455F4741 
 7637      54545F45 
 7637      52525F50 
 7637      524F4345 
 7638              	.LASF625:
 7639 05bd 6C656E67 		.ascii	"length\000"
 7639      746800
 7640              	.LASF21:
 7641 05c4 4359424C 		.ascii	"CYBLE_EVT_HCI_STATUS\000"
 7641      455F4556 
 7641      545F4843 
 7641      495F5354 
 7641      41545553 
 7642              	.LASF26:
 7643 05d9 4359424C 		.ascii	"CYBLE_EVT_GAP_PASSKEY_ENTRY_REQUEST\000"
 7643      455F4556 
 7643      545F4741 
 7643      505F5041 
 7643      53534B45 
 7644              	.LASF641:
 7645 05fd 63676D73 		.ascii	"cgmsGattError\000"
 7645      47617474 
 7645      4572726F 
 7645      7200
 7646              	.LASF669:
 7647 060b 443A5C73 		.ascii	"D:\\student\\FeS-31\\Stepaniuk\\lab8\\test\\BLE_Con"
 7647      74756465 
 7647      6E745C46 
 7647      65532D33 
 7647      315C5374 
 7648 0638 74696E75 		.ascii	"tinuous_Glucose_Monitoring_Sensor01.cydsn\000"
 7648      6F75735F 
 7648      476C7563 
ARM GAS  C:\Users\cypress\AppData\Local\Temp\ccgxY6Ea.s 			page 171


 7648      6F73655F 
 7648      4D6F6E69 
 7649              	.LASF449:
 7650 0662 4359424C 		.ascii	"CYBLE_EVT_SCPSC_READ_DESCR_RESPONSE\000"
 7650      455F4556 
 7650      545F5343 
 7650      5053435F 
 7650      52454144 
 7651              	.LASF330:
 7652 0686 4359424C 		.ascii	"CYBLE_EVT_ESSC_INDICATION\000"
 7652      455F4556 
 7652      545F4553 
 7652      53435F49 
 7652      4E444943 
 7653              	.LASF452:
 7654 06a0 4359424C 		.ascii	"CYBLE_EVT_TPSS_NOTIFICATION_DISABLED\000"
 7654      455F4556 
 7654      545F5450 
 7654      53535F4E 
 7654      4F544946 
 7655              	.LASF183:
 7656 06c5 4359424C 		.ascii	"CYBLE_CGMS_DESCR_COUNT\000"
 7656      455F4347 
 7656      4D535F44 
 7656      45534352 
 7656      5F434F55 
 7657              	.LASF52:
 7658 06dc 4359424C 		.ascii	"CYBLE_EVT_GATTC_XCHNG_MTU_RSP\000"
 7658      455F4556 
 7658      545F4741 
 7658      5454435F 
 7658      5843484E 
 7659              	.LASF569:
 7660 06fa 4359424C 		.ascii	"CYBLE_CGMS_RACP_OPR_FIRST\000"
 7660      455F4347 
 7660      4D535F52 
 7660      4143505F 
 7660      4F50525F 
 7661              	.LASF149:
 7662 0714 4359424C 		.ascii	"CYBLE_GATTS_ERR_CCCD_IMPROPERLY_CONFIGURED\000"
 7662      455F4741 
 7662      5454535F 
 7662      4552525F 
 7662      43434344 
 7663              	.LASF325:
 7664 073f 4359424C 		.ascii	"CYBLE_EVT_ESSS_INDICATION_DISABLED\000"
 7664      455F4556 
 7664      545F4553 
 7664      53535F49 
 7664      4E444943 
 7665              	.LASF234:
 7666 0762 4359424C 		.ascii	"CYBLE_EVT_ANCSC_NOTIFICATION\000"
 7666      455F4556 
 7666      545F414E 
 7666      4353435F 
 7666      4E4F5449 
 7667              	.LASF493:
ARM GAS  C:\Users\cypress\AppData\Local\Temp\ccgxY6Ea.s 			page 172


 7668 077f 6D6F6E74 		.ascii	"month\000"
 7668      6800
 7669              	.LASF281:
 7670 0785 4359424C 		.ascii	"CYBLE_EVT_CGMSC_NOTIFICATION\000"
 7670      455F4556 
 7670      545F4347 
 7670      4D53435F 
 7670      4E4F5449 
 7671              	.LASF57:
 7672 07a2 4359424C 		.ascii	"CYBLE_EVT_GATTC_READ_RSP\000"
 7672      455F4556 
 7672      545F4741 
 7672      5454435F 
 7672      52454144 
 7673              	.LASF610:
 7674 07bb 4359424C 		.ascii	"CYBLE_CGMS_SOCP_OPC_RHPO\000"
 7674      455F4347 
 7674      4D535F53 
 7674      4F43505F 
 7674      4F50435F 
 7675              	.LASF248:
 7676 07d4 4359424C 		.ascii	"CYBLE_EVT_BASS_NOTIFICATION_DISABLED\000"
 7676      455F4556 
 7676      545F4241 
 7676      53535F4E 
 7676      4F544946 
 7677              	.LASF550:
 7678 07f9 4359424C 		.ascii	"CYBLE_DSTOFFSET_HF\000"
 7678      455F4453 
 7678      544F4646 
 7678      5345545F 
 7678      484600
 7679              	.LASF593:
 7680 080c 4359424C 		.ascii	"CYBLE_CGMS_SOCP_RSP_NO_COMPL\000"
 7680      455F4347 
 7680      4D535F53 
 7680      4F43505F 
 7680      5253505F 
 7681              	.LASF604:
 7682 0829 4359424C 		.ascii	"CYBLE_CGMS_SOCP_OPC_RHAL\000"
 7682      455F4347 
 7682      4D535F53 
 7682      4F43505F 
 7682      4F50435F 
 7683              	.LASF381:
 7684 0842 4359424C 		.ascii	"CYBLE_EVT_HTSC_NOTIFICATION\000"
 7684      455F4556 
 7684      545F4854 
 7684      53435F4E 
 7684      4F544946 
 7685              	.LASF659:
 7686 085e 736F6370 		.ascii	"socpLength\000"
 7686      4C656E67 
 7686      746800
 7687              	.LASF347:
 7688 0869 4359424C 		.ascii	"CYBLE_EVT_HIDSS_NOTIFICATION_ENABLED\000"
 7688      455F4556 
ARM GAS  C:\Users\cypress\AppData\Local\Temp\ccgxY6Ea.s 			page 173


 7688      545F4849 
 7688      4453535F 
 7688      4E4F5449 
 7689              	.LASF597:
 7690 088e 4359424C 		.ascii	"CYBLE_CGMS_SOCP_OPC_GINT\000"
 7690      455F4347 
 7690      4D535F53 
 7690      4F43505F 
 7690      4F50435F 
 7691              	.LASF506:
 7692 08a7 73616D70 		.ascii	"sampLoc\000"
 7692      4C6F6300 
 7693              	.LASF377:
 7694 08af 4359424C 		.ascii	"CYBLE_EVT_HTSS_INDICATION_ENABLED\000"
 7694      455F4556 
 7694      545F4854 
 7694      53535F49 
 7694      4E444943 
 7695              	.LASF523:
 7696 08d1 4359424C 		.ascii	"CYBLE_TIME_ZONE_ZERO\000"
 7696      455F5449 
 7696      4D455F5A 
 7696      4F4E455F 
 7696      5A45524F 
 7697              	.LASF380:
 7698 08e6 4359424C 		.ascii	"CYBLE_EVT_HTSS_CHAR_WRITE\000"
 7698      455F4556 
 7698      545F4854 
 7698      53535F43 
 7698      4841525F 
 7699              	.LASF424:
 7700 0900 4359424C 		.ascii	"CYBLE_EVT_PLXS_INDICATION_CONFIRMATION\000"
 7700      455F4556 
 7700      545F504C 
 7700      58535F49 
 7700      4E444943 
 7701              	.LASF456:
 7702 0927 4359424C 		.ascii	"CYBLE_EVT_TPSC_WRITE_DESCR_RESPONSE\000"
 7702      455F4556 
 7702      545F5450 
 7702      53435F57 
 7702      52495445 
 7703              	.LASF480:
 7704 094b 4359424C 		.ascii	"CYBLE_EVT_WPTSC_READ_CHAR_RESPONSE\000"
 7704      455F4556 
 7704      545F5750 
 7704      5453435F 
 7704      52454144 
 7705              	.LASF42:
 7706 096e 4359424C 		.ascii	"CYBLE_EVT_GAPC_DIRECT_ADV_REPORT\000"
 7706      455F4556 
 7706      545F4741 
 7706      50435F44 
 7706      49524543 
 7707              	.LASF324:
 7708 098f 4359424C 		.ascii	"CYBLE_EVT_ESSS_INDICATION_ENABLED\000"
 7708      455F4556 
ARM GAS  C:\Users\cypress\AppData\Local\Temp\ccgxY6Ea.s 			page 174


 7708      545F4553 
 7708      53535F49 
 7708      4E444943 
 7709              	.LASF9:
 7710 09b1 75696E74 		.ascii	"uint8\000"
 7710      3800
 7711              	.LASF270:
 7712 09b7 4359424C 		.ascii	"CYBLE_EVT_BMSS_WRITE_CHAR\000"
 7712      455F4556 
 7712      545F424D 
 7712      53535F57 
 7712      52495445 
 7713              	.LASF304:
 7714 09d1 4359424C 		.ascii	"CYBLE_EVT_CSCSS_INDICATION_DISABLED\000"
 7714      455F4556 
 7714      545F4353 
 7714      4353535F 
 7714      494E4449 
 7715              	.LASF557:
 7716 09f5 4359424C 		.ascii	"CYBLE_CGMS_RACP_OPC_NA\000"
 7716      455F4347 
 7716      4D535F52 
 7716      4143505F 
 7716      4F50435F 
 7717              	.LASF461:
 7718 0a0c 4359424C 		.ascii	"CYBLE_EVT_UDSS_NOTIFICATION_DISABLED\000"
 7718      455F4556 
 7718      545F5544 
 7718      53535F4E 
 7718      4F544946 
 7719              	.LASF627:
 7720 0a31 62797465 		.ascii	"byte\000"
 7720      00
 7721              	.LASF645:
 7722 0a36 7265634E 		.ascii	"recNum\000"
 7722      756D00
 7723              	.LASF119:
 7724 0a3d 4359424C 		.ascii	"CYBLE_ERROR_CHAR_IS_NOT_DISCOVERED\000"
 7724      455F4552 
 7724      524F525F 
 7724      43484152 
 7724      5F49535F 
 7725              	.LASF524:
 7726 0a60 4359424C 		.ascii	"CYBLE_TIME_ZONE_P0100\000"
 7726      455F5449 
 7726      4D455F5A 
 7726      4F4E455F 
 7726      50303130 
 7727              	.LASF365:
 7728 0a76 4359424C 		.ascii	"CYBLE_EVT_HPSC_WRITE_DESCR_RESPONSE\000"
 7728      455F4556 
 7728      545F4850 
 7728      53435F57 
 7728      52495445 
 7729              	.LASF252:
 7730 0a9a 4359424C 		.ascii	"CYBLE_EVT_BASC_WRITE_DESCR_RESPONSE\000"
 7730      455F4556 
ARM GAS  C:\Users\cypress\AppData\Local\Temp\ccgxY6Ea.s 			page 175


 7730      545F4241 
 7730      53435F57 
 7730      52495445 
 7731              	.LASF196:
 7732 0abe 4359424C 		.ascii	"CYBLE_DIS_REG_CERT_DATA\000"
 7732      455F4449 
 7732      535F5245 
 7732      475F4345 
 7732      52545F44 
 7733              	.LASF589:
 7734 0ad6 4359424C 		.ascii	"CYBLE_CGMS_SOCP_RSP_RSRV\000"
 7734      455F4347 
 7734      4D535F53 
 7734      4F43505F 
 7734      5253505F 
 7735              	.LASF644:
 7736 0aef 43676D73 		.ascii	"CgmsRacpOpCodeProcess\000"
 7736      52616370 
 7736      4F70436F 
 7736      64655072 
 7736      6F636573 
 7737              	.LASF286:
 7738 0b05 4359424C 		.ascii	"CYBLE_EVT_CPSS_NOTIFICATION_ENABLED\000"
 7738      455F4556 
 7738      545F4350 
 7738      53535F4E 
 7738      4F544946 
 7739              	.LASF402:
 7740 0b29 4359424C 		.ascii	"CYBLE_EVT_LNSS_NOTIFICATION_ENABLED\000"
 7740      455F4556 
 7740      545F4C4E 
 7740      53535F4E 
 7740      4F544946 
 7741              	.LASF20:
 7742 0b4d 4359424C 		.ascii	"CYBLE_EVT_HARDWARE_ERROR\000"
 7742      455F4556 
 7742      545F4841 
 7742      52445741 
 7742      52455F45 
 7743              	.LASF276:
 7744 0b66 4359424C 		.ascii	"CYBLE_EVT_CGMSS_INDICATION_CONFIRMED\000"
 7744      455F4556 
 7744      545F4347 
 7744      4D53535F 
 7744      494E4449 
 7745              	.LASF496:
 7746 0b8b 7365636F 		.ascii	"seconds\000"
 7746      6E647300 
 7747              	.LASF90:
 7748 0b93 4359424C 		.ascii	"CYBLE_ERROR_INVALID_PARAMETER\000"
 7748      455F4552 
 7748      524F525F 
 7748      494E5641 
 7748      4C49445F 
 7749              	.LASF220:
 7750 0bb1 4359424C 		.ascii	"CYBLE_EVT_AIOSS_INDICATION_DISABLED\000"
 7750      455F4556 
ARM GAS  C:\Users\cypress\AppData\Local\Temp\ccgxY6Ea.s 			page 176


 7750      545F4149 
 7750      4F53535F 
 7750      494E4449 
 7751              	.LASF171:
 7752 0bd5 4359424C 		.ascii	"CYBLE_BMS_CEPD\000"
 7752      455F424D 
 7752      535F4345 
 7752      504400
 7753              	.LASF418:
 7754 0be4 4359424C 		.ascii	"CYBLE_EVT_PASSC_WRITE_DESCR_RESPONSE\000"
 7754      455F4556 
 7754      545F5041 
 7754      5353435F 
 7754      57524954 
 7755              	.LASF410:
 7756 0c09 4359424C 		.ascii	"CYBLE_EVT_LNSC_WRITE_DESCR_RESPONSE\000"
 7756      455F4556 
 7756      545F4C4E 
 7756      53435F57 
 7756      52495445 
 7757              	.LASF633:
 7758 0c2d 67617474 		.ascii	"gattValue\000"
 7758      56616C75 
 7758      6500
 7759              	.LASF213:
 7760 0c37 4359424C 		.ascii	"CYBLE_EVT_GATTC_SRVC_DISCOVERY_COMPLETE\000"
 7760      455F4556 
 7760      545F4741 
 7760      5454435F 
 7760      53525643 
 7761              	.LASF284:
 7762 0c5f 4359424C 		.ascii	"CYBLE_EVT_CGMSC_READ_DESCR_RESPONSE\000"
 7762      455F4556 
 7762      545F4347 
 7762      4D53435F 
 7762      52454144 
 7763              	.LASF420:
 7764 0c83 4359424C 		.ascii	"CYBLE_EVT_PLXSS_NOTIFICATION_ENABLED\000"
 7764      455F4556 
 7764      545F504C 
 7764      5853535F 
 7764      4E4F5449 
 7765              	.LASF75:
 7766 0ca8 4359424C 		.ascii	"CYBLE_EVT_L2CAP_COMMAND_REJ\000"
 7766      455F4556 
 7766      545F4C32 
 7766      4341505F 
 7766      434F4D4D 
 7767              	.LASF472:
 7768 0cc4 4359424C 		.ascii	"CYBLE_EVT_WPTSS_NOTIFICATION_DISABLED\000"
 7768      455F4556 
 7768      545F5750 
 7768      5453535F 
 7768      4E4F5449 
 7769              	.LASF494:
 7770 0cea 686F7572 		.ascii	"hours\000"
 7770      7300
ARM GAS  C:\Users\cypress\AppData\Local\Temp\ccgxY6Ea.s 			page 177


 7771              	.LASF405:
 7772 0cf0 4359424C 		.ascii	"CYBLE_EVT_LNSC_INDICATION\000"
 7772      455F4556 
 7772      545F4C4E 
 7772      53435F49 
 7772      4E444943 
 7773              	.LASF572:
 7774 0d0a 4359424C 		.ascii	"CYBLE_CGMS_RACP_OPD_1\000"
 7774      455F4347 
 7774      4D535F52 
 7774      4143505F 
 7774      4F50445F 
 7775              	.LASF573:
 7776 0d20 4359424C 		.ascii	"CYBLE_CGMS_RACP_OPD_2\000"
 7776      455F4347 
 7776      4D535F52 
 7776      4143505F 
 7776      4F50445F 
 7777              	.LASF575:
 7778 0d36 4359424C 		.ascii	"CYBLE_CGMS_RACP_OPD_4\000"
 7778      455F4347 
 7778      4D535F52 
 7778      4143505F 
 7778      4F50445F 
 7779              	.LASF311:
 7780 0d4c 4359424C 		.ascii	"CYBLE_EVT_CSCSC_READ_DESCR_RESPONSE\000"
 7780      455F4556 
 7780      545F4353 
 7780      4353435F 
 7780      52454144 
 7781              	.LASF642:
 7782 0d70 43676D73 		.ascii	"CgmsSendCgmtNtf\000"
 7782      53656E64 
 7782      43676D74 
 7782      4E746600 
 7783              	.LASF567:
 7784 0d80 4359424C 		.ascii	"CYBLE_CGMS_RACP_OPR_GREAT\000"
 7784      455F4347 
 7784      4D535F52 
 7784      4143505F 
 7784      4F50525F 
 7785              	.LASF86:
 7786 0d9a 4359424C 		.ascii	"CYBLE_EVT_HCI_PKT\000"
 7786      455F4556 
 7786      545F4843 
 7786      495F504B 
 7786      5400
 7787              	.LASF606:
 7788 0dac 4359424C 		.ascii	"CYBLE_CGMS_SOCP_OPC_GLAL\000"
 7788      455F4347 
 7788      4D535F53 
 7788      4F43505F 
 7788      4F50435F 
 7789              	.LASF663:
 7790 0dc5 736F6370 		.ascii	"socpRecNum\000"
 7790      5265634E 
 7790      756D00
ARM GAS  C:\Users\cypress\AppData\Local\Temp\ccgxY6Ea.s 			page 178


 7791              	.LASF548:
 7792 0dd0 4359424C 		.ascii	"CYBLE_TIME_ZONE_T\000"
 7792      455F5449 
 7792      4D455F5A 
 7792      4F4E455F 
 7792      5400
 7793              	.LASF490:
 7794 0de2 4359424C 		.ascii	"CYBLE_DEBUG_EVT_BLESS_INT\000"
 7794      455F4445 
 7794      4255475F 
 7794      4556545F 
 7794      424C4553 
 7795              	.LASF505:
 7796 0dfc 74797065 		.ascii	"type\000"
 7796      00
 7797              	.LASF141:
 7798 0e01 4359424C 		.ascii	"CYBLE_GATT_ERR_TRIGGER_CODITION_VALUE_NOT_SUPPORTED"
 7798      455F4741 
 7798      54545F45 
 7798      52525F54 
 7798      52494747 
 7799 0e34 00       		.ascii	"\000"
 7800              	.LASF43:
 7801 0e35 4359424C 		.ascii	"CYBLE_EVT_GAP_SMP_NEGOTIATED_AUTH_INFO\000"
 7801      455F4556 
 7801      545F4741 
 7801      505F534D 
 7801      505F4E45 
 7802              	.LASF392:
 7803 0e5c 4359424C 		.ascii	"CYBLE_EVT_IPSC_READ_DESCR_RESPONSE\000"
 7803      455F4556 
 7803      545F4950 
 7803      53435F52 
 7803      4541445F 
 7804              	.LASF665:
 7805 0e7f 7373746D 		.ascii	"sstm\000"
 7805      00
 7806              	.LASF225:
 7807 0e84 4359424C 		.ascii	"CYBLE_EVT_AIOSC_INDICATION\000"
 7807      455F4556 
 7807      545F4149 
 7807      4F53435F 
 7807      494E4449 
 7808              	.LASF167:
 7809 0e9f 4359424C 		.ascii	"CYBLE_GATT_VALUE_T\000"
 7809      455F4741 
 7809      54545F56 
 7809      414C5545 
 7809      5F5400
 7810              	.LASF501:
 7811 0eb2 7472656E 		.ascii	"trend\000"
 7811      6400
 7812              	.LASF443:
 7813 0eb8 4359424C 		.ascii	"CYBLE_EVT_RTUSS_WRITE_CHAR_CMD\000"
 7813      455F4556 
 7813      545F5254 
 7813      5553535F 
ARM GAS  C:\Users\cypress\AppData\Local\Temp\ccgxY6Ea.s 			page 179


 7813      57524954 
 7814              	.LASF585:
 7815 0ed7 4359424C 		.ascii	"CYBLE_CGMS_RACP_RSP_UNSUCCESS\000"
 7815      455F4347 
 7815      4D535F52 
 7815      4143505F 
 7815      5253505F 
 7816              	.LASF215:
 7817 0ef5 4359424C 		.ascii	"CYBLE_EVT_GATTC_CHAR_DISCOVERY_COMPLETE\000"
 7817      455F4556 
 7817      545F4741 
 7817      5454435F 
 7817      43484152 
 7818              	.LASF522:
 7819 0f1d 4359424C 		.ascii	"CYBLE_TIME_ZONE_M0100\000"
 7819      455F5449 
 7819      4D455F5A 
 7819      4F4E455F 
 7819      4D303130 
 7820              	.LASF62:
 7821 0f33 4359424C 		.ascii	"CYBLE_EVT_GATTS_WRITE_CMD_REQ\000"
 7821      455F4556 
 7821      545F4741 
 7821      5454535F 
 7821      57524954 
 7822              	.LASF144:
 7823 0f51 4359424C 		.ascii	"CYBLE_GATT_ERR_CPS_INAPPROPRIATE_CONNECTION_PARAMET"
 7823      455F4741 
 7823      54545F45 
 7823      52525F43 
 7823      50535F49 
 7824 0f84 45525300 		.ascii	"ERS\000"
 7825              	.LASF411:
 7826 0f88 4359424C 		.ascii	"CYBLE_EVT_NDCSC_READ_CHAR_RESPONSE\000"
 7826      455F4556 
 7826      545F4E44 
 7826      4353435F 
 7826      52454144 
 7827              	.LASF59:
 7828 0fab 4359424C 		.ascii	"CYBLE_EVT_GATTC_READ_MULTI_RSP\000"
 7828      455F4556 
 7828      545F4741 
 7828      5454435F 
 7828      52454144 
 7829              	.LASF618:
 7830 0fca 4359424C 		.ascii	"CYBLE_CGMS_SOCP_OPC_GINC\000"
 7830      455F4347 
 7830      4D535F53 
 7830      4F43505F 
 7830      4F50435F 
 7831              	.LASF264:
 7832 0fe3 4359424C 		.ascii	"CYBLE_EVT_BLSS_NOTIFICATION_DISABLED\000"
 7832      455F4556 
 7832      545F424C 
 7832      53535F4E 
 7832      4F544946 
 7833              	.LASF150:
ARM GAS  C:\Users\cypress\AppData\Local\Temp\ccgxY6Ea.s 			page 180


 7834 1008 4359424C 		.ascii	"CYBLE_GATTS_ERR_OPERATION_FAILED\000"
 7834      455F4741 
 7834      5454535F 
 7834      4552525F 
 7834      4F504552 
 7835              	.LASF48:
 7836 1029 4359424C 		.ascii	"CYBLE_EVT_GATTC_ERROR_RSP\000"
 7836      455F4556 
 7836      545F4741 
 7836      5454435F 
 7836      4552524F 
 7837              	.LASF619:
 7838 1043 4359424C 		.ascii	"CYBLE_CGMS_SOCP_OPC_RINC\000"
 7838      455F4347 
 7838      4D535F53 
 7838      4F43505F 
 7838      4F50435F 
 7839              	.LASF617:
 7840 105c 4359424C 		.ascii	"CYBLE_CGMS_SOCP_OPC_SINC\000"
 7840      455F4347 
 7840      4D535F53 
 7840      4F43505F 
 7840      4F50435F 
 7841              	.LASF502:
 7842 1075 7175616C 		.ascii	"quality\000"
 7842      69747900 
 7843              	.LASF202:
 7844 107d 4359424C 		.ascii	"CYBLE_KEY_EXCHANGE_INFO_REQUEST_REPLY\000"
 7844      455F4B45 
 7844      595F4558 
 7844      4348414E 
 7844      47455F49 
 7845              	.LASF667:
 7846 10a3 474E5520 		.ascii	"GNU C11 5.4.1 20160609 (release) [ARM/embedded-5-br"
 7846      43313120 
 7846      352E342E 
 7846      31203230 
 7846      31363036 
 7847 10d6 616E6368 		.ascii	"anch revision 237715] -mcpu=cortex-m0 -mthumb -g -O"
 7847      20726576 
 7847      6973696F 
 7847      6E203233 
 7847      37373135 
 7848 1109 30202D66 		.ascii	"0 -ffunction-sections -ffat-lto-objects\000"
 7848      66756E63 
 7848      74696F6E 
 7848      2D736563 
 7848      74696F6E 
 7849              	.LASF159:
 7850 1131 4359424C 		.ascii	"CYBLE_GATT_ERR_CCCD_IMPROPERLY_CONFIGURED\000"
 7850      455F4741 
 7850      54545F45 
 7850      52525F43 
 7850      4343445F 
 7851              	.LASF630:
 7852 115b 43676D73 		.ascii	"CgmsCrcLength\000"
 7852      4372634C 
ARM GAS  C:\Users\cypress\AppData\Local\Temp\ccgxY6Ea.s 			page 181


 7852      656E6774 
 7852      6800
 7853              	.LASF598:
 7854 1169 4359424C 		.ascii	"CYBLE_CGMS_SOCP_OPC_RINT\000"
 7854      455F4347 
 7854      4D535F53 
 7854      4F43505F 
 7854      4F50435F 
 7855              	.LASF661:
 7856 1182 736F6370 		.ascii	"socpOpdPtr\000"
 7856      4F706450 
 7856      747200
 7857              	.LASF1:
 7858 118d 756E7369 		.ascii	"unsigned char\000"
 7858      676E6564 
 7858      20636861 
 7858      7200
 7859              	.LASF177:
 7860 119b 4359424C 		.ascii	"CYBLE_CGMS_SRTM\000"
 7860      455F4347 
 7860      4D535F53 
 7860      52544D00 
 7861              	.LASF30:
 7862 11ab 4359424C 		.ascii	"CYBLE_EVT_GAPP_ADVERTISEMENT_START_STOP\000"
 7862      455F4556 
 7862      545F4741 
 7862      50505F41 
 7862      44564552 
 7863              	.LASF151:
 7864 11d3 4359424C 		.ascii	"CYBLE_GATT_ERR_INVALID_CRC\000"
 7864      455F4741 
 7864      54545F45 
 7864      52525F49 
 7864      4E56414C 
 7865              	.LASF115:
 7866 11ee 4359424C 		.ascii	"CYBLE_ERROR_CONTROLLER_BUSY\000"
 7866      455F4552 
 7866      524F525F 
 7866      434F4E54 
 7866      524F4C4C 
 7867              	.LASF12:
 7868 120a 666C6F61 		.ascii	"float\000"
 7868      7400
 7869              	.LASF525:
 7870 1210 4359424C 		.ascii	"CYBLE_TIME_ZONE_P0200\000"
 7870      455F5449 
 7870      4D455F5A 
 7870      4F4E455F 
 7870      50303230 
 7871              	.LASF507:
 7872 1226 4359424C 		.ascii	"CYBLE_CGMS_CGFT_T\000"
 7872      455F4347 
 7872      4D535F43 
 7872      4746545F 
 7872      5400
 7873              	.LASF553:
 7874 1238 4359424C 		.ascii	"CYBLE_DSTOFFSET_T\000"
ARM GAS  C:\Users\cypress\AppData\Local\Temp\ccgxY6Ea.s 			page 182


 7874      455F4453 
 7874      544F4646 
 7874      5345545F 
 7874      5400
 7875              	.LASF168:
 7876 124a 4359424C 		.ascii	"CYBLE_BMS_BMCP\000"
 7876      455F424D 
 7876      535F424D 
 7876      435000
 7877              	.LASF312:
 7878 1259 4359424C 		.ascii	"CYBLE_EVT_CSCSC_WRITE_DESCR_RESPONSE\000"
 7878      455F4556 
 7878      545F4353 
 7878      4353435F 
 7878      57524954 
 7879              	.LASF358:
 7880 127e 4359424C 		.ascii	"CYBLE_EVT_HIDSC_WRITE_DESCR_RESPONSE\000"
 7880      455F4556 
 7880      545F4849 
 7880      4453435F 
 7880      57524954 
 7881              	.LASF55:
 7882 12a3 4359424C 		.ascii	"CYBLE_EVT_GATTC_FIND_INFO_RSP\000"
 7882      455F4556 
 7882      545F4741 
 7882      5454435F 
 7882      46494E44 
 7883              	.LASF568:
 7884 12c1 4359424C 		.ascii	"CYBLE_CGMS_RACP_OPR_WITHIN\000"
 7884      455F4347 
 7884      4D535F52 
 7884      4143505F 
 7884      4F50525F 
 7885              	.LASF76:
 7886 12dc 4359424C 		.ascii	"CYBLE_EVT_L2CAP_CBFC_CONN_IND\000"
 7886      455F4556 
 7886      545F4C32 
 7886      4341505F 
 7886      43424643 
 7887              	.LASF235:
 7888 12fa 4359424C 		.ascii	"CYBLE_EVT_ANCSC_WRITE_CHAR_RESPONSE\000"
 7888      455F4556 
 7888      545F414E 
 7888      4353435F 
 7888      57524954 
 7889              	.LASF399:
 7890 131e 4359424C 		.ascii	"CYBLE_EVT_LNSS_INDICATION_ENABLED\000"
 7890      455F4556 
 7890      545F4C4E 
 7890      53535F49 
 7890      4E444943 
 7891              	.LASF78:
 7892 1340 4359424C 		.ascii	"CYBLE_EVT_L2CAP_CBFC_DISCONN_IND\000"
 7892      455F4556 
 7892      545F4C32 
 7892      4341505F 
 7892      43424643 
ARM GAS  C:\Users\cypress\AppData\Local\Temp\ccgxY6Ea.s 			page 183


 7893              	.LASF614:
 7894 1361 4359424C 		.ascii	"CYBLE_CGMS_SOCP_OPC_SDEC\000"
 7894      455F4347 
 7894      4D535F53 
 7894      4F43505F 
 7894      4F50435F 
 7895              	.LASF227:
 7896 137a 4359424C 		.ascii	"CYBLE_EVT_AIOSC_WRITE_CHAR_RESPONSE\000"
 7896      455F4556 
 7896      545F4149 
 7896      4F53435F 
 7896      57524954 
 7897              	.LASF297:
 7898 139e 4359424C 		.ascii	"CYBLE_EVT_CPSC_WRITE_CHAR_RESPONSE\000"
 7898      455F4556 
 7898      545F4350 
 7898      53435F57 
 7898      52495445 
 7899              	.LASF129:
 7900 13c1 4359424C 		.ascii	"CYBLE_GATT_ERR_REQUEST_NOT_SUPPORTED\000"
 7900      455F4741 
 7900      54545F45 
 7900      52525F52 
 7900      45515545 
 7901              	.LASF25:
 7902 13e6 4359424C 		.ascii	"CYBLE_EVT_GAP_AUTH_REQ\000"
 7902      455F4556 
 7902      545F4741 
 7902      505F4155 
 7902      54485F52 
 7903              	.LASF127:
 7904 13fd 4359424C 		.ascii	"CYBLE_GATT_ERR_INVALID_PDU\000"
 7904      455F4741 
 7904      54545F45 
 7904      52525F49 
 7904      4E56414C 
 7905              	.LASF198:
 7906 1418 4359424C 		.ascii	"CYBLE_DIS_CHAR_COUNT\000"
 7906      455F4449 
 7906      535F4348 
 7906      41525F43 
 7906      4F554E54 
 7907              	.LASF357:
 7908 142d 4359424C 		.ascii	"CYBLE_EVT_HIDSC_READ_DESCR_RESPONSE\000"
 7908      455F4556 
 7908      545F4849 
 7908      4453435F 
 7908      52454144 
 7909              	.LASF158:
 7910 1451 4359424C 		.ascii	"CYBLE_GATT_ERR_ANCS_ACTION_FAILED\000"
 7910      455F4741 
 7910      54545F45 
 7910      52525F41 
 7910      4E43535F 
 7911              	.LASF447:
 7912 1473 4359424C 		.ascii	"CYBLE_EVT_SCPSS_SCAN_INT_WIN_CHAR_WRITE\000"
 7912      455F4556 
ARM GAS  C:\Users\cypress\AppData\Local\Temp\ccgxY6Ea.s 			page 184


 7912      545F5343 
 7912      5053535F 
 7912      5343414E 
 7913              	.LASF272:
 7914 149b 4359424C 		.ascii	"CYBLE_EVT_BMSC_WRITE_CHAR_RESPONSE\000"
 7914      455F4556 
 7914      545F424D 
 7914      53435F57 
 7914      52495445 
 7915              	.LASF132:
 7916 14be 4359424C 		.ascii	"CYBLE_GATT_ERR_PREPARE_WRITE_QUEUE_FULL\000"
 7916      455F4741 
 7916      54545F45 
 7916      52525F50 
 7916      52455041 
 7917              	.LASF441:
 7918 14e6 4359424C 		.ascii	"CYBLE_EVT_RSCSC_READ_DESCR_RESPONSE\000"
 7918      455F4556 
 7918      545F5253 
 7918      4353435F 
 7918      52454144 
 7919              	.LASF426:
 7920 150a 4359424C 		.ascii	"CYBLE_EVT_PLXSC_INDICATION\000"
 7920      455F4556 
 7920      545F504C 
 7920      5853435F 
 7920      494E4449 
 7921              	.LASF549:
 7922 1525 4359424C 		.ascii	"CYBLE_DSTOFFSET_ST\000"
 7922      455F4453 
 7922      544F4646 
 7922      5345545F 
 7922      535400
 7923              	.LASF320:
 7924 1538 4359424C 		.ascii	"CYBLE_EVT_CTSC_WRITE_CHAR_RESPONSE\000"
 7924      455F4556 
 7924      545F4354 
 7924      53435F57 
 7924      52495445 
 7925              	.LASF107:
 7926 155b 4359424C 		.ascii	"CYBLE_ERROR_L2CAP_PSM_NOT_IN_RANGE\000"
 7926      455F4552 
 7926      524F525F 
 7926      4C324341 
 7926      505F5053 
 7927              	.LASF121:
 7928 157e 4359424C 		.ascii	"CYBLE_ERROR_STACK_BUSY\000"
 7928      455F4552 
 7928      524F525F 
 7928      53544143 
 7928      4B5F4255 
 7929              	.LASF471:
 7930 1595 4359424C 		.ascii	"CYBLE_EVT_WPTSS_NOTIFICATION_ENABLED\000"
 7930      455F4556 
 7930      545F5750 
 7930      5453535F 
 7930      4E4F5449 
ARM GAS  C:\Users\cypress\AppData\Local\Temp\ccgxY6Ea.s 			page 185


 7931              	.LASF409:
 7932 15ba 4359424C 		.ascii	"CYBLE_EVT_LNSC_READ_DESCR_RESPONSE\000"
 7932      455F4556 
 7932      545F4C4E 
 7932      53435F52 
 7932      4541445F 
 7933              	.LASF448:
 7934 15dd 4359424C 		.ascii	"CYBLE_EVT_SCPSC_NOTIFICATION\000"
 7934      455F4556 
 7934      545F5343 
 7934      5053435F 
 7934      4E4F5449 
 7935              	.LASF450:
 7936 15fa 4359424C 		.ascii	"CYBLE_EVT_SCPSC_WRITE_DESCR_RESPONSE\000"
 7936      455F4556 
 7936      545F5343 
 7936      5053435F 
 7936      57524954 
 7937              	.LASF169:
 7938 161f 4359424C 		.ascii	"CYBLE_BMS_BMFT\000"
 7938      455F424D 
 7938      535F424D 
 7938      465400
 7939              	.LASF199:
 7940 162e 4359424C 		.ascii	"CYBLE_AUTHENTICATION_REQUEST_REPLY\000"
 7940      455F4155 
 7940      5448454E 
 7940      54494341 
 7940      54494F4E 
 7941              	.LASF24:
 7942 1651 4359424C 		.ascii	"CYBLE_EVT_GAPC_SCAN_PROGRESS_RESULT\000"
 7942      455F4556 
 7942      545F4741 
 7942      50435F53 
 7942      43414E5F 
 7943              	.LASF133:
 7944 1675 4359424C 		.ascii	"CYBLE_GATT_ERR_ATTRIBUTE_NOT_FOUND\000"
 7944      455F4741 
 7944      54545F45 
 7944      52525F41 
 7944      54545249 
 7945              	.LASF636:
 7946 1698 43676D73 		.ascii	"CgmsInit\000"
 7946      496E6974 
 7946      00
 7947              	.LASF464:
 7948 16a1 4359424C 		.ascii	"CYBLE_EVT_UDSC_INDICATION\000"
 7948      455F4556 
 7948      545F5544 
 7948      53435F49 
 7948      4E444943 
 7949              	.LASF300:
 7950 16bb 4359424C 		.ascii	"CYBLE_EVT_CPSC_SCAN_PROGRESS_RESULT\000"
 7950      455F4556 
 7950      545F4350 
 7950      53435F53 
 7950      43414E5F 
ARM GAS  C:\Users\cypress\AppData\Local\Temp\ccgxY6Ea.s 			page 186


 7951              	.LASF521:
 7952 16df 4359424C 		.ascii	"CYBLE_TIME_ZONE_M0200\000"
 7952      455F5449 
 7952      4D455F5A 
 7952      4F4E455F 
 7952      4D303230 
 7953              	.LASF316:
 7954 16f5 4359424C 		.ascii	"CYBLE_EVT_CTSC_NOTIFICATION\000"
 7954      455F4556 
 7954      545F4354 
 7954      53435F4E 
 7954      4F544946 
 7955              	.LASF624:
 7956 1711 4359424C 		.ascii	"CYBLE_CGMS_SOCP_OPC_T\000"
 7956      455F4347 
 7956      4D535F53 
 7956      4F43505F 
 7956      4F50435F 
 7957              	.LASF244:
 7958 1727 4359424C 		.ascii	"CYBLE_EVT_ANSC_WRITE_CHAR_RESPONSE\000"
 7958      455F4556 
 7958      545F414E 
 7958      53435F57 
 7958      52495445 
 7959              	.LASF382:
 7960 174a 4359424C 		.ascii	"CYBLE_EVT_HTSC_INDICATION\000"
 7960      455F4556 
 7960      545F4854 
 7960      53435F49 
 7960      4E444943 
 7961              	.LASF19:
 7962 1764 4359424C 		.ascii	"CYBLE_EVT_TIMEOUT\000"
 7962      455F4556 
 7962      545F5449 
 7962      4D454F55 
 7962      5400
 7963              	.LASF457:
 7964 1776 4359424C 		.ascii	"CYBLE_EVT_UDSS_INDICATION_ENABLED\000"
 7964      455F4556 
 7964      545F5544 
 7964      53535F49 
 7964      4E444943 
 7965              	.LASF258:
 7966 1798 4359424C 		.ascii	"CYBLE_EVT_BCSC_READ_DESCR_RESPONSE\000"
 7966      455F4556 
 7966      545F4243 
 7966      53435F52 
 7966      4541445F 
 7967              	.LASF430:
 7968 17bb 4359424C 		.ascii	"CYBLE_EVT_PLXSC_WRITE_DESCR_RESPONSE\000"
 7968      455F4556 
 7968      545F504C 
 7968      5853435F 
 7968      57524954 
 7969              	.LASF140:
 7970 17e0 4359424C 		.ascii	"CYBLE_GATT_ERR_INSUFFICIENT_RESOURCE\000"
 7970      455F4741 
ARM GAS  C:\Users\cypress\AppData\Local\Temp\ccgxY6Ea.s 			page 187


 7970      54545F45 
 7970      52525F49 
 7970      4E535546 
 7971              	.LASF216:
 7972 1805 4359424C 		.ascii	"CYBLE_EVT_GATTC_DISCOVERY_COMPLETE\000"
 7972      455F4556 
 7972      545F4741 
 7972      5454435F 
 7972      44495343 
 7973              	.LASF208:
 7974 1828 4359424C 		.ascii	"CYBLE_EVT_GATTC_CHAR_DISCOVERY_FAILED\000"
 7974      455F4556 
 7974      545F4741 
 7974      5454435F 
 7974      43484152 
 7975              	.LASF478:
 7976 184e 4359424C 		.ascii	"CYBLE_EVT_WPTSC_INDICATION\000"
 7976      455F4556 
 7976      545F5750 
 7976      5453435F 
 7976      494E4449 
 7977              	.LASF85:
 7978 1869 4359424C 		.ascii	"CYBLE_EVT_LE_PING_AUTH_TIMEOUT\000"
 7978      455F4556 
 7978      545F4C45 
 7978      5F50494E 
 7978      475F4155 
 7979              	.LASF371:
 7980 1888 4359424C 		.ascii	"CYBLE_EVT_HRSC_READ_CHAR_RESPONSE\000"
 7980      455F4556 
 7980      545F4852 
 7980      53435F52 
 7980      4541445F 
 7981              	.LASF560:
 7982 18aa 4359424C 		.ascii	"CYBLE_CGMS_RACP_OPC_ABORT_OPN\000"
 7982      455F4347 
 7982      4D535F52 
 7982      4143505F 
 7982      4F50435F 
 7983              	.LASF97:
 7984 18c8 4359424C 		.ascii	"CYBLE_ERROR_REPEATED_ATTEMPTS\000"
 7984      455F4552 
 7984      524F525F 
 7984      52455045 
 7984      41544544 
 7985              	.LASF233:
 7986 18e6 4359424C 		.ascii	"CYBLE_EVT_ANCSS_WRITE_CHAR\000"
 7986      455F4556 
 7986      545F414E 
 7986      4353535F 
 7986      57524954 
 7987              	.LASF83:
 7988 1901 4359424C 		.ascii	"CYBLE_EVT_L2CAP_CBFC_DATA_WRITE_IND\000"
 7988      455F4556 
 7988      545F4C32 
 7988      4341505F 
 7988      43424643 
ARM GAS  C:\Users\cypress\AppData\Local\Temp\ccgxY6Ea.s 			page 188


 7989              	.LASF257:
 7990 1925 4359424C 		.ascii	"CYBLE_EVT_BCSC_READ_CHAR_RESPONSE\000"
 7990      455F4556 
 7990      545F4243 
 7990      53435F52 
 7990      4541445F 
 7991              	.LASF66:
 7992 1947 4359424C 		.ascii	"CYBLE_EVT_GATTC_HANDLE_VALUE_NTF\000"
 7992      455F4556 
 7992      545F4741 
 7992      5454435F 
 7992      48414E44 
 7993              	.LASF231:
 7994 1968 4359424C 		.ascii	"CYBLE_EVT_ANCSS_NOTIFICATION_ENABLED\000"
 7994      455F4556 
 7994      545F414E 
 7994      4353535F 
 7994      4E4F5449 
 7995              	.LASF437:
 7996 198d 4359424C 		.ascii	"CYBLE_EVT_RSCSC_NOTIFICATION\000"
 7996      455F4556 
 7996      545F5253 
 7996      4353435F 
 7996      4E4F5449 
 7997              	.LASF337:
 7998 19aa 4359424C 		.ascii	"CYBLE_EVT_GLSS_INDICATION_CONFIRMED\000"
 7998      455F4556 
 7998      545F474C 
 7998      53535F49 
 7998      4E444943 
 7999              	.LASF230:
 8000 19ce 4359424C 		.ascii	"CYBLE_EVT_AIOSC_ERROR_RESPONSE\000"
 8000      455F4556 
 8000      545F4149 
 8000      4F53435F 
 8000      4552524F 
 8001              	.LASF428:
 8002 19ed 4359424C 		.ascii	"CYBLE_EVT_PLXSC_WRITE_CHAR_RESPONSE\000"
 8002      455F4556 
 8002      545F504C 
 8002      5853435F 
 8002      57524954 
 8003              	.LASF526:
 8004 1a11 4359424C 		.ascii	"CYBLE_TIME_ZONE_P0300\000"
 8004      455F5449 
 8004      4D455F5A 
 8004      4F4E455F 
 8004      50303330 
 8005              	.LASF463:
 8006 1a27 4359424C 		.ascii	"CYBLE_EVT_UDSS_WRITE_CHAR\000"
 8006      455F4556 
 8006      545F5544 
 8006      53535F57 
 8006      52495445 
 8007              	.LASF218:
 8008 1a41 4359424C 		.ascii	"CYBLE_EVT_AIOSS_NOTIFICATION_DISABLED\000"
 8008      455F4556 
ARM GAS  C:\Users\cypress\AppData\Local\Temp\ccgxY6Ea.s 			page 189


 8008      545F4149 
 8008      4F53535F 
 8008      4E4F5449 
 8009              	.LASF384:
 8010 1a67 4359424C 		.ascii	"CYBLE_EVT_HTSC_WRITE_CHAR_RESPONSE\000"
 8010      455F4556 
 8010      545F4854 
 8010      53435F57 
 8010      52495445 
 8011              	.LASF117:
 8012 1a8a 4359424C 		.ascii	"CYBLE_ERROR_NTF_DISABLED\000"
 8012      455F4552 
 8012      524F525F 
 8012      4E54465F 
 8012      44495341 
 8013              	.LASF306:
 8014 1aa3 4359424C 		.ascii	"CYBLE_EVT_CSCSS_CHAR_WRITE\000"
 8014      455F4556 
 8014      545F4353 
 8014      4353535F 
 8014      43484152 
 8015              	.LASF260:
 8016 1abe 4359424C 		.ascii	"CYBLE_EVT_BLSS_INDICATION_ENABLED\000"
 8016      455F4556 
 8016      545F424C 
 8016      53535F49 
 8016      4E444943 
 8017              	.LASF613:
 8018 1ae0 4359424C 		.ascii	"CYBLE_CGMS_SOCP_OPC_RHPR\000"
 8018      455F4347 
 8018      4D535F53 
 8018      4F43505F 
 8018      4F50435F 
 8019              	.LASF122:
 8020 1af9 4359424C 		.ascii	"CYBLE_API_RESULT_T\000"
 8020      455F4150 
 8020      495F5245 
 8020      53554C54 
 8020      5F5400
 8021              	.LASF390:
 8022 1b0c 4359424C 		.ascii	"CYBLE_EVT_IPSC_READ_MULTIPLE_CHAR_RESPONSE\000"
 8022      455F4556 
 8022      545F4950 
 8022      53435F52 
 8022      4541445F 
 8023              	.LASF459:
 8024 1b37 4359424C 		.ascii	"CYBLE_EVT_UDSS_INDICATION_CONFIRMED\000"
 8024      455F4556 
 8024      545F5544 
 8024      53535F49 
 8024      4E444943 
 8025              	.LASF565:
 8026 1b5b 4359424C 		.ascii	"CYBLE_CGMS_RACP_OPR_ALL\000"
 8026      455F4347 
 8026      4D535F52 
 8026      4143505F 
 8026      4F50525F 
ARM GAS  C:\Users\cypress\AppData\Local\Temp\ccgxY6Ea.s 			page 190


 8027              	.LASF485:
 8028 1b73 4359424C 		.ascii	"CYBLE_EVT_WSSS_INDICATION_CONFIRMED\000"
 8028      455F4556 
 8028      545F5753 
 8028      53535F49 
 8028      4E444943 
 8029              	.LASF209:
 8030 1b97 4359424C 		.ascii	"CYBLE_EVT_GATTC_DESCR_DISCOVERY_FAILED\000"
 8030      455F4556 
 8030      545F4741 
 8030      5454435F 
 8030      44455343 
 8031              	.LASF40:
 8032 1bbe 4359424C 		.ascii	"CYBLE_EVT_GAP_DATA_LENGTH_CHANGE\000"
 8032      455F4556 
 8032      545F4741 
 8032      505F4441 
 8032      54415F4C 
 8033              	.LASF664:
 8034 1bdf 616C7274 		.ascii	"alrt\000"
 8034      00
 8035              	.LASF649:
 8036 1be4 61706952 		.ascii	"apiResult\000"
 8036      6573756C 
 8036      7400
 8037              	.LASF80:
 8038 1bee 4359424C 		.ascii	"CYBLE_EVT_L2CAP_CBFC_DATA_READ\000"
 8038      455F4556 
 8038      545F4C32 
 8038      4341505F 
 8038      43424643 
 8039              	.LASF111:
 8040 1c0d 4359424C 		.ascii	"CYBLE_ERROR_MIC_AUTH_FAILED\000"
 8040      455F4552 
 8040      524F525F 
 8040      4D49435F 
 8040      41555448 
 8041              	.LASF134:
 8042 1c29 4359424C 		.ascii	"CYBLE_GATT_ERR_ATTRIBUTE_NOT_LONG\000"
 8042      455F4741 
 8042      54545F45 
 8042      52525F41 
 8042      54545249 
 8043              	.LASF528:
 8044 1c4b 4359424C 		.ascii	"CYBLE_TIME_ZONE_P0400\000"
 8044      455F5449 
 8044      4D455F5A 
 8044      4F4E455F 
 8044      50303430 
 8045              	.LASF137:
 8046 1c61 4359424C 		.ascii	"CYBLE_GATT_ERR_UNLIKELY_ERROR\000"
 8046      455F4741 
 8046      54545F45 
 8046      52525F55 
 8046      4E4C494B 
 8047              	.LASF285:
 8048 1c7f 4359424C 		.ascii	"CYBLE_EVT_CGMSC_WRITE_DESCR_RESPONSE\000"
ARM GAS  C:\Users\cypress\AppData\Local\Temp\ccgxY6Ea.s 			page 191


 8048      455F4556 
 8048      545F4347 
 8048      4D53435F 
 8048      57524954 
 8049              	.LASF571:
 8050 1ca4 4359424C 		.ascii	"CYBLE_CGMS_RACP_OPD_NA\000"
 8050      455F4347 
 8050      4D535F52 
 8050      4143505F 
 8050      4F50445F 
 8051              	.LASF527:
 8052 1cbb 4359424C 		.ascii	"CYBLE_TIME_ZONE_P0330\000"
 8052      455F5449 
 8052      4D455F5A 
 8052      4F4E455F 
 8052      50303333 
 8053              	.LASF282:
 8054 1cd1 4359424C 		.ascii	"CYBLE_EVT_CGMSC_READ_CHAR_RESPONSE\000"
 8054      455F4556 
 8054      545F4347 
 8054      4D53435F 
 8054      52454144 
 8055              	.LASF58:
 8056 1cf4 4359424C 		.ascii	"CYBLE_EVT_GATTC_READ_BLOB_RSP\000"
 8056      455F4556 
 8056      545F4741 
 8056      5454435F 
 8056      52454144 
 8057              	.LASF346:
 8058 1d12 4359424C 		.ascii	"CYBLE_EVT_GLSC_WRITE_DESCR_RESPONSE\000"
 8058      455F4556 
 8058      545F474C 
 8058      53435F57 
 8058      52495445 
 8059              	.LASF23:
 8060 1d36 4359424C 		.ascii	"CYBLE_EVT_MEMORY_REQUEST\000"
 8060      455F4556 
 8060      545F4D45 
 8060      4D4F5259 
 8060      5F524551 
 8061              	.LASF520:
 8062 1d4f 4359424C 		.ascii	"CYBLE_TIME_ZONE_M0300\000"
 8062      455F5449 
 8062      4D455F5A 
 8062      4F4E455F 
 8062      4D303330 
 8063              	.LASF64:
 8064 1d65 4359424C 		.ascii	"CYBLE_EVT_GATTS_EXEC_WRITE_REQ\000"
 8064      455F4556 
 8064      545F4741 
 8064      5454535F 
 8064      45584543 
 8065              	.LASF263:
 8066 1d84 4359424C 		.ascii	"CYBLE_EVT_BLSS_NOTIFICATION_ENABLED\000"
 8066      455F4556 
 8066      545F424C 
 8066      53535F4E 
ARM GAS  C:\Users\cypress\AppData\Local\Temp\ccgxY6Ea.s 			page 192


 8066      4F544946 
 8067              	.LASF367:
 8068 1da8 4359424C 		.ascii	"CYBLE_EVT_HRSS_ENERGY_EXPENDED_RESET\000"
 8068      455F4556 
 8068      545F4852 
 8068      53535F45 
 8068      4E455247 
 8069              	.LASF152:
 8070 1dcd 4359424C 		.ascii	"CYBLE_GATTS_ERR_HPS_INVALID_REQUEST\000"
 8070      455F4741 
 8070      5454535F 
 8070      4552525F 
 8070      4850535F 
 8071              	.LASF109:
 8072 1df1 4359424C 		.ascii	"CYBLE_ERROR_DEVICE_ALREADY_EXISTS\000"
 8072      455F4552 
 8072      524F525F 
 8072      44455649 
 8072      43455F41 
 8073              	.LASF366:
 8074 1e13 4359424C 		.ascii	"CYBLE_EVT_HPSC_WRITE_CHAR_RESPONSE\000"
 8074      455F4556 
 8074      545F4850 
 8074      53435F57 
 8074      52495445 
 8075              	.LASF174:
 8076 1e36 4359424C 		.ascii	"CYBLE_CGMS_CGFT\000"
 8076      455F4347 
 8076      4D535F43 
 8076      47465400 
 8077              	.LASF623:
 8078 1e46 4359424C 		.ascii	"CYBLE_CGMS_SOCP_OPC_RSPC\000"
 8078      455F4347 
 8078      4D535F53 
 8078      4F43505F 
 8078      4F50435F 
 8079              	.LASF105:
 8080 1e5f 4359424C 		.ascii	"CYBLE_ERROR_L2CAP_CONNECTION_ENTITY_NOT_FOUND\000"
 8080      455F4552 
 8080      524F525F 
 8080      4C324341 
 8080      505F434F 
 8081              	.LASF98:
 8082 1e8d 4359424C 		.ascii	"CYBLE_ERROR_GAP_ROLE\000"
 8082      455F4552 
 8082      524F525F 
 8082      4741505F 
 8082      524F4C45 
 8083              	.LASF379:
 8084 1ea2 4359424C 		.ascii	"CYBLE_EVT_HTSS_INDICATION_CONFIRMED\000"
 8084      455F4556 
 8084      545F4854 
 8084      53535F49 
 8084      4E444943 
 8085              	.LASF186:
 8086 1ec6 76616C75 		.ascii	"value\000"
 8086      6500
ARM GAS  C:\Users\cypress\AppData\Local\Temp\ccgxY6Ea.s 			page 193


 8087              	.LASF123:
 8088 1ecc 4359424C 		.ascii	"CYBLE_GATT_ERR_NONE\000"
 8088      455F4741 
 8088      54545F45 
 8088      52525F4E 
 8088      4F4E4500 
 8089              	.LASF469:
 8090 1ee0 4359424C 		.ascii	"CYBLE_EVT_UDSC_WRITE_DESCR_RESPONSE\000"
 8090      455F4556 
 8090      545F5544 
 8090      53435F57 
 8090      52495445 
 8091              	.LASF484:
 8092 1f04 4359424C 		.ascii	"CYBLE_EVT_WSSS_INDICATION_DISABLED\000"
 8092      455F4556 
 8092      545F5753 
 8092      53535F49 
 8092      4E444943 
 8093              	.LASF566:
 8094 1f27 4359424C 		.ascii	"CYBLE_CGMS_RACP_OPR_LESS\000"
 8094      455F4347 
 8094      4D535F52 
 8094      4143505F 
 8094      4F50525F 
 8095              	.LASF492:
 8096 1f40 79656172 		.ascii	"year\000"
 8096      00
 8097              	.LASF489:
 8098 1f45 4359424C 		.ascii	"CYBLE_EVT_WSSC_WRITE_DESCR_RESPONSE\000"
 8098      455F4556 
 8098      545F5753 
 8098      53435F57 
 8098      52495445 
 8099              	.LASF273:
 8100 1f69 4359424C 		.ascii	"CYBLE_EVT_BMSC_READ_DESCR_RESPONSE\000"
 8100      455F4556 
 8100      545F424D 
 8100      53435F52 
 8100      4541445F 
 8101              	.LASF595:
 8102 1f8c 4359424C 		.ascii	"CYBLE_CGMS_SOCP_OPC_NA\000"
 8102      455F4347 
 8102      4D535F53 
 8102      4F43505F 
 8102      4F50435F 
 8103              	.LASF239:
 8104 1fa3 4359424C 		.ascii	"CYBLE_EVT_ANSS_NOTIFICATION_ENABLED\000"
 8104      455F4556 
 8104      545F414E 
 8104      53535F4E 
 8104      4F544946 
 8105              	.LASF439:
 8106 1fc7 4359424C 		.ascii	"CYBLE_EVT_RSCSC_READ_CHAR_RESPONSE\000"
 8106      455F4556 
 8106      545F5253 
 8106      4353435F 
 8106      52454144 
ARM GAS  C:\Users\cypress\AppData\Local\Temp\ccgxY6Ea.s 			page 194


 8107              	.LASF50:
 8108 1fea 4359424C 		.ascii	"CYBLE_EVT_GATT_DISCONNECT_IND\000"
 8108      455F4556 
 8108      545F4741 
 8108      54545F44 
 8108      4953434F 
 8109              	.LASF318:
 8110 2008 4359424C 		.ascii	"CYBLE_EVT_CTSC_READ_DESCR_RESPONSE\000"
 8110      455F4556 
 8110      545F4354 
 8110      53435F52 
 8110      4541445F 
 8111              	.LASF201:
 8112 202b 4359424C 		.ascii	"CYBLE_LONG_TERM_KEY_REQUEST_REPLY\000"
 8112      455F4C4F 
 8112      4E475F54 
 8112      45524D5F 
 8112      4B45595F 
 8113              	.LASF554:
 8114 204d 74696D65 		.ascii	"timeZone\000"
 8114      5A6F6E65 
 8114      00
 8115              	.LASF499:
 8116 2056 676C7543 		.ascii	"gluConc\000"
 8116      6F6E6300 
 8117              	.LASF423:
 8118 205e 4359424C 		.ascii	"CYBLE_EVT_PLXSS_INDICATION_DISABLED\000"
 8118      455F4556 
 8118      545F504C 
 8118      5853535F 
 8118      494E4449 
 8119              	.LASF314:
 8120 2082 4359424C 		.ascii	"CYBLE_EVT_CTSS_NOTIFICATION_DISABLED\000"
 8120      455F4556 
 8120      545F4354 
 8120      53535F4E 
 8120      4F544946 
 8121              	.LASF180:
 8122 20a7 4359424C 		.ascii	"CYBLE_CGMS_CHAR_COUNT\000"
 8122      455F4347 
 8122      4D535F43 
 8122      4841525F 
 8122      434F554E 
 8123              	.LASF352:
 8124 20bd 4359424C 		.ascii	"CYBLE_EVT_HIDSS_EXIT_SUSPEND\000"
 8124      455F4556 
 8124      545F4849 
 8124      4453535F 
 8124      45584954 
 8125              	.LASF375:
 8126 20da 4359424C 		.ascii	"CYBLE_EVT_HTSS_NOTIFICATION_ENABLED\000"
 8126      455F4556 
 8126      545F4854 
 8126      53535F4E 
 8126      4F544946 
 8127              	.LASF387:
 8128 20fe 4359424C 		.ascii	"CYBLE_EVT_IASS_WRITE_CHAR_CMD\000"
ARM GAS  C:\Users\cypress\AppData\Local\Temp\ccgxY6Ea.s 			page 195


 8128      455F4556 
 8128      545F4941 
 8128      53535F57 
 8128      52495445 
 8129              	.LASF378:
 8130 211c 4359424C 		.ascii	"CYBLE_EVT_HTSS_INDICATION_DISABLED\000"
 8130      455F4556 
 8130      545F4854 
 8130      53535F49 
 8130      4E444943 
 8131              	.LASF519:
 8132 213f 4359424C 		.ascii	"CYBLE_TIME_ZONE_M0330\000"
 8132      455F5449 
 8132      4D455F5A 
 8132      4F4E455F 
 8132      4D303333 
 8133              	.LASF74:
 8134 2155 4359424C 		.ascii	"CYBLE_EVT_L2CAP_CONN_PARAM_UPDATE_RSP\000"
 8134      455F4556 
 8134      545F4C32 
 8134      4341505F 
 8134      434F4E4E 
 8135              	.LASF368:
 8136 217b 4359424C 		.ascii	"CYBLE_EVT_HRSS_NOTIFICATION_ENABLED\000"
 8136      455F4556 
 8136      545F4852 
 8136      53535F4E 
 8136      4F544946 
 8137              	.LASF226:
 8138 219f 4359424C 		.ascii	"CYBLE_EVT_AIOSC_READ_CHAR_RESPONSE\000"
 8138      455F4556 
 8138      545F4149 
 8138      4F53435F 
 8138      52454144 
 8139              	.LASF394:
 8140 21c2 4359424C 		.ascii	"CYBLE_EVT_IPSC_ERROR_RESPONSE\000"
 8140      455F4556 
 8140      545F4950 
 8140      53435F45 
 8140      52524F52 
 8141              	.LASF287:
 8142 21e0 4359424C 		.ascii	"CYBLE_EVT_CPSS_NOTIFICATION_DISABLED\000"
 8142      455F4556 
 8142      545F4350 
 8142      53535F4E 
 8142      4F544946 
 8143              	.LASF214:
 8144 2205 4359424C 		.ascii	"CYBLE_EVT_GATTC_INCL_DISCOVERY_COMPLETE\000"
 8144      455F4556 
 8144      545F4741 
 8144      5454435F 
 8144      494E434C 
 8145              	.LASF413:
 8146 222d 4359424C 		.ascii	"CYBLE_EVT_PASSS_NOTIFICATION_DISABLED\000"
 8146      455F4556 
 8146      545F5041 
 8146      5353535F 
ARM GAS  C:\Users\cypress\AppData\Local\Temp\ccgxY6Ea.s 			page 196


 8146      4E4F5449 
 8147              	.LASF245:
 8148 2253 4359424C 		.ascii	"CYBLE_EVT_ANSC_READ_DESCR_RESPONSE\000"
 8148      455F4556 
 8148      545F414E 
 8148      53435F52 
 8148      4541445F 
 8149              	.LASF194:
 8150 2276 4359424C 		.ascii	"CYBLE_DIS_SOFTWARE_REV\000"
 8150      455F4449 
 8150      535F534F 
 8150      46545741 
 8150      52455F52 
 8151              	.LASF350:
 8152 228d 4359424C 		.ascii	"CYBLE_EVT_HIDSS_REPORT_MODE_ENTER\000"
 8152      455F4556 
 8152      545F4849 
 8152      4453535F 
 8152      5245504F 
 8153              	.LASF142:
 8154 22af 4359424C 		.ascii	"CYBLE_GATT_ERR_HEART_RATE_CONTROL_POINT_NOT_SUPPORT"
 8154      455F4741 
 8154      54545F45 
 8154      52525F48 
 8154      45415254 
 8155 22e2 454400   		.ascii	"ED\000"
 8156              	.LASF488:
 8157 22e5 4359424C 		.ascii	"CYBLE_EVT_WSSC_READ_DESCR_RESPONSE\000"
 8157      455F4556 
 8157      545F5753 
 8157      53435F52 
 8157      4541445F 
 8158              	.LASF504:
 8159 2308 66656174 		.ascii	"feature\000"
 8159      75726500 
 8160              	.LASF397:
 8161 2310 4359424C 		.ascii	"CYBLE_EVT_LLSC_READ_CHAR_RESPONSE\000"
 8161      455F4556 
 8161      545F4C4C 
 8161      53435F52 
 8161      4541445F 
 8162              	.LASF364:
 8163 2332 4359424C 		.ascii	"CYBLE_EVT_HPSC_READ_DESCR_RESPONSE\000"
 8163      455F4556 
 8163      545F4850 
 8163      53435F52 
 8163      4541445F 
 8164              	.LASF210:
 8165 2355 4359424C 		.ascii	"CYBLE_EVT_GATTC_SRVC_DUPLICATION\000"
 8165      455F4556 
 8165      545F4741 
 8165      5454435F 
 8165      53525643 
 8166              	.LASF237:
 8167 2376 4359424C 		.ascii	"CYBLE_EVT_ANCSC_WRITE_DESCR_RESPONSE\000"
 8167      455F4556 
 8167      545F414E 
ARM GAS  C:\Users\cypress\AppData\Local\Temp\ccgxY6Ea.s 			page 197


 8167      4353435F 
 8167      57524954 
 8168              	.LASF427:
 8169 239b 4359424C 		.ascii	"CYBLE_EVT_PLXSC_READ_CHAR_RESPONSE\000"
 8169      455F4556 
 8169      545F504C 
 8169      5853435F 
 8169      52454144 
 8170              	.LASF473:
 8171 23be 4359424C 		.ascii	"CYBLE_EVT_WPTSS_INDICATION_ENABLED\000"
 8171      455F4556 
 8171      545F5750 
 8171      5453535F 
 8171      494E4449 
 8172              	.LASF265:
 8173 23e1 4359424C 		.ascii	"CYBLE_EVT_BLSC_INDICATION\000"
 8173      455F4556 
 8173      545F424C 
 8173      53435F49 
 8173      4E444943 
 8174              	.LASF386:
 8175 23fb 4359424C 		.ascii	"CYBLE_EVT_HTSC_WRITE_DESCR_RESPONSE\000"
 8175      455F4556 
 8175      545F4854 
 8175      53435F57 
 8175      52495445 
 8176              	.LASF660:
 8177 241f 736F6370 		.ascii	"socpOpd\000"
 8177      4F706400 
 8178              	.LASF470:
 8179 2427 4359424C 		.ascii	"CYBLE_EVT_UDSC_ERROR_RESPONSE\000"
 8179      455F4556 
 8179      545F5544 
 8179      53435F45 
 8179      52524F52 
 8180              	.LASF529:
 8181 2445 4359424C 		.ascii	"CYBLE_TIME_ZONE_P0430\000"
 8181      455F5449 
 8181      4D455F5A 
 8181      4F4E455F 
 8181      50303433 
 8182              	.LASF313:
 8183 245b 4359424C 		.ascii	"CYBLE_EVT_CTSS_NOTIFICATION_ENABLED\000"
 8183      455F4556 
 8183      545F4354 
 8183      53535F4E 
 8183      4F544946 
 8184              	.LASF607:
 8185 247f 4359424C 		.ascii	"CYBLE_CGMS_SOCP_OPC_RLAL\000"
 8185      455F4347 
 8185      4D535F53 
 8185      4F43505F 
 8185      4F50435F 
 8186              	.LASF385:
 8187 2498 4359424C 		.ascii	"CYBLE_EVT_HTSC_READ_DESCR_RESPONSE\000"
 8187      455F4556 
 8187      545F4854 
ARM GAS  C:\Users\cypress\AppData\Local\Temp\ccgxY6Ea.s 			page 198


 8187      53435F52 
 8187      4541445F 
 8188              	.LASF33:
 8189 24bb 4359424C 		.ascii	"CYBLE_EVT_GAP_ENCRYPT_CHANGE\000"
 8189      455F4556 
 8189      545F4741 
 8189      505F454E 
 8189      43525950 
 8190              	.LASF518:
 8191 24d8 4359424C 		.ascii	"CYBLE_TIME_ZONE_M0400\000"
 8191      455F5449 
 8191      4D455F5A 
 8191      4F4E455F 
 8191      4D303430 
 8192              	.LASF31:
 8193 24ee 4359424C 		.ascii	"CYBLE_EVT_GAP_DEVICE_CONNECTED\000"
 8193      455F4556 
 8193      545F4741 
 8193      505F4445 
 8193      56494345 
 8194              	.LASF435:
 8195 250d 4359424C 		.ascii	"CYBLE_EVT_RSCSS_INDICATION_CONFIRMATION\000"
 8195      455F4556 
 8195      545F5253 
 8195      4353535F 
 8195      494E4449 
 8196              	.LASF295:
 8197 2535 4359424C 		.ascii	"CYBLE_EVT_CPSC_INDICATION\000"
 8197      455F4556 
 8197      545F4350 
 8197      53435F49 
 8197      4E444943 
 8198              	.LASF666:
 8199 254f 72656353 		.ascii	"recStatus\000"
 8199      74617475 
 8199      7300
 8200              	.LASF130:
 8201 2559 4359424C 		.ascii	"CYBLE_GATT_ERR_INVALID_OFFSET\000"
 8201      455F4741 
 8201      54545F45 
 8201      52525F49 
 8201      4E56414C 
 8202              	.LASF578:
 8203 2577 4359424C 		.ascii	"CYBLE_CGMS_RACP_RSP_NA\000"
 8203      455F4347 
 8203      4D535F52 
 8203      4143505F 
 8203      5253505F 
 8204              	.LASF562:
 8205 258e 4359424C 		.ascii	"CYBLE_CGMS_RACP_OPC_NUM_REC_RSP\000"
 8205      455F4347 
 8205      4D535F52 
 8205      4143505F 
 8205      4F50435F 
 8206              	.LASF323:
 8207 25ae 4359424C 		.ascii	"CYBLE_EVT_ESSS_NOTIFICATION_DISABLED\000"
 8207      455F4556 
ARM GAS  C:\Users\cypress\AppData\Local\Temp\ccgxY6Ea.s 			page 199


 8207      545F4553 
 8207      53535F4E 
 8207      4F544946 
 8208              	.LASF176:
 8209 25d3 4359424C 		.ascii	"CYBLE_CGMS_SSTM\000"
 8209      455F4347 
 8209      4D535F53 
 8209      53544D00 
 8210              	.LASF131:
 8211 25e3 4359424C 		.ascii	"CYBLE_GATT_ERR_INSUFFICIENT_AUTHORIZATION\000"
 8211      455F4741 
 8211      54545F45 
 8211      52525F49 
 8211      4E535546 
 8212              	.LASF576:
 8213 260d 4359424C 		.ascii	"CYBLE_CGMS_RACP_OPD_NUM_REC\000"
 8213      455F4347 
 8213      4D535F52 
 8213      4143505F 
 8213      4F50445F 
 8214              	.LASF16:
 8215 2629 73697A65 		.ascii	"sizetype\000"
 8215      74797065 
 8215      00
 8216              	.LASF356:
 8217 2632 4359424C 		.ascii	"CYBLE_EVT_HIDSC_WRITE_CHAR_RESPONSE\000"
 8217      455F4556 
 8217      545F4849 
 8217      4453435F 
 8217      57524954 
 8218              	.LASF84:
 8219 2656 4359424C 		.ascii	"CYBLE_EVT_PENDING_FLASH_WRITE\000"
 8219      455F4556 
 8219      545F5045 
 8219      4E44494E 
 8219      475F464C 
 8220              	.LASF561:
 8221 2674 4359424C 		.ascii	"CYBLE_CGMS_RACP_OPC_REPORT_NUM_REC\000"
 8221      455F4347 
 8221      4D535F52 
 8221      4143505F 
 8221      4F50435F 
 8222              	.LASF599:
 8223 2697 4359424C 		.ascii	"CYBLE_CGMS_SOCP_OPC_SGCV\000"
 8223      455F4347 
 8223      4D535F53 
 8223      4F43505F 
 8223      4F50435F 
 8224              	.LASF173:
 8225 26b0 4359424C 		.ascii	"CYBLE_CGMS_CGMT\000"
 8225      455F4347 
 8225      4D535F43 
 8225      474D5400 
 8226              	.LASF621:
 8227 26c0 4359424C 		.ascii	"CYBLE_CGMS_SOCP_OPC_STSN\000"
 8227      455F4347 
 8227      4D535F53 
ARM GAS  C:\Users\cypress\AppData\Local\Temp\ccgxY6Ea.s 			page 200


 8227      4F43505F 
 8227      4F50435F 
 8228              	.LASF17:
 8229 26d9 4359424C 		.ascii	"CYBLE_EVT_HOST_INVALID\000"
 8229      455F4556 
 8229      545F484F 
 8229      53545F49 
 8229      4E56414C 
 8230              	.LASF404:
 8231 26f0 4359424C 		.ascii	"CYBLE_EVT_LNSS_WRITE_CHAR\000"
 8231      455F4556 
 8231      545F4C4E 
 8231      53535F57 
 8231      52495445 
 8232              	.LASF634:
 8233 270a 67617474 		.ascii	"gattError\000"
 8233      4572726F 
 8233      7200
 8234              	.LASF3:
 8235 2714 73686F72 		.ascii	"short unsigned int\000"
 8235      7420756E 
 8235      7369676E 
 8235      65642069 
 8235      6E7400
 8236              	.LASF341:
 8237 2727 4359424C 		.ascii	"CYBLE_EVT_GLSC_INDICATION\000"
 8237      455F4556 
 8237      545F474C 
 8237      53435F49 
 8237      4E444943 
 8238              	.LASF0:
 8239 2741 7369676E 		.ascii	"signed char\000"
 8239      65642063 
 8239      68617200 
 8240              	.LASF291:
 8241 274d 4359424C 		.ascii	"CYBLE_EVT_CPSS_BROADCAST_ENABLED\000"
 8241      455F4556 
 8241      545F4350 
 8241      53535F42 
 8241      524F4144 
 8242              	.LASF540:
 8243 276e 4359424C 		.ascii	"CYBLE_TIME_ZONE_P1000\000"
 8243      455F5449 
 8243      4D455F5A 
 8243      4F4E455F 
 8243      50313030 
 8244              	.LASF191:
 8245 2784 4359424C 		.ascii	"CYBLE_DIS_SERIAL_NUMBER\000"
 8245      455F4449 
 8245      535F5345 
 8245      5249414C 
 8245      5F4E554D 
 8246              	.LASF658:
 8247 279c 736F6370 		.ascii	"socp\000"
 8247      00
 8248              	.LASF161:
 8249 27a1 4359424C 		.ascii	"CYBLE_GATT_ERR_OUT_OF_RANGE\000"
ARM GAS  C:\Users\cypress\AppData\Local\Temp\ccgxY6Ea.s 			page 201


 8249      455F4741 
 8249      54545F45 
 8249      52525F4F 
 8249      55545F4F 
 8250              	.LASF530:
 8251 27bd 4359424C 		.ascii	"CYBLE_TIME_ZONE_P0500\000"
 8251      455F5449 
 8251      4D455F5A 
 8251      4F4E455F 
 8251      50303530 
 8252              	.LASF255:
 8253 27d3 4359424C 		.ascii	"CYBLE_EVT_BCSS_INDICATION_CONFIRMED\000"
 8253      455F4556 
 8253      545F4243 
 8253      53535F49 
 8253      4E444943 
 8254              	.LASF65:
 8255 27f7 4359424C 		.ascii	"CYBLE_EVT_GATTC_EXEC_WRITE_RSP\000"
 8255      455F4556 
 8255      545F4741 
 8255      5454435F 
 8255      45584543 
 8256              	.LASF451:
 8257 2816 4359424C 		.ascii	"CYBLE_EVT_TPSS_NOTIFICATION_ENABLED\000"
 8257      455F4556 
 8257      545F5450 
 8257      53535F4E 
 8257      4F544946 
 8258              	.LASF559:
 8259 283a 4359424C 		.ascii	"CYBLE_CGMS_RACP_OPC_DELETE_REC\000"
 8259      455F4347 
 8259      4D535F52 
 8259      4143505F 
 8259      4F50435F 
 8260              	.LASF467:
 8261 2859 4359424C 		.ascii	"CYBLE_EVT_UDSC_WRITE_CHAR_RESPONSE\000"
 8261      455F4556 
 8261      545F5544 
 8261      53435F57 
 8261      52495445 
 8262              	.LASF156:
 8263 287c 4359424C 		.ascii	"CYBLE_GATT_ERR_ANCS_INVALID_COMMAND\000"
 8263      455F4741 
 8263      54545F45 
 8263      52525F41 
 8263      4E43535F 
 8264              	.LASF517:
 8265 28a0 4359424C 		.ascii	"CYBLE_TIME_ZONE_M0430\000"
 8265      455F5449 
 8265      4D455F5A 
 8265      4F4E455F 
 8265      4D303433 
 8266              	.LASF579:
 8267 28b6 4359424C 		.ascii	"CYBLE_CGMS_RACP_RSP_SUCCESS\000"
 8267      455F4347 
 8267      4D535F52 
 8267      4143505F 
ARM GAS  C:\Users\cypress\AppData\Local\Temp\ccgxY6Ea.s 			page 202


 8267      5253505F 
 8268              	.LASF296:
 8269 28d2 4359424C 		.ascii	"CYBLE_EVT_CPSC_READ_CHAR_RESPONSE\000"
 8269      455F4556 
 8269      545F4350 
 8269      53435F52 
 8269      4541445F 
 8270              	.LASF353:
 8271 28f4 4359424C 		.ascii	"CYBLE_EVT_HIDSS_REPORT_CHAR_WRITE\000"
 8271      455F4556 
 8271      545F4849 
 8271      4453535F 
 8271      5245504F 
 8272              	.LASF221:
 8273 2916 4359424C 		.ascii	"CYBLE_EVT_AIOSS_INDICATION_CONFIRMED\000"
 8273      455F4556 
 8273      545F4149 
 8273      4F53535F 
 8273      494E4449 
 8274              	.LASF172:
 8275 293b 4359424C 		.ascii	"CYBLE_BMS_DESCR_COUNT\000"
 8275      455F424D 
 8275      535F4445 
 8275      5343525F 
 8275      434F554E 
 8276              	.LASF192:
 8277 2951 4359424C 		.ascii	"CYBLE_DIS_HARDWARE_REV\000"
 8277      455F4449 
 8277      535F4841 
 8277      52445741 
 8277      52455F52 
 8278              	.LASF333:
 8279 2968 4359424C 		.ascii	"CYBLE_EVT_ESSC_READ_DESCR_RESPONSE\000"
 8279      455F4556 
 8279      545F4553 
 8279      53435F52 
 8279      4541445F 
 8280              	.LASF403:
 8281 298b 4359424C 		.ascii	"CYBLE_EVT_LNSS_NOTIFICATION_DISABLED\000"
 8281      455F4556 
 8281      545F4C4E 
 8281      53535F4E 
 8281      4F544946 
 8282              	.LASF555:
 8283 29b0 6473744F 		.ascii	"dstOffset\000"
 8283      66667365 
 8283      7400
 8284              	.LASF247:
 8285 29ba 4359424C 		.ascii	"CYBLE_EVT_BASS_NOTIFICATION_ENABLED\000"
 8285      455F4556 
 8285      545F4241 
 8285      53535F4E 
 8285      4F544946 
 8286              	.LASF558:
 8287 29de 4359424C 		.ascii	"CYBLE_CGMS_RACP_OPC_REPORT_REC\000"
 8287      455F4347 
 8287      4D535F52 
ARM GAS  C:\Users\cypress\AppData\Local\Temp\ccgxY6Ea.s 			page 203


 8287      4143505F 
 8287      4F50435F 
 8288              	.LASF583:
 8289 29fd 4359424C 		.ascii	"CYBLE_CGMS_RACP_RSP_INV_OPD\000"
 8289      455F4347 
 8289      4D535F52 
 8289      4143505F 
 8289      5253505F 
 8290              	.LASF246:
 8291 2a19 4359424C 		.ascii	"CYBLE_EVT_ANSC_WRITE_DESCR_RESPONSE\000"
 8291      455F4556 
 8291      545F414E 
 8291      53435F57 
 8291      52495445 
 8292              	.LASF166:
 8293 2a3d 61637475 		.ascii	"actualLen\000"
 8293      616C4C65 
 8293      6E00
 8294              	.LASF344:
 8295 2a47 4359424C 		.ascii	"CYBLE_EVT_GLSC_WRITE_CHAR_RESPONSE\000"
 8295      455F4556 
 8295      545F474C 
 8295      53435F57 
 8295      52495445 
 8296              	.LASF581:
 8297 2a6a 4359424C 		.ascii	"CYBLE_CGMS_RACP_RSP_INV_OPR\000"
 8297      455F4347 
 8297      4D535F52 
 8297      4143505F 
 8297      5253505F 
 8298              	.LASF38:
 8299 2a86 4359424C 		.ascii	"CYBLE_EVT_GAP_KEYPRESS_NOTIFICATION\000"
 8299      455F4556 
 8299      545F4741 
 8299      505F4B45 
 8299      59505245 
 8300              	.LASF541:
 8301 2aaa 4359424C 		.ascii	"CYBLE_TIME_ZONE_P1030\000"
 8301      455F5449 
 8301      4D455F5A 
 8301      4F4E455F 
 8301      50313033 
 8302              	.LASF531:
 8303 2ac0 4359424C 		.ascii	"CYBLE_TIME_ZONE_P0530\000"
 8303      455F5449 
 8303      4D455F5A 
 8303      4F4E455F 
 8303      50303533 
 8304              	.LASF406:
 8305 2ad6 4359424C 		.ascii	"CYBLE_EVT_LNSC_NOTIFICATION\000"
 8305      455F4556 
 8305      545F4C4E 
 8305      53435F4E 
 8305      4F544946 
 8306              	.LASF249:
 8307 2af2 4359424C 		.ascii	"CYBLE_EVT_BASC_NOTIFICATION\000"
 8307      455F4556 
ARM GAS  C:\Users\cypress\AppData\Local\Temp\ccgxY6Ea.s 			page 204


 8307      545F4241 
 8307      53435F4E 
 8307      4F544946 
 8308              	.LASF602:
 8309 2b0e 4359424C 		.ascii	"CYBLE_CGMS_SOCP_OPC_SHAL\000"
 8309      455F4347 
 8309      4D535F53 
 8309      4F43505F 
 8309      4F50435F 
 8310              	.LASF56:
 8311 2b27 4359424C 		.ascii	"CYBLE_EVT_GATTC_FIND_BY_TYPE_VALUE_RSP\000"
 8311      455F4556 
 8311      545F4741 
 8311      5454435F 
 8311      46494E44 
 8312              	.LASF181:
 8313 2b4e 4359424C 		.ascii	"CYBLE_CGMS_CHAR_INDEX_T\000"
 8313      455F4347 
 8313      4D535F43 
 8313      4841525F 
 8313      494E4445 
 8314              	.LASF510:
 8315 2b66 4359424C 		.ascii	"CYBLE_TIME_ZONE_M1000\000"
 8315      455F5449 
 8315      4D455F5A 
 8315      4F4E455F 
 8315      4D313030 
 8316              	.LASF591:
 8317 2b7c 4359424C 		.ascii	"CYBLE_CGMS_SOCP_RSP_UNSPRT_OPC\000"
 8317      455F4347 
 8317      4D535F53 
 8317      4F43505F 
 8317      5253505F 
 8318              	.LASF516:
 8319 2b9b 4359424C 		.ascii	"CYBLE_TIME_ZONE_M0500\000"
 8319      455F5449 
 8319      4D455F5A 
 8319      4F4E455F 
 8319      4D303530 
 8320              	.LASF120:
 8321 2bb1 4359424C 		.ascii	"CYBLE_ERROR_INVALID_STATE\000"
 8321      455F4552 
 8321      524F525F 
 8321      494E5641 
 8321      4C49445F 
 8322              	.LASF486:
 8323 2bcb 4359424C 		.ascii	"CYBLE_EVT_WSSC_INDICATION\000"
 8323      455F4556 
 8323      545F5753 
 8323      53435F49 
 8323      4E444943 
 8324              	.LASF259:
 8325 2be5 4359424C 		.ascii	"CYBLE_EVT_BCSC_WRITE_DESCR_RESPONSE\000"
 8325      455F4556 
 8325      545F4243 
 8325      53435F57 
 8325      52495445 
ARM GAS  C:\Users\cypress\AppData\Local\Temp\ccgxY6Ea.s 			page 205


 8326              	.LASF532:
 8327 2c09 4359424C 		.ascii	"CYBLE_TIME_ZONE_P0545\000"
 8327      455F5449 
 8327      4D455F5A 
 8327      4F4E455F 
 8327      50303534 
 8328              	.LASF370:
 8329 2c1f 4359424C 		.ascii	"CYBLE_EVT_HRSC_NOTIFICATION\000"
 8329      455F4556 
 8329      545F4852 
 8329      53435F4E 
 8329      4F544946 
 8330              	.LASF243:
 8331 2c3b 4359424C 		.ascii	"CYBLE_EVT_ANSC_READ_CHAR_RESPONSE\000"
 8331      455F4556 
 8331      545F414E 
 8331      53435F52 
 8331      4541445F 
 8332              	.LASF4:
 8333 2c5d 6C6F6E67 		.ascii	"long int\000"
 8333      20696E74 
 8333      00
 8334              	.LASF289:
 8335 2c66 4359424C 		.ascii	"CYBLE_EVT_CPSS_INDICATION_DISABLED\000"
 8335      455F4556 
 8335      545F4350 
 8335      53535F49 
 8335      4E444943 
 8336              	.LASF126:
 8337 2c89 4359424C 		.ascii	"CYBLE_GATT_ERR_WRITE_NOT_PERMITTED\000"
 8337      455F4741 
 8337      54545F45 
 8337      52525F57 
 8337      52495445 
 8338              	.LASF104:
 8339 2cac 4359424C 		.ascii	"CYBLE_ERROR_L2CAP_PSM_NOT_REGISTERED\000"
 8339      455F4552 
 8339      524F525F 
 8339      4C324341 
 8339      505F5053 
 8340              	.LASF590:
 8341 2cd1 4359424C 		.ascii	"CYBLE_CGMS_SOCP_RSP_SUCCESS\000"
 8341      455F4347 
 8341      4D535F53 
 8341      4F43505F 
 8341      5253505F 
 8342              	.LASF241:
 8343 2ced 4359424C 		.ascii	"CYBLE_EVT_ANSS_CHAR_WRITE\000"
 8343      455F4556 
 8343      545F414E 
 8343      53535F43 
 8343      4841525F 
 8344              	.LASF36:
 8345 2d07 4359424C 		.ascii	"CYBLE_EVT_GAP_KEYINFO_EXCHNGE_CMPLT\000"
 8345      455F4556 
 8345      545F4741 
 8345      505F4B45 
ARM GAS  C:\Users\cypress\AppData\Local\Temp\ccgxY6Ea.s 			page 206


 8345      59494E46 
 8346              	.LASF503:
 8347 2d2b 4359424C 		.ascii	"CYBLE_CGMS_CGMT_T\000"
 8347      455F4347 
 8347      4D535F43 
 8347      474D545F 
 8347      5400
 8348              	.LASF188:
 8349 2d3d 4359424C 		.ascii	"CYBLE_CGMS_CHAR_VALUE_T\000"
 8349      455F4347 
 8349      4D535F43 
 8349      4841525F 
 8349      56414C55 
 8350              	.LASF164:
 8351 2d55 61747449 		.ascii	"attId\000"
 8351      6400
 8352              	.LASF334:
 8353 2d5b 4359424C 		.ascii	"CYBLE_EVT_ESSC_WRITE_DESCR_RESPONSE\000"
 8353      455F4556 
 8353      545F4553 
 8353      53435F57 
 8353      52495445 
 8354              	.LASF175:
 8355 2d7f 4359424C 		.ascii	"CYBLE_CGMS_CGST\000"
 8355      455F4347 
 8355      4D535F43 
 8355      47535400 
 8356              	.LASF421:
 8357 2d8f 4359424C 		.ascii	"CYBLE_EVT_PLXSS_NOTIFICATION_DISABLED\000"
 8357      455F4556 
 8357      545F504C 
 8357      5853535F 
 8357      4E4F5449 
 8358              	.LASF588:
 8359 2db5 4359424C 		.ascii	"CYBLE_CGMS_ALRT_T\000"
 8359      455F4347 
 8359      4D535F41 
 8359      4C52545F 
 8359      5400
 8360              	.LASF206:
 8361 2dc7 4359424C 		.ascii	"CYBLE_EVT_GATTC_SRVC_DISCOVERY_FAILED\000"
 8361      455F4556 
 8361      545F4741 
 8361      5454435F 
 8361      53525643 
 8362              	.LASF542:
 8363 2ded 4359424C 		.ascii	"CYBLE_TIME_ZONE_P1100\000"
 8363      455F5449 
 8363      4D455F5A 
 8363      4F4E455F 
 8363      50313130 
 8364              	.LASF401:
 8365 2e03 4359424C 		.ascii	"CYBLE_EVT_LNSS_INDICATION_CONFIRMED\000"
 8365      455F4556 
 8365      545F4C4E 
 8365      53535F49 
 8365      4E444943 
ARM GAS  C:\Users\cypress\AppData\Local\Temp\ccgxY6Ea.s 			page 207


 8366              	.LASF574:
 8367 2e27 4359424C 		.ascii	"CYBLE_CGMS_RACP_OPD_NO_INCL\000"
 8367      455F4347 
 8367      4D535F52 
 8367      4143505F 
 8367      4F50445F 
 8368              	.LASF93:
 8369 2e43 4359424C 		.ascii	"CYBLE_ERROR_INSUFFICIENT_RESOURCES\000"
 8369      455F4552 
 8369      524F525F 
 8369      494E5355 
 8369      46464943 
 8370              	.LASF22:
 8371 2e66 4359424C 		.ascii	"CYBLE_EVT_STACK_BUSY_STATUS\000"
 8371      455F4556 
 8371      545F5354 
 8371      41434B5F 
 8371      42555359 
 8372              	.LASF319:
 8373 2e82 4359424C 		.ascii	"CYBLE_EVT_CTSC_WRITE_DESCR_RESPONSE\000"
 8373      455F4556 
 8373      545F4354 
 8373      53435F57 
 8373      52495445 
 8374              	.LASF53:
 8375 2ea6 4359424C 		.ascii	"CYBLE_EVT_GATTC_READ_BY_GROUP_TYPE_RSP\000"
 8375      455F4556 
 8375      545F4741 
 8375      5454435F 
 8375      52454144 
 8376              	.LASF114:
 8377 2ecd 4359424C 		.ascii	"CYBLE_ERROR_FLASH_WRITE\000"
 8377      455F4552 
 8377      524F525F 
 8377      464C4153 
 8377      485F5752 
 8378              	.LASF139:
 8379 2ee5 4359424C 		.ascii	"CYBLE_GATT_ERR_UNSUPPORTED_GROUP_TYPE\000"
 8379      455F4741 
 8379      54545F45 
 8379      52525F55 
 8379      4E535550 
 8380              	.LASF92:
 8381 2f0b 4359424C 		.ascii	"CYBLE_ERROR_MEMORY_ALLOCATION_FAILED\000"
 8381      455F4552 
 8381      524F525F 
 8381      4D454D4F 
 8381      52595F41 
 8382              	.LASF271:
 8383 2f30 4359424C 		.ascii	"CYBLE_EVT_BMSC_READ_CHAR_RESPONSE\000"
 8383      455F4556 
 8383      545F424D 
 8383      53435F52 
 8383      4541445F 
 8384              	.LASF32:
 8385 2f52 4359424C 		.ascii	"CYBLE_EVT_GAP_DEVICE_DISCONNECTED\000"
 8385      455F4556 
ARM GAS  C:\Users\cypress\AppData\Local\Temp\ccgxY6Ea.s 			page 208


 8385      545F4741 
 8385      505F4445 
 8385      56494345 
 8386              	.LASF419:
 8387 2f74 4359424C 		.ascii	"CYBLE_EVT_PLXSS_WRITE_CHAR\000"
 8387      455F4556 
 8387      545F504C 
 8387      5853535F 
 8387      57524954 
 8388              	.LASF15:
 8389 2f8f 6C6F6E67 		.ascii	"long double\000"
 8389      20646F75 
 8389      626C6500 
 8390              	.LASF389:
 8391 2f9b 4359424C 		.ascii	"CYBLE_EVT_IPSC_READ_CHAR_RESPONSE\000"
 8391      455F4556 
 8391      545F4950 
 8391      53435F52 
 8391      4541445F 
 8392              	.LASF592:
 8393 2fbd 4359424C 		.ascii	"CYBLE_CGMS_SOCP_RSP_INV_OPD\000"
 8393      455F4347 
 8393      4D535F53 
 8393      4F43505F 
 8393      5253505F 
 8394              	.LASF637:
 8395 2fd9 61636766 		.ascii	"acgft\000"
 8395      7400
 8396              	.LASF95:
 8397 2fdf 4359424C 		.ascii	"CYBLE_ERROR_NO_CONNECTION\000"
 8397      455F4552 
 8397      524F525F 
 8397      4E4F5F43 
 8397      4F4E4E45 
 8398              	.LASF61:
 8399 2ff9 4359424C 		.ascii	"CYBLE_EVT_GATTC_WRITE_RSP\000"
 8399      455F4556 
 8399      545F4741 
 8399      5454435F 
 8399      57524954 
 8400              	.LASF10:
 8401 3013 75696E74 		.ascii	"uint16\000"
 8401      313600
 8402              	.LASF101:
 8403 301a 4359424C 		.ascii	"CYBLE_ERROR_SEC_FAILED\000"
 8403      455F4552 
 8403      524F525F 
 8403      5345435F 
 8403      4641494C 
 8404              	.LASF189:
 8405 3031 4359424C 		.ascii	"CYBLE_DIS_MANUFACTURER_NAME\000"
 8405      455F4449 
 8405      535F4D41 
 8405      4E554641 
 8405      43545552 
 8406              	.LASF458:
 8407 304d 4359424C 		.ascii	"CYBLE_EVT_UDSS_INDICATION_DISABLED\000"
ARM GAS  C:\Users\cypress\AppData\Local\Temp\ccgxY6Ea.s 			page 209


 8407      455F4556 
 8407      545F5544 
 8407      53535F49 
 8407      4E444943 
 8408              	.LASF354:
 8409 3070 4359424C 		.ascii	"CYBLE_EVT_HIDSC_NOTIFICATION\000"
 8409      455F4556 
 8409      545F4849 
 8409      4453435F 
 8409      4E4F5449 
 8410              	.LASF491:
 8411 308d 73666C6F 		.ascii	"sfloat\000"
 8411      617400
 8412              	.LASF5:
 8413 3094 6C6F6E67 		.ascii	"long unsigned int\000"
 8413      20756E73 
 8413      69676E65 
 8413      6420696E 
 8413      7400
 8414              	.LASF414:
 8415 30a6 4359424C 		.ascii	"CYBLE_EVT_PASSS_WRITE_CHAR\000"
 8415      455F4556 
 8415      545F5041 
 8415      5353535F 
 8415      57524954 
 8416              	.LASF70:
 8417 30c1 4359424C 		.ascii	"CYBLE_EVT_GATTC_STOP_CMD_COMPLETE\000"
 8417      455F4556 
 8417      545F4741 
 8417      5454435F 
 8417      53544F50 
 8418              	.LASF487:
 8419 30e3 4359424C 		.ascii	"CYBLE_EVT_WSSC_READ_CHAR_RESPONSE\000"
 8419      455F4556 
 8419      545F5753 
 8419      53435F52 
 8419      4541445F 
 8420              	.LASF651:
 8421 3105 63676674 		.ascii	"cgft\000"
 8421      00
 8422              	.LASF622:
 8423 310a 4359424C 		.ascii	"CYBLE_CGMS_SOCP_OPC_SPSN\000"
 8423      455F4347 
 8423      4D535F53 
 8423      4F43505F 
 8423      4F50435F 
 8424              	.LASF584:
 8425 3123 4359424C 		.ascii	"CYBLE_CGMS_RACP_RSP_NO_REC\000"
 8425      455F4347 
 8425      4D535F52 
 8425      4143505F 
 8425      5253505F 
 8426              	.LASF362:
 8427 313e 4359424C 		.ascii	"CYBLE_EVT_HPSC_NOTIFICATION\000"
 8427      455F4556 
 8427      545F4850 
 8427      53435F4E 
ARM GAS  C:\Users\cypress\AppData\Local\Temp\ccgxY6Ea.s 			page 210


 8427      4F544946 
 8428              	.LASF515:
 8429 315a 4359424C 		.ascii	"CYBLE_TIME_ZONE_M0600\000"
 8429      455F5449 
 8429      4D455F5A 
 8429      4F4E455F 
 8429      4D303630 
 8430              	.LASF301:
 8431 3170 4359424C 		.ascii	"CYBLE_EVT_CSCSS_NOTIFICATION_ENABLED\000"
 8431      455F4556 
 8431      545F4353 
 8431      4353535F 
 8431      4E4F5449 
 8432              	.LASF14:
 8433 3195 63686172 		.ascii	"char\000"
 8433      00
 8434              	.LASF640:
 8435 319a 6576656E 		.ascii	"eventParam\000"
 8435      74506172 
 8435      616D00
 8436              	.LASF268:
 8437 31a5 4359424C 		.ascii	"CYBLE_EVT_BLSC_READ_DESCR_RESPONSE\000"
 8437      455F4556 
 8437      545F424C 
 8437      53435F52 
 8437      4541445F 
 8438              	.LASF256:
 8439 31c8 4359424C 		.ascii	"CYBLE_EVT_BCSC_INDICATION\000"
 8439      455F4556 
 8439      545F4243 
 8439      53435F49 
 8439      4E444943 
 8440              	.LASF77:
 8441 31e2 4359424C 		.ascii	"CYBLE_EVT_L2CAP_CBFC_CONN_CNF\000"
 8441      455F4556 
 8441      545F4C32 
 8441      4341505F 
 8441      43424643 
 8442              	.LASF476:
 8443 3200 4359424C 		.ascii	"CYBLE_EVT_WPTSS_WRITE_CHAR\000"
 8443      455F4556 
 8443      545F5750 
 8443      5453535F 
 8443      57524954 
 8444              	.LASF290:
 8445 321b 4359424C 		.ascii	"CYBLE_EVT_CPSS_INDICATION_CONFIRMED\000"
 8445      455F4556 
 8445      545F4350 
 8445      53535F49 
 8445      4E444943 
 8446              	.LASF91:
 8447 323f 4359424C 		.ascii	"CYBLE_ERROR_INVALID_OPERATION\000"
 8447      455F4552 
 8447      524F525F 
 8447      494E5641 
 8447      4C49445F 
 8448              	.LASF11:
ARM GAS  C:\Users\cypress\AppData\Local\Temp\ccgxY6Ea.s 			page 211


 8449 325d 75696E74 		.ascii	"uint32\000"
 8449      333200
 8450              	.LASF543:
 8451 3264 4359424C 		.ascii	"CYBLE_TIME_ZONE_P1130\000"
 8451      455F5449 
 8451      4D455F5A 
 8451      4F4E455F 
 8451      50313133 
 8452              	.LASF534:
 8453 327a 4359424C 		.ascii	"CYBLE_TIME_ZONE_P0630\000"
 8453      455F5449 
 8453      4D455F5A 
 8453      4F4E455F 
 8453      50303633 
 8454              	.LASF253:
 8455 3290 4359424C 		.ascii	"CYBLE_EVT_BCSS_INDICATION_ENABLED\000"
 8455      455F4556 
 8455      545F4243 
 8455      53535F49 
 8455      4E444943 
 8456              	.LASF163:
 8457 32b2 62644861 		.ascii	"bdHandle\000"
 8457      6E646C65 
 8457      00
 8458              	.LASF96:
 8459 32bb 4359424C 		.ascii	"CYBLE_ERROR_NO_DEVICE_ENTITY\000"
 8459      455F4552 
 8459      524F525F 
 8459      4E4F5F44 
 8459      45564943 
 8460              	.LASF79:
 8461 32d8 4359424C 		.ascii	"CYBLE_EVT_L2CAP_CBFC_DISCONN_CNF\000"
 8461      455F4556 
 8461      545F4C32 
 8461      4341505F 
 8461      43424643 
 8462              	.LASF336:
 8463 32f9 4359424C 		.ascii	"CYBLE_EVT_GLSS_INDICATION_DISABLED\000"
 8463      455F4556 
 8463      545F474C 
 8463      53535F49 
 8463      4E444943 
 8464              	.LASF124:
 8465 331c 4359424C 		.ascii	"CYBLE_GATT_ERR_INVALID_HANDLE\000"
 8465      455F4741 
 8465      54545F45 
 8465      52525F49 
 8465      4E56414C 
 8466              	.LASF275:
 8467 333a 4359424C 		.ascii	"CYBLE_EVT_CGMSS_INDICATION_DISABLED\000"
 8467      455F4556 
 8467      545F4347 
 8467      4D53535F 
 8467      494E4449 
 8468              	.LASF436:
 8469 335e 4359424C 		.ascii	"CYBLE_EVT_RSCSS_CHAR_WRITE\000"
 8469      455F4556 
ARM GAS  C:\Users\cypress\AppData\Local\Temp\ccgxY6Ea.s 			page 212


 8469      545F5253 
 8469      4353535F 
 8469      43484152 
 8470              	.LASF509:
 8471 3379 4359424C 		.ascii	"CYBLE_TIME_ZONE_M1100\000"
 8471      455F5449 
 8471      4D455F5A 
 8471      4F4E455F 
 8471      4D313130 
 8472              	.LASF415:
 8473 338f 4359424C 		.ascii	"CYBLE_EVT_PASSC_NOTIFICATION\000"
 8473      455F4556 
 8473      545F5041 
 8473      5353435F 
 8473      4E4F5449 
 8474              	.LASF453:
 8475 33ac 4359424C 		.ascii	"CYBLE_EVT_TPSC_NOTIFICATION\000"
 8475      455F4556 
 8475      545F5450 
 8475      53435F4E 
 8475      4F544946 
 8476              	.LASF468:
 8477 33c8 4359424C 		.ascii	"CYBLE_EVT_UDSC_READ_DESCR_RESPONSE\000"
 8477      455F4556 
 8477      545F5544 
 8477      53435F52 
 8477      4541445F 
 8478              	.LASF63:
 8479 33eb 4359424C 		.ascii	"CYBLE_EVT_GATTS_PREP_WRITE_REQ\000"
 8479      455F4556 
 8479      545F4741 
 8479      5454535F 
 8479      50524550 
 8480              	.LASF343:
 8481 340a 4359424C 		.ascii	"CYBLE_EVT_GLSC_READ_CHAR_RESPONSE\000"
 8481      455F4556 
 8481      545F474C 
 8481      53435F52 
 8481      4541445F 
 8482              	.LASF417:
 8483 342c 4359424C 		.ascii	"CYBLE_EVT_PASSC_READ_DESCR_RESPONSE\000"
 8483      455F4556 
 8483      545F5041 
 8483      5353435F 
 8483      52454144 
 8484              	.LASF440:
 8485 3450 4359424C 		.ascii	"CYBLE_EVT_RSCSC_WRITE_CHAR_RESPONSE\000"
 8485      455F4556 
 8485      545F5253 
 8485      4353435F 
 8485      57524954 
 8486              	.LASF261:
 8487 3474 4359424C 		.ascii	"CYBLE_EVT_BLSS_INDICATION_DISABLED\000"
 8487      455F4556 
 8487      545F424C 
 8487      53535F49 
 8487      4E444943 
ARM GAS  C:\Users\cypress\AppData\Local\Temp\ccgxY6Ea.s 			page 213


 8488              	.LASF170:
 8489 3497 4359424C 		.ascii	"CYBLE_BMS_CHAR_COUNT\000"
 8489      455F424D 
 8489      535F4348 
 8489      41525F43 
 8489      4F554E54 
 8490              	.LASF446:
 8491 34ac 4359424C 		.ascii	"CYBLE_EVT_SCPSS_NOTIFICATION_DISABLED\000"
 8491      455F4556 
 8491      545F5343 
 8491      5053535F 
 8491      4E4F5449 
 8492              	.LASF369:
 8493 34d2 4359424C 		.ascii	"CYBLE_EVT_HRSS_NOTIFICATION_DISABLED\000"
 8493      455F4556 
 8493      545F4852 
 8493      53535F4E 
 8493      4F544946 
 8494              	.LASF647:
 8495 34f7 6379426C 		.ascii	"cyBle_connHandle\000"
 8495      655F636F 
 8495      6E6E4861 
 8495      6E646C65 
 8495      00
 8496              	.LASF309:
 8497 3508 4359424C 		.ascii	"CYBLE_EVT_CSCSC_READ_CHAR_RESPONSE\000"
 8497      455F4556 
 8497      545F4353 
 8497      4353435F 
 8497      52454144 
 8498              	.LASF408:
 8499 352b 4359424C 		.ascii	"CYBLE_EVT_LNSC_WRITE_CHAR_RESPONSE\000"
 8499      455F4556 
 8499      545F4C4E 
 8499      53435F57 
 8499      52495445 
 8500              	.LASF154:
 8501 354e 4359424C 		.ascii	"CYBLE_GATT_ERR_ANS_COMMAND_NOT_SUPPORTED\000"
 8501      455F4741 
 8501      54545F45 
 8501      52525F41 
 8501      4E535F43 
 8502              	.LASF321:
 8503 3577 4359424C 		.ascii	"CYBLE_EVT_DISC_READ_CHAR_RESPONSE\000"
 8503      455F4556 
 8503      545F4449 
 8503      53435F52 
 8503      4541445F 
 8504              	.LASF631:
 8505 3599 43676D73 		.ascii	"CgmsCrcCheck\000"
 8505      43726343 
 8505      6865636B 
 8505      00
 8506              	.LASF445:
 8507 35a6 4359424C 		.ascii	"CYBLE_EVT_SCPSS_NOTIFICATION_ENABLED\000"
 8507      455F4556 
 8507      545F5343 
ARM GAS  C:\Users\cypress\AppData\Local\Temp\ccgxY6Ea.s 			page 214


 8507      5053535F 
 8507      4E4F5449 
 8508              	.LASF431:
 8509 35cb 4359424C 		.ascii	"CYBLE_EVT_RSCSS_NOTIFICATION_ENABLED\000"
 8509      455F4556 
 8509      545F5253 
 8509      4353535F 
 8509      4E4F5449 
 8510              	.LASF51:
 8511 35f0 4359424C 		.ascii	"CYBLE_EVT_GATTS_XCNHG_MTU_REQ\000"
 8511      455F4556 
 8511      545F4741 
 8511      5454535F 
 8511      58434E48 
 8512              	.LASF657:
 8513 360e 736F6370 		.ascii	"socpOpCode\000"
 8513      4F70436F 
 8513      646500
 8514              	.LASF116:
 8515 3619 4359424C 		.ascii	"CYBLE_ERROR_MAX\000"
 8515      455F4552 
 8515      524F525F 
 8515      4D415800 
 8516              	.LASF99:
 8517 3629 4359424C 		.ascii	"CYBLE_ERROR_TX_POWER_READ\000"
 8517      455F4552 
 8517      524F525F 
 8517      54585F50 
 8517      4F574552 
 8518              	.LASF483:
 8519 3643 4359424C 		.ascii	"CYBLE_EVT_WSSS_INDICATION_ENABLED\000"
 8519      455F4556 
 8519      545F5753 
 8519      53535F49 
 8519      4E444943 
 8520              	.LASF544:
 8521 3665 4359424C 		.ascii	"CYBLE_TIME_ZONE_P1200\000"
 8521      455F5449 
 8521      4D455F5A 
 8521      4F4E455F 
 8521      50313230 
 8522              	.LASF535:
 8523 367b 4359424C 		.ascii	"CYBLE_TIME_ZONE_P0700\000"
 8523      455F5449 
 8523      4D455F5A 
 8523      4F4E455F 
 8523      50303730 
 8524              	.LASF212:
 8525 3691 4359424C 		.ascii	"CYBLE_EVT_GATTC_DESCR_DUPLICATION\000"
 8525      455F4556 
 8525      545F4741 
 8525      5454435F 
 8525      44455343 
 8526              	.LASF345:
 8527 36b3 4359424C 		.ascii	"CYBLE_EVT_GLSC_READ_DESCR_RESPONSE\000"
 8527      455F4556 
 8527      545F474C 
ARM GAS  C:\Users\cypress\AppData\Local\Temp\ccgxY6Ea.s 			page 215


 8527      53435F52 
 8527      4541445F 
 8528              	.LASF495:
 8529 36d6 6D696E75 		.ascii	"minutes\000"
 8529      74657300 
 8530              	.LASF600:
 8531 36de 4359424C 		.ascii	"CYBLE_CGMS_SOCP_OPC_GGCV\000"
 8531      455F4347 
 8531      4D535F53 
 8531      4F43505F 
 8531      4F50435F 
 8532              	.LASF577:
 8533 36f7 4359424C 		.ascii	"CYBLE_CGMS_RACP_OPD_RSP\000"
 8533      455F4347 
 8533      4D535F52 
 8533      4143505F 
 8533      4F50445F 
 8534              	.LASF299:
 8535 370f 4359424C 		.ascii	"CYBLE_EVT_CPSC_WRITE_DESCR_RESPONSE\000"
 8535      455F4556 
 8535      545F4350 
 8535      53435F57 
 8535      52495445 
 8536              	.LASF155:
 8537 3733 4359424C 		.ascii	"CYBLE_GATT_ERR_ANCS_UNKNOWN_COMMAND\000"
 8537      455F4741 
 8537      54545F45 
 8537      52525F41 
 8537      4E43535F 
 8538              	.LASF328:
 8539 3757 4359424C 		.ascii	"CYBLE_EVT_ESSS_DESCR_WRITE\000"
 8539      455F4556 
 8539      545F4553 
 8539      53535F44 
 8539      45534352 
 8540              	.LASF274:
 8541 3772 4359424C 		.ascii	"CYBLE_EVT_CGMSS_INDICATION_ENABLED\000"
 8541      455F4556 
 8541      545F4347 
 8541      4D53535F 
 8541      494E4449 
 8542              	.LASF165:
 8543 3795 4359424C 		.ascii	"CYBLE_CONN_HANDLE_T\000"
 8543      455F434F 
 8543      4E4E5F48 
 8543      414E444C 
 8543      455F5400 
 8544              	.LASF388:
 8545 37a9 4359424C 		.ascii	"CYBLE_EVT_IPSS_WRITE_CHAR\000"
 8545      455F4556 
 8545      545F4950 
 8545      53535F57 
 8545      52495445 
 8546              	.LASF67:
 8547 37c3 4359424C 		.ascii	"CYBLE_EVT_GATTC_HANDLE_VALUE_IND\000"
 8547      455F4556 
 8547      545F4741 
ARM GAS  C:\Users\cypress\AppData\Local\Temp\ccgxY6Ea.s 			page 216


 8547      5454435F 
 8547      48414E44 
 8548              	.LASF594:
 8549 37e4 4359424C 		.ascii	"CYBLE_CGMS_SOCP_RSP_POOR\000"
 8549      455F4347 
 8549      4D535F53 
 8549      4F43505F 
 8549      5253505F 
 8550              	.LASF339:
 8551 37fd 4359424C 		.ascii	"CYBLE_EVT_GLSS_NOTIFICATION_DISABLED\000"
 8551      455F4556 
 8551      545F474C 
 8551      53535F4E 
 8551      4F544946 
 8552              	.LASF351:
 8553 3822 4359424C 		.ascii	"CYBLE_EVT_HIDSS_SUSPEND\000"
 8553      455F4556 
 8553      545F4849 
 8553      4453535F 
 8553      53555350 
 8554              	.LASF13:
 8555 383a 646F7562 		.ascii	"double\000"
 8555      6C6500
 8556              	.LASF383:
 8557 3841 4359424C 		.ascii	"CYBLE_EVT_HTSC_READ_CHAR_RESPONSE\000"
 8557      455F4556 
 8557      545F4854 
 8557      53435F52 
 8557      4541445F 
 8558              	.LASF128:
 8559 3863 4359424C 		.ascii	"CYBLE_GATT_ERR_INSUFFICIENT_AUTHENTICATION\000"
 8559      455F4741 
 8559      54545F45 
 8559      52525F49 
 8559      4E535546 
 8560              	.LASF238:
 8561 388e 4359424C 		.ascii	"CYBLE_EVT_ANCSC_ERROR_RESPONSE\000"
 8561      455F4556 
 8561      545F414E 
 8561      4353435F 
 8561      4552524F 
 8562              	.LASF580:
 8563 38ad 4359424C 		.ascii	"CYBLE_CGMS_RACP_RSP_UNSPRT_OPC\000"
 8563      455F4347 
 8563      4D535F52 
 8563      4143505F 
 8563      5253505F 
 8564              	.LASF587:
 8565 38cc 4359424C 		.ascii	"CYBLE_CGMS_RACP_RSP_UNSPRT_OPD\000"
 8565      455F4347 
 8565      4D535F52 
 8565      4143505F 
 8565      5253505F 
 8566              	.LASF315:
 8567 38eb 4359424C 		.ascii	"CYBLE_EVT_CTSS_CHAR_WRITE\000"
 8567      455F4556 
 8567      545F4354 
ARM GAS  C:\Users\cypress\AppData\Local\Temp\ccgxY6Ea.s 			page 217


 8567      53535F43 
 8567      4841525F 
 8568              	.LASF49:
 8569 3905 4359424C 		.ascii	"CYBLE_EVT_GATT_CONNECT_IND\000"
 8569      455F4556 
 8569      545F4741 
 8569      54545F43 
 8569      4F4E4E45 
 8570              	.LASF582:
 8571 3920 4359424C 		.ascii	"CYBLE_CGMS_RACP_RSP_UNSPRT_OPR\000"
 8571      455F4347 
 8571      4D535F52 
 8571      4143505F 
 8571      5253505F 
 8572              	.LASF533:
 8573 393f 4359424C 		.ascii	"CYBLE_TIME_ZONE_P0600\000"
 8573      455F5449 
 8573      4D455F5A 
 8573      4F4E455F 
 8573      50303630 
 8574              	.LASF643:
 8575 3955 63676D74 		.ascii	"cgmt\000"
 8575      00
 8576              	.LASF668:
 8577 395a 63676D73 		.ascii	"cgmss.c\000"
 8577      732E6300 
 8578              	.LASF44:
 8579 3962 4359424C 		.ascii	"CYBLE_EVT_GAP_CONN_ESTB\000"
 8579      455F4556 
 8579      545F4741 
 8579      505F434F 
 8579      4E4E5F45 
 8580              	.LASF479:
 8581 397a 4359424C 		.ascii	"CYBLE_EVT_WPTSC_WRITE_CHAR_RESPONSE\000"
 8581      455F4556 
 8581      545F5750 
 8581      5453435F 
 8581      57524954 
 8582              	.LASF331:
 8583 399e 4359424C 		.ascii	"CYBLE_EVT_ESSC_READ_CHAR_RESPONSE\000"
 8583      455F4556 
 8583      545F4553 
 8583      53435F52 
 8583      4541445F 
 8584              	.LASF47:
 8585 39c0 4359424C 		.ascii	"CYBLE_EVT_GAP_SMP_LOC_P256_KEYS_GEN_AND_SET_COMPLET"
 8585      455F4556 
 8585      545F4741 
 8585      505F534D 
 8585      505F4C4F 
 8586 39f3 4500     		.ascii	"E\000"
 8587              	.LASF462:
 8588 39f5 4359424C 		.ascii	"CYBLE_EVT_UDSS_READ_CHAR\000"
 8588      455F4556 
 8588      545F5544 
 8588      53535F52 
 8588      4541445F 
ARM GAS  C:\Users\cypress\AppData\Local\Temp\ccgxY6Ea.s 			page 218


 8589              	.LASF616:
 8590 3a0e 4359424C 		.ascii	"CYBLE_CGMS_SOCP_OPC_RDEC\000"
 8590      455F4347 
 8590      4D535F53 
 8590      4F43505F 
 8590      4F50435F 
 8591              	.LASF628:
 8592 3a27 64617461 		.ascii	"data\000"
 8592      00
 8593              	.LASF298:
 8594 3a2c 4359424C 		.ascii	"CYBLE_EVT_CPSC_READ_DESCR_RESPONSE\000"
 8594      455F4556 
 8594      545F4350 
 8594      53435F52 
 8594      4541445F 
 8595              	.LASF211:
 8596 3a4f 4359424C 		.ascii	"CYBLE_EVT_GATTC_CHAR_DUPLICATION\000"
 8596      455F4556 
 8596      545F4741 
 8596      5454435F 
 8596      43484152 
 8597              	.LASF508:
 8598 3a70 4359424C 		.ascii	"CYBLE_TIME_ZONE_M1200\000"
 8598      455F5449 
 8598      4D455F5A 
 8598      4F4E455F 
 8598      4D313230 
 8599              	.LASF514:
 8600 3a86 4359424C 		.ascii	"CYBLE_TIME_ZONE_M0700\000"
 8600      455F5449 
 8600      4D455F5A 
 8600      4F4E455F 
 8600      4D303730 
 8601              	.LASF433:
 8602 3a9c 4359424C 		.ascii	"CYBLE_EVT_RSCSS_INDICATION_ENABLED\000"
 8602      455F4556 
 8602      545F5253 
 8602      4353535F 
 8602      494E4449 
 8603              	.LASF279:
 8604 3abf 4359424C 		.ascii	"CYBLE_EVT_CGMSS_WRITE_CHAR\000"
 8604      455F4556 
 8604      545F4347 
 8604      4D53535F 
 8604      57524954 
 8605              	.LASF650:
 8606 3ada 61747472 		.ascii	"attr\000"
 8606      00
 8607              	.LASF545:
 8608 3adf 4359424C 		.ascii	"CYBLE_TIME_ZONE_P1245\000"
 8608      455F5449 
 8608      4D455F5A 
 8608      4F4E455F 
 8608      50313234 
 8609              	.LASF195:
 8610 3af5 4359424C 		.ascii	"CYBLE_DIS_SYSTEM_ID\000"
 8610      455F4449 
ARM GAS  C:\Users\cypress\AppData\Local\Temp\ccgxY6Ea.s 			page 219


 8610      535F5359 
 8610      5354454D 
 8610      5F494400 
 8611              	.LASF646:
 8612 3b09 43676D73 		.ascii	"CgmsProcess\000"
 8612      50726F63 
 8612      65737300 
 8613              	.LASF603:
 8614 3b15 4359424C 		.ascii	"CYBLE_CGMS_SOCP_OPC_GHAL\000"
 8614      455F4347 
 8614      4D535F53 
 8614      4F43505F 
 8614      4F50435F 
 8615              	.LASF497:
 8616 3b2e 4359424C 		.ascii	"CYBLE_DATE_TIME_T\000"
 8616      455F4441 
 8616      54455F54 
 8616      494D455F 
 8616      5400
 8617              	.LASF157:
 8618 3b40 4359424C 		.ascii	"CYBLE_GATT_ERR_ANCS_INVALID_PARAMETER\000"
 8618      455F4741 
 8618      54545F45 
 8618      52525F41 
 8618      4E43535F 
 8619              	.LASF434:
 8620 3b66 4359424C 		.ascii	"CYBLE_EVT_RSCSS_INDICATION_DISABLED\000"
 8620      455F4556 
 8620      545F5253 
 8620      4353535F 
 8620      494E4449 
 8621              	.LASF251:
 8622 3b8a 4359424C 		.ascii	"CYBLE_EVT_BASC_READ_DESCR_RESPONSE\000"
 8622      455F4556 
 8622      545F4241 
 8622      53435F52 
 8622      4541445F 
 8623              	.LASF219:
 8624 3bad 4359424C 		.ascii	"CYBLE_EVT_AIOSS_INDICATION_ENABLED\000"
 8624      455F4556 
 8624      545F4149 
 8624      4F53535F 
 8624      494E4449 
 8625              	.LASF147:
 8626 3bd0 4359424C 		.ascii	"CYBLE_GATT_ERR_OP_CODE_NOT_SUPPORTED\000"
 8626      455F4741 
 8626      54545F45 
 8626      52525F4F 
 8626      505F434F 
 8627              	.LASF277:
 8628 3bf5 4359424C 		.ascii	"CYBLE_EVT_CGMSS_NOTIFICATION_ENABLED\000"
 8628      455F4556 
 8628      545F4347 
 8628      4D53535F 
 8628      4E4F5449 
 8629              	.LASF292:
 8630 3c1a 4359424C 		.ascii	"CYBLE_EVT_CPSS_BROADCAST_DISABLED\000"
ARM GAS  C:\Users\cypress\AppData\Local\Temp\ccgxY6Ea.s 			page 220


 8630      455F4556 
 8630      545F4350 
 8630      53535F42 
 8630      524F4144 
 8631              	.LASF94:
 8632 3c3c 4359424C 		.ascii	"CYBLE_ERROR_OOB_NOT_AVAILABLE\000"
 8632      455F4552 
 8632      524F525F 
 8632      4F4F425F 
 8632      4E4F545F 
 8633              	.LASF444:
 8634 3c5a 4359424C 		.ascii	"CYBLE_EVT_RTUSC_READ_CHAR_RESPONSE\000"
 8634      455F4556 
 8634      545F5254 
 8634      5553435F 
 8634      52454144 
 8635              	.LASF400:
 8636 3c7d 4359424C 		.ascii	"CYBLE_EVT_LNSS_INDICATION_DISABLED\000"
 8636      455F4556 
 8636      545F4C4E 
 8636      53535F49 
 8636      4E444943 
 8637              	.LASF475:
 8638 3ca0 4359424C 		.ascii	"CYBLE_EVT_WPTSS_INDICATION_CONFIRMED\000"
 8638      455F4556 
 8638      545F5750 
 8638      5453535F 
 8638      494E4449 
 8639              	.LASF240:
 8640 3cc5 4359424C 		.ascii	"CYBLE_EVT_ANSS_NOTIFICATION_DISABLED\000"
 8640      455F4556 
 8640      545F414E 
 8640      53535F4E 
 8640      4F544946 
 8641              	.LASF29:
 8642 3cea 4359424C 		.ascii	"CYBLE_EVT_GAP_AUTH_FAILED\000"
 8642      455F4556 
 8642      545F4741 
 8642      505F4155 
 8642      54485F46 
 8643              	.LASF153:
 8644 3d04 4359424C 		.ascii	"CYBLE_GATTS_ERR_NETWORK_NOT_AVAILABLE\000"
 8644      455F4741 
 8644      5454535F 
 8644      4552525F 
 8644      4E455457 
 8645              	.LASF278:
 8646 3d2a 4359424C 		.ascii	"CYBLE_EVT_CGMSS_NOTIFICATION_DISABLED\000"
 8646      455F4556 
 8646      545F4347 
 8646      4D53535F 
 8646      4E4F5449 
 8647              	.LASF146:
 8648 3d50 4359424C 		.ascii	"CYBLE_GATTS_ERR_PROCEDURE_ALREADY_IN_PROGRESS\000"
 8648      455F4741 
 8648      5454535F 
 8648      4552525F 
ARM GAS  C:\Users\cypress\AppData\Local\Temp\ccgxY6Ea.s 			page 221


 8648      50524F43 
 8649              	.LASF338:
 8650 3d7e 4359424C 		.ascii	"CYBLE_EVT_GLSS_NOTIFICATION_ENABLED\000"
 8650      455F4556 
 8650      545F474C 
 8650      53535F4E 
 8650      4F544946 
 8651              	.LASF564:
 8652 3da2 4359424C 		.ascii	"CYBLE_CGMS_RACP_OPR_NULL\000"
 8652      455F4347 
 8652      4D535F52 
 8652      4143505F 
 8652      4F50525F 
 8653              	.LASF546:
 8654 3dbb 4359424C 		.ascii	"CYBLE_TIME_ZONE_P1300\000"
 8654      455F5449 
 8654      4D455F5A 
 8654      4F4E455F 
 8654      50313330 
 8655              	.LASF71:
 8656 3dd1 4359424C 		.ascii	"CYBLE_EVT_GATTS_READ_CHAR_VAL_ACCESS_REQ\000"
 8656      455F4556 
 8656      545F4741 
 8656      5454535F 
 8656      52454144 
 8657              	.LASF536:
 8658 3dfa 4359424C 		.ascii	"CYBLE_TIME_ZONE_P0800\000"
 8658      455F5449 
 8658      4D455F5A 
 8658      4F4E455F 
 8658      50303830 
 8659              	.LASF73:
 8660 3e10 4359424C 		.ascii	"CYBLE_EVT_L2CAP_CONN_PARAM_UPDATE_REQ\000"
 8660      455F4556 
 8660      545F4C32 
 8660      4341505F 
 8660      434F4E4E 
 8661              	.LASF422:
 8662 3e36 4359424C 		.ascii	"CYBLE_EVT_PLXSS_INDICATION_ENABLED\000"
 8662      455F4556 
 8662      545F504C 
 8662      5853535F 
 8662      494E4449 
 8663              	.LASF432:
 8664 3e59 4359424C 		.ascii	"CYBLE_EVT_RSCSS_NOTIFICATION_DISABLED\000"
 8664      455F4556 
 8664      545F5253 
 8664      4353535F 
 8664      4E4F5449 
 8665              	.LASF7:
 8666 3e7f 6C6F6E67 		.ascii	"long long unsigned int\000"
 8666      206C6F6E 
 8666      6720756E 
 8666      7369676E 
 8666      65642069 
 8667              	.LASF242:
 8668 3e96 4359424C 		.ascii	"CYBLE_EVT_ANSC_NOTIFICATION\000"
ARM GAS  C:\Users\cypress\AppData\Local\Temp\ccgxY6Ea.s 			page 222


 8668      455F4556 
 8668      545F414E 
 8668      53435F4E 
 8668      4F544946 
 8669              	.LASF254:
 8670 3eb2 4359424C 		.ascii	"CYBLE_EVT_BCSS_INDICATION_DISABLED\000"
 8670      455F4556 
 8670      545F4243 
 8670      53535F49 
 8670      4E444943 
 8671              	.LASF197:
 8672 3ed5 4359424C 		.ascii	"CYBLE_DIS_PNP_ID\000"
 8672      455F4449 
 8672      535F504E 
 8672      505F4944 
 8672      00
 8673              	.LASF608:
 8674 3ee6 4359424C 		.ascii	"CYBLE_CGMS_SOCP_OPC_SHPO\000"
 8674      455F4347 
 8674      4D535F53 
 8674      4F43505F 
 8674      4F50435F 
 8675              	.LASF372:
 8676 3eff 4359424C 		.ascii	"CYBLE_EVT_HRSC_WRITE_CHAR_RESPONSE\000"
 8676      455F4556 
 8676      545F4852 
 8676      53435F57 
 8676      52495445 
 8677              	.LASF611:
 8678 3f22 4359424C 		.ascii	"CYBLE_CGMS_SOCP_OPC_SHPR\000"
 8678      455F4347 
 8678      4D535F53 
 8678      4F43505F 
 8678      4F50435F 
 8679              	.LASF106:
 8680 3f3b 4359424C 		.ascii	"CYBLE_ERROR_L2CAP_CHANNEL_NOT_FOUND\000"
 8680      455F4552 
 8680      524F525F 
 8680      4C324341 
 8680      505F4348 
 8681              	.LASF190:
 8682 3f5f 4359424C 		.ascii	"CYBLE_DIS_MODEL_NUMBER\000"
 8682      455F4449 
 8682      535F4D4F 
 8682      44454C5F 
 8682      4E554D42 
 8683              	.LASF460:
 8684 3f76 4359424C 		.ascii	"CYBLE_EVT_UDSS_NOTIFICATION_ENABLED\000"
 8684      455F4556 
 8684      545F5544 
 8684      53535F4E 
 8684      4F544946 
 8685              	.LASF342:
 8686 3f9a 4359424C 		.ascii	"CYBLE_EVT_GLSC_NOTIFICATION\000"
 8686      455F4556 
 8686      545F474C 
 8686      53435F4E 
ARM GAS  C:\Users\cypress\AppData\Local\Temp\ccgxY6Ea.s 			page 223


 8686      4F544946 
 8687              	.LASF236:
 8688 3fb6 4359424C 		.ascii	"CYBLE_EVT_ANCSC_READ_DESCR_RESPONSE\000"
 8688      455F4556 
 8688      545F414E 
 8688      4353435F 
 8688      52454144 
 8689              	.LASF45:
 8690 3fda 4359424C 		.ascii	"CYBLE_EVT_GAP_SCAN_REQ_RECVD\000"
 8690      455F4556 
 8690      545F4741 
 8690      505F5343 
 8690      414E5F52 
 8691              	.LASF110:
 8692 3ff7 4359424C 		.ascii	"CYBLE_ERROR_FLASH_WRITE_NOT_PERMITED\000"
 8692      455F4552 
 8692      524F525F 
 8692      464C4153 
 8692      485F5752 
 8693              	.LASF223:
 8694 401c 4359424C 		.ascii	"CYBLE_EVT_AIOSS_DESCR_WRITE\000"
 8694      455F4556 
 8694      545F4149 
 8694      4F53535F 
 8694      44455343 
 8695              	.LASF34:
 8696 4038 4359424C 		.ascii	"CYBLE_EVT_GAP_CONNECTION_UPDATE_COMPLETE\000"
 8696      455F4556 
 8696      545F4741 
 8696      505F434F 
 8696      4E4E4543 
 8697              	.LASF228:
 8698 4061 4359424C 		.ascii	"CYBLE_EVT_AIOSC_READ_DESCR_RESPONSE\000"
 8698      455F4556 
 8698      545F4149 
 8698      4F53435F 
 8698      52454144 
 8699              	.LASF179:
 8700 4085 4359424C 		.ascii	"CYBLE_CGMS_SOCP\000"
 8700      455F4347 
 8700      4D535F53 
 8700      4F435000 
 8701              	.LASF563:
 8702 4095 4359424C 		.ascii	"CYBLE_CGMS_RACP_OPC_RSP_CODE\000"
 8702      455F4347 
 8702      4D535F52 
 8702      4143505F 
 8702      4F50435F 
 8703              	.LASF145:
 8704 40b2 4359424C 		.ascii	"CYBLE_GATT_ERR_HTS_OUT_OF_RANGE\000"
 8704      455F4741 
 8704      54545F45 
 8704      52525F48 
 8704      54535F4F 
 8705              	.LASF425:
 8706 40d2 4359424C 		.ascii	"CYBLE_EVT_PLXSC_NOTIFICATION\000"
 8706      455F4556 
ARM GAS  C:\Users\cypress\AppData\Local\Temp\ccgxY6Ea.s 			page 224


 8706      545F504C 
 8706      5853435F 
 8706      4E4F5449 
 8707              	.LASF307:
 8708 40ef 4359424C 		.ascii	"CYBLE_EVT_CSCSC_NOTIFICATION\000"
 8708      455F4556 
 8708      545F4353 
 8708      4353435F 
 8708      4E4F5449 
 8709              	.LASF442:
 8710 410c 4359424C 		.ascii	"CYBLE_EVT_RSCSC_WRITE_DESCR_RESPONSE\000"
 8710      455F4556 
 8710      545F5253 
 8710      4353435F 
 8710      57524954 
 8711              	.LASF294:
 8712 4131 4359424C 		.ascii	"CYBLE_EVT_CPSC_NOTIFICATION\000"
 8712      455F4556 
 8712      545F4350 
 8712      53435F4E 
 8712      4F544946 
 8713              	.LASF407:
 8714 414d 4359424C 		.ascii	"CYBLE_EVT_LNSC_READ_CHAR_RESPONSE\000"
 8714      455F4556 
 8714      545F4C4E 
 8714      53435F52 
 8714      4541445F 
 8715              	.LASF184:
 8716 416f 636F6E6E 		.ascii	"connHandle\000"
 8716      48616E64 
 8716      6C6500
 8717              	.LASF205:
 8718 417a 4359424C 		.ascii	"CYBLE_EVT_GATTC_INDICATION\000"
 8718      455F4556 
 8718      545F4741 
 8718      5454435F 
 8718      494E4449 
 8719              	.LASF280:
 8720 4195 4359424C 		.ascii	"CYBLE_EVT_CGMSC_INDICATION\000"
 8720      455F4556 
 8720      545F4347 
 8720      4D53435F 
 8720      494E4449 
 8721              	.LASF482:
 8722 41b0 4359424C 		.ascii	"CYBLE_EVT_WPTSC_WRITE_DESCR_RESPONSE\000"
 8722      455F4556 
 8722      545F5750 
 8722      5453435F 
 8722      57524954 
 8723              	.LASF438:
 8724 41d5 4359424C 		.ascii	"CYBLE_EVT_RSCSC_INDICATION\000"
 8724      455F4556 
 8724      545F5253 
 8724      4353435F 
 8724      494E4449 
 8725              	.LASF207:
 8726 41f0 4359424C 		.ascii	"CYBLE_EVT_GATTC_INCL_DISCOVERY_FAILED\000"
ARM GAS  C:\Users\cypress\AppData\Local\Temp\ccgxY6Ea.s 			page 225


 8726      455F4556 
 8726      545F4741 
 8726      5454435F 
 8726      494E434C 
 8727              	.LASF293:
 8728 4216 4359424C 		.ascii	"CYBLE_EVT_CPSS_CHAR_WRITE\000"
 8728      455F4556 
 8728      545F4350 
 8728      53535F43 
 8728      4841525F 
 8729              	.LASF87:
 8730 4230 4359424C 		.ascii	"CYBLE_EVT_FLASH_CORRUPT\000"
 8730      455F4556 
 8730      545F464C 
 8730      4153485F 
 8730      434F5252 
 8731              	.LASF327:
 8732 4248 4359424C 		.ascii	"CYBLE_EVT_ESSS_CHAR_WRITE\000"
 8732      455F4556 
 8732      545F4553 
 8732      53535F43 
 8732      4841525F 
 8733              	.LASF474:
 8734 4262 4359424C 		.ascii	"CYBLE_EVT_WPTSS_INDICATION_DISABLED\000"
 8734      455F4556 
 8734      545F5750 
 8734      5453535F 
 8734      494E4449 
 8735              	.LASF340:
 8736 4286 4359424C 		.ascii	"CYBLE_EVT_GLSS_WRITE_CHAR\000"
 8736      455F4556 
 8736      545F474C 
 8736      53535F57 
 8736      52495445 
 8737              	.LASF477:
 8738 42a0 4359424C 		.ascii	"CYBLE_EVT_WPTSC_NOTIFICATION\000"
 8738      455F4556 
 8738      545F5750 
 8738      5453435F 
 8738      4E4F5449 
 8739              	.LASF513:
 8740 42bd 4359424C 		.ascii	"CYBLE_TIME_ZONE_M0800\000"
 8740      455F5449 
 8740      4D455F5A 
 8740      4F4E455F 
 8740      4D303830 
 8741              	.LASF193:
 8742 42d3 4359424C 		.ascii	"CYBLE_DIS_FIRMWARE_REV\000"
 8742      455F4449 
 8742      535F4649 
 8742      524D5741 
 8742      52455F52 
 8743              	.LASF37:
 8744 42ea 4359424C 		.ascii	"CYBLE_EVT_GAP_NUMERIC_COMPARISON_REQUEST\000"
 8744      455F4556 
 8744      545F4741 
 8744      505F4E55 
ARM GAS  C:\Users\cypress\AppData\Local\Temp\ccgxY6Ea.s 			page 226


 8744      4D455249 
 8745              	.LASF363:
 8746 4313 4359424C 		.ascii	"CYBLE_EVT_HPSC_READ_CHAR_RESPONSE\000"
 8746      455F4556 
 8746      545F4850 
 8746      53435F52 
 8746      4541445F 
 8747              	.LASF46:
 8748 4335 4359424C 		.ascii	"CYBLE_EVT_GAP_AUTH_REQ_REPLY_ERR\000"
 8748      455F4556 
 8748      545F4741 
 8748      505F4155 
 8748      54485F52 
 8749              	.LASF537:
 8750 4356 4359424C 		.ascii	"CYBLE_TIME_ZONE_P0845\000"
 8750      455F5449 
 8750      4D455F5A 
 8750      4F4E455F 
 8750      50303834 
 8751              	.LASF250:
 8752 436c 4359424C 		.ascii	"CYBLE_EVT_BASC_READ_CHAR_RESPONSE\000"
 8752      455F4556 
 8752      545F4241 
 8752      53435F52 
 8752      4541445F 
 8753              	.LASF136:
 8754 438e 4359424C 		.ascii	"CYBLE_GATT_ERR_INVALID_ATTRIBUTE_LEN\000"
 8754      455F4741 
 8754      54545F45 
 8754      52525F49 
 8754      4E56414C 
 8755              	.LASF6:
 8756 43b3 6C6F6E67 		.ascii	"long long int\000"
 8756      206C6F6E 
 8756      6720696E 
 8756      7400
 8757              	.LASF596:
 8758 43c1 4359424C 		.ascii	"CYBLE_CGMS_SOCP_OPC_SINT\000"
 8758      455F4347 
 8758      4D535F53 
 8758      4F43505F 
 8758      4F50435F 
 8759              	.LASF288:
 8760 43da 4359424C 		.ascii	"CYBLE_EVT_CPSS_INDICATION_ENABLED\000"
 8760      455F4556 
 8760      545F4350 
 8760      53535F49 
 8760      4E444943 
 8761              	.LASF203:
 8762 43fc 4359424C 		.ascii	"CYBLE_EVT_GATTS_INDICATION_ENABLED\000"
 8762      455F4556 
 8762      545F4741 
 8762      5454535F 
 8762      494E4449 
 8763              	.LASF35:
 8764 441f 4359424C 		.ascii	"CYBLE_EVT_GAPC_SCAN_START_STOP\000"
 8764      455F4556 
ARM GAS  C:\Users\cypress\AppData\Local\Temp\ccgxY6Ea.s 			page 227


 8764      545F4741 
 8764      50435F53 
 8764      43414E5F 
 8765              	.LASF68:
 8766 443e 4359424C 		.ascii	"CYBLE_EVT_GATTS_HANDLE_VALUE_CNF\000"
 8766      455F4556 
 8766      545F4741 
 8766      5454535F 
 8766      48414E44 
 8767              	.LASF204:
 8768 445f 4359424C 		.ascii	"CYBLE_EVT_GATTS_INDICATION_DISABLED\000"
 8768      455F4556 
 8768      545F4741 
 8768      5454535F 
 8768      494E4449 
 8769              	.LASF102:
 8770 4483 4359424C 		.ascii	"CYBLE_ERROR_L2CAP_PSM_WRONG_ENCODING\000"
 8770      455F4552 
 8770      524F525F 
 8770      4C324341 
 8770      505F5053 
 8771              	.LASF143:
 8772 44a8 4359424C 		.ascii	"CYBLE_GATT_ERR_USER_DATA_ACCESS_NOT_PERMITTED\000"
 8772      455F4741 
 8772      54545F45 
 8772      52525F55 
 8772      5345525F 
 8773              	.LASF626:
 8774 44d6 64617461 		.ascii	"dataPtr\000"
 8774      50747200 
 8775              	.LASF348:
 8776 44de 4359424C 		.ascii	"CYBLE_EVT_HIDSS_NOTIFICATION_DISABLED\000"
 8776      455F4556 
 8776      545F4849 
 8776      4453535F 
 8776      4E4F5449 
 8777              	.LASF148:
 8778 4504 4359424C 		.ascii	"CYBLE_GATT_ERR_MISSING_CRC\000"
 8778      455F4741 
 8778      54545F45 
 8778      52525F4D 
 8778      49535349 
 8779              	.LASF60:
 8780 451f 4359424C 		.ascii	"CYBLE_EVT_GATTS_WRITE_REQ\000"
 8780      455F4556 
 8780      545F4741 
 8780      5454535F 
 8780      57524954 
 8781              	.LASF72:
 8782 4539 4359424C 		.ascii	"CYBLE_EVT_GATTC_LONG_PROCEDURE_END\000"
 8782      455F4556 
 8782      545F4741 
 8782      5454435F 
 8782      4C4F4E47 
 8783              	.LASF500:
 8784 455c 74696D65 		.ascii	"timeOffset\000"
 8784      4F666673 
ARM GAS  C:\Users\cypress\AppData\Local\Temp\ccgxY6Ea.s 			page 228


 8784      657400
 8785              	.LASF547:
 8786 4567 4359424C 		.ascii	"CYBLE_TIME_ZONE_P1400\000"
 8786      455F5449 
 8786      4D455F5A 
 8786      4F4E455F 
 8786      50313430 
 8787              	.LASF267:
 8788 457d 4359424C 		.ascii	"CYBLE_EVT_BLSC_READ_CHAR_RESPONSE\000"
 8788      455F4556 
 8788      545F424C 
 8788      53435F52 
 8788      4541445F 
 8789              	.LASF538:
 8790 459f 4359424C 		.ascii	"CYBLE_TIME_ZONE_P0900\000"
 8790      455F5449 
 8790      4D455F5A 
 8790      4F4E455F 
 8790      50303930 
 8791              	.LASF54:
 8792 45b5 4359424C 		.ascii	"CYBLE_EVT_GATTC_READ_BY_TYPE_RSP\000"
 8792      455F4556 
 8792      545F4741 
 8792      5454435F 
 8792      52454144 
 8793              	.LASF112:
 8794 45d6 4359424C 		.ascii	"CYBLE_ERROR_HARDWARE_FAILURE\000"
 8794      455F4552 
 8794      524F525F 
 8794      48415244 
 8794      57415245 
 8795              	.LASF81:
 8796 45f3 4359424C 		.ascii	"CYBLE_EVT_L2CAP_CBFC_RX_CREDIT_IND\000"
 8796      455F4556 
 8796      545F4C32 
 8796      4341505F 
 8796      43424643 
 8797              	.LASF262:
 8798 4616 4359424C 		.ascii	"CYBLE_EVT_BLSS_INDICATION_CONFIRMED\000"
 8798      455F4556 
 8798      545F424C 
 8798      53535F49 
 8798      4E444943 
 8799              	.LASF349:
 8800 463a 4359424C 		.ascii	"CYBLE_EVT_HIDSS_BOOT_MODE_ENTER\000"
 8800      455F4556 
 8800      545F4849 
 8800      4453535F 
 8800      424F4F54 
 8801              	.LASF481:
 8802 465a 4359424C 		.ascii	"CYBLE_EVT_WPTSC_READ_DESCR_RESPONSE\000"
 8802      455F4556 
 8802      545F5750 
 8802      5453435F 
 8802      52454144 
 8803              	.LASF429:
 8804 467e 4359424C 		.ascii	"CYBLE_EVT_PLXSC_READ_DESCR_RESPONSE\000"
ARM GAS  C:\Users\cypress\AppData\Local\Temp\ccgxY6Ea.s 			page 229


 8804      455F4556 
 8804      545F504C 
 8804      5853435F 
 8804      52454144 
 8805              	.LASF355:
 8806 46a2 4359424C 		.ascii	"CYBLE_EVT_HIDSC_READ_CHAR_RESPONSE\000"
 8806      455F4556 
 8806      545F4849 
 8806      4453435F 
 8806      52454144 
 8807              	.LASF39:
 8808 46c5 4359424C 		.ascii	"CYBLE_EVT_GAP_OOB_GENERATED_NOTIFICATION\000"
 8808      455F4556 
 8808      545F4741 
 8808      505F4F4F 
 8808      425F4745 
 8809              	.LASF361:
 8810 46ee 4359424C 		.ascii	"CYBLE_EVT_HPSS_CHAR_WRITE\000"
 8810      455F4556 
 8810      545F4850 
 8810      53535F43 
 8810      4841525F 
 8811              	.LASF398:
 8812 4708 4359424C 		.ascii	"CYBLE_EVT_LLSC_WRITE_CHAR_RESPONSE\000"
 8812      455F4556 
 8812      545F4C4C 
 8812      53435F57 
 8812      52495445 
 8813              	.LASF654:
 8814 472b 72616370 		.ascii	"racpOpCode\000"
 8814      4F70436F 
 8814      646500
 8815              	.LASF200:
 8816 4736 4359424C 		.ascii	"CYBLE_PASSKEY_ENTRY_REQUEST_REPLY\000"
 8816      455F5041 
 8816      53534B45 
 8816      595F454E 
 8816      5452595F 
 8817              	.LASF82:
 8818 4758 4359424C 		.ascii	"CYBLE_EVT_L2CAP_CBFC_TX_CREDIT_IND\000"
 8818      455F4556 
 8818      545F4C32 
 8818      4341505F 
 8818      43424643 
 8819              	.LASF224:
 8820 477b 4359424C 		.ascii	"CYBLE_EVT_AIOSC_NOTIFICATION\000"
 8820      455F4556 
 8820      545F4149 
 8820      4F53435F 
 8820      4E4F5449 
 8821              	.LASF656:
 8822 4798 72616370 		.ascii	"racpOperand\000"
 8822      4F706572 
 8822      616E6400 
 8823              	.LASF454:
 8824 47a4 4359424C 		.ascii	"CYBLE_EVT_TPSC_READ_CHAR_RESPONSE\000"
 8824      455F4556 
ARM GAS  C:\Users\cypress\AppData\Local\Temp\ccgxY6Ea.s 			page 230


 8824      545F5450 
 8824      53435F52 
 8824      4541445F 
 8825              	.LASF615:
 8826 47c6 4359424C 		.ascii	"CYBLE_CGMS_SOCP_OPC_GDEC\000"
 8826      455F4347 
 8826      4D535F53 
 8826      4F43505F 
 8826      4F50435F 
 8827              	.LASF8:
 8828 47df 756E7369 		.ascii	"unsigned int\000"
 8828      676E6564 
 8828      20696E74 
 8828      00
 8829              	.LASF41:
 8830 47ec 4359424C 		.ascii	"CYBLE_EVT_GAP_ENHANCE_CONN_COMPLETE\000"
 8830      455F4556 
 8830      545F4741 
 8830      505F454E 
 8830      48414E43 
 8831              	.LASF466:
 8832 4810 4359424C 		.ascii	"CYBLE_EVT_UDSC_READ_CHAR_RESPONSE\000"
 8832      455F4556 
 8832      545F5544 
 8832      53435F52 
 8832      4541445F 
 8833              	.LASF638:
 8834 4832 43676D73 		.ascii	"CgmsCallBack\000"
 8834      43616C6C 
 8834      4261636B 
 8834      00
 8835              	.LASF138:
 8836 483f 4359424C 		.ascii	"CYBLE_GATT_ERR_INSUFFICIENT_ENCRYPTION\000"
 8836      455F4741 
 8836      54545F45 
 8836      52525F49 
 8836      4E535546 
 8837              	.LASF635:
 8838 4866 43676D73 		.ascii	"CgmsPrintCharName\000"
 8838      5072696E 
 8838      74436861 
 8838      724E616D 
 8838      6500
 8839              	.LASF653:
 8840 4878 72656343 		.ascii	"recCnt\000"
 8840      6E7400
 8841              	.LASF2:
 8842 487f 73686F72 		.ascii	"short int\000"
 8842      7420696E 
 8842      7400
 8843              	.LASF539:
 8844 4889 4359424C 		.ascii	"CYBLE_TIME_ZONE_P0930\000"
 8844      455F5449 
 8844      4D455F5A 
 8844      4F4E455F 
 8844      50303933 
 8845              	.LASF182:
ARM GAS  C:\Users\cypress\AppData\Local\Temp\ccgxY6Ea.s 			page 231


 8846 489f 4359424C 		.ascii	"CYBLE_CGMS_CCCD\000"
 8846      455F4347 
 8846      4D535F43 
 8846      43434400 
 8847              	.LASF605:
 8848 48af 4359424C 		.ascii	"CYBLE_CGMS_SOCP_OPC_SLAL\000"
 8848      455F4347 
 8848      4D535F53 
 8848      4F43505F 
 8848      4F50435F 
 8849              	.LASF308:
 8850 48c8 4359424C 		.ascii	"CYBLE_EVT_CSCSC_INDICATION\000"
 8850      455F4556 
 8850      545F4353 
 8850      4353435F 
 8850      494E4449 
 8851              	.LASF125:
 8852 48e3 4359424C 		.ascii	"CYBLE_GATT_ERR_READ_NOT_PERMITTED\000"
 8852      455F4741 
 8852      54545F45 
 8852      52525F52 
 8852      4541445F 
 8853              	.LASF27:
 8854 4905 4359424C 		.ascii	"CYBLE_EVT_GAP_PASSKEY_DISPLAY_REQUEST\000"
 8854      455F4556 
 8854      545F4741 
 8854      505F5041 
 8854      53534B45 
 8855              	.LASF465:
 8856 492b 4359424C 		.ascii	"CYBLE_EVT_UDSC_NOTIFICATION\000"
 8856      455F4556 
 8856      545F5544 
 8856      53435F4E 
 8856      4F544946 
 8857              	.LASF655:
 8858 4947 72616370 		.ascii	"racpOperator\000"
 8858      4F706572 
 8858      61746F72 
 8858      00
 8859              	.LASF332:
 8860 4954 4359424C 		.ascii	"CYBLE_EVT_ESSC_WRITE_CHAR_RESPONSE\000"
 8860      455F4556 
 8860      545F4553 
 8860      53435F57 
 8860      52495445 
 8861              	.LASF162:
 8862 4977 4359424C 		.ascii	"CYBLE_GATT_ERR_CODE_T\000"
 8862      455F4741 
 8862      54545F45 
 8862      52525F43 
 8862      4F44455F 
 8863              	.LASF512:
 8864 498d 4359424C 		.ascii	"CYBLE_TIME_ZONE_M0900\000"
 8864      455F5449 
 8864      4D455F5A 
 8864      4F4E455F 
 8864      4D303930 
ARM GAS  C:\Users\cypress\AppData\Local\Temp\ccgxY6Ea.s 			page 232


 8865              	.LASF376:
 8866 49a3 4359424C 		.ascii	"CYBLE_EVT_HTSS_NOTIFICATION_DISABLED\000"
 8866      455F4556 
 8866      545F4854 
 8866      53535F4E 
 8866      4F544946 
 8867              	.LASF373:
 8868 49c8 4359424C 		.ascii	"CYBLE_EVT_HRSC_READ_DESCR_RESPONSE\000"
 8868      455F4556 
 8868      545F4852 
 8868      53435F52 
 8868      4541445F 
 8869              	.LASF317:
 8870 49eb 4359424C 		.ascii	"CYBLE_EVT_CTSC_READ_CHAR_RESPONSE\000"
 8870      455F4556 
 8870      545F4354 
 8870      53435F52 
 8870      4541445F 
 8871              	.LASF329:
 8872 4a0d 4359424C 		.ascii	"CYBLE_EVT_ESSC_NOTIFICATION\000"
 8872      455F4556 
 8872      545F4553 
 8872      53435F4E 
 8872      4F544946 
 8873              	.LASF498:
 8874 4a29 666C6167 		.ascii	"flags\000"
 8874      7300
 8875              	.LASF269:
 8876 4a2f 4359424C 		.ascii	"CYBLE_EVT_BLSC_WRITE_DESCR_RESPONSE\000"
 8876      455F4556 
 8876      545F424C 
 8876      53435F57 
 8876      52495445 
 8877              	.LASF629:
 8878 4a53 43676D73 		.ascii	"CgmsCrc\000"
 8878      43726300 
 8879              	.LASF113:
 8880 4a5b 4359424C 		.ascii	"CYBLE_ERROR_UNSUPPORTED_FEATURE_OR_PARAMETER_VALUE\000"
 8880      455F4552 
 8880      524F525F 
 8880      554E5355 
 8880      50504F52 
 8881              		.ident	"GCC: (GNU Tools for ARM Embedded Processors) 5.4.1 20160609 (release) [ARM/embedded-5-bran
