ARM GAS  C:\Users\cypress\AppData\Local\Temp\ccgxY6Ea.s 			page 1


   1              		.syntax unified
   2              		.cpu cortex-m0
   3              		.fpu softvfp
   4              		.eabi_attribute 20, 1
   5              		.eabi_attribute 21, 1
   6              		.eabi_attribute 23, 3
   7              		.eabi_attribute 24, 1
   8              		.eabi_attribute 25, 1
   9              		.eabi_attribute 26, 1
  10              		.eabi_attribute 30, 6
  11              		.eabi_attribute 34, 0
  12              		.eabi_attribute 18, 4
  13              		.thumb
  14              		.syntax unified
  15              		.file	"cgmss.c"
  16              		.text
  17              	.Ltext0:
  18              		.cfi_sections	.debug_frame
  19              		.global	cgmsFlag
  20              		.bss
  21              		.type	cgmsFlag, %object
  22              		.size	cgmsFlag, 1
  23              	cgmsFlag:
  24 0000 00       		.space	1
  25              		.global	recCnt
  26              		.data
  27              		.type	recCnt, %object
  28              		.size	recCnt, 1
  29              	recCnt:
  30 0000 01       		.byte	1
  31              		.global	racpOpCode
  32              		.bss
  33              		.type	racpOpCode, %object
  34              		.size	racpOpCode, 1
  35              	racpOpCode:
  36 0001 00       		.space	1
  37              		.global	racpOperator
  38              		.type	racpOperator, %object
  39              		.size	racpOperator, 1
  40              	racpOperator:
  41 0002 00       		.space	1
  42              		.comm	racpOperand,3,4
  43              		.comm	socpOpCode,1,1
  44              		.comm	socp,13,4
  45              		.global	socpLength
  46              		.type	socpLength, %object
  47              		.size	socpLength, 1
  48              	socpLength:
  49 0003 00       		.space	1
  50              		.global	socpOpd
  51              		.align	1
  52              		.type	socpOpd, %object
  53              		.size	socpOpd, 2
  54              	socpOpd:
  55 0004 0000     		.space	2
  56              		.global	socpOpdPtr
  57              		.data
ARM GAS  C:\Users\cypress\AppData\Local\Temp\ccgxY6Ea.s 			page 2


  58 0001 000000   		.align	2
  59              		.type	socpOpdPtr, %object
  60              		.size	socpOpdPtr, 4
  61              	socpOpdPtr:
  62 0004 00000000 		.word	socpOpd
  63              		.global	commInterval
  64              		.type	commInterval, %object
  65              		.size	commInterval, 1
  66              	commInterval:
  67 0008 05       		.byte	5
  68              		.global	socpRecNum
  69 0009 00       		.align	1
  70              		.type	socpRecNum, %object
  71              		.size	socpRecNum, 2
  72              	socpRecNum:
  73 000a 0100     		.short	1
  74              		.global	alrt
  75              		.align	2
  76              		.type	alrt, %object
  77              		.size	alrt, 12
  78              	alrt:
  79 000c 0500     		.short	5
  80 000e 0500     		.short	5
  81 0010 0500     		.short	5
  82 0012 0500     		.short	5
  83 0014 0500     		.short	5
  84 0016 0500     		.short	5
  85              		.comm	attr,24,4
  86              		.global	length
  87              		.bss
  88              		.type	length, %object
  89              		.size	length, 1
  90              	length:
  91 0006 00       		.space	1
  92              		.comm	cgft,8,4
  93              		.comm	sstm,10,4
  94              		.global	timeZone
  95              		.section	.rodata
  96              		.align	2
  97              		.type	timeZone, %object
  98              		.size	timeZone, 40
  99              	timeZone:
 100 0000 D0       		.byte	-48
 101 0001 D4       		.byte	-44
 102 0002 D8       		.byte	-40
 103 0003 DA       		.byte	-38
 104 0004 DC       		.byte	-36
 105 0005 E0       		.byte	-32
 106 0006 E4       		.byte	-28
 107 0007 E8       		.byte	-24
 108 0008 EC       		.byte	-20
 109 0009 EE       		.byte	-18
 110 000a F0       		.byte	-16
 111 000b F2       		.byte	-14
 112 000c F4       		.byte	-12
 113 000d F8       		.byte	-8
 114 000e FC       		.byte	-4
ARM GAS  C:\Users\cypress\AppData\Local\Temp\ccgxY6Ea.s 			page 3


 115 000f 00       		.byte	0
 116 0010 04       		.byte	4
 117 0011 08       		.byte	8
 118 0012 0C       		.byte	12
 119 0013 0E       		.byte	14
 120 0014 10       		.byte	16
 121 0015 12       		.byte	18
 122 0016 14       		.byte	20
 123 0017 16       		.byte	22
 124 0018 17       		.byte	23
 125 0019 18       		.byte	24
 126 001a 1A       		.byte	26
 127 001b 1C       		.byte	28
 128 001c 20       		.byte	32
 129 001d 23       		.byte	35
 130 001e 24       		.byte	36
 131 001f 26       		.byte	38
 132 0020 28       		.byte	40
 133 0021 2A       		.byte	42
 134 0022 2C       		.byte	44
 135 0023 2E       		.byte	46
 136 0024 30       		.byte	48
 137 0025 33       		.byte	51
 138 0026 34       		.byte	52
 139 0027 38       		.byte	56
 140              		.global	recStatus
 141              		.bss
 142 0007 00       		.align	2
 143              		.type	recStatus, %object
 144              		.size	recStatus, 3
 145              	recStatus:
 146 0008 000000   		.space	3
 147              		.global	cgmt
 148              		.data
 149              		.align	2
 150              		.type	cgmt, %object
 151              		.size	cgmt, 48
 152              	cgmt:
 153 0018 E3       		.byte	-29
 154 0019 00       		.space	1
 155 001a 32B0     		.short	-20430
 156 001c 0100     		.short	1
 157 001e 0000     		.space	2
 158 0020 02040100 		.word	66562
 159 0024 0000     		.short	0
 160 0026 0000     		.short	0
 161 0028 E2       		.byte	-30
 162 0029 00       		.space	1
 163 002a 32B0     		.short	-20430
 164 002c 0200     		.short	2
 165 002e 0000     		.space	2
 166 0030 02040100 		.word	66562
 167 0034 0000     		.short	0
 168 0036 0000     		.short	0
 169 0038 E0       		.byte	-32
 170 0039 00       		.space	1
 171 003a 32B0     		.short	-20430
ARM GAS  C:\Users\cypress\AppData\Local\Temp\ccgxY6Ea.s 			page 4


 172 003c 0300     		.short	3
 173 003e 0000     		.space	2
 174 0040 02040100 		.word	66562
 175 0044 0000     		.short	0
 176 0046 0000     		.short	0
 177              		.section	.rodata
 178              		.align	2
 179              	.LC1:
 180 0028 43474D20 		.ascii	"CGM Measurement \000"
 180      4D656173 
 180      7572656D 
 180      656E7420 
 180      00
 181 0039 000000   		.align	2
 182              	.LC3:
 183 003c 43474D20 		.ascii	"CGM Feature \000"
 183      46656174 
 183      75726520 
 183      00
 184 0049 000000   		.align	2
 185              	.LC5:
 186 004c 43474D20 		.ascii	"CGM Status \000"
 186      53746174 
 186      75732000 
 187              		.align	2
 188              	.LC7:
 189 0058 43474D20 		.ascii	"CGM Session Start Time \000"
 189      53657373 
 189      696F6E20 
 189      53746172 
 189      74205469 
 190              		.align	2
 191              	.LC9:
 192 0070 43474D20 		.ascii	"CGM Session Run Time \000"
 192      53657373 
 192      696F6E20 
 192      52756E20 
 192      54696D65 
 193 0086 0000     		.align	2
 194              	.LC11:
 195 0088 52414350 		.ascii	"RACP \000"
 195      2000
 196 008e 0000     		.align	2
 197              	.LC13:
 198 0090 534F4350 		.ascii	"SOCP \000"
 198      2000
 199 0096 0000     		.align	2
 200              	.LC15:
 201 0098 556E6B6E 		.ascii	"Unknown CGM\000"
 201      6F776E20 
 201      43474D00 
 202              		.align	2
 203              	.LC17:
 204 00a4 63686172 		.ascii	"characteristic \000"
 204      61637465 
 204      72697374 
 204      69632000 
ARM GAS  C:\Users\cypress\AppData\Local\Temp\ccgxY6Ea.s 			page 5


 205              		.section	.text.CgmsPrintCharName,"ax",%progbits
 206              		.align	2
 207              		.global	CgmsPrintCharName
 208              		.code	16
 209              		.thumb_func
 210              		.type	CgmsPrintCharName, %function
 211              	CgmsPrintCharName:
 212              	.LFB36:
 213              		.file 1 "cgmss.c"
   1:cgmss.c       **** /*******************************************************************************
   2:cgmss.c       **** * File Name: cgmss.c
   3:cgmss.c       **** *
   4:cgmss.c       **** * Version 1.0
   5:cgmss.c       **** *
   6:cgmss.c       **** * Description:
   7:cgmss.c       **** *  This file contains the Continuous Glucose Monitoring Service related code.
   8:cgmss.c       **** *
   9:cgmss.c       **** * Hardware Dependency:
  10:cgmss.c       **** *  CY8CKIT-042 BLE
  11:cgmss.c       **** *
  12:cgmss.c       **** ********************************************************************************
  13:cgmss.c       **** * Copyright 2016, Cypress Semiconductor Corporation.  All rights reserved.
  14:cgmss.c       **** * You may use this file only in accordance with the license, terms, conditions,
  15:cgmss.c       **** * disclaimers, and limitations in the end user license agreement accompanying
  16:cgmss.c       **** * the software package with which this file was provided.
  17:cgmss.c       **** *******************************************************************************/
  18:cgmss.c       **** 
  19:cgmss.c       **** #include "cgmss.h"
  20:cgmss.c       **** 
  21:cgmss.c       **** 
  22:cgmss.c       **** uint8 cgmsFlag = 0u;
  23:cgmss.c       **** uint8 recCnt = 1u;
  24:cgmss.c       **** uint8 racpOpCode = 0u;
  25:cgmss.c       **** uint8 racpOperator = 0u;
  26:cgmss.c       **** uint8 racpOperand[3u];
  27:cgmss.c       **** 
  28:cgmss.c       **** CYBLE_CGMS_SOCP_OPC_T socpOpCode;
  29:cgmss.c       **** uint8 socp[13];
  30:cgmss.c       **** uint8 socpLength = 0u;
  31:cgmss.c       **** sfloat socpOpd = 0u;
  32:cgmss.c       **** sfloat* socpOpdPtr = &socpOpd;
  33:cgmss.c       **** uint8 commInterval = 5u;
  34:cgmss.c       **** uint16 socpRecNum = 1u;
  35:cgmss.c       **** CYBLE_CGMS_ALRT_T alrt = {5u,5u,5u,5u,5u,5u};
  36:cgmss.c       **** 
  37:cgmss.c       **** uint8 attr[24u];
  38:cgmss.c       **** uint8 length = 0u;
  39:cgmss.c       **** CYBLE_CGMS_CGFT_T cgft;
  40:cgmss.c       **** CYBLE_CGMS_SSTM_T sstm;
  41:cgmss.c       **** const CYBLE_TIME_ZONE_T timeZone[CYBLE_TIME_ZONE_VAL_NUM] =
  42:cgmss.c       **** {
  43:cgmss.c       ****     CYBLE_TIME_ZONE_M1200, /* UTC-12:00 */
  44:cgmss.c       ****     CYBLE_TIME_ZONE_M1100, /* UTC-11:00 */
  45:cgmss.c       ****     CYBLE_TIME_ZONE_M1000, /* UTC-10:00 */
  46:cgmss.c       ****     CYBLE_TIME_ZONE_M0930, /* UTC-9:30 */
  47:cgmss.c       ****     CYBLE_TIME_ZONE_M0900, /* UTC-9:00 */
  48:cgmss.c       ****     CYBLE_TIME_ZONE_M0800, /* UTC-8:00 */
ARM GAS  C:\Users\cypress\AppData\Local\Temp\ccgxY6Ea.s 			page 6


  49:cgmss.c       ****     CYBLE_TIME_ZONE_M0700, /* UTC-7:00 */
  50:cgmss.c       ****     CYBLE_TIME_ZONE_M0600, /* UTC-6:00 */
  51:cgmss.c       ****     CYBLE_TIME_ZONE_M0500, /* UTC-5:00 */
  52:cgmss.c       ****     CYBLE_TIME_ZONE_M0430, /* UTC-4:30 */
  53:cgmss.c       ****     CYBLE_TIME_ZONE_M0400, /* UTC-4:00 */
  54:cgmss.c       ****     CYBLE_TIME_ZONE_M0330, /* UTC-3:30 */
  55:cgmss.c       ****     CYBLE_TIME_ZONE_M0300, /* UTC-3:00 */
  56:cgmss.c       ****     CYBLE_TIME_ZONE_M0200, /* UTC-2:00 */
  57:cgmss.c       ****     CYBLE_TIME_ZONE_M0100, /* UTC-1:00 */
  58:cgmss.c       ****     CYBLE_TIME_ZONE_ZERO,  /* UTC+0:00 */
  59:cgmss.c       ****     CYBLE_TIME_ZONE_P0100, /* UTC+1:00 */
  60:cgmss.c       ****     CYBLE_TIME_ZONE_P0200, /* UTC+2:00 */
  61:cgmss.c       ****     CYBLE_TIME_ZONE_P0300, /* UTC+3:00 */
  62:cgmss.c       ****     CYBLE_TIME_ZONE_P0330, /* UTC+3:30 */
  63:cgmss.c       ****     CYBLE_TIME_ZONE_P0400, /* UTC+4:00 */
  64:cgmss.c       ****     CYBLE_TIME_ZONE_P0430, /* UTC+4:30 */
  65:cgmss.c       ****     CYBLE_TIME_ZONE_P0500, /* UTC+5:00 */
  66:cgmss.c       ****     CYBLE_TIME_ZONE_P0530, /* UTC+5:30 */
  67:cgmss.c       ****     CYBLE_TIME_ZONE_P0545, /* UTC+5:45 */
  68:cgmss.c       ****     CYBLE_TIME_ZONE_P0600, /* UTC+6:00 */
  69:cgmss.c       ****     CYBLE_TIME_ZONE_P0630, /* UTC+6:30 */
  70:cgmss.c       ****     CYBLE_TIME_ZONE_P0700, /* UTC+7:00 */
  71:cgmss.c       ****     CYBLE_TIME_ZONE_P0800, /* UTC+8:00 */
  72:cgmss.c       ****     CYBLE_TIME_ZONE_P0845, /* UTC+8:45 */
  73:cgmss.c       ****     CYBLE_TIME_ZONE_P0900, /* UTC+9:00 */
  74:cgmss.c       ****     CYBLE_TIME_ZONE_P0930, /* UTC+9:30 */
  75:cgmss.c       ****     CYBLE_TIME_ZONE_P1000, /* UTC+10:00 */
  76:cgmss.c       ****     CYBLE_TIME_ZONE_P1030, /* UTC+10:30 */
  77:cgmss.c       ****     CYBLE_TIME_ZONE_P1100, /* UTC+11:00 */
  78:cgmss.c       ****     CYBLE_TIME_ZONE_P1130, /* UTC+11:30 */
  79:cgmss.c       ****     CYBLE_TIME_ZONE_P1200, /* UTC+12:00 */
  80:cgmss.c       ****     CYBLE_TIME_ZONE_P1245, /* UTC+12:45 */
  81:cgmss.c       ****     CYBLE_TIME_ZONE_P1300, /* UTC+13:00 */
  82:cgmss.c       ****     CYBLE_TIME_ZONE_P1400  /* UTC+14:00 */
  83:cgmss.c       **** };
  84:cgmss.c       **** 
  85:cgmss.c       **** uint8 recStatus[REC_NUM] = {REC_STATUS_OK, REC_STATUS_OK, REC_STATUS_OK};
  86:cgmss.c       **** 
  87:cgmss.c       **** CYBLE_CGMS_CGMT_T cgmt[REC_NUM] =
  88:cgmss.c       **** {
  89:cgmss.c       ****     {   CYBLE_CGMS_GLMT_FLG_TI | 
  90:cgmss.c       ****         CYBLE_CGMS_GLMT_FLG_QA | 
  91:cgmss.c       ****         CYBLE_CGMS_GLMT_FLG_WG | 
  92:cgmss.c       ****         CYBLE_CGMS_GLMT_FLG_CT |
  93:cgmss.c       ****         CYBLE_CGMS_GLMT_FLG_ST, /* flags */
  94:cgmss.c       ****         0xb032u /* 50 mg/dL */, /* CGM Glucose Concentration */
  95:cgmss.c       ****         1u, /* timeOffset */
  96:cgmss.c       ****         CYBLE_CGMS_GLMT_SSA_BL | CYBLE_CGMS_GLMT_SSA_CR | CYBLE_CGMS_GLMT_SSA_RL, /* Sensor Status 
  97:cgmss.c       ****         0u, /* CGM Trend Information */
  98:cgmss.c       ****         0u, /* CGM Quality */
  99:cgmss.c       ****     },
 100:cgmss.c       ****     {   CYBLE_CGMS_GLMT_FLG_QA | 
 101:cgmss.c       ****         CYBLE_CGMS_GLMT_FLG_WG | 
 102:cgmss.c       ****         CYBLE_CGMS_GLMT_FLG_CT |
 103:cgmss.c       ****         CYBLE_CGMS_GLMT_FLG_ST, /* flags */
 104:cgmss.c       ****         0xb032u /* 50 mg/dL */, /* CGM Glucose Concentration */
 105:cgmss.c       ****         2u, /* timeOffset */
ARM GAS  C:\Users\cypress\AppData\Local\Temp\ccgxY6Ea.s 			page 7


 106:cgmss.c       ****         CYBLE_CGMS_GLMT_SSA_BL | CYBLE_CGMS_GLMT_SSA_CR | CYBLE_CGMS_GLMT_SSA_RL, /* Sensor Status 
 107:cgmss.c       ****         0u, /* CGM Trend Information */
 108:cgmss.c       ****         0u, /* CGM Quality */
 109:cgmss.c       ****     },
 110:cgmss.c       ****     {   CYBLE_CGMS_GLMT_FLG_WG | 
 111:cgmss.c       ****         CYBLE_CGMS_GLMT_FLG_CT |
 112:cgmss.c       ****         CYBLE_CGMS_GLMT_FLG_ST, /* flags */
 113:cgmss.c       ****         0xb032u /* 50 mg/dL */, /* CGM Glucose Concentration */
 114:cgmss.c       ****         3u, /* timeOffset */
 115:cgmss.c       ****         CYBLE_CGMS_GLMT_SSA_BL | CYBLE_CGMS_GLMT_SSA_CR | CYBLE_CGMS_GLMT_SSA_RL, /* Sensor Status 
 116:cgmss.c       ****         0u, /* CGM Trend Information */
 117:cgmss.c       ****         0u, /* CGM Quality */
 118:cgmss.c       ****     }
 119:cgmss.c       **** };
 120:cgmss.c       **** 
 121:cgmss.c       **** void CgmsPrintCharName(CYBLE_CGMS_CHAR_INDEX_T charIndex)
 122:cgmss.c       **** {
 214              		.loc 1 122 0
 215              		.cfi_startproc
 216              		@ args = 0, pretend = 0, frame = 8
 217              		@ frame_needed = 1, uses_anonymous_args = 0
 218 0000 80B5     		push	{r7, lr}
 219              		.cfi_def_cfa_offset 8
 220              		.cfi_offset 7, -8
 221              		.cfi_offset 14, -4
 222 0002 82B0     		sub	sp, sp, #8
 223              		.cfi_def_cfa_offset 16
 224 0004 00AF     		add	r7, sp, #0
 225              		.cfi_def_cfa_register 7
 226 0006 0200     		movs	r2, r0
 227 0008 FB1D     		adds	r3, r7, #7
 228 000a 1A70     		strb	r2, [r3]
 123:cgmss.c       ****     switch(charIndex)
 229              		.loc 1 123 0
 230 000c FB1D     		adds	r3, r7, #7
 231 000e 1B78     		ldrb	r3, [r3]
 232 0010 062B     		cmp	r3, #6
 233 0012 27D8     		bhi	.L2
 234 0014 9A00     		lsls	r2, r3, #2
 235 0016 1A4B     		ldr	r3, .L12
 236 0018 D318     		adds	r3, r2, r3
 237 001a 1B68     		ldr	r3, [r3]
 238 001c 9F46     		mov	pc, r3
 239              		.section	.rodata
 240              		.align	2
 241              	.L4:
 242 00b4 1E000000 		.word	.L3
 243 00b8 28000000 		.word	.L5
 244 00bc 32000000 		.word	.L6
 245 00c0 3C000000 		.word	.L7
 246 00c4 46000000 		.word	.L8
 247 00c8 50000000 		.word	.L9
 248 00cc 5A000000 		.word	.L10
 249              		.section	.text.CgmsPrintCharName
 250              	.L3:
 124:cgmss.c       ****     {
 125:cgmss.c       ****         case CYBLE_CGMS_CGMT:                    
ARM GAS  C:\Users\cypress\AppData\Local\Temp\ccgxY6Ea.s 			page 8


 126:cgmss.c       ****             DBG_PRINTF("CGM Measurement ");
 251              		.loc 1 126 0
 252 001e 194B     		ldr	r3, .L12+4
 253 0020 1800     		movs	r0, r3
 254 0022 FFF7FEFF 		bl	printf
 127:cgmss.c       ****             break;
 255              		.loc 1 127 0
 256 0026 22E0     		b	.L11
 257              	.L5:
 128:cgmss.c       ****         
 129:cgmss.c       ****         case CYBLE_CGMS_CGFT:                    
 130:cgmss.c       ****             DBG_PRINTF("CGM Feature ");
 258              		.loc 1 130 0
 259 0028 174B     		ldr	r3, .L12+8
 260 002a 1800     		movs	r0, r3
 261 002c FFF7FEFF 		bl	printf
 131:cgmss.c       ****             break;
 262              		.loc 1 131 0
 263 0030 1DE0     		b	.L11
 264              	.L6:
 132:cgmss.c       ****             
 133:cgmss.c       ****         case CYBLE_CGMS_CGST:
 134:cgmss.c       ****             DBG_PRINTF("CGM Status ");
 265              		.loc 1 134 0
 266 0032 164B     		ldr	r3, .L12+12
 267 0034 1800     		movs	r0, r3
 268 0036 FFF7FEFF 		bl	printf
 135:cgmss.c       ****             break;
 269              		.loc 1 135 0
 270 003a 18E0     		b	.L11
 271              	.L7:
 136:cgmss.c       ****             
 137:cgmss.c       ****         case CYBLE_CGMS_SSTM:
 138:cgmss.c       ****             DBG_PRINTF("CGM Session Start Time ");
 272              		.loc 1 138 0
 273 003c 144B     		ldr	r3, .L12+16
 274 003e 1800     		movs	r0, r3
 275 0040 FFF7FEFF 		bl	printf
 139:cgmss.c       ****             break;
 276              		.loc 1 139 0
 277 0044 13E0     		b	.L11
 278              	.L8:
 140:cgmss.c       ****             
 141:cgmss.c       ****         case CYBLE_CGMS_SRTM:
 142:cgmss.c       ****             DBG_PRINTF("CGM Session Run Time ");
 279              		.loc 1 142 0
 280 0046 134B     		ldr	r3, .L12+20
 281 0048 1800     		movs	r0, r3
 282 004a FFF7FEFF 		bl	printf
 143:cgmss.c       ****             break;
 283              		.loc 1 143 0
 284 004e 0EE0     		b	.L11
 285              	.L9:
 144:cgmss.c       ****             
 145:cgmss.c       ****         case CYBLE_CGMS_RACP:
 146:cgmss.c       ****             DBG_PRINTF("RACP ");
 286              		.loc 1 146 0
ARM GAS  C:\Users\cypress\AppData\Local\Temp\ccgxY6Ea.s 			page 9


 287 0050 114B     		ldr	r3, .L12+24
 288 0052 1800     		movs	r0, r3
 289 0054 FFF7FEFF 		bl	printf
 147:cgmss.c       ****             break;
 290              		.loc 1 147 0
 291 0058 09E0     		b	.L11
 292              	.L10:
 148:cgmss.c       ****             
 149:cgmss.c       ****         case CYBLE_CGMS_SOCP:
 150:cgmss.c       ****             DBG_PRINTF("SOCP ");
 293              		.loc 1 150 0
 294 005a 104B     		ldr	r3, .L12+28
 295 005c 1800     		movs	r0, r3
 296 005e FFF7FEFF 		bl	printf
 151:cgmss.c       ****             break;
 297              		.loc 1 151 0
 298 0062 04E0     		b	.L11
 299              	.L2:
 152:cgmss.c       ****             
 153:cgmss.c       ****         default:
 154:cgmss.c       ****             DBG_PRINTF("Unknown CGM");
 300              		.loc 1 154 0
 301 0064 0E4B     		ldr	r3, .L12+32
 302 0066 1800     		movs	r0, r3
 303 0068 FFF7FEFF 		bl	printf
 155:cgmss.c       ****             break;
 304              		.loc 1 155 0
 305 006c C046     		nop
 306              	.L11:
 156:cgmss.c       ****     }
 157:cgmss.c       ****     
 158:cgmss.c       ****     DBG_PRINTF("characteristic ");
 307              		.loc 1 158 0
 308 006e 0D4B     		ldr	r3, .L12+36
 309 0070 1800     		movs	r0, r3
 310 0072 FFF7FEFF 		bl	printf
 159:cgmss.c       **** }
 311              		.loc 1 159 0
 312 0076 C046     		nop
 313 0078 BD46     		mov	sp, r7
 314 007a 02B0     		add	sp, sp, #8
 315              		@ sp needed
 316 007c 80BD     		pop	{r7, pc}
 317              	.L13:
 318 007e C046     		.align	2
 319              	.L12:
 320 0080 B4000000 		.word	.L4
 321 0084 28000000 		.word	.LC1
 322 0088 3C000000 		.word	.LC3
 323 008c 4C000000 		.word	.LC5
 324 0090 58000000 		.word	.LC7
 325 0094 70000000 		.word	.LC9
 326 0098 88000000 		.word	.LC11
 327 009c 90000000 		.word	.LC13
 328 00a0 98000000 		.word	.LC15
 329 00a4 A4000000 		.word	.LC17
 330              		.cfi_endproc
ARM GAS  C:\Users\cypress\AppData\Local\Temp\ccgxY6Ea.s 			page 10


 331              	.LFE36:
 332              		.size	CgmsPrintCharName, .-CgmsPrintCharName
 333              		.section	.text.CgmsCrc,"ax",%progbits
 334              		.align	2
 335              		.global	CgmsCrc
 336              		.code	16
 337              		.thumb_func
 338              		.type	CgmsCrc, %function
 339              	CgmsCrc:
 340              	.LFB37:
 160:cgmss.c       **** 
 161:cgmss.c       **** /******************************************************************************
 162:cgmss.c       **** ##Function Name: CgmsCrc
 163:cgmss.c       **** *******************************************************************************
 164:cgmss.c       **** 
 165:cgmss.c       **** Summary:
 166:cgmss.c       ****  Calculates a 16-bit CRC value with seed 0xFFFF and polynomial D16+D12+D5+1.
 167:cgmss.c       **** 
 168:cgmss.c       **** Parameters:
 169:cgmss.c       ****  uint8 length: The length of the data.
 170:cgmss.c       ****  uint8 *dataPtr: The pointer to the data.
 171:cgmss.c       **** 
 172:cgmss.c       **** Return:
 173:cgmss.c       ****  A uint16 CRC value.
 174:cgmss.c       **** 
 175:cgmss.c       **** ******************************************************************************/
 176:cgmss.c       **** uint16 CgmsCrc(uint8 length, uint8 *dataPtr)
 177:cgmss.c       **** {
 341              		.loc 1 177 0
 342              		.cfi_startproc
 343              		@ args = 0, pretend = 0, frame = 16
 344              		@ frame_needed = 1, uses_anonymous_args = 0
 345 0000 80B5     		push	{r7, lr}
 346              		.cfi_def_cfa_offset 8
 347              		.cfi_offset 7, -8
 348              		.cfi_offset 14, -4
 349 0002 84B0     		sub	sp, sp, #16
 350              		.cfi_def_cfa_offset 24
 351 0004 00AF     		add	r7, sp, #0
 352              		.cfi_def_cfa_register 7
 353 0006 0200     		movs	r2, r0
 354 0008 3960     		str	r1, [r7]
 355 000a FB1D     		adds	r3, r7, #7
 356 000c 1A70     		strb	r2, [r3]
 178:cgmss.c       ****     uint8  bit, byte;
 179:cgmss.c       ****     uint16 data, crc = CYBLE_CGMS_CRC_SEED;
 357              		.loc 1 179 0
 358 000e 0A23     		movs	r3, #10
 359 0010 FB18     		adds	r3, r7, r3
 360 0012 0122     		movs	r2, #1
 361 0014 5242     		rsbs	r2, r2, #0
 362 0016 1A80     		strh	r2, [r3]
 180:cgmss.c       ****     
 181:cgmss.c       ****     for(byte = 0; byte < length; byte++)
 363              		.loc 1 181 0
 364 0018 0E23     		movs	r3, #14
 365 001a FB18     		adds	r3, r7, r3
ARM GAS  C:\Users\cypress\AppData\Local\Temp\ccgxY6Ea.s 			page 11


 366 001c 0022     		movs	r2, #0
 367 001e 1A70     		strb	r2, [r3]
 368 0020 45E0     		b	.L15
 369              	.L20:
 182:cgmss.c       ****     {
 183:cgmss.c       ****         data = (uint16) dataPtr[byte];
 370              		.loc 1 183 0
 371 0022 0E23     		movs	r3, #14
 372 0024 FB18     		adds	r3, r7, r3
 373 0026 1B78     		ldrb	r3, [r3]
 374 0028 3A68     		ldr	r2, [r7]
 375 002a D318     		adds	r3, r2, r3
 376 002c 1A78     		ldrb	r2, [r3]
 377 002e 0C23     		movs	r3, #12
 378 0030 FB18     		adds	r3, r7, r3
 379 0032 1A80     		strh	r2, [r3]
 184:cgmss.c       ****         for(bit = 0u; bit < 8u; bit++)
 380              		.loc 1 184 0
 381 0034 0F23     		movs	r3, #15
 382 0036 FB18     		adds	r3, r7, r3
 383 0038 0022     		movs	r2, #0
 384 003a 1A70     		strb	r2, [r3]
 385 003c 2BE0     		b	.L16
 386              	.L19:
 185:cgmss.c       ****         {
 186:cgmss.c       ****             if(0u != ((crc ^ data) & 0x0001u))
 387              		.loc 1 186 0
 388 003e 0A23     		movs	r3, #10
 389 0040 FA18     		adds	r2, r7, r3
 390 0042 0C23     		movs	r3, #12
 391 0044 FB18     		adds	r3, r7, r3
 392 0046 1288     		ldrh	r2, [r2]
 393 0048 1B88     		ldrh	r3, [r3]
 394 004a 5340     		eors	r3, r2
 395 004c 9BB2     		uxth	r3, r3
 396 004e 1A00     		movs	r2, r3
 397 0050 0123     		movs	r3, #1
 398 0052 1340     		ands	r3, r2
 399 0054 0AD0     		beq	.L17
 187:cgmss.c       ****             {
 188:cgmss.c       ****                 crc = (crc >> 1u) ^ CYBLE_CGMS_CRC_POLY;
 400              		.loc 1 188 0
 401 0056 0A23     		movs	r3, #10
 402 0058 FB18     		adds	r3, r7, r3
 403 005a 1B88     		ldrh	r3, [r3]
 404 005c 5B08     		lsrs	r3, r3, #1
 405 005e 9AB2     		uxth	r2, r3
 406 0060 0A23     		movs	r3, #10
 407 0062 FB18     		adds	r3, r7, r3
 408 0064 1949     		ldr	r1, .L22
 409 0066 4A40     		eors	r2, r1
 410 0068 1A80     		strh	r2, [r3]
 411 006a 06E0     		b	.L18
 412              	.L17:
 189:cgmss.c       ****             }
 190:cgmss.c       ****             else
 191:cgmss.c       ****             {
ARM GAS  C:\Users\cypress\AppData\Local\Temp\ccgxY6Ea.s 			page 12


 192:cgmss.c       ****                 crc >>= 1u;
 413              		.loc 1 192 0
 414 006c 0A23     		movs	r3, #10
 415 006e FB18     		adds	r3, r7, r3
 416 0070 0A22     		movs	r2, #10
 417 0072 BA18     		adds	r2, r7, r2
 418 0074 1288     		ldrh	r2, [r2]
 419 0076 5208     		lsrs	r2, r2, #1
 420 0078 1A80     		strh	r2, [r3]
 421              	.L18:
 193:cgmss.c       ****             }
 194:cgmss.c       ****             
 195:cgmss.c       ****             data >>= 1u;
 422              		.loc 1 195 0 discriminator 2
 423 007a 0C23     		movs	r3, #12
 424 007c FB18     		adds	r3, r7, r3
 425 007e 0C22     		movs	r2, #12
 426 0080 BA18     		adds	r2, r7, r2
 427 0082 1288     		ldrh	r2, [r2]
 428 0084 5208     		lsrs	r2, r2, #1
 429 0086 1A80     		strh	r2, [r3]
 184:cgmss.c       ****         {
 430              		.loc 1 184 0 discriminator 2
 431 0088 0F23     		movs	r3, #15
 432 008a FB18     		adds	r3, r7, r3
 433 008c 1A78     		ldrb	r2, [r3]
 434 008e 0F23     		movs	r3, #15
 435 0090 FB18     		adds	r3, r7, r3
 436 0092 0132     		adds	r2, r2, #1
 437 0094 1A70     		strb	r2, [r3]
 438              	.L16:
 184:cgmss.c       ****         {
 439              		.loc 1 184 0 is_stmt 0 discriminator 1
 440 0096 0F23     		movs	r3, #15
 441 0098 FB18     		adds	r3, r7, r3
 442 009a 1B78     		ldrb	r3, [r3]
 443 009c 072B     		cmp	r3, #7
 444 009e CED9     		bls	.L19
 181:cgmss.c       ****     {
 445              		.loc 1 181 0 is_stmt 1 discriminator 2
 446 00a0 0E23     		movs	r3, #14
 447 00a2 FB18     		adds	r3, r7, r3
 448 00a4 1A78     		ldrb	r2, [r3]
 449 00a6 0E23     		movs	r3, #14
 450 00a8 FB18     		adds	r3, r7, r3
 451 00aa 0132     		adds	r2, r2, #1
 452 00ac 1A70     		strb	r2, [r3]
 453              	.L15:
 181:cgmss.c       ****     {
 454              		.loc 1 181 0 is_stmt 0 discriminator 1
 455 00ae 0E23     		movs	r3, #14
 456 00b0 FA18     		adds	r2, r7, r3
 457 00b2 FB1D     		adds	r3, r7, #7
 458 00b4 1278     		ldrb	r2, [r2]
 459 00b6 1B78     		ldrb	r3, [r3]
 460 00b8 9A42     		cmp	r2, r3
 461 00ba B2D3     		bcc	.L20
ARM GAS  C:\Users\cypress\AppData\Local\Temp\ccgxY6Ea.s 			page 13


 196:cgmss.c       ****         }
 197:cgmss.c       ****     }
 198:cgmss.c       **** 
 199:cgmss.c       ****     return(crc);
 462              		.loc 1 199 0 is_stmt 1
 463 00bc 0A23     		movs	r3, #10
 464 00be FB18     		adds	r3, r7, r3
 465 00c0 1B88     		ldrh	r3, [r3]
 200:cgmss.c       **** }
 466              		.loc 1 200 0
 467 00c2 1800     		movs	r0, r3
 468 00c4 BD46     		mov	sp, r7
 469 00c6 04B0     		add	sp, sp, #16
 470              		@ sp needed
 471 00c8 80BD     		pop	{r7, pc}
 472              	.L23:
 473 00ca C046     		.align	2
 474              	.L22:
 475 00cc 0884FFFF 		.word	-31736
 476              		.cfi_endproc
 477              	.LFE37:
 478              		.size	CgmsCrc, .-CgmsCrc
 479              		.section	.text.CgmsCrcLength,"ax",%progbits
 480              		.align	2
 481              		.global	CgmsCrcLength
 482              		.code	16
 483              		.thumb_func
 484              		.type	CgmsCrcLength, %function
 485              	CgmsCrcLength:
 486              	.LFB38:
 201:cgmss.c       **** 
 202:cgmss.c       **** 
 203:cgmss.c       **** /******************************************************************************
 204:cgmss.c       **** ##Function Name: CgmsCrcLength
 205:cgmss.c       **** *******************************************************************************
 206:cgmss.c       **** 
 207:cgmss.c       **** Summary:
 208:cgmss.c       ****   Adds the CRC value to the end of the attribute payload 
 209:cgmss.c       ****   and returns the actual length of the attribute
 210:cgmss.c       ****   taking into account whether the CRC calculation feature is active.
 211:cgmss.c       **** 
 212:cgmss.c       ****   Uses the above declared CgmsCrc();
 213:cgmss.c       **** 
 214:cgmss.c       **** Parameters:
 215:cgmss.c       ****  uint8 length: The length of the attribute payload without CRC.
 216:cgmss.c       ****  uint8 *dataPtr: The pointer to the attribute payload.
 217:cgmss.c       **** 
 218:cgmss.c       **** Return:
 219:cgmss.c       ****  A uint8 length of the attribute, within CRC if the CRC feature is active.
 220:cgmss.c       **** 
 221:cgmss.c       **** ******************************************************************************/
 222:cgmss.c       **** uint8 CgmsCrcLength(uint8 length, uint8* dataPtr)
 223:cgmss.c       **** {
 487              		.loc 1 223 0
 488              		.cfi_startproc
 489              		@ args = 0, pretend = 0, frame = 8
 490              		@ frame_needed = 1, uses_anonymous_args = 0
ARM GAS  C:\Users\cypress\AppData\Local\Temp\ccgxY6Ea.s 			page 14


 491 0000 90B5     		push	{r4, r7, lr}
 492              		.cfi_def_cfa_offset 12
 493              		.cfi_offset 4, -12
 494              		.cfi_offset 7, -8
 495              		.cfi_offset 14, -4
 496 0002 83B0     		sub	sp, sp, #12
 497              		.cfi_def_cfa_offset 24
 498 0004 00AF     		add	r7, sp, #0
 499              		.cfi_def_cfa_register 7
 500 0006 0200     		movs	r2, r0
 501 0008 3960     		str	r1, [r7]
 502 000a FB1D     		adds	r3, r7, #7
 503 000c 1A70     		strb	r2, [r3]
 224:cgmss.c       ****     if(0u != (cgft.feature & CYBLE_CGMS_CGFT_FTR_EC))
 504              		.loc 1 224 0
 505 000e 104B     		ldr	r3, .L27
 506 0010 1A68     		ldr	r2, [r3]
 507 0012 8023     		movs	r3, #128
 508 0014 5B01     		lsls	r3, r3, #5
 509 0016 1340     		ands	r3, r2
 510 0018 14D0     		beq	.L25
 225:cgmss.c       ****     {
 226:cgmss.c       ****         CyBle_Set16ByPtr(&dataPtr[length], CgmsCrc(length, dataPtr));
 511              		.loc 1 226 0
 512 001a FB1D     		adds	r3, r7, #7
 513 001c 1B78     		ldrb	r3, [r3]
 514 001e 3A68     		ldr	r2, [r7]
 515 0020 D418     		adds	r4, r2, r3
 516 0022 3A68     		ldr	r2, [r7]
 517 0024 FB1D     		adds	r3, r7, #7
 518 0026 1B78     		ldrb	r3, [r3]
 519 0028 1100     		movs	r1, r2
 520 002a 1800     		movs	r0, r3
 521 002c FFF7FEFF 		bl	CgmsCrc
 522 0030 0300     		movs	r3, r0
 523 0032 1900     		movs	r1, r3
 524 0034 2000     		movs	r0, r4
 525 0036 FFF7FEFF 		bl	CyBle_Set16ByPtr
 227:cgmss.c       ****         length += 2;
 526              		.loc 1 227 0
 527 003a FB1D     		adds	r3, r7, #7
 528 003c FA1D     		adds	r2, r7, #7
 529 003e 1278     		ldrb	r2, [r2]
 530 0040 0232     		adds	r2, r2, #2
 531 0042 1A70     		strb	r2, [r3]
 532              	.L25:
 228:cgmss.c       ****     }
 229:cgmss.c       ****     
 230:cgmss.c       ****     return(length);
 533              		.loc 1 230 0
 534 0044 FB1D     		adds	r3, r7, #7
 535 0046 1B78     		ldrb	r3, [r3]
 231:cgmss.c       **** }
 536              		.loc 1 231 0
 537 0048 1800     		movs	r0, r3
 538 004a BD46     		mov	sp, r7
 539 004c 03B0     		add	sp, sp, #12
ARM GAS  C:\Users\cypress\AppData\Local\Temp\ccgxY6Ea.s 			page 15


 540              		@ sp needed
 541 004e 90BD     		pop	{r4, r7, pc}
 542              	.L28:
 543              		.align	2
 544              	.L27:
 545 0050 00000000 		.word	cgft
 546              		.cfi_endproc
 547              	.LFE38:
 548              		.size	CgmsCrcLength, .-CgmsCrcLength
 549              		.section	.rodata
 550              		.align	2
 551              	.LC21:
 552 00d0 43686563 		.ascii	"Check CRC: \000"
 552      6B204352 
 552      433A2000 
 553              		.align	2
 554              	.LC23:
 555 00dc 696E7661 		.ascii	"invalid CRC\015\000"
 555      6C696420 
 555      4352430D 
 555      00
 556 00e9 000000   		.align	2
 557              	.LC25:
 558 00ec 6F6B0D00 		.ascii	"ok\015\000"
 559              		.align	2
 560              	.LC27:
 561 00f0 6D697373 		.ascii	"missing CRC\015\000"
 561      696E6720 
 561      4352430D 
 561      00
 562              		.section	.text.CgmsCrcCheck,"ax",%progbits
 563              		.align	2
 564              		.global	CgmsCrcCheck
 565              		.code	16
 566              		.thumb_func
 567              		.type	CgmsCrcCheck, %function
 568              	CgmsCrcCheck:
 569              	.LFB39:
 232:cgmss.c       **** 
 233:cgmss.c       **** 
 234:cgmss.c       **** /******************************************************************************
 235:cgmss.c       **** ##Function Name: CgmsCrcCheck
 236:cgmss.c       **** *******************************************************************************
 237:cgmss.c       **** 
 238:cgmss.c       **** Summary:
 239:cgmss.c       ****   Checks the CRC value in the received attribute payload
 240:cgmss.c       ****   taking into account whether the CRC calculation feature is active.
 241:cgmss.c       **** 
 242:cgmss.c       ****   Uses the above declared CgmsCrc();
 243:cgmss.c       **** 
 244:cgmss.c       **** Parameters:
 245:cgmss.c       ****   uint16 attrSize: The length of the attribute payload without CRC.
 246:cgmss.c       ****   CYBLE_GATT_VALUE_T *gattValue: The pointer to the GATT value.
 247:cgmss.c       **** 
 248:cgmss.c       **** Return:
 249:cgmss.c       ****   CYBLE_GATT_ERR_CODE_T result of the CRC checking if the CRC feature is active.
 250:cgmss.c       ****   Following are the possible error codes:
ARM GAS  C:\Users\cypress\AppData\Local\Temp\ccgxY6Ea.s 			page 16


 251:cgmss.c       ****    CYBLE_GATT_ERR_NONE               CRC is correct.
 252:cgmss.c       ****    CYBLE_GATT_ERR_INVALID_CRC        CRC doesn't match.
 253:cgmss.c       ****    CYBLE_GATT_ERR_MISSING_CRC        CRC is absent.
 254:cgmss.c       **** 
 255:cgmss.c       **** ******************************************************************************/
 256:cgmss.c       **** CYBLE_GATT_ERR_CODE_T CgmsCrcCheck(uint16 attrSize, CYBLE_GATT_VALUE_T *gattValue)
 257:cgmss.c       **** {
 570              		.loc 1 257 0
 571              		.cfi_startproc
 572              		@ args = 0, pretend = 0, frame = 16
 573              		@ frame_needed = 1, uses_anonymous_args = 0
 574 0000 90B5     		push	{r4, r7, lr}
 575              		.cfi_def_cfa_offset 12
 576              		.cfi_offset 4, -12
 577              		.cfi_offset 7, -8
 578              		.cfi_offset 14, -4
 579 0002 85B0     		sub	sp, sp, #20
 580              		.cfi_def_cfa_offset 32
 581 0004 00AF     		add	r7, sp, #0
 582              		.cfi_def_cfa_register 7
 583 0006 0200     		movs	r2, r0
 584 0008 3960     		str	r1, [r7]
 585 000a BB1D     		adds	r3, r7, #6
 586 000c 1A80     		strh	r2, [r3]
 258:cgmss.c       ****     CYBLE_GATT_ERR_CODE_T gattError = CYBLE_GATT_ERR_NONE;
 587              		.loc 1 258 0
 588 000e 0F23     		movs	r3, #15
 589 0010 FB18     		adds	r3, r7, r3
 590 0012 0022     		movs	r2, #0
 591 0014 1A70     		strb	r2, [r3]
 259:cgmss.c       ****     
 260:cgmss.c       ****     if(0u != (CYBLE_CGMS_CGFT_FTR_EC & cgft.feature))
 592              		.loc 1 260 0
 593 0016 224B     		ldr	r3, .L35
 594 0018 1A68     		ldr	r2, [r3]
 595 001a 8023     		movs	r3, #128
 596 001c 5B01     		lsls	r3, r3, #5
 597 001e 1340     		ands	r3, r2
 598 0020 36D0     		beq	.L30
 261:cgmss.c       ****     {
 262:cgmss.c       ****         DBG_PRINTF("Check CRC: ");
 599              		.loc 1 262 0
 600 0022 204B     		ldr	r3, .L35+4
 601 0024 1800     		movs	r0, r3
 602 0026 FFF7FEFF 		bl	printf
 263:cgmss.c       ****         
 264:cgmss.c       ****         if((attrSize + CYBLE_CGMS_CRC_SIZE) == gattValue->len)
 603              		.loc 1 264 0
 604 002a BB1D     		adds	r3, r7, #6
 605 002c 1B88     		ldrh	r3, [r3]
 606 002e 0233     		adds	r3, r3, #2
 607 0030 3A68     		ldr	r2, [r7]
 608 0032 9288     		ldrh	r2, [r2, #4]
 609 0034 9342     		cmp	r3, r2
 610 0036 23D1     		bne	.L31
 265:cgmss.c       ****         {   
 266:cgmss.c       ****             if(CyBle_Get16ByPtr(&gattValue->val[attrSize]) != 
ARM GAS  C:\Users\cypress\AppData\Local\Temp\ccgxY6Ea.s 			page 17


 611              		.loc 1 266 0
 612 0038 3B68     		ldr	r3, [r7]
 613 003a 1A68     		ldr	r2, [r3]
 614 003c BB1D     		adds	r3, r7, #6
 615 003e 1B88     		ldrh	r3, [r3]
 616 0040 D318     		adds	r3, r2, r3
 617 0042 1800     		movs	r0, r3
 618 0044 FFF7FEFF 		bl	CyBle_Get16ByPtr
 619 0048 0300     		movs	r3, r0
 620 004a 1C00     		movs	r4, r3
 267:cgmss.c       ****                 CgmsCrc(attrSize, gattValue->val))
 621              		.loc 1 267 0
 622 004c BB1D     		adds	r3, r7, #6
 623 004e 1B88     		ldrh	r3, [r3]
 624 0050 DAB2     		uxtb	r2, r3
 625 0052 3B68     		ldr	r3, [r7]
 626 0054 1B68     		ldr	r3, [r3]
 627 0056 1900     		movs	r1, r3
 628 0058 1000     		movs	r0, r2
 629 005a FFF7FEFF 		bl	CgmsCrc
 630 005e 0300     		movs	r3, r0
 266:cgmss.c       ****                 CgmsCrc(attrSize, gattValue->val))
 631              		.loc 1 266 0
 632 0060 9C42     		cmp	r4, r3
 633 0062 08D0     		beq	.L32
 268:cgmss.c       ****             {
 269:cgmss.c       ****                 gattError = CYBLE_GATT_ERR_INVALID_CRC;
 634              		.loc 1 269 0
 635 0064 0F23     		movs	r3, #15
 636 0066 FB18     		adds	r3, r7, r3
 637 0068 8122     		movs	r2, #129
 638 006a 1A70     		strb	r2, [r3]
 270:cgmss.c       ****                 DBG_PRINTF("invalid CRC\r\n");
 639              		.loc 1 270 0
 640 006c 0E4B     		ldr	r3, .L35+8
 641 006e 1800     		movs	r0, r3
 642 0070 FFF7FEFF 		bl	puts
 643 0074 0CE0     		b	.L30
 644              	.L32:
 271:cgmss.c       ****             }
 272:cgmss.c       ****             else
 273:cgmss.c       ****             {
 274:cgmss.c       ****                 DBG_PRINTF("ok\r\n");
 645              		.loc 1 274 0
 646 0076 0D4B     		ldr	r3, .L35+12
 647 0078 1800     		movs	r0, r3
 648 007a FFF7FEFF 		bl	puts
 649 007e 07E0     		b	.L30
 650              	.L31:
 275:cgmss.c       ****             }
 276:cgmss.c       ****         }
 277:cgmss.c       ****         else
 278:cgmss.c       ****         {
 279:cgmss.c       ****             gattError = CYBLE_GATT_ERR_MISSING_CRC;
 651              		.loc 1 279 0
 652 0080 0F23     		movs	r3, #15
 653 0082 FB18     		adds	r3, r7, r3
ARM GAS  C:\Users\cypress\AppData\Local\Temp\ccgxY6Ea.s 			page 18


 654 0084 8022     		movs	r2, #128
 655 0086 1A70     		strb	r2, [r3]
 280:cgmss.c       ****             DBG_PRINTF("missing CRC\r\n");
 656              		.loc 1 280 0
 657 0088 094B     		ldr	r3, .L35+16
 658 008a 1800     		movs	r0, r3
 659 008c FFF7FEFF 		bl	puts
 660              	.L30:
 281:cgmss.c       ****         }
 282:cgmss.c       ****     }
 283:cgmss.c       ****     
 284:cgmss.c       ****     return(gattError);
 661              		.loc 1 284 0
 662 0090 0F23     		movs	r3, #15
 663 0092 FB18     		adds	r3, r7, r3
 664 0094 1B78     		ldrb	r3, [r3]
 285:cgmss.c       **** }
 665              		.loc 1 285 0
 666 0096 1800     		movs	r0, r3
 667 0098 BD46     		mov	sp, r7
 668 009a 05B0     		add	sp, sp, #20
 669              		@ sp needed
 670 009c 90BD     		pop	{r4, r7, pc}
 671              	.L36:
 672 009e C046     		.align	2
 673              	.L35:
 674 00a0 00000000 		.word	cgft
 675 00a4 D0000000 		.word	.LC21
 676 00a8 DC000000 		.word	.LC23
 677 00ac EC000000 		.word	.LC25
 678 00b0 F0000000 		.word	.LC27
 679              		.cfi_endproc
 680              	.LFE39:
 681              		.size	CgmsCrcCheck, .-CgmsCrcCheck
 682              		.section	.rodata
 683 00fd 000000   		.align	2
 684              	.LC31:
 685 0100 4379426C 		.ascii	"CyBle_CgmssGetCharacteristicValue API Error: \000"
 685      655F4367 
 685      6D737347 
 685      65744368 
 685      61726163 
 686              		.section	.text.CgmsInit,"ax",%progbits
 687              		.align	2
 688              		.global	CgmsInit
 689              		.code	16
 690              		.thumb_func
 691              		.type	CgmsInit, %function
 692              	CgmsInit:
 693              	.LFB40:
 286:cgmss.c       **** 
 287:cgmss.c       **** 
 288:cgmss.c       **** /******************************************************************************
 289:cgmss.c       **** ##Function Name: CgmsInit
 290:cgmss.c       **** *******************************************************************************
 291:cgmss.c       **** 
 292:cgmss.c       **** Summary:
ARM GAS  C:\Users\cypress\AppData\Local\Temp\ccgxY6Ea.s 			page 19


 293:cgmss.c       ****   Does the initialization of the CGM Service.
 294:cgmss.c       ****   Registers CGMS CallBack and reads the initial CGM feature characteristic.
 295:cgmss.c       **** 
 296:cgmss.c       **** ******************************************************************************/
 297:cgmss.c       **** void CgmsInit(void)
 298:cgmss.c       **** {
 694              		.loc 1 298 0
 695              		.cfi_startproc
 696              		@ args = 0, pretend = 0, frame = 8
 697              		@ frame_needed = 1, uses_anonymous_args = 0
 698 0000 80B5     		push	{r7, lr}
 699              		.cfi_def_cfa_offset 8
 700              		.cfi_offset 7, -8
 701              		.cfi_offset 14, -4
 702 0002 82B0     		sub	sp, sp, #8
 703              		.cfi_def_cfa_offset 16
 704 0004 00AF     		add	r7, sp, #0
 705              		.cfi_def_cfa_register 7
 299:cgmss.c       ****     uint8 acgft[6u];
 300:cgmss.c       ****     
 301:cgmss.c       ****     CyBle_CgmsRegisterAttrCallback(CgmsCallBack);
 706              		.loc 1 301 0
 707 0006 1F4B     		ldr	r3, .L41
 708 0008 1800     		movs	r0, r3
 709 000a FFF7FEFF 		bl	CyBle_CgmsRegisterAttrCallback
 302:cgmss.c       ****     
 303:cgmss.c       ****     apiResult = CyBle_CgmssGetCharacteristicValue(CYBLE_CGMS_CGFT, 6u, acgft);
 710              		.loc 1 303 0
 711 000e 3B00     		movs	r3, r7
 712 0010 1A00     		movs	r2, r3
 713 0012 0621     		movs	r1, #6
 714 0014 0120     		movs	r0, #1
 715 0016 FFF7FEFF 		bl	CyBle_CgmssGetCharacteristicValue
 716 001a 0300     		movs	r3, r0
 717 001c 1A00     		movs	r2, r3
 718 001e 1A4B     		ldr	r3, .L41+4
 719 0020 1A80     		strh	r2, [r3]
 304:cgmss.c       ****     if(apiResult != CYBLE_ERROR_OK)
 720              		.loc 1 304 0
 721 0022 194B     		ldr	r3, .L41+4
 722 0024 1B88     		ldrh	r3, [r3]
 723 0026 002B     		cmp	r3, #0
 724 0028 06D0     		beq	.L38
 305:cgmss.c       **** 	{
 306:cgmss.c       **** 		DBG_PRINTF("CyBle_CgmssGetCharacteristicValue API Error: ");
 725              		.loc 1 306 0
 726 002a 184B     		ldr	r3, .L41+8
 727 002c 1800     		movs	r0, r3
 728 002e FFF7FEFF 		bl	printf
 307:cgmss.c       ****         PrintApiResult();
 729              		.loc 1 307 0
 730 0032 FFF7FEFF 		bl	PrintApiResult
 308:cgmss.c       **** 	}
 309:cgmss.c       ****     else
 310:cgmss.c       ****     {
 311:cgmss.c       ****         cgft.feature = (uint32) acgft[0];
 312:cgmss.c       ****         cgft.feature |= (uint32) (acgft[1] << 8u);
ARM GAS  C:\Users\cypress\AppData\Local\Temp\ccgxY6Ea.s 			page 20


 313:cgmss.c       ****         cgft.feature |= (uint32) (acgft[2] << 16u);
 314:cgmss.c       ****         cgft.type = acgft[3] & CYBLE_CGMS_CGFT_TYPE_MASK;
 315:cgmss.c       ****         cgft.sampLoc = (acgft[3] & CYBLE_CGMS_CGFT_SL_MASK) >> CYBLE_CGMS_CGFT_SL_SHIFT;
 316:cgmss.c       ****     }
 317:cgmss.c       **** }
 731              		.loc 1 317 0
 732 0036 21E0     		b	.L40
 733              	.L38:
 311:cgmss.c       ****         cgft.feature |= (uint32) (acgft[1] << 8u);
 734              		.loc 1 311 0
 735 0038 3B00     		movs	r3, r7
 736 003a 1B78     		ldrb	r3, [r3]
 737 003c 1A00     		movs	r2, r3
 738 003e 144B     		ldr	r3, .L41+12
 739 0040 1A60     		str	r2, [r3]
 312:cgmss.c       ****         cgft.feature |= (uint32) (acgft[2] << 16u);
 740              		.loc 1 312 0
 741 0042 134B     		ldr	r3, .L41+12
 742 0044 1B68     		ldr	r3, [r3]
 743 0046 3A00     		movs	r2, r7
 744 0048 5278     		ldrb	r2, [r2, #1]
 745 004a 1202     		lsls	r2, r2, #8
 746 004c 1A43     		orrs	r2, r3
 747 004e 104B     		ldr	r3, .L41+12
 748 0050 1A60     		str	r2, [r3]
 313:cgmss.c       ****         cgft.type = acgft[3] & CYBLE_CGMS_CGFT_TYPE_MASK;
 749              		.loc 1 313 0
 750 0052 0F4B     		ldr	r3, .L41+12
 751 0054 1B68     		ldr	r3, [r3]
 752 0056 3A00     		movs	r2, r7
 753 0058 9278     		ldrb	r2, [r2, #2]
 754 005a 1204     		lsls	r2, r2, #16
 755 005c 1A43     		orrs	r2, r3
 756 005e 0C4B     		ldr	r3, .L41+12
 757 0060 1A60     		str	r2, [r3]
 314:cgmss.c       ****         cgft.sampLoc = (acgft[3] & CYBLE_CGMS_CGFT_SL_MASK) >> CYBLE_CGMS_CGFT_SL_SHIFT;
 758              		.loc 1 314 0
 759 0062 3B00     		movs	r3, r7
 760 0064 DB78     		ldrb	r3, [r3, #3]
 761 0066 0F22     		movs	r2, #15
 762 0068 1340     		ands	r3, r2
 763 006a DAB2     		uxtb	r2, r3
 764 006c 084B     		ldr	r3, .L41+12
 765 006e 1A71     		strb	r2, [r3, #4]
 315:cgmss.c       ****     }
 766              		.loc 1 315 0
 767 0070 3B00     		movs	r3, r7
 768 0072 DB78     		ldrb	r3, [r3, #3]
 769 0074 1B09     		lsrs	r3, r3, #4
 770 0076 DAB2     		uxtb	r2, r3
 771 0078 054B     		ldr	r3, .L41+12
 772 007a 5A71     		strb	r2, [r3, #5]
 773              	.L40:
 774              		.loc 1 317 0
 775 007c C046     		nop
 776 007e BD46     		mov	sp, r7
 777 0080 02B0     		add	sp, sp, #8
ARM GAS  C:\Users\cypress\AppData\Local\Temp\ccgxY6Ea.s 			page 21


 778              		@ sp needed
 779 0082 80BD     		pop	{r7, pc}
 780              	.L42:
 781              		.align	2
 782              	.L41:
 783 0084 00000000 		.word	CgmsCallBack
 784 0088 00000000 		.word	apiResult
 785 008c 00010000 		.word	.LC31
 786 0090 00000000 		.word	cgft
 787              		.cfi_endproc
 788              	.LFE40:
 789              		.size	CgmsInit, .-CgmsInit
 790              		.section	.rodata
 791 012e 0000     		.align	2
 792              	.LC35:
 793 0130 69732077 		.ascii	"is written: \000"
 793      72697474 
 793      656E3A20 
 793      00
 794 013d 000000   		.align	2
 795              	.LC38:
 796 0140 25322E32 		.ascii	"%2.2x \000"
 796      782000
 797 0147 00       		.align	2
 798              	.LC40:
 799 0148 0D00     		.ascii	"\015\000"
 800 014a 0000     		.align	2
 801              	.LC44:
 802 014c 696E7661 		.ascii	"invalid PDU\015\000"
 802      6C696420 
 802      5044550D 
 802      00
 803 0159 000000   		.align	2
 804              	.LC47:
 805 015c 4F70636F 		.ascii	"Opcode: \000"
 805      64653A20 
 805      00
 806 0165 000000   		.align	2
 807              	.LC50:
 808 0168 5265706F 		.ascii	"Report stored records \015\000"
 808      72742073 
 808      746F7265 
 808      64207265 
 808      636F7264 
 809              		.align	2
 810              	.LC52:
 811 0180 44656C65 		.ascii	"Delete stored records \015\000"
 811      74652073 
 811      746F7265 
 811      64207265 
 811      636F7264 
 812              		.align	2
 813              	.LC54:
 814 0198 41626F72 		.ascii	"Abort operation \015\000"
 814      74206F70 
 814      65726174 
 814      696F6E20 
ARM GAS  C:\Users\cypress\AppData\Local\Temp\ccgxY6Ea.s 			page 22


 814      0D00
 815 01aa 0000     		.align	2
 816              	.LC56:
 817 01ac 5265706F 		.ascii	"Report number of stored records \015\000"
 817      7274206E 
 817      756D6265 
 817      72206F66 
 817      2073746F 
 818 01ce 0000     		.align	2
 819              	.LC58:
 820 01d0 556E6B6E 		.ascii	"Unknown \015\000"
 820      6F776E20 
 820      0D00
 821 01da 0000     		.align	2
 822              	.LC60:
 823 01dc 4F706572 		.ascii	"Operator: \000"
 823      61746F72 
 823      3A2000
 824 01e7 00       		.align	2
 825              	.LC65:
 826 01e8 4E756C6C 		.ascii	"Null \015\000"
 826      200D00
 827 01ef 00       		.align	2
 828              	.LC67:
 829 01f0 4C617374 		.ascii	"Last record \015\000"
 829      20726563 
 829      6F726420 
 829      0D00
 830 01fe 0000     		.align	2
 831              	.LC69:
 832 0200 46697273 		.ascii	"First record \015\000"
 832      74207265 
 832      636F7264 
 832      200D00
 833 020f 00       		.align	2
 834              	.LC71:
 835 0210 416C6C20 		.ascii	"All records \015\000"
 835      7265636F 
 835      72647320 
 835      0D00
 836 021e 0000     		.align	2
 837              	.LC73:
 838 0220 4C657373 		.ascii	"Less than or equal to \015\000"
 838      20746861 
 838      6E206F72 
 838      20657175 
 838      616C2074 
 839              		.align	2
 840              	.LC75:
 841 0238 4F706572 		.ascii	"Operand: \000"
 841      616E643A 
 841      2000
 842 0242 0000     		.align	2
 843              	.LC78:
 844 0244 54696D65 		.ascii	"Time Offset: %x \015\012\000"
 844      204F6666 
 844      7365743A 
ARM GAS  C:\Users\cypress\AppData\Local\Temp\ccgxY6Ea.s 			page 23


 844      20257820 
 844      0D0A00
 845 0257 00       		.align	2
 846              	.LC80:
 847 0258 496E7661 		.ascii	"Invalid \015\000"
 847      6C696420 
 847      0D00
 848 0262 0000     		.align	2
 849              	.LC82:
 850 0264 47726561 		.ascii	"Greater than or equal to \015\000"
 850      74657220 
 850      7468616E 
 850      206F7220 
 850      65717561 
 851 027f 00       		.align	2
 852              	.LC84:
 853 0280 57697468 		.ascii	"Within range of (inclusive) \015\000"
 853      696E2072 
 853      616E6765 
 853      206F6620 
 853      28696E63 
 854 029e 0000     		.align	2
 855              	.LC86:
 856 02a0 54696D65 		.ascii	"Time Offsets: %x, %x \015\012\000"
 856      204F6666 
 856      73657473 
 856      3A202578 
 856      2C202578 
 857              		.align	2
 858              	.LC92:
 859 02b8 47657420 		.ascii	"Get CGM Communication Interval\015\000"
 859      43474D20 
 859      436F6D6D 
 859      756E6963 
 859      6174696F 
 860              		.align	2
 861              	.LC95:
 862 02d8 52657370 		.ascii	"Response: Communication Interval: 0x%2.2x\015\012\000"
 862      6F6E7365 
 862      3A20436F 
 862      6D6D756E 
 862      69636174 
 863              		.align	2
 864              	.LC97:
 865 0304 53657420 		.ascii	"Set CGM Communication Interval\015\000"
 865      43474D20 
 865      436F6D6D 
 865      756E6963 
 865      6174696F 
 866              		.align	2
 867              	.LC99:
 868 0324 4F706572 		.ascii	"Operand: 0x%2.2x \015\012\000"
 868      616E643A 
 868      20307825 
 868      322E3278 
 868      200D0A00 
 869              		.align	2
ARM GAS  C:\Users\cypress\AppData\Local\Temp\ccgxY6Ea.s 			page 24


 870              	.LC101:
 871 0338 53657420 		.ascii	"Set Glucose Calibration Value\015\000"
 871      476C7563 
 871      6F736520 
 871      43616C69 
 871      62726174 
 872 0357 00       		.align	2
 873              	.LC103:
 874 0358 4F706572 		.ascii	"Operand:\015\012 Glucose Concentration 0x%4.4x\015\012"
 874      616E643A 
 874      0D0A2047 
 874      6C75636F 
 874      73652043 
 875 0382 00       		.ascii	"\000"
 876 0383 00       		.align	2
 877              	.LC105:
 878 0384 2043616C 		.ascii	" Calibration Time 0x%4.4x\015\012\000"
 878      69627261 
 878      74696F6E 
 878      2054696D 
 878      65203078 
 879              		.align	2
 880              	.LC107:
 881 03a0 2053616D 		.ascii	" Sample Location 0x%2.2x\015\012\000"
 881      706C6520 
 881      4C6F6361 
 881      74696F6E 
 881      20307825 
 882 03bb 00       		.align	2
 883              	.LC109:
 884 03bc 204E6578 		.ascii	" Next Calibration 0x%4.4x\015\012\000"
 884      74204361 
 884      6C696272 
 884      6174696F 
 884      6E203078 
 885              		.align	2
 886              	.LC111:
 887 03d8 2043616C 		.ascii	" Calibration Data Record Number 0x%4.4x\015\012\000"
 887      69627261 
 887      74696F6E 
 887      20446174 
 887      61205265 
 888 0402 0000     		.align	2
 889              	.LC113:
 890 0404 2043616C 		.ascii	" Calibration Status 0x%2.2x\015\012\000"
 890      69627261 
 890      74696F6E 
 890      20537461 
 890      74757320 
 891 0422 0000     		.align	2
 892              	.LC115:
 893 0424 47657420 		.ascii	"Get Glucose Calibration Value\015\000"
 893      476C7563 
 893      6F736520 
 893      43616C69 
 893      62726174 
 894 0443 00       		.align	2
ARM GAS  C:\Users\cypress\AppData\Local\Temp\ccgxY6Ea.s 			page 25


 895              	.LC117:
 896 0444 4F706572 		.ascii	"Operand: Calibration Data Record Number: 0x%4.4x \015"
 896      616E643A 
 896      2043616C 
 896      69627261 
 896      74696F6E 
 897 0476 0A00     		.ascii	"\012\000"
 898              		.align	2
 899              	.LC121:
 900 0478 52657370 		.ascii	"Response:\015\012 Glucose Concentration 0x004e(78mg"
 900      6F6E7365 
 900      3A0D0A20 
 900      476C7563 
 900      6F736520 
 901 04a5 2F644C29 		.ascii	"/dL)\015\000"
 901      0D00
 902 04ab 00       		.align	2
 903              	.LC124:
 904 04ac 2043616C 		.ascii	" Calibration Time 0x0005 (5 minutes)\015\000"
 904      69627261 
 904      74696F6E 
 904      2054696D 
 904      65203078 
 905 04d2 0000     		.align	2
 906              	.LC127:
 907 04d4 2053616D 		.ascii	" Sample Location 0x06\015\000"
 907      706C6520 
 907      4C6F6361 
 907      74696F6E 
 907      20307830 
 908 04eb 00       		.align	2
 909              	.LC129:
 910 04ec 204E6578 		.ascii	" Next Calibration 0x0005 (5 minutes)\015\000"
 910      74204361 
 910      6C696272 
 910      6174696F 
 910      6E203078 
 911 0512 0000     		.align	2
 912              	.LC132:
 913 0514 2043616C 		.ascii	" Calibration Data Record Number 0x%4.4x \015\012\000"
 913      69627261 
 913      74696F6E 
 913      20446174 
 913      61205265 
 914 053f 00       		.align	2
 915              	.LC135:
 916 0540 2043616C 		.ascii	" Calibration Status 0x00\015\000"
 916      69627261 
 916      74696F6E 
 916      20537461 
 916      74757320 
 917 055a 0000     		.align	2
 918              	.LC137:
 919 055c 47657420 		.ascii	"Get Patient High Alert Level\015\000"
 919      50617469 
 919      656E7420 
 919      48696768 
ARM GAS  C:\Users\cypress\AppData\Local\Temp\ccgxY6Ea.s 			page 26


 919      20416C65 
 920 057a 0000     		.align	2
 921              	.LC140:
 922 057c 52657370 		.ascii	"Response: Patient High Alert Level: 0x%4.4x\015\012"
 922      6F6E7365 
 922      3A205061 
 922      7469656E 
 922      74204869 
 923 05a9 00       		.ascii	"\000"
 924 05aa 0000     		.align	2
 925              	.LC142:
 926 05ac 53657420 		.ascii	"Set Patient High Alert Level\015\000"
 926      50617469 
 926      656E7420 
 926      48696768 
 926      20416C65 
 927 05ca 0000     		.align	2
 928              	.LC146:
 929 05cc 4F706572 		.ascii	"Operand: Patient High Alert Level: 0x%4.4x \015\012"
 929      616E643A 
 929      20506174 
 929      69656E74 
 929      20486967 
 930 05f9 00       		.ascii	"\000"
 931 05fa 0000     		.align	2
 932              	.LC148:
 933 05fc 47657420 		.ascii	"Get Patient Low Alert Level\015\000"
 933      50617469 
 933      656E7420 
 933      4C6F7720 
 933      416C6572 
 934 0619 000000   		.align	2
 935              	.LC150:
 936 061c 53657420 		.ascii	"Set Patient Low Alert Level\015\000"
 936      50617469 
 936      656E7420 
 936      4C6F7720 
 936      416C6572 
 937 0639 000000   		.align	2
 938              	.LC153:
 939 063c 4F706572 		.ascii	"Operand: Patient Low Alert Level: 0x%4.4x \015\012\000"
 939      616E643A 
 939      20506174 
 939      69656E74 
 939      204C6F77 
 940 0669 000000   		.align	2
 941              	.LC155:
 942 066c 47657420 		.ascii	"Get Hypo Alert Level\015\000"
 942      4879706F 
 942      20416C65 
 942      7274204C 
 942      6576656C 
 943 0682 0000     		.align	2
 944              	.LC157:
 945 0684 52657370 		.ascii	"Response: Hypo Alert Level: 0x%4.4x\015\012\000"
 945      6F6E7365 
 945      3A204879 
ARM GAS  C:\Users\cypress\AppData\Local\Temp\ccgxY6Ea.s 			page 27


 945      706F2041 
 945      6C657274 
 946 06aa 0000     		.align	2
 947              	.LC159:
 948 06ac 53657420 		.ascii	"Set Hypo Alert Level\015\000"
 948      4879706F 
 948      20416C65 
 948      7274204C 
 948      6576656C 
 949 06c2 0000     		.align	2
 950              	.LC162:
 951 06c4 4F706572 		.ascii	"Operand: Hypo Alert Level: 0x%4.4x \015\012\000"
 951      616E643A 
 951      20487970 
 951      6F20416C 
 951      65727420 
 952 06ea 0000     		.align	2
 953              	.LC164:
 954 06ec 47657420 		.ascii	"Get Hyper Alert Level\015\000"
 954      48797065 
 954      7220416C 
 954      65727420 
 954      4C657665 
 955 0703 00       		.align	2
 956              	.LC166:
 957 0704 52657370 		.ascii	"Response: Hyper Alert Level: 0x%4.4x\015\012\000"
 957      6F6E7365 
 957      3A204879 
 957      70657220 
 957      416C6572 
 958 072b 00       		.align	2
 959              	.LC168:
 960 072c 53657420 		.ascii	"Set Hyper Alert Level\015\000"
 960      48797065 
 960      7220416C 
 960      65727420 
 960      4C657665 
 961 0743 00       		.align	2
 962              	.LC171:
 963 0744 4F706572 		.ascii	"Operand: Hyper Alert Level: 0x%4.4x \015\012\000"
 963      616E643A 
 963      20487970 
 963      65722041 
 963      6C657274 
 964 076b 00       		.align	2
 965              	.LC173:
 966 076c 47657420 		.ascii	"Get Rate of Decrease Alert Level\015\000"
 966      52617465 
 966      206F6620 
 966      44656372 
 966      65617365 
 967 078e 0000     		.align	2
 968              	.LC175:
 969 0790 52657370 		.ascii	"Response: Rate of Decrease Alert Level: 0x%4.4x\015"
 969      6F6E7365 
 969      3A205261 
 969      7465206F 
ARM GAS  C:\Users\cypress\AppData\Local\Temp\ccgxY6Ea.s 			page 28


 969      66204465 
 970 07c0 0A00     		.ascii	"\012\000"
 971 07c2 0000     		.align	2
 972              	.LC177:
 973 07c4 53657420 		.ascii	"Set Rate of Decrease Alert Level\015\000"
 973      52617465 
 973      206F6620 
 973      44656372 
 973      65617365 
 974 07e6 0000     		.align	2
 975              	.LC180:
 976 07e8 4F706572 		.ascii	"Operand: Rate of Decrease Alert Level: 0x%4.4x \015"
 976      616E643A 
 976      20526174 
 976      65206F66 
 976      20446563 
 977 0818 0A00     		.ascii	"\012\000"
 978 081a 0000     		.align	2
 979              	.LC182:
 980 081c 47657420 		.ascii	"Get Rate of Increase Alert Level\015\000"
 980      52617465 
 980      206F6620 
 980      496E6372 
 980      65617365 
 981 083e 0000     		.align	2
 982              	.LC184:
 983 0840 52657370 		.ascii	"Response: Rate of Increase Alert Level: 0x%4.4x\015"
 983      6F6E7365 
 983      3A205261 
 983      7465206F 
 983      6620496E 
 984 0870 0A00     		.ascii	"\012\000"
 985 0872 0000     		.align	2
 986              	.LC186:
 987 0874 53657420 		.ascii	"Set Rate of Increase Alert Level\015\000"
 987      52617465 
 987      206F6620 
 987      496E6372 
 987      65617365 
 988 0896 0000     		.align	2
 989              	.LC189:
 990 0898 4F706572 		.ascii	"Operand: Rate of Increase Alert Level: 0x%4.4x \015"
 990      616E643A 
 990      20526174 
 990      65206F66 
 990      20496E63 
 991 08c8 0A00     		.ascii	"\012\000"
 992 08ca 0000     		.align	2
 993              	.LC191:
 994 08cc 52657365 		.ascii	"Reset Device Specific Alert\015\000"
 994      74204465 
 994      76696365 
 994      20537065 
 994      63696669 
 995 08e9 000000   		.align	2
 996              	.LC193:
 997 08ec 53746172 		.ascii	"Start the Session\015\000"
ARM GAS  C:\Users\cypress\AppData\Local\Temp\ccgxY6Ea.s 			page 29


 997      74207468 
 997      65205365 
 997      7373696F 
 997      6E0D00
 998 08ff 00       		.align	2
 999              	.LC197:
 1000 0900 53746F70 		.ascii	"Stop the Session\015\000"
 1000      20746865 
 1000      20536573 
 1000      73696F6E 
 1000      0D00
 1001 0912 0000     		.align	2
 1002              	.LC199:
 1003 0914 4E6F7420 		.ascii	"Not Supported \015\000"
 1003      53757070 
 1003      6F727465 
 1003      64200D00 
 1004              		.align	2
 1005              	.LC201:
 1006 0924 476C7563 		.ascii	"Glucose Notification is Enabled \015\000"
 1006      6F736520 
 1006      4E6F7469 
 1006      66696361 
 1006      74696F6E 
 1007 0946 0000     		.align	2
 1008              	.LC203:
 1009 0948 476C7563 		.ascii	"Glucose Notification is Disabled \015\000"
 1009      6F736520 
 1009      4E6F7469 
 1009      66696361 
 1009      74696F6E 
 1010 096b 00       		.align	2
 1011              	.LC205:
 1012 096c 52414350 		.ascii	"RACP Indication is Enabled \015\000"
 1012      20496E64 
 1012      69636174 
 1012      696F6E20 
 1012      69732045 
 1013 0989 000000   		.align	2
 1014              	.LC207:
 1015 098c 52414350 		.ascii	"RACP Indication is Disabled \015\000"
 1015      20496E64 
 1015      69636174 
 1015      696F6E20 
 1015      69732044 
 1016 09aa 0000     		.align	2
 1017              	.LC209:
 1018 09ac 52414350 		.ascii	"RACP Indication is Confirmed \015\000"
 1018      20496E64 
 1018      69636174 
 1018      696F6E20 
 1018      69732043 
 1019 09cb 00       		.align	2
 1020              	.LC211:
 1021 09cc 756E6B6E 		.ascii	"unknown CGMS event: %lx \015\012\000"
 1021      6F776E20 
 1021      43474D53 
ARM GAS  C:\Users\cypress\AppData\Local\Temp\ccgxY6Ea.s 			page 30


 1021      20657665 
 1021      6E743A20 
 1022              		.section	.text.CgmsCallBack,"ax",%progbits
 1023              		.align	2
 1024              		.global	CgmsCallBack
 1025              		.code	16
 1026              		.thumb_func
 1027              		.type	CgmsCallBack, %function
 1028              	CgmsCallBack:
 1029              	.LFB41:
 318:cgmss.c       **** 
 319:cgmss.c       **** 
 320:cgmss.c       **** /******************************************************************************
 321:cgmss.c       **** ##Function Name: CgmsCallBack
 322:cgmss.c       **** *******************************************************************************
 323:cgmss.c       **** 
 324:cgmss.c       **** Summary:
 325:cgmss.c       ****   A CallBack function to handle CGMS specific events.
 326:cgmss.c       **** 
 327:cgmss.c       **** ******************************************************************************/
 328:cgmss.c       **** void CgmsCallBack(uint32 event, void* eventParam)
 329:cgmss.c       **** {    
 1030              		.loc 1 329 0
 1031              		.cfi_startproc
 1032              		@ args = 0, pretend = 0, frame = 16
 1033              		@ frame_needed = 1, uses_anonymous_args = 0
 1034 0000 90B5     		push	{r4, r7, lr}
 1035              		.cfi_def_cfa_offset 12
 1036              		.cfi_offset 4, -12
 1037              		.cfi_offset 7, -8
 1038              		.cfi_offset 14, -4
 1039 0002 85B0     		sub	sp, sp, #20
 1040              		.cfi_def_cfa_offset 32
 1041 0004 00AF     		add	r7, sp, #0
 1042              		.cfi_def_cfa_register 7
 1043 0006 7860     		str	r0, [r7, #4]
 1044 0008 3960     		str	r1, [r7]
 330:cgmss.c       ****     switch(event)
 1045              		.loc 1 330 0
 1046 000a 7B68     		ldr	r3, [r7, #4]
 1047 000c 4C3B     		subs	r3, r3, #76
 1048 000e FF3B     		subs	r3, r3, #255
 1049 0010 052B     		cmp	r3, #5
 1050 0012 01D9     		bls	.LCB538
 1051 0014 00F0B6FD 		bl	.L44	@far jump
 1052              	.LCB538:
 1053 0018 9A00     		lsls	r2, r3, #2
 1054 001a DA4B     		ldr	r3, .L137
 1055 001c D318     		adds	r3, r2, r3
 1056 001e 1B68     		ldr	r3, [r3]
 1057 0020 9F46     		mov	pc, r3
 1058              		.section	.rodata
 1059 09e7 00       		.align	2
 1060              	.L46:
 1061 09e8 660B0000 		.word	.L45
 1062 09ec 700B0000 		.word	.L47
 1063 09f0 7A0B0000 		.word	.L48
ARM GAS  C:\Users\cypress\AppData\Local\Temp\ccgxY6Ea.s 			page 31


 1064 09f4 520B0000 		.word	.L49
 1065 09f8 5C0B0000 		.word	.L50
 1066 09fc 22000000 		.word	.L51
 1067              		.section	.text.CgmsCallBack
 1068              	.L51:
 1069              	.LBB2:
 331:cgmss.c       ****     {
 332:cgmss.c       ****         case CYBLE_EVT_CGMSS_WRITE_CHAR:
 333:cgmss.c       ****             {
 334:cgmss.c       ****                 uint16 attrSize = 0u;
 1070              		.loc 1 334 0
 1071 0022 0E23     		movs	r3, #14
 1072 0024 FB18     		adds	r3, r7, r3
 1073 0026 0022     		movs	r2, #0
 1074 0028 1A80     		strh	r2, [r3]
 335:cgmss.c       ****                 CYBLE_GATT_ERR_CODE_T cgmsGattError = CYBLE_GATT_ERR_NONE;
 1075              		.loc 1 335 0
 1076 002a 0D23     		movs	r3, #13
 1077 002c FB18     		adds	r3, r7, r3
 1078 002e 0022     		movs	r2, #0
 1079 0030 1A70     		strb	r2, [r3]
 336:cgmss.c       ****                 
 337:cgmss.c       ****                 CgmsPrintCharName(((CYBLE_CGMS_CHAR_VALUE_T *)eventParam)->charIndex);
 1080              		.loc 1 337 0
 1081 0032 3B68     		ldr	r3, [r7]
 1082 0034 9B78     		ldrb	r3, [r3, #2]
 1083 0036 1800     		movs	r0, r3
 1084 0038 FFF7FEFF 		bl	CgmsPrintCharName
 338:cgmss.c       ****                 DBG_PRINTF("is written: ");
 1085              		.loc 1 338 0
 1086 003c D24B     		ldr	r3, .L137+4
 1087 003e 1800     		movs	r0, r3
 1088 0040 FFF7FEFF 		bl	printf
 339:cgmss.c       ****                 for(i = 0; i < ((CYBLE_CGMS_CHAR_VALUE_T *)eventParam)->value->len; i++)
 1089              		.loc 1 339 0
 1090 0044 D14B     		ldr	r3, .L137+8
 1091 0046 0022     		movs	r2, #0
 1092 0048 1A80     		strh	r2, [r3]
 1093 004a 12E0     		b	.L52
 1094              	.L53:
 340:cgmss.c       ****                 {
 341:cgmss.c       ****                     DBG_PRINTF("%2.2x ", ((CYBLE_CGMS_CHAR_VALUE_T *)eventParam)->value->val[i]);
 1095              		.loc 1 341 0 discriminator 3
 1096 004c 3B68     		ldr	r3, [r7]
 1097 004e 5B68     		ldr	r3, [r3, #4]
 1098 0050 1B68     		ldr	r3, [r3]
 1099 0052 CE4A     		ldr	r2, .L137+8
 1100 0054 1288     		ldrh	r2, [r2]
 1101 0056 9B18     		adds	r3, r3, r2
 1102 0058 1B78     		ldrb	r3, [r3]
 1103 005a 1A00     		movs	r2, r3
 1104 005c CC4B     		ldr	r3, .L137+12
 1105 005e 1100     		movs	r1, r2
 1106 0060 1800     		movs	r0, r3
 1107 0062 FFF7FEFF 		bl	printf
 339:cgmss.c       ****                 for(i = 0; i < ((CYBLE_CGMS_CHAR_VALUE_T *)eventParam)->value->len; i++)
 1108              		.loc 1 339 0 discriminator 3
ARM GAS  C:\Users\cypress\AppData\Local\Temp\ccgxY6Ea.s 			page 32


 1109 0066 C94B     		ldr	r3, .L137+8
 1110 0068 1B88     		ldrh	r3, [r3]
 1111 006a 0133     		adds	r3, r3, #1
 1112 006c 9AB2     		uxth	r2, r3
 1113 006e C74B     		ldr	r3, .L137+8
 1114 0070 1A80     		strh	r2, [r3]
 1115              	.L52:
 339:cgmss.c       ****                 for(i = 0; i < ((CYBLE_CGMS_CHAR_VALUE_T *)eventParam)->value->len; i++)
 1116              		.loc 1 339 0 is_stmt 0 discriminator 1
 1117 0072 3B68     		ldr	r3, [r7]
 1118 0074 5B68     		ldr	r3, [r3, #4]
 1119 0076 9A88     		ldrh	r2, [r3, #4]
 1120 0078 C44B     		ldr	r3, .L137+8
 1121 007a 1B88     		ldrh	r3, [r3]
 1122 007c 9A42     		cmp	r2, r3
 1123 007e E5D8     		bhi	.L53
 342:cgmss.c       ****                 }
 343:cgmss.c       ****                 DBG_PRINTF("\r\n");
 1124              		.loc 1 343 0 is_stmt 1
 1125 0080 C44B     		ldr	r3, .L137+16
 1126 0082 1800     		movs	r0, r3
 1127 0084 FFF7FEFF 		bl	puts
 344:cgmss.c       ****             
 345:cgmss.c       ****                 switch(((CYBLE_CGMS_CHAR_VALUE_T *)eventParam)->charIndex)
 1128              		.loc 1 345 0
 1129 0088 3B68     		ldr	r3, [r7]
 1130 008a 9B78     		ldrb	r3, [r3, #2]
 1131 008c 052B     		cmp	r3, #5
 1132 008e 00D1     		bne	.LCB606
 1133 0090 74E0     		b	.L55	@long jump
 1134              	.LCB606:
 1135 0092 062B     		cmp	r3, #6
 1136 0094 00D1     		bne	.LCB608
 1137 0096 C4E1     		b	.L56	@long jump
 1138              	.LCB608:
 1139 0098 032B     		cmp	r3, #3
 1140 009a 01D0     		beq	.L57
 346:cgmss.c       ****                 {
 347:cgmss.c       ****                     case CYBLE_CGMS_SSTM:
 348:cgmss.c       ****                         cgmsGattError = CgmsCrcCheck(CYBLE_CGMS_SSTM_SIZE, ((CYBLE_CGMS_CHAR_VALUE_
 349:cgmss.c       ****                         
 350:cgmss.c       ****                         sstm.sst.year = CyBle_Get16ByPtr(&((CYBLE_CGMS_CHAR_VALUE_T *)eventParam)->
 351:cgmss.c       ****                         sstm.sst.month = ((CYBLE_CGMS_CHAR_VALUE_T *)eventParam)->value->val[2u];
 352:cgmss.c       ****                         sstm.sst.day = ((CYBLE_CGMS_CHAR_VALUE_T *)eventParam)->value->val[3u];
 353:cgmss.c       ****                         sstm.sst.hours = ((CYBLE_CGMS_CHAR_VALUE_T *)eventParam)->value->val[4u];
 354:cgmss.c       ****                         sstm.sst.minutes = ((CYBLE_CGMS_CHAR_VALUE_T *)eventParam)->value->val[5u];
 355:cgmss.c       ****                         sstm.sst.seconds = ((CYBLE_CGMS_CHAR_VALUE_T *)eventParam)->value->val[6u];
 356:cgmss.c       ****                         sstm.timeZone = (CYBLE_TIME_ZONE_T)((CYBLE_CGMS_CHAR_VALUE_T *)eventParam)-
 357:cgmss.c       ****                         sstm.dstOffset = (CYBLE_DSTOFFSET_T)((CYBLE_CGMS_CHAR_VALUE_T *)eventParam)
 358:cgmss.c       ****                         
 359:cgmss.c       ****                         cgmsGattError = CYBLE_GATT_ERR_INVALID_PDU;
 360:cgmss.c       ****                         for(i = 0; i < CYBLE_TIME_ZONE_VAL_NUM; i++)
 361:cgmss.c       ****                         {
 362:cgmss.c       ****                             if(timeZone[i] == sstm.timeZone)
 363:cgmss.c       ****                             {
 364:cgmss.c       ****                                 cgmsGattError = CYBLE_GATT_ERR_NONE;
 365:cgmss.c       ****                             }
ARM GAS  C:\Users\cypress\AppData\Local\Temp\ccgxY6Ea.s 			page 33


 366:cgmss.c       ****                         }
 367:cgmss.c       ****                         
 368:cgmss.c       ****                         if(cgmsGattError != CYBLE_GATT_ERR_NONE)
 369:cgmss.c       ****                         {
 370:cgmss.c       ****                             DBG_PRINTF("invalid PDU\r\n");   
 371:cgmss.c       ****                         }
 372:cgmss.c       ****                         break;
 373:cgmss.c       ****                     
 374:cgmss.c       ****                     case CYBLE_CGMS_RACP:                    
 375:cgmss.c       ****                         cgmsFlag |= CGMS_FLAG_RACP;
 376:cgmss.c       ****                         
 377:cgmss.c       ****                         DBG_PRINTF("Opcode: ");
 378:cgmss.c       ****                         racpOpCode = ((CYBLE_CGMS_CHAR_VALUE_T *)eventParam)->value->val[0];
 379:cgmss.c       ****                         switch(racpOpCode)
 380:cgmss.c       ****                         {
 381:cgmss.c       ****                             case CYBLE_CGMS_RACP_OPC_REPORT_REC:
 382:cgmss.c       ****                                 DBG_PRINTF("Report stored records \r\n");
 383:cgmss.c       ****                                 break;
 384:cgmss.c       ****                                 
 385:cgmss.c       ****                             case CYBLE_CGMS_RACP_OPC_DELETE_REC:
 386:cgmss.c       ****                                 DBG_PRINTF("Delete stored records \r\n");
 387:cgmss.c       ****                                 break;
 388:cgmss.c       ****                                 
 389:cgmss.c       ****                             case CYBLE_CGMS_RACP_OPC_ABORT_OPN:
 390:cgmss.c       ****                                 DBG_PRINTF("Abort operation \r\n");
 391:cgmss.c       ****                                 break;
 392:cgmss.c       ****                                 
 393:cgmss.c       ****                             case CYBLE_CGMS_RACP_OPC_REPORT_NUM_REC:
 394:cgmss.c       ****                                 DBG_PRINTF("Report number of stored records \r\n");
 395:cgmss.c       ****                                 break;
 396:cgmss.c       ****                                 
 397:cgmss.c       ****                             default:
 398:cgmss.c       ****                                 DBG_PRINTF("Unknown \r\n");
 399:cgmss.c       ****                                 break;
 400:cgmss.c       ****                         }
 401:cgmss.c       ****                         
 402:cgmss.c       ****                         DBG_PRINTF("Operator: ");
 403:cgmss.c       ****                         racpOperator = ((CYBLE_CGMS_CHAR_VALUE_T *)eventParam)->value->val[1];
 404:cgmss.c       ****                         attr[3u] = CYBLE_CGMS_RACP_RSP_SUCCESS;
 405:cgmss.c       ****                         switch(racpOperator)
 406:cgmss.c       ****                         {
 407:cgmss.c       ****                             case CYBLE_CGMS_RACP_OPR_NULL:
 408:cgmss.c       ****                                 DBG_PRINTF("Null \r\n");
 409:cgmss.c       ****                                 break;
 410:cgmss.c       ****                             
 411:cgmss.c       ****                             case CYBLE_CGMS_RACP_OPR_LAST:
 412:cgmss.c       ****                                 DBG_PRINTF("Last record \r\n");
 413:cgmss.c       ****                                 break;
 414:cgmss.c       ****                                 
 415:cgmss.c       ****                             case CYBLE_CGMS_RACP_OPR_FIRST:
 416:cgmss.c       ****                                 DBG_PRINTF("First record \r\n");
 417:cgmss.c       ****                                 break;
 418:cgmss.c       ****                                 
 419:cgmss.c       ****                             case CYBLE_CGMS_RACP_OPR_ALL:
 420:cgmss.c       ****                                 DBG_PRINTF("All records \r\n");
 421:cgmss.c       ****                                 if(((CYBLE_CGMS_CHAR_VALUE_T *)eventParam)->value->len > 2u)
 422:cgmss.c       ****                                 {
ARM GAS  C:\Users\cypress\AppData\Local\Temp\ccgxY6Ea.s 			page 34


 423:cgmss.c       ****                                     attr[3u] = CYBLE_CGMS_RACP_RSP_INV_OPD;
 424:cgmss.c       ****                                 }
 425:cgmss.c       ****                                 break;
 426:cgmss.c       ****                             
 427:cgmss.c       ****                             case CYBLE_CGMS_RACP_OPR_LESS:
 428:cgmss.c       ****                                 DBG_PRINTF("Less than or equal to \r\n");
 429:cgmss.c       ****                                 DBG_PRINTF("Operand: ");
 430:cgmss.c       ****                                 if(((CYBLE_CGMS_CHAR_VALUE_T *)eventParam)->value->len == 5u)
 431:cgmss.c       ****                                 {
 432:cgmss.c       ****                                     racpOperand[0] = ((CYBLE_CGMS_CHAR_VALUE_T *)eventParam)->value
 433:cgmss.c       ****                                     if(CYBLE_CGMS_RACP_OPD_1 == racpOperand[0u])
 434:cgmss.c       ****                                     {
 435:cgmss.c       ****                                         racpOperand[1] = ((CYBLE_CGMS_CHAR_VALUE_T *)eventParam)->v
 436:cgmss.c       ****                                         DBG_PRINTF("Time Offset: %x \r\n", racpOperand[1u]);
 437:cgmss.c       ****                                     }
 438:cgmss.c       ****                                     else
 439:cgmss.c       ****                                     {
 440:cgmss.c       ****                                         DBG_PRINTF("Unknown \r\n");
 441:cgmss.c       ****                                     }
 442:cgmss.c       ****                                 }
 443:cgmss.c       ****                                 else
 444:cgmss.c       ****                                 {
 445:cgmss.c       ****                                     attr[3u] = CYBLE_CGMS_RACP_RSP_INV_OPD;
 446:cgmss.c       ****                                     DBG_PRINTF("Invalid \r\n");
 447:cgmss.c       ****                                 }
 448:cgmss.c       ****                                 break;
 449:cgmss.c       ****                                 
 450:cgmss.c       ****                             case CYBLE_CGMS_RACP_OPR_GREAT:
 451:cgmss.c       ****                                 DBG_PRINTF("Greater than or equal to \r\n");
 452:cgmss.c       ****                                 DBG_PRINTF("Operand: ");
 453:cgmss.c       ****                                 if(((CYBLE_CGMS_CHAR_VALUE_T *)eventParam)->value->len == 5u)
 454:cgmss.c       ****                                 {
 455:cgmss.c       ****                                     racpOperand[0u] = ((CYBLE_CGMS_CHAR_VALUE_T *)eventParam)->valu
 456:cgmss.c       ****                                     if(CYBLE_CGMS_RACP_OPD_1 == racpOperand[0u])
 457:cgmss.c       ****                                     {
 458:cgmss.c       ****                                         racpOperand[1u] = ((CYBLE_CGMS_CHAR_VALUE_T *)eventParam)->
 459:cgmss.c       ****                                         DBG_PRINTF("Time Offset: %x \r\n", racpOperand[1u]);
 460:cgmss.c       ****                                     }
 461:cgmss.c       ****                                     else
 462:cgmss.c       ****                                     {
 463:cgmss.c       ****                                         DBG_PRINTF("Unknown \r\n");
 464:cgmss.c       ****                                     }
 465:cgmss.c       ****                                 }
 466:cgmss.c       ****                                 else
 467:cgmss.c       ****                                 {
 468:cgmss.c       ****                                     attr[3u] = CYBLE_CGMS_RACP_RSP_INV_OPD;
 469:cgmss.c       ****                                     DBG_PRINTF("Invalid \r\n");
 470:cgmss.c       ****                                 }
 471:cgmss.c       ****                                 break;
 472:cgmss.c       ****                             
 473:cgmss.c       ****                             case CYBLE_CGMS_RACP_OPR_WITHIN:
 474:cgmss.c       ****                                 DBG_PRINTF("Within range of (inclusive) \r\n");
 475:cgmss.c       ****                                 DBG_PRINTF("Operand: ");
 476:cgmss.c       ****                                 if(((CYBLE_CGMS_CHAR_VALUE_T *)eventParam)->value->len == 7u)
 477:cgmss.c       ****                                 {
 478:cgmss.c       ****                                     racpOperand[0] = ((CYBLE_CGMS_CHAR_VALUE_T *)eventParam)->value
 479:cgmss.c       ****                                     if(CYBLE_CGMS_RACP_OPD_1 == racpOperand[0u])
ARM GAS  C:\Users\cypress\AppData\Local\Temp\ccgxY6Ea.s 			page 35


 480:cgmss.c       ****                                     {
 481:cgmss.c       ****                                         racpOperand[1] = ((CYBLE_CGMS_CHAR_VALUE_T *)eventParam)->v
 482:cgmss.c       ****                                         racpOperand[2] = ((CYBLE_CGMS_CHAR_VALUE_T *)eventParam)->v
 483:cgmss.c       ****                                         DBG_PRINTF("Time Offsets: %x, %x \r\n", racpOperand[1u], ra
 484:cgmss.c       ****                                     }
 485:cgmss.c       ****                                     else
 486:cgmss.c       ****                                     {
 487:cgmss.c       ****                                         DBG_PRINTF("Unknown \r\n");
 488:cgmss.c       ****                                     }
 489:cgmss.c       ****                                 }
 490:cgmss.c       ****                                 else
 491:cgmss.c       ****                                 {
 492:cgmss.c       ****                                     attr[3u] = CYBLE_CGMS_RACP_RSP_INV_OPD;
 493:cgmss.c       ****                                     DBG_PRINTF("Invalid \r\n");
 494:cgmss.c       ****                                 }
 495:cgmss.c       ****                                 break;
 496:cgmss.c       ****                         
 497:cgmss.c       ****                             default:
 498:cgmss.c       ****                                 DBG_PRINTF("Unknown \r\n");
 499:cgmss.c       ****                                 break;
 500:cgmss.c       ****                         }
 501:cgmss.c       ****                         break;
 502:cgmss.c       ****                         
 503:cgmss.c       ****                     case CYBLE_CGMS_SOCP:
 504:cgmss.c       ****                         
 505:cgmss.c       ****                         socpOpCode = (CYBLE_CGMS_SOCP_OPC_T)((CYBLE_CGMS_CHAR_VALUE_T *)eventParam)
 506:cgmss.c       ****                         socp[2u] = CYBLE_CGMS_SOCP_RSP_SUCCESS;
 507:cgmss.c       ****                         
 508:cgmss.c       ****                         switch(socpOpCode)
 509:cgmss.c       ****                         {
 510:cgmss.c       ****                             case CYBLE_CGMS_SOCP_OPC_STSN:
 511:cgmss.c       ****                             case CYBLE_CGMS_SOCP_OPC_SPSN:
 512:cgmss.c       ****                                 attrSize = CYBLE_CGMS_SOCP_OPC_SN;
 513:cgmss.c       ****                                 break;
 514:cgmss.c       ****                             
 515:cgmss.c       ****                             case CYBLE_CGMS_SOCP_OPC_SINT:
 516:cgmss.c       ****                                 attrSize = CYBLE_CGMS_SOCP_OPC_IN;
 517:cgmss.c       ****                                 break;
 518:cgmss.c       ****                             
 519:cgmss.c       ****                             case CYBLE_CGMS_SOCP_OPC_SHAL:
 520:cgmss.c       ****                             case CYBLE_CGMS_SOCP_OPC_SLAL:
 521:cgmss.c       ****                             case CYBLE_CGMS_SOCP_OPC_SHPO:
 522:cgmss.c       ****                             case CYBLE_CGMS_SOCP_OPC_SHPR:
 523:cgmss.c       ****                             case CYBLE_CGMS_SOCP_OPC_SDEC:
 524:cgmss.c       ****                             case CYBLE_CGMS_SOCP_OPC_SINC:
 525:cgmss.c       ****                                 attrSize = CYBLE_CGMS_SOCP_OPC_AL;
 526:cgmss.c       ****                                 break;
 527:cgmss.c       ****                             
 528:cgmss.c       ****                             case CYBLE_CGMS_SOCP_OPC_SGCV:
 529:cgmss.c       ****                                 attrSize = CYBLE_CGMS_SOCP_OPC_CV;
 530:cgmss.c       ****                                 break;
 531:cgmss.c       ****                             
 532:cgmss.c       ****                             default:
 533:cgmss.c       ****                                 socp[2u] = CYBLE_CGMS_SOCP_RSP_UNSPRT_OPC;
 534:cgmss.c       ****                                 break;
 535:cgmss.c       ****                         }
 536:cgmss.c       ****                         
ARM GAS  C:\Users\cypress\AppData\Local\Temp\ccgxY6Ea.s 			page 36


 537:cgmss.c       ****                         if(socp[2u] == CYBLE_CGMS_SOCP_RSP_SUCCESS)
 538:cgmss.c       ****                         {
 539:cgmss.c       ****                             cgmsGattError = CgmsCrcCheck(attrSize, ((CYBLE_CGMS_CHAR_VALUE_T *)even
 540:cgmss.c       ****                         }
 541:cgmss.c       ****                                                 
 542:cgmss.c       ****                         if(cgmsGattError == CYBLE_GATT_ERR_NONE)
 543:cgmss.c       ****                         {
 544:cgmss.c       ****                             cgmsFlag |= CGMS_FLAG_SOCP;
 545:cgmss.c       ****                             DBG_PRINTF("Opcode: ");
 546:cgmss.c       ****                             
 547:cgmss.c       ****                             switch(socpOpCode)
 548:cgmss.c       ****                             {
 549:cgmss.c       ****                                 case CYBLE_CGMS_SOCP_OPC_GINT:
 550:cgmss.c       ****                                     DBG_PRINTF("Get CGM Communication Interval\r\n");
 551:cgmss.c       ****                                     DBG_PRINTF("Response: Communication Interval: 0x%2.2x\r\n", com
 552:cgmss.c       ****                                     socp[0u] = CYBLE_CGMS_SOCP_OPC_RINT;
 553:cgmss.c       ****                                     socp[1u] = commInterval;
 554:cgmss.c       ****                                     break;
 555:cgmss.c       ****                                     
 556:cgmss.c       ****                                 case CYBLE_CGMS_SOCP_OPC_SINT:
 557:cgmss.c       ****                                     DBG_PRINTF("Set CGM Communication Interval\r\n");
 558:cgmss.c       ****                                     commInterval = ((CYBLE_CGMS_CHAR_VALUE_T *)eventParam)->value->
 559:cgmss.c       ****                                     DBG_PRINTF("Operand: 0x%2.2x \r\n", commInterval);
 560:cgmss.c       ****                                     socp[1u] = CYBLE_CGMS_SOCP_OPC_SINT;
 561:cgmss.c       ****                                     break;
 562:cgmss.c       ****                                     
 563:cgmss.c       ****                                 case CYBLE_CGMS_SOCP_OPC_SGCV:
 564:cgmss.c       ****                                     DBG_PRINTF("Set Glucose Calibration Value\r\n"); 
 565:cgmss.c       ****                                     socp[1u] = CYBLE_CGMS_SOCP_OPC_SGCV;
 566:cgmss.c       ****                                     DBG_PRINTF("Operand:\r\n Glucose Concentration 0x%4.4x\r\n",
 567:cgmss.c       ****                                         CyBle_Get16ByPtr(&((CYBLE_CGMS_CHAR_VALUE_T *)eventParam)->
 568:cgmss.c       ****                                     DBG_PRINTF(" Calibration Time 0x%4.4x\r\n",
 569:cgmss.c       ****                                         CyBle_Get16ByPtr(&((CYBLE_CGMS_CHAR_VALUE_T *)eventParam)->
 570:cgmss.c       ****                                     DBG_PRINTF(" Sample Location 0x%2.2x\r\n", ((CYBLE_CGMS_CHAR_VA
 571:cgmss.c       ****                                     DBG_PRINTF(" Next Calibration 0x%4.4x\r\n",
 572:cgmss.c       ****                                         CyBle_Get16ByPtr(&((CYBLE_CGMS_CHAR_VALUE_T *)eventParam)->
 573:cgmss.c       ****                                     DBG_PRINTF(" Calibration Data Record Number 0x%4.4x\r\n",
 574:cgmss.c       ****                                         CyBle_Get16ByPtr(&((CYBLE_CGMS_CHAR_VALUE_T *)eventParam)->
 575:cgmss.c       ****                                     DBG_PRINTF(" Calibration Status 0x%2.2x\r\n", ((CYBLE_CGMS_CHAR
 576:cgmss.c       ****                                     break;
 577:cgmss.c       ****                                     
 578:cgmss.c       ****                                 case CYBLE_CGMS_SOCP_OPC_GGCV:
 579:cgmss.c       ****                                     DBG_PRINTF("Get Glucose Calibration Value\r\n");
 580:cgmss.c       ****                                     DBG_PRINTF("Operand: Calibration Data Record Number: 0x%4.4x \r
 581:cgmss.c       ****                                             CyBle_Get16ByPtr(&((CYBLE_CGMS_CHAR_VALUE_T *)eventPara
 582:cgmss.c       ****                                     if(0xfffeu == CyBle_Get16ByPtr(&((CYBLE_CGMS_CHAR_VALUE_T *)eve
 583:cgmss.c       ****                                     {
 584:cgmss.c       ****                                         socp[0u] = CYBLE_CGMS_SOCP_OPC_RSPC;
 585:cgmss.c       ****                                         socp[1u] = CYBLE_CGMS_SOCP_OPC_GGCV;
 586:cgmss.c       ****                                         socp[2u] = CYBLE_CGMS_SOCP_RSP_POOR;
 587:cgmss.c       ****                                         socpLength = 3u;
 588:cgmss.c       ****                                     }
 589:cgmss.c       ****                                     else
 590:cgmss.c       ****                                     {
 591:cgmss.c       ****                                     
 592:cgmss.c       ****                                         if(0xffffu == CyBle_Get16ByPtr(&((CYBLE_CGMS_CHAR_VALUE_T *
 593:cgmss.c       ****                                         {
ARM GAS  C:\Users\cypress\AppData\Local\Temp\ccgxY6Ea.s 			page 37


 594:cgmss.c       ****                                             socpRecNum++;
 595:cgmss.c       ****                                         }
 596:cgmss.c       ****                                         else
 597:cgmss.c       ****                                         {
 598:cgmss.c       ****                                             socpRecNum = CyBle_Get16ByPtr(&((CYBLE_CGMS_CHAR_VALUE_
 599:cgmss.c       ****                                         }
 600:cgmss.c       ****                                         
 601:cgmss.c       ****                                         socp[0u] = CYBLE_CGMS_SOCP_OPC_RGCV;
 602:cgmss.c       ****                                         DBG_PRINTF("Response:\r\n Glucose Concentration 0x004e(78mg
 603:cgmss.c       ****                                         CyBle_Set16ByPtr(&socp[1u], 0x004eu);
 604:cgmss.c       ****                                         DBG_PRINTF(" Calibration Time 0x0005 (5 minutes)\r\n");
 605:cgmss.c       ****                                         CyBle_Set16ByPtr(&socp[3u], 0x0005u);
 606:cgmss.c       ****                                         DBG_PRINTF(" Sample Location 0x06\r\n");
 607:cgmss.c       ****                                         socp[5] = 0x06u;
 608:cgmss.c       ****                                         DBG_PRINTF(" Next Calibration 0x0005 (5 minutes)\r\n");
 609:cgmss.c       ****                                         CyBle_Set16ByPtr(&socp[6u], 0x0005u);
 610:cgmss.c       ****                                         DBG_PRINTF(" Calibration Data Record Number 0x%4.4x \r\n", 
 611:cgmss.c       ****                                         CyBle_Set16ByPtr(&socp[8u], socpRecNum);
 612:cgmss.c       ****                                         DBG_PRINTF(" Calibration Status 0x00\r\n");
 613:cgmss.c       ****                                         socp[10u] = 0x00u;
 614:cgmss.c       ****                                         socpLength = 11u;
 615:cgmss.c       ****                                     }
 616:cgmss.c       ****                                     break;
 617:cgmss.c       ****                                     
 618:cgmss.c       ****                                 case CYBLE_CGMS_SOCP_OPC_GHAL:
 619:cgmss.c       ****                                     DBG_PRINTF("Get Patient High Alert Level\r\n"); 
 620:cgmss.c       ****                                     DBG_PRINTF("Response: Patient High Alert Level: 0x%4.4x\r\n", a
 621:cgmss.c       ****                                     socp[0u] = CYBLE_CGMS_SOCP_OPC_RHAL;
 622:cgmss.c       ****                                     CyBle_Set16ByPtr(&socp[1u], alrt.hal);
 623:cgmss.c       ****                                     break;
 624:cgmss.c       ****                                     
 625:cgmss.c       ****                                 case CYBLE_CGMS_SOCP_OPC_SHAL:
 626:cgmss.c       ****                                     DBG_PRINTF("Set Patient High Alert Level\r\n");
 627:cgmss.c       ****                                     socpOpd = CyBle_Get16ByPtr(&((CYBLE_CGMS_CHAR_VALUE_T *)eventPa
 628:cgmss.c       ****                                     socpOpdPtr = &alrt.hal;
 629:cgmss.c       ****                                     DBG_PRINTF("Operand: Patient High Alert Level: 0x%4.4x \r\n", s
 630:cgmss.c       ****                                     socp[1u] = CYBLE_CGMS_SOCP_OPC_SHAL;
 631:cgmss.c       ****                                     break;
 632:cgmss.c       ****                                     
 633:cgmss.c       ****                                 case CYBLE_CGMS_SOCP_OPC_GLAL:
 634:cgmss.c       ****                                     DBG_PRINTF("Get Patient Low Alert Level\r\n"); 
 635:cgmss.c       ****                                     DBG_PRINTF("Response: Patient High Alert Level: 0x%4.4x\r\n", a
 636:cgmss.c       ****                                     socp[0u] = CYBLE_CGMS_SOCP_OPC_RLAL;
 637:cgmss.c       ****                                     CyBle_Set16ByPtr(&socp[1u], alrt.lal);
 638:cgmss.c       ****                                     break;
 639:cgmss.c       ****                                     
 640:cgmss.c       ****                                 case CYBLE_CGMS_SOCP_OPC_SLAL:
 641:cgmss.c       ****                                     DBG_PRINTF("Set Patient Low Alert Level\r\n");
 642:cgmss.c       ****                                     socpOpd = CyBle_Get16ByPtr(&((CYBLE_CGMS_CHAR_VALUE_T *)eventPa
 643:cgmss.c       ****                                     socpOpdPtr = &alrt.lal;
 644:cgmss.c       ****                                     DBG_PRINTF("Operand: Patient Low Alert Level: 0x%4.4x \r\n", so
 645:cgmss.c       ****                                     socp[1u] = CYBLE_CGMS_SOCP_OPC_SLAL;
 646:cgmss.c       ****                                     break;
 647:cgmss.c       ****                                     
 648:cgmss.c       ****                                 case CYBLE_CGMS_SOCP_OPC_GHPO:
 649:cgmss.c       ****                                     DBG_PRINTF("Get Hypo Alert Level\r\n"); 
 650:cgmss.c       ****                                     DBG_PRINTF("Response: Hypo Alert Level: 0x%4.4x\r\n", alrt.hpo)
ARM GAS  C:\Users\cypress\AppData\Local\Temp\ccgxY6Ea.s 			page 38


 651:cgmss.c       ****                                     socp[0u] = CYBLE_CGMS_SOCP_OPC_RHPO;
 652:cgmss.c       ****                                     CyBle_Set16ByPtr(&socp[1u], alrt.hpo);
 653:cgmss.c       ****                                     break;
 654:cgmss.c       ****                                     
 655:cgmss.c       ****                                 case CYBLE_CGMS_SOCP_OPC_SHPO:
 656:cgmss.c       ****                                     DBG_PRINTF("Set Hypo Alert Level\r\n");
 657:cgmss.c       ****                                     socpOpd = CyBle_Get16ByPtr(&((CYBLE_CGMS_CHAR_VALUE_T *)eventPa
 658:cgmss.c       ****                                     socpOpdPtr = &alrt.hpo;
 659:cgmss.c       ****                                     DBG_PRINTF("Operand: Hypo Alert Level: 0x%4.4x \r\n", socpOpd);
 660:cgmss.c       ****                                     socp[1u] = CYBLE_CGMS_SOCP_OPC_SHPO;
 661:cgmss.c       ****                                     break;
 662:cgmss.c       ****                                     
 663:cgmss.c       ****                                 case CYBLE_CGMS_SOCP_OPC_GHPR:
 664:cgmss.c       ****                                     DBG_PRINTF("Get Hyper Alert Level\r\n"); 
 665:cgmss.c       ****                                     DBG_PRINTF("Response: Hyper Alert Level: 0x%4.4x\r\n", alrt.hpr
 666:cgmss.c       ****                                     socp[0u] = CYBLE_CGMS_SOCP_OPC_RHPR;
 667:cgmss.c       ****                                     CyBle_Set16ByPtr(&socp[1u], alrt.hpr);
 668:cgmss.c       ****                                     break;
 669:cgmss.c       ****                                     
 670:cgmss.c       ****                                 case CYBLE_CGMS_SOCP_OPC_SHPR:
 671:cgmss.c       ****                                     DBG_PRINTF("Set Hyper Alert Level\r\n");
 672:cgmss.c       ****                                     socpOpd = CyBle_Get16ByPtr(&((CYBLE_CGMS_CHAR_VALUE_T *)eventPa
 673:cgmss.c       ****                                     socpOpdPtr = &alrt.hpr;
 674:cgmss.c       ****                                     DBG_PRINTF("Operand: Hyper Alert Level: 0x%4.4x \r\n", socpOpd)
 675:cgmss.c       ****                                     socp[1u] = CYBLE_CGMS_SOCP_OPC_SHPR;
 676:cgmss.c       ****                                     break;
 677:cgmss.c       ****                                     
 678:cgmss.c       ****                                 case CYBLE_CGMS_SOCP_OPC_GDEC:
 679:cgmss.c       ****                                     DBG_PRINTF("Get Rate of Decrease Alert Level\r\n"); 
 680:cgmss.c       ****                                     DBG_PRINTF("Response: Rate of Decrease Alert Level: 0x%4.4x\r\n
 681:cgmss.c       ****                                     socp[0u] = CYBLE_CGMS_SOCP_OPC_RDEC;
 682:cgmss.c       ****                                     CyBle_Set16ByPtr(&socp[1u], alrt.dec);
 683:cgmss.c       ****                                     break;
 684:cgmss.c       ****                                     
 685:cgmss.c       ****                                 case CYBLE_CGMS_SOCP_OPC_SDEC:
 686:cgmss.c       ****                                     DBG_PRINTF("Set Rate of Decrease Alert Level\r\n");
 687:cgmss.c       ****                                     socpOpd = CyBle_Get16ByPtr(&((CYBLE_CGMS_CHAR_VALUE_T *)eventPa
 688:cgmss.c       ****                                     socpOpdPtr = &alrt.dec;
 689:cgmss.c       ****                                     DBG_PRINTF("Operand: Rate of Decrease Alert Level: 0x%4.4x \r\n
 690:cgmss.c       ****                                     socp[1u] = CYBLE_CGMS_SOCP_OPC_SDEC;
 691:cgmss.c       ****                                     break;
 692:cgmss.c       ****                                     
 693:cgmss.c       ****                                 case CYBLE_CGMS_SOCP_OPC_GINC:
 694:cgmss.c       ****                                     DBG_PRINTF("Get Rate of Increase Alert Level\r\n"); 
 695:cgmss.c       ****                                     DBG_PRINTF("Response: Rate of Increase Alert Level: 0x%4.4x\r\n
 696:cgmss.c       ****                                     socp[0u] = CYBLE_CGMS_SOCP_OPC_RINC;
 697:cgmss.c       ****                                     CyBle_Set16ByPtr(&socp[1u], alrt.inc);
 698:cgmss.c       ****                                     break;
 699:cgmss.c       ****                                     
 700:cgmss.c       ****                                 case CYBLE_CGMS_SOCP_OPC_SINC:
 701:cgmss.c       ****                                     DBG_PRINTF("Set Rate of Increase Alert Level\r\n");
 702:cgmss.c       ****                                     socpOpd = CyBle_Get16ByPtr(&((CYBLE_CGMS_CHAR_VALUE_T *)eventPa
 703:cgmss.c       ****                                     socpOpdPtr = &alrt.inc;
 704:cgmss.c       ****                                     DBG_PRINTF("Operand: Rate of Increase Alert Level: 0x%4.4x \r\n
 705:cgmss.c       ****                                     socp[1u] = CYBLE_CGMS_SOCP_OPC_SINC;
 706:cgmss.c       ****                                     break;
 707:cgmss.c       ****                                     
ARM GAS  C:\Users\cypress\AppData\Local\Temp\ccgxY6Ea.s 			page 39


 708:cgmss.c       ****                                 case CYBLE_CGMS_SOCP_OPC_RDSA:
 709:cgmss.c       ****                                     DBG_PRINTF("Reset Device Specific Alert\r\n"); 
 710:cgmss.c       ****                                     socp[1u] = CYBLE_CGMS_SOCP_OPC_RDSA;
 711:cgmss.c       ****                                     break;
 712:cgmss.c       ****                                     
 713:cgmss.c       ****                                 case CYBLE_CGMS_SOCP_OPC_STSN:
 714:cgmss.c       ****                                     DBG_PRINTF("Start the Session\r\n");
 715:cgmss.c       ****                                     apiResult = CyBle_CgmssGetCharacteristicValue(CYBLE_CGMS_CGST, 
 716:cgmss.c       ****                                     if(apiResult != CYBLE_ERROR_OK)
 717:cgmss.c       ****                                     {
 718:cgmss.c       ****                                         DBG_PRINTF("CyBle_CgmssGetCharacteristicValue API Error: ")
 719:cgmss.c       ****                                         PrintApiResult();
 720:cgmss.c       ****                                     }
 721:cgmss.c       ****                                     
 722:cgmss.c       ****                                     if(0u != (attr[2] & (uint8) CYBLE_CGMS_GLMT_SSA_SS))
 723:cgmss.c       ****                                     {
 724:cgmss.c       ****                                         attr[2u] &= (uint8) ~CYBLE_CGMS_GLMT_SSA_SS;
 725:cgmss.c       ****                                     
 726:cgmss.c       ****                                         apiResult = CyBle_CgmssSetCharacteristicValue(CYBLE_CGMS_CG
 727:cgmss.c       ****                                         if(apiResult != CYBLE_ERROR_OK)
 728:cgmss.c       ****                                         {
 729:cgmss.c       ****                                             DBG_PRINTF("CyBle_CgmssGetCharacteristicValue API Error
 730:cgmss.c       ****                                             PrintApiResult();
 731:cgmss.c       ****                                         }
 732:cgmss.c       ****                                     }
 733:cgmss.c       ****                                     else
 734:cgmss.c       ****                                     {
 735:cgmss.c       ****                                         socp[2u] = CYBLE_CGMS_SOCP_RSP_NO_COMPL;
 736:cgmss.c       ****                                     }
 737:cgmss.c       ****                                     socp[1u] = CYBLE_CGMS_SOCP_OPC_STSN;
 738:cgmss.c       ****                                     break;
 739:cgmss.c       ****                                     
 740:cgmss.c       ****                                 case CYBLE_CGMS_SOCP_OPC_SPSN:
 741:cgmss.c       ****                                     DBG_PRINTF("Stop the Session\r\n");
 742:cgmss.c       ****                                     apiResult = CyBle_CgmssGetCharacteristicValue(CYBLE_CGMS_CGST, 
 743:cgmss.c       ****                                     if(apiResult != CYBLE_ERROR_OK)
 744:cgmss.c       ****                                     {
 745:cgmss.c       ****                                         DBG_PRINTF("CyBle_CgmssGetCharacteristicValue API Error: ")
 746:cgmss.c       ****                                         PrintApiResult();
 747:cgmss.c       ****                                     }
 748:cgmss.c       ****                                     
 749:cgmss.c       ****                                     attr[2u] |= (uint8) CYBLE_CGMS_GLMT_SSA_SS;
 750:cgmss.c       ****                                     
 751:cgmss.c       ****                                     apiResult = CyBle_CgmssSetCharacteristicValue(CYBLE_CGMS_CGST, 
 752:cgmss.c       ****                                     if(apiResult != CYBLE_ERROR_OK)
 753:cgmss.c       ****                                     {
 754:cgmss.c       ****                                         DBG_PRINTF("CyBle_CgmssGetCharacteristicValue API Error: ")
 755:cgmss.c       ****                                         PrintApiResult();
 756:cgmss.c       ****                                     }
 757:cgmss.c       ****                                     
 758:cgmss.c       ****                                     socp[1u] = CYBLE_CGMS_SOCP_OPC_SPSN;
 759:cgmss.c       ****                                     break;
 760:cgmss.c       ****                                     
 761:cgmss.c       ****                                 default:
 762:cgmss.c       ****                                     DBG_PRINTF("Not Supported \r\n");
 763:cgmss.c       ****                                     break;
 764:cgmss.c       ****                             }
ARM GAS  C:\Users\cypress\AppData\Local\Temp\ccgxY6Ea.s 			page 40


 765:cgmss.c       ****                         }
 766:cgmss.c       ****                         break;
 767:cgmss.c       ****                         
 768:cgmss.c       ****                     default:
 769:cgmss.c       ****                         break;
 1141              		.loc 1 769 0
 1142 009c 00F053FD 		bl	.L62	@ far jump
 1143              	.L57:
 348:cgmss.c       ****                         
 1144              		.loc 1 348 0
 1145 00a0 3B68     		ldr	r3, [r7]
 1146 00a2 5B68     		ldr	r3, [r3, #4]
 1147 00a4 0D22     		movs	r2, #13
 1148 00a6 BC18     		adds	r4, r7, r2
 1149 00a8 1900     		movs	r1, r3
 1150 00aa 0920     		movs	r0, #9
 1151 00ac FFF7FEFF 		bl	CgmsCrcCheck
 1152 00b0 0300     		movs	r3, r0
 1153 00b2 2370     		strb	r3, [r4]
 350:cgmss.c       ****                         sstm.sst.month = ((CYBLE_CGMS_CHAR_VALUE_T *)eventParam)->value->val[2u];
 1154              		.loc 1 350 0
 1155 00b4 3B68     		ldr	r3, [r7]
 1156 00b6 5B68     		ldr	r3, [r3, #4]
 1157 00b8 1B68     		ldr	r3, [r3]
 1158 00ba 1800     		movs	r0, r3
 1159 00bc FFF7FEFF 		bl	CyBle_Get16ByPtr
 1160 00c0 0300     		movs	r3, r0
 1161 00c2 1A00     		movs	r2, r3
 1162 00c4 B44B     		ldr	r3, .L137+20
 1163 00c6 1A80     		strh	r2, [r3]
 351:cgmss.c       ****                         sstm.sst.day = ((CYBLE_CGMS_CHAR_VALUE_T *)eventParam)->value->val[3u];
 1164              		.loc 1 351 0
 1165 00c8 3B68     		ldr	r3, [r7]
 1166 00ca 5B68     		ldr	r3, [r3, #4]
 1167 00cc 1B68     		ldr	r3, [r3]
 1168 00ce 9A78     		ldrb	r2, [r3, #2]
 1169 00d0 B14B     		ldr	r3, .L137+20
 1170 00d2 9A70     		strb	r2, [r3, #2]
 352:cgmss.c       ****                         sstm.sst.hours = ((CYBLE_CGMS_CHAR_VALUE_T *)eventParam)->value->val[4u];
 1171              		.loc 1 352 0
 1172 00d4 3B68     		ldr	r3, [r7]
 1173 00d6 5B68     		ldr	r3, [r3, #4]
 1174 00d8 1B68     		ldr	r3, [r3]
 1175 00da DA78     		ldrb	r2, [r3, #3]
 1176 00dc AE4B     		ldr	r3, .L137+20
 1177 00de DA70     		strb	r2, [r3, #3]
 353:cgmss.c       ****                         sstm.sst.minutes = ((CYBLE_CGMS_CHAR_VALUE_T *)eventParam)->value->val[5u];
 1178              		.loc 1 353 0
 1179 00e0 3B68     		ldr	r3, [r7]
 1180 00e2 5B68     		ldr	r3, [r3, #4]
 1181 00e4 1B68     		ldr	r3, [r3]
 1182 00e6 1A79     		ldrb	r2, [r3, #4]
 1183 00e8 AB4B     		ldr	r3, .L137+20
 1184 00ea 1A71     		strb	r2, [r3, #4]
 354:cgmss.c       ****                         sstm.sst.seconds = ((CYBLE_CGMS_CHAR_VALUE_T *)eventParam)->value->val[6u];
 1185              		.loc 1 354 0
 1186 00ec 3B68     		ldr	r3, [r7]
ARM GAS  C:\Users\cypress\AppData\Local\Temp\ccgxY6Ea.s 			page 41


 1187 00ee 5B68     		ldr	r3, [r3, #4]
 1188 00f0 1B68     		ldr	r3, [r3]
 1189 00f2 5A79     		ldrb	r2, [r3, #5]
 1190 00f4 A84B     		ldr	r3, .L137+20
 1191 00f6 5A71     		strb	r2, [r3, #5]
 355:cgmss.c       ****                         sstm.timeZone = (CYBLE_TIME_ZONE_T)((CYBLE_CGMS_CHAR_VALUE_T *)eventParam)-
 1192              		.loc 1 355 0
 1193 00f8 3B68     		ldr	r3, [r7]
 1194 00fa 5B68     		ldr	r3, [r3, #4]
 1195 00fc 1B68     		ldr	r3, [r3]
 1196 00fe 9A79     		ldrb	r2, [r3, #6]
 1197 0100 A54B     		ldr	r3, .L137+20
 1198 0102 9A71     		strb	r2, [r3, #6]
 356:cgmss.c       ****                         sstm.dstOffset = (CYBLE_DSTOFFSET_T)((CYBLE_CGMS_CHAR_VALUE_T *)eventParam)
 1199              		.loc 1 356 0
 1200 0104 3B68     		ldr	r3, [r7]
 1201 0106 5B68     		ldr	r3, [r3, #4]
 1202 0108 1B68     		ldr	r3, [r3]
 1203 010a 0733     		adds	r3, r3, #7
 1204 010c 1B78     		ldrb	r3, [r3]
 1205 010e 5AB2     		sxtb	r2, r3
 1206 0110 A14B     		ldr	r3, .L137+20
 1207 0112 1A72     		strb	r2, [r3, #8]
 357:cgmss.c       ****                         
 1208              		.loc 1 357 0
 1209 0114 3B68     		ldr	r3, [r7]
 1210 0116 5B68     		ldr	r3, [r3, #4]
 1211 0118 1B68     		ldr	r3, [r3]
 1212 011a 0833     		adds	r3, r3, #8
 1213 011c 1A78     		ldrb	r2, [r3]
 1214 011e 9E4B     		ldr	r3, .L137+20
 1215 0120 5A72     		strb	r2, [r3, #9]
 359:cgmss.c       ****                         for(i = 0; i < CYBLE_TIME_ZONE_VAL_NUM; i++)
 1216              		.loc 1 359 0
 1217 0122 0D23     		movs	r3, #13
 1218 0124 FB18     		adds	r3, r7, r3
 1219 0126 0422     		movs	r2, #4
 1220 0128 1A70     		strb	r2, [r3]
 360:cgmss.c       ****                         {
 1221              		.loc 1 360 0
 1222 012a 984B     		ldr	r3, .L137+8
 1223 012c 0022     		movs	r2, #0
 1224 012e 1A80     		strh	r2, [r3]
 1225 0130 13E0     		b	.L58
 1226              	.L60:
 362:cgmss.c       ****                             {
 1227              		.loc 1 362 0
 1228 0132 964B     		ldr	r3, .L137+8
 1229 0134 1B88     		ldrh	r3, [r3]
 1230 0136 1A00     		movs	r2, r3
 1231 0138 984B     		ldr	r3, .L137+24
 1232 013a 9A56     		ldrsb	r2, [r3, r2]
 1233 013c 964B     		ldr	r3, .L137+20
 1234 013e 1B7A     		ldrb	r3, [r3, #8]
 1235 0140 5BB2     		sxtb	r3, r3
 1236 0142 9A42     		cmp	r2, r3
 1237 0144 03D1     		bne	.L59
ARM GAS  C:\Users\cypress\AppData\Local\Temp\ccgxY6Ea.s 			page 42


 364:cgmss.c       ****                             }
 1238              		.loc 1 364 0
 1239 0146 0D23     		movs	r3, #13
 1240 0148 FB18     		adds	r3, r7, r3
 1241 014a 0022     		movs	r2, #0
 1242 014c 1A70     		strb	r2, [r3]
 1243              	.L59:
 360:cgmss.c       ****                         {
 1244              		.loc 1 360 0 discriminator 2
 1245 014e 8F4B     		ldr	r3, .L137+8
 1246 0150 1B88     		ldrh	r3, [r3]
 1247 0152 0133     		adds	r3, r3, #1
 1248 0154 9AB2     		uxth	r2, r3
 1249 0156 8D4B     		ldr	r3, .L137+8
 1250 0158 1A80     		strh	r2, [r3]
 1251              	.L58:
 360:cgmss.c       ****                         {
 1252              		.loc 1 360 0 is_stmt 0 discriminator 1
 1253 015a 8C4B     		ldr	r3, .L137+8
 1254 015c 1B88     		ldrh	r3, [r3]
 1255 015e 272B     		cmp	r3, #39
 1256 0160 E7D9     		bls	.L60
 368:cgmss.c       ****                         {
 1257              		.loc 1 368 0 is_stmt 1
 1258 0162 0D23     		movs	r3, #13
 1259 0164 FB18     		adds	r3, r7, r3
 1260 0166 1B78     		ldrb	r3, [r3]
 1261 0168 002B     		cmp	r3, #0
 1262 016a 01D1     		bne	.LCB721
 1263 016c 00F0E8FC 		bl	.L134	@far jump
 1264              	.LCB721:
 370:cgmss.c       ****                         }
 1265              		.loc 1 370 0
 1266 0170 8B4B     		ldr	r3, .L137+28
 1267 0172 1800     		movs	r0, r3
 1268 0174 FFF7FEFF 		bl	puts
 372:cgmss.c       ****                     
 1269              		.loc 1 372 0
 1270 0178 00F0E2FC 		bl	.L134	@ far jump
 1271              	.L55:
 375:cgmss.c       ****                         
 1272              		.loc 1 375 0
 1273 017c 894B     		ldr	r3, .L137+32
 1274 017e 1B78     		ldrb	r3, [r3]
 1275 0180 0222     		movs	r2, #2
 1276 0182 1343     		orrs	r3, r2
 1277 0184 DAB2     		uxtb	r2, r3
 1278 0186 874B     		ldr	r3, .L137+32
 1279 0188 1A70     		strb	r2, [r3]
 377:cgmss.c       ****                         racpOpCode = ((CYBLE_CGMS_CHAR_VALUE_T *)eventParam)->value->val[0];
 1280              		.loc 1 377 0
 1281 018a 874B     		ldr	r3, .L137+36
 1282 018c 1800     		movs	r0, r3
 1283 018e FFF7FEFF 		bl	printf
 378:cgmss.c       ****                         switch(racpOpCode)
 1284              		.loc 1 378 0
 1285 0192 3B68     		ldr	r3, [r7]
ARM GAS  C:\Users\cypress\AppData\Local\Temp\ccgxY6Ea.s 			page 43


 1286 0194 5B68     		ldr	r3, [r3, #4]
 1287 0196 1B68     		ldr	r3, [r3]
 1288 0198 1A78     		ldrb	r2, [r3]
 1289 019a 844B     		ldr	r3, .L137+40
 1290 019c 1A70     		strb	r2, [r3]
 379:cgmss.c       ****                         {
 1291              		.loc 1 379 0
 1292 019e 834B     		ldr	r3, .L137+40
 1293 01a0 1B78     		ldrb	r3, [r3]
 1294 01a2 022B     		cmp	r3, #2
 1295 01a4 0DD0     		beq	.L64
 1296 01a6 02DC     		bgt	.L65
 1297 01a8 012B     		cmp	r3, #1
 1298 01aa 05D0     		beq	.L66
 1299 01ac 18E0     		b	.L63
 1300              	.L65:
 1301 01ae 032B     		cmp	r3, #3
 1302 01b0 0CD0     		beq	.L67
 1303 01b2 042B     		cmp	r3, #4
 1304 01b4 0FD0     		beq	.L68
 1305 01b6 13E0     		b	.L63
 1306              	.L66:
 382:cgmss.c       ****                                 break;
 1307              		.loc 1 382 0
 1308 01b8 7D4B     		ldr	r3, .L137+44
 1309 01ba 1800     		movs	r0, r3
 1310 01bc FFF7FEFF 		bl	puts
 383:cgmss.c       ****                                 
 1311              		.loc 1 383 0
 1312 01c0 13E0     		b	.L69
 1313              	.L64:
 386:cgmss.c       ****                                 break;
 1314              		.loc 1 386 0
 1315 01c2 7C4B     		ldr	r3, .L137+48
 1316 01c4 1800     		movs	r0, r3
 1317 01c6 FFF7FEFF 		bl	puts
 387:cgmss.c       ****                                 
 1318              		.loc 1 387 0
 1319 01ca 0EE0     		b	.L69
 1320              	.L67:
 390:cgmss.c       ****                                 break;
 1321              		.loc 1 390 0
 1322 01cc 7A4B     		ldr	r3, .L137+52
 1323 01ce 1800     		movs	r0, r3
 1324 01d0 FFF7FEFF 		bl	puts
 391:cgmss.c       ****                                 
 1325              		.loc 1 391 0
 1326 01d4 09E0     		b	.L69
 1327              	.L68:
 394:cgmss.c       ****                                 break;
 1328              		.loc 1 394 0
 1329 01d6 794B     		ldr	r3, .L137+56
 1330 01d8 1800     		movs	r0, r3
 1331 01da FFF7FEFF 		bl	puts
 395:cgmss.c       ****                                 
 1332              		.loc 1 395 0
 1333 01de 04E0     		b	.L69
ARM GAS  C:\Users\cypress\AppData\Local\Temp\ccgxY6Ea.s 			page 44


 1334              	.L63:
 398:cgmss.c       ****                                 break;
 1335              		.loc 1 398 0
 1336 01e0 774B     		ldr	r3, .L137+60
 1337 01e2 1800     		movs	r0, r3
 1338 01e4 FFF7FEFF 		bl	puts
 399:cgmss.c       ****                         }
 1339              		.loc 1 399 0
 1340 01e8 C046     		nop
 1341              	.L69:
 402:cgmss.c       ****                         racpOperator = ((CYBLE_CGMS_CHAR_VALUE_T *)eventParam)->value->val[1];
 1342              		.loc 1 402 0
 1343 01ea 764B     		ldr	r3, .L137+64
 1344 01ec 1800     		movs	r0, r3
 1345 01ee FFF7FEFF 		bl	printf
 403:cgmss.c       ****                         attr[3u] = CYBLE_CGMS_RACP_RSP_SUCCESS;
 1346              		.loc 1 403 0
 1347 01f2 3B68     		ldr	r3, [r7]
 1348 01f4 5B68     		ldr	r3, [r3, #4]
 1349 01f6 1B68     		ldr	r3, [r3]
 1350 01f8 5A78     		ldrb	r2, [r3, #1]
 1351 01fa 734B     		ldr	r3, .L137+68
 1352 01fc 1A70     		strb	r2, [r3]
 404:cgmss.c       ****                         switch(racpOperator)
 1353              		.loc 1 404 0
 1354 01fe 734B     		ldr	r3, .L137+72
 1355 0200 0122     		movs	r2, #1
 1356 0202 DA70     		strb	r2, [r3, #3]
 405:cgmss.c       ****                         {
 1357              		.loc 1 405 0
 1358 0204 704B     		ldr	r3, .L137+68
 1359 0206 1B78     		ldrb	r3, [r3]
 1360 0208 062B     		cmp	r3, #6
 1361 020a 00D9     		bls	.LCB814
 1362 020c 02E1     		b	.L70	@long jump
 1363              	.LCB814:
 1364 020e 9A00     		lsls	r2, r3, #2
 1365 0210 6F4B     		ldr	r3, .L137+76
 1366 0212 D318     		adds	r3, r2, r3
 1367 0214 1B68     		ldr	r3, [r3]
 1368 0216 9F46     		mov	pc, r3
 1369              		.section	.rodata
 1370              		.align	2
 1371              	.L72:
 1372 0a00 18020000 		.word	.L71
 1373 0a04 36020000 		.word	.L73
 1374 0a08 52020000 		.word	.L74
 1375 0a0c B8020000 		.word	.L75
 1376 0a10 1E030000 		.word	.L76
 1377 0a14 2C020000 		.word	.L77
 1378 0a18 22020000 		.word	.L78
 1379              		.section	.text.CgmsCallBack
 1380              	.L71:
 408:cgmss.c       ****                                 break;
 1381              		.loc 1 408 0
 1382 0218 6E4B     		ldr	r3, .L137+80
 1383 021a 1800     		movs	r0, r3
ARM GAS  C:\Users\cypress\AppData\Local\Temp\ccgxY6Ea.s 			page 45


 1384 021c FFF7FEFF 		bl	puts
 409:cgmss.c       ****                             
 1385              		.loc 1 409 0
 1386 0220 FEE0     		b	.L79
 1387              	.L78:
 412:cgmss.c       ****                                 break;
 1388              		.loc 1 412 0
 1389 0222 6D4B     		ldr	r3, .L137+84
 1390 0224 1800     		movs	r0, r3
 1391 0226 FFF7FEFF 		bl	puts
 413:cgmss.c       ****                                 
 1392              		.loc 1 413 0
 1393 022a F9E0     		b	.L79
 1394              	.L77:
 416:cgmss.c       ****                                 break;
 1395              		.loc 1 416 0
 1396 022c 6B4B     		ldr	r3, .L137+88
 1397 022e 1800     		movs	r0, r3
 1398 0230 FFF7FEFF 		bl	puts
 417:cgmss.c       ****                                 
 1399              		.loc 1 417 0
 1400 0234 F4E0     		b	.L79
 1401              	.L73:
 420:cgmss.c       ****                                 if(((CYBLE_CGMS_CHAR_VALUE_T *)eventParam)->value->len > 2u)
 1402              		.loc 1 420 0
 1403 0236 6A4B     		ldr	r3, .L137+92
 1404 0238 1800     		movs	r0, r3
 1405 023a FFF7FEFF 		bl	puts
 421:cgmss.c       ****                                 {
 1406              		.loc 1 421 0
 1407 023e 3B68     		ldr	r3, [r7]
 1408 0240 5B68     		ldr	r3, [r3, #4]
 1409 0242 9B88     		ldrh	r3, [r3, #4]
 1410 0244 022B     		cmp	r3, #2
 1411 0246 00D8     		bhi	.LCB854
 1412 0248 E9E0     		b	.L135	@long jump
 1413              	.LCB854:
 423:cgmss.c       ****                                 }
 1414              		.loc 1 423 0
 1415 024a 604B     		ldr	r3, .L137+72
 1416 024c 0522     		movs	r2, #5
 1417 024e DA70     		strb	r2, [r3, #3]
 425:cgmss.c       ****                             
 1418              		.loc 1 425 0
 1419 0250 E5E0     		b	.L135
 1420              	.L74:
 428:cgmss.c       ****                                 DBG_PRINTF("Operand: ");
 1421              		.loc 1 428 0
 1422 0252 644B     		ldr	r3, .L137+96
 1423 0254 1800     		movs	r0, r3
 1424 0256 FFF7FEFF 		bl	puts
 429:cgmss.c       ****                                 if(((CYBLE_CGMS_CHAR_VALUE_T *)eventParam)->value->len == 5u)
 1425              		.loc 1 429 0
 1426 025a 634B     		ldr	r3, .L137+100
 1427 025c 1800     		movs	r0, r3
 1428 025e FFF7FEFF 		bl	printf
 430:cgmss.c       ****                                 {
ARM GAS  C:\Users\cypress\AppData\Local\Temp\ccgxY6Ea.s 			page 46


 1429              		.loc 1 430 0
 1430 0262 3B68     		ldr	r3, [r7]
 1431 0264 5B68     		ldr	r3, [r3, #4]
 1432 0266 9B88     		ldrh	r3, [r3, #4]
 1433 0268 052B     		cmp	r3, #5
 1434 026a 1DD1     		bne	.L81
 432:cgmss.c       ****                                     if(CYBLE_CGMS_RACP_OPD_1 == racpOperand[0u])
 1435              		.loc 1 432 0
 1436 026c 3B68     		ldr	r3, [r7]
 1437 026e 5B68     		ldr	r3, [r3, #4]
 1438 0270 1B68     		ldr	r3, [r3]
 1439 0272 9A78     		ldrb	r2, [r3, #2]
 1440 0274 5D4B     		ldr	r3, .L137+104
 1441 0276 1A70     		strb	r2, [r3]
 433:cgmss.c       ****                                     {
 1442              		.loc 1 433 0
 1443 0278 5C4B     		ldr	r3, .L137+104
 1444 027a 1B78     		ldrb	r3, [r3]
 1445 027c 012B     		cmp	r3, #1
 1446 027e 0ED1     		bne	.L82
 435:cgmss.c       ****                                         DBG_PRINTF("Time Offset: %x \r\n", racpOperand[1u]);
 1447              		.loc 1 435 0
 1448 0280 3B68     		ldr	r3, [r7]
 1449 0282 5B68     		ldr	r3, [r3, #4]
 1450 0284 1B68     		ldr	r3, [r3]
 1451 0286 DA78     		ldrb	r2, [r3, #3]
 1452 0288 584B     		ldr	r3, .L137+104
 1453 028a 5A70     		strb	r2, [r3, #1]
 436:cgmss.c       ****                                     }
 1454              		.loc 1 436 0
 1455 028c 574B     		ldr	r3, .L137+104
 1456 028e 5B78     		ldrb	r3, [r3, #1]
 1457 0290 1A00     		movs	r2, r3
 1458 0292 574B     		ldr	r3, .L137+108
 1459 0294 1100     		movs	r1, r2
 1460 0296 1800     		movs	r0, r3
 1461 0298 FFF7FEFF 		bl	printf
 448:cgmss.c       ****                                 
 1462              		.loc 1 448 0
 1463 029c C0E0     		b	.L79
 1464              	.L82:
 440:cgmss.c       ****                                     }
 1465              		.loc 1 440 0
 1466 029e 484B     		ldr	r3, .L137+60
 1467 02a0 1800     		movs	r0, r3
 1468 02a2 FFF7FEFF 		bl	puts
 448:cgmss.c       ****                                 
 1469              		.loc 1 448 0
 1470 02a6 BBE0     		b	.L79
 1471              	.L81:
 445:cgmss.c       ****                                     DBG_PRINTF("Invalid \r\n");
 1472              		.loc 1 445 0
 1473 02a8 484B     		ldr	r3, .L137+72
 1474 02aa 0522     		movs	r2, #5
 1475 02ac DA70     		strb	r2, [r3, #3]
 446:cgmss.c       ****                                 }
 1476              		.loc 1 446 0
ARM GAS  C:\Users\cypress\AppData\Local\Temp\ccgxY6Ea.s 			page 47


 1477 02ae 514B     		ldr	r3, .L137+112
 1478 02b0 1800     		movs	r0, r3
 1479 02b2 FFF7FEFF 		bl	puts
 448:cgmss.c       ****                                 
 1480              		.loc 1 448 0
 1481 02b6 B3E0     		b	.L79
 1482              	.L75:
 451:cgmss.c       ****                                 DBG_PRINTF("Operand: ");
 1483              		.loc 1 451 0
 1484 02b8 4F4B     		ldr	r3, .L137+116
 1485 02ba 1800     		movs	r0, r3
 1486 02bc FFF7FEFF 		bl	puts
 452:cgmss.c       ****                                 if(((CYBLE_CGMS_CHAR_VALUE_T *)eventParam)->value->len == 5u)
 1487              		.loc 1 452 0
 1488 02c0 494B     		ldr	r3, .L137+100
 1489 02c2 1800     		movs	r0, r3
 1490 02c4 FFF7FEFF 		bl	printf
 453:cgmss.c       ****                                 {
 1491              		.loc 1 453 0
 1492 02c8 3B68     		ldr	r3, [r7]
 1493 02ca 5B68     		ldr	r3, [r3, #4]
 1494 02cc 9B88     		ldrh	r3, [r3, #4]
 1495 02ce 052B     		cmp	r3, #5
 1496 02d0 1DD1     		bne	.L85
 455:cgmss.c       ****                                     if(CYBLE_CGMS_RACP_OPD_1 == racpOperand[0u])
 1497              		.loc 1 455 0
 1498 02d2 3B68     		ldr	r3, [r7]
 1499 02d4 5B68     		ldr	r3, [r3, #4]
 1500 02d6 1B68     		ldr	r3, [r3]
 1501 02d8 9A78     		ldrb	r2, [r3, #2]
 1502 02da 444B     		ldr	r3, .L137+104
 1503 02dc 1A70     		strb	r2, [r3]
 456:cgmss.c       ****                                     {
 1504              		.loc 1 456 0
 1505 02de 434B     		ldr	r3, .L137+104
 1506 02e0 1B78     		ldrb	r3, [r3]
 1507 02e2 012B     		cmp	r3, #1
 1508 02e4 0ED1     		bne	.L86
 458:cgmss.c       ****                                         DBG_PRINTF("Time Offset: %x \r\n", racpOperand[1u]);
 1509              		.loc 1 458 0
 1510 02e6 3B68     		ldr	r3, [r7]
 1511 02e8 5B68     		ldr	r3, [r3, #4]
 1512 02ea 1B68     		ldr	r3, [r3]
 1513 02ec DA78     		ldrb	r2, [r3, #3]
 1514 02ee 3F4B     		ldr	r3, .L137+104
 1515 02f0 5A70     		strb	r2, [r3, #1]
 459:cgmss.c       ****                                     }
 1516              		.loc 1 459 0
 1517 02f2 3E4B     		ldr	r3, .L137+104
 1518 02f4 5B78     		ldrb	r3, [r3, #1]
 1519 02f6 1A00     		movs	r2, r3
 1520 02f8 3D4B     		ldr	r3, .L137+108
 1521 02fa 1100     		movs	r1, r2
 1522 02fc 1800     		movs	r0, r3
 1523 02fe FFF7FEFF 		bl	printf
 471:cgmss.c       ****                             
 1524              		.loc 1 471 0
ARM GAS  C:\Users\cypress\AppData\Local\Temp\ccgxY6Ea.s 			page 48


 1525 0302 8DE0     		b	.L79
 1526              	.L86:
 463:cgmss.c       ****                                     }
 1527              		.loc 1 463 0
 1528 0304 2E4B     		ldr	r3, .L137+60
 1529 0306 1800     		movs	r0, r3
 1530 0308 FFF7FEFF 		bl	puts
 471:cgmss.c       ****                             
 1531              		.loc 1 471 0
 1532 030c 88E0     		b	.L79
 1533              	.L85:
 468:cgmss.c       ****                                     DBG_PRINTF("Invalid \r\n");
 1534              		.loc 1 468 0
 1535 030e 2F4B     		ldr	r3, .L137+72
 1536 0310 0522     		movs	r2, #5
 1537 0312 DA70     		strb	r2, [r3, #3]
 469:cgmss.c       ****                                 }
 1538              		.loc 1 469 0
 1539 0314 374B     		ldr	r3, .L137+112
 1540 0316 1800     		movs	r0, r3
 1541 0318 FFF7FEFF 		bl	puts
 471:cgmss.c       ****                             
 1542              		.loc 1 471 0
 1543 031c 80E0     		b	.L79
 1544              	.L76:
 474:cgmss.c       ****                                 DBG_PRINTF("Operand: ");
 1545              		.loc 1 474 0
 1546 031e 374B     		ldr	r3, .L137+120
 1547 0320 1800     		movs	r0, r3
 1548 0322 FFF7FEFF 		bl	puts
 475:cgmss.c       ****                                 if(((CYBLE_CGMS_CHAR_VALUE_T *)eventParam)->value->len == 7u)
 1549              		.loc 1 475 0
 1550 0326 304B     		ldr	r3, .L137+100
 1551 0328 1800     		movs	r0, r3
 1552 032a FFF7FEFF 		bl	printf
 476:cgmss.c       ****                                 {
 1553              		.loc 1 476 0
 1554 032e 3B68     		ldr	r3, [r7]
 1555 0330 5B68     		ldr	r3, [r3, #4]
 1556 0332 9B88     		ldrh	r3, [r3, #4]
 1557 0334 072B     		cmp	r3, #7
 1558 0336 65D1     		bne	.L89
 478:cgmss.c       ****                                     if(CYBLE_CGMS_RACP_OPD_1 == racpOperand[0u])
 1559              		.loc 1 478 0
 1560 0338 3B68     		ldr	r3, [r7]
 1561 033a 5B68     		ldr	r3, [r3, #4]
 1562 033c 1B68     		ldr	r3, [r3]
 1563 033e 9A78     		ldrb	r2, [r3, #2]
 1564 0340 2A4B     		ldr	r3, .L137+104
 1565 0342 1A70     		strb	r2, [r3]
 479:cgmss.c       ****                                     {
 1566              		.loc 1 479 0
 1567 0344 294B     		ldr	r3, .L137+104
 1568 0346 1B78     		ldrb	r3, [r3]
 1569 0348 012B     		cmp	r3, #1
 1570 034a 16D1     		bne	.L90
 481:cgmss.c       ****                                         racpOperand[2] = ((CYBLE_CGMS_CHAR_VALUE_T *)eventParam)->v
ARM GAS  C:\Users\cypress\AppData\Local\Temp\ccgxY6Ea.s 			page 49


 1571              		.loc 1 481 0
 1572 034c 3B68     		ldr	r3, [r7]
 1573 034e 5B68     		ldr	r3, [r3, #4]
 1574 0350 1B68     		ldr	r3, [r3]
 1575 0352 DA78     		ldrb	r2, [r3, #3]
 1576 0354 254B     		ldr	r3, .L137+104
 1577 0356 5A70     		strb	r2, [r3, #1]
 482:cgmss.c       ****                                         DBG_PRINTF("Time Offsets: %x, %x \r\n", racpOperand[1u], ra
 1578              		.loc 1 482 0
 1579 0358 3B68     		ldr	r3, [r7]
 1580 035a 5B68     		ldr	r3, [r3, #4]
 1581 035c 1B68     		ldr	r3, [r3]
 1582 035e 5A79     		ldrb	r2, [r3, #5]
 1583 0360 224B     		ldr	r3, .L137+104
 1584 0362 9A70     		strb	r2, [r3, #2]
 483:cgmss.c       ****                                     }
 1585              		.loc 1 483 0
 1586 0364 214B     		ldr	r3, .L137+104
 1587 0366 5B78     		ldrb	r3, [r3, #1]
 1588 0368 1900     		movs	r1, r3
 1589 036a 204B     		ldr	r3, .L137+104
 1590 036c 9B78     		ldrb	r3, [r3, #2]
 1591 036e 1A00     		movs	r2, r3
 1592 0370 234B     		ldr	r3, .L137+124
 1593 0372 1800     		movs	r0, r3
 1594 0374 FFF7FEFF 		bl	printf
 495:cgmss.c       ****                         
 1595              		.loc 1 495 0
 1596 0378 52E0     		b	.L79
 1597              	.L90:
 487:cgmss.c       ****                                     }
 1598              		.loc 1 487 0
 1599 037a 114B     		ldr	r3, .L137+60
 1600 037c 1800     		movs	r0, r3
 1601 037e FFF7FEFF 		bl	puts
 495:cgmss.c       ****                         
 1602              		.loc 1 495 0
 1603 0382 4DE0     		b	.L79
 1604              	.L138:
 1605              		.align	2
 1606              	.L137:
 1607 0384 E8090000 		.word	.L46
 1608 0388 30010000 		.word	.LC35
 1609 038c 00000000 		.word	i
 1610 0390 40010000 		.word	.LC38
 1611 0394 48010000 		.word	.LC40
 1612 0398 00000000 		.word	sstm
 1613 039c 00000000 		.word	timeZone
 1614 03a0 4C010000 		.word	.LC44
 1615 03a4 00000000 		.word	cgmsFlag
 1616 03a8 5C010000 		.word	.LC47
 1617 03ac 00000000 		.word	racpOpCode
 1618 03b0 68010000 		.word	.LC50
 1619 03b4 80010000 		.word	.LC52
 1620 03b8 98010000 		.word	.LC54
 1621 03bc AC010000 		.word	.LC56
 1622 03c0 D0010000 		.word	.LC58
ARM GAS  C:\Users\cypress\AppData\Local\Temp\ccgxY6Ea.s 			page 50


 1623 03c4 DC010000 		.word	.LC60
 1624 03c8 00000000 		.word	racpOperator
 1625 03cc 00000000 		.word	attr
 1626 03d0 000A0000 		.word	.L72
 1627 03d4 E8010000 		.word	.LC65
 1628 03d8 F0010000 		.word	.LC67
 1629 03dc 00020000 		.word	.LC69
 1630 03e0 10020000 		.word	.LC71
 1631 03e4 20020000 		.word	.LC73
 1632 03e8 38020000 		.word	.LC75
 1633 03ec 00000000 		.word	racpOperand
 1634 03f0 44020000 		.word	.LC78
 1635 03f4 58020000 		.word	.LC80
 1636 03f8 64020000 		.word	.LC82
 1637 03fc 80020000 		.word	.LC84
 1638 0400 A0020000 		.word	.LC86
 1639              	.L89:
 492:cgmss.c       ****                                     DBG_PRINTF("Invalid \r\n");
 1640              		.loc 1 492 0
 1641 0404 EB4B     		ldr	r3, .L139
 1642 0406 0522     		movs	r2, #5
 1643 0408 DA70     		strb	r2, [r3, #3]
 493:cgmss.c       ****                                 }
 1644              		.loc 1 493 0
 1645 040a EB4B     		ldr	r3, .L139+4
 1646 040c 1800     		movs	r0, r3
 1647 040e FFF7FEFF 		bl	puts
 495:cgmss.c       ****                         
 1648              		.loc 1 495 0
 1649 0412 05E0     		b	.L79
 1650              	.L70:
 498:cgmss.c       ****                                 break;
 1651              		.loc 1 498 0
 1652 0414 E94B     		ldr	r3, .L139+8
 1653 0416 1800     		movs	r0, r3
 1654 0418 FFF7FEFF 		bl	puts
 499:cgmss.c       ****                         }
 1655              		.loc 1 499 0
 1656 041c 00E0     		b	.L79
 1657              	.L135:
 425:cgmss.c       ****                             
 1658              		.loc 1 425 0
 1659 041e C046     		nop
 1660              	.L79:
 501:cgmss.c       ****                         
 1661              		.loc 1 501 0 discriminator 7
 1662 0420 91E3     		b	.L62
 1663              	.L56:
 505:cgmss.c       ****                         socp[2u] = CYBLE_CGMS_SOCP_RSP_SUCCESS;
 1664              		.loc 1 505 0
 1665 0422 3B68     		ldr	r3, [r7]
 1666 0424 5B68     		ldr	r3, [r3, #4]
 1667 0426 1B68     		ldr	r3, [r3]
 1668 0428 1A78     		ldrb	r2, [r3]
 1669 042a E54B     		ldr	r3, .L139+12
 1670 042c 1A70     		strb	r2, [r3]
 506:cgmss.c       ****                         
ARM GAS  C:\Users\cypress\AppData\Local\Temp\ccgxY6Ea.s 			page 51


 1671              		.loc 1 506 0
 1672 042e E54B     		ldr	r3, .L139+16
 1673 0430 0122     		movs	r2, #1
 1674 0432 9A70     		strb	r2, [r3, #2]
 508:cgmss.c       ****                         {
 1675              		.loc 1 508 0
 1676 0434 E24B     		ldr	r3, .L139+12
 1677 0436 1B78     		ldrb	r3, [r3]
 1678 0438 1B2B     		cmp	r3, #27
 1679 043a 18D8     		bhi	.L93
 1680 043c 9A00     		lsls	r2, r3, #2
 1681 043e E24B     		ldr	r3, .L139+20
 1682 0440 D318     		adds	r3, r2, r3
 1683 0442 1B68     		ldr	r3, [r3]
 1684 0444 9F46     		mov	pc, r3
 1685              		.section	.rodata
 1686              		.align	2
 1687              	.L95:
 1688 0a1c 6E040000 		.word	.L93
 1689 0a20 50040000 		.word	.L94
 1690 0a24 6E040000 		.word	.L93
 1691 0a28 6E040000 		.word	.L93
 1692 0a2c 64040000 		.word	.L96
 1693 0a30 6E040000 		.word	.L93
 1694 0a34 6E040000 		.word	.L93
 1695 0a38 5A040000 		.word	.L97
 1696 0a3c 6E040000 		.word	.L93
 1697 0a40 6E040000 		.word	.L93
 1698 0a44 5A040000 		.word	.L97
 1699 0a48 6E040000 		.word	.L93
 1700 0a4c 6E040000 		.word	.L93
 1701 0a50 5A040000 		.word	.L97
 1702 0a54 6E040000 		.word	.L93
 1703 0a58 6E040000 		.word	.L93
 1704 0a5c 5A040000 		.word	.L97
 1705 0a60 6E040000 		.word	.L93
 1706 0a64 6E040000 		.word	.L93
 1707 0a68 5A040000 		.word	.L97
 1708 0a6c 6E040000 		.word	.L93
 1709 0a70 6E040000 		.word	.L93
 1710 0a74 5A040000 		.word	.L97
 1711 0a78 6E040000 		.word	.L93
 1712 0a7c 6E040000 		.word	.L93
 1713 0a80 6E040000 		.word	.L93
 1714 0a84 46040000 		.word	.L98
 1715 0a88 46040000 		.word	.L98
 1716              		.section	.text.CgmsCallBack
 1717              	.L98:
 512:cgmss.c       ****                                 break;
 1718              		.loc 1 512 0
 1719 0446 0E23     		movs	r3, #14
 1720 0448 FB18     		adds	r3, r7, r3
 1721 044a 0122     		movs	r2, #1
 1722 044c 1A80     		strh	r2, [r3]
 513:cgmss.c       ****                             
 1723              		.loc 1 513 0
 1724 044e 12E0     		b	.L99
ARM GAS  C:\Users\cypress\AppData\Local\Temp\ccgxY6Ea.s 			page 52


 1725              	.L94:
 516:cgmss.c       ****                                 break;
 1726              		.loc 1 516 0
 1727 0450 0E23     		movs	r3, #14
 1728 0452 FB18     		adds	r3, r7, r3
 1729 0454 0222     		movs	r2, #2
 1730 0456 1A80     		strh	r2, [r3]
 517:cgmss.c       ****                             
 1731              		.loc 1 517 0
 1732 0458 0DE0     		b	.L99
 1733              	.L97:
 525:cgmss.c       ****                                 break;
 1734              		.loc 1 525 0
 1735 045a 0E23     		movs	r3, #14
 1736 045c FB18     		adds	r3, r7, r3
 1737 045e 0322     		movs	r2, #3
 1738 0460 1A80     		strh	r2, [r3]
 526:cgmss.c       ****                             
 1739              		.loc 1 526 0
 1740 0462 08E0     		b	.L99
 1741              	.L96:
 529:cgmss.c       ****                                 break;
 1742              		.loc 1 529 0
 1743 0464 0E23     		movs	r3, #14
 1744 0466 FB18     		adds	r3, r7, r3
 1745 0468 0B22     		movs	r2, #11
 1746 046a 1A80     		strh	r2, [r3]
 530:cgmss.c       ****                             
 1747              		.loc 1 530 0
 1748 046c 03E0     		b	.L99
 1749              	.L93:
 533:cgmss.c       ****                                 break;
 1750              		.loc 1 533 0
 1751 046e D54B     		ldr	r3, .L139+16
 1752 0470 0222     		movs	r2, #2
 1753 0472 9A70     		strb	r2, [r3, #2]
 534:cgmss.c       ****                         }
 1754              		.loc 1 534 0
 1755 0474 C046     		nop
 1756              	.L99:
 537:cgmss.c       ****                         {
 1757              		.loc 1 537 0
 1758 0476 D34B     		ldr	r3, .L139+16
 1759 0478 9B78     		ldrb	r3, [r3, #2]
 1760 047a 012B     		cmp	r3, #1
 1761 047c 0CD1     		bne	.L100
 539:cgmss.c       ****                         }
 1762              		.loc 1 539 0
 1763 047e 3B68     		ldr	r3, [r7]
 1764 0480 5A68     		ldr	r2, [r3, #4]
 1765 0482 0D23     		movs	r3, #13
 1766 0484 FC18     		adds	r4, r7, r3
 1767 0486 0E23     		movs	r3, #14
 1768 0488 FB18     		adds	r3, r7, r3
 1769 048a 1B88     		ldrh	r3, [r3]
 1770 048c 1100     		movs	r1, r2
 1771 048e 1800     		movs	r0, r3
ARM GAS  C:\Users\cypress\AppData\Local\Temp\ccgxY6Ea.s 			page 53


 1772 0490 FFF7FEFF 		bl	CgmsCrcCheck
 1773 0494 0300     		movs	r3, r0
 1774 0496 2370     		strb	r3, [r4]
 1775              	.L100:
 542:cgmss.c       ****                         {
 1776              		.loc 1 542 0
 1777 0498 0D23     		movs	r3, #13
 1778 049a FB18     		adds	r3, r7, r3
 1779 049c 1B78     		ldrb	r3, [r3]
 1780 049e 002B     		cmp	r3, #0
 1781 04a0 00D0     		beq	.LCB1170
 1782 04a2 4FE3     		b	.L136	@long jump
 1783              	.LCB1170:
 544:cgmss.c       ****                             DBG_PRINTF("Opcode: ");
 1784              		.loc 1 544 0
 1785 04a4 C94B     		ldr	r3, .L139+24
 1786 04a6 1B78     		ldrb	r3, [r3]
 1787 04a8 0122     		movs	r2, #1
 1788 04aa 1343     		orrs	r3, r2
 1789 04ac DAB2     		uxtb	r2, r3
 1790 04ae C74B     		ldr	r3, .L139+24
 1791 04b0 1A70     		strb	r2, [r3]
 545:cgmss.c       ****                             
 1792              		.loc 1 545 0
 1793 04b2 C74B     		ldr	r3, .L139+28
 1794 04b4 1800     		movs	r0, r3
 1795 04b6 FFF7FEFF 		bl	printf
 547:cgmss.c       ****                             {
 1796              		.loc 1 547 0
 1797 04ba C14B     		ldr	r3, .L139+12
 1798 04bc 1B78     		ldrb	r3, [r3]
 1799 04be 1B2B     		cmp	r3, #27
 1800 04c0 00D9     		bls	.LCB1184
 1801 04c2 37E3     		b	.L102	@long jump
 1802              	.LCB1184:
 1803 04c4 9A00     		lsls	r2, r3, #2
 1804 04c6 C34B     		ldr	r3, .L139+32
 1805 04c8 D318     		adds	r3, r2, r3
 1806 04ca 1B68     		ldr	r3, [r3]
 1807 04cc 9F46     		mov	pc, r3
 1808              		.section	.rodata
 1809              		.align	2
 1810              	.L104:
 1811 0a8c 340B0000 		.word	.L102
 1812 0a90 F6040000 		.word	.L103
 1813 0a94 CE040000 		.word	.L105
 1814 0a98 340B0000 		.word	.L102
 1815 0a9c 22050000 		.word	.L106
 1816 0aa0 CE050000 		.word	.L107
 1817 0aa4 340B0000 		.word	.L102
 1818 0aa8 0C070000 		.word	.L108
 1819 0aac DE060000 		.word	.L109
 1820 0ab0 340B0000 		.word	.L102
 1821 0ab4 76070000 		.word	.L110
 1822 0ab8 48070000 		.word	.L111
 1823 0abc 340B0000 		.word	.L102
 1824 0ac0 A2080000 		.word	.L112
ARM GAS  C:\Users\cypress\AppData\Local\Temp\ccgxY6Ea.s 			page 54


 1825 0ac4 74080000 		.word	.L113
 1826 0ac8 340B0000 		.word	.L102
 1827 0acc 0C090000 		.word	.L114
 1828 0ad0 DE080000 		.word	.L115
 1829 0ad4 340B0000 		.word	.L102
 1830 0ad8 76090000 		.word	.L116
 1831 0adc 48090000 		.word	.L117
 1832 0ae0 340B0000 		.word	.L102
 1833 0ae4 E0090000 		.word	.L118
 1834 0ae8 B2090000 		.word	.L119
 1835 0aec 340B0000 		.word	.L102
 1836 0af0 1C0A0000 		.word	.L120
 1837 0af4 2C0A0000 		.word	.L121
 1838 0af8 BA0A0000 		.word	.L122
 1839              		.section	.text.CgmsCallBack
 1840              	.L105:
 550:cgmss.c       ****                                     DBG_PRINTF("Response: Communication Interval: 0x%2.2x\r\n", com
 1841              		.loc 1 550 0
 1842 04ce C24B     		ldr	r3, .L139+36
 1843 04d0 1800     		movs	r0, r3
 1844 04d2 FFF7FEFF 		bl	puts
 551:cgmss.c       ****                                     socp[0u] = CYBLE_CGMS_SOCP_OPC_RINT;
 1845              		.loc 1 551 0
 1846 04d6 C14B     		ldr	r3, .L139+40
 1847 04d8 1B78     		ldrb	r3, [r3]
 1848 04da 1A00     		movs	r2, r3
 1849 04dc C04B     		ldr	r3, .L139+44
 1850 04de 1100     		movs	r1, r2
 1851 04e0 1800     		movs	r0, r3
 1852 04e2 FFF7FEFF 		bl	printf
 552:cgmss.c       ****                                     socp[1u] = commInterval;
 1853              		.loc 1 552 0
 1854 04e6 B74B     		ldr	r3, .L139+16
 1855 04e8 0322     		movs	r2, #3
 1856 04ea 1A70     		strb	r2, [r3]
 553:cgmss.c       ****                                     break;
 1857              		.loc 1 553 0
 1858 04ec BB4B     		ldr	r3, .L139+40
 1859 04ee 1A78     		ldrb	r2, [r3]
 1860 04f0 B44B     		ldr	r3, .L139+16
 1861 04f2 5A70     		strb	r2, [r3, #1]
 554:cgmss.c       ****                                     
 1862              		.loc 1 554 0
 1863 04f4 23E3     		b	.L101
 1864              	.L103:
 557:cgmss.c       ****                                     commInterval = ((CYBLE_CGMS_CHAR_VALUE_T *)eventParam)->value->
 1865              		.loc 1 557 0
 1866 04f6 BB4B     		ldr	r3, .L139+48
 1867 04f8 1800     		movs	r0, r3
 1868 04fa FFF7FEFF 		bl	puts
 558:cgmss.c       ****                                     DBG_PRINTF("Operand: 0x%2.2x \r\n", commInterval);
 1869              		.loc 1 558 0
 1870 04fe 3B68     		ldr	r3, [r7]
 1871 0500 5B68     		ldr	r3, [r3, #4]
 1872 0502 1B68     		ldr	r3, [r3]
 1873 0504 5A78     		ldrb	r2, [r3, #1]
 1874 0506 B54B     		ldr	r3, .L139+40
ARM GAS  C:\Users\cypress\AppData\Local\Temp\ccgxY6Ea.s 			page 55


 1875 0508 1A70     		strb	r2, [r3]
 559:cgmss.c       ****                                     socp[1u] = CYBLE_CGMS_SOCP_OPC_SINT;
 1876              		.loc 1 559 0
 1877 050a B44B     		ldr	r3, .L139+40
 1878 050c 1B78     		ldrb	r3, [r3]
 1879 050e 1A00     		movs	r2, r3
 1880 0510 B54B     		ldr	r3, .L139+52
 1881 0512 1100     		movs	r1, r2
 1882 0514 1800     		movs	r0, r3
 1883 0516 FFF7FEFF 		bl	printf
 560:cgmss.c       ****                                     break;
 1884              		.loc 1 560 0
 1885 051a AA4B     		ldr	r3, .L139+16
 1886 051c 0122     		movs	r2, #1
 1887 051e 5A70     		strb	r2, [r3, #1]
 561:cgmss.c       ****                                     
 1888              		.loc 1 561 0
 1889 0520 0DE3     		b	.L101
 1890              	.L106:
 564:cgmss.c       ****                                     socp[1u] = CYBLE_CGMS_SOCP_OPC_SGCV;
 1891              		.loc 1 564 0
 1892 0522 B24B     		ldr	r3, .L139+56
 1893 0524 1800     		movs	r0, r3
 1894 0526 FFF7FEFF 		bl	puts
 565:cgmss.c       ****                                     DBG_PRINTF("Operand:\r\n Glucose Concentration 0x%4.4x\r\n",
 1895              		.loc 1 565 0
 1896 052a A64B     		ldr	r3, .L139+16
 1897 052c 0422     		movs	r2, #4
 1898 052e 5A70     		strb	r2, [r3, #1]
 566:cgmss.c       ****                                         CyBle_Get16ByPtr(&((CYBLE_CGMS_CHAR_VALUE_T *)eventParam)->
 1899              		.loc 1 566 0
 1900 0530 3B68     		ldr	r3, [r7]
 1901 0532 5B68     		ldr	r3, [r3, #4]
 1902 0534 1B68     		ldr	r3, [r3]
 1903 0536 0133     		adds	r3, r3, #1
 1904 0538 1800     		movs	r0, r3
 1905 053a FFF7FEFF 		bl	CyBle_Get16ByPtr
 1906 053e 0300     		movs	r3, r0
 1907 0540 1A00     		movs	r2, r3
 1908 0542 AB4B     		ldr	r3, .L139+60
 1909 0544 1100     		movs	r1, r2
 1910 0546 1800     		movs	r0, r3
 1911 0548 FFF7FEFF 		bl	printf
 568:cgmss.c       ****                                         CyBle_Get16ByPtr(&((CYBLE_CGMS_CHAR_VALUE_T *)eventParam)->
 1912              		.loc 1 568 0
 1913 054c 3B68     		ldr	r3, [r7]
 1914 054e 5B68     		ldr	r3, [r3, #4]
 1915 0550 1B68     		ldr	r3, [r3]
 1916 0552 0333     		adds	r3, r3, #3
 1917 0554 1800     		movs	r0, r3
 1918 0556 FFF7FEFF 		bl	CyBle_Get16ByPtr
 1919 055a 0300     		movs	r3, r0
 1920 055c 1A00     		movs	r2, r3
 1921 055e A54B     		ldr	r3, .L139+64
 1922 0560 1100     		movs	r1, r2
 1923 0562 1800     		movs	r0, r3
 1924 0564 FFF7FEFF 		bl	printf
ARM GAS  C:\Users\cypress\AppData\Local\Temp\ccgxY6Ea.s 			page 56


 570:cgmss.c       ****                                     DBG_PRINTF(" Next Calibration 0x%4.4x\r\n",
 1925              		.loc 1 570 0
 1926 0568 3B68     		ldr	r3, [r7]
 1927 056a 5B68     		ldr	r3, [r3, #4]
 1928 056c 1B68     		ldr	r3, [r3]
 1929 056e 0533     		adds	r3, r3, #5
 1930 0570 1B78     		ldrb	r3, [r3]
 1931 0572 1A00     		movs	r2, r3
 1932 0574 A04B     		ldr	r3, .L139+68
 1933 0576 1100     		movs	r1, r2
 1934 0578 1800     		movs	r0, r3
 1935 057a FFF7FEFF 		bl	printf
 571:cgmss.c       ****                                         CyBle_Get16ByPtr(&((CYBLE_CGMS_CHAR_VALUE_T *)eventParam)->
 1936              		.loc 1 571 0
 1937 057e 3B68     		ldr	r3, [r7]
 1938 0580 5B68     		ldr	r3, [r3, #4]
 1939 0582 1B68     		ldr	r3, [r3]
 1940 0584 0633     		adds	r3, r3, #6
 1941 0586 1800     		movs	r0, r3
 1942 0588 FFF7FEFF 		bl	CyBle_Get16ByPtr
 1943 058c 0300     		movs	r3, r0
 1944 058e 1A00     		movs	r2, r3
 1945 0590 9A4B     		ldr	r3, .L139+72
 1946 0592 1100     		movs	r1, r2
 1947 0594 1800     		movs	r0, r3
 1948 0596 FFF7FEFF 		bl	printf
 573:cgmss.c       ****                                         CyBle_Get16ByPtr(&((CYBLE_CGMS_CHAR_VALUE_T *)eventParam)->
 1949              		.loc 1 573 0
 1950 059a 3B68     		ldr	r3, [r7]
 1951 059c 5B68     		ldr	r3, [r3, #4]
 1952 059e 1B68     		ldr	r3, [r3]
 1953 05a0 0833     		adds	r3, r3, #8
 1954 05a2 1800     		movs	r0, r3
 1955 05a4 FFF7FEFF 		bl	CyBle_Get16ByPtr
 1956 05a8 0300     		movs	r3, r0
 1957 05aa 1A00     		movs	r2, r3
 1958 05ac 944B     		ldr	r3, .L139+76
 1959 05ae 1100     		movs	r1, r2
 1960 05b0 1800     		movs	r0, r3
 1961 05b2 FFF7FEFF 		bl	printf
 575:cgmss.c       ****                                     break;
 1962              		.loc 1 575 0
 1963 05b6 3B68     		ldr	r3, [r7]
 1964 05b8 5B68     		ldr	r3, [r3, #4]
 1965 05ba 1B68     		ldr	r3, [r3]
 1966 05bc 0A33     		adds	r3, r3, #10
 1967 05be 1B78     		ldrb	r3, [r3]
 1968 05c0 1A00     		movs	r2, r3
 1969 05c2 904B     		ldr	r3, .L139+80
 1970 05c4 1100     		movs	r1, r2
 1971 05c6 1800     		movs	r0, r3
 1972 05c8 FFF7FEFF 		bl	printf
 576:cgmss.c       ****                                     
 1973              		.loc 1 576 0
 1974 05cc B7E2     		b	.L101
 1975              	.L107:
 579:cgmss.c       ****                                     DBG_PRINTF("Operand: Calibration Data Record Number: 0x%4.4x \r
ARM GAS  C:\Users\cypress\AppData\Local\Temp\ccgxY6Ea.s 			page 57


 1976              		.loc 1 579 0
 1977 05ce 8E4B     		ldr	r3, .L139+84
 1978 05d0 1800     		movs	r0, r3
 1979 05d2 FFF7FEFF 		bl	puts
 580:cgmss.c       ****                                             CyBle_Get16ByPtr(&((CYBLE_CGMS_CHAR_VALUE_T *)eventPara
 1980              		.loc 1 580 0
 1981 05d6 3B68     		ldr	r3, [r7]
 1982 05d8 5B68     		ldr	r3, [r3, #4]
 1983 05da 1B68     		ldr	r3, [r3]
 1984 05dc 0133     		adds	r3, r3, #1
 1985 05de 1800     		movs	r0, r3
 1986 05e0 FFF7FEFF 		bl	CyBle_Get16ByPtr
 1987 05e4 0300     		movs	r3, r0
 1988 05e6 1A00     		movs	r2, r3
 1989 05e8 884B     		ldr	r3, .L139+88
 1990 05ea 1100     		movs	r1, r2
 1991 05ec 1800     		movs	r0, r3
 1992 05ee FFF7FEFF 		bl	printf
 582:cgmss.c       ****                                     {
 1993              		.loc 1 582 0
 1994 05f2 3B68     		ldr	r3, [r7]
 1995 05f4 5B68     		ldr	r3, [r3, #4]
 1996 05f6 1B68     		ldr	r3, [r3]
 1997 05f8 0133     		adds	r3, r3, #1
 1998 05fa 1800     		movs	r0, r3
 1999 05fc FFF7FEFF 		bl	CyBle_Get16ByPtr
 2000 0600 0300     		movs	r3, r0
 2001 0602 1A00     		movs	r2, r3
 2002 0604 824B     		ldr	r3, .L139+92
 2003 0606 9A42     		cmp	r2, r3
 2004 0608 0CD1     		bne	.L123
 584:cgmss.c       ****                                         socp[1u] = CYBLE_CGMS_SOCP_OPC_GGCV;
 2005              		.loc 1 584 0
 2006 060a 6E4B     		ldr	r3, .L139+16
 2007 060c 1C22     		movs	r2, #28
 2008 060e 1A70     		strb	r2, [r3]
 585:cgmss.c       ****                                         socp[2u] = CYBLE_CGMS_SOCP_RSP_POOR;
 2009              		.loc 1 585 0
 2010 0610 6C4B     		ldr	r3, .L139+16
 2011 0612 0522     		movs	r2, #5
 2012 0614 5A70     		strb	r2, [r3, #1]
 586:cgmss.c       ****                                         socpLength = 3u;
 2013              		.loc 1 586 0
 2014 0616 6B4B     		ldr	r3, .L139+16
 2015 0618 0522     		movs	r2, #5
 2016 061a 9A70     		strb	r2, [r3, #2]
 587:cgmss.c       ****                                     }
 2017              		.loc 1 587 0
 2018 061c 7D4B     		ldr	r3, .L139+96
 2019 061e 0322     		movs	r2, #3
 2020 0620 1A70     		strb	r2, [r3]
 616:cgmss.c       ****                                     
 2021              		.loc 1 616 0
 2022 0622 8CE2     		b	.L101
 2023              	.L123:
 592:cgmss.c       ****                                         {
 2024              		.loc 1 592 0
ARM GAS  C:\Users\cypress\AppData\Local\Temp\ccgxY6Ea.s 			page 58


 2025 0624 3B68     		ldr	r3, [r7]
 2026 0626 5B68     		ldr	r3, [r3, #4]
 2027 0628 1B68     		ldr	r3, [r3]
 2028 062a 0133     		adds	r3, r3, #1
 2029 062c 1800     		movs	r0, r3
 2030 062e FFF7FEFF 		bl	CyBle_Get16ByPtr
 2031 0632 0300     		movs	r3, r0
 2032 0634 1A00     		movs	r2, r3
 2033 0636 784B     		ldr	r3, .L139+100
 2034 0638 9A42     		cmp	r2, r3
 2035 063a 06D1     		bne	.L125
 594:cgmss.c       ****                                         }
 2036              		.loc 1 594 0
 2037 063c 774B     		ldr	r3, .L139+104
 2038 063e 1B88     		ldrh	r3, [r3]
 2039 0640 0133     		adds	r3, r3, #1
 2040 0642 9AB2     		uxth	r2, r3
 2041 0644 754B     		ldr	r3, .L139+104
 2042 0646 1A80     		strh	r2, [r3]
 2043 0648 0AE0     		b	.L126
 2044              	.L125:
 598:cgmss.c       ****                                         }
 2045              		.loc 1 598 0
 2046 064a 3B68     		ldr	r3, [r7]
 2047 064c 5B68     		ldr	r3, [r3, #4]
 2048 064e 1B68     		ldr	r3, [r3]
 2049 0650 0133     		adds	r3, r3, #1
 2050 0652 1800     		movs	r0, r3
 2051 0654 FFF7FEFF 		bl	CyBle_Get16ByPtr
 2052 0658 0300     		movs	r3, r0
 2053 065a 1A00     		movs	r2, r3
 2054 065c 6F4B     		ldr	r3, .L139+104
 2055 065e 1A80     		strh	r2, [r3]
 2056              	.L126:
 601:cgmss.c       ****                                         DBG_PRINTF("Response:\r\n Glucose Concentration 0x004e(78mg
 2057              		.loc 1 601 0
 2058 0660 584B     		ldr	r3, .L139+16
 2059 0662 0622     		movs	r2, #6
 2060 0664 1A70     		strb	r2, [r3]
 602:cgmss.c       ****                                         CyBle_Set16ByPtr(&socp[1u], 0x004eu);
 2061              		.loc 1 602 0
 2062 0666 6E4B     		ldr	r3, .L139+108
 2063 0668 1800     		movs	r0, r3
 2064 066a FFF7FEFF 		bl	puts
 603:cgmss.c       ****                                         DBG_PRINTF(" Calibration Time 0x0005 (5 minutes)\r\n");
 2065              		.loc 1 603 0
 2066 066e 6D4B     		ldr	r3, .L139+112
 2067 0670 4E21     		movs	r1, #78
 2068 0672 1800     		movs	r0, r3
 2069 0674 FFF7FEFF 		bl	CyBle_Set16ByPtr
 604:cgmss.c       ****                                         CyBle_Set16ByPtr(&socp[3u], 0x0005u);
 2070              		.loc 1 604 0
 2071 0678 6B4B     		ldr	r3, .L139+116
 2072 067a 1800     		movs	r0, r3
 2073 067c FFF7FEFF 		bl	puts
 605:cgmss.c       ****                                         DBG_PRINTF(" Sample Location 0x06\r\n");
 2074              		.loc 1 605 0
ARM GAS  C:\Users\cypress\AppData\Local\Temp\ccgxY6Ea.s 			page 59


 2075 0680 6A4B     		ldr	r3, .L139+120
 2076 0682 0521     		movs	r1, #5
 2077 0684 1800     		movs	r0, r3
 2078 0686 FFF7FEFF 		bl	CyBle_Set16ByPtr
 606:cgmss.c       ****                                         socp[5] = 0x06u;
 2079              		.loc 1 606 0
 2080 068a 694B     		ldr	r3, .L139+124
 2081 068c 1800     		movs	r0, r3
 2082 068e FFF7FEFF 		bl	puts
 607:cgmss.c       ****                                         DBG_PRINTF(" Next Calibration 0x0005 (5 minutes)\r\n");
 2083              		.loc 1 607 0
 2084 0692 4C4B     		ldr	r3, .L139+16
 2085 0694 0622     		movs	r2, #6
 2086 0696 5A71     		strb	r2, [r3, #5]
 608:cgmss.c       ****                                         CyBle_Set16ByPtr(&socp[6u], 0x0005u);
 2087              		.loc 1 608 0
 2088 0698 664B     		ldr	r3, .L139+128
 2089 069a 1800     		movs	r0, r3
 2090 069c FFF7FEFF 		bl	puts
 609:cgmss.c       ****                                         DBG_PRINTF(" Calibration Data Record Number 0x%4.4x \r\n", 
 2091              		.loc 1 609 0
 2092 06a0 654B     		ldr	r3, .L139+132
 2093 06a2 0521     		movs	r1, #5
 2094 06a4 1800     		movs	r0, r3
 2095 06a6 FFF7FEFF 		bl	CyBle_Set16ByPtr
 610:cgmss.c       ****                                         CyBle_Set16ByPtr(&socp[8u], socpRecNum);
 2096              		.loc 1 610 0
 2097 06aa 5C4B     		ldr	r3, .L139+104
 2098 06ac 1B88     		ldrh	r3, [r3]
 2099 06ae 1A00     		movs	r2, r3
 2100 06b0 624B     		ldr	r3, .L139+136
 2101 06b2 1100     		movs	r1, r2
 2102 06b4 1800     		movs	r0, r3
 2103 06b6 FFF7FEFF 		bl	printf
 611:cgmss.c       ****                                         DBG_PRINTF(" Calibration Status 0x00\r\n");
 2104              		.loc 1 611 0
 2105 06ba 584B     		ldr	r3, .L139+104
 2106 06bc 1A88     		ldrh	r2, [r3]
 2107 06be 604B     		ldr	r3, .L139+140
 2108 06c0 1100     		movs	r1, r2
 2109 06c2 1800     		movs	r0, r3
 2110 06c4 FFF7FEFF 		bl	CyBle_Set16ByPtr
 612:cgmss.c       ****                                         socp[10u] = 0x00u;
 2111              		.loc 1 612 0
 2112 06c8 5E4B     		ldr	r3, .L139+144
 2113 06ca 1800     		movs	r0, r3
 2114 06cc FFF7FEFF 		bl	puts
 613:cgmss.c       ****                                         socpLength = 11u;
 2115              		.loc 1 613 0
 2116 06d0 3C4B     		ldr	r3, .L139+16
 2117 06d2 0022     		movs	r2, #0
 2118 06d4 9A72     		strb	r2, [r3, #10]
 614:cgmss.c       ****                                     }
 2119              		.loc 1 614 0
 2120 06d6 4F4B     		ldr	r3, .L139+96
 2121 06d8 0B22     		movs	r2, #11
 2122 06da 1A70     		strb	r2, [r3]
ARM GAS  C:\Users\cypress\AppData\Local\Temp\ccgxY6Ea.s 			page 60


 616:cgmss.c       ****                                     
 2123              		.loc 1 616 0
 2124 06dc 2FE2     		b	.L101
 2125              	.L109:
 619:cgmss.c       ****                                     DBG_PRINTF("Response: Patient High Alert Level: 0x%4.4x\r\n", a
 2126              		.loc 1 619 0
 2127 06de 5A4B     		ldr	r3, .L139+148
 2128 06e0 1800     		movs	r0, r3
 2129 06e2 FFF7FEFF 		bl	puts
 620:cgmss.c       ****                                     socp[0u] = CYBLE_CGMS_SOCP_OPC_RHAL;
 2130              		.loc 1 620 0
 2131 06e6 594B     		ldr	r3, .L139+152
 2132 06e8 1B88     		ldrh	r3, [r3]
 2133 06ea 1A00     		movs	r2, r3
 2134 06ec 584B     		ldr	r3, .L139+156
 2135 06ee 1100     		movs	r1, r2
 2136 06f0 1800     		movs	r0, r3
 2137 06f2 FFF7FEFF 		bl	printf
 621:cgmss.c       ****                                     CyBle_Set16ByPtr(&socp[1u], alrt.hal);
 2138              		.loc 1 621 0
 2139 06f6 334B     		ldr	r3, .L139+16
 2140 06f8 0922     		movs	r2, #9
 2141 06fa 1A70     		strb	r2, [r3]
 622:cgmss.c       ****                                     break;
 2142              		.loc 1 622 0
 2143 06fc 534B     		ldr	r3, .L139+152
 2144 06fe 1A88     		ldrh	r2, [r3]
 2145 0700 484B     		ldr	r3, .L139+112
 2146 0702 1100     		movs	r1, r2
 2147 0704 1800     		movs	r0, r3
 2148 0706 FFF7FEFF 		bl	CyBle_Set16ByPtr
 623:cgmss.c       ****                                     
 2149              		.loc 1 623 0
 2150 070a 18E2     		b	.L101
 2151              	.L108:
 626:cgmss.c       ****                                     socpOpd = CyBle_Get16ByPtr(&((CYBLE_CGMS_CHAR_VALUE_T *)eventPa
 2152              		.loc 1 626 0
 2153 070c 514B     		ldr	r3, .L139+160
 2154 070e 1800     		movs	r0, r3
 2155 0710 FFF7FEFF 		bl	puts
 627:cgmss.c       ****                                     socpOpdPtr = &alrt.hal;
 2156              		.loc 1 627 0
 2157 0714 3B68     		ldr	r3, [r7]
 2158 0716 5B68     		ldr	r3, [r3, #4]
 2159 0718 1B68     		ldr	r3, [r3]
 2160 071a 0133     		adds	r3, r3, #1
 2161 071c 1800     		movs	r0, r3
 2162 071e FFF7FEFF 		bl	CyBle_Get16ByPtr
 2163 0722 0300     		movs	r3, r0
 2164 0724 1A00     		movs	r2, r3
 2165 0726 4C4B     		ldr	r3, .L139+164
 2166 0728 1A80     		strh	r2, [r3]
 628:cgmss.c       ****                                     DBG_PRINTF("Operand: Patient High Alert Level: 0x%4.4x \r\n", s
 2167              		.loc 1 628 0
 2168 072a 4C4B     		ldr	r3, .L139+168
 2169 072c 474A     		ldr	r2, .L139+152
 2170 072e 1A60     		str	r2, [r3]
ARM GAS  C:\Users\cypress\AppData\Local\Temp\ccgxY6Ea.s 			page 61


 629:cgmss.c       ****                                     socp[1u] = CYBLE_CGMS_SOCP_OPC_SHAL;
 2171              		.loc 1 629 0
 2172 0730 494B     		ldr	r3, .L139+164
 2173 0732 1B88     		ldrh	r3, [r3]
 2174 0734 1A00     		movs	r2, r3
 2175 0736 4A4B     		ldr	r3, .L139+172
 2176 0738 1100     		movs	r1, r2
 2177 073a 1800     		movs	r0, r3
 2178 073c FFF7FEFF 		bl	printf
 630:cgmss.c       ****                                     break;
 2179              		.loc 1 630 0
 2180 0740 204B     		ldr	r3, .L139+16
 2181 0742 0722     		movs	r2, #7
 2182 0744 5A70     		strb	r2, [r3, #1]
 631:cgmss.c       ****                                     
 2183              		.loc 1 631 0
 2184 0746 FAE1     		b	.L101
 2185              	.L111:
 634:cgmss.c       ****                                     DBG_PRINTF("Response: Patient High Alert Level: 0x%4.4x\r\n", a
 2186              		.loc 1 634 0
 2187 0748 464B     		ldr	r3, .L139+176
 2188 074a 1800     		movs	r0, r3
 2189 074c FFF7FEFF 		bl	puts
 635:cgmss.c       ****                                     socp[0u] = CYBLE_CGMS_SOCP_OPC_RLAL;
 2190              		.loc 1 635 0
 2191 0750 3E4B     		ldr	r3, .L139+152
 2192 0752 5B88     		ldrh	r3, [r3, #2]
 2193 0754 1A00     		movs	r2, r3
 2194 0756 3E4B     		ldr	r3, .L139+156
 2195 0758 1100     		movs	r1, r2
 2196 075a 1800     		movs	r0, r3
 2197 075c FFF7FEFF 		bl	printf
 636:cgmss.c       ****                                     CyBle_Set16ByPtr(&socp[1u], alrt.lal);
 2198              		.loc 1 636 0
 2199 0760 184B     		ldr	r3, .L139+16
 2200 0762 0C22     		movs	r2, #12
 2201 0764 1A70     		strb	r2, [r3]
 637:cgmss.c       ****                                     break;
 2202              		.loc 1 637 0
 2203 0766 394B     		ldr	r3, .L139+152
 2204 0768 5A88     		ldrh	r2, [r3, #2]
 2205 076a 2E4B     		ldr	r3, .L139+112
 2206 076c 1100     		movs	r1, r2
 2207 076e 1800     		movs	r0, r3
 2208 0770 FFF7FEFF 		bl	CyBle_Set16ByPtr
 638:cgmss.c       ****                                     
 2209              		.loc 1 638 0
 2210 0774 E3E1     		b	.L101
 2211              	.L110:
 641:cgmss.c       ****                                     socpOpd = CyBle_Get16ByPtr(&((CYBLE_CGMS_CHAR_VALUE_T *)eventPa
 2212              		.loc 1 641 0
 2213 0776 3C4B     		ldr	r3, .L139+180
 2214 0778 1800     		movs	r0, r3
 2215 077a FFF7FEFF 		bl	puts
 642:cgmss.c       ****                                     socpOpdPtr = &alrt.lal;
 2216              		.loc 1 642 0
 2217 077e 3B68     		ldr	r3, [r7]
ARM GAS  C:\Users\cypress\AppData\Local\Temp\ccgxY6Ea.s 			page 62


 2218 0780 5B68     		ldr	r3, [r3, #4]
 2219 0782 1B68     		ldr	r3, [r3]
 2220 0784 0133     		adds	r3, r3, #1
 2221 0786 1800     		movs	r0, r3
 2222 0788 FFF7FEFF 		bl	CyBle_Get16ByPtr
 2223 078c 0300     		movs	r3, r0
 2224 078e 1A00     		movs	r2, r3
 2225 0790 314B     		ldr	r3, .L139+164
 2226 0792 1A80     		strh	r2, [r3]
 643:cgmss.c       ****                                     DBG_PRINTF("Operand: Patient Low Alert Level: 0x%4.4x \r\n", so
 2227              		.loc 1 643 0
 2228 0794 314B     		ldr	r3, .L139+168
 2229 0796 354A     		ldr	r2, .L139+184
 2230 0798 1A60     		str	r2, [r3]
 644:cgmss.c       ****                                     socp[1u] = CYBLE_CGMS_SOCP_OPC_SLAL;
 2231              		.loc 1 644 0
 2232 079a 2F4B     		ldr	r3, .L139+164
 2233 079c 1B88     		ldrh	r3, [r3]
 2234 079e 1A00     		movs	r2, r3
 2235 07a0 334B     		ldr	r3, .L139+188
 2236 07a2 1100     		movs	r1, r2
 2237 07a4 1800     		movs	r0, r3
 2238 07a6 FFF7FEFF 		bl	printf
 645:cgmss.c       ****                                     break;
 2239              		.loc 1 645 0
 2240 07aa 064B     		ldr	r3, .L139+16
 2241 07ac 0A22     		movs	r2, #10
 2242 07ae 5A70     		strb	r2, [r3, #1]
 646:cgmss.c       ****                                     
 2243              		.loc 1 646 0
 2244 07b0 C5E1     		b	.L101
 2245              	.L140:
 2246 07b2 C046     		.align	2
 2247              	.L139:
 2248 07b4 00000000 		.word	attr
 2249 07b8 58020000 		.word	.LC80
 2250 07bc D0010000 		.word	.LC58
 2251 07c0 00000000 		.word	socpOpCode
 2252 07c4 00000000 		.word	socp
 2253 07c8 1C0A0000 		.word	.L95
 2254 07cc 00000000 		.word	cgmsFlag
 2255 07d0 5C010000 		.word	.LC47
 2256 07d4 8C0A0000 		.word	.L104
 2257 07d8 B8020000 		.word	.LC92
 2258 07dc 00000000 		.word	commInterval
 2259 07e0 D8020000 		.word	.LC95
 2260 07e4 04030000 		.word	.LC97
 2261 07e8 24030000 		.word	.LC99
 2262 07ec 38030000 		.word	.LC101
 2263 07f0 58030000 		.word	.LC103
 2264 07f4 84030000 		.word	.LC105
 2265 07f8 A0030000 		.word	.LC107
 2266 07fc BC030000 		.word	.LC109
 2267 0800 D8030000 		.word	.LC111
 2268 0804 04040000 		.word	.LC113
 2269 0808 24040000 		.word	.LC115
 2270 080c 44040000 		.word	.LC117
ARM GAS  C:\Users\cypress\AppData\Local\Temp\ccgxY6Ea.s 			page 63


 2271 0810 FEFF0000 		.word	65534
 2272 0814 00000000 		.word	socpLength
 2273 0818 FFFF0000 		.word	65535
 2274 081c 00000000 		.word	socpRecNum
 2275 0820 78040000 		.word	.LC121
 2276 0824 01000000 		.word	socp+1
 2277 0828 AC040000 		.word	.LC124
 2278 082c 03000000 		.word	socp+3
 2279 0830 D4040000 		.word	.LC127
 2280 0834 EC040000 		.word	.LC129
 2281 0838 06000000 		.word	socp+6
 2282 083c 14050000 		.word	.LC132
 2283 0840 08000000 		.word	socp+8
 2284 0844 40050000 		.word	.LC135
 2285 0848 5C050000 		.word	.LC137
 2286 084c 00000000 		.word	alrt
 2287 0850 7C050000 		.word	.LC140
 2288 0854 AC050000 		.word	.LC142
 2289 0858 00000000 		.word	socpOpd
 2290 085c 00000000 		.word	socpOpdPtr
 2291 0860 CC050000 		.word	.LC146
 2292 0864 FC050000 		.word	.LC148
 2293 0868 1C060000 		.word	.LC150
 2294 086c 02000000 		.word	alrt+2
 2295 0870 3C060000 		.word	.LC153
 2296              	.L113:
 649:cgmss.c       ****                                     DBG_PRINTF("Response: Hypo Alert Level: 0x%4.4x\r\n", alrt.hpo)
 2297              		.loc 1 649 0
 2298 0874 C94B     		ldr	r3, .L141
 2299 0876 1800     		movs	r0, r3
 2300 0878 FFF7FEFF 		bl	puts
 650:cgmss.c       ****                                     socp[0u] = CYBLE_CGMS_SOCP_OPC_RHPO;
 2301              		.loc 1 650 0
 2302 087c C84B     		ldr	r3, .L141+4
 2303 087e 9B88     		ldrh	r3, [r3, #4]
 2304 0880 1A00     		movs	r2, r3
 2305 0882 C84B     		ldr	r3, .L141+8
 2306 0884 1100     		movs	r1, r2
 2307 0886 1800     		movs	r0, r3
 2308 0888 FFF7FEFF 		bl	printf
 651:cgmss.c       ****                                     CyBle_Set16ByPtr(&socp[1u], alrt.hpo);
 2309              		.loc 1 651 0
 2310 088c C64B     		ldr	r3, .L141+12
 2311 088e 0F22     		movs	r2, #15
 2312 0890 1A70     		strb	r2, [r3]
 652:cgmss.c       ****                                     break;
 2313              		.loc 1 652 0
 2314 0892 C34B     		ldr	r3, .L141+4
 2315 0894 9A88     		ldrh	r2, [r3, #4]
 2316 0896 C54B     		ldr	r3, .L141+16
 2317 0898 1100     		movs	r1, r2
 2318 089a 1800     		movs	r0, r3
 2319 089c FFF7FEFF 		bl	CyBle_Set16ByPtr
 653:cgmss.c       ****                                     
 2320              		.loc 1 653 0
 2321 08a0 4DE1     		b	.L101
 2322              	.L112:
ARM GAS  C:\Users\cypress\AppData\Local\Temp\ccgxY6Ea.s 			page 64


 656:cgmss.c       ****                                     socpOpd = CyBle_Get16ByPtr(&((CYBLE_CGMS_CHAR_VALUE_T *)eventPa
 2323              		.loc 1 656 0
 2324 08a2 C34B     		ldr	r3, .L141+20
 2325 08a4 1800     		movs	r0, r3
 2326 08a6 FFF7FEFF 		bl	puts
 657:cgmss.c       ****                                     socpOpdPtr = &alrt.hpo;
 2327              		.loc 1 657 0
 2328 08aa 3B68     		ldr	r3, [r7]
 2329 08ac 5B68     		ldr	r3, [r3, #4]
 2330 08ae 1B68     		ldr	r3, [r3]
 2331 08b0 0133     		adds	r3, r3, #1
 2332 08b2 1800     		movs	r0, r3
 2333 08b4 FFF7FEFF 		bl	CyBle_Get16ByPtr
 2334 08b8 0300     		movs	r3, r0
 2335 08ba 1A00     		movs	r2, r3
 2336 08bc BD4B     		ldr	r3, .L141+24
 2337 08be 1A80     		strh	r2, [r3]
 658:cgmss.c       ****                                     DBG_PRINTF("Operand: Hypo Alert Level: 0x%4.4x \r\n", socpOpd);
 2338              		.loc 1 658 0
 2339 08c0 BD4B     		ldr	r3, .L141+28
 2340 08c2 BE4A     		ldr	r2, .L141+32
 2341 08c4 1A60     		str	r2, [r3]
 659:cgmss.c       ****                                     socp[1u] = CYBLE_CGMS_SOCP_OPC_SHPO;
 2342              		.loc 1 659 0
 2343 08c6 BB4B     		ldr	r3, .L141+24
 2344 08c8 1B88     		ldrh	r3, [r3]
 2345 08ca 1A00     		movs	r2, r3
 2346 08cc BC4B     		ldr	r3, .L141+36
 2347 08ce 1100     		movs	r1, r2
 2348 08d0 1800     		movs	r0, r3
 2349 08d2 FFF7FEFF 		bl	printf
 660:cgmss.c       ****                                     break;
 2350              		.loc 1 660 0
 2351 08d6 B44B     		ldr	r3, .L141+12
 2352 08d8 0D22     		movs	r2, #13
 2353 08da 5A70     		strb	r2, [r3, #1]
 661:cgmss.c       ****                                     
 2354              		.loc 1 661 0
 2355 08dc 2FE1     		b	.L101
 2356              	.L115:
 664:cgmss.c       ****                                     DBG_PRINTF("Response: Hyper Alert Level: 0x%4.4x\r\n", alrt.hpr
 2357              		.loc 1 664 0
 2358 08de B94B     		ldr	r3, .L141+40
 2359 08e0 1800     		movs	r0, r3
 2360 08e2 FFF7FEFF 		bl	puts
 665:cgmss.c       ****                                     socp[0u] = CYBLE_CGMS_SOCP_OPC_RHPR;
 2361              		.loc 1 665 0
 2362 08e6 AE4B     		ldr	r3, .L141+4
 2363 08e8 DB88     		ldrh	r3, [r3, #6]
 2364 08ea 1A00     		movs	r2, r3
 2365 08ec B64B     		ldr	r3, .L141+44
 2366 08ee 1100     		movs	r1, r2
 2367 08f0 1800     		movs	r0, r3
 2368 08f2 FFF7FEFF 		bl	printf
 666:cgmss.c       ****                                     CyBle_Set16ByPtr(&socp[1u], alrt.hpr);
 2369              		.loc 1 666 0
 2370 08f6 AC4B     		ldr	r3, .L141+12
ARM GAS  C:\Users\cypress\AppData\Local\Temp\ccgxY6Ea.s 			page 65


 2371 08f8 1222     		movs	r2, #18
 2372 08fa 1A70     		strb	r2, [r3]
 667:cgmss.c       ****                                     break;
 2373              		.loc 1 667 0
 2374 08fc A84B     		ldr	r3, .L141+4
 2375 08fe DA88     		ldrh	r2, [r3, #6]
 2376 0900 AA4B     		ldr	r3, .L141+16
 2377 0902 1100     		movs	r1, r2
 2378 0904 1800     		movs	r0, r3
 2379 0906 FFF7FEFF 		bl	CyBle_Set16ByPtr
 668:cgmss.c       ****                                     
 2380              		.loc 1 668 0
 2381 090a 18E1     		b	.L101
 2382              	.L114:
 671:cgmss.c       ****                                     socpOpd = CyBle_Get16ByPtr(&((CYBLE_CGMS_CHAR_VALUE_T *)eventPa
 2383              		.loc 1 671 0
 2384 090c AF4B     		ldr	r3, .L141+48
 2385 090e 1800     		movs	r0, r3
 2386 0910 FFF7FEFF 		bl	puts
 672:cgmss.c       ****                                     socpOpdPtr = &alrt.hpr;
 2387              		.loc 1 672 0
 2388 0914 3B68     		ldr	r3, [r7]
 2389 0916 5B68     		ldr	r3, [r3, #4]
 2390 0918 1B68     		ldr	r3, [r3]
 2391 091a 0133     		adds	r3, r3, #1
 2392 091c 1800     		movs	r0, r3
 2393 091e FFF7FEFF 		bl	CyBle_Get16ByPtr
 2394 0922 0300     		movs	r3, r0
 2395 0924 1A00     		movs	r2, r3
 2396 0926 A34B     		ldr	r3, .L141+24
 2397 0928 1A80     		strh	r2, [r3]
 673:cgmss.c       ****                                     DBG_PRINTF("Operand: Hyper Alert Level: 0x%4.4x \r\n", socpOpd)
 2398              		.loc 1 673 0
 2399 092a A34B     		ldr	r3, .L141+28
 2400 092c A84A     		ldr	r2, .L141+52
 2401 092e 1A60     		str	r2, [r3]
 674:cgmss.c       ****                                     socp[1u] = CYBLE_CGMS_SOCP_OPC_SHPR;
 2402              		.loc 1 674 0
 2403 0930 A04B     		ldr	r3, .L141+24
 2404 0932 1B88     		ldrh	r3, [r3]
 2405 0934 1A00     		movs	r2, r3
 2406 0936 A74B     		ldr	r3, .L141+56
 2407 0938 1100     		movs	r1, r2
 2408 093a 1800     		movs	r0, r3
 2409 093c FFF7FEFF 		bl	printf
 675:cgmss.c       ****                                     break;
 2410              		.loc 1 675 0
 2411 0940 994B     		ldr	r3, .L141+12
 2412 0942 1022     		movs	r2, #16
 2413 0944 5A70     		strb	r2, [r3, #1]
 676:cgmss.c       ****                                     
 2414              		.loc 1 676 0
 2415 0946 FAE0     		b	.L101
 2416              	.L117:
 679:cgmss.c       ****                                     DBG_PRINTF("Response: Rate of Decrease Alert Level: 0x%4.4x\r\n
 2417              		.loc 1 679 0
 2418 0948 A34B     		ldr	r3, .L141+60
ARM GAS  C:\Users\cypress\AppData\Local\Temp\ccgxY6Ea.s 			page 66


 2419 094a 1800     		movs	r0, r3
 2420 094c FFF7FEFF 		bl	puts
 680:cgmss.c       ****                                     socp[0u] = CYBLE_CGMS_SOCP_OPC_RDEC;
 2421              		.loc 1 680 0
 2422 0950 934B     		ldr	r3, .L141+4
 2423 0952 1B89     		ldrh	r3, [r3, #8]
 2424 0954 1A00     		movs	r2, r3
 2425 0956 A14B     		ldr	r3, .L141+64
 2426 0958 1100     		movs	r1, r2
 2427 095a 1800     		movs	r0, r3
 2428 095c FFF7FEFF 		bl	printf
 681:cgmss.c       ****                                     CyBle_Set16ByPtr(&socp[1u], alrt.dec);
 2429              		.loc 1 681 0
 2430 0960 914B     		ldr	r3, .L141+12
 2431 0962 1522     		movs	r2, #21
 2432 0964 1A70     		strb	r2, [r3]
 682:cgmss.c       ****                                     break;
 2433              		.loc 1 682 0
 2434 0966 8E4B     		ldr	r3, .L141+4
 2435 0968 1A89     		ldrh	r2, [r3, #8]
 2436 096a 904B     		ldr	r3, .L141+16
 2437 096c 1100     		movs	r1, r2
 2438 096e 1800     		movs	r0, r3
 2439 0970 FFF7FEFF 		bl	CyBle_Set16ByPtr
 683:cgmss.c       ****                                     
 2440              		.loc 1 683 0
 2441 0974 E3E0     		b	.L101
 2442              	.L116:
 686:cgmss.c       ****                                     socpOpd = CyBle_Get16ByPtr(&((CYBLE_CGMS_CHAR_VALUE_T *)eventPa
 2443              		.loc 1 686 0
 2444 0976 9A4B     		ldr	r3, .L141+68
 2445 0978 1800     		movs	r0, r3
 2446 097a FFF7FEFF 		bl	puts
 687:cgmss.c       ****                                     socpOpdPtr = &alrt.dec;
 2447              		.loc 1 687 0
 2448 097e 3B68     		ldr	r3, [r7]
 2449 0980 5B68     		ldr	r3, [r3, #4]
 2450 0982 1B68     		ldr	r3, [r3]
 2451 0984 0133     		adds	r3, r3, #1
 2452 0986 1800     		movs	r0, r3
 2453 0988 FFF7FEFF 		bl	CyBle_Get16ByPtr
 2454 098c 0300     		movs	r3, r0
 2455 098e 1A00     		movs	r2, r3
 2456 0990 884B     		ldr	r3, .L141+24
 2457 0992 1A80     		strh	r2, [r3]
 688:cgmss.c       ****                                     DBG_PRINTF("Operand: Rate of Decrease Alert Level: 0x%4.4x \r\n
 2458              		.loc 1 688 0
 2459 0994 884B     		ldr	r3, .L141+28
 2460 0996 934A     		ldr	r2, .L141+72
 2461 0998 1A60     		str	r2, [r3]
 689:cgmss.c       ****                                     socp[1u] = CYBLE_CGMS_SOCP_OPC_SDEC;
 2462              		.loc 1 689 0
 2463 099a 864B     		ldr	r3, .L141+24
 2464 099c 1B88     		ldrh	r3, [r3]
 2465 099e 1A00     		movs	r2, r3
 2466 09a0 914B     		ldr	r3, .L141+76
 2467 09a2 1100     		movs	r1, r2
ARM GAS  C:\Users\cypress\AppData\Local\Temp\ccgxY6Ea.s 			page 67


 2468 09a4 1800     		movs	r0, r3
 2469 09a6 FFF7FEFF 		bl	printf
 690:cgmss.c       ****                                     break;
 2470              		.loc 1 690 0
 2471 09aa 7F4B     		ldr	r3, .L141+12
 2472 09ac 1322     		movs	r2, #19
 2473 09ae 5A70     		strb	r2, [r3, #1]
 691:cgmss.c       ****                                     
 2474              		.loc 1 691 0
 2475 09b0 C5E0     		b	.L101
 2476              	.L119:
 694:cgmss.c       ****                                     DBG_PRINTF("Response: Rate of Increase Alert Level: 0x%4.4x\r\n
 2477              		.loc 1 694 0
 2478 09b2 8E4B     		ldr	r3, .L141+80
 2479 09b4 1800     		movs	r0, r3
 2480 09b6 FFF7FEFF 		bl	puts
 695:cgmss.c       ****                                     socp[0u] = CYBLE_CGMS_SOCP_OPC_RINC;
 2481              		.loc 1 695 0
 2482 09ba 794B     		ldr	r3, .L141+4
 2483 09bc 5B89     		ldrh	r3, [r3, #10]
 2484 09be 1A00     		movs	r2, r3
 2485 09c0 8B4B     		ldr	r3, .L141+84
 2486 09c2 1100     		movs	r1, r2
 2487 09c4 1800     		movs	r0, r3
 2488 09c6 FFF7FEFF 		bl	printf
 696:cgmss.c       ****                                     CyBle_Set16ByPtr(&socp[1u], alrt.inc);
 2489              		.loc 1 696 0
 2490 09ca 774B     		ldr	r3, .L141+12
 2491 09cc 1822     		movs	r2, #24
 2492 09ce 1A70     		strb	r2, [r3]
 697:cgmss.c       ****                                     break;
 2493              		.loc 1 697 0
 2494 09d0 734B     		ldr	r3, .L141+4
 2495 09d2 5A89     		ldrh	r2, [r3, #10]
 2496 09d4 754B     		ldr	r3, .L141+16
 2497 09d6 1100     		movs	r1, r2
 2498 09d8 1800     		movs	r0, r3
 2499 09da FFF7FEFF 		bl	CyBle_Set16ByPtr
 698:cgmss.c       ****                                     
 2500              		.loc 1 698 0
 2501 09de AEE0     		b	.L101
 2502              	.L118:
 701:cgmss.c       ****                                     socpOpd = CyBle_Get16ByPtr(&((CYBLE_CGMS_CHAR_VALUE_T *)eventPa
 2503              		.loc 1 701 0
 2504 09e0 844B     		ldr	r3, .L141+88
 2505 09e2 1800     		movs	r0, r3
 2506 09e4 FFF7FEFF 		bl	puts
 702:cgmss.c       ****                                     socpOpdPtr = &alrt.inc;
 2507              		.loc 1 702 0
 2508 09e8 3B68     		ldr	r3, [r7]
 2509 09ea 5B68     		ldr	r3, [r3, #4]
 2510 09ec 1B68     		ldr	r3, [r3]
 2511 09ee 0133     		adds	r3, r3, #1
 2512 09f0 1800     		movs	r0, r3
 2513 09f2 FFF7FEFF 		bl	CyBle_Get16ByPtr
 2514 09f6 0300     		movs	r3, r0
 2515 09f8 1A00     		movs	r2, r3
ARM GAS  C:\Users\cypress\AppData\Local\Temp\ccgxY6Ea.s 			page 68


 2516 09fa 6E4B     		ldr	r3, .L141+24
 2517 09fc 1A80     		strh	r2, [r3]
 703:cgmss.c       ****                                     DBG_PRINTF("Operand: Rate of Increase Alert Level: 0x%4.4x \r\n
 2518              		.loc 1 703 0
 2519 09fe 6E4B     		ldr	r3, .L141+28
 2520 0a00 7D4A     		ldr	r2, .L141+92
 2521 0a02 1A60     		str	r2, [r3]
 704:cgmss.c       ****                                     socp[1u] = CYBLE_CGMS_SOCP_OPC_SINC;
 2522              		.loc 1 704 0
 2523 0a04 6B4B     		ldr	r3, .L141+24
 2524 0a06 1B88     		ldrh	r3, [r3]
 2525 0a08 1A00     		movs	r2, r3
 2526 0a0a 7C4B     		ldr	r3, .L141+96
 2527 0a0c 1100     		movs	r1, r2
 2528 0a0e 1800     		movs	r0, r3
 2529 0a10 FFF7FEFF 		bl	printf
 705:cgmss.c       ****                                     break;
 2530              		.loc 1 705 0
 2531 0a14 644B     		ldr	r3, .L141+12
 2532 0a16 1622     		movs	r2, #22
 2533 0a18 5A70     		strb	r2, [r3, #1]
 706:cgmss.c       ****                                     
 2534              		.loc 1 706 0
 2535 0a1a 90E0     		b	.L101
 2536              	.L120:
 709:cgmss.c       ****                                     socp[1u] = CYBLE_CGMS_SOCP_OPC_RDSA;
 2537              		.loc 1 709 0
 2538 0a1c 784B     		ldr	r3, .L141+100
 2539 0a1e 1800     		movs	r0, r3
 2540 0a20 FFF7FEFF 		bl	puts
 710:cgmss.c       ****                                     break;
 2541              		.loc 1 710 0
 2542 0a24 604B     		ldr	r3, .L141+12
 2543 0a26 1922     		movs	r2, #25
 2544 0a28 5A70     		strb	r2, [r3, #1]
 711:cgmss.c       ****                                     
 2545              		.loc 1 711 0
 2546 0a2a 88E0     		b	.L101
 2547              	.L121:
 714:cgmss.c       ****                                     apiResult = CyBle_CgmssGetCharacteristicValue(CYBLE_CGMS_CGST, 
 2548              		.loc 1 714 0
 2549 0a2c 754B     		ldr	r3, .L141+104
 2550 0a2e 1800     		movs	r0, r3
 2551 0a30 FFF7FEFF 		bl	puts
 715:cgmss.c       ****                                     if(apiResult != CYBLE_ERROR_OK)
 2552              		.loc 1 715 0
 2553 0a34 744B     		ldr	r3, .L141+108
 2554 0a36 1A00     		movs	r2, r3
 2555 0a38 0721     		movs	r1, #7
 2556 0a3a 0220     		movs	r0, #2
 2557 0a3c FFF7FEFF 		bl	CyBle_CgmssGetCharacteristicValue
 2558 0a40 0300     		movs	r3, r0
 2559 0a42 1A00     		movs	r2, r3
 2560 0a44 714B     		ldr	r3, .L141+112
 2561 0a46 1A80     		strh	r2, [r3]
 716:cgmss.c       ****                                     {
 2562              		.loc 1 716 0
ARM GAS  C:\Users\cypress\AppData\Local\Temp\ccgxY6Ea.s 			page 69


 2563 0a48 704B     		ldr	r3, .L141+112
 2564 0a4a 1B88     		ldrh	r3, [r3]
 2565 0a4c 002B     		cmp	r3, #0
 2566 0a4e 05D0     		beq	.L127
 718:cgmss.c       ****                                         PrintApiResult();
 2567              		.loc 1 718 0
 2568 0a50 6F4B     		ldr	r3, .L141+116
 2569 0a52 1800     		movs	r0, r3
 2570 0a54 FFF7FEFF 		bl	printf
 719:cgmss.c       ****                                     }
 2571              		.loc 1 719 0
 2572 0a58 FFF7FEFF 		bl	PrintApiResult
 2573              	.L127:
 722:cgmss.c       ****                                     {
 2574              		.loc 1 722 0
 2575 0a5c 6A4B     		ldr	r3, .L141+108
 2576 0a5e 9B78     		ldrb	r3, [r3, #2]
 2577 0a60 1A00     		movs	r2, r3
 2578 0a62 0123     		movs	r3, #1
 2579 0a64 1340     		ands	r3, r2
 2580 0a66 21D0     		beq	.L128
 724:cgmss.c       ****                                     
 2581              		.loc 1 724 0
 2582 0a68 674B     		ldr	r3, .L141+108
 2583 0a6a 9B78     		ldrb	r3, [r3, #2]
 2584 0a6c 0122     		movs	r2, #1
 2585 0a6e 9343     		bics	r3, r2
 2586 0a70 DAB2     		uxtb	r2, r3
 2587 0a72 654B     		ldr	r3, .L141+108
 2588 0a74 9A70     		strb	r2, [r3, #2]
 726:cgmss.c       ****                                         if(apiResult != CYBLE_ERROR_OK)
 2589              		.loc 1 726 0
 2590 0a76 644B     		ldr	r3, .L141+108
 2591 0a78 1900     		movs	r1, r3
 2592 0a7a 0520     		movs	r0, #5
 2593 0a7c FFF7FEFF 		bl	CgmsCrcLength
 2594 0a80 0300     		movs	r3, r0
 2595 0a82 1900     		movs	r1, r3
 2596 0a84 604B     		ldr	r3, .L141+108
 2597 0a86 1A00     		movs	r2, r3
 2598 0a88 0220     		movs	r0, #2
 2599 0a8a FFF7FEFF 		bl	CyBle_CgmssSetCharacteristicValue
 2600 0a8e 0300     		movs	r3, r0
 2601 0a90 1A00     		movs	r2, r3
 2602 0a92 5E4B     		ldr	r3, .L141+112
 2603 0a94 1A80     		strh	r2, [r3]
 727:cgmss.c       ****                                         {
 2604              		.loc 1 727 0
 2605 0a96 5D4B     		ldr	r3, .L141+112
 2606 0a98 1B88     		ldrh	r3, [r3]
 2607 0a9a 002B     		cmp	r3, #0
 2608 0a9c 09D0     		beq	.L130
 729:cgmss.c       ****                                             PrintApiResult();
 2609              		.loc 1 729 0
 2610 0a9e 5C4B     		ldr	r3, .L141+116
 2611 0aa0 1800     		movs	r0, r3
 2612 0aa2 FFF7FEFF 		bl	printf
ARM GAS  C:\Users\cypress\AppData\Local\Temp\ccgxY6Ea.s 			page 70


 730:cgmss.c       ****                                         }
 2613              		.loc 1 730 0
 2614 0aa6 FFF7FEFF 		bl	PrintApiResult
 2615 0aaa 02E0     		b	.L130
 2616              	.L128:
 735:cgmss.c       ****                                     }
 2617              		.loc 1 735 0
 2618 0aac 3E4B     		ldr	r3, .L141+12
 2619 0aae 0422     		movs	r2, #4
 2620 0ab0 9A70     		strb	r2, [r3, #2]
 2621              	.L130:
 737:cgmss.c       ****                                     break;
 2622              		.loc 1 737 0
 2623 0ab2 3D4B     		ldr	r3, .L141+12
 2624 0ab4 1A22     		movs	r2, #26
 2625 0ab6 5A70     		strb	r2, [r3, #1]
 738:cgmss.c       ****                                     
 2626              		.loc 1 738 0
 2627 0ab8 41E0     		b	.L101
 2628              	.L122:
 741:cgmss.c       ****                                     apiResult = CyBle_CgmssGetCharacteristicValue(CYBLE_CGMS_CGST, 
 2629              		.loc 1 741 0
 2630 0aba 564B     		ldr	r3, .L141+120
 2631 0abc 1800     		movs	r0, r3
 2632 0abe FFF7FEFF 		bl	puts
 742:cgmss.c       ****                                     if(apiResult != CYBLE_ERROR_OK)
 2633              		.loc 1 742 0
 2634 0ac2 514B     		ldr	r3, .L141+108
 2635 0ac4 1A00     		movs	r2, r3
 2636 0ac6 0721     		movs	r1, #7
 2637 0ac8 0220     		movs	r0, #2
 2638 0aca FFF7FEFF 		bl	CyBle_CgmssGetCharacteristicValue
 2639 0ace 0300     		movs	r3, r0
 2640 0ad0 1A00     		movs	r2, r3
 2641 0ad2 4E4B     		ldr	r3, .L141+112
 2642 0ad4 1A80     		strh	r2, [r3]
 743:cgmss.c       ****                                     {
 2643              		.loc 1 743 0
 2644 0ad6 4D4B     		ldr	r3, .L141+112
 2645 0ad8 1B88     		ldrh	r3, [r3]
 2646 0ada 002B     		cmp	r3, #0
 2647 0adc 05D0     		beq	.L131
 745:cgmss.c       ****                                         PrintApiResult();
 2648              		.loc 1 745 0
 2649 0ade 4C4B     		ldr	r3, .L141+116
 2650 0ae0 1800     		movs	r0, r3
 2651 0ae2 FFF7FEFF 		bl	printf
 746:cgmss.c       ****                                     }
 2652              		.loc 1 746 0
 2653 0ae6 FFF7FEFF 		bl	PrintApiResult
 2654              	.L131:
 749:cgmss.c       ****                                     
 2655              		.loc 1 749 0
 2656 0aea 474B     		ldr	r3, .L141+108
 2657 0aec 9B78     		ldrb	r3, [r3, #2]
 2658 0aee 0122     		movs	r2, #1
 2659 0af0 1343     		orrs	r3, r2
ARM GAS  C:\Users\cypress\AppData\Local\Temp\ccgxY6Ea.s 			page 71


 2660 0af2 DAB2     		uxtb	r2, r3
 2661 0af4 444B     		ldr	r3, .L141+108
 2662 0af6 9A70     		strb	r2, [r3, #2]
 751:cgmss.c       ****                                     if(apiResult != CYBLE_ERROR_OK)
 2663              		.loc 1 751 0
 2664 0af8 434B     		ldr	r3, .L141+108
 2665 0afa 1900     		movs	r1, r3
 2666 0afc 0520     		movs	r0, #5
 2667 0afe FFF7FEFF 		bl	CgmsCrcLength
 2668 0b02 0300     		movs	r3, r0
 2669 0b04 1900     		movs	r1, r3
 2670 0b06 404B     		ldr	r3, .L141+108
 2671 0b08 1A00     		movs	r2, r3
 2672 0b0a 0220     		movs	r0, #2
 2673 0b0c FFF7FEFF 		bl	CyBle_CgmssSetCharacteristicValue
 2674 0b10 0300     		movs	r3, r0
 2675 0b12 1A00     		movs	r2, r3
 2676 0b14 3D4B     		ldr	r3, .L141+112
 2677 0b16 1A80     		strh	r2, [r3]
 752:cgmss.c       ****                                     {
 2678              		.loc 1 752 0
 2679 0b18 3C4B     		ldr	r3, .L141+112
 2680 0b1a 1B88     		ldrh	r3, [r3]
 2681 0b1c 002B     		cmp	r3, #0
 2682 0b1e 05D0     		beq	.L132
 754:cgmss.c       ****                                         PrintApiResult();
 2683              		.loc 1 754 0
 2684 0b20 3B4B     		ldr	r3, .L141+116
 2685 0b22 1800     		movs	r0, r3
 2686 0b24 FFF7FEFF 		bl	printf
 755:cgmss.c       ****                                     }
 2687              		.loc 1 755 0
 2688 0b28 FFF7FEFF 		bl	PrintApiResult
 2689              	.L132:
 758:cgmss.c       ****                                     break;
 2690              		.loc 1 758 0
 2691 0b2c 1E4B     		ldr	r3, .L141+12
 2692 0b2e 1B22     		movs	r2, #27
 2693 0b30 5A70     		strb	r2, [r3, #1]
 759:cgmss.c       ****                                     
 2694              		.loc 1 759 0
 2695 0b32 04E0     		b	.L101
 2696              	.L102:
 762:cgmss.c       ****                                     break;
 2697              		.loc 1 762 0
 2698 0b34 384B     		ldr	r3, .L141+124
 2699 0b36 1800     		movs	r0, r3
 2700 0b38 FFF7FEFF 		bl	puts
 763:cgmss.c       ****                             }
 2701              		.loc 1 763 0
 2702 0b3c C046     		nop
 2703              	.L101:
 766:cgmss.c       ****                         
 2704              		.loc 1 766 0 discriminator 8
 2705 0b3e 01E0     		b	.L136
 2706              	.L134:
 372:cgmss.c       ****                     
ARM GAS  C:\Users\cypress\AppData\Local\Temp\ccgxY6Ea.s 			page 72


 2707              		.loc 1 372 0
 2708 0b40 C046     		nop
 2709 0b42 00E0     		b	.L62
 2710              	.L136:
 766:cgmss.c       ****                         
 2711              		.loc 1 766 0
 2712 0b44 C046     		nop
 2713              	.L62:
 770:cgmss.c       ****                 }
 771:cgmss.c       ****                 
 772:cgmss.c       ****                 ((CYBLE_CGMS_CHAR_VALUE_T*)eventParam)->gattErrorCode = cgmsGattError;
 2714              		.loc 1 772 0
 2715 0b46 3B68     		ldr	r3, [r7]
 2716 0b48 0D22     		movs	r2, #13
 2717 0b4a BA18     		adds	r2, r7, r2
 2718 0b4c 1278     		ldrb	r2, [r2]
 2719 0b4e 1A72     		strb	r2, [r3, #8]
 2720              	.LBE2:
 773:cgmss.c       ****             }
 774:cgmss.c       ****             break;
 2721              		.loc 1 774 0
 2722 0b50 1FE0     		b	.L133
 2723              	.L49:
 775:cgmss.c       ****         
 776:cgmss.c       ****         case CYBLE_EVT_CGMSS_NOTIFICATION_ENABLED:
 777:cgmss.c       ****             DBG_PRINTF("Glucose Notification is Enabled \r\n");
 2724              		.loc 1 777 0
 2725 0b52 324B     		ldr	r3, .L141+128
 2726 0b54 1800     		movs	r0, r3
 2727 0b56 FFF7FEFF 		bl	puts
 778:cgmss.c       ****             break;
 2728              		.loc 1 778 0
 2729 0b5a 1AE0     		b	.L133
 2730              	.L50:
 779:cgmss.c       ****                 
 780:cgmss.c       ****         case CYBLE_EVT_CGMSS_NOTIFICATION_DISABLED:
 781:cgmss.c       ****             DBG_PRINTF("Glucose Notification is Disabled \r\n");
 2731              		.loc 1 781 0
 2732 0b5c 304B     		ldr	r3, .L141+132
 2733 0b5e 1800     		movs	r0, r3
 2734 0b60 FFF7FEFF 		bl	puts
 782:cgmss.c       ****             break;
 2735              		.loc 1 782 0
 2736 0b64 15E0     		b	.L133
 2737              	.L45:
 783:cgmss.c       ****             
 784:cgmss.c       ****         case CYBLE_EVT_CGMSS_INDICATION_ENABLED:
 785:cgmss.c       ****             DBG_PRINTF("RACP Indication is Enabled \r\n");
 2738              		.loc 1 785 0
 2739 0b66 2F4B     		ldr	r3, .L141+136
 2740 0b68 1800     		movs	r0, r3
 2741 0b6a FFF7FEFF 		bl	puts
 786:cgmss.c       ****             break;
 2742              		.loc 1 786 0
 2743 0b6e 10E0     		b	.L133
 2744              	.L47:
 787:cgmss.c       ****                 
ARM GAS  C:\Users\cypress\AppData\Local\Temp\ccgxY6Ea.s 			page 73


 788:cgmss.c       ****         case CYBLE_EVT_CGMSS_INDICATION_DISABLED:
 789:cgmss.c       ****             DBG_PRINTF("RACP Indication is Disabled \r\n");
 2745              		.loc 1 789 0
 2746 0b70 2D4B     		ldr	r3, .L141+140
 2747 0b72 1800     		movs	r0, r3
 2748 0b74 FFF7FEFF 		bl	puts
 790:cgmss.c       ****             break;
 2749              		.loc 1 790 0
 2750 0b78 0BE0     		b	.L133
 2751              	.L48:
 791:cgmss.c       ****             
 792:cgmss.c       ****         case CYBLE_EVT_CGMSS_INDICATION_CONFIRMED:
 793:cgmss.c       ****             DBG_PRINTF("RACP Indication is Confirmed \r\n");
 2752              		.loc 1 793 0
 2753 0b7a 2C4B     		ldr	r3, .L141+144
 2754 0b7c 1800     		movs	r0, r3
 2755 0b7e FFF7FEFF 		bl	puts
 794:cgmss.c       ****             break;
 2756              		.loc 1 794 0
 2757 0b82 06E0     		b	.L133
 2758              	.L44:
 795:cgmss.c       **** 
 796:cgmss.c       **** 		default:
 797:cgmss.c       ****             DBG_PRINTF("unknown CGMS event: %lx \r\n", event);
 2759              		.loc 1 797 0
 2760 0b84 7A68     		ldr	r2, [r7, #4]
 2761 0b86 2A4B     		ldr	r3, .L141+148
 2762 0b88 1100     		movs	r1, r2
 2763 0b8a 1800     		movs	r0, r3
 2764 0b8c FFF7FEFF 		bl	printf
 798:cgmss.c       **** 			break;
 2765              		.loc 1 798 0
 2766 0b90 C046     		nop
 2767              	.L133:
 799:cgmss.c       ****     }
 800:cgmss.c       **** }
 2768              		.loc 1 800 0
 2769 0b92 C046     		nop
 2770 0b94 BD46     		mov	sp, r7
 2771 0b96 05B0     		add	sp, sp, #20
 2772              		@ sp needed
 2773 0b98 90BD     		pop	{r4, r7, pc}
 2774              	.L142:
 2775 0b9a C046     		.align	2
 2776              	.L141:
 2777 0b9c 6C060000 		.word	.LC155
 2778 0ba0 00000000 		.word	alrt
 2779 0ba4 84060000 		.word	.LC157
 2780 0ba8 00000000 		.word	socp
 2781 0bac 01000000 		.word	socp+1
 2782 0bb0 AC060000 		.word	.LC159
 2783 0bb4 00000000 		.word	socpOpd
 2784 0bb8 00000000 		.word	socpOpdPtr
 2785 0bbc 04000000 		.word	alrt+4
 2786 0bc0 C4060000 		.word	.LC162
 2787 0bc4 EC060000 		.word	.LC164
 2788 0bc8 04070000 		.word	.LC166
ARM GAS  C:\Users\cypress\AppData\Local\Temp\ccgxY6Ea.s 			page 74


 2789 0bcc 2C070000 		.word	.LC168
 2790 0bd0 06000000 		.word	alrt+6
 2791 0bd4 44070000 		.word	.LC171
 2792 0bd8 6C070000 		.word	.LC173
 2793 0bdc 90070000 		.word	.LC175
 2794 0be0 C4070000 		.word	.LC177
 2795 0be4 08000000 		.word	alrt+8
 2796 0be8 E8070000 		.word	.LC180
 2797 0bec 1C080000 		.word	.LC182
 2798 0bf0 40080000 		.word	.LC184
 2799 0bf4 74080000 		.word	.LC186
 2800 0bf8 0A000000 		.word	alrt+10
 2801 0bfc 98080000 		.word	.LC189
 2802 0c00 CC080000 		.word	.LC191
 2803 0c04 EC080000 		.word	.LC193
 2804 0c08 00000000 		.word	attr
 2805 0c0c 00000000 		.word	apiResult
 2806 0c10 00010000 		.word	.LC31
 2807 0c14 00090000 		.word	.LC197
 2808 0c18 14090000 		.word	.LC199
 2809 0c1c 24090000 		.word	.LC201
 2810 0c20 48090000 		.word	.LC203
 2811 0c24 6C090000 		.word	.LC205
 2812 0c28 8C090000 		.word	.LC207
 2813 0c2c AC090000 		.word	.LC209
 2814 0c30 CC090000 		.word	.LC211
 2815              		.cfi_endproc
 2816              	.LFE41:
 2817              		.size	CgmsCallBack, .-CgmsCallBack
 2818              		.section	.rodata
 2819              		.align	2
 2820              	.LC217:
 2821 0afc 43676D73 		.ascii	"CgmsSendCgmtNtf API Error: \000"
 2821      53656E64 
 2821      43676D74 
 2821      4E746620 
 2821      41504920 
 2822              		.align	2
 2823              	.LC219:
 2824 0b18 43676D74 		.ascii	"Cgmt Ntf: \000"
 2824      204E7466 
 2824      3A2000
 2825              		.section	.text.CgmsSendCgmtNtf,"ax",%progbits
 2826              		.align	2
 2827              		.global	CgmsSendCgmtNtf
 2828              		.code	16
 2829              		.thumb_func
 2830              		.type	CgmsSendCgmtNtf, %function
 2831              	CgmsSendCgmtNtf:
 2832              	.LFB42:
 801:cgmss.c       **** 
 802:cgmss.c       **** 
 803:cgmss.c       **** /******************************************************************************
 804:cgmss.c       **** ##Function Name: CgmsSendCgmtNtf
 805:cgmss.c       **** *******************************************************************************
 806:cgmss.c       **** 
 807:cgmss.c       **** Summary:
ARM GAS  C:\Users\cypress\AppData\Local\Temp\ccgxY6Ea.s 			page 75


 808:cgmss.c       ****   Packs the payload and sends a notification
 809:cgmss.c       ****   of the CGM Measurement characteristic.
 810:cgmss.c       **** 
 811:cgmss.c       ****   Uses the above declared CgmsCrc();
 812:cgmss.c       **** 
 813:cgmss.c       **** Parameters:
 814:cgmss.c       ****   CYBLE_CGMS_CGMT_T cgmt - The CGM Measurement characteristic value structure.
 815:cgmss.c       **** 
 816:cgmss.c       **** Return:
 817:cgmss.c       ****   None. 
 818:cgmss.c       **** 
 819:cgmss.c       **** ******************************************************************************/
 820:cgmss.c       **** void CgmsSendCgmtNtf(CYBLE_CGMS_CGMT_T cgmt)
 821:cgmss.c       **** {
 2833              		.loc 1 821 0
 2834              		.cfi_startproc
 2835              		@ args = 0, pretend = 0, frame = 40
 2836              		@ frame_needed = 1, uses_anonymous_args = 0
 2837 0000 90B5     		push	{r4, r7, lr}
 2838              		.cfi_def_cfa_offset 12
 2839              		.cfi_offset 4, -12
 2840              		.cfi_offset 7, -8
 2841              		.cfi_offset 14, -4
 2842 0002 8BB0     		sub	sp, sp, #44
 2843              		.cfi_def_cfa_offset 56
 2844 0004 00AF     		add	r7, sp, #0
 2845              		.cfi_def_cfa_register 7
 2846 0006 3C00     		movs	r4, r7
 2847 0008 2060     		str	r0, [r4]
 2848 000a 6160     		str	r1, [r4, #4]
 2849 000c A260     		str	r2, [r4, #8]
 2850 000e E360     		str	r3, [r4, #12]
 822:cgmss.c       ****     uint8 pdu[sizeof(CYBLE_CGMS_CGMT_T)];
 823:cgmss.c       ****     uint8 ptr, b;
 824:cgmss.c       ****     
 825:cgmss.c       ****     /* "Flags" octet goes second */
 826:cgmss.c       **** 	pdu[1u] = cgmt.flags;
 2851              		.loc 1 826 0
 2852 0010 3B00     		movs	r3, r7
 2853 0012 1A78     		ldrb	r2, [r3]
 2854 0014 1423     		movs	r3, #20
 2855 0016 FB18     		adds	r3, r7, r3
 2856 0018 5A70     		strb	r2, [r3, #1]
 827:cgmss.c       ****     
 828:cgmss.c       ****     /* CGM Glucose Concentration is third and forth bytes */
 829:cgmss.c       **** 	CyBle_Set16ByPtr(&pdu[2u], cgmt.gluConc);
 2857              		.loc 1 829 0
 2858 001a 3B00     		movs	r3, r7
 2859 001c 5A88     		ldrh	r2, [r3, #2]
 2860 001e 1423     		movs	r3, #20
 2861 0020 FB18     		adds	r3, r7, r3
 2862 0022 0233     		adds	r3, r3, #2
 2863 0024 1100     		movs	r1, r2
 2864 0026 1800     		movs	r0, r3
 2865 0028 FFF7FEFF 		bl	CyBle_Set16ByPtr
 830:cgmss.c       ****     
 831:cgmss.c       ****     /* Time Offset consumes next two bytes */
ARM GAS  C:\Users\cypress\AppData\Local\Temp\ccgxY6Ea.s 			page 76


 832:cgmss.c       ****     CyBle_Set16ByPtr(&pdu[4u], cgmt.timeOffset);
 2866              		.loc 1 832 0
 2867 002c 3B00     		movs	r3, r7
 2868 002e 9A88     		ldrh	r2, [r3, #4]
 2869 0030 1423     		movs	r3, #20
 2870 0032 FB18     		adds	r3, r7, r3
 2871 0034 0433     		adds	r3, r3, #4
 2872 0036 1100     		movs	r1, r2
 2873 0038 1800     		movs	r0, r3
 2874 003a FFF7FEFF 		bl	CyBle_Set16ByPtr
 833:cgmss.c       ****     
 834:cgmss.c       ****     ptr = 6u; /* size of size + flags + gluConc + timeOffset) */
 2875              		.loc 1 834 0
 2876 003e 2723     		movs	r3, #39
 2877 0040 FB18     		adds	r3, r7, r3
 2878 0042 0622     		movs	r2, #6
 2879 0044 1A70     		strb	r2, [r3]
 835:cgmss.c       ****         
 836:cgmss.c       ****     /* if "Warning-Octet present" flag is set */
 837:cgmss.c       ****     if(0u != (cgmt.flags & CYBLE_CGMS_GLMT_FLG_WG))
 2880              		.loc 1 837 0
 2881 0046 3B00     		movs	r3, r7
 2882 0048 1B78     		ldrb	r3, [r3]
 2883 004a 1A00     		movs	r2, r3
 2884 004c 2023     		movs	r3, #32
 2885 004e 1340     		ands	r3, r2
 2886 0050 12D0     		beq	.L144
 838:cgmss.c       ****     {
 839:cgmss.c       ****         /* set the next byte of CGM Measurement characteristic value */
 840:cgmss.c       ****         pdu[ptr] = cgmt.ssa & CYBLE_CGMS_GLMT_SSA_WGM;
 2887              		.loc 1 840 0
 2888 0052 2723     		movs	r3, #39
 2889 0054 FB18     		adds	r3, r7, r3
 2890 0056 1A78     		ldrb	r2, [r3]
 2891 0058 3B00     		movs	r3, r7
 2892 005a 9B68     		ldr	r3, [r3, #8]
 2893 005c DBB2     		uxtb	r3, r3
 2894 005e 3F21     		movs	r1, #63
 2895 0060 0B40     		ands	r3, r1
 2896 0062 D9B2     		uxtb	r1, r3
 2897 0064 1423     		movs	r3, #20
 2898 0066 FB18     		adds	r3, r7, r3
 2899 0068 9954     		strb	r1, [r3, r2]
 841:cgmss.c       ****         ptr++;
 2900              		.loc 1 841 0
 2901 006a 2723     		movs	r3, #39
 2902 006c FB18     		adds	r3, r7, r3
 2903 006e 1A78     		ldrb	r2, [r3]
 2904 0070 2723     		movs	r3, #39
 2905 0072 FB18     		adds	r3, r7, r3
 2906 0074 0132     		adds	r2, r2, #1
 2907 0076 1A70     		strb	r2, [r3]
 2908              	.L144:
 842:cgmss.c       ****     }
 843:cgmss.c       ****     
 844:cgmss.c       ****     if(0u != (cgmt.flags & CYBLE_CGMS_GLMT_FLG_CT))
 2909              		.loc 1 844 0
ARM GAS  C:\Users\cypress\AppData\Local\Temp\ccgxY6Ea.s 			page 77


 2910 0078 3B00     		movs	r3, r7
 2911 007a 1B78     		ldrb	r3, [r3]
 2912 007c 1A00     		movs	r2, r3
 2913 007e 4023     		movs	r3, #64
 2914 0080 1340     		ands	r3, r2
 2915 0082 13D0     		beq	.L145
 845:cgmss.c       ****     {
 846:cgmss.c       ****         pdu[ptr] = (cgmt.ssa & CYBLE_CGMS_GLMT_SSA_CTM) >> CYBLE_CGMS_GLMT_SSA_CTS;
 2916              		.loc 1 846 0
 2917 0084 2723     		movs	r3, #39
 2918 0086 FB18     		adds	r3, r7, r3
 2919 0088 1A78     		ldrb	r2, [r3]
 2920 008a 3B00     		movs	r3, r7
 2921 008c 9B68     		ldr	r3, [r3, #8]
 2922 008e 1B0A     		lsrs	r3, r3, #8
 2923 0090 DBB2     		uxtb	r3, r3
 2924 0092 3F21     		movs	r1, #63
 2925 0094 0B40     		ands	r3, r1
 2926 0096 D9B2     		uxtb	r1, r3
 2927 0098 1423     		movs	r3, #20
 2928 009a FB18     		adds	r3, r7, r3
 2929 009c 9954     		strb	r1, [r3, r2]
 847:cgmss.c       ****         ptr++;
 2930              		.loc 1 847 0
 2931 009e 2723     		movs	r3, #39
 2932 00a0 FB18     		adds	r3, r7, r3
 2933 00a2 1A78     		ldrb	r2, [r3]
 2934 00a4 2723     		movs	r3, #39
 2935 00a6 FB18     		adds	r3, r7, r3
 2936 00a8 0132     		adds	r2, r2, #1
 2937 00aa 1A70     		strb	r2, [r3]
 2938              	.L145:
 848:cgmss.c       ****     }
 849:cgmss.c       ****     
 850:cgmss.c       ****     if(0u != (cgmt.flags & CYBLE_CGMS_GLMT_FLG_ST))
 2939              		.loc 1 850 0
 2940 00ac 3B00     		movs	r3, r7
 2941 00ae 1B78     		ldrb	r3, [r3]
 2942 00b0 5BB2     		sxtb	r3, r3
 2943 00b2 002B     		cmp	r3, #0
 2944 00b4 10DA     		bge	.L146
 851:cgmss.c       ****     {
 852:cgmss.c       ****         pdu[ptr] = (cgmt.ssa & CYBLE_CGMS_GLMT_SSA_STM) >> CYBLE_CGMS_GLMT_SSA_STS;
 2945              		.loc 1 852 0
 2946 00b6 2723     		movs	r3, #39
 2947 00b8 FB18     		adds	r3, r7, r3
 2948 00ba 1A78     		ldrb	r2, [r3]
 2949 00bc 3B00     		movs	r3, r7
 2950 00be 9B68     		ldr	r3, [r3, #8]
 2951 00c0 1B0C     		lsrs	r3, r3, #16
 2952 00c2 D9B2     		uxtb	r1, r3
 2953 00c4 1423     		movs	r3, #20
 2954 00c6 FB18     		adds	r3, r7, r3
 2955 00c8 9954     		strb	r1, [r3, r2]
 853:cgmss.c       ****         ptr++;
 2956              		.loc 1 853 0
 2957 00ca 2723     		movs	r3, #39
ARM GAS  C:\Users\cypress\AppData\Local\Temp\ccgxY6Ea.s 			page 78


 2958 00cc FB18     		adds	r3, r7, r3
 2959 00ce 1A78     		ldrb	r2, [r3]
 2960 00d0 2723     		movs	r3, #39
 2961 00d2 FB18     		adds	r3, r7, r3
 2962 00d4 0132     		adds	r2, r2, #1
 2963 00d6 1A70     		strb	r2, [r3]
 2964              	.L146:
 854:cgmss.c       ****     }
 855:cgmss.c       ****     
 856:cgmss.c       ****     if((0u != (cgft.feature & CYBLE_CGMS_CGFT_FTR_TI)) && 
 2965              		.loc 1 856 0
 2966 00d8 654B     		ldr	r3, .L156
 2967 00da 1A68     		ldr	r2, [r3]
 2968 00dc 8023     		movs	r3, #128
 2969 00de 1B02     		lsls	r3, r3, #8
 2970 00e0 1340     		ands	r3, r2
 2971 00e2 18D0     		beq	.L147
 857:cgmss.c       ****             (0u != (cgmt.flags & CYBLE_CGMS_GLMT_FLG_TI)))
 2972              		.loc 1 857 0 discriminator 1
 2973 00e4 3B00     		movs	r3, r7
 2974 00e6 1B78     		ldrb	r3, [r3]
 2975 00e8 1A00     		movs	r2, r3
 2976 00ea 0123     		movs	r3, #1
 2977 00ec 1340     		ands	r3, r2
 856:cgmss.c       ****             (0u != (cgmt.flags & CYBLE_CGMS_GLMT_FLG_TI)))
 2978              		.loc 1 856 0 discriminator 1
 2979 00ee 12D0     		beq	.L147
 858:cgmss.c       ****     {
 859:cgmss.c       ****         CyBle_Set16ByPtr(&pdu[ptr], cgmt.trend);
 2980              		.loc 1 859 0
 2981 00f0 2723     		movs	r3, #39
 2982 00f2 FB18     		adds	r3, r7, r3
 2983 00f4 1B78     		ldrb	r3, [r3]
 2984 00f6 1422     		movs	r2, #20
 2985 00f8 BA18     		adds	r2, r7, r2
 2986 00fa D218     		adds	r2, r2, r3
 2987 00fc 3B00     		movs	r3, r7
 2988 00fe 9B89     		ldrh	r3, [r3, #12]
 2989 0100 1900     		movs	r1, r3
 2990 0102 1000     		movs	r0, r2
 2991 0104 FFF7FEFF 		bl	CyBle_Set16ByPtr
 860:cgmss.c       ****         ptr += 2;
 2992              		.loc 1 860 0
 2993 0108 2723     		movs	r3, #39
 2994 010a FB18     		adds	r3, r7, r3
 2995 010c 2722     		movs	r2, #39
 2996 010e BA18     		adds	r2, r7, r2
 2997 0110 1278     		ldrb	r2, [r2]
 2998 0112 0232     		adds	r2, r2, #2
 2999 0114 1A70     		strb	r2, [r3]
 3000              	.L147:
 861:cgmss.c       ****     }
 862:cgmss.c       ****     
 863:cgmss.c       ****     if((0u != (cgft.feature & CYBLE_CGMS_CGFT_FTR_QA)) && 
 3001              		.loc 1 863 0
 3002 0116 564B     		ldr	r3, .L156
 3003 0118 1A68     		ldr	r2, [r3]
ARM GAS  C:\Users\cypress\AppData\Local\Temp\ccgxY6Ea.s 			page 79


 3004 011a 8023     		movs	r3, #128
 3005 011c 5B02     		lsls	r3, r3, #9
 3006 011e 1340     		ands	r3, r2
 3007 0120 18D0     		beq	.L148
 864:cgmss.c       ****             (0u != (cgmt.flags & CYBLE_CGMS_GLMT_FLG_QA)))
 3008              		.loc 1 864 0 discriminator 1
 3009 0122 3B00     		movs	r3, r7
 3010 0124 1B78     		ldrb	r3, [r3]
 3011 0126 1A00     		movs	r2, r3
 3012 0128 0223     		movs	r3, #2
 3013 012a 1340     		ands	r3, r2
 863:cgmss.c       ****             (0u != (cgmt.flags & CYBLE_CGMS_GLMT_FLG_QA)))
 3014              		.loc 1 863 0 discriminator 1
 3015 012c 12D0     		beq	.L148
 865:cgmss.c       ****     {
 866:cgmss.c       ****         CyBle_Set16ByPtr(&pdu[ptr], cgmt.quality);
 3016              		.loc 1 866 0
 3017 012e 2723     		movs	r3, #39
 3018 0130 FB18     		adds	r3, r7, r3
 3019 0132 1B78     		ldrb	r3, [r3]
 3020 0134 1422     		movs	r2, #20
 3021 0136 BA18     		adds	r2, r7, r2
 3022 0138 D218     		adds	r2, r2, r3
 3023 013a 3B00     		movs	r3, r7
 3024 013c DB89     		ldrh	r3, [r3, #14]
 3025 013e 1900     		movs	r1, r3
 3026 0140 1000     		movs	r0, r2
 3027 0142 FFF7FEFF 		bl	CyBle_Set16ByPtr
 867:cgmss.c       ****         ptr += 2;
 3028              		.loc 1 867 0
 3029 0146 2723     		movs	r3, #39
 3030 0148 FB18     		adds	r3, r7, r3
 3031 014a 2722     		movs	r2, #39
 3032 014c BA18     		adds	r2, r7, r2
 3033 014e 1278     		ldrb	r2, [r2]
 3034 0150 0232     		adds	r2, r2, #2
 3035 0152 1A70     		strb	r2, [r3]
 3036              	.L148:
 868:cgmss.c       ****     }
 869:cgmss.c       ****     
 870:cgmss.c       ****     if(0u != (cgft.feature & CYBLE_CGMS_CGFT_FTR_EC))
 3037              		.loc 1 870 0
 3038 0154 464B     		ldr	r3, .L156
 3039 0156 1A68     		ldr	r2, [r3]
 3040 0158 8023     		movs	r3, #128
 3041 015a 5B01     		lsls	r3, r3, #5
 3042 015c 1340     		ands	r3, r2
 3043 015e 22D0     		beq	.L149
 871:cgmss.c       ****     {
 872:cgmss.c       ****         /* Size includes crc field */
 873:cgmss.c       **** 	    pdu[0u] = ptr + 2;
 3044              		.loc 1 873 0
 3045 0160 2723     		movs	r3, #39
 3046 0162 FB18     		adds	r3, r7, r3
 3047 0164 1B78     		ldrb	r3, [r3]
 3048 0166 0233     		adds	r3, r3, #2
 3049 0168 DAB2     		uxtb	r2, r3
ARM GAS  C:\Users\cypress\AppData\Local\Temp\ccgxY6Ea.s 			page 80


 3050 016a 1423     		movs	r3, #20
 3051 016c FB18     		adds	r3, r7, r3
 3052 016e 1A70     		strb	r2, [r3]
 874:cgmss.c       ****         CyBle_Set16ByPtr(&pdu[ptr], CgmsCrc(ptr, pdu));
 3053              		.loc 1 874 0
 3054 0170 2723     		movs	r3, #39
 3055 0172 FB18     		adds	r3, r7, r3
 3056 0174 1B78     		ldrb	r3, [r3]
 3057 0176 1422     		movs	r2, #20
 3058 0178 BA18     		adds	r2, r7, r2
 3059 017a D418     		adds	r4, r2, r3
 3060 017c 1423     		movs	r3, #20
 3061 017e FA18     		adds	r2, r7, r3
 3062 0180 2723     		movs	r3, #39
 3063 0182 FB18     		adds	r3, r7, r3
 3064 0184 1B78     		ldrb	r3, [r3]
 3065 0186 1100     		movs	r1, r2
 3066 0188 1800     		movs	r0, r3
 3067 018a FFF7FEFF 		bl	CgmsCrc
 3068 018e 0300     		movs	r3, r0
 3069 0190 1900     		movs	r1, r3
 3070 0192 2000     		movs	r0, r4
 3071 0194 FFF7FEFF 		bl	CyBle_Set16ByPtr
 875:cgmss.c       ****         ptr = pdu[0u];
 3072              		.loc 1 875 0
 3073 0198 2723     		movs	r3, #39
 3074 019a FB18     		adds	r3, r7, r3
 3075 019c 1422     		movs	r2, #20
 3076 019e BA18     		adds	r2, r7, r2
 3077 01a0 1278     		ldrb	r2, [r2]
 3078 01a2 1A70     		strb	r2, [r3]
 3079 01a4 05E0     		b	.L150
 3080              	.L149:
 876:cgmss.c       ****     }
 877:cgmss.c       ****     else
 878:cgmss.c       ****     {
 879:cgmss.c       ****         pdu[0u] = ptr;
 3081              		.loc 1 879 0
 3082 01a6 1423     		movs	r3, #20
 3083 01a8 FB18     		adds	r3, r7, r3
 3084 01aa 2722     		movs	r2, #39
 3085 01ac BA18     		adds	r2, r7, r2
 3086 01ae 1278     		ldrb	r2, [r2]
 3087 01b0 1A70     		strb	r2, [r3]
 3088              	.L150:
 880:cgmss.c       ****     }
 881:cgmss.c       ****         
 882:cgmss.c       ****     do
 883:cgmss.c       ****     {
 884:cgmss.c       ****         CyBle_ProcessEvents();
 3089              		.loc 1 884 0 discriminator 1
 3090 01b2 FFF7FEFF 		bl	CyBle_ProcessEvents
 885:cgmss.c       ****     }
 886:cgmss.c       ****     while(CyBle_GattGetBusyStatus() == CYBLE_STACK_STATE_BUSY);
 3091              		.loc 1 886 0 discriminator 1
 3092 01b6 2F4B     		ldr	r3, .L156+4
 3093 01b8 1B78     		ldrb	r3, [r3]
ARM GAS  C:\Users\cypress\AppData\Local\Temp\ccgxY6Ea.s 			page 81


 3094 01ba DBB2     		uxtb	r3, r3
 3095 01bc 2722     		movs	r2, #39
 3096 01be BA18     		adds	r2, r7, r2
 3097 01c0 2721     		movs	r1, #39
 3098 01c2 7918     		adds	r1, r7, r1
 3099 01c4 0978     		ldrb	r1, [r1]
 3100 01c6 1170     		strb	r1, [r2]
 3101 01c8 012B     		cmp	r3, #1
 3102 01ca F2D0     		beq	.L150
 887:cgmss.c       ****     
 888:cgmss.c       ****     apiResult = CyBle_CgmssSendNotification(cyBle_connHandle, CYBLE_CGMS_CGMT, ptr, pdu);
 3103              		.loc 1 888 0
 3104 01cc 1423     		movs	r3, #20
 3105 01ce FC18     		adds	r4, r7, r3
 3106 01d0 2723     		movs	r3, #39
 3107 01d2 FB18     		adds	r3, r7, r3
 3108 01d4 1978     		ldrb	r1, [r3]
 3109 01d6 284B     		ldr	r3, .L156+8
 3110 01d8 1A78     		ldrb	r2, [r3]
 3111 01da 5B78     		ldrb	r3, [r3, #1]
 3112 01dc 1B02     		lsls	r3, r3, #8
 3113 01de 1343     		orrs	r3, r2
 3114 01e0 0020     		movs	r0, #0
 3115 01e2 1B04     		lsls	r3, r3, #16
 3116 01e4 1B0C     		lsrs	r3, r3, #16
 3117 01e6 020C     		lsrs	r2, r0, #16
 3118 01e8 1204     		lsls	r2, r2, #16
 3119 01ea 1343     		orrs	r3, r2
 3120 01ec 1800     		movs	r0, r3
 3121 01ee 2300     		movs	r3, r4
 3122 01f0 0A00     		movs	r2, r1
 3123 01f2 0021     		movs	r1, #0
 3124 01f4 FFF7FEFF 		bl	CyBle_CgmssSendNotification
 3125 01f8 0300     		movs	r3, r0
 3126 01fa 1A00     		movs	r2, r3
 3127 01fc 1F4B     		ldr	r3, .L156+12
 3128 01fe 1A80     		strh	r2, [r3]
 889:cgmss.c       **** 	if(apiResult != CYBLE_ERROR_OK)
 3129              		.loc 1 889 0
 3130 0200 1E4B     		ldr	r3, .L156+12
 3131 0202 1B88     		ldrh	r3, [r3]
 3132 0204 002B     		cmp	r3, #0
 3133 0206 06D0     		beq	.L151
 890:cgmss.c       **** 	{
 891:cgmss.c       **** 		DBG_PRINTF("CgmsSendCgmtNtf API Error: ");
 3134              		.loc 1 891 0
 3135 0208 1D4B     		ldr	r3, .L156+16
 3136 020a 1800     		movs	r0, r3
 3137 020c FFF7FEFF 		bl	printf
 892:cgmss.c       ****         PrintApiResult();
 3138              		.loc 1 892 0
 3139 0210 FFF7FEFF 		bl	PrintApiResult
 893:cgmss.c       **** 	}
 894:cgmss.c       ****     else
 895:cgmss.c       ****     {
 896:cgmss.c       ****         DBG_PRINTF("Cgmt Ntf: ");
 897:cgmss.c       ****         for(b = 0; b < ptr; b++)
ARM GAS  C:\Users\cypress\AppData\Local\Temp\ccgxY6Ea.s 			page 82


 898:cgmss.c       ****         {
 899:cgmss.c       ****             DBG_PRINTF("%2.2x ", pdu[b]);
 900:cgmss.c       ****         }
 901:cgmss.c       ****         DBG_PRINTF("\r\n");
 902:cgmss.c       ****     }
 903:cgmss.c       **** }
 3140              		.loc 1 903 0
 3141 0214 27E0     		b	.L155
 3142              	.L151:
 896:cgmss.c       ****         for(b = 0; b < ptr; b++)
 3143              		.loc 1 896 0
 3144 0216 1B4B     		ldr	r3, .L156+20
 3145 0218 1800     		movs	r0, r3
 3146 021a FFF7FEFF 		bl	printf
 897:cgmss.c       ****         {
 3147              		.loc 1 897 0
 3148 021e 2623     		movs	r3, #38
 3149 0220 FB18     		adds	r3, r7, r3
 3150 0222 0022     		movs	r2, #0
 3151 0224 1A70     		strb	r2, [r3]
 3152 0226 12E0     		b	.L153
 3153              	.L154:
 899:cgmss.c       ****         }
 3154              		.loc 1 899 0 discriminator 3
 3155 0228 2623     		movs	r3, #38
 3156 022a FB18     		adds	r3, r7, r3
 3157 022c 1B78     		ldrb	r3, [r3]
 3158 022e 1422     		movs	r2, #20
 3159 0230 BA18     		adds	r2, r7, r2
 3160 0232 D35C     		ldrb	r3, [r2, r3]
 3161 0234 1A00     		movs	r2, r3
 3162 0236 144B     		ldr	r3, .L156+24
 3163 0238 1100     		movs	r1, r2
 3164 023a 1800     		movs	r0, r3
 3165 023c FFF7FEFF 		bl	printf
 897:cgmss.c       ****         {
 3166              		.loc 1 897 0 discriminator 3
 3167 0240 2623     		movs	r3, #38
 3168 0242 FB18     		adds	r3, r7, r3
 3169 0244 1A78     		ldrb	r2, [r3]
 3170 0246 2623     		movs	r3, #38
 3171 0248 FB18     		adds	r3, r7, r3
 3172 024a 0132     		adds	r2, r2, #1
 3173 024c 1A70     		strb	r2, [r3]
 3174              	.L153:
 897:cgmss.c       ****         {
 3175              		.loc 1 897 0 is_stmt 0 discriminator 1
 3176 024e 2623     		movs	r3, #38
 3177 0250 FA18     		adds	r2, r7, r3
 3178 0252 2723     		movs	r3, #39
 3179 0254 FB18     		adds	r3, r7, r3
 3180 0256 1278     		ldrb	r2, [r2]
 3181 0258 1B78     		ldrb	r3, [r3]
 3182 025a 9A42     		cmp	r2, r3
 3183 025c E4D3     		bcc	.L154
 901:cgmss.c       ****     }
 3184              		.loc 1 901 0 is_stmt 1
ARM GAS  C:\Users\cypress\AppData\Local\Temp\ccgxY6Ea.s 			page 83


 3185 025e 0B4B     		ldr	r3, .L156+28
 3186 0260 1800     		movs	r0, r3
 3187 0262 FFF7FEFF 		bl	puts
 3188              	.L155:
 3189              		.loc 1 903 0
 3190 0266 C046     		nop
 3191 0268 BD46     		mov	sp, r7
 3192 026a 0BB0     		add	sp, sp, #44
 3193              		@ sp needed
 3194 026c 90BD     		pop	{r4, r7, pc}
 3195              	.L157:
 3196 026e C046     		.align	2
 3197              	.L156:
 3198 0270 00000000 		.word	cgft
 3199 0274 00000000 		.word	cyBle_busyStatus
 3200 0278 00000000 		.word	cyBle_connHandle
 3201 027c 00000000 		.word	apiResult
 3202 0280 FC0A0000 		.word	.LC217
 3203 0284 180B0000 		.word	.LC219
 3204 0288 40010000 		.word	.LC38
 3205 028c 48010000 		.word	.LC40
 3206              		.cfi_endproc
 3207              	.LFE42:
 3208              		.size	CgmsSendCgmtNtf, .-CgmsSendCgmtNtf
 3209              		.section	.text.CgmsRacpOpCodeProcess,"ax",%progbits
 3210              		.align	2
 3211              		.global	CgmsRacpOpCodeProcess
 3212              		.code	16
 3213              		.thumb_func
 3214              		.type	CgmsRacpOpCodeProcess, %function
 3215              	CgmsRacpOpCodeProcess:
 3216              	.LFB43:
 904:cgmss.c       **** 
 905:cgmss.c       **** 
 906:cgmss.c       **** /******************************************************************************
 907:cgmss.c       **** ##Function Name: CgmsRacpOpCodeProcess
 908:cgmss.c       **** *******************************************************************************
 909:cgmss.c       **** 
 910:cgmss.c       **** Summary:
 911:cgmss.c       ****   Processes the CGM record depending on RACP OpCode.
 912:cgmss.c       **** 
 913:cgmss.c       **** Parameters:
 914:cgmss.c       ****   uint8 recNum: the number of the CGM record.
 915:cgmss.c       **** 
 916:cgmss.c       **** Return:
 917:cgmss.c       ****   None. 
 918:cgmss.c       **** 
 919:cgmss.c       **** ******************************************************************************/
 920:cgmss.c       **** void CgmsRacpOpCodeProcess(uint8 recNum)
 921:cgmss.c       **** {
 3217              		.loc 1 921 0
 3218              		.cfi_startproc
 3219              		@ args = 0, pretend = 0, frame = 8
 3220              		@ frame_needed = 1, uses_anonymous_args = 0
 3221 0000 90B5     		push	{r4, r7, lr}
 3222              		.cfi_def_cfa_offset 12
 3223              		.cfi_offset 4, -12
ARM GAS  C:\Users\cypress\AppData\Local\Temp\ccgxY6Ea.s 			page 84


 3224              		.cfi_offset 7, -8
 3225              		.cfi_offset 14, -4
 3226 0002 83B0     		sub	sp, sp, #12
 3227              		.cfi_def_cfa_offset 24
 3228 0004 00AF     		add	r7, sp, #0
 3229              		.cfi_def_cfa_register 7
 3230 0006 0200     		movs	r2, r0
 3231 0008 FB1D     		adds	r3, r7, #7
 3232 000a 1A70     		strb	r2, [r3]
 922:cgmss.c       ****     attr[3u] = CYBLE_CGMS_RACP_RSP_SUCCESS;
 3233              		.loc 1 922 0
 3234 000c 164B     		ldr	r3, .L165
 3235 000e 0122     		movs	r2, #1
 3236 0010 DA70     		strb	r2, [r3, #3]
 923:cgmss.c       ****     
 924:cgmss.c       ****     switch(racpOpCode)
 3237              		.loc 1 924 0
 3238 0012 164B     		ldr	r3, .L165+4
 3239 0014 1B78     		ldrb	r3, [r3]
 3240 0016 022B     		cmp	r3, #2
 3241 0018 18D0     		beq	.L160
 3242 001a 042B     		cmp	r3, #4
 3243 001c 0FD0     		beq	.L161
 3244 001e 012B     		cmp	r3, #1
 3245 0020 1AD1     		bne	.L164
 925:cgmss.c       ****     {
 926:cgmss.c       ****         case CYBLE_CGMS_RACP_OPC_REPORT_REC:
 927:cgmss.c       ****             CgmsSendCgmtNtf(cgmt[recNum]);
 3246              		.loc 1 927 0
 3247 0022 FB1D     		adds	r3, r7, #7
 3248 0024 1B78     		ldrb	r3, [r3]
 3249 0026 124C     		ldr	r4, .L165+8
 3250 0028 1B01     		lsls	r3, r3, #4
 3251 002a 1859     		ldr	r0, [r3, r4]
 3252 002c E218     		adds	r2, r4, r3
 3253 002e 5168     		ldr	r1, [r2, #4]
 3254 0030 E218     		adds	r2, r4, r3
 3255 0032 9268     		ldr	r2, [r2, #8]
 3256 0034 E318     		adds	r3, r4, r3
 3257 0036 DB68     		ldr	r3, [r3, #12]
 3258 0038 FFF7FEFF 		bl	CgmsSendCgmtNtf
 928:cgmss.c       ****             break;
 3259              		.loc 1 928 0
 3260 003c 10E0     		b	.L163
 3261              	.L161:
 929:cgmss.c       ****             
 930:cgmss.c       ****         case CYBLE_CGMS_RACP_OPC_REPORT_NUM_REC:
 931:cgmss.c       ****             recCnt++;
 3262              		.loc 1 931 0
 3263 003e 0D4B     		ldr	r3, .L165+12
 3264 0040 1B78     		ldrb	r3, [r3]
 3265 0042 0133     		adds	r3, r3, #1
 3266 0044 DAB2     		uxtb	r2, r3
 3267 0046 0B4B     		ldr	r3, .L165+12
 3268 0048 1A70     		strb	r2, [r3]
 932:cgmss.c       ****             break;
 3269              		.loc 1 932 0
ARM GAS  C:\Users\cypress\AppData\Local\Temp\ccgxY6Ea.s 			page 85


 3270 004a 09E0     		b	.L163
 3271              	.L160:
 933:cgmss.c       ****             
 934:cgmss.c       ****         case CYBLE_CGMS_RACP_OPC_DELETE_REC:
 935:cgmss.c       ****             recStatus[recNum] = REC_STATUS_DELETED;
 3272              		.loc 1 935 0
 3273 004c FB1D     		adds	r3, r7, #7
 3274 004e 1B78     		ldrb	r3, [r3]
 3275 0050 094A     		ldr	r2, .L165+16
 3276 0052 0121     		movs	r1, #1
 3277 0054 D154     		strb	r1, [r2, r3]
 936:cgmss.c       ****             break;
 3278              		.loc 1 936 0
 3279 0056 03E0     		b	.L163
 3280              	.L164:
 937:cgmss.c       ****             
 938:cgmss.c       ****         default:
 939:cgmss.c       ****             attr[3u] = CYBLE_CGMS_RACP_RSP_UNSPRT_OPC;
 3281              		.loc 1 939 0
 3282 0058 034B     		ldr	r3, .L165
 3283 005a 0222     		movs	r2, #2
 3284 005c DA70     		strb	r2, [r3, #3]
 940:cgmss.c       ****             break;
 3285              		.loc 1 940 0
 3286 005e C046     		nop
 3287              	.L163:
 941:cgmss.c       ****     }
 942:cgmss.c       **** }
 3288              		.loc 1 942 0
 3289 0060 C046     		nop
 3290 0062 BD46     		mov	sp, r7
 3291 0064 03B0     		add	sp, sp, #12
 3292              		@ sp needed
 3293 0066 90BD     		pop	{r4, r7, pc}
 3294              	.L166:
 3295              		.align	2
 3296              	.L165:
 3297 0068 00000000 		.word	attr
 3298 006c 00000000 		.word	racpOpCode
 3299 0070 00000000 		.word	cgmt
 3300 0074 00000000 		.word	recCnt
 3301 0078 00000000 		.word	recStatus
 3302              		.cfi_endproc
 3303              	.LFE43:
 3304              		.size	CgmsRacpOpCodeProcess, .-CgmsRacpOpCodeProcess
 3305              		.section	.rodata
 3306 0b23 00       		.align	2
 3307              	.LC241:
 3308 0b24 4379426C 		.ascii	"CyBle_CgmssSendIndication API Error: \000"
 3308      655F4367 
 3308      6D737353 
 3308      656E6449 
 3308      6E646963 
 3309 0b4a 0000     		.align	2
 3310              	.LC243:
 3311 0b4c 52414350 		.ascii	"RACP Ind: \000"
 3311      20496E64 
ARM GAS  C:\Users\cypress\AppData\Local\Temp\ccgxY6Ea.s 			page 86


 3311      3A2000
 3312 0b57 00       		.align	2
 3313              	.LC254:
 3314 0b58 534F4350 		.ascii	"SOCP Ind: \000"
 3314      20496E64 
 3314      3A2000
 3315              		.section	.text.CgmsProcess,"ax",%progbits
 3316              		.align	2
 3317              		.global	CgmsProcess
 3318              		.code	16
 3319              		.thumb_func
 3320              		.type	CgmsProcess, %function
 3321              	CgmsProcess:
 3322              	.LFB44:
 943:cgmss.c       **** 
 944:cgmss.c       **** 
 945:cgmss.c       **** /******************************************************************************
 946:cgmss.c       **** ##Function Name: CgmsProcess
 947:cgmss.c       **** *******************************************************************************
 948:cgmss.c       **** 
 949:cgmss.c       **** Summary:
 950:cgmss.c       ****   Processes the CGM control points requests.
 951:cgmss.c       **** 
 952:cgmss.c       **** ******************************************************************************/
 953:cgmss.c       **** void CgmsProcess(void)
 954:cgmss.c       **** {
 3323              		.loc 1 954 0
 3324              		.cfi_startproc
 3325              		@ args = 0, pretend = 0, frame = 8
 3326              		@ frame_needed = 1, uses_anonymous_args = 0
 3327 0000 90B5     		push	{r4, r7, lr}
 3328              		.cfi_def_cfa_offset 12
 3329              		.cfi_offset 4, -12
 3330              		.cfi_offset 7, -8
 3331              		.cfi_offset 14, -4
 3332 0002 83B0     		sub	sp, sp, #12
 3333              		.cfi_def_cfa_offset 24
 3334 0004 00AF     		add	r7, sp, #0
 3335              		.cfi_def_cfa_register 7
 955:cgmss.c       ****     uint8 recNum;
 956:cgmss.c       ****             
 957:cgmss.c       ****     if((cgmsFlag & CGMS_FLAG_RACP) != 0u)
 3336              		.loc 1 957 0
 3337 0006 B64B     		ldr	r3, .L234
 3338 0008 1B78     		ldrb	r3, [r3]
 3339 000a 1A00     		movs	r2, r3
 3340 000c 0223     		movs	r3, #2
 3341 000e 1340     		ands	r3, r2
 3342 0010 00D1     		bne	.LCB2557
 3343 0012 A8E1     		b	.L168	@long jump
 3344              	.LCB2557:
 958:cgmss.c       ****     {
 959:cgmss.c       ****         switch(racpOperator)
 3345              		.loc 1 959 0
 3346 0014 B34B     		ldr	r3, .L234+4
 3347 0016 1B78     		ldrb	r3, [r3]
 3348 0018 062B     		cmp	r3, #6
ARM GAS  C:\Users\cypress\AppData\Local\Temp\ccgxY6Ea.s 			page 87


 3349 001a 00D9     		bls	.LCB2561
 3350 001c 03E1     		b	.L169	@long jump
 3351              	.LCB2561:
 3352 001e 9A00     		lsls	r2, r3, #2
 3353 0020 B14B     		ldr	r3, .L234+8
 3354 0022 D318     		adds	r3, r2, r3
 3355 0024 1B68     		ldr	r3, [r3]
 3356 0026 9F46     		mov	pc, r3
 3357              		.section	.rodata
 3358 0b63 00       		.align	2
 3359              	.L171:
 3360 0b64 28000000 		.word	.L170
 3361 0b68 6A000000 		.word	.L172
 3362 0b6c B2000000 		.word	.L173
 3363 0b70 22010000 		.word	.L174
 3364 0b74 92010000 		.word	.L175
 3365 0b78 58000000 		.word	.L176
 3366 0b7c 46000000 		.word	.L177
 3367              		.section	.text.CgmsProcess
 3368              	.L170:
 960:cgmss.c       ****         {
 961:cgmss.c       ****             case CYBLE_CGMS_RACP_OPR_NULL:
 962:cgmss.c       ****                 switch(racpOpCode)
 3369              		.loc 1 962 0
 3370 0028 B04B     		ldr	r3, .L234+12
 3371 002a 1B78     		ldrb	r3, [r3]
 3372 002c 012B     		cmp	r3, #1
 3373 002e 08DB     		blt	.L225
 3374 0030 022B     		cmp	r3, #2
 3375 0032 02DD     		ble	.L179
 3376 0034 042B     		cmp	r3, #4
 3377 0036 00D0     		beq	.L179
 963:cgmss.c       ****                 {
 964:cgmss.c       ****                     case CYBLE_CGMS_RACP_OPC_REPORT_REC:
 965:cgmss.c       ****                     case CYBLE_CGMS_RACP_OPC_DELETE_REC:
 966:cgmss.c       ****                     case CYBLE_CGMS_RACP_OPC_REPORT_NUM_REC:
 967:cgmss.c       ****                         attr[3u] = CYBLE_CGMS_RACP_RSP_INV_OPR;
 968:cgmss.c       ****                         break;
 969:cgmss.c       ****                         
 970:cgmss.c       ****                     default:
 971:cgmss.c       ****                         break;
 3378              		.loc 1 971 0
 3379 0038 03E0     		b	.L225
 3380              	.L179:
 967:cgmss.c       ****                         break;
 3381              		.loc 1 967 0
 3382 003a AD4B     		ldr	r3, .L234+16
 3383 003c 0322     		movs	r2, #3
 3384 003e DA70     		strb	r2, [r3, #3]
 968:cgmss.c       ****                         
 3385              		.loc 1 968 0
 3386 0040 00E0     		b	.L180
 3387              	.L225:
 3388              		.loc 1 971 0
 3389 0042 C046     		nop
 3390              	.L180:
 972:cgmss.c       ****                 }
ARM GAS  C:\Users\cypress\AppData\Local\Temp\ccgxY6Ea.s 			page 88


 973:cgmss.c       ****                 break;
 3391              		.loc 1 973 0 discriminator 1
 3392 0044 FEE0     		b	.L181
 3393              	.L177:
 974:cgmss.c       ****             
 975:cgmss.c       ****             case CYBLE_CGMS_RACP_OPR_LAST:
 976:cgmss.c       ****                 if(CYBLE_CGMS_RACP_RSP_SUCCESS == attr[3u])
 3394              		.loc 1 976 0
 3395 0046 AA4B     		ldr	r3, .L234+16
 3396 0048 DB78     		ldrb	r3, [r3, #3]
 3397 004a 012B     		cmp	r3, #1
 3398 004c 00D0     		beq	.LCB2602
 3399 004e EEE0     		b	.L226	@long jump
 3400              	.LCB2602:
 977:cgmss.c       ****                 {
 978:cgmss.c       ****                     CgmsRacpOpCodeProcess(REC_NUM - 1u);
 3401              		.loc 1 978 0
 3402 0050 0220     		movs	r0, #2
 3403 0052 FFF7FEFF 		bl	CgmsRacpOpCodeProcess
 979:cgmss.c       ****                 }
 980:cgmss.c       ****                 break;
 3404              		.loc 1 980 0
 3405 0056 EAE0     		b	.L226
 3406              	.L176:
 981:cgmss.c       ****                 
 982:cgmss.c       ****             case CYBLE_CGMS_RACP_OPR_FIRST:
 983:cgmss.c       ****                 if(CYBLE_CGMS_RACP_RSP_SUCCESS == attr[3u])
 3407              		.loc 1 983 0
 3408 0058 A54B     		ldr	r3, .L234+16
 3409 005a DB78     		ldrb	r3, [r3, #3]
 3410 005c 012B     		cmp	r3, #1
 3411 005e 00D0     		beq	.LCB2612
 3412 0060 E7E0     		b	.L227	@long jump
 3413              	.LCB2612:
 984:cgmss.c       ****                 {
 985:cgmss.c       ****                     CgmsRacpOpCodeProcess(0u);
 3414              		.loc 1 985 0
 3415 0062 0020     		movs	r0, #0
 3416 0064 FFF7FEFF 		bl	CgmsRacpOpCodeProcess
 986:cgmss.c       ****                 }
 987:cgmss.c       ****                 break;
 3417              		.loc 1 987 0
 3418 0068 E3E0     		b	.L227
 3419              	.L172:
 988:cgmss.c       ****                 
 989:cgmss.c       ****             case CYBLE_CGMS_RACP_OPR_ALL:
 990:cgmss.c       ****                 if(CYBLE_CGMS_RACP_RSP_SUCCESS == attr[3u])
 3420              		.loc 1 990 0
 3421 006a A14B     		ldr	r3, .L234+16
 3422 006c DB78     		ldrb	r3, [r3, #3]
 3423 006e 012B     		cmp	r3, #1
 3424 0070 00D0     		beq	.LCB2622
 3425 0072 E0E0     		b	.L228	@long jump
 3426              	.LCB2622:
 991:cgmss.c       ****                 {
 992:cgmss.c       ****                     attr[3u] = CYBLE_CGMS_RACP_RSP_NO_REC;
 3427              		.loc 1 992 0
ARM GAS  C:\Users\cypress\AppData\Local\Temp\ccgxY6Ea.s 			page 89


 3428 0074 9E4B     		ldr	r3, .L234+16
 3429 0076 0622     		movs	r2, #6
 3430 0078 DA70     		strb	r2, [r3, #3]
 993:cgmss.c       ****                     recCnt = 0u;
 3431              		.loc 1 993 0
 3432 007a 9E4B     		ldr	r3, .L234+20
 3433 007c 0022     		movs	r2, #0
 3434 007e 1A70     		strb	r2, [r3]
 994:cgmss.c       ****                     for(recNum = 0u; recNum < REC_NUM; recNum++)
 3435              		.loc 1 994 0
 3436 0080 FB1D     		adds	r3, r7, #7
 3437 0082 0022     		movs	r2, #0
 3438 0084 1A70     		strb	r2, [r3]
 3439 0086 0FE0     		b	.L185
 3440              	.L187:
 995:cgmss.c       ****                     {  
 996:cgmss.c       ****                         if(REC_STATUS_OK == recStatus[recNum])
 3441              		.loc 1 996 0
 3442 0088 FB1D     		adds	r3, r7, #7
 3443 008a 1B78     		ldrb	r3, [r3]
 3444 008c 9A4A     		ldr	r2, .L234+24
 3445 008e D35C     		ldrb	r3, [r2, r3]
 3446 0090 002B     		cmp	r3, #0
 3447 0092 04D1     		bne	.L186
 997:cgmss.c       ****                         {
 998:cgmss.c       ****                             CgmsRacpOpCodeProcess(recNum);
 3448              		.loc 1 998 0
 3449 0094 FB1D     		adds	r3, r7, #7
 3450 0096 1B78     		ldrb	r3, [r3]
 3451 0098 1800     		movs	r0, r3
 3452 009a FFF7FEFF 		bl	CgmsRacpOpCodeProcess
 3453              	.L186:
 994:cgmss.c       ****                     {  
 3454              		.loc 1 994 0 discriminator 2
 3455 009e FB1D     		adds	r3, r7, #7
 3456 00a0 1A78     		ldrb	r2, [r3]
 3457 00a2 FB1D     		adds	r3, r7, #7
 3458 00a4 0132     		adds	r2, r2, #1
 3459 00a6 1A70     		strb	r2, [r3]
 3460              	.L185:
 994:cgmss.c       ****                     {  
 3461              		.loc 1 994 0 is_stmt 0 discriminator 1
 3462 00a8 FB1D     		adds	r3, r7, #7
 3463 00aa 1B78     		ldrb	r3, [r3]
 3464 00ac 022B     		cmp	r3, #2
 3465 00ae EBD9     		bls	.L187
 999:cgmss.c       ****                         } 
1000:cgmss.c       ****                     }
1001:cgmss.c       ****                 }
1002:cgmss.c       ****                 break;
 3466              		.loc 1 1002 0 is_stmt 1
 3467 00b0 C1E0     		b	.L228
 3468              	.L173:
1003:cgmss.c       ****                 
1004:cgmss.c       ****             case CYBLE_CGMS_RACP_OPR_LESS:
1005:cgmss.c       ****                 if(CYBLE_CGMS_RACP_RSP_SUCCESS == attr[3u])
 3469              		.loc 1 1005 0
ARM GAS  C:\Users\cypress\AppData\Local\Temp\ccgxY6Ea.s 			page 90


 3470 00b2 8F4B     		ldr	r3, .L234+16
 3471 00b4 DB78     		ldrb	r3, [r3, #3]
 3472 00b6 012B     		cmp	r3, #1
 3473 00b8 00D0     		beq	.LCB2666
 3474 00ba BEE0     		b	.L229	@long jump
 3475              	.LCB2666:
1006:cgmss.c       ****                 {
1007:cgmss.c       ****                     attr[3] = CYBLE_CGMS_RACP_RSP_NO_REC;
 3476              		.loc 1 1007 0
 3477 00bc 8C4B     		ldr	r3, .L234+16
 3478 00be 0622     		movs	r2, #6
 3479 00c0 DA70     		strb	r2, [r3, #3]
1008:cgmss.c       ****                     
1009:cgmss.c       ****                     if(CYBLE_CGMS_RACP_OPD_1 == racpOperand[0u])
 3480              		.loc 1 1009 0
 3481 00c2 8E4B     		ldr	r3, .L234+28
 3482 00c4 1B78     		ldrb	r3, [r3]
 3483 00c6 012B     		cmp	r3, #1
 3484 00c8 27D1     		bne	.L189
1010:cgmss.c       ****                     {
1011:cgmss.c       ****                         recCnt = 0u;
 3485              		.loc 1 1011 0
 3486 00ca 8A4B     		ldr	r3, .L234+20
 3487 00cc 0022     		movs	r2, #0
 3488 00ce 1A70     		strb	r2, [r3]
1012:cgmss.c       ****                         for(recNum = 0; recNum < REC_NUM; recNum++)
 3489              		.loc 1 1012 0
 3490 00d0 FB1D     		adds	r3, r7, #7
 3491 00d2 0022     		movs	r2, #0
 3492 00d4 1A70     		strb	r2, [r3]
 3493 00d6 1BE0     		b	.L190
 3494              	.L192:
1013:cgmss.c       ****                         {
1014:cgmss.c       ****                             if((cgmt[recNum].timeOffset <= racpOperand[1u]) && (REC_STATUS_OK == re
 3495              		.loc 1 1014 0
 3496 00d8 FB1D     		adds	r3, r7, #7
 3497 00da 1B78     		ldrb	r3, [r3]
 3498 00dc 884A     		ldr	r2, .L234+32
 3499 00de 1B01     		lsls	r3, r3, #4
 3500 00e0 D318     		adds	r3, r2, r3
 3501 00e2 0433     		adds	r3, r3, #4
 3502 00e4 1A88     		ldrh	r2, [r3]
 3503 00e6 854B     		ldr	r3, .L234+28
 3504 00e8 5B78     		ldrb	r3, [r3, #1]
 3505 00ea 9BB2     		uxth	r3, r3
 3506 00ec 9A42     		cmp	r2, r3
 3507 00ee 0AD8     		bhi	.L191
 3508              		.loc 1 1014 0 is_stmt 0 discriminator 1
 3509 00f0 FB1D     		adds	r3, r7, #7
 3510 00f2 1B78     		ldrb	r3, [r3]
 3511 00f4 804A     		ldr	r2, .L234+24
 3512 00f6 D35C     		ldrb	r3, [r2, r3]
 3513 00f8 002B     		cmp	r3, #0
 3514 00fa 04D1     		bne	.L191
1015:cgmss.c       ****                             {
1016:cgmss.c       ****                                 CgmsRacpOpCodeProcess(recNum);
 3515              		.loc 1 1016 0 is_stmt 1
ARM GAS  C:\Users\cypress\AppData\Local\Temp\ccgxY6Ea.s 			page 91


 3516 00fc FB1D     		adds	r3, r7, #7
 3517 00fe 1B78     		ldrb	r3, [r3]
 3518 0100 1800     		movs	r0, r3
 3519 0102 FFF7FEFF 		bl	CgmsRacpOpCodeProcess
 3520              	.L191:
1012:cgmss.c       ****                         {
 3521              		.loc 1 1012 0 discriminator 2
 3522 0106 FB1D     		adds	r3, r7, #7
 3523 0108 1A78     		ldrb	r2, [r3]
 3524 010a FB1D     		adds	r3, r7, #7
 3525 010c 0132     		adds	r2, r2, #1
 3526 010e 1A70     		strb	r2, [r3]
 3527              	.L190:
1012:cgmss.c       ****                         {
 3528              		.loc 1 1012 0 is_stmt 0 discriminator 1
 3529 0110 FB1D     		adds	r3, r7, #7
 3530 0112 1B78     		ldrb	r3, [r3]
 3531 0114 022B     		cmp	r3, #2
 3532 0116 DFD9     		bls	.L192
1017:cgmss.c       ****                             }    
1018:cgmss.c       ****                         }
1019:cgmss.c       ****                     }
1020:cgmss.c       ****                     else
1021:cgmss.c       ****                     {
1022:cgmss.c       ****                         attr[3u] = CYBLE_CGMS_RACP_RSP_UNSPRT_OPD;
1023:cgmss.c       ****                     }
1024:cgmss.c       ****                 }
1025:cgmss.c       ****                 break;
 3533              		.loc 1 1025 0 is_stmt 1
 3534 0118 8FE0     		b	.L229
 3535              	.L189:
1022:cgmss.c       ****                     }
 3536              		.loc 1 1022 0
 3537 011a 754B     		ldr	r3, .L234+16
 3538 011c 0922     		movs	r2, #9
 3539 011e DA70     		strb	r2, [r3, #3]
 3540              		.loc 1 1025 0
 3541 0120 8BE0     		b	.L229
 3542              	.L174:
1026:cgmss.c       ****                 
1027:cgmss.c       ****             case CYBLE_CGMS_RACP_OPR_GREAT:
1028:cgmss.c       ****                 if(CYBLE_CGMS_RACP_RSP_SUCCESS == attr[3u])
 3543              		.loc 1 1028 0
 3544 0122 734B     		ldr	r3, .L234+16
 3545 0124 DB78     		ldrb	r3, [r3, #3]
 3546 0126 012B     		cmp	r3, #1
 3547 0128 00D0     		beq	.LCB2733
 3548 012a 88E0     		b	.L230	@long jump
 3549              	.LCB2733:
1029:cgmss.c       ****                 {
1030:cgmss.c       ****                     attr[3u] = CYBLE_CGMS_RACP_RSP_NO_REC;
 3550              		.loc 1 1030 0
 3551 012c 704B     		ldr	r3, .L234+16
 3552 012e 0622     		movs	r2, #6
 3553 0130 DA70     		strb	r2, [r3, #3]
1031:cgmss.c       ****                     
1032:cgmss.c       ****                     if(CYBLE_CGMS_RACP_OPD_1 == racpOperand[0u])
ARM GAS  C:\Users\cypress\AppData\Local\Temp\ccgxY6Ea.s 			page 92


 3554              		.loc 1 1032 0
 3555 0132 724B     		ldr	r3, .L234+28
 3556 0134 1B78     		ldrb	r3, [r3]
 3557 0136 012B     		cmp	r3, #1
 3558 0138 27D1     		bne	.L194
1033:cgmss.c       ****                     {
1034:cgmss.c       ****                         recCnt = 0u;
 3559              		.loc 1 1034 0
 3560 013a 6E4B     		ldr	r3, .L234+20
 3561 013c 0022     		movs	r2, #0
 3562 013e 1A70     		strb	r2, [r3]
1035:cgmss.c       ****                         for(recNum = 0; recNum < REC_NUM; recNum++)
 3563              		.loc 1 1035 0
 3564 0140 FB1D     		adds	r3, r7, #7
 3565 0142 0022     		movs	r2, #0
 3566 0144 1A70     		strb	r2, [r3]
 3567 0146 1BE0     		b	.L195
 3568              	.L197:
1036:cgmss.c       ****                         {
1037:cgmss.c       ****                             if((cgmt[recNum].timeOffset >= racpOperand[1u]) && (REC_STATUS_OK == re
 3569              		.loc 1 1037 0
 3570 0148 FB1D     		adds	r3, r7, #7
 3571 014a 1B78     		ldrb	r3, [r3]
 3572 014c 6C4A     		ldr	r2, .L234+32
 3573 014e 1B01     		lsls	r3, r3, #4
 3574 0150 D318     		adds	r3, r2, r3
 3575 0152 0433     		adds	r3, r3, #4
 3576 0154 1A88     		ldrh	r2, [r3]
 3577 0156 694B     		ldr	r3, .L234+28
 3578 0158 5B78     		ldrb	r3, [r3, #1]
 3579 015a 9BB2     		uxth	r3, r3
 3580 015c 9A42     		cmp	r2, r3
 3581 015e 0AD3     		bcc	.L196
 3582              		.loc 1 1037 0 is_stmt 0 discriminator 1
 3583 0160 FB1D     		adds	r3, r7, #7
 3584 0162 1B78     		ldrb	r3, [r3]
 3585 0164 644A     		ldr	r2, .L234+24
 3586 0166 D35C     		ldrb	r3, [r2, r3]
 3587 0168 002B     		cmp	r3, #0
 3588 016a 04D1     		bne	.L196
1038:cgmss.c       ****                             {
1039:cgmss.c       ****                                 CgmsRacpOpCodeProcess(recNum);
 3589              		.loc 1 1039 0 is_stmt 1
 3590 016c FB1D     		adds	r3, r7, #7
 3591 016e 1B78     		ldrb	r3, [r3]
 3592 0170 1800     		movs	r0, r3
 3593 0172 FFF7FEFF 		bl	CgmsRacpOpCodeProcess
 3594              	.L196:
1035:cgmss.c       ****                         {
 3595              		.loc 1 1035 0 discriminator 2
 3596 0176 FB1D     		adds	r3, r7, #7
 3597 0178 1A78     		ldrb	r2, [r3]
 3598 017a FB1D     		adds	r3, r7, #7
 3599 017c 0132     		adds	r2, r2, #1
 3600 017e 1A70     		strb	r2, [r3]
 3601              	.L195:
1035:cgmss.c       ****                         {
ARM GAS  C:\Users\cypress\AppData\Local\Temp\ccgxY6Ea.s 			page 93


 3602              		.loc 1 1035 0 is_stmt 0 discriminator 1
 3603 0180 FB1D     		adds	r3, r7, #7
 3604 0182 1B78     		ldrb	r3, [r3]
 3605 0184 022B     		cmp	r3, #2
 3606 0186 DFD9     		bls	.L197
1040:cgmss.c       ****                             }    
1041:cgmss.c       ****                         }
1042:cgmss.c       ****                     }
1043:cgmss.c       ****                     else
1044:cgmss.c       ****                     {
1045:cgmss.c       ****                         attr[3u] = CYBLE_CGMS_RACP_RSP_UNSPRT_OPD;
1046:cgmss.c       ****                     }
1047:cgmss.c       ****                 }
1048:cgmss.c       ****                 break;
 3607              		.loc 1 1048 0 is_stmt 1
 3608 0188 59E0     		b	.L230
 3609              	.L194:
1045:cgmss.c       ****                     }
 3610              		.loc 1 1045 0
 3611 018a 594B     		ldr	r3, .L234+16
 3612 018c 0922     		movs	r2, #9
 3613 018e DA70     		strb	r2, [r3, #3]
 3614              		.loc 1 1048 0
 3615 0190 55E0     		b	.L230
 3616              	.L175:
1049:cgmss.c       ****                 
1050:cgmss.c       ****             case CYBLE_CGMS_RACP_OPR_WITHIN:
1051:cgmss.c       ****                 if(CYBLE_CGMS_RACP_RSP_SUCCESS == attr[3u])
 3617              		.loc 1 1051 0
 3618 0192 574B     		ldr	r3, .L234+16
 3619 0194 DB78     		ldrb	r3, [r3, #3]
 3620 0196 012B     		cmp	r3, #1
 3621 0198 53D1     		bne	.L231
1052:cgmss.c       ****                 {
1053:cgmss.c       ****                     attr[3u] = CYBLE_CGMS_RACP_RSP_NO_REC;
 3622              		.loc 1 1053 0
 3623 019a 554B     		ldr	r3, .L234+16
 3624 019c 0622     		movs	r2, #6
 3625 019e DA70     		strb	r2, [r3, #3]
1054:cgmss.c       ****                     
1055:cgmss.c       ****                     if(CYBLE_CGMS_RACP_OPD_1 == racpOperand[0u])
 3626              		.loc 1 1055 0
 3627 01a0 564B     		ldr	r3, .L234+28
 3628 01a2 1B78     		ldrb	r3, [r3]
 3629 01a4 012B     		cmp	r3, #1
 3630 01a6 3AD1     		bne	.L199
1056:cgmss.c       ****                     {
1057:cgmss.c       ****                         if(racpOperand[1] > racpOperand[2u])
 3631              		.loc 1 1057 0
 3632 01a8 544B     		ldr	r3, .L234+28
 3633 01aa 5A78     		ldrb	r2, [r3, #1]
 3634 01ac 534B     		ldr	r3, .L234+28
 3635 01ae 9B78     		ldrb	r3, [r3, #2]
 3636 01b0 9A42     		cmp	r2, r3
 3637 01b2 03D9     		bls	.L200
1058:cgmss.c       ****                         {
1059:cgmss.c       ****                             attr[3u] = CYBLE_CGMS_RACP_RSP_INV_OPD;   
ARM GAS  C:\Users\cypress\AppData\Local\Temp\ccgxY6Ea.s 			page 94


 3638              		.loc 1 1059 0
 3639 01b4 4E4B     		ldr	r3, .L234+16
 3640 01b6 0522     		movs	r2, #5
 3641 01b8 DA70     		strb	r2, [r3, #3]
1060:cgmss.c       ****                         }
1061:cgmss.c       ****                         else
1062:cgmss.c       ****                         {
1063:cgmss.c       ****                             for(recNum = 0; recNum < REC_NUM; recNum++)
1064:cgmss.c       ****                             {
1065:cgmss.c       ****                                 if((cgmt[recNum].timeOffset >= racpOperand[1u]) &&
1066:cgmss.c       ****                                     (cgmt[recNum].timeOffset <= racpOperand[2u]) &&
1067:cgmss.c       ****                                         (REC_STATUS_OK == recStatus[recNum]))
1068:cgmss.c       ****                                 {
1069:cgmss.c       ****                                     CgmsRacpOpCodeProcess(recNum);    
1070:cgmss.c       ****                                 }
1071:cgmss.c       ****                             }
1072:cgmss.c       ****                         }
1073:cgmss.c       ****                     }
1074:cgmss.c       ****                     else
1075:cgmss.c       ****                     {
1076:cgmss.c       ****                         attr[3u] = CYBLE_CGMS_RACP_RSP_UNSPRT_OPD;
1077:cgmss.c       ****                     }
1078:cgmss.c       ****                 }
1079:cgmss.c       ****                 break;
 3642              		.loc 1 1079 0
 3643 01ba 42E0     		b	.L231
 3644              	.L200:
1063:cgmss.c       ****                             {
 3645              		.loc 1 1063 0
 3646 01bc FB1D     		adds	r3, r7, #7
 3647 01be 0022     		movs	r2, #0
 3648 01c0 1A70     		strb	r2, [r3]
 3649 01c2 27E0     		b	.L201
 3650              	.L203:
1065:cgmss.c       ****                                     (cgmt[recNum].timeOffset <= racpOperand[2u]) &&
 3651              		.loc 1 1065 0
 3652 01c4 FB1D     		adds	r3, r7, #7
 3653 01c6 1B78     		ldrb	r3, [r3]
 3654 01c8 4D4A     		ldr	r2, .L234+32
 3655 01ca 1B01     		lsls	r3, r3, #4
 3656 01cc D318     		adds	r3, r2, r3
 3657 01ce 0433     		adds	r3, r3, #4
 3658 01d0 1A88     		ldrh	r2, [r3]
 3659 01d2 4A4B     		ldr	r3, .L234+28
 3660 01d4 5B78     		ldrb	r3, [r3, #1]
 3661 01d6 9BB2     		uxth	r3, r3
 3662 01d8 9A42     		cmp	r2, r3
 3663 01da 16D3     		bcc	.L202
1066:cgmss.c       ****                                         (REC_STATUS_OK == recStatus[recNum]))
 3664              		.loc 1 1066 0 discriminator 1
 3665 01dc FB1D     		adds	r3, r7, #7
 3666 01de 1B78     		ldrb	r3, [r3]
 3667 01e0 474A     		ldr	r2, .L234+32
 3668 01e2 1B01     		lsls	r3, r3, #4
 3669 01e4 D318     		adds	r3, r2, r3
 3670 01e6 0433     		adds	r3, r3, #4
 3671 01e8 1A88     		ldrh	r2, [r3]
ARM GAS  C:\Users\cypress\AppData\Local\Temp\ccgxY6Ea.s 			page 95


 3672 01ea 444B     		ldr	r3, .L234+28
 3673 01ec 9B78     		ldrb	r3, [r3, #2]
 3674 01ee 9BB2     		uxth	r3, r3
1065:cgmss.c       ****                                     (cgmt[recNum].timeOffset <= racpOperand[2u]) &&
 3675              		.loc 1 1065 0 discriminator 1
 3676 01f0 9A42     		cmp	r2, r3
 3677 01f2 0AD8     		bhi	.L202
1067:cgmss.c       ****                                 {
 3678              		.loc 1 1067 0
 3679 01f4 FB1D     		adds	r3, r7, #7
 3680 01f6 1B78     		ldrb	r3, [r3]
 3681 01f8 3F4A     		ldr	r2, .L234+24
 3682 01fa D35C     		ldrb	r3, [r2, r3]
1066:cgmss.c       ****                                         (REC_STATUS_OK == recStatus[recNum]))
 3683              		.loc 1 1066 0
 3684 01fc 002B     		cmp	r3, #0
 3685 01fe 04D1     		bne	.L202
1069:cgmss.c       ****                                 }
 3686              		.loc 1 1069 0
 3687 0200 FB1D     		adds	r3, r7, #7
 3688 0202 1B78     		ldrb	r3, [r3]
 3689 0204 1800     		movs	r0, r3
 3690 0206 FFF7FEFF 		bl	CgmsRacpOpCodeProcess
 3691              	.L202:
1063:cgmss.c       ****                             {
 3692              		.loc 1 1063 0 discriminator 2
 3693 020a FB1D     		adds	r3, r7, #7
 3694 020c 1A78     		ldrb	r2, [r3]
 3695 020e FB1D     		adds	r3, r7, #7
 3696 0210 0132     		adds	r2, r2, #1
 3697 0212 1A70     		strb	r2, [r3]
 3698              	.L201:
1063:cgmss.c       ****                             {
 3699              		.loc 1 1063 0 is_stmt 0 discriminator 1
 3700 0214 FB1D     		adds	r3, r7, #7
 3701 0216 1B78     		ldrb	r3, [r3]
 3702 0218 022B     		cmp	r3, #2
 3703 021a D3D9     		bls	.L203
 3704              		.loc 1 1079 0 is_stmt 1
 3705 021c 11E0     		b	.L231
 3706              	.L199:
1076:cgmss.c       ****                     }
 3707              		.loc 1 1076 0
 3708 021e 344B     		ldr	r3, .L234+16
 3709 0220 0922     		movs	r2, #9
 3710 0222 DA70     		strb	r2, [r3, #3]
 3711              		.loc 1 1079 0
 3712 0224 0DE0     		b	.L231
 3713              	.L169:
1080:cgmss.c       ****                 
1081:cgmss.c       ****             default:
1082:cgmss.c       ****                 attr[3u] = CYBLE_CGMS_RACP_RSP_UNSPRT_OPR;
 3714              		.loc 1 1082 0
 3715 0226 324B     		ldr	r3, .L234+16
 3716 0228 0422     		movs	r2, #4
 3717 022a DA70     		strb	r2, [r3, #3]
1083:cgmss.c       ****                 break;
ARM GAS  C:\Users\cypress\AppData\Local\Temp\ccgxY6Ea.s 			page 96


 3718              		.loc 1 1083 0
 3719 022c 0AE0     		b	.L181
 3720              	.L226:
 980:cgmss.c       ****                 
 3721              		.loc 1 980 0
 3722 022e C046     		nop
 3723 0230 08E0     		b	.L181
 3724              	.L227:
 987:cgmss.c       ****                 
 3725              		.loc 1 987 0
 3726 0232 C046     		nop
 3727 0234 06E0     		b	.L181
 3728              	.L228:
1002:cgmss.c       ****                 
 3729              		.loc 1 1002 0
 3730 0236 C046     		nop
 3731 0238 04E0     		b	.L181
 3732              	.L229:
1025:cgmss.c       ****                 
 3733              		.loc 1 1025 0
 3734 023a C046     		nop
 3735 023c 02E0     		b	.L181
 3736              	.L230:
1048:cgmss.c       ****                 
 3737              		.loc 1 1048 0
 3738 023e C046     		nop
 3739 0240 00E0     		b	.L181
 3740              	.L231:
1079:cgmss.c       ****                 
 3741              		.loc 1 1079 0
 3742 0242 C046     		nop
 3743              	.L181:
1084:cgmss.c       ****         }
1085:cgmss.c       ****         
1086:cgmss.c       ****         attr[1u] = CYBLE_CGMS_RACP_OPR_NULL;
 3744              		.loc 1 1086 0
 3745 0244 2A4B     		ldr	r3, .L234+16
 3746 0246 0022     		movs	r2, #0
 3747 0248 5A70     		strb	r2, [r3, #1]
1087:cgmss.c       ****         length = 4u;
 3748              		.loc 1 1087 0
 3749 024a 2E4B     		ldr	r3, .L234+36
 3750 024c 0422     		movs	r2, #4
 3751 024e 1A70     		strb	r2, [r3]
1088:cgmss.c       ****         
1089:cgmss.c       ****         if(CYBLE_CGMS_RACP_OPC_REPORT_NUM_REC == racpOpCode)
 3752              		.loc 1 1089 0
 3753 0250 264B     		ldr	r3, .L234+12
 3754 0252 1B78     		ldrb	r3, [r3]
 3755 0254 042B     		cmp	r3, #4
 3756 0256 0AD1     		bne	.L204
1090:cgmss.c       ****         {
1091:cgmss.c       ****             attr[0u] = CYBLE_CGMS_RACP_OPC_NUM_REC_RSP;
 3757              		.loc 1 1091 0
 3758 0258 254B     		ldr	r3, .L234+16
 3759 025a 0522     		movs	r2, #5
 3760 025c 1A70     		strb	r2, [r3]
ARM GAS  C:\Users\cypress\AppData\Local\Temp\ccgxY6Ea.s 			page 97


1092:cgmss.c       ****             attr[2u] = recCnt;
 3761              		.loc 1 1092 0
 3762 025e 254B     		ldr	r3, .L234+20
 3763 0260 1A78     		ldrb	r2, [r3]
 3764 0262 234B     		ldr	r3, .L234+16
 3765 0264 9A70     		strb	r2, [r3, #2]
1093:cgmss.c       ****             attr[3u] = 0u;
 3766              		.loc 1 1093 0
 3767 0266 224B     		ldr	r3, .L234+16
 3768 0268 0022     		movs	r2, #0
 3769 026a DA70     		strb	r2, [r3, #3]
 3770 026c 06E0     		b	.L205
 3771              	.L204:
1094:cgmss.c       ****         }
1095:cgmss.c       ****         else
1096:cgmss.c       ****         {
1097:cgmss.c       ****             attr[0u] = CYBLE_CGMS_RACP_OPC_RSP_CODE;
 3772              		.loc 1 1097 0
 3773 026e 204B     		ldr	r3, .L234+16
 3774 0270 0622     		movs	r2, #6
 3775 0272 1A70     		strb	r2, [r3]
1098:cgmss.c       ****             attr[2u] = racpOpCode;
 3776              		.loc 1 1098 0
 3777 0274 1D4B     		ldr	r3, .L234+12
 3778 0276 1A78     		ldrb	r2, [r3]
 3779 0278 1D4B     		ldr	r3, .L234+16
 3780 027a 9A70     		strb	r2, [r3, #2]
 3781              	.L205:
1099:cgmss.c       ****         }
1100:cgmss.c       ****         
1101:cgmss.c       ****         do
1102:cgmss.c       ****         {
1103:cgmss.c       ****             CyBle_ProcessEvents();
 3782              		.loc 1 1103 0 discriminator 1
 3783 027c FFF7FEFF 		bl	CyBle_ProcessEvents
1104:cgmss.c       ****         }
