ARM GAS  C:\Users\cypress\AppData\Local\Temp\ccsVnWxK.s 			page 1


   1              		.syntax unified
   2              		.cpu cortex-m0
   3              		.fpu softvfp
   4              		.eabi_attribute 20, 1
   5              		.eabi_attribute 21, 1
   6              		.eabi_attribute 23, 3
   7              		.eabi_attribute 24, 1
   8              		.eabi_attribute 25, 1
   9              		.eabi_attribute 26, 1
  10              		.eabi_attribute 30, 6
  11              		.eabi_attribute 34, 0
  12              		.eabi_attribute 18, 4
  13              		.thumb
  14              		.syntax unified
  15              		.file	"main.c"
  16              		.text
  17              	.Ltext0:
  18              		.cfi_sections	.debug_frame
  19              		.comm	apiResult,2,2
  20              		.comm	i,2,2
  21              		.global	authState
  22              		.bss
  23              		.type	authState, %object
  24              		.size	authState, 1
  25              	authState:
  26 0000 00       		.space	1
  27              		.comm	passkeyValue,4,4
  28              		.comm	passkeyPow,4,4
  29              		.comm	passkeyCounter,1,1
  30              		.comm	command,1,1
  31              		.global	customCommand
  32              		.type	customCommand, %object
  33              		.size	customCommand, 1
  34              	customCommand:
  35 0001 00       		.space	1
  36              		.comm	peerAuthInfo,5,4
  37              		.section	.rodata
  38              		.align	2
  39              	.LC1:
  40 0000 4359424C 		.ascii	"CYBLE_EVT_STACK_ON \015\000"
  40      455F4556 
  40      545F5354 
  40      41434B5F 
  40      4F4E200D 
  41 0015 000000   		.align	2
  42              	.LC3:
  43 0018 4359424C 		.ascii	"CYBLE_EVT_STACK_BUSY_STATUS \015\000"
  43      455F4556 
  43      545F5354 
  43      41434B5F 
  43      42555359 
  44 0036 0000     		.align	2
  45              	.LC5:
  46 0038 4359424C 		.ascii	"CYBLE_EVT_TIMEOUT: %d \015\012\000"
  46      455F4556 
  46      545F5449 
  46      4D454F55 
ARM GAS  C:\Users\cypress\AppData\Local\Temp\ccsVnWxK.s 			page 2


  46      543A2025 
  47 0051 000000   		.align	2
  48              	.LC7:
  49 0054 4359424C 		.ascii	"CYBLE_EVT_HARDWARE_ERROR \015\000"
  49      455F4556 
  49      545F4841 
  49      52445741 
  49      52455F45 
  50 006f 00       		.align	2
  51              	.LC9:
  52 0070 4359424C 		.ascii	"CYBLE_EVT_HCI_STATUS: %x \015\012\000"
  52      455F4556 
  52      545F4843 
  52      495F5354 
  52      41545553 
  53              		.align	2
  54              	.LC12:
  55 008c 4556545F 		.ascii	"EVT_AUTH_REQ: security=%x, bonding=%x, ekeySize=%x,"
  55      41555448 
  55      5F524551 
  55      3A207365 
  55      63757269 
  56 00bf 20657272 		.ascii	" err=%x \015\012\000"
  56      3D257820 
  56      0D0A00
  57 00ca 0000     		.align	2
  58              	.LC14:
  59 00cc 4359424C 		.ascii	"CYBLE_EVT_GAP_PASSKEY_ENTRY_REQUEST\015\000"
  59      455F4556 
  59      545F4741 
  59      505F5041 
  59      53534B45 
  60 00f1 000000   		.align	2
  61              	.LC16:
  62 00f4 456E7465 		.ascii	"Enter the passkey shown in the peer device: \015\000"
  62      72207468 
  62      65207061 
  62      73736B65 
  62      79207368 
  63 0122 0000     		.align	2
  64              	.LC22:
  65 0124 456E7465 		.ascii	"Enter this passkey in your peer device: %6.6ld \015"
  65      72207468 
  65      69732070 
  65      6173736B 
  65      65792069 
  66 0154 0A00     		.ascii	"\012\000"
  67 0156 0000     		.align	2
  68              	.LC24:
  69 0158 4359424C 		.ascii	"CYBLE_EVT_GAP_AUTH_FAILED, reason: \000"
  69      455F4556 
  69      545F4741 
  69      505F4155 
  69      54485F46 
  70              		.align	2
  71              	.LC27:
  72 017c 4E4F4E45 		.ascii	"NONE\015\000"
ARM GAS  C:\Users\cypress\AppData\Local\Temp\ccsVnWxK.s 			page 3


  72      0D00
  73 0182 0000     		.align	2
  74              	.LC29:
  75 0184 50415353 		.ascii	"PASSKEY_ENTRY_FAILED\015\000"
  75      4B45595F 
  75      454E5452 
  75      595F4641 
  75      494C4544 
  76 019a 0000     		.align	2
  77              	.LC31:
  78 019c 4F4F425F 		.ascii	"OOB_DATA_NOT_AVAILABLE\015\000"
  78      44415441 
  78      5F4E4F54 
  78      5F415641 
  78      494C4142 
  79              		.align	2
  80              	.LC33:
  81 01b4 41555448 		.ascii	"AUTHENTICATION_REQ_NOT_MET\015\000"
  81      454E5449 
  81      43415449 
  81      4F4E5F52 
  81      45515F4E 
  82              		.align	2
  83              	.LC35:
  84 01d0 434F4E46 		.ascii	"CONFIRM_VALUE_NOT_MATCH\015\000"
  84      49524D5F 
  84      56414C55 
  84      455F4E4F 
  84      545F4D41 
  85 01e9 000000   		.align	2
  86              	.LC37:
  87 01ec 50414952 		.ascii	"PAIRING_NOT_SUPPORTED\015\000"
  87      494E475F 
  87      4E4F545F 
  87      53555050 
  87      4F525445 
  88 0203 00       		.align	2
  89              	.LC39:
  90 0204 494E5355 		.ascii	"INSUFFICIENT_ENCRYPTION_KEY_SIZE\015\000"
  90      46464943 
  90      49454E54 
  90      5F454E43 
  90      52595054 
  91 0226 0000     		.align	2
  92              	.LC41:
  93 0228 434F4D4D 		.ascii	"COMMAND_NOT_SUPPORTED\015\000"
  93      414E445F 
  93      4E4F545F 
  93      53555050 
  93      4F525445 
  94 023f 00       		.align	2
  95              	.LC43:
  96 0240 554E5350 		.ascii	"UNSPECIFIED_REASON\015\000"
  96      45434946 
  96      4945445F 
  96      52454153 
  96      4F4E0D00 
ARM GAS  C:\Users\cypress\AppData\Local\Temp\ccsVnWxK.s 			page 4


  97              		.align	2
  98              	.LC45:
  99 0254 52455045 		.ascii	"REPEATED_ATTEMPTS\015\000"
  99      41544544 
  99      5F415454 
  99      454D5054 
  99      530D00
 100 0267 00       		.align	2
 101              	.LC47:
 102 0268 494E5641 		.ascii	"INVALID_PARAMETERS\015\000"
 102      4C49445F 
 102      50415241 
 102      4D455445 
 102      52530D00 
 103              		.align	2
 104              	.LC49:
 105 027c 41555448 		.ascii	"AUTHENTICATION_TIMEOUT\015\000"
 105      454E5449 
 105      43415449 
 105      4F4E5F54 
 105      494D454F 
 106              		.align	2
 107              	.LC51:
 108 0294 4C494E4B 		.ascii	"LINK_DISCONNECTED\015\000"
 108      5F444953 
 108      434F4E4E 
 108      45435445 
 108      440D00
 109 02a7 00       		.align	2
 110              	.LC53:
 111 02a8 30782578 		.ascii	"0x%x\015\012\000"
 111      0D0A00
 112 02af 00       		.align	2
 113              	.LC55:
 114 02b0 436F6D70 		.ascii	"Compare this passkey with displayed in your peer de"
 114      61726520 
 114      74686973 
 114      20706173 
 114      736B6579 
 115 02e3 76696365 		.ascii	"vice and press 'y' or 'n': %6.6ld \015\012\000"
 115      20616E64 
 115      20707265 
 115      73732027 
 115      7927206F 
 116              		.align	2
 117              	.LC57:
 118 0308 4359424C 		.ascii	"CYBLE_EVT_GAP_SMP_NEGOTIATED_AUTH_INFO: security:%x"
 118      455F4556 
 118      545F4741 
 118      505F534D 
 118      505F4E45 
 119 033b 2C20626F 		.ascii	", bonding:%x, ekeySize:%x, authErr %x \015\012\000"
 119      6E64696E 
 119      673A2578 
 119      2C20656B 
 119      65795369 
 120              		.align	2
ARM GAS  C:\Users\cypress\AppData\Local\Temp\ccsVnWxK.s 			page 5


 121              	.LC60:
 122 0364 4359424C 		.ascii	"CYBLE_EVT_GAP_DEVICE_CONNECTED: %x \015\012\000"
 122      455F4556 
 122      545F4741 
 122      505F4445 
 122      56494345 
 123 038a 0000     		.align	2
 124              	.LC64:
 125 038c 20437942 		.ascii	" CyBle_GapAuthReq API Error: \000"
 125      6C655F47 
 125      61704175 
 125      74685265 
 125      71204150 
 126 03aa 0000     		.align	2
 127              	.LC66:
 128 03ac 4556545F 		.ascii	"EVT_GAP_DEVICE_DISCONNECTED, reason: %x \015\012\000"
 128      4741505F 
 128      44455649 
 128      43455F44 
 128      4953434F 
 129              		.global	__aeabi_ui2f
 130              		.global	__aeabi_f2d
 131              		.global	__aeabi_dmul
 132 03d7 00       		.align	2
 133              	.LC68:
 134 03d8 4359424C 		.ascii	"CYBLE_EVT_GAP_DEVICE_CONNECTED: connIntv = %.2f ms."
 134      455F4556 
 134      545F4741 
 134      505F4445 
 134      56494345 
 135 040b 0D0A00   		.ascii	"\015\012\000"
 136 040e 0000     		.align	2
 137              	.LC70:
 138 0410 41636365 		.ascii	"Accepted\000"
 138      70746564 
 138      00
 139 0419 000000   		.align	2
 140              	.LC72:
 141 041c 52656A65 		.ascii	"Rejected\000"
 141      63746564 
 141      00
 142 0425 000000   		.align	2
 143              	.LC74:
 144 0428 4359424C 		.ascii	"CYBLE_EVT_L2CAP_CONN_PARAM_UPDATE_RSP: %s\015\012\000"
 144      455F4556 
 144      545F4C32 
 144      4341505F 
 144      434F4E4E 
 145              		.align	2
 146              	.LC76:
 147 0454 41555448 		.ascii	"AUTH_COMPLETE: security:%x, bonding:%x, ekeySize:%x"
 147      5F434F4D 
 147      504C4554 
 147      453A2073 
 147      65637572 
 148 0487 2C206175 		.ascii	", authErr %x \015\012\000"
 148      74684572 
ARM GAS  C:\Users\cypress\AppData\Local\Temp\ccsVnWxK.s 			page 6


 148      72202578 
 148      200D0A00 
 149 0497 00       		.align	2
 150              	.LC78:
 151 0498 4359424C 		.ascii	"CYBLE_EVT_GAP_ENCRYPT_CHANGE: %d \015\012\000"
 151      455F4556 
 151      545F4741 
 151      505F454E 
 151      43525950 
 152              		.align	2
 153              	.LC80:
 154 04bc 4359424C 		.ascii	"CYBLE_EVT_GAP_KEYINFO_EXCHNGE_CMPLT \015\000"
 154      455F4556 
 154      545F4741 
 154      505F4B45 
 154      59494E46 
 155 04e2 0000     		.align	2
 156              	.LC82:
 157 04e4 4359424C 		.ascii	"CYBLE_EVT_GAPP_ADVERTISEMENT_START_STOP \015\000"
 157      455F4556 
 157      545F4741 
 157      50505F41 
 157      44564552 
 158 050e 0000     		.align	2
 159              	.LC85:
 160 0510 48696265 		.ascii	"Hibernate \015\000"
 160      726E6174 
 160      65200D00 
 161              		.align	2
 162              	.LC87:
 163 051c 4359424C 		.ascii	"CYBLE_EVT_GATT_CONNECT_IND: attId %x, bdHandle %x \015"
 163      455F4556 
 163      545F4741 
 163      54545F43 
 163      4F4E4E45 
 164 054f 0A00     		.ascii	"\012\000"
 165 0551 000000   		.align	2
 166              	.LC89:
 167 0554 4359424C 		.ascii	"CYBLE_EVT_GATT_DISCONNECT_IND \015\000"
 167      455F4556 
 167      545F4741 
 167      54545F44 
 167      4953434F 
 168              		.align	2
 169              	.LC91:
 170 0574 4359424C 		.ascii	"CYBLE_EVT_GATTS_WRITE_REQ attr handle: %4.4x , valu"
 170      455F4556 
 170      545F4741 
 170      5454535F 
 170      57524954 
 171 05a7 653A2000 		.ascii	"e: \000"
 172 05ab 00       		.align	2
 173              	.LC94:
 174 05ac 25322E32 		.ascii	"%2.2x \000"
 174      782000
 175 05b3 00       		.align	2
 176              	.LC96:
ARM GAS  C:\Users\cypress\AppData\Local\Temp\ccsVnWxK.s 			page 7


 177 05b4 0D00     		.ascii	"\015\000"
 178 05b6 0000     		.align	2
 179              	.LC98:
 180 05b8 4359424C 		.ascii	"CYBLE_EVT_GATTS_XCNHG_MTU_REQ \015\000"
 180      455F4556 
 180      545F4741 
 180      5454535F 
 180      58434E48 
 181              		.align	2
 182              	.LC100:
 183 05d8 4359424C 		.ascii	"CYBLE_EVT_GATTS_HANDLE_VALUE_CNF \015\000"
 183      455F4556 
 183      545F4741 
 183      5454535F 
 183      48414E44 
 184 05fb 00       		.align	2
 185              	.LC102:
 186 05fc 4359424C 		.ascii	"CYBLE_EVT_GATTS_PREP_WRITE_REQ \015\000"
 186      455F4556 
 186      545F4741 
 186      5454535F 
 186      50524550 
 187 061d 000000   		.align	2
 188              	.LC104:
 189 0620 4359424C 		.ascii	"CYBLE_EVT_GATTS_EXEC_WRITE_REQ \015\000"
 189      455F4556 
 189      545F4741 
 189      5454535F 
 189      45584543 
 190 0641 000000   		.align	2
 191              	.LC106:
 192 0644 4359424C 		.ascii	"CYBLE_EVT_GATTS_READ_CHAR_VAL_ACCESS_REQ: handle: %"
 192      455F4556 
 192      545F4741 
 192      5454535F 
 192      52454144 
 193 0677 78200D0A 		.ascii	"x \015\012\000"
 193      00
 194              		.align	2
 195              	.LC108:
 196 067c 4359424C 		.ascii	"CYBLE_EVT_GATTS_INDICATION_ENABLED \015\000"
 196      455F4556 
 196      545F4741 
 196      5454535F 
 196      494E4449 
 197 06a1 000000   		.align	2
 198              	.LC110:
 199 06a4 4359424C 		.ascii	"CYBLE_EVT_GATTS_INDICATION_DISABLED \015\000"
 199      455F4556 
 199      545F4741 
 199      5454535F 
 199      494E4449 
 200 06ca 0000     		.align	2
 201              	.LC112:
 202 06cc 4359424C 		.ascii	"CYBLE_EVT_GATTS_INDICATION \015\000"
 202      455F4556 
 202      545F4741 
ARM GAS  C:\Users\cypress\AppData\Local\Temp\ccsVnWxK.s 			page 8


 202      5454535F 
 202      494E4449 
 203 06e9 000000   		.align	2
 204              	.LC114:
 205 06ec 4359424C 		.ascii	"CYBLE_EVT_L2CAP_CONN_PARAM_UPDATE_REQ \015\000"
 205      455F4556 
 205      545F4C32 
 205      4341505F 
 205      434F4E4E 
 206              		.align	2
 207              	.LC116:
 208 0714 4359424C 		.ascii	"CYBLE_EVT_PENDING_FLASH_WRITE\015\000"
 208      455F4556 
 208      545F5045 
 208      4E44494E 
 208      475F464C 
 209 0733 00       		.align	2
 210              	.LC118:
 211 0734 6F746865 		.ascii	"other event: 0x%lx \015\012\000"
 211      72206576 
 211      656E743A 
 211      20307825 
 211      6C78200D 
 212              		.section	.text.AppCallBack,"ax",%progbits
 213              		.align	2
 214              		.global	AppCallBack
 215              		.code	16
 216              		.thumb_func
 217              		.type	AppCallBack, %function
 218              	AppCallBack:
 219              	.LFB36:
 220              		.file 1 "main.c"
   1:main.c        **** /*******************************************************************************
   2:main.c        **** * File Name: main.c
   3:main.c        **** *
   4:main.c        **** * Version 1.0
   5:main.c        **** *
   6:main.c        **** * Description:
   7:main.c        **** *  This project demonstrates the operation of the CGM Profile
   8:main.c        **** *  in the GATT Server (GAP Peripheral) role.
   9:main.c        **** *
  10:main.c        **** * Note:
  11:main.c        **** *
  12:main.c        **** * Hardware Dependency:
  13:main.c        **** *  CY8CKIT-042 BLE
  14:main.c        **** *
  15:main.c        **** ********************************************************************************
  16:main.c        **** * Copyright 2016, Cypress Semiconductor Corporation.  All rights reserved.
  17:main.c        **** * You may use this file only in accordance with the license, terms, conditions,
  18:main.c        **** * disclaimers, and limitations in the end user license agreement accompanying
  19:main.c        **** * the software package with which this file was provided.
  20:main.c        **** *******************************************************************************/
  21:main.c        **** 
  22:main.c        **** #include "main.h"
  23:main.c        **** 
  24:main.c        **** CYBLE_API_RESULT_T apiResult;
  25:main.c        **** uint16 i;
ARM GAS  C:\Users\cypress\AppData\Local\Temp\ccsVnWxK.s 			page 9


  26:main.c        **** AUTHENTICATION_STATE    authState = AUTHENTICATION_NOT_CONNECTED;
  27:main.c        **** uint32  passkeyValue;
  28:main.c        **** uint32  passkeyPow;
  29:main.c        **** uint8   passkeyCounter;
  30:main.c        **** char8   command;
  31:main.c        **** uint8   customCommand = 0u;
  32:main.c        **** CYBLE_GAP_AUTH_INFO_T   peerAuthInfo;
  33:main.c        **** 
  34:main.c        **** /*******************************************************************************
  35:main.c        **** * Function Name: AppCallBack()
  36:main.c        **** ********************************************************************************
  37:main.c        **** *
  38:main.c        **** * Summary:
  39:main.c        **** *   This is an event callback function to receive events from the BLE Component.
  40:main.c        **** *
  41:main.c        **** * Parameters:
  42:main.c        **** *  event - The event code.
  43:main.c        **** *  *eventParam - The event parameters.
  44:main.c        **** *
  45:main.c        **** *******************************************************************************/
  46:main.c        **** void AppCallBack(uint32 event, void* eventParam)
  47:main.c        **** {   
 221              		.loc 1 47 0
 222              		.cfi_startproc
 223              		@ args = 0, pretend = 0, frame = 16
 224              		@ frame_needed = 1, uses_anonymous_args = 0
 225 0000 90B5     		push	{r4, r7, lr}
 226              		.cfi_def_cfa_offset 12
 227              		.cfi_offset 4, -12
 228              		.cfi_offset 7, -8
 229              		.cfi_offset 14, -4
 230 0002 87B0     		sub	sp, sp, #28
 231              		.cfi_def_cfa_offset 40
 232 0004 02AF     		add	r7, sp, #8
 233              		.cfi_def_cfa 7, 32
 234 0006 7860     		str	r0, [r7, #4]
 235 0008 3960     		str	r1, [r7]
  48:main.c        ****     CYBLE_GAP_CONN_PARAM_UPDATED_IN_CONTROLLER_T *connParameters;
  49:main.c        ****     
  50:main.c        ****     switch(event)
 236              		.loc 1 50 0
 237 000a 7A68     		ldr	r2, [r7, #4]
 238 000c 8323     		movs	r3, #131
 239 000e 5B00     		lsls	r3, r3, #1
 240 0010 9A42     		cmp	r2, r3
 241 0012 00D9     		bls	.LCB19
 242 0014 8FE2     		b	.L2	@long jump
 243              	.LCB19:
 244 0016 7B68     		ldr	r3, [r7, #4]
 245 0018 9A00     		lsls	r2, r3, #2
 246 001a E14B     		ldr	r3, .L66
 247 001c D318     		adds	r3, r2, r3
 248 001e 1B68     		ldr	r3, [r3]
 249 0020 9F46     		mov	pc, r3
 250              		.section	.rodata
 251 074a 0000     		.align	2
 252              	.L4:
ARM GAS  C:\Users\cypress\AppData\Local\Temp\ccsVnWxK.s 			page 10


 253 074c 36050000 		.word	.L2
 254 0750 22000000 		.word	.L3
 255 0754 40000000 		.word	.L5
 256 0758 52000000 		.word	.L6
 257 075c 5C000000 		.word	.L7
 258 0760 36000000 		.word	.L8
 259 0764 36050000 		.word	.L2
 260 0768 36050000 		.word	.L2
 261 076c 36050000 		.word	.L2
 262 0770 36050000 		.word	.L2
 263 0774 36050000 		.word	.L2
 264 0778 36050000 		.word	.L2
 265 077c 36050000 		.word	.L2
 266 0780 36050000 		.word	.L2
 267 0784 36050000 		.word	.L2
 268 0788 36050000 		.word	.L2
 269 078c 36050000 		.word	.L2
 270 0790 36050000 		.word	.L2
 271 0794 36050000 		.word	.L2
 272 0798 36050000 		.word	.L2
 273 079c 36050000 		.word	.L2
 274 07a0 36050000 		.word	.L2
 275 07a4 36050000 		.word	.L2
 276 07a8 36050000 		.word	.L2
 277 07ac 36050000 		.word	.L2
 278 07b0 36050000 		.word	.L2
 279 07b4 36050000 		.word	.L2
 280 07b8 36050000 		.word	.L2
 281 07bc 36050000 		.word	.L2
 282 07c0 36050000 		.word	.L2
 283 07c4 36050000 		.word	.L2
 284 07c8 36050000 		.word	.L2
 285 07cc 36050000 		.word	.L2
 286 07d0 6E000000 		.word	.L9
 287 07d4 A0000000 		.word	.L10
 288 07d8 CA000000 		.word	.L11
 289 07dc AE020000 		.word	.L12
 290 07e0 DA000000 		.word	.L13
 291 07e4 02030000 		.word	.L14
 292 07e8 D8010000 		.word	.L15
 293 07ec 3C020000 		.word	.L16
 294 07f0 E6020000 		.word	.L17
 295 07f4 64020000 		.word	.L18
 296 07f8 36050000 		.word	.L2
 297 07fc F8020000 		.word	.L19
 298 0800 90010000 		.word	.L20
 299 0804 36050000 		.word	.L2
 300 0808 36050000 		.word	.L2
 301 080c 36050000 		.word	.L2
 302 0810 36050000 		.word	.L2
 303 0814 36050000 		.word	.L2
 304 0818 A6010000 		.word	.L21
 305 081c 36050000 		.word	.L2
 306 0820 36050000 		.word	.L2
 307 0824 36050000 		.word	.L2
 308 0828 36050000 		.word	.L2
 309 082c 36050000 		.word	.L2
ARM GAS  C:\Users\cypress\AppData\Local\Temp\ccsVnWxK.s 			page 11


 310 0830 36050000 		.word	.L2
 311 0834 36050000 		.word	.L2
 312 0838 36050000 		.word	.L2
 313 083c 36050000 		.word	.L2
 314 0840 36050000 		.word	.L2
 315 0844 36050000 		.word	.L2
 316 0848 36050000 		.word	.L2
 317 084c 36050000 		.word	.L2
 318 0850 80030000 		.word	.L22
 319 0854 96030000 		.word	.L23
 320 0858 CA040000 		.word	.L24
 321 085c 36050000 		.word	.L2
 322 0860 36050000 		.word	.L2
 323 0864 36050000 		.word	.L2
 324 0868 36050000 		.word	.L2
 325 086c 36050000 		.word	.L2
 326 0870 36050000 		.word	.L2
 327 0874 36050000 		.word	.L2
 328 0878 36050000 		.word	.L2
 329 087c 78040000 		.word	.L25
 330 0880 36050000 		.word	.L2
 331 0884 36050000 		.word	.L2
 332 0888 DE040000 		.word	.L26
 333 088c E8040000 		.word	.L27
 334 0890 36050000 		.word	.L2
 335 0894 36050000 		.word	.L2
 336 0898 36050000 		.word	.L2
 337 089c D4040000 		.word	.L28
 338 08a0 36050000 		.word	.L2
 339 08a4 36050000 		.word	.L2
 340 08a8 F2040000 		.word	.L29
 341 08ac 36050000 		.word	.L2
 342 08b0 36050000 		.word	.L2
 343 08b4 36050000 		.word	.L2
 344 08b8 36050000 		.word	.L2
 345 08bc 36050000 		.word	.L2
 346 08c0 36050000 		.word	.L2
 347 08c4 36050000 		.word	.L2
 348 08c8 36050000 		.word	.L2
 349 08cc 36050000 		.word	.L2
 350 08d0 36050000 		.word	.L2
 351 08d4 36050000 		.word	.L2
 352 08d8 36050000 		.word	.L2
 353 08dc 36050000 		.word	.L2
 354 08e0 36050000 		.word	.L2
 355 08e4 36050000 		.word	.L2
 356 08e8 36050000 		.word	.L2
 357 08ec 36050000 		.word	.L2
 358 08f0 36050000 		.word	.L2
 359 08f4 36050000 		.word	.L2
 360 08f8 36050000 		.word	.L2
 361 08fc 36050000 		.word	.L2
 362 0900 36050000 		.word	.L2
 363 0904 36050000 		.word	.L2
 364 0908 36050000 		.word	.L2
 365 090c 22050000 		.word	.L30
 366 0910 94020000 		.word	.L31
ARM GAS  C:\Users\cypress\AppData\Local\Temp\ccsVnWxK.s 			page 12


 367 0914 36050000 		.word	.L2
 368 0918 36050000 		.word	.L2
 369 091c 36050000 		.word	.L2
 370 0920 36050000 		.word	.L2
 371 0924 36050000 		.word	.L2
 372 0928 36050000 		.word	.L2
 373 092c 36050000 		.word	.L2
 374 0930 36050000 		.word	.L2
 375 0934 36050000 		.word	.L2
 376 0938 36050000 		.word	.L2
 377 093c 36050000 		.word	.L2
 378 0940 36050000 		.word	.L2
 379 0944 36050000 		.word	.L2
 380 0948 36050000 		.word	.L2
 381 094c 36050000 		.word	.L2
 382 0950 36050000 		.word	.L2
 383 0954 36050000 		.word	.L2
 384 0958 36050000 		.word	.L2
 385 095c 36050000 		.word	.L2
 386 0960 36050000 		.word	.L2
 387 0964 36050000 		.word	.L2
 388 0968 36050000 		.word	.L2
 389 096c 36050000 		.word	.L2
 390 0970 36050000 		.word	.L2
 391 0974 36050000 		.word	.L2
 392 0978 36050000 		.word	.L2
 393 097c 36050000 		.word	.L2
 394 0980 36050000 		.word	.L2
 395 0984 36050000 		.word	.L2
 396 0988 36050000 		.word	.L2
 397 098c 36050000 		.word	.L2
 398 0990 36050000 		.word	.L2
 399 0994 36050000 		.word	.L2
 400 0998 36050000 		.word	.L2
 401 099c 36050000 		.word	.L2
 402 09a0 36050000 		.word	.L2
 403 09a4 36050000 		.word	.L2
 404 09a8 36050000 		.word	.L2
 405 09ac 36050000 		.word	.L2
 406 09b0 36050000 		.word	.L2
 407 09b4 36050000 		.word	.L2
 408 09b8 36050000 		.word	.L2
 409 09bc 36050000 		.word	.L2
 410 09c0 36050000 		.word	.L2
 411 09c4 36050000 		.word	.L2
 412 09c8 36050000 		.word	.L2
 413 09cc 36050000 		.word	.L2
 414 09d0 36050000 		.word	.L2
 415 09d4 36050000 		.word	.L2
 416 09d8 36050000 		.word	.L2
 417 09dc 36050000 		.word	.L2
 418 09e0 36050000 		.word	.L2
 419 09e4 36050000 		.word	.L2
 420 09e8 36050000 		.word	.L2
 421 09ec 36050000 		.word	.L2
 422 09f0 36050000 		.word	.L2
 423 09f4 36050000 		.word	.L2
ARM GAS  C:\Users\cypress\AppData\Local\Temp\ccsVnWxK.s 			page 13


 424 09f8 36050000 		.word	.L2
 425 09fc 36050000 		.word	.L2
 426 0a00 36050000 		.word	.L2
 427 0a04 36050000 		.word	.L2
 428 0a08 36050000 		.word	.L2
 429 0a0c 36050000 		.word	.L2
 430 0a10 36050000 		.word	.L2
 431 0a14 36050000 		.word	.L2
 432 0a18 36050000 		.word	.L2
 433 0a1c 36050000 		.word	.L2
 434 0a20 36050000 		.word	.L2
 435 0a24 36050000 		.word	.L2
 436 0a28 36050000 		.word	.L2
 437 0a2c 36050000 		.word	.L2
 438 0a30 36050000 		.word	.L2
 439 0a34 36050000 		.word	.L2
 440 0a38 36050000 		.word	.L2
 441 0a3c 36050000 		.word	.L2
 442 0a40 36050000 		.word	.L2
 443 0a44 36050000 		.word	.L2
 444 0a48 36050000 		.word	.L2
 445 0a4c 36050000 		.word	.L2
 446 0a50 36050000 		.word	.L2
 447 0a54 36050000 		.word	.L2
 448 0a58 36050000 		.word	.L2
 449 0a5c 36050000 		.word	.L2
 450 0a60 36050000 		.word	.L2
 451 0a64 36050000 		.word	.L2
 452 0a68 36050000 		.word	.L2
 453 0a6c 36050000 		.word	.L2
 454 0a70 36050000 		.word	.L2
 455 0a74 36050000 		.word	.L2
 456 0a78 36050000 		.word	.L2
 457 0a7c 36050000 		.word	.L2
 458 0a80 36050000 		.word	.L2
 459 0a84 36050000 		.word	.L2
 460 0a88 36050000 		.word	.L2
 461 0a8c 36050000 		.word	.L2
 462 0a90 36050000 		.word	.L2
 463 0a94 36050000 		.word	.L2
 464 0a98 36050000 		.word	.L2
 465 0a9c 36050000 		.word	.L2
 466 0aa0 36050000 		.word	.L2
 467 0aa4 36050000 		.word	.L2
 468 0aa8 36050000 		.word	.L2
 469 0aac 36050000 		.word	.L2
 470 0ab0 36050000 		.word	.L2
 471 0ab4 36050000 		.word	.L2
 472 0ab8 36050000 		.word	.L2
 473 0abc 36050000 		.word	.L2
 474 0ac0 36050000 		.word	.L2
 475 0ac4 36050000 		.word	.L2
 476 0ac8 36050000 		.word	.L2
 477 0acc 36050000 		.word	.L2
 478 0ad0 36050000 		.word	.L2
 479 0ad4 36050000 		.word	.L2
 480 0ad8 36050000 		.word	.L2
ARM GAS  C:\Users\cypress\AppData\Local\Temp\ccsVnWxK.s 			page 14


 481 0adc 36050000 		.word	.L2
 482 0ae0 36050000 		.word	.L2
 483 0ae4 36050000 		.word	.L2
 484 0ae8 36050000 		.word	.L2
 485 0aec 36050000 		.word	.L2
 486 0af0 36050000 		.word	.L2
 487 0af4 36050000 		.word	.L2
 488 0af8 36050000 		.word	.L2
 489 0afc 36050000 		.word	.L2
 490 0b00 36050000 		.word	.L2
 491 0b04 36050000 		.word	.L2
 492 0b08 36050000 		.word	.L2
 493 0b0c 36050000 		.word	.L2
 494 0b10 36050000 		.word	.L2
 495 0b14 36050000 		.word	.L2
 496 0b18 36050000 		.word	.L2
 497 0b1c 36050000 		.word	.L2
 498 0b20 36050000 		.word	.L2
 499 0b24 36050000 		.word	.L2
 500 0b28 36050000 		.word	.L2
 501 0b2c 36050000 		.word	.L2
 502 0b30 36050000 		.word	.L2
 503 0b34 2C050000 		.word	.L32
 504 0b38 36050000 		.word	.L2
 505 0b3c 36050000 		.word	.L2
 506 0b40 36050000 		.word	.L2
 507 0b44 36050000 		.word	.L2
 508 0b48 36050000 		.word	.L2
 509 0b4c 36050000 		.word	.L2
 510 0b50 36050000 		.word	.L2
 511 0b54 36050000 		.word	.L2
 512 0b58 36050000 		.word	.L2
 513 0b5c 04050000 		.word	.L33
 514 0b60 0E050000 		.word	.L34
 515 0b64 18050000 		.word	.L35
 516              		.section	.text.AppCallBack
 517              	.L3:
  51:main.c        ****     {
  52:main.c        ****         case CYBLE_EVT_STACK_ON:
  53:main.c        ****             DBG_PRINTF("CYBLE_EVT_STACK_ON \r\n");
 518              		.loc 1 53 0
 519 0022 E04B     		ldr	r3, .L66+4
 520 0024 1800     		movs	r0, r3
 521 0026 FFF7FEFF 		bl	puts
  54:main.c        ****             /* Put device to discoverable mode so that remote can search it. */
  55:main.c        ****             StartAdvertisement();
 522              		.loc 1 55 0
 523 002a FFF7FEFF 		bl	StartAdvertisement
  56:main.c        ****             Advertising_LED_Write(LED_OFF);
 524              		.loc 1 56 0
 525 002e 0120     		movs	r0, #1
 526 0030 FFF7FEFF 		bl	Advertising_LED_Write
  57:main.c        **** 			break;
 527              		.loc 1 57 0
 528 0034 87E2     		b	.L36
 529              	.L8:
  58:main.c        **** 
ARM GAS  C:\Users\cypress\AppData\Local\Temp\ccsVnWxK.s 			page 15


  59:main.c        ****         case CYBLE_EVT_STACK_BUSY_STATUS:
  60:main.c        ****             DBG_PRINTF("CYBLE_EVT_STACK_BUSY_STATUS \r\n");
 530              		.loc 1 60 0
 531 0036 DC4B     		ldr	r3, .L66+8
 532 0038 1800     		movs	r0, r3
 533 003a FFF7FEFF 		bl	puts
  61:main.c        ****             break;
 534              		.loc 1 61 0
 535 003e 82E2     		b	.L36
 536              	.L5:
  62:main.c        **** 
  63:main.c        ****         case CYBLE_EVT_TIMEOUT: /* 0x01 -> GAP limited discoverable mode timeout. */
  64:main.c        ****                                 /* 0x02 -> GAP pairing process timeout. */
  65:main.c        ****                                 /* 0x03 -> GATT response timeout. */
  66:main.c        ****             DBG_PRINTF("CYBLE_EVT_TIMEOUT: %d \r\n", *(uint8 *)eventParam);
 537              		.loc 1 66 0
 538 0040 3B68     		ldr	r3, [r7]
 539 0042 1B78     		ldrb	r3, [r3]
 540 0044 1A00     		movs	r2, r3
 541 0046 D94B     		ldr	r3, .L66+12
 542 0048 1100     		movs	r1, r2
 543 004a 1800     		movs	r0, r3
 544 004c FFF7FEFF 		bl	printf
  67:main.c        ****             break;
 545              		.loc 1 67 0
 546 0050 79E2     		b	.L36
 547              	.L6:
  68:main.c        **** 
  69:main.c        ****         case CYBLE_EVT_HARDWARE_ERROR:    /* This event indicates that some internal HW error has o
  70:main.c        ****             DBG_PRINTF("CYBLE_EVT_HARDWARE_ERROR \r\n");
 548              		.loc 1 70 0
 549 0052 D74B     		ldr	r3, .L66+16
 550 0054 1800     		movs	r0, r3
 551 0056 FFF7FEFF 		bl	puts
  71:main.c        ****             break;
 552              		.loc 1 71 0
 553 005a 74E2     		b	.L36
 554              	.L7:
  72:main.c        **** 
  73:main.c        ****         case CYBLE_EVT_HCI_STATUS:
  74:main.c        ****             DBG_PRINTF("CYBLE_EVT_HCI_STATUS: %x \r\n", *(uint8 *)eventParam);
 555              		.loc 1 74 0
 556 005c 3B68     		ldr	r3, [r7]
 557 005e 1B78     		ldrb	r3, [r3]
 558 0060 1A00     		movs	r2, r3
 559 0062 D44B     		ldr	r3, .L66+20
 560 0064 1100     		movs	r1, r2
 561 0066 1800     		movs	r0, r3
 562 0068 FFF7FEFF 		bl	printf
  75:main.c        ****             break;
 563              		.loc 1 75 0
 564 006c 6BE2     		b	.L36
 565              	.L9:
  76:main.c        ****             
  77:main.c        ****         /**********************************************************
  78:main.c        ****         *                       GAP Events
  79:main.c        ****         ***********************************************************/
ARM GAS  C:\Users\cypress\AppData\Local\Temp\ccsVnWxK.s 			page 16


  80:main.c        **** 
  81:main.c        ****         case CYBLE_EVT_GAP_AUTH_REQ:
  82:main.c        ****             peerAuthInfo = *(CYBLE_GAP_AUTH_INFO_T *)eventParam;
 566              		.loc 1 82 0
 567 006e D24A     		ldr	r2, .L66+24
 568 0070 3B68     		ldr	r3, [r7]
 569 0072 1000     		movs	r0, r2
 570 0074 1900     		movs	r1, r3
 571 0076 0523     		movs	r3, #5
 572 0078 1A00     		movs	r2, r3
 573 007a FFF7FEFF 		bl	memcpy
  83:main.c        ****             DBG_PRINTF("EVT_AUTH_REQ: security=%x, bonding=%x, ekeySize=%x, err=%x \r\n", 
 574              		.loc 1 83 0
 575 007e CE4B     		ldr	r3, .L66+24
 576 0080 1B78     		ldrb	r3, [r3]
 577 0082 1900     		movs	r1, r3
 578 0084 CC4B     		ldr	r3, .L66+24
 579 0086 5B78     		ldrb	r3, [r3, #1]
 580 0088 1A00     		movs	r2, r3
 581 008a CB4B     		ldr	r3, .L66+24
 582 008c 9B78     		ldrb	r3, [r3, #2]
 583 008e 1C00     		movs	r4, r3
 584 0090 C94B     		ldr	r3, .L66+24
 585 0092 DB78     		ldrb	r3, [r3, #3]
 586 0094 C948     		ldr	r0, .L66+28
 587 0096 0093     		str	r3, [sp]
 588 0098 2300     		movs	r3, r4
 589 009a FFF7FEFF 		bl	printf
  84:main.c        ****             peerAuthInfo.security, 
  85:main.c        ****             peerAuthInfo.bonding, 
  86:main.c        ****             peerAuthInfo.ekeySize, 
  87:main.c        ****             peerAuthInfo.authErr);
  88:main.c        ****             break;
 590              		.loc 1 88 0
 591 009e 52E2     		b	.L36
 592              	.L10:
  89:main.c        ****             
  90:main.c        **** 	    case CYBLE_EVT_GAP_PASSKEY_ENTRY_REQUEST:
  91:main.c        ****             DBG_PRINTF("CYBLE_EVT_GAP_PASSKEY_ENTRY_REQUEST\r\n");
 593              		.loc 1 91 0
 594 00a0 C74B     		ldr	r3, .L66+32
 595 00a2 1800     		movs	r0, r3
 596 00a4 FFF7FEFF 		bl	puts
  92:main.c        ****             DBG_PRINTF("Enter the passkey shown in the peer device: \r\n");
 597              		.loc 1 92 0
 598 00a8 C64B     		ldr	r3, .L66+36
 599 00aa 1800     		movs	r0, r3
 600 00ac FFF7FEFF 		bl	puts
  93:main.c        ****             authState = AUTHENTICATION_WAITING_FOR_PASSKEY;
 601              		.loc 1 93 0
 602 00b0 C54B     		ldr	r3, .L66+40
 603 00b2 0122     		movs	r2, #1
 604 00b4 1A70     		strb	r2, [r3]
  94:main.c        ****             passkeyValue = 0u;
 605              		.loc 1 94 0
 606 00b6 C54B     		ldr	r3, .L66+44
 607 00b8 0022     		movs	r2, #0
ARM GAS  C:\Users\cypress\AppData\Local\Temp\ccsVnWxK.s 			page 17


 608 00ba 1A60     		str	r2, [r3]
  95:main.c        ****             passkeyPow = 100000u;
 609              		.loc 1 95 0
 610 00bc C44B     		ldr	r3, .L66+48
 611 00be C54A     		ldr	r2, .L66+52
 612 00c0 1A60     		str	r2, [r3]
  96:main.c        ****             passkeyCounter = 0u;
 613              		.loc 1 96 0
 614 00c2 C54B     		ldr	r3, .L66+56
 615 00c4 0022     		movs	r2, #0
 616 00c6 1A70     		strb	r2, [r3]
  97:main.c        ****             break;
 617              		.loc 1 97 0
 618 00c8 3DE2     		b	.L36
 619              	.L11:
  98:main.c        ****             
  99:main.c        **** 	    case CYBLE_EVT_GAP_PASSKEY_DISPLAY_REQUEST:
 100:main.c        ****             DBG_PRINTF("Enter this passkey in your peer device: %6.6ld \r\n", *(uint32 *)eventParam
 620              		.loc 1 100 0
 621 00ca 3B68     		ldr	r3, [r7]
 622 00cc 1A68     		ldr	r2, [r3]
 623 00ce C34B     		ldr	r3, .L66+60
 624 00d0 1100     		movs	r1, r2
 625 00d2 1800     		movs	r0, r3
 626 00d4 FFF7FEFF 		bl	printf
 101:main.c        ****             break;
 627              		.loc 1 101 0
 628 00d8 35E2     		b	.L36
 629              	.L13:
 102:main.c        ****             
 103:main.c        ****         case CYBLE_EVT_GAP_AUTH_FAILED:
 104:main.c        ****             DBG_PRINTF("CYBLE_EVT_GAP_AUTH_FAILED, reason: ");
 630              		.loc 1 104 0
 631 00da C14B     		ldr	r3, .L66+64
 632 00dc 1800     		movs	r0, r3
 633 00de FFF7FEFF 		bl	printf
 105:main.c        ****             switch(*(CYBLE_GAP_AUTH_FAILED_REASON_T *)eventParam)
 634              		.loc 1 105 0
 635 00e2 3B68     		ldr	r3, [r7]
 636 00e4 1B78     		ldrb	r3, [r3]
 637 00e6 182B     		cmp	r3, #24
 638 00e8 45D8     		bhi	.L37
 639 00ea 9A00     		lsls	r2, r3, #2
 640 00ec BD4B     		ldr	r3, .L66+68
 641 00ee D318     		adds	r3, r2, r3
 642 00f0 1B68     		ldr	r3, [r3]
 643 00f2 9F46     		mov	pc, r3
 644              		.section	.rodata
 645              		.align	2
 646              	.L39:
 647 0b68 F4000000 		.word	.L38
 648 0b6c FE000000 		.word	.L40
 649 0b70 08010000 		.word	.L41
 650 0b74 12010000 		.word	.L42
 651 0b78 1C010000 		.word	.L43
 652 0b7c 26010000 		.word	.L44
 653 0b80 30010000 		.word	.L45
ARM GAS  C:\Users\cypress\AppData\Local\Temp\ccsVnWxK.s 			page 18


 654 0b84 3A010000 		.word	.L46
 655 0b88 44010000 		.word	.L47
 656 0b8c 4E010000 		.word	.L48
 657 0b90 58010000 		.word	.L49
 658 0b94 76010000 		.word	.L37
 659 0b98 76010000 		.word	.L37
 660 0b9c 76010000 		.word	.L37
 661 0ba0 76010000 		.word	.L37
 662 0ba4 76010000 		.word	.L37
 663 0ba8 76010000 		.word	.L37
 664 0bac 76010000 		.word	.L37
 665 0bb0 76010000 		.word	.L37
 666 0bb4 76010000 		.word	.L37
 667 0bb8 76010000 		.word	.L37
 668 0bbc 62010000 		.word	.L50
 669 0bc0 76010000 		.word	.L37
 670 0bc4 76010000 		.word	.L37
 671 0bc8 6C010000 		.word	.L51
 672              		.section	.text.AppCallBack
 673              	.L38:
 106:main.c        ****             {
 107:main.c        ****                 case CYBLE_GAP_AUTH_ERROR_NONE:
 108:main.c        ****                     DBG_PRINTF("NONE\r\n");
 674              		.loc 1 108 0
 675 00f4 BC4B     		ldr	r3, .L66+72
 676 00f6 1800     		movs	r0, r3
 677 00f8 FFF7FEFF 		bl	puts
 109:main.c        ****                     break;
 678              		.loc 1 109 0
 679 00fc 44E0     		b	.L52
 680              	.L40:
 110:main.c        **** 
 111:main.c        ****                 case CYBLE_GAP_AUTH_ERROR_PASSKEY_ENTRY_FAILED:
 112:main.c        ****                     DBG_PRINTF("PASSKEY_ENTRY_FAILED\r\n");
 681              		.loc 1 112 0
 682 00fe BB4B     		ldr	r3, .L66+76
 683 0100 1800     		movs	r0, r3
 684 0102 FFF7FEFF 		bl	puts
 113:main.c        ****                     break;
 685              		.loc 1 113 0
 686 0106 3FE0     		b	.L52
 687              	.L41:
 114:main.c        **** 
 115:main.c        ****                 case CYBLE_GAP_AUTH_ERROR_OOB_DATA_NOT_AVAILABLE:
 116:main.c        ****                     DBG_PRINTF("OOB_DATA_NOT_AVAILABLE\r\n");
 688              		.loc 1 116 0
 689 0108 B94B     		ldr	r3, .L66+80
 690 010a 1800     		movs	r0, r3
 691 010c FFF7FEFF 		bl	puts
 117:main.c        ****                     break;
 692              		.loc 1 117 0
 693 0110 3AE0     		b	.L52
 694              	.L42:
 118:main.c        **** 
 119:main.c        ****                 case CYBLE_GAP_AUTH_ERROR_AUTHENTICATION_REQ_NOT_MET:
 120:main.c        ****                     DBG_PRINTF("AUTHENTICATION_REQ_NOT_MET\r\n");
 695              		.loc 1 120 0
ARM GAS  C:\Users\cypress\AppData\Local\Temp\ccsVnWxK.s 			page 19


 696 0112 B84B     		ldr	r3, .L66+84
 697 0114 1800     		movs	r0, r3
 698 0116 FFF7FEFF 		bl	puts
 121:main.c        ****                     break;
 699              		.loc 1 121 0
 700 011a 35E0     		b	.L52
 701              	.L43:
 122:main.c        **** 
 123:main.c        ****                 case CYBLE_GAP_AUTH_ERROR_CONFIRM_VALUE_NOT_MATCH:
 124:main.c        ****                     DBG_PRINTF("CONFIRM_VALUE_NOT_MATCH\r\n");
 702              		.loc 1 124 0
 703 011c B64B     		ldr	r3, .L66+88
 704 011e 1800     		movs	r0, r3
 705 0120 FFF7FEFF 		bl	puts
 125:main.c        ****                     break;
 706              		.loc 1 125 0
 707 0124 30E0     		b	.L52
 708              	.L44:
 126:main.c        **** 
 127:main.c        ****                 case CYBLE_GAP_AUTH_ERROR_PAIRING_NOT_SUPPORTED:
 128:main.c        ****                     DBG_PRINTF("PAIRING_NOT_SUPPORTED\r\n");
 709              		.loc 1 128 0
 710 0126 B54B     		ldr	r3, .L66+92
 711 0128 1800     		movs	r0, r3
 712 012a FFF7FEFF 		bl	puts
 129:main.c        ****                     break;
 713              		.loc 1 129 0
 714 012e 2BE0     		b	.L52
 715              	.L45:
 130:main.c        **** 
 131:main.c        ****                 case CYBLE_GAP_AUTH_ERROR_INSUFFICIENT_ENCRYPTION_KEY_SIZE:
 132:main.c        ****                     DBG_PRINTF("INSUFFICIENT_ENCRYPTION_KEY_SIZE\r\n");
 716              		.loc 1 132 0
 717 0130 B34B     		ldr	r3, .L66+96
 718 0132 1800     		movs	r0, r3
 719 0134 FFF7FEFF 		bl	puts
 133:main.c        ****                     break;
 720              		.loc 1 133 0
 721 0138 26E0     		b	.L52
 722              	.L46:
 134:main.c        **** 
 135:main.c        ****                 case CYBLE_GAP_AUTH_ERROR_COMMAND_NOT_SUPPORTED:
 136:main.c        ****                     DBG_PRINTF("COMMAND_NOT_SUPPORTED\r\n");
 723              		.loc 1 136 0
 724 013a B24B     		ldr	r3, .L66+100
 725 013c 1800     		movs	r0, r3
 726 013e FFF7FEFF 		bl	puts
 137:main.c        ****                     break;
 727              		.loc 1 137 0
 728 0142 21E0     		b	.L52
 729              	.L47:
 138:main.c        **** 
 139:main.c        ****                 case CYBLE_GAP_AUTH_ERROR_UNSPECIFIED_REASON:
 140:main.c        ****                     DBG_PRINTF("UNSPECIFIED_REASON\r\n");
 730              		.loc 1 140 0
 731 0144 B04B     		ldr	r3, .L66+104
 732 0146 1800     		movs	r0, r3
ARM GAS  C:\Users\cypress\AppData\Local\Temp\ccsVnWxK.s 			page 20


 733 0148 FFF7FEFF 		bl	puts
 141:main.c        ****                     break;
 734              		.loc 1 141 0
 735 014c 1CE0     		b	.L52
 736              	.L48:
 142:main.c        **** 
 143:main.c        ****                 case CYBLE_GAP_AUTH_ERROR_REPEATED_ATTEMPTS:
 144:main.c        ****                     DBG_PRINTF("REPEATED_ATTEMPTS\r\n");
 737              		.loc 1 144 0
 738 014e AF4B     		ldr	r3, .L66+108
 739 0150 1800     		movs	r0, r3
 740 0152 FFF7FEFF 		bl	puts
 145:main.c        ****                     break;
 741              		.loc 1 145 0
 742 0156 17E0     		b	.L52
 743              	.L49:
 146:main.c        **** 
 147:main.c        ****                 case CYBLE_GAP_AUTH_ERROR_INVALID_PARAMETERS:
 148:main.c        ****                     DBG_PRINTF("INVALID_PARAMETERS\r\n");
 744              		.loc 1 148 0
 745 0158 AD4B     		ldr	r3, .L66+112
 746 015a 1800     		movs	r0, r3
 747 015c FFF7FEFF 		bl	puts
 149:main.c        ****                     break;
 748              		.loc 1 149 0
 749 0160 12E0     		b	.L52
 750              	.L50:
 150:main.c        **** 
 151:main.c        ****                 case CYBLE_GAP_AUTH_ERROR_AUTHENTICATION_TIMEOUT:
 152:main.c        ****                     DBG_PRINTF("AUTHENTICATION_TIMEOUT\r\n");
 751              		.loc 1 152 0
 752 0162 AC4B     		ldr	r3, .L66+116
 753 0164 1800     		movs	r0, r3
 754 0166 FFF7FEFF 		bl	puts
 153:main.c        ****                     break;
 755              		.loc 1 153 0
 756 016a 0DE0     		b	.L52
 757              	.L51:
 154:main.c        **** 	              
 155:main.c        ****                 case CYBLE_GAP_AUTH_ERROR_LINK_DISCONNECTED:
 156:main.c        ****                     DBG_PRINTF("LINK_DISCONNECTED\r\n");
 758              		.loc 1 156 0
 759 016c AA4B     		ldr	r3, .L66+120
 760 016e 1800     		movs	r0, r3
 761 0170 FFF7FEFF 		bl	puts
 157:main.c        ****                     break;
 762              		.loc 1 157 0
 763 0174 08E0     		b	.L52
 764              	.L37:
 158:main.c        ****                     
 159:main.c        ****                 default:
 160:main.c        ****                     DBG_PRINTF("0x%x\r\n", *(CYBLE_GAP_AUTH_FAILED_REASON_T *)eventParam);
 765              		.loc 1 160 0
 766 0176 3B68     		ldr	r3, [r7]
 767 0178 1B78     		ldrb	r3, [r3]
 768 017a 1A00     		movs	r2, r3
 769 017c A74B     		ldr	r3, .L66+124
ARM GAS  C:\Users\cypress\AppData\Local\Temp\ccsVnWxK.s 			page 21


 770 017e 1100     		movs	r1, r2
 771 0180 1800     		movs	r0, r3
 772 0182 FFF7FEFF 		bl	printf
 161:main.c        ****                     break;
 773              		.loc 1 161 0
 774 0186 C046     		nop
 775              	.L52:
 162:main.c        ****             }
 163:main.c        ****             authState = AUTHENTICATION_BONDING_COMPLETE;
 776              		.loc 1 163 0
 777 0188 8F4B     		ldr	r3, .L66+40
 778 018a 0522     		movs	r2, #5
 779 018c 1A70     		strb	r2, [r3]
 164:main.c        ****             break;
 780              		.loc 1 164 0
 781 018e DAE1     		b	.L36
 782              	.L20:
 165:main.c        ****         
 166:main.c        ****         case CYBLE_EVT_GAP_NUMERIC_COMPARISON_REQUEST:
 167:main.c        ****             DBG_PRINTF("Compare this passkey with displayed in your peer device and press 'y' or 'n
 783              		.loc 1 167 0
 784 0190 3B68     		ldr	r3, [r7]
 785 0192 1A68     		ldr	r2, [r3]
 786 0194 A24B     		ldr	r3, .L66+128
 787 0196 1100     		movs	r1, r2
 788 0198 1800     		movs	r0, r3
 789 019a FFF7FEFF 		bl	printf
 168:main.c        ****                                     *(uint32 *)eventParam);
 169:main.c        ****             authState = AUTHENTICATION_PASSKEY_YES_NO;
 790              		.loc 1 169 0
 791 019e 8A4B     		ldr	r3, .L66+40
 792 01a0 0322     		movs	r2, #3
 793 01a2 1A70     		strb	r2, [r3]
 170:main.c        ****             break;
 794              		.loc 1 170 0
 795 01a4 CFE1     		b	.L36
 796              	.L21:
 171:main.c        ****             
 172:main.c        ****         case CYBLE_EVT_GAP_SMP_NEGOTIATED_AUTH_INFO:
 173:main.c        ****             peerAuthInfo = *(CYBLE_GAP_AUTH_INFO_T *)eventParam;
 797              		.loc 1 173 0
 798 01a6 844A     		ldr	r2, .L66+24
 799 01a8 3B68     		ldr	r3, [r7]
 800 01aa 1000     		movs	r0, r2
 801 01ac 1900     		movs	r1, r3
 802 01ae 0523     		movs	r3, #5
 803 01b0 1A00     		movs	r2, r3
 804 01b2 FFF7FEFF 		bl	memcpy
 174:main.c        ****             DBG_PRINTF("CYBLE_EVT_GAP_SMP_NEGOTIATED_AUTH_INFO: security:%x, bonding:%x, ekeySize:%
 805              		.loc 1 174 0
 806 01b6 804B     		ldr	r3, .L66+24
 807 01b8 1B78     		ldrb	r3, [r3]
 808 01ba 1900     		movs	r1, r3
 809 01bc 7E4B     		ldr	r3, .L66+24
 810 01be 5B78     		ldrb	r3, [r3, #1]
 811 01c0 1A00     		movs	r2, r3
 812 01c2 7D4B     		ldr	r3, .L66+24
ARM GAS  C:\Users\cypress\AppData\Local\Temp\ccsVnWxK.s 			page 22


 813 01c4 9B78     		ldrb	r3, [r3, #2]
 814 01c6 1C00     		movs	r4, r3
 815 01c8 7B4B     		ldr	r3, .L66+24
 816 01ca DB78     		ldrb	r3, [r3, #3]
 817 01cc 9548     		ldr	r0, .L66+132
 818 01ce 0093     		str	r3, [sp]
 819 01d0 2300     		movs	r3, r4
 820 01d2 FFF7FEFF 		bl	printf
 175:main.c        ****             peerAuthInfo.security, 
 176:main.c        ****             peerAuthInfo.bonding, 
 177:main.c        ****             peerAuthInfo.ekeySize, 
 178:main.c        ****             peerAuthInfo.authErr);
 179:main.c        ****             break;
 821              		.loc 1 179 0
 822 01d6 B6E1     		b	.L36
 823              	.L15:
 180:main.c        ****         
 181:main.c        ****         case CYBLE_EVT_GAP_DEVICE_CONNECTED:
 182:main.c        ****             DBG_PRINTF("CYBLE_EVT_GAP_DEVICE_CONNECTED: %x \r\n", cyBle_connHandle.bdHandle);
 824              		.loc 1 182 0
 825 01d8 934B     		ldr	r3, .L66+136
 826 01da 1B78     		ldrb	r3, [r3]
 827 01dc 1A00     		movs	r2, r3
 828 01de 934B     		ldr	r3, .L66+140
 829 01e0 1100     		movs	r1, r2
 830 01e2 1800     		movs	r0, r3
 831 01e4 FFF7FEFF 		bl	printf
 183:main.c        ****             
 184:main.c        ****              /* Initiate pairing process */
 185:main.c        ****             if((cyBle_authInfo.security & CYBLE_GAP_SEC_LEVEL_MASK) > CYBLE_GAP_SEC_LEVEL_1)
 832              		.loc 1 185 0
 833 01e8 914B     		ldr	r3, .L66+144
 834 01ea 1B78     		ldrb	r3, [r3]
 835 01ec 1A00     		movs	r2, r3
 836 01ee 0F23     		movs	r3, #15
 837 01f0 1340     		ands	r3, r2
 838 01f2 002B     		cmp	r3, #0
 839 01f4 15DD     		ble	.L53
 186:main.c        ****             {
 187:main.c        ****                 apiResult = CyBle_GapAuthReq(cyBle_connHandle.bdHandle, &cyBle_authInfo);
 840              		.loc 1 187 0
 841 01f6 8C4B     		ldr	r3, .L66+136
 842 01f8 1B78     		ldrb	r3, [r3]
 843 01fa 8D4A     		ldr	r2, .L66+144
 844 01fc 1100     		movs	r1, r2
 845 01fe 1800     		movs	r0, r3
 846 0200 FFF7FEFF 		bl	CyBle_GapAuthReq
 847 0204 0300     		movs	r3, r0
 848 0206 1A00     		movs	r2, r3
 849 0208 8A4B     		ldr	r3, .L66+148
 850 020a 1A80     		strh	r2, [r3]
 188:main.c        ****                 if(apiResult != CYBLE_ERROR_OK)
 851              		.loc 1 188 0
 852 020c 894B     		ldr	r3, .L66+148
 853 020e 1B88     		ldrh	r3, [r3]
 854 0210 002B     		cmp	r3, #0
 855 0212 09D0     		beq	.L55
ARM GAS  C:\Users\cypress\AppData\Local\Temp\ccsVnWxK.s 			page 23


 189:main.c        ****                 {
 190:main.c        ****                     DBG_PRINTF(" CyBle_GapAuthReq API Error: ");
 856              		.loc 1 190 0
 857 0214 884B     		ldr	r3, .L66+152
 858 0216 1800     		movs	r0, r3
 859 0218 FFF7FEFF 		bl	printf
 191:main.c        ****                     PrintApiResult();
 860              		.loc 1 191 0
 861 021c FFF7FEFF 		bl	PrintApiResult
 862 0220 02E0     		b	.L55
 863              	.L53:
 192:main.c        ****                 }
 193:main.c        ****             }
 194:main.c        ****             else
 195:main.c        ****             {
 196:main.c        ****                 authState = AUTHENTICATION_BONDING_COMPLETE;
 864              		.loc 1 196 0
 865 0222 694B     		ldr	r3, .L66+40
 866 0224 0522     		movs	r2, #5
 867 0226 1A70     		strb	r2, [r3]
 868              	.L55:
 197:main.c        ****             }
 198:main.c        ****             
 199:main.c        ****             Disconnect_LED_Write(LED_OFF);
 869              		.loc 1 199 0
 870 0228 0120     		movs	r0, #1
 871 022a FFF7FEFF 		bl	Disconnect_LED_Write
 200:main.c        ****             Advertising_LED_Write(LED_OFF);
 872              		.loc 1 200 0
 873 022e 0120     		movs	r0, #1
 874 0230 FFF7FEFF 		bl	Advertising_LED_Write
 201:main.c        ****             Connected_LED_Write(LED_ON);
 875              		.loc 1 201 0
 876 0234 0020     		movs	r0, #0
 877 0236 FFF7FEFF 		bl	Connected_LED_Write
 202:main.c        ****             break;
 878              		.loc 1 202 0
 879 023a 84E1     		b	.L36
 880              	.L16:
 203:main.c        **** 
 204:main.c        ****         case CYBLE_EVT_GAP_DEVICE_DISCONNECTED:
 205:main.c        ****             DBG_PRINTF("EVT_GAP_DEVICE_DISCONNECTED, reason: %x \r\n", *(uint8*)eventParam);
 881              		.loc 1 205 0
 882 023c 3B68     		ldr	r3, [r7]
 883 023e 1B78     		ldrb	r3, [r3]
 884 0240 1A00     		movs	r2, r3
 885 0242 7E4B     		ldr	r3, .L66+156
 886 0244 1100     		movs	r1, r2
 887 0246 1800     		movs	r0, r3
 888 0248 FFF7FEFF 		bl	printf
 206:main.c        ****             /* Put device to discoverable mode so that remote can search it. */
 207:main.c        ****             StartAdvertisement();
 889              		.loc 1 207 0
 890 024c FFF7FEFF 		bl	StartAdvertisement
 208:main.c        ****             Disconnect_LED_Write(LED_ON);
 891              		.loc 1 208 0
 892 0250 0020     		movs	r0, #0
ARM GAS  C:\Users\cypress\AppData\Local\Temp\ccsVnWxK.s 			page 24


 893 0252 FFF7FEFF 		bl	Disconnect_LED_Write
 209:main.c        ****             Advertising_LED_Write(LED_OFF);
 894              		.loc 1 209 0
 895 0256 0120     		movs	r0, #1
 896 0258 FFF7FEFF 		bl	Advertising_LED_Write
 210:main.c        ****             Connected_LED_Write(LED_OFF);
 897              		.loc 1 210 0
 898 025c 0120     		movs	r0, #1
 899 025e FFF7FEFF 		bl	Connected_LED_Write
 211:main.c        ****             break;
 900              		.loc 1 211 0
 901 0262 70E1     		b	.L36
 902              	.L18:
 212:main.c        ****             
 213:main.c        ****         case CYBLE_EVT_GAPC_CONNECTION_UPDATE_COMPLETE:       
 214:main.c        ****             connParameters = (CYBLE_GAP_CONN_PARAM_UPDATED_IN_CONTROLLER_T *)eventParam;
 903              		.loc 1 214 0
 904 0264 3B68     		ldr	r3, [r7]
 905 0266 FB60     		str	r3, [r7, #12]
 215:main.c        ****             DBG_PRINTF("CYBLE_EVT_GAP_DEVICE_CONNECTED: connIntv = %.2f ms.\r\n",   
 906              		.loc 1 215 0
 907 0268 FB68     		ldr	r3, [r7, #12]
 908 026a 5B88     		ldrh	r3, [r3, #2]
 909 026c 1800     		movs	r0, r3
 910 026e FFF7FEFF 		bl	__aeabi_ui2f
 911 0272 031C     		adds	r3, r0, #0
 912 0274 181C     		adds	r0, r3, #0
 913 0276 FFF7FEFF 		bl	__aeabi_f2d
 914 027a 0022     		movs	r2, #0
 915 027c 704B     		ldr	r3, .L66+160
 916 027e FFF7FEFF 		bl	__aeabi_dmul
 917 0282 0300     		movs	r3, r0
 918 0284 0C00     		movs	r4, r1
 919 0286 6F49     		ldr	r1, .L66+164
 920 0288 1A00     		movs	r2, r3
 921 028a 2300     		movs	r3, r4
 922 028c 0800     		movs	r0, r1
 923 028e FFF7FEFF 		bl	printf
 216:main.c        ****             (float)connParameters->connIntv * CYBLE_CONN_INTRV_TO_MS);
 217:main.c        ****             break;
 924              		.loc 1 217 0
 925 0292 58E1     		b	.L36
 926              	.L31:
 218:main.c        ****         
 219:main.c        ****         case CYBLE_EVT_L2CAP_CONN_PARAM_UPDATE_RSP:
 220:main.c        ****             DBG_PRINTF("CYBLE_EVT_L2CAP_CONN_PARAM_UPDATE_RSP: %s\r\n", 
 927              		.loc 1 220 0
 928 0294 3B68     		ldr	r3, [r7]
 929 0296 1B88     		ldrh	r3, [r3]
 930 0298 002B     		cmp	r3, #0
 931 029a 01D1     		bne	.L56
 932              		.loc 1 220 0 is_stmt 0 discriminator 1
 933 029c 6A4B     		ldr	r3, .L66+168
 934 029e 00E0     		b	.L57
 935              	.L56:
 936              		.loc 1 220 0 discriminator 2
 937 02a0 6A4B     		ldr	r3, .L66+172
ARM GAS  C:\Users\cypress\AppData\Local\Temp\ccsVnWxK.s 			page 25


 938              	.L57:
 939              		.loc 1 220 0 discriminator 4
 940 02a2 6B4A     		ldr	r2, .L66+176
 941 02a4 1900     		movs	r1, r3
 942 02a6 1000     		movs	r0, r2
 943 02a8 FFF7FEFF 		bl	printf
 221:main.c        ****             *(uint16 *)eventParam == 0u ? "Accepted" : "Rejected");
 222:main.c        ****             break; 
 944              		.loc 1 222 0 is_stmt 1 discriminator 4
 945 02ac 4BE1     		b	.L36
 946              	.L12:
 223:main.c        **** 
 224:main.c        ****         case CYBLE_EVT_GAP_AUTH_COMPLETE:
 225:main.c        ****             /* Authentication complete; initiate bonding */
 226:main.c        ****             peerAuthInfo = *(CYBLE_GAP_AUTH_INFO_T *)eventParam;
 947              		.loc 1 226 0
 948 02ae 424A     		ldr	r2, .L66+24
 949 02b0 3B68     		ldr	r3, [r7]
 950 02b2 1000     		movs	r0, r2
 951 02b4 1900     		movs	r1, r3
 952 02b6 0523     		movs	r3, #5
 953 02b8 1A00     		movs	r2, r3
 954 02ba FFF7FEFF 		bl	memcpy
 227:main.c        ****             DBG_PRINTF("AUTH_COMPLETE: security:%x, bonding:%x, ekeySize:%x, authErr %x \r\n", 
 955              		.loc 1 227 0
 956 02be 3E4B     		ldr	r3, .L66+24
 957 02c0 1B78     		ldrb	r3, [r3]
 958 02c2 1900     		movs	r1, r3
 959 02c4 3C4B     		ldr	r3, .L66+24
 960 02c6 5B78     		ldrb	r3, [r3, #1]
 961 02c8 1A00     		movs	r2, r3
 962 02ca 3B4B     		ldr	r3, .L66+24
 963 02cc 9B78     		ldrb	r3, [r3, #2]
 964 02ce 1C00     		movs	r4, r3
 965 02d0 394B     		ldr	r3, .L66+24
 966 02d2 DB78     		ldrb	r3, [r3, #3]
 967 02d4 5F48     		ldr	r0, .L66+180
 968 02d6 0093     		str	r3, [sp]
 969 02d8 2300     		movs	r3, r4
 970 02da FFF7FEFF 		bl	printf
 228:main.c        ****             peerAuthInfo.security, 
 229:main.c        ****             peerAuthInfo.bonding, 
 230:main.c        ****             peerAuthInfo.ekeySize, 
 231:main.c        ****             peerAuthInfo.authErr);
 232:main.c        ****             authState = AUTHENTICATION_COMPLETE_BONDING_REQD;
 971              		.loc 1 232 0
 972 02de 3A4B     		ldr	r3, .L66+40
 973 02e0 0422     		movs	r2, #4
 974 02e2 1A70     		strb	r2, [r3]
 233:main.c        ****             break;
 975              		.loc 1 233 0
 976 02e4 2FE1     		b	.L36
 977              	.L17:
 234:main.c        **** 
 235:main.c        ****         case CYBLE_EVT_GAP_ENCRYPT_CHANGE:
 236:main.c        ****             DBG_PRINTF("CYBLE_EVT_GAP_ENCRYPT_CHANGE: %d \r\n", *(uint8 *)eventParam);
 978              		.loc 1 236 0
ARM GAS  C:\Users\cypress\AppData\Local\Temp\ccsVnWxK.s 			page 26


 979 02e6 3B68     		ldr	r3, [r7]
 980 02e8 1B78     		ldrb	r3, [r3]
 981 02ea 1A00     		movs	r2, r3
 982 02ec 5A4B     		ldr	r3, .L66+184
 983 02ee 1100     		movs	r1, r2
 984 02f0 1800     		movs	r0, r3
 985 02f2 FFF7FEFF 		bl	printf
 237:main.c        ****             break;
 986              		.loc 1 237 0
 987 02f6 26E1     		b	.L36
 988              	.L19:
 238:main.c        ****             
 239:main.c        ****         case CYBLE_EVT_GAP_KEYINFO_EXCHNGE_CMPLT:
 240:main.c        ****             DBG_PRINTF("CYBLE_EVT_GAP_KEYINFO_EXCHNGE_CMPLT \r\n");
 989              		.loc 1 240 0
 990 02f8 584B     		ldr	r3, .L66+188
 991 02fa 1800     		movs	r0, r3
 992 02fc FFF7FEFF 		bl	puts
 241:main.c        ****             break;
 993              		.loc 1 241 0
 994 0300 21E1     		b	.L36
 995              	.L14:
 242:main.c        **** 			
 243:main.c        ****         case CYBLE_EVT_GAPP_ADVERTISEMENT_START_STOP:
 244:main.c        ****             DBG_PRINTF("CYBLE_EVT_GAPP_ADVERTISEMENT_START_STOP \r\n");
 996              		.loc 1 244 0
 997 0302 574B     		ldr	r3, .L66+192
 998 0304 1800     		movs	r0, r3
 999 0306 FFF7FEFF 		bl	puts
 245:main.c        ****             PrintState();
 1000              		.loc 1 245 0
 1001 030a FFF7FEFF 		bl	PrintState
 246:main.c        ****             
 247:main.c        ****             if(CyBle_GetState() == CYBLE_STATE_DISCONNECTED)
 1002              		.loc 1 247 0
 1003 030e 554B     		ldr	r3, .L66+196
 1004 0310 1B78     		ldrb	r3, [r3]
 1005 0312 042B     		cmp	r3, #4
 1006 0314 25D1     		bne	.L58
 248:main.c        ****             {   
 249:main.c        ****                 /* Fast and slow advertising period complete, go to low power  
 250:main.c        ****                  * mode (Hibernate mode) and wait for external
 251:main.c        ****                  * user event to wake up device again */
 252:main.c        ****                 DBG_PRINTF("Hibernate \r\n");
 1007              		.loc 1 252 0
 1008 0316 544B     		ldr	r3, .L66+200
 1009 0318 1800     		movs	r0, r3
 1010 031a FFF7FEFF 		bl	puts
 253:main.c        ****                 Disconnect_LED_Write(LED_ON);
 1011              		.loc 1 253 0
 1012 031e 0020     		movs	r0, #0
 1013 0320 FFF7FEFF 		bl	Disconnect_LED_Write
 254:main.c        ****                 Advertising_LED_Write(LED_OFF);
 1014              		.loc 1 254 0
 1015 0324 0120     		movs	r0, #1
 1016 0326 FFF7FEFF 		bl	Advertising_LED_Write
 255:main.c        ****                 Connected_LED_Write(LED_OFF);
ARM GAS  C:\Users\cypress\AppData\Local\Temp\ccsVnWxK.s 			page 27


 1017              		.loc 1 255 0
 1018 032a 0120     		movs	r0, #1
 1019 032c FFF7FEFF 		bl	Connected_LED_Write
 256:main.c        ****             #if (DEBUG_UART_ENABLED == ENABLED)
 257:main.c        ****                 while((UART_DEB_SpiUartGetTxBufferSize() + UART_DEB_GET_TX_FIFO_SR_VALID) != 0);
 1020              		.loc 1 257 0
 1021 0330 C046     		nop
 1022              	.L61:
 1023              		.loc 1 257 0 is_stmt 0 discriminator 5
 1024 0332 FFF7FEFF 		bl	UART_DEB_SpiUartGetTxBufferSize
 1025 0336 0100     		movs	r1, r0
 1026 0338 4C4B     		ldr	r3, .L66+204
 1027 033a 1A68     		ldr	r2, [r3]
 1028 033c 8023     		movs	r3, #128
 1029 033e 1B02     		lsls	r3, r3, #8
 1030 0340 1340     		ands	r3, r2
 1031 0342 01D0     		beq	.L59
 1032              		.loc 1 257 0 discriminator 1
 1033 0344 0123     		movs	r3, #1
 1034 0346 00E0     		b	.L60
 1035              	.L59:
 1036              		.loc 1 257 0 discriminator 2
 1037 0348 0023     		movs	r3, #0
 1038              	.L60:
 1039              		.loc 1 257 0 discriminator 4
 1040 034a CB18     		adds	r3, r1, r3
 1041 034c 002B     		cmp	r3, #0
 1042 034e F0D1     		bne	.L61
 258:main.c        ****             #endif /* (DEBUG_UART_ENABLED == ENABLED) */
 259:main.c        ****                 SW2_ClearInterrupt();
 1043              		.loc 1 259 0 is_stmt 1
 1044 0350 FFF7FEFF 		bl	SW2_ClearInterrupt
 260:main.c        ****                 Wakeup_Interrupt_ClearPending();
 1045              		.loc 1 260 0
 1046 0354 FFF7FEFF 		bl	Wakeup_Interrupt_ClearPending
 261:main.c        ****                 Wakeup_Interrupt_Start();
 1047              		.loc 1 261 0
 1048 0358 FFF7FEFF 		bl	Wakeup_Interrupt_Start
 262:main.c        ****                 CySysPmHibernate();
 1049              		.loc 1 262 0
 1050 035c FFF7FEFF 		bl	CySysPmHibernate
 263:main.c        ****             }
 264:main.c        ****             else if(CyBle_GetState() == CYBLE_STATE_ADVERTISING)
 265:main.c        ****             {
 266:main.c        ****                 Advertising_LED_Write(LED_ON);
 267:main.c        ****                 Disconnect_LED_Write(LED_OFF);
 268:main.c        ****                 Connected_LED_Write(LED_OFF);
 269:main.c        ****             }
 270:main.c        ****             else
 271:main.c        ****             {
 272:main.c        ****                 /* Nothing else */   
 273:main.c        ****             }
 274:main.c        ****             break;
 1051              		.loc 1 274 0
 1052 0360 F0E0     		b	.L65
 1053              	.L58:
 264:main.c        ****             {
ARM GAS  C:\Users\cypress\AppData\Local\Temp\ccsVnWxK.s 			page 28


 1054              		.loc 1 264 0
 1055 0362 404B     		ldr	r3, .L66+196
 1056 0364 1B78     		ldrb	r3, [r3]
 1057 0366 032B     		cmp	r3, #3
 1058 0368 00D0     		beq	.LCB511
 1059 036a EBE0     		b	.L65	@long jump
 1060              	.LCB511:
 266:main.c        ****                 Disconnect_LED_Write(LED_OFF);
 1061              		.loc 1 266 0
 1062 036c 0020     		movs	r0, #0
 1063 036e FFF7FEFF 		bl	Advertising_LED_Write
 267:main.c        ****                 Connected_LED_Write(LED_OFF);
 1064              		.loc 1 267 0
 1065 0372 0120     		movs	r0, #1
 1066 0374 FFF7FEFF 		bl	Disconnect_LED_Write
 268:main.c        ****             }
 1067              		.loc 1 268 0
 1068 0378 0120     		movs	r0, #1
 1069 037a FFF7FEFF 		bl	Connected_LED_Write
 1070              		.loc 1 274 0
 1071 037e E1E0     		b	.L65
 1072              	.L22:
 275:main.c        **** 
 276:main.c        ****         /**********************************************************
 277:main.c        ****         *                       GATT Events
 278:main.c        ****         ***********************************************************/
 279:main.c        ****         
 280:main.c        ****         case CYBLE_EVT_GATT_CONNECT_IND:
 281:main.c        ****             DBG_PRINTF("CYBLE_EVT_GATT_CONNECT_IND: attId %x, bdHandle %x \r\n", 
 1073              		.loc 1 281 0
 1074 0380 3B68     		ldr	r3, [r7]
 1075 0382 5B78     		ldrb	r3, [r3, #1]
 1076 0384 1900     		movs	r1, r3
 1077 0386 3B68     		ldr	r3, [r7]
 1078 0388 1B78     		ldrb	r3, [r3]
 1079 038a 1A00     		movs	r2, r3
 1080 038c 384B     		ldr	r3, .L66+208
 1081 038e 1800     		movs	r0, r3
 1082 0390 FFF7FEFF 		bl	printf
 282:main.c        ****                 ((CYBLE_CONN_HANDLE_T *)eventParam)->attId, ((CYBLE_CONN_HANDLE_T *)eventParam)->bd
 283:main.c        ****             break;
 1083              		.loc 1 283 0
 1084 0394 D7E0     		b	.L36
 1085              	.L23:
 284:main.c        **** 
 285:main.c        ****         case CYBLE_EVT_GATT_DISCONNECT_IND:
 286:main.c        ****             DBG_PRINTF("CYBLE_EVT_GATT_DISCONNECT_IND \r\n");
 1086              		.loc 1 286 0
 1087 0396 374B     		ldr	r3, .L66+212
 1088 0398 1800     		movs	r0, r3
 1089 039a FFF7FEFF 		bl	puts
 287:main.c        ****             break;
 1090              		.loc 1 287 0
 1091 039e D2E0     		b	.L36
 1092              	.L67:
 1093              		.align	2
 1094              	.L66:
ARM GAS  C:\Users\cypress\AppData\Local\Temp\ccsVnWxK.s 			page 29


 1095 03a0 4C070000 		.word	.L4
 1096 03a4 00000000 		.word	.LC1
 1097 03a8 18000000 		.word	.LC3
 1098 03ac 38000000 		.word	.LC5
 1099 03b0 54000000 		.word	.LC7
 1100 03b4 70000000 		.word	.LC9
 1101 03b8 00000000 		.word	peerAuthInfo
 1102 03bc 8C000000 		.word	.LC12
 1103 03c0 CC000000 		.word	.LC14
 1104 03c4 F4000000 		.word	.LC16
 1105 03c8 00000000 		.word	authState
 1106 03cc 00000000 		.word	passkeyValue
 1107 03d0 00000000 		.word	passkeyPow
 1108 03d4 A0860100 		.word	100000
 1109 03d8 00000000 		.word	passkeyCounter
 1110 03dc 24010000 		.word	.LC22
 1111 03e0 58010000 		.word	.LC24
 1112 03e4 680B0000 		.word	.L39
 1113 03e8 7C010000 		.word	.LC27
 1114 03ec 84010000 		.word	.LC29
 1115 03f0 9C010000 		.word	.LC31
 1116 03f4 B4010000 		.word	.LC33
 1117 03f8 D0010000 		.word	.LC35
 1118 03fc EC010000 		.word	.LC37
 1119 0400 04020000 		.word	.LC39
 1120 0404 28020000 		.word	.LC41
 1121 0408 40020000 		.word	.LC43
 1122 040c 54020000 		.word	.LC45
 1123 0410 68020000 		.word	.LC47
 1124 0414 7C020000 		.word	.LC49
 1125 0418 94020000 		.word	.LC51
 1126 041c A8020000 		.word	.LC53
 1127 0420 B0020000 		.word	.LC55
 1128 0424 08030000 		.word	.LC57
 1129 0428 00000000 		.word	cyBle_connHandle
 1130 042c 64030000 		.word	.LC60
 1131 0430 00000000 		.word	cyBle_authInfo
 1132 0434 00000000 		.word	apiResult
 1133 0438 8C030000 		.word	.LC64
 1134 043c AC030000 		.word	.LC66
 1135 0440 0000F43F 		.word	1072955392
 1136 0444 D8030000 		.word	.LC68
 1137 0448 10040000 		.word	.LC70
 1138 044c 1C040000 		.word	.LC72
 1139 0450 28040000 		.word	.LC74
 1140 0454 54040000 		.word	.LC76
 1141 0458 98040000 		.word	.LC78
 1142 045c BC040000 		.word	.LC80
 1143 0460 E4040000 		.word	.LC82
 1144 0464 00000000 		.word	cyBle_state
 1145 0468 10050000 		.word	.LC85
 1146 046c 08022440 		.word	1076101640
 1147 0470 1C050000 		.word	.LC87
 1148 0474 54050000 		.word	.LC89
 1149              	.L25:
 288:main.c        ****     
 289:main.c        ****         case CYBLE_EVT_GATTS_WRITE_REQ:
ARM GAS  C:\Users\cypress\AppData\Local\Temp\ccsVnWxK.s 			page 30


 290:main.c        ****             DBG_PRINTF("CYBLE_EVT_GATTS_WRITE_REQ attr handle: %4.4x , value: ",((CYBLE_GATTS_WRITE
 1150              		.loc 1 290 0
 1151 0478 3B68     		ldr	r3, [r7]
 1152 047a 9B89     		ldrh	r3, [r3, #12]
 1153 047c 1A00     		movs	r2, r3
 1154 047e 344B     		ldr	r3, .L68
 1155 0480 1100     		movs	r1, r2
 1156 0482 1800     		movs	r0, r3
 1157 0484 FFF7FEFF 		bl	printf
 291:main.c        ****             for(i = 0; i < ((CYBLE_GATTS_WRITE_REQ_PARAM_T *)eventParam)->handleValPair.value.len; 
 1158              		.loc 1 291 0
 1159 0488 324B     		ldr	r3, .L68+4
 1160 048a 0022     		movs	r2, #0
 1161 048c 1A80     		strh	r2, [r3]
 1162 048e 11E0     		b	.L63
 1163              	.L64:
 292:main.c        ****             {
 293:main.c        ****                 DBG_PRINTF("%2.2x ", ((CYBLE_GATTS_WRITE_REQ_PARAM_T *)eventParam)->handleValPair.v
 1164              		.loc 1 293 0 discriminator 3
 1165 0490 3B68     		ldr	r3, [r7]
 1166 0492 5B68     		ldr	r3, [r3, #4]
 1167 0494 2F4A     		ldr	r2, .L68+4
 1168 0496 1288     		ldrh	r2, [r2]
 1169 0498 9B18     		adds	r3, r3, r2
 1170 049a 1B78     		ldrb	r3, [r3]
 1171 049c 1A00     		movs	r2, r3
 1172 049e 2E4B     		ldr	r3, .L68+8
 1173 04a0 1100     		movs	r1, r2
 1174 04a2 1800     		movs	r0, r3
 1175 04a4 FFF7FEFF 		bl	printf
 291:main.c        ****             for(i = 0; i < ((CYBLE_GATTS_WRITE_REQ_PARAM_T *)eventParam)->handleValPair.value.len; 
 1176              		.loc 1 291 0 discriminator 3
 1177 04a8 2A4B     		ldr	r3, .L68+4
 1178 04aa 1B88     		ldrh	r3, [r3]
 1179 04ac 0133     		adds	r3, r3, #1
 1180 04ae 9AB2     		uxth	r2, r3
 1181 04b0 284B     		ldr	r3, .L68+4
 1182 04b2 1A80     		strh	r2, [r3]
 1183              	.L63:
 291:main.c        ****             for(i = 0; i < ((CYBLE_GATTS_WRITE_REQ_PARAM_T *)eventParam)->handleValPair.value.len; 
 1184              		.loc 1 291 0 is_stmt 0 discriminator 1
 1185 04b4 3B68     		ldr	r3, [r7]
 1186 04b6 1A89     		ldrh	r2, [r3, #8]
 1187 04b8 264B     		ldr	r3, .L68+4
 1188 04ba 1B88     		ldrh	r3, [r3]
 1189 04bc 9A42     		cmp	r2, r3
 1190 04be E7D8     		bhi	.L64
 294:main.c        ****             }
 295:main.c        ****             DBG_PRINTF("\r\n");
 1191              		.loc 1 295 0 is_stmt 1
 1192 04c0 264B     		ldr	r3, .L68+12
 1193 04c2 1800     		movs	r0, r3
 1194 04c4 FFF7FEFF 		bl	puts
 296:main.c        ****             break;
 1195              		.loc 1 296 0
 1196 04c8 3DE0     		b	.L36
 1197              	.L24:
ARM GAS  C:\Users\cypress\AppData\Local\Temp\ccsVnWxK.s 			page 31


 297:main.c        ****             
 298:main.c        ****         case CYBLE_EVT_GATTS_XCNHG_MTU_REQ:
 299:main.c        ****             DBG_PRINTF("CYBLE_EVT_GATTS_XCNHG_MTU_REQ \r\n");
 1198              		.loc 1 299 0
 1199 04ca 254B     		ldr	r3, .L68+16
 1200 04cc 1800     		movs	r0, r3
 1201 04ce FFF7FEFF 		bl	puts
 300:main.c        ****             break;
 1202              		.loc 1 300 0
 1203 04d2 38E0     		b	.L36
 1204              	.L28:
 301:main.c        ****             
 302:main.c        ****         case CYBLE_EVT_GATTS_HANDLE_VALUE_CNF:
 303:main.c        ****             DBG_PRINTF("CYBLE_EVT_GATTS_HANDLE_VALUE_CNF \r\n");
 1205              		.loc 1 303 0
 1206 04d4 234B     		ldr	r3, .L68+20
 1207 04d6 1800     		movs	r0, r3
 1208 04d8 FFF7FEFF 		bl	puts
 304:main.c        ****             break;
 1209              		.loc 1 304 0
 1210 04dc 33E0     		b	.L36
 1211              	.L26:
 305:main.c        ****             
 306:main.c        ****         case CYBLE_EVT_GATTS_PREP_WRITE_REQ:
 307:main.c        ****             DBG_PRINTF("CYBLE_EVT_GATTS_PREP_WRITE_REQ \r\n");
 1212              		.loc 1 307 0
 1213 04de 224B     		ldr	r3, .L68+24
 1214 04e0 1800     		movs	r0, r3
 1215 04e2 FFF7FEFF 		bl	puts
 308:main.c        ****             break;
 1216              		.loc 1 308 0
 1217 04e6 2EE0     		b	.L36
 1218              	.L27:
 309:main.c        ****         
 310:main.c        ****         case CYBLE_EVT_GATTS_EXEC_WRITE_REQ:
 311:main.c        ****             DBG_PRINTF("CYBLE_EVT_GATTS_EXEC_WRITE_REQ \r\n");
 1219              		.loc 1 311 0
 1220 04e8 204B     		ldr	r3, .L68+28
 1221 04ea 1800     		movs	r0, r3
 1222 04ec FFF7FEFF 		bl	puts
 312:main.c        ****             break;
 1223              		.loc 1 312 0
 1224 04f0 29E0     		b	.L36
 1225              	.L29:
 313:main.c        **** 
 314:main.c        ****         case CYBLE_EVT_GATTS_READ_CHAR_VAL_ACCESS_REQ:
 315:main.c        ****             /* Triggered on server side when client sends read request and when
 316:main.c        ****             * characteristic has CYBLE_GATT_DB_ATTR_CHAR_VAL_RD_EVENT property set.
 317:main.c        ****             * This event could be ignored by application unless it need to response
 318:main.c        ****             * by error response which needs to be set in gattErrorCode field of
 319:main.c        ****             * event parameter. */
 320:main.c        ****             DBG_PRINTF("CYBLE_EVT_GATTS_READ_CHAR_VAL_ACCESS_REQ: handle: %x \r\n", 
 1226              		.loc 1 320 0
 1227 04f2 3B68     		ldr	r3, [r7]
 1228 04f4 5B88     		ldrh	r3, [r3, #2]
 1229 04f6 1A00     		movs	r2, r3
 1230 04f8 1D4B     		ldr	r3, .L68+32
ARM GAS  C:\Users\cypress\AppData\Local\Temp\ccsVnWxK.s 			page 32


 1231 04fa 1100     		movs	r1, r2
 1232 04fc 1800     		movs	r0, r3
 1233 04fe FFF7FEFF 		bl	printf
 321:main.c        ****                 ((CYBLE_GATTS_CHAR_VAL_READ_REQ_T *)eventParam)->attrHandle);
 322:main.c        ****             break;
 1234              		.loc 1 322 0
 1235 0502 20E0     		b	.L36
 1236              	.L33:
 323:main.c        **** 
 324:main.c        ****         /**********************************************************
 325:main.c        ****         *                  GATT Service Events 
 326:main.c        ****         ***********************************************************/
 327:main.c        ****             
 328:main.c        ****         case CYBLE_EVT_GATTS_INDICATION_ENABLED:
 329:main.c        ****             DBG_PRINTF("CYBLE_EVT_GATTS_INDICATION_ENABLED \r\n");
 1237              		.loc 1 329 0
 1238 0504 1B4B     		ldr	r3, .L68+36
 1239 0506 1800     		movs	r0, r3
 1240 0508 FFF7FEFF 		bl	puts
 330:main.c        ****             break;
 1241              		.loc 1 330 0
 1242 050c 1BE0     		b	.L36
 1243              	.L34:
 331:main.c        ****         
 332:main.c        ****         case CYBLE_EVT_GATTS_INDICATION_DISABLED:
 333:main.c        ****             DBG_PRINTF("CYBLE_EVT_GATTS_INDICATION_DISABLED \r\n");
 1244              		.loc 1 333 0
 1245 050e 1A4B     		ldr	r3, .L68+40
 1246 0510 1800     		movs	r0, r3
 1247 0512 FFF7FEFF 		bl	puts
 334:main.c        ****             break;
 1248              		.loc 1 334 0
 1249 0516 16E0     		b	.L36
 1250              	.L35:
 335:main.c        ****             
 336:main.c        ****         case CYBLE_EVT_GATTC_INDICATION:
 337:main.c        ****             DBG_PRINTF("CYBLE_EVT_GATTS_INDICATION \r\n");
 1251              		.loc 1 337 0
 1252 0518 184B     		ldr	r3, .L68+44
 1253 051a 1800     		movs	r0, r3
 1254 051c FFF7FEFF 		bl	puts
 338:main.c        ****             break;
 1255              		.loc 1 338 0
 1256 0520 11E0     		b	.L36
 1257              	.L30:
 339:main.c        **** 
 340:main.c        ****         /**********************************************************
 341:main.c        ****         *                       L2CAP Events 
 342:main.c        ****         ***********************************************************/    
 343:main.c        ****             
 344:main.c        ****         case CYBLE_EVT_L2CAP_CONN_PARAM_UPDATE_REQ:
 345:main.c        ****             DBG_PRINTF("CYBLE_EVT_L2CAP_CONN_PARAM_UPDATE_REQ \r\n");
 1258              		.loc 1 345 0
 1259 0522 174B     		ldr	r3, .L68+48
 1260 0524 1800     		movs	r0, r3
 1261 0526 FFF7FEFF 		bl	puts
 346:main.c        ****             break;
ARM GAS  C:\Users\cypress\AppData\Local\Temp\ccsVnWxK.s 			page 33


 1262              		.loc 1 346 0
 1263 052a 0CE0     		b	.L36
 1264              	.L32:
 347:main.c        **** 
 348:main.c        ****         /**********************************************************
 349:main.c        ****         *                       Other Events
 350:main.c        ****         ***********************************************************/
 351:main.c        ****         case CYBLE_EVT_PENDING_FLASH_WRITE:
 352:main.c        ****             /* Inform application that flash write is pending. Stack internal data 
 353:main.c        ****             * structures are modified and require to be stored in Flash using 
 354:main.c        ****             * CyBle_StoreBondingData() */
 355:main.c        ****             DBG_PRINTF("CYBLE_EVT_PENDING_FLASH_WRITE\r\n");
 1265              		.loc 1 355 0
 1266 052c 154B     		ldr	r3, .L68+52
 1267 052e 1800     		movs	r0, r3
 1268 0530 FFF7FEFF 		bl	puts
 356:main.c        ****             break;
 1269              		.loc 1 356 0
 1270 0534 07E0     		b	.L36
 1271              	.L2:
 357:main.c        ****             
 358:main.c        ****         default:
 359:main.c        ****             DBG_PRINTF("other event: 0x%lx \r\n", event);
 1272              		.loc 1 359 0
 1273 0536 7A68     		ldr	r2, [r7, #4]
 1274 0538 134B     		ldr	r3, .L68+56
 1275 053a 1100     		movs	r1, r2
 1276 053c 1800     		movs	r0, r3
 1277 053e FFF7FEFF 		bl	printf
 360:main.c        **** 			break;
 1278              		.loc 1 360 0
 1279 0542 00E0     		b	.L36
 1280              	.L65:
 274:main.c        **** 
 1281              		.loc 1 274 0
 1282 0544 C046     		nop
 1283              	.L36:
 361:main.c        ****     }
 362:main.c        **** }
 1284              		.loc 1 362 0
 1285 0546 C046     		nop
 1286 0548 BD46     		mov	sp, r7
 1287 054a 05B0     		add	sp, sp, #20
 1288              		@ sp needed
 1289 054c 90BD     		pop	{r4, r7, pc}
 1290              	.L69:
 1291 054e C046     		.align	2
 1292              	.L68:
 1293 0550 74050000 		.word	.LC91
 1294 0554 00000000 		.word	i
 1295 0558 AC050000 		.word	.LC94
 1296 055c B4050000 		.word	.LC96
 1297 0560 B8050000 		.word	.LC98
 1298 0564 D8050000 		.word	.LC100
 1299 0568 FC050000 		.word	.LC102
 1300 056c 20060000 		.word	.LC104
 1301 0570 44060000 		.word	.LC106
ARM GAS  C:\Users\cypress\AppData\Local\Temp\ccsVnWxK.s 			page 34


 1302 0574 7C060000 		.word	.LC108
 1303 0578 A4060000 		.word	.LC110
 1304 057c CC060000 		.word	.LC112
 1305 0580 EC060000 		.word	.LC114
 1306 0584 14070000 		.word	.LC116
 1307 0588 34070000 		.word	.LC118
 1308              		.cfi_endproc
 1309              	.LFE36:
 1310              		.size	AppCallBack, .-AppCallBack
 1311              		.section	.text.Timer_Interrupt,"ax",%progbits
 1312              		.align	2
 1313              		.global	Timer_Interrupt
 1314              		.code	16
 1315              		.thumb_func
 1316              		.type	Timer_Interrupt, %function
 1317              	Timer_Interrupt:
 1318              	.LFB37:
 363:main.c        **** 
 364:main.c        **** 
 365:main.c        **** /*******************************************************************************
 366:main.c        **** * Function Name: Timer_Interrupt
 367:main.c        **** ********************************************************************************
 368:main.c        **** *
 369:main.c        **** * Summary:
 370:main.c        **** *  Handles the Interrupt Service Routine for the WDT timer.
 371:main.c        **** *
 372:main.c        **** *******************************************************************************/
 373:main.c        **** CY_ISR(Timer_Interrupt)
 374:main.c        **** {
 1319              		.loc 1 374 0
 1320              		.cfi_startproc
 1321              		@ args = 0, pretend = 0, frame = 0
 1322              		@ frame_needed = 1, uses_anonymous_args = 0
 1323 0000 80B5     		push	{r7, lr}
 1324              		.cfi_def_cfa_offset 8
 1325              		.cfi_offset 7, -8
 1326              		.cfi_offset 14, -4
 1327 0002 00AF     		add	r7, sp, #0
 1328              		.cfi_def_cfa_register 7
 375:main.c        ****     static uint8 led = LED_OFF;
 376:main.c        ****     
 377:main.c        ****     /* Blink LED to indicate that device advertises */
 378:main.c        ****     if(CYBLE_STATE_ADVERTISING == CyBle_GetState())
 1329              		.loc 1 378 0
 1330 0004 094B     		ldr	r3, .L73
 1331 0006 1B78     		ldrb	r3, [r3]
 1332 0008 032B     		cmp	r3, #3
 1333 000a 0BD1     		bne	.L72
 379:main.c        ****     {
 380:main.c        ****         led ^= LED_OFF;
 1334              		.loc 1 380 0
 1335 000c 084B     		ldr	r3, .L73+4
 1336 000e 1B78     		ldrb	r3, [r3]
 1337 0010 0122     		movs	r2, #1
 1338 0012 5340     		eors	r3, r2
 1339 0014 DAB2     		uxtb	r2, r3
 1340 0016 064B     		ldr	r3, .L73+4
ARM GAS  C:\Users\cypress\AppData\Local\Temp\ccsVnWxK.s 			page 35


 1341 0018 1A70     		strb	r2, [r3]
 381:main.c        ****         Advertising_LED_Write(led);
 1342              		.loc 1 381 0
 1343 001a 054B     		ldr	r3, .L73+4
 1344 001c 1B78     		ldrb	r3, [r3]
 1345 001e 1800     		movs	r0, r3
 1346 0020 FFF7FEFF 		bl	Advertising_LED_Write
 1347              	.L72:
 382:main.c        ****     }
 383:main.c        **** }
 1348              		.loc 1 383 0
 1349 0024 C046     		nop
 1350 0026 BD46     		mov	sp, r7
 1351              		@ sp needed
 1352 0028 80BD     		pop	{r7, pc}
 1353              	.L74:
 1354 002a C046     		.align	2
 1355              	.L73:
 1356 002c 00000000 		.word	cyBle_state
 1357 0030 00000000 		.word	led.8526
 1358              		.cfi_endproc
 1359              	.LFE37:
 1360              		.size	Timer_Interrupt, .-Timer_Interrupt
 1361              		.section	.text.LowPowerImplementation,"ax",%progbits
 1362              		.align	2
 1363              		.code	16
 1364              		.thumb_func
 1365              		.type	LowPowerImplementation, %function
 1366              	LowPowerImplementation:
 1367              	.LFB38:
 384:main.c        **** 
 385:main.c        **** /*******************************************************************************
 386:main.c        **** * Function Name: LowPowerImplementation()
 387:main.c        **** ********************************************************************************
 388:main.c        **** * Summary:
 389:main.c        **** * Implements low power in the project.
 390:main.c        **** *
 391:main.c        **** * Parameters:
 392:main.c        **** * None
 393:main.c        **** *
 394:main.c        **** * Return:
 395:main.c        **** * None
 396:main.c        **** *
 397:main.c        **** * Theory:
 398:main.c        **** * The function tries to enter deep sleep as much as possible - whenever the 
 399:main.c        **** * BLE is idle and the UART transmission/reception is not happening. At all other
 400:main.c        **** * times, the function tries to enter CPU sleep.
 401:main.c        **** *
 402:main.c        **** *******************************************************************************/
 403:main.c        **** static void LowPowerImplementation(void)
 404:main.c        **** {
 1368              		.loc 1 404 0
 1369              		.cfi_startproc
 1370              		@ args = 0, pretend = 0, frame = 8
 1371              		@ frame_needed = 1, uses_anonymous_args = 0
 1372 0000 90B5     		push	{r4, r7, lr}
 1373              		.cfi_def_cfa_offset 12
ARM GAS  C:\Users\cypress\AppData\Local\Temp\ccsVnWxK.s 			page 36


 1374              		.cfi_offset 4, -12
 1375              		.cfi_offset 7, -8
 1376              		.cfi_offset 14, -4
 1377 0002 83B0     		sub	sp, sp, #12
 1378              		.cfi_def_cfa_offset 24
 1379 0004 00AF     		add	r7, sp, #0
 1380              		.cfi_def_cfa_register 7
 405:main.c        ****     CYBLE_LP_MODE_T bleMode;
 406:main.c        ****     uint8 interruptStatus;
 407:main.c        ****     
 408:main.c        ****     /* For advertising and connected states, implement deep sleep 
 409:main.c        ****      * functionality to achieve low power in the system. For more details
 410:main.c        ****      * on the low power implementation, refer to the Low Power Application 
 411:main.c        ****      * Note.
 412:main.c        ****      */
 413:main.c        ****     if((CyBle_GetState() == CYBLE_STATE_ADVERTISING) || 
 1381              		.loc 1 413 0
 1382 0006 234B     		ldr	r3, .L86
 1383 0008 1B78     		ldrb	r3, [r3]
 1384 000a 032B     		cmp	r3, #3
 1385 000c 03D0     		beq	.L76
 414:main.c        ****        (CyBle_GetState() == CYBLE_STATE_CONNECTED))
 1386              		.loc 1 414 0 discriminator 1
 1387 000e 214B     		ldr	r3, .L86
 1388 0010 1B78     		ldrb	r3, [r3]
 413:main.c        ****        (CyBle_GetState() == CYBLE_STATE_CONNECTED))
 1389              		.loc 1 413 0 discriminator 1
 1390 0012 022B     		cmp	r3, #2
 1391 0014 39D1     		bne	.L85
 1392              	.L76:
 415:main.c        ****     {
 416:main.c        ****         /* Request BLE subsystem to enter into Deep-Sleep mode between connection and advertising i
 417:main.c        ****         bleMode = CyBle_EnterLPM(CYBLE_BLESS_DEEPSLEEP);
 1393              		.loc 1 417 0
 1394 0016 FC1D     		adds	r4, r7, #7
 1395 0018 0320     		movs	r0, #3
 1396 001a FFF7FEFF 		bl	CyBle_EnterLPM
 1397 001e 0300     		movs	r3, r0
 1398 0020 2370     		strb	r3, [r4]
 418:main.c        ****         /* Disable global interrupts */
 419:main.c        ****         interruptStatus = CyEnterCriticalSection();
 1399              		.loc 1 419 0
 1400 0022 BC1D     		adds	r4, r7, #6
 1401 0024 FFF7FEFF 		bl	CyEnterCriticalSection
 1402 0028 0300     		movs	r3, r0
 1403 002a 2370     		strb	r3, [r4]
 420:main.c        ****         /* When BLE subsystem has been put into Deep-Sleep mode */
 421:main.c        ****         if(bleMode == CYBLE_BLESS_DEEPSLEEP)
 1404              		.loc 1 421 0
 1405 002c FB1D     		adds	r3, r7, #7
 1406 002e 1B78     		ldrb	r3, [r3]
 1407 0030 032B     		cmp	r3, #3
 1408 0032 1ED1     		bne	.L78
 422:main.c        ****         {
 423:main.c        ****             /* And it is still there or ECO is on */
 424:main.c        ****             if((CyBle_GetBleSsState() == CYBLE_BLESS_STATE_ECO_ON) || 
 1409              		.loc 1 424 0
ARM GAS  C:\Users\cypress\AppData\Local\Temp\ccsVnWxK.s 			page 37


 1410 0034 FFF7FEFF 		bl	CyBle_GetBleSsState
 1411 0038 0300     		movs	r3, r0
 1412 003a 042B     		cmp	r3, #4
 1413 003c 04D0     		beq	.L79
 425:main.c        ****                (CyBle_GetBleSsState() == CYBLE_BLESS_STATE_DEEPSLEEP))
 1414              		.loc 1 425 0 discriminator 1
 1415 003e FFF7FEFF 		bl	CyBle_GetBleSsState
 1416 0042 0300     		movs	r3, r0
 424:main.c        ****                (CyBle_GetBleSsState() == CYBLE_BLESS_STATE_DEEPSLEEP))
 1417              		.loc 1 424 0 discriminator 1
 1418 0044 062B     		cmp	r3, #6
 1419 0046 1BD1     		bne	.L84
 1420              	.L79:
 426:main.c        ****             {
 427:main.c        ****             #if (DEBUG_UART_ENABLED == ENABLED)
 428:main.c        ****                 /* Put the CPU into the Deep-Sleep mode when all debug information has been sent */
 429:main.c        ****                 if((UART_DEB_SpiUartGetTxBufferSize() + UART_DEB_GET_TX_FIFO_SR_VALID) == 0u)
 1421              		.loc 1 429 0
 1422 0048 FFF7FEFF 		bl	UART_DEB_SpiUartGetTxBufferSize
 1423 004c 0100     		movs	r1, r0
 1424 004e 124B     		ldr	r3, .L86+4
 1425 0050 1A68     		ldr	r2, [r3]
 1426 0052 8023     		movs	r3, #128
 1427 0054 1B02     		lsls	r3, r3, #8
 1428 0056 1340     		ands	r3, r2
 1429 0058 01D0     		beq	.L81
 1430              		.loc 1 429 0 is_stmt 0 discriminator 1
 1431 005a 0123     		movs	r3, #1
 1432 005c 00E0     		b	.L82
 1433              	.L81:
 1434              		.loc 1 429 0 discriminator 2
 1435 005e 0023     		movs	r3, #0
 1436              	.L82:
 1437              		.loc 1 429 0 discriminator 4
 1438 0060 CB18     		adds	r3, r1, r3
 1439 0062 002B     		cmp	r3, #0
 1440 0064 02D1     		bne	.L83
 430:main.c        ****                 {
 431:main.c        ****                     CySysPmDeepSleep();
 1441              		.loc 1 431 0 is_stmt 1
 1442 0066 FFF7FEFF 		bl	CySysPmDeepSleep
 1443 006a 09E0     		b	.L84
 1444              	.L83:
 432:main.c        ****                 }
 433:main.c        ****                 else /* Put the CPU into Sleep mode and let SCB to continue sending debug data */
 434:main.c        ****                 {
 435:main.c        ****                     CySysPmSleep();
 1445              		.loc 1 435 0
 1446 006c FFF7FEFF 		bl	CySysPmSleep
 1447 0070 06E0     		b	.L84
 1448              	.L78:
 436:main.c        ****                 }
 437:main.c        ****             #else
 438:main.c        ****                 CySysPmDeepSleep();
 439:main.c        ****             #endif /* (DEBUG_UART_ENABLED == ENABLED) */
 440:main.c        ****             }
 441:main.c        ****         }
ARM GAS  C:\Users\cypress\AppData\Local\Temp\ccsVnWxK.s 			page 38


 442:main.c        ****         else /* When BLE subsystem has been put into Sleep mode or is active */
 443:main.c        ****         {
 444:main.c        ****             /* And hardware doesn't finish Tx/Rx opeation - put the CPU into Sleep mode */
 445:main.c        ****             if(CyBle_GetBleSsState() != CYBLE_BLESS_STATE_EVENT_CLOSE)
 1449              		.loc 1 445 0
 1450 0072 FFF7FEFF 		bl	CyBle_GetBleSsState
 1451 0076 0300     		movs	r3, r0
 1452 0078 022B     		cmp	r3, #2
 1453 007a 01D0     		beq	.L84
 446:main.c        ****             {
 447:main.c        ****                 CySysPmSleep();
 1454              		.loc 1 447 0
 1455 007c FFF7FEFF 		bl	CySysPmSleep
 1456              	.L84:
 448:main.c        ****             }
 449:main.c        ****         }
 450:main.c        ****         /* Enable global interrupt */
 451:main.c        ****         CyExitCriticalSection(interruptStatus);
 1457              		.loc 1 451 0
 1458 0080 BB1D     		adds	r3, r7, #6
 1459 0082 1B78     		ldrb	r3, [r3]
 1460 0084 1800     		movs	r0, r3
 1461 0086 FFF7FEFF 		bl	CyExitCriticalSection
 1462              	.L85:
 452:main.c        ****     }
 453:main.c        **** }
 1463              		.loc 1 453 0
 1464 008a C046     		nop
 1465 008c BD46     		mov	sp, r7
 1466 008e 03B0     		add	sp, sp, #12
 1467              		@ sp needed
 1468 0090 90BD     		pop	{r4, r7, pc}
 1469              	.L87:
 1470 0092 C046     		.align	2
 1471              	.L86:
 1472 0094 00000000 		.word	cyBle_state
 1473 0098 08022440 		.word	1076101640
 1474              		.cfi_endproc
 1475              	.LFE38:
 1476              		.size	LowPowerImplementation, .-LowPowerImplementation
 1477              		.section	.rodata
 1478              		.align	2
 1479              	.LC126:
 1480 0bcc 41636365 		.ascii	"Accept displayed passkey \015\000"
 1480      70742064 
 1480      6973706C 
 1480      61796564 
 1480      20706173 
 1481 0be7 00       		.align	2
 1482              	.LC130:
 1483 0be8 4379426C 		.ascii	"CyBle_GapAuthPassKeyReply API Error : \000"
 1483      655F4761 
 1483      70417574 
 1483      68506173 
 1483      734B6579 
 1484 0c0f 00       		.align	2
 1485              	.LC132:
ARM GAS  C:\Users\cypress\AppData\Local\Temp\ccsVnWxK.s 			page 39


 1486 0c10 52656A65 		.ascii	"Reject displayed passkey \015\000"
 1486      63742064 
 1486      6973706C 
 1486      61796564 
 1486      20706173 
 1487 0c2b 00       		.align	2
 1488              	.LC134:
 1489 0c2c 57726F6E 		.ascii	"Wrong key entered. Press 'y' or 'n'\015\000"
 1489      67206B65 
 1489      7920656E 
 1489      74657265 
 1489      642E2050 
 1490              		.global	__aeabi_uidiv
 1491 0c51 000000   		.align	2
 1492              	.LC139:
 1493 0c54 57726F6E 		.ascii	"Wrong key entered. \015\000"
 1493      67206B65 
 1493      7920656E 
 1493      74657265 
 1493      642E200D 
 1494 0c69 000000   		.align	2
 1495              	.LC142:
 1496 0c6c 4379426C 		.ascii	"CyBle_GapAuthPassKeyReply API Error: \000"
 1496      655F4761 
 1496      70417574 
 1496      68506173 
 1496      734B6579 
 1497              		.section	.text.AuthenticationHandler,"ax",%progbits
 1498              		.align	2
 1499              		.global	AuthenticationHandler
 1500              		.code	16
 1501              		.thumb_func
 1502              		.type	AuthenticationHandler, %function
 1503              	AuthenticationHandler:
 1504              	.LFB39:
 454:main.c        **** 
 455:main.c        **** /*******************************************************************************
 456:main.c        **** * Function Name: AuthenticationHandler
 457:main.c        **** ********************************************************************************
 458:main.c        **** *
 459:main.c        **** * Summary:
 460:main.c        **** *   Handles entering authentication information.
 461:main.c        **** *
 462:main.c        **** * Parameters:
 463:main.c        **** *   None
 464:main.c        **** *
 465:main.c        **** * Return:
 466:main.c        **** *   None
 467:main.c        **** *
 468:main.c        **** *******************************************************************************/
 469:main.c        **** void AuthenticationHandler(void)
 470:main.c        **** {
 1505              		.loc 1 470 0
 1506              		.cfi_startproc
 1507              		@ args = 0, pretend = 0, frame = 0
 1508              		@ frame_needed = 1, uses_anonymous_args = 0
 1509 0000 80B5     		push	{r7, lr}
ARM GAS  C:\Users\cypress\AppData\Local\Temp\ccsVnWxK.s 			page 40


 1510              		.cfi_def_cfa_offset 8
 1511              		.cfi_offset 7, -8
 1512              		.cfi_offset 14, -4
 1513 0002 00AF     		add	r7, sp, #0
 1514              		.cfi_def_cfa_register 7
 471:main.c        ****     switch(authState)
 1515              		.loc 1 471 0
 1516 0004 684B     		ldr	r3, .L108
 1517 0006 1B78     		ldrb	r3, [r3]
 1518 0008 032B     		cmp	r3, #3
 1519 000a 05D0     		beq	.L90
 1520 000c 052B     		cmp	r3, #5
 1521 000e 00D1     		bne	.LCB926
 1522 0010 C1E0     		b	.L105	@long jump
 1523              	.LCB926:
 1524 0012 012B     		cmp	r3, #1
 1525 0014 65D0     		beq	.L92
 472:main.c        ****     {
 473:main.c        ****     case AUTHENTICATION_PASSKEY_YES_NO:
 474:main.c        ****         
 475:main.c        ****         if(((command = UART_DEB_GET_CHAR()) != 0u) || (customCommand != 0u))
 476:main.c        ****         {
 477:main.c        ****             if((command == 0u) && (customCommand != 0u))
 478:main.c        ****             {
 479:main.c        ****                 command = customCommand;
 480:main.c        ****                 customCommand = 0u;
 481:main.c        ****             }
 482:main.c        ****             if(command == 'y')
 483:main.c        ****             {
 484:main.c        ****                 DBG_PRINTF("Accept displayed passkey \r\n");
 485:main.c        ****                 apiResult = CyBle_GapAuthPassKeyReply(cyBle_connHandle.bdHandle, 0u, CYBLE_GAP_ACCE
 486:main.c        ****                 if(apiResult != CYBLE_ERROR_OK)
 487:main.c        ****                 {
 488:main.c        ****                     DBG_PRINTF("CyBle_GapAuthPassKeyReply API Error : ");
 489:main.c        ****                     PrintApiResult();
 490:main.c        ****                 }
 491:main.c        ****                 authState = AUTHENTICATION_PASSKEY_ENTERED;
 492:main.c        ****             }
 493:main.c        ****             else if(command == 'n')
 494:main.c        ****             {
 495:main.c        ****                 DBG_PRINTF("Reject displayed passkey \r\n");
 496:main.c        ****                 apiResult = CyBle_GapAuthPassKeyReply(cyBle_connHandle.bdHandle, 0u, CYBLE_GAP_REJE
 497:main.c        ****                 if(apiResult != CYBLE_ERROR_OK)
 498:main.c        ****                 {
 499:main.c        ****                     DBG_PRINTF("CyBle_GapAuthPassKeyReply API Error : ");
 500:main.c        ****                     PrintApiResult();
 501:main.c        ****                 }
 502:main.c        ****                authState = AUTHENTICATION_PASSKEY_ENTERED;
 503:main.c        ****             }
 504:main.c        ****             else
 505:main.c        ****             {
 506:main.c        ****                 DBG_PRINTF("Wrong key entered. Press 'y' or 'n'\r\n");
 507:main.c        ****             }
 508:main.c        ****         }
 509:main.c        ****         break;
 510:main.c        ****            
 511:main.c        ****     case AUTHENTICATION_WAITING_FOR_PASSKEY:
ARM GAS  C:\Users\cypress\AppData\Local\Temp\ccsVnWxK.s 			page 41


 512:main.c        ****      
 513:main.c        ****         /* Get 6 digit number from UART terminal */
 514:main.c        ****         if((command = UART_DEB_GET_CHAR()) != 0u)
 515:main.c        ****         {   
 516:main.c        ****             /* accept the digits that are in the range of '0' to '9' */
 517:main.c        ****             if((command >= '0') && (command <= '9'))  
 518:main.c        ****             {
 519:main.c        ****                 passkeyValue += (uint32)(command - '0') * passkeyPow;
 520:main.c        ****                 passkeyPow /= 10u;
 521:main.c        ****                 passkeyCounter++;
 522:main.c        ****                 UART_DEB_PUT_CHAR(command); 
 523:main.c        ****             }
 524:main.c        ****             else  /* If entered digit is not in the range of '0' to '9' */
 525:main.c        ****             {
 526:main.c        ****                DBG_PRINTF("Wrong key entered. \r\n");
 527:main.c        ****             }
 528:main.c        **** 
 529:main.c        ****             if(passkeyCounter == CYBLE_GAP_USER_PASSKEY_SIZE)
 530:main.c        ****             {
 531:main.c        ****                 DBG_PRINTF("\r\n");
 532:main.c        ****                 /* Send Pass key Response to create an Authenticated Link */
 533:main.c        ****                 apiResult = CyBle_GapAuthPassKeyReply(cyBle_connHandle.bdHandle, passkeyValue, CYBL
 534:main.c        ****                 if(apiResult != CYBLE_ERROR_OK)
 535:main.c        ****                 {
 536:main.c        ****                     DBG_PRINTF("CyBle_GapAuthPassKeyReply API Error: ");
 537:main.c        ****                     PrintApiResult();
 538:main.c        ****                 }
 539:main.c        ****                 authState = AUTHENTICATION_PASSKEY_ENTERED;
 540:main.c        ****             }
 541:main.c        ****         }
 542:main.c        ****         break;
 543:main.c        **** 
 544:main.c        ****     case AUTHENTICATION_BONDING_COMPLETE:
 545:main.c        ****         break;
 546:main.c        **** 
 547:main.c        ****     default:    /* Not supported state */
 548:main.c        ****         break;
 1526              		.loc 1 548 0
 1527 0016 C3E0     		b	.L100
 1528              	.L90:
 475:main.c        ****         {
 1529              		.loc 1 475 0
 1530 0018 FFF7FEFF 		bl	UART_DEB_UartGetChar
 1531 001c 0300     		movs	r3, r0
 1532 001e DAB2     		uxtb	r2, r3
 1533 0020 624B     		ldr	r3, .L108+4
 1534 0022 1A70     		strb	r2, [r3]
 1535 0024 614B     		ldr	r3, .L108+4
 1536 0026 1B78     		ldrb	r3, [r3]
 1537 0028 002B     		cmp	r3, #0
 1538 002a 04D1     		bne	.L93
 475:main.c        ****         {
 1539              		.loc 1 475 0 is_stmt 0 discriminator 1
 1540 002c 604B     		ldr	r3, .L108+8
 1541 002e 1B78     		ldrb	r3, [r3]
 1542 0030 002B     		cmp	r3, #0
 1543 0032 00D1     		bne	.LCB945
ARM GAS  C:\Users\cypress\AppData\Local\Temp\ccsVnWxK.s 			page 42


 1544 0034 B1E0     		b	.L106	@long jump
 1545              	.LCB945:
 1546              	.L93:
 477:main.c        ****             {
 1547              		.loc 1 477 0 is_stmt 1
 1548 0036 5D4B     		ldr	r3, .L108+4
 1549 0038 1B78     		ldrb	r3, [r3]
 1550 003a 002B     		cmp	r3, #0
 1551 003c 0AD1     		bne	.L95
 477:main.c        ****             {
 1552              		.loc 1 477 0 is_stmt 0 discriminator 1
 1553 003e 5C4B     		ldr	r3, .L108+8
 1554 0040 1B78     		ldrb	r3, [r3]
 1555 0042 002B     		cmp	r3, #0
 1556 0044 06D0     		beq	.L95
 479:main.c        ****                 customCommand = 0u;
 1557              		.loc 1 479 0 is_stmt 1
 1558 0046 5A4B     		ldr	r3, .L108+8
 1559 0048 1A78     		ldrb	r2, [r3]
 1560 004a 584B     		ldr	r3, .L108+4
 1561 004c 1A70     		strb	r2, [r3]
 480:main.c        ****             }
 1562              		.loc 1 480 0
 1563 004e 584B     		ldr	r3, .L108+8
 1564 0050 0022     		movs	r2, #0
 1565 0052 1A70     		strb	r2, [r3]
 1566              	.L95:
 482:main.c        ****             {
 1567              		.loc 1 482 0
 1568 0054 554B     		ldr	r3, .L108+4
 1569 0056 1B78     		ldrb	r3, [r3]
 1570 0058 792B     		cmp	r3, #121
 1571 005a 1CD1     		bne	.L96
 484:main.c        ****                 apiResult = CyBle_GapAuthPassKeyReply(cyBle_connHandle.bdHandle, 0u, CYBLE_GAP_ACCE
 1572              		.loc 1 484 0
 1573 005c 554B     		ldr	r3, .L108+12
 1574 005e 1800     		movs	r0, r3
 1575 0060 FFF7FEFF 		bl	puts
 485:main.c        ****                 if(apiResult != CYBLE_ERROR_OK)
 1576              		.loc 1 485 0
 1577 0064 544B     		ldr	r3, .L108+16
 1578 0066 1B78     		ldrb	r3, [r3]
 1579 0068 0122     		movs	r2, #1
 1580 006a 0021     		movs	r1, #0
 1581 006c 1800     		movs	r0, r3
 1582 006e FFF7FEFF 		bl	CyBle_GapAuthPassKeyReply
 1583 0072 0300     		movs	r3, r0
 1584 0074 1A00     		movs	r2, r3
 1585 0076 514B     		ldr	r3, .L108+20
 1586 0078 1A80     		strh	r2, [r3]
 486:main.c        ****                 {
 1587              		.loc 1 486 0
 1588 007a 504B     		ldr	r3, .L108+20
 1589 007c 1B88     		ldrh	r3, [r3]
 1590 007e 002B     		cmp	r3, #0
 1591 0080 05D0     		beq	.L97
 488:main.c        ****                     PrintApiResult();
ARM GAS  C:\Users\cypress\AppData\Local\Temp\ccsVnWxK.s 			page 43


 1592              		.loc 1 488 0
 1593 0082 4F4B     		ldr	r3, .L108+24
 1594 0084 1800     		movs	r0, r3
 1595 0086 FFF7FEFF 		bl	printf
 489:main.c        ****                 }
 1596              		.loc 1 489 0
 1597 008a FFF7FEFF 		bl	PrintApiResult
 1598              	.L97:
 491:main.c        ****             }
 1599              		.loc 1 491 0
 1600 008e 464B     		ldr	r3, .L108
 1601 0090 0222     		movs	r2, #2
 1602 0092 1A70     		strb	r2, [r3]
 509:main.c        ****            
 1603              		.loc 1 509 0
 1604 0094 81E0     		b	.L106
 1605              	.L96:
 493:main.c        ****             {
 1606              		.loc 1 493 0
 1607 0096 454B     		ldr	r3, .L108+4
 1608 0098 1B78     		ldrb	r3, [r3]
 1609 009a 6E2B     		cmp	r3, #110
 1610 009c 1CD1     		bne	.L98
 495:main.c        ****                 apiResult = CyBle_GapAuthPassKeyReply(cyBle_connHandle.bdHandle, 0u, CYBLE_GAP_REJE
 1611              		.loc 1 495 0
 1612 009e 494B     		ldr	r3, .L108+28
 1613 00a0 1800     		movs	r0, r3
 1614 00a2 FFF7FEFF 		bl	puts
 496:main.c        ****                 if(apiResult != CYBLE_ERROR_OK)
 1615              		.loc 1 496 0
 1616 00a6 444B     		ldr	r3, .L108+16
 1617 00a8 1B78     		ldrb	r3, [r3]
 1618 00aa 0022     		movs	r2, #0
 1619 00ac 0021     		movs	r1, #0
 1620 00ae 1800     		movs	r0, r3
 1621 00b0 FFF7FEFF 		bl	CyBle_GapAuthPassKeyReply
 1622 00b4 0300     		movs	r3, r0
 1623 00b6 1A00     		movs	r2, r3
 1624 00b8 404B     		ldr	r3, .L108+20
 1625 00ba 1A80     		strh	r2, [r3]
 497:main.c        ****                 {
 1626              		.loc 1 497 0
 1627 00bc 3F4B     		ldr	r3, .L108+20
 1628 00be 1B88     		ldrh	r3, [r3]
 1629 00c0 002B     		cmp	r3, #0
 1630 00c2 05D0     		beq	.L99
 499:main.c        ****                     PrintApiResult();
 1631              		.loc 1 499 0
 1632 00c4 3E4B     		ldr	r3, .L108+24
 1633 00c6 1800     		movs	r0, r3
 1634 00c8 FFF7FEFF 		bl	printf
 500:main.c        ****                 }
 1635              		.loc 1 500 0
 1636 00cc FFF7FEFF 		bl	PrintApiResult
 1637              	.L99:
 502:main.c        ****             }
 1638              		.loc 1 502 0
ARM GAS  C:\Users\cypress\AppData\Local\Temp\ccsVnWxK.s 			page 44


 1639 00d0 354B     		ldr	r3, .L108
 1640 00d2 0222     		movs	r2, #2
 1641 00d4 1A70     		strb	r2, [r3]
 509:main.c        ****            
 1642              		.loc 1 509 0
 1643 00d6 60E0     		b	.L106
 1644              	.L98:
 506:main.c        ****             }
 1645              		.loc 1 506 0
 1646 00d8 3B4B     		ldr	r3, .L108+32
 1647 00da 1800     		movs	r0, r3
 1648 00dc FFF7FEFF 		bl	puts
 509:main.c        ****            
 1649              		.loc 1 509 0
 1650 00e0 5BE0     		b	.L106
 1651              	.L92:
 514:main.c        ****         {   
 1652              		.loc 1 514 0
 1653 00e2 FFF7FEFF 		bl	UART_DEB_UartGetChar
 1654 00e6 0300     		movs	r3, r0
 1655 00e8 DAB2     		uxtb	r2, r3
 1656 00ea 304B     		ldr	r3, .L108+4
 1657 00ec 1A70     		strb	r2, [r3]
 1658 00ee 2F4B     		ldr	r3, .L108+4
 1659 00f0 1B78     		ldrb	r3, [r3]
 1660 00f2 002B     		cmp	r3, #0
 1661 00f4 53D0     		beq	.L107
 517:main.c        ****             {
 1662              		.loc 1 517 0
 1663 00f6 2D4B     		ldr	r3, .L108+4
 1664 00f8 1B78     		ldrb	r3, [r3]
 1665 00fa 2F2B     		cmp	r3, #47
 1666 00fc 25D9     		bls	.L102
 517:main.c        ****             {
 1667              		.loc 1 517 0 is_stmt 0 discriminator 1
 1668 00fe 2B4B     		ldr	r3, .L108+4
 1669 0100 1B78     		ldrb	r3, [r3]
 1670 0102 392B     		cmp	r3, #57
 1671 0104 21D8     		bhi	.L102
 519:main.c        ****                 passkeyPow /= 10u;
 1672              		.loc 1 519 0 is_stmt 1
 1673 0106 294B     		ldr	r3, .L108+4
 1674 0108 1B78     		ldrb	r3, [r3]
 1675 010a 303B     		subs	r3, r3, #48
 1676 010c 1A00     		movs	r2, r3
 1677 010e 2F4B     		ldr	r3, .L108+36
 1678 0110 1B68     		ldr	r3, [r3]
 1679 0112 5A43     		muls	r2, r3
 1680 0114 2E4B     		ldr	r3, .L108+40
 1681 0116 1B68     		ldr	r3, [r3]
 1682 0118 D218     		adds	r2, r2, r3
 1683 011a 2D4B     		ldr	r3, .L108+40
 1684 011c 1A60     		str	r2, [r3]
 520:main.c        ****                 passkeyCounter++;
 1685              		.loc 1 520 0
 1686 011e 2B4B     		ldr	r3, .L108+36
 1687 0120 1B68     		ldr	r3, [r3]
ARM GAS  C:\Users\cypress\AppData\Local\Temp\ccsVnWxK.s 			page 45


 1688 0122 0A21     		movs	r1, #10
 1689 0124 1800     		movs	r0, r3
 1690 0126 FFF7FEFF 		bl	__aeabi_uidiv
 1691 012a 0300     		movs	r3, r0
 1692 012c 1A00     		movs	r2, r3
 1693 012e 274B     		ldr	r3, .L108+36
 1694 0130 1A60     		str	r2, [r3]
 521:main.c        ****                 UART_DEB_PUT_CHAR(command); 
 1695              		.loc 1 521 0
 1696 0132 284B     		ldr	r3, .L108+44
 1697 0134 1B78     		ldrb	r3, [r3]
 1698 0136 0133     		adds	r3, r3, #1
 1699 0138 DAB2     		uxtb	r2, r3
 1700 013a 264B     		ldr	r3, .L108+44
 1701 013c 1A70     		strb	r2, [r3]
 522:main.c        ****             }
 1702              		.loc 1 522 0
 1703 013e 1B4B     		ldr	r3, .L108+4
 1704 0140 1B78     		ldrb	r3, [r3]
 1705 0142 1800     		movs	r0, r3
 1706 0144 FFF7FEFF 		bl	UART_DEB_SpiUartWriteTxData
 1707 0148 03E0     		b	.L103
 1708              	.L102:
 526:main.c        ****             }
 1709              		.loc 1 526 0
 1710 014a 234B     		ldr	r3, .L108+48
 1711 014c 1800     		movs	r0, r3
 1712 014e FFF7FEFF 		bl	puts
 1713              	.L103:
 529:main.c        ****             {
 1714              		.loc 1 529 0
 1715 0152 204B     		ldr	r3, .L108+44
 1716 0154 1B78     		ldrb	r3, [r3]
 1717 0156 062B     		cmp	r3, #6
 1718 0158 21D1     		bne	.L107
 531:main.c        ****                 /* Send Pass key Response to create an Authenticated Link */
 1719              		.loc 1 531 0
 1720 015a 204B     		ldr	r3, .L108+52
 1721 015c 1800     		movs	r0, r3
 1722 015e FFF7FEFF 		bl	puts
 533:main.c        ****                 if(apiResult != CYBLE_ERROR_OK)
 1723              		.loc 1 533 0
 1724 0162 154B     		ldr	r3, .L108+16
 1725 0164 1878     		ldrb	r0, [r3]
 1726 0166 1A4B     		ldr	r3, .L108+40
 1727 0168 1B68     		ldr	r3, [r3]
 1728 016a 0122     		movs	r2, #1
 1729 016c 1900     		movs	r1, r3
 1730 016e FFF7FEFF 		bl	CyBle_GapAuthPassKeyReply
 1731 0172 0300     		movs	r3, r0
 1732 0174 1A00     		movs	r2, r3
 1733 0176 114B     		ldr	r3, .L108+20
 1734 0178 1A80     		strh	r2, [r3]
 534:main.c        ****                 {
 1735              		.loc 1 534 0
 1736 017a 104B     		ldr	r3, .L108+20
 1737 017c 1B88     		ldrh	r3, [r3]
ARM GAS  C:\Users\cypress\AppData\Local\Temp\ccsVnWxK.s 			page 46


 1738 017e 002B     		cmp	r3, #0
 1739 0180 05D0     		beq	.L104
 536:main.c        ****                     PrintApiResult();
 1740              		.loc 1 536 0
 1741 0182 174B     		ldr	r3, .L108+56
 1742 0184 1800     		movs	r0, r3
 1743 0186 FFF7FEFF 		bl	printf
 537:main.c        ****                 }
 1744              		.loc 1 537 0
 1745 018a FFF7FEFF 		bl	PrintApiResult
 1746              	.L104:
 539:main.c        ****             }
 1747              		.loc 1 539 0
 1748 018e 064B     		ldr	r3, .L108
 1749 0190 0222     		movs	r2, #2
 1750 0192 1A70     		strb	r2, [r3]
 542:main.c        **** 
 1751              		.loc 1 542 0
 1752 0194 03E0     		b	.L107
 1753              	.L105:
 545:main.c        **** 
 1754              		.loc 1 545 0
 1755 0196 C046     		nop
 1756 0198 02E0     		b	.L100
 1757              	.L106:
 509:main.c        ****            
 1758              		.loc 1 509 0
 1759 019a C046     		nop
 1760 019c 00E0     		b	.L100
 1761              	.L107:
 542:main.c        **** 
 1762              		.loc 1 542 0
 1763 019e C046     		nop
 1764              	.L100:
 549:main.c        ****     }  
 550:main.c        **** }
 1765              		.loc 1 550 0
 1766 01a0 C046     		nop
 1767 01a2 BD46     		mov	sp, r7
 1768              		@ sp needed
 1769 01a4 80BD     		pop	{r7, pc}
 1770              	.L109:
 1771 01a6 C046     		.align	2
 1772              	.L108:
 1773 01a8 00000000 		.word	authState
 1774 01ac 00000000 		.word	command
 1775 01b0 00000000 		.word	customCommand
 1776 01b4 CC0B0000 		.word	.LC126
 1777 01b8 00000000 		.word	cyBle_connHandle
 1778 01bc 00000000 		.word	apiResult
 1779 01c0 E80B0000 		.word	.LC130
 1780 01c4 100C0000 		.word	.LC132
 1781 01c8 2C0C0000 		.word	.LC134
 1782 01cc 00000000 		.word	passkeyPow
 1783 01d0 00000000 		.word	passkeyValue
 1784 01d4 00000000 		.word	passkeyCounter
 1785 01d8 540C0000 		.word	.LC139
ARM GAS  C:\Users\cypress\AppData\Local\Temp\ccsVnWxK.s 			page 47


 1786 01dc B4050000 		.word	.LC96
 1787 01e0 6C0C0000 		.word	.LC142
 1788              		.cfi_endproc
 1789              	.LFE39:
 1790              		.size	AuthenticationHandler, .-AuthenticationHandler
 1791              		.section	.rodata
 1792 0c92 0000     		.align	2
 1793              	.LC144:
 1794 0c94 0D0A436F 		.ascii	"\015\012Continuous Glucose Monitoring Sensor Exampl"
 1794      6E74696E 
 1794      756F7573 
 1794      20476C75 
 1794      636F7365 
 1795 0cc1 65205072 		.ascii	"e Project\015\000"
 1795      6F6A6563 
 1795      740D00
 1796              		.align	2
 1797              	.LC148:
 1798 0ccc 4379426C 		.ascii	"CyBle_Start API Error: \000"
 1798      655F5374 
 1798      61727420 
 1798      41504920 
 1798      4572726F 
 1799              		.align	2
 1800              	.LC154:
 1801 0ce4 53746F72 		.ascii	"Store bonding data, status: %x \015\012\000"
 1801      6520626F 
 1801      6E64696E 
 1801      67206461 
 1801      74612C20 
 1802              		.section	.text.main,"ax",%progbits
 1803              		.align	2
 1804              		.global	main
 1805              		.code	16
 1806              		.thumb_func
 1807              		.type	main, %function
 1808              	main:
 1809              	.LFB40:
 551:main.c        **** 
 552:main.c        **** /*******************************************************************************
 553:main.c        **** * Function Name: main()
 554:main.c        **** ********************************************************************************
 555:main.c        **** * Summary:
 556:main.c        **** *  Main function for the project.
 557:main.c        **** *
 558:main.c        **** * Parameters:
 559:main.c        **** *  None
 560:main.c        **** *
 561:main.c        **** * Return:
 562:main.c        **** *  None
 563:main.c        **** *
 564:main.c        **** * Theory:
 565:main.c        **** *  The function starts BLE and UART components.
 566:main.c        **** *  This function process all BLE events and also implements the low power 
 567:main.c        **** *  functionality.
 568:main.c        **** *
 569:main.c        **** *******************************************************************************/
ARM GAS  C:\Users\cypress\AppData\Local\Temp\ccsVnWxK.s 			page 48


 570:main.c        **** int main()
 571:main.c        **** {
 1810              		.loc 1 571 0
 1811              		.cfi_startproc
 1812              		@ args = 0, pretend = 0, frame = 0
 1813              		@ frame_needed = 1, uses_anonymous_args = 0
 1814 0000 80B5     		push	{r7, lr}
 1815              		.cfi_def_cfa_offset 8
 1816              		.cfi_offset 7, -8
 1817              		.cfi_offset 14, -4
 1818 0002 00AF     		add	r7, sp, #0
 1819              		.cfi_def_cfa_register 7
 572:main.c        ****     CyGlobalIntEnable;
 1820              		.loc 1 572 0
 1821              		.syntax divided
 1822              	@ 572 "main.c" 1
 1823 0004 62B6     		CPSIE   i
 1824              	@ 0 "" 2
 573:main.c        **** 	UART_DEB_Start();
 1825              		.loc 1 573 0
 1826              		.thumb
 1827              		.syntax unified
 1828 0006 FFF7FEFF 		bl	UART_DEB_Start
 574:main.c        ****     DBG_PRINTF("\r\nContinuous Glucose Monitoring Sensor Example Project\r\n");
 1829              		.loc 1 574 0
 1830 000a 334B     		ldr	r3, .L119
 1831 000c 1800     		movs	r0, r3
 1832 000e FFF7FEFF 		bl	puts
 575:main.c        ****     
 576:main.c        ****     Disconnect_LED_Write(LED_OFF);
 1833              		.loc 1 576 0
 1834 0012 0120     		movs	r0, #1
 1835 0014 FFF7FEFF 		bl	Disconnect_LED_Write
 577:main.c        ****     Advertising_LED_Write(LED_OFF);
 1836              		.loc 1 577 0
 1837 0018 0120     		movs	r0, #1
 1838 001a FFF7FEFF 		bl	Advertising_LED_Write
 578:main.c        ****     Connected_LED_Write(LED_OFF);
 1839              		.loc 1 578 0
 1840 001e 0120     		movs	r0, #1
 1841 0020 FFF7FEFF 		bl	Connected_LED_Write
 579:main.c        **** 
 580:main.c        ****     /* Start CYBLE component and register generic event handler */
 581:main.c        ****     apiResult = CyBle_Start(AppCallBack);
 1842              		.loc 1 581 0
 1843 0024 2D4B     		ldr	r3, .L119+4
 1844 0026 1800     		movs	r0, r3
 1845 0028 FFF7FEFF 		bl	CyBle_Start
 1846 002c 0300     		movs	r3, r0
 1847 002e 1A00     		movs	r2, r3
 1848 0030 2B4B     		ldr	r3, .L119+8
 1849 0032 1A80     		strh	r2, [r3]
 582:main.c        **** 	if(apiResult != CYBLE_ERROR_OK)
 1850              		.loc 1 582 0
 1851 0034 2A4B     		ldr	r3, .L119+8
 1852 0036 1B88     		ldrh	r3, [r3]
 1853 0038 002B     		cmp	r3, #0
ARM GAS  C:\Users\cypress\AppData\Local\Temp\ccsVnWxK.s 			page 49


 1854 003a 05D0     		beq	.L111
 583:main.c        **** 	{
 584:main.c        **** 		DBG_PRINTF("CyBle_Start API Error: ");
 1855              		.loc 1 584 0
 1856 003c 294B     		ldr	r3, .L119+12
 1857 003e 1800     		movs	r0, r3
 1858 0040 FFF7FEFF 		bl	printf
 585:main.c        ****         PrintApiResult();
 1859              		.loc 1 585 0
 1860 0044 FFF7FEFF 		bl	PrintApiResult
 1861              	.L111:
 586:main.c        **** 	}
 587:main.c        ****     
 588:main.c        ****     PrintStackVersion();
 1862              		.loc 1 588 0
 1863 0048 FFF7FEFF 		bl	PrintStackVersion
 589:main.c        ****     
 590:main.c        ****     /* Services initialization */
 591:main.c        ****     CgmsInit();
 1864              		.loc 1 591 0
 1865 004c FFF7FEFF 		bl	CgmsInit
 592:main.c        ****     BmsInit();
 1866              		.loc 1 592 0
 1867 0050 FFF7FEFF 		bl	BmsInit
 593:main.c        ****     
 594:main.c        ****     /* Register Timer_Interrupt() by the WDT COUNTER2 to generate interrupt every second */
 595:main.c        ****     CySysWdtSetInterruptCallback(CY_SYS_WDT_COUNTER2, Timer_Interrupt);
 1868              		.loc 1 595 0
 1869 0054 244B     		ldr	r3, .L119+16
 1870 0056 1900     		movs	r1, r3
 1871 0058 0220     		movs	r0, #2
 1872 005a FFF7FEFF 		bl	CySysWdtSetInterruptCallback
 596:main.c        ****     /* Enable the COUNTER2 ISR handler. */
 597:main.c        ****     CySysWdtEnableCounterIsr(CY_SYS_WDT_COUNTER2);
 1873              		.loc 1 597 0
 1874 005e 0220     		movs	r0, #2
 1875 0060 FFF7FEFF 		bl	CySysWdtEnableCounterIsr
 1876              	.L118:
 598:main.c        ****     
 599:main.c        ****     /***************************************************************************
 600:main.c        ****     * Main polling loop
 601:main.c        ****     ***************************************************************************/
 602:main.c        ****     while(1u)
 603:main.c        ****     {
 604:main.c        ****         /*******************************************************************
 605:main.c        ****         *  To achieve low power in the device
 606:main.c        ****         *******************************************************************/
 607:main.c        ****         if(( authState != AUTHENTICATION_PASSKEY_YES_NO)
 1877              		.loc 1 607 0
 1878 0064 214B     		ldr	r3, .L119+20
 1879 0066 1B78     		ldrb	r3, [r3]
 1880 0068 032B     		cmp	r3, #3
 1881 006a 05D0     		beq	.L112
 608:main.c        ****         && ( authState != AUTHENTICATION_WAITING_FOR_PASSKEY) )
 1882              		.loc 1 608 0
 1883 006c 1F4B     		ldr	r3, .L119+20
 1884 006e 1B78     		ldrb	r3, [r3]
ARM GAS  C:\Users\cypress\AppData\Local\Temp\ccsVnWxK.s 			page 50


 1885 0070 012B     		cmp	r3, #1
 1886 0072 01D0     		beq	.L112
 609:main.c        ****         {   
 610:main.c        ****             LowPowerImplementation();
 1887              		.loc 1 610 0
 1888 0074 FFF7FEFF 		bl	LowPowerImplementation
 1889              	.L112:
 611:main.c        ****         }
 612:main.c        ****         
 613:main.c        ****         /*******************************************************************
 614:main.c        ****         *  Process all pending BLE events in the stack.
 615:main.c        ****         *******************************************************************/
 616:main.c        ****         CyBle_ProcessEvents();
 1890              		.loc 1 616 0
 1891 0078 FFF7FEFF 		bl	CyBle_ProcessEvents
 617:main.c        ****       
 618:main.c        ****         /*******************************************************************
 619:main.c        ****         *  Process GATT and service-specific tasks during connected state.
 620:main.c        ****         *******************************************************************/
 621:main.c        **** 		if(CyBle_GetState() == CYBLE_STATE_CONNECTED)
 1892              		.loc 1 621 0
 1893 007c 1C4B     		ldr	r3, .L119+24
 1894 007e 1B78     		ldrb	r3, [r3]
 1895 0080 022B     		cmp	r3, #2
 1896 0082 26D1     		bne	.L113
 622:main.c        ****         {   
 623:main.c        ****             /* Process CGMS actions when device in connection */
 624:main.c        ****             CgmsProcess();
 1897              		.loc 1 624 0
 1898 0084 FFF7FEFF 		bl	CgmsProcess
 625:main.c        ****             
 626:main.c        **** 		/*******************************************************************
 627:main.c        ****         *  Authentication procdure handling
 628:main.c        ****         *******************************************************************/
 629:main.c        ****             AuthenticationHandler();
 1899              		.loc 1 629 0
 1900 0088 FFF7FEFF 		bl	AuthenticationHandler
 630:main.c        ****         
 631:main.c        ****           /* Store bonding data to flash only when all debug information has been sent */
 632:main.c        ****         #if(CYBLE_BONDING_REQUIREMENT == CYBLE_BONDING_YES)
 633:main.c        ****             if((cyBle_pendingFlashWrite != 0u) &&
 1901              		.loc 1 633 0
 1902 008c 194B     		ldr	r3, .L119+28
 1903 008e 1B78     		ldrb	r3, [r3]
 1904 0090 002B     		cmp	r3, #0
 1905 0092 E7D0     		beq	.L118
 634:main.c        ****             ((UART_DEB_GET_TX_BUFF_SIZE() + UART_DEB_GET_TX_FIFO_SR_VALID) == 0u))
 1906              		.loc 1 634 0
 1907 0094 FFF7FEFF 		bl	UART_DEB_SpiUartGetTxBufferSize
 1908 0098 0100     		movs	r1, r0
 1909 009a 174B     		ldr	r3, .L119+32
 1910 009c 1A68     		ldr	r2, [r3]
 1911 009e 8023     		movs	r3, #128
 1912 00a0 1B02     		lsls	r3, r3, #8
 1913 00a2 1340     		ands	r3, r2
 1914 00a4 01D0     		beq	.L115
 1915              		.loc 1 634 0 is_stmt 0 discriminator 1
ARM GAS  C:\Users\cypress\AppData\Local\Temp\ccsVnWxK.s 			page 51


 1916 00a6 0123     		movs	r3, #1
 1917 00a8 00E0     		b	.L116
 1918              	.L115:
 1919              		.loc 1 634 0 discriminator 2
 1920 00aa 0023     		movs	r3, #0
 1921              	.L116:
 1922              		.loc 1 634 0 discriminator 4
 1923 00ac CB18     		adds	r3, r1, r3
 633:main.c        ****             ((UART_DEB_GET_TX_BUFF_SIZE() + UART_DEB_GET_TX_FIFO_SR_VALID) == 0u))
 1924              		.loc 1 633 0 is_stmt 1 discriminator 4
 1925 00ae 002B     		cmp	r3, #0
 1926 00b0 D8D1     		bne	.L118
 635:main.c        ****             {
 636:main.c        ****                 apiResult = CyBle_StoreBondingData(0u);
 1927              		.loc 1 636 0
 1928 00b2 0020     		movs	r0, #0
 1929 00b4 FFF7FEFF 		bl	CyBle_StoreBondingData
 1930 00b8 0300     		movs	r3, r0
 1931 00ba 1A00     		movs	r2, r3
 1932 00bc 084B     		ldr	r3, .L119+8
 1933 00be 1A80     		strh	r2, [r3]
 637:main.c        ****                 DBG_PRINTF("Store bonding data, status: %x \r\n", apiResult);
 1934              		.loc 1 637 0
 1935 00c0 074B     		ldr	r3, .L119+8
 1936 00c2 1B88     		ldrh	r3, [r3]
 1937 00c4 1A00     		movs	r2, r3
 1938 00c6 0D4B     		ldr	r3, .L119+36
 1939 00c8 1100     		movs	r1, r2
 1940 00ca 1800     		movs	r0, r3
 1941 00cc FFF7FEFF 		bl	printf
 1942 00d0 C8E7     		b	.L118
 1943              	.L113:
 638:main.c        ****             }
 639:main.c        ****         #endif /* CYBLE_BONDING_REQUIREMENT == CYBLE_BONDING_YES */    
 640:main.c        ****         }
 641:main.c        ****         else
 642:main.c        ****         {
 643:main.c        ****             /* Process BMS actions when device is disconnected */
 644:main.c        **** 			BmsProcess();
 1944              		.loc 1 644 0
 1945 00d2 FFF7FEFF 		bl	BmsProcess
 645:main.c        ****         }
 646:main.c        ****     }
 1946              		.loc 1 646 0
 1947 00d6 C5E7     		b	.L118
 1948              	.L120:
 1949              		.align	2
 1950              	.L119:
 1951 00d8 940C0000 		.word	.LC144
 1952 00dc 00000000 		.word	AppCallBack
 1953 00e0 00000000 		.word	apiResult
 1954 00e4 CC0C0000 		.word	.LC148
 1955 00e8 00000000 		.word	Timer_Interrupt
 1956 00ec 00000000 		.word	authState
 1957 00f0 00000000 		.word	cyBle_state
 1958 00f4 00000000 		.word	cyBle_pendingFlashWrite
 1959 00f8 08022440 		.word	1076101640
ARM GAS  C:\Users\cypress\AppData\Local\Temp\ccsVnWxK.s 			page 52


 1960 00fc E40C0000 		.word	.LC154
 1961              		.cfi_endproc
 1962              	.LFE40:
 1963              		.size	main, .-main
 1964              		.section	.rodata
 1965 0d06 0000     		.align	2
 1966              	.LC157:
 1967 0d08 53746172 		.ascii	"StartAdvertisement API Error: \000"
 1967      74416476 
 1967      65727469 
 1967      73656D65 
 1967      6E742041 
 1968 0d27 00       		.align	2
 1969              	.LC159:
 1970 0d28 53746172 		.ascii	"Start Advertisement with addr: \000"
 1970      74204164 
 1970      76657274 
 1970      6973656D 
 1970      656E7420 
 1971              		.align	2
 1972              	.LC161:
 1973 0d48 25322E32 		.ascii	"%2.2x\000"
 1973      7800
 1974              		.section	.text.StartAdvertisement,"ax",%progbits
 1975              		.align	2
 1976              		.global	StartAdvertisement
 1977              		.code	16
 1978              		.thumb_func
 1979              		.type	StartAdvertisement, %function
 1980              	StartAdvertisement:
 1981              	.LFB41:
 647:main.c        **** }
 648:main.c        **** 
 649:main.c        **** /*******************************************************************************
 650:main.c        **** * Function Name: StartAdvertisement
 651:main.c        **** ********************************************************************************
 652:main.c        **** *
 653:main.c        **** * Summary:
 654:main.c        **** *   Initiates the advertisement procedure.
 655:main.c        **** *   Prints the Device Address.
 656:main.c        **** *
 657:main.c        **** * Parameters:
 658:main.c        **** *   None.
 659:main.c        **** *
 660:main.c        **** * Return:
 661:main.c        **** *   None.
 662:main.c        **** *
 663:main.c        **** *******************************************************************************/
 664:main.c        **** void StartAdvertisement(void)
 665:main.c        **** {
 1982              		.loc 1 665 0
 1983              		.cfi_startproc
 1984              		@ args = 0, pretend = 0, frame = 16
 1985              		@ frame_needed = 1, uses_anonymous_args = 0
 1986 0000 80B5     		push	{r7, lr}
 1987              		.cfi_def_cfa_offset 8
 1988              		.cfi_offset 7, -8
ARM GAS  C:\Users\cypress\AppData\Local\Temp\ccsVnWxK.s 			page 53


 1989              		.cfi_offset 14, -4
 1990 0002 84B0     		sub	sp, sp, #16
 1991              		.cfi_def_cfa_offset 24
 1992 0004 00AF     		add	r7, sp, #0
 1993              		.cfi_def_cfa_register 7
 666:main.c        ****     uint16 i;
 667:main.c        ****     CYBLE_GAP_BD_ADDR_T localAddr;
 668:main.c        ****     apiResult = CyBle_GappStartAdvertisement(CYBLE_ADVERTISING_FAST);
 1994              		.loc 1 668 0
 1995 0006 0020     		movs	r0, #0
 1996 0008 FFF7FEFF 		bl	CyBle_GappStartAdvertisement
 1997 000c 0300     		movs	r3, r0
 1998 000e 1A00     		movs	r2, r3
 1999 0010 1C4B     		ldr	r3, .L127
 2000 0012 1A80     		strh	r2, [r3]
 669:main.c        ****     if(apiResult != CYBLE_ERROR_OK)
 2001              		.loc 1 669 0
 2002 0014 1B4B     		ldr	r3, .L127
 2003 0016 1B88     		ldrh	r3, [r3]
 2004 0018 002B     		cmp	r3, #0
 2005 001a 06D0     		beq	.L122
 670:main.c        ****     {
 671:main.c        ****         DBG_PRINTF("StartAdvertisement API Error: ");
 2006              		.loc 1 671 0
 2007 001c 1A4B     		ldr	r3, .L127+4
 2008 001e 1800     		movs	r0, r3
 2009 0020 FFF7FEFF 		bl	printf
 672:main.c        ****         PrintApiResult();
 2010              		.loc 1 672 0
 2011 0024 FFF7FEFF 		bl	PrintApiResult
 673:main.c        ****     }
 674:main.c        ****     else
 675:main.c        ****     {
 676:main.c        ****         DBG_PRINTF("Start Advertisement with addr: ");
 677:main.c        ****         CyBle_GetDeviceAddress(&localAddr);
 678:main.c        ****         for(i = CYBLE_GAP_BD_ADDR_SIZE; i > 0u; i--)
 679:main.c        ****         {
 680:main.c        ****             DBG_PRINTF("%2.2x", localAddr.bdAddr[i-1]);
 681:main.c        ****         }
 682:main.c        ****         DBG_PRINTF("\r\n");
 683:main.c        ****     }
 684:main.c        **** }
 2012              		.loc 1 684 0
 2013 0028 28E0     		b	.L126
 2014              	.L122:
 676:main.c        ****         CyBle_GetDeviceAddress(&localAddr);
 2015              		.loc 1 676 0
 2016 002a 184B     		ldr	r3, .L127+8
 2017 002c 1800     		movs	r0, r3
 2018 002e FFF7FEFF 		bl	printf
 677:main.c        ****         for(i = CYBLE_GAP_BD_ADDR_SIZE; i > 0u; i--)
 2019              		.loc 1 677 0
 2020 0032 3B1D     		adds	r3, r7, #4
 2021 0034 1800     		movs	r0, r3
 2022 0036 FFF7FEFF 		bl	CyBle_GetDeviceAddress
 678:main.c        ****         {
 2023              		.loc 1 678 0
ARM GAS  C:\Users\cypress\AppData\Local\Temp\ccsVnWxK.s 			page 54


 2024 003a 0E23     		movs	r3, #14
 2025 003c FB18     		adds	r3, r7, r3
 2026 003e 0622     		movs	r2, #6
 2027 0040 1A80     		strh	r2, [r3]
 2028 0042 12E0     		b	.L124
 2029              	.L125:
 680:main.c        ****         }
 2030              		.loc 1 680 0 discriminator 3
 2031 0044 0E23     		movs	r3, #14
 2032 0046 FB18     		adds	r3, r7, r3
 2033 0048 1B88     		ldrh	r3, [r3]
 2034 004a 013B     		subs	r3, r3, #1
 2035 004c 3A1D     		adds	r2, r7, #4
 2036 004e D35C     		ldrb	r3, [r2, r3]
 2037 0050 1A00     		movs	r2, r3
 2038 0052 0F4B     		ldr	r3, .L127+12
 2039 0054 1100     		movs	r1, r2
 2040 0056 1800     		movs	r0, r3
 2041 0058 FFF7FEFF 		bl	printf
 678:main.c        ****         {
 2042              		.loc 1 678 0 discriminator 3
 2043 005c 0E23     		movs	r3, #14
 2044 005e FB18     		adds	r3, r7, r3
 2045 0060 1A88     		ldrh	r2, [r3]
 2046 0062 0E23     		movs	r3, #14
 2047 0064 FB18     		adds	r3, r7, r3
 2048 0066 013A     		subs	r2, r2, #1
 2049 0068 1A80     		strh	r2, [r3]
 2050              	.L124:
 678:main.c        ****         {
 2051              		.loc 1 678 0 is_stmt 0 discriminator 1
 2052 006a 0E23     		movs	r3, #14
 2053 006c FB18     		adds	r3, r7, r3
 2054 006e 1B88     		ldrh	r3, [r3]
 2055 0070 002B     		cmp	r3, #0
 2056 0072 E7D1     		bne	.L125
 682:main.c        ****     }
 2057              		.loc 1 682 0 is_stmt 1
 2058 0074 074B     		ldr	r3, .L127+16
 2059 0076 1800     		movs	r0, r3
 2060 0078 FFF7FEFF 		bl	puts
 2061              	.L126:
 2062              		.loc 1 684 0
 2063 007c C046     		nop
 2064 007e BD46     		mov	sp, r7
 2065 0080 04B0     		add	sp, sp, #16
 2066              		@ sp needed
 2067 0082 80BD     		pop	{r7, pc}
 2068              	.L128:
 2069              		.align	2
 2070              	.L127:
 2071 0084 00000000 		.word	apiResult
 2072 0088 080D0000 		.word	.LC157
 2073 008c 280D0000 		.word	.LC159
 2074 0090 480D0000 		.word	.LC161
 2075 0094 B4050000 		.word	.LC96
 2076              		.cfi_endproc
ARM GAS  C:\Users\cypress\AppData\Local\Temp\ccsVnWxK.s 			page 55


 2077              	.LFE41:
 2078              		.size	StartAdvertisement, .-StartAdvertisement
 2079              		.data
 2080              		.type	led.8526, %object
 2081              		.size	led.8526, 1
 2082              	led.8526:
 2083 0000 01       		.byte	1
 2084              		.text
 2085              	.Letext0:
 2086              		.file 2 "Generated_Source\\PSoC4/cytypes.h"
 2087              		.file 3 "Generated_Source\\PSoC4/BLE_Stack.h"
 2088              		.file 4 "Generated_Source\\PSoC4/BLE_StackGap.h"
 2089              		.file 5 "Generated_Source\\PSoC4/BLE_StackGatt.h"
 2090              		.file 6 "Generated_Source\\PSoC4/BLE_StackGattServer.h"
 2091              		.file 7 "Generated_Source\\PSoC4/BLE_bms.h"
 2092              		.file 8 "Generated_Source\\PSoC4/BLE_cgms.h"
 2093              		.file 9 "Generated_Source\\PSoC4/BLE_dis.h"
 2094              		.file 10 "Generated_Source\\PSoC4/BLE_eventHandler.h"
 2095              		.file 11 "main.h"
 2096              		.file 12 "Generated_Source\\PSoC4/BLE.h"