ARM GAS  C:\Users\Agentos\AppData\Local\Temp\ccEAbd3r.s 			page 1


   1              		.syntax unified
   2              		.cpu cortex-m0plus
   3              		.fpu softvfp
   4              		.eabi_attribute 20, 1
   5              		.eabi_attribute 21, 1
   6              		.eabi_attribute 23, 3
   7              		.eabi_attribute 24, 1
   8              		.eabi_attribute 25, 1
   9              		.eabi_attribute 26, 1
  10              		.eabi_attribute 30, 1
  11              		.eabi_attribute 34, 0
  12              		.eabi_attribute 18, 4
  13              		.thumb
  14              		.syntax unified
  15              		.file	"cy_ble_clk.c"
  16              		.text
  17              	.Ltext0:
  18              		.cfi_sections	.debug_frame
  19              		.section	.text.Cy_BLE_HAL_RcbRegRead,"ax",%progbits
  20              		.align	2
  21              		.code	16
  22              		.thumb_func
  23              		.type	Cy_BLE_HAL_RcbRegRead, %function
  24              	Cy_BLE_HAL_RcbRegRead:
  25              	.LFB180:
  26              		.file 1 "Generated_Source\\PSoC6\\pdl\\middleware\\ble\\cy_ble_clk.c"
   1:Generated_Source\PSoC6\pdl\middleware\ble/cy_ble_clk.c **** /***************************************************************************//**
   2:Generated_Source\PSoC6\pdl\middleware\ble/cy_ble_clk.c **** * \file cy_ble_clk.c
   3:Generated_Source\PSoC6\pdl\middleware\ble/cy_ble_clk.c **** * \version 2.30
   4:Generated_Source\PSoC6\pdl\middleware\ble/cy_ble_clk.c **** *
   5:Generated_Source\PSoC6\pdl\middleware\ble/cy_ble_clk.c **** * \brief
   6:Generated_Source\PSoC6\pdl\middleware\ble/cy_ble_clk.c **** *  Contains the source code for the BLE ECO clock.
   7:Generated_Source\PSoC6\pdl\middleware\ble/cy_ble_clk.c **** *
   8:Generated_Source\PSoC6\pdl\middleware\ble/cy_ble_clk.c **** ********************************************************************************
   9:Generated_Source\PSoC6\pdl\middleware\ble/cy_ble_clk.c **** * \copyright
  10:Generated_Source\PSoC6\pdl\middleware\ble/cy_ble_clk.c **** * Copyright 2017-2018, Cypress Semiconductor Corporation.  All rights reserved.
  11:Generated_Source\PSoC6\pdl\middleware\ble/cy_ble_clk.c **** * You may use this file only in accordance with the license, terms, conditions,
  12:Generated_Source\PSoC6\pdl\middleware\ble/cy_ble_clk.c **** * disclaimers, and limitations in the end user license agreement accompanying
  13:Generated_Source\PSoC6\pdl\middleware\ble/cy_ble_clk.c **** * the software package with which this file was provided.
  14:Generated_Source\PSoC6\pdl\middleware\ble/cy_ble_clk.c **** *******************************************************************************/
  15:Generated_Source\PSoC6\pdl\middleware\ble/cy_ble_clk.c **** 
  16:Generated_Source\PSoC6\pdl\middleware\ble/cy_ble_clk.c **** #include "cy_ble_clk.h"
  17:Generated_Source\PSoC6\pdl\middleware\ble/cy_ble_clk.c **** #include "sysclk/cy_sysclk.h"
  18:Generated_Source\PSoC6\pdl\middleware\ble/cy_ble_clk.c **** #include "syspm/cy_syspm.h"
  19:Generated_Source\PSoC6\pdl\middleware\ble/cy_ble_clk.c **** #include "gpio/cy_gpio.h"
  20:Generated_Source\PSoC6\pdl\middleware\ble/cy_ble_clk.c **** 
  21:Generated_Source\PSoC6\pdl\middleware\ble/cy_ble_clk.c **** 
  22:Generated_Source\PSoC6\pdl\middleware\ble/cy_ble_clk.c **** /* C binding of definitions if building with C++ compiler */
  23:Generated_Source\PSoC6\pdl\middleware\ble/cy_ble_clk.c **** #ifdef __cplusplus
  24:Generated_Source\PSoC6\pdl\middleware\ble/cy_ble_clk.c **** extern "C" {
  25:Generated_Source\PSoC6\pdl\middleware\ble/cy_ble_clk.c **** #endif /* __cplusplus */
  26:Generated_Source\PSoC6\pdl\middleware\ble/cy_ble_clk.c **** 
  27:Generated_Source\PSoC6\pdl\middleware\ble/cy_ble_clk.c **** 
  28:Generated_Source\PSoC6\pdl\middleware\ble/cy_ble_clk.c **** /*******************************************************************************
  29:Generated_Source\PSoC6\pdl\middleware\ble/cy_ble_clk.c **** *       Internal functions
  30:Generated_Source\PSoC6\pdl\middleware\ble/cy_ble_clk.c **** *******************************************************************************/
  31:Generated_Source\PSoC6\pdl\middleware\ble/cy_ble_clk.c **** static cy_en_ble_eco_status_t Cy_BLE_HAL_RcbRegRead(uint16_t addr, uint16_t *data);
ARM GAS  C:\Users\Agentos\AppData\Local\Temp\ccEAbd3r.s 			page 2


  32:Generated_Source\PSoC6\pdl\middleware\ble/cy_ble_clk.c **** static cy_en_ble_eco_status_t Cy_BLE_HAL_RcbRegWrite(uint16_t addr, uint16_t data);
  33:Generated_Source\PSoC6\pdl\middleware\ble/cy_ble_clk.c **** static cy_en_ble_eco_status_t Cy_BLE_HAL_EcoSetTrim(uint8_t trim, uint8_t startUpTime);
  34:Generated_Source\PSoC6\pdl\middleware\ble/cy_ble_clk.c **** static cy_en_ble_eco_status_t Cy_BLE_HAL_MxdRadioEnableClocks(const cy_stc_ble_bless_eco_cfg_params
  35:Generated_Source\PSoC6\pdl\middleware\ble/cy_ble_clk.c **** 
  36:Generated_Source\PSoC6\pdl\middleware\ble/cy_ble_clk.c **** 
  37:Generated_Source\PSoC6\pdl\middleware\ble/cy_ble_clk.c **** /*******************************************************************************
  38:Generated_Source\PSoC6\pdl\middleware\ble/cy_ble_clk.c **** *       Internal Defines
  39:Generated_Source\PSoC6\pdl\middleware\ble/cy_ble_clk.c **** *******************************************************************************/
  40:Generated_Source\PSoC6\pdl\middleware\ble/cy_ble_clk.c **** /** \cond INTERNAL */
  41:Generated_Source\PSoC6\pdl\middleware\ble/cy_ble_clk.c **** #define CY_BLE_PORT2_CFG_VAL                                 (0x66666666u)
  42:Generated_Source\PSoC6\pdl\middleware\ble/cy_ble_clk.c **** #define CY_BLE_PORT3_CFG_VAL                                 (0x66EEE666u)
  43:Generated_Source\PSoC6\pdl\middleware\ble/cy_ble_clk.c **** #define CY_BLE_PORT4_CFG_VAL                                 (0x6666E666u)
  44:Generated_Source\PSoC6\pdl\middleware\ble/cy_ble_clk.c **** 
  45:Generated_Source\PSoC6\pdl\middleware\ble/cy_ble_clk.c **** #define CY_BLE_PORT_CFG_OUT_VAL                              (0xFFFF0000u)
  46:Generated_Source\PSoC6\pdl\middleware\ble/cy_ble_clk.c **** 
  47:Generated_Source\PSoC6\pdl\middleware\ble/cy_ble_clk.c **** #define CY_BLE_PORT2_HSIOM_SEL0                              (0x1C1C1C1Cu)
  48:Generated_Source\PSoC6\pdl\middleware\ble/cy_ble_clk.c **** #define CY_BLE_PORT2_HSIOM_SEL1                              (0x1C1C1C1Cu)
  49:Generated_Source\PSoC6\pdl\middleware\ble/cy_ble_clk.c **** #define CY_BLE_PORT3_HSIOM_SEL0                              (0x1A1A1A1Cu)
  50:Generated_Source\PSoC6\pdl\middleware\ble/cy_ble_clk.c **** #define CY_BLE_PORT3_HSIOM_SEL1                              (0x00001A1Au)
  51:Generated_Source\PSoC6\pdl\middleware\ble/cy_ble_clk.c **** #define CY_BLE_PORT4_HSIOM_SEL0                              (0x1C001A1Au)
  52:Generated_Source\PSoC6\pdl\middleware\ble/cy_ble_clk.c **** #define CY_BLE_PORT4_HSIOM_SEL1                              (0x00000000u)
  53:Generated_Source\PSoC6\pdl\middleware\ble/cy_ble_clk.c **** 
  54:Generated_Source\PSoC6\pdl\middleware\ble/cy_ble_clk.c **** #define CY_BLE_GPIO_PRT2                                     (&((GPIO_Type*)(cy_device->gpioBase))-
  55:Generated_Source\PSoC6\pdl\middleware\ble/cy_ble_clk.c **** #define CY_BLE_GPIO_PRT3                                     (&((GPIO_Type*)(cy_device->gpioBase))-
  56:Generated_Source\PSoC6\pdl\middleware\ble/cy_ble_clk.c **** #define CY_BLE_GPIO_PRT4                                     (&((GPIO_Type*)(cy_device->gpioBase))-
  57:Generated_Source\PSoC6\pdl\middleware\ble/cy_ble_clk.c **** #define CY_BLE_GPIO_VDD_ACTIVE                               (((GPIO_Type*)(cy_device->gpioBase))->
  58:Generated_Source\PSoC6\pdl\middleware\ble/cy_ble_clk.c **** 
  59:Generated_Source\PSoC6\pdl\middleware\ble/cy_ble_clk.c **** #define CY_BLE_DEFAULT_OSC_STARTUP_DELAY_LF                  (25u)
  60:Generated_Source\PSoC6\pdl\middleware\ble/cy_ble_clk.c **** #define CY_BLE_DEFAULT_CAP_TRIM_VALUE                        (32u)
  61:Generated_Source\PSoC6\pdl\middleware\ble/cy_ble_clk.c **** #define CY_BLE_DEFAULT_ECO_FREQ                              (CY_BLE_BLESS_ECO_FREQ_32MHZ)
  62:Generated_Source\PSoC6\pdl\middleware\ble/cy_ble_clk.c **** #define CY_BLE_DEFAULT_ECO_DIV                               (CY_BLE_SYS_ECO_CLK_DIV_4)
  63:Generated_Source\PSoC6\pdl\middleware\ble/cy_ble_clk.c **** 
  64:Generated_Source\PSoC6\pdl\middleware\ble/cy_ble_clk.c **** #define CY_BLE_DEFAULT_HVLDO_STARTUP_DELAY                   (6UL)
  65:Generated_Source\PSoC6\pdl\middleware\ble/cy_ble_clk.c **** #define CY_BLE_DEFAULT_ISOLATE_DEASSERT_DELAY                (0UL)
  66:Generated_Source\PSoC6\pdl\middleware\ble/cy_ble_clk.c **** #define CY_BLE_DEFAULT_ACT_TO_SWITCH_DELAY                   (0UL)
  67:Generated_Source\PSoC6\pdl\middleware\ble/cy_ble_clk.c **** #define CY_BLE_DEFAULT_HVLDO_DISABLE_DELAY                   (1UL)
  68:Generated_Source\PSoC6\pdl\middleware\ble/cy_ble_clk.c **** #define CY_BLE_DEFAULT_ACT_STARTUP_DELAY                     (10UL)
  69:Generated_Source\PSoC6\pdl\middleware\ble/cy_ble_clk.c **** #define CY_BLE_DEFAULT_DIG_LDO_STARTUP_DELAY                 (0UL)
  70:Generated_Source\PSoC6\pdl\middleware\ble/cy_ble_clk.c **** #define CY_BLE_DEFAULT_XTAL_DISABLE_DELAY                    (1UL)
  71:Generated_Source\PSoC6\pdl\middleware\ble/cy_ble_clk.c **** #define CY_BLE_DEFAULT_DIG_LDO_DISABLE_DELAY                 (0UL)
  72:Generated_Source\PSoC6\pdl\middleware\ble/cy_ble_clk.c **** #define CY_BLE_DEFAULT_VDDR_STABLE_DELAY                     (1UL)
  73:Generated_Source\PSoC6\pdl\middleware\ble/cy_ble_clk.c **** #define CY_BLE_DEFAULT_RCB_CTRL_LEAD                         (0x2UL)
  74:Generated_Source\PSoC6\pdl\middleware\ble/cy_ble_clk.c **** #define CY_BLE_DEFAULT_RCB_CTRL_LAG                          (0x2UL)
  75:Generated_Source\PSoC6\pdl\middleware\ble/cy_ble_clk.c **** #define CY_BLE_DEFAULT_RCB_CTRL_DIV                          (0x1UL)     /* LL 8 MHz / 2 */
  76:Generated_Source\PSoC6\pdl\middleware\ble/cy_ble_clk.c **** #define CY_BLE_DEFAULT_RCB_CTRL_FREQ                         (4000000UL) /* Default RCB clock is 4 
  77:Generated_Source\PSoC6\pdl\middleware\ble/cy_ble_clk.c **** #define CY_BLE_DEFAULT_ECO_CLK_FREQ_32MHZ                    (32000000UL)
  78:Generated_Source\PSoC6\pdl\middleware\ble/cy_ble_clk.c **** #define CY_BLE_DEFAULT_ECO_CLK_FREQ_16MHZ                    (16000000UL)
  79:Generated_Source\PSoC6\pdl\middleware\ble/cy_ble_clk.c **** #define CY_BLE_MXD_RADIO_CLK_BUF_EN_VAL                      (CY_BLE_PMU_MODE_TRANSITION_REG_CLK_AN
  80:Generated_Source\PSoC6\pdl\middleware\ble/cy_ble_clk.c ****                                                                CY_BLE_PMU_MODE_TRANSITION_REG_RST_A
  81:Generated_Source\PSoC6\pdl\middleware\ble/cy_ble_clk.c **** #define CY_BLE_MXD_RADIO_DIG_CLK_OUT_EN_VAL                  (CY_BLE_PMU_PMU_CTRL_REG_CLK_CMOS_SEL_
  82:Generated_Source\PSoC6\pdl\middleware\ble/cy_ble_clk.c **** 
  83:Generated_Source\PSoC6\pdl\middleware\ble/cy_ble_clk.c **** /* Radio registers */
  84:Generated_Source\PSoC6\pdl\middleware\ble/cy_ble_clk.c **** #define CY_BLE_RCB_FIFO_WR_BIT_MASK                          (0x8000UL)
  85:Generated_Source\PSoC6\pdl\middleware\ble/cy_ble_clk.c **** #define CY_BLE_RCB_FIFO_WR_BIT_SHIFT                         (16U)
  86:Generated_Source\PSoC6\pdl\middleware\ble/cy_ble_clk.c **** 
  87:Generated_Source\PSoC6\pdl\middleware\ble/cy_ble_clk.c **** #define CY_BLE_PMU_MODE_TRANSITION_REG                       (0x1e02U)
  88:Generated_Source\PSoC6\pdl\middleware\ble/cy_ble_clk.c **** #define CY_BLE_PMU_MODE_TRANSITION_REG_CLK_ANA_DIG_EN_BIT    (uint16_t)(1UL << 12U)
ARM GAS  C:\Users\Agentos\AppData\Local\Temp\ccEAbd3r.s 			page 3


  89:Generated_Source\PSoC6\pdl\middleware\ble/cy_ble_clk.c **** #define CY_BLE_PMU_MODE_TRANSITION_REG_RST_ACT_N_BIT         (uint16_t)(1UL << 11U)
  90:Generated_Source\PSoC6\pdl\middleware\ble/cy_ble_clk.c **** 
  91:Generated_Source\PSoC6\pdl\middleware\ble/cy_ble_clk.c **** #define CY_BLE_PMU_PMU_CTRL_REG                              (0x1e03u)
  92:Generated_Source\PSoC6\pdl\middleware\ble/cy_ble_clk.c **** #define CY_BLE_PMU_PMU_CTRL_REG_CLK_CMOS_SEL_BIT             (uint16_t)(1UL << 10U)
  93:Generated_Source\PSoC6\pdl\middleware\ble/cy_ble_clk.c **** 
  94:Generated_Source\PSoC6\pdl\middleware\ble/cy_ble_clk.c **** #define CY_BLE_RF_DCXO_CFG_REG                               (0x1e08U)
  95:Generated_Source\PSoC6\pdl\middleware\ble/cy_ble_clk.c **** #define CY_BLE_RF_DCXO_CFG_REG_DCXO_CAP_SHIFT                (1U)
  96:Generated_Source\PSoC6\pdl\middleware\ble/cy_ble_clk.c **** #define CY_BLE_RF_DCXO_CFG_REG_DCXO_CAP_MASK                 (0xffUL)
  97:Generated_Source\PSoC6\pdl\middleware\ble/cy_ble_clk.c **** #define CY_BLE_RF_DCXO_CFG_REG_VALUE                         (0x1001U)
  98:Generated_Source\PSoC6\pdl\middleware\ble/cy_ble_clk.c **** 
  99:Generated_Source\PSoC6\pdl\middleware\ble/cy_ble_clk.c **** #define CY_BLE_RF_DCXO_CFG2_REG                              (0x1e0fU)
 100:Generated_Source\PSoC6\pdl\middleware\ble/cy_ble_clk.c **** #define CY_BLE_RF_DCXO_CFG2_REG_VALUE                        (0x6837U)
 101:Generated_Source\PSoC6\pdl\middleware\ble/cy_ble_clk.c **** 
 102:Generated_Source\PSoC6\pdl\middleware\ble/cy_ble_clk.c **** #define CY_BLE_RF_DCXO_BUF_CFG_REG                           (0x1e09U)
 103:Generated_Source\PSoC6\pdl\middleware\ble/cy_ble_clk.c **** #define CY_BLE_RF_DCXO_BUF_CFG_REG_XTAL_32M_SEL_BIT          (uint16_t)(1UL << 6U)
 104:Generated_Source\PSoC6\pdl\middleware\ble/cy_ble_clk.c **** #define CY_BLE_RF_DCXO_BUF_CFG_REG_BUF_AMP_SEL_SHIFT         (4U)
 105:Generated_Source\PSoC6\pdl\middleware\ble/cy_ble_clk.c **** #define CY_BLE_RF_DCXO_BUF_CFG_REG_BUF_AMP_SEL_MASK          (0x03UL)
 106:Generated_Source\PSoC6\pdl\middleware\ble/cy_ble_clk.c **** #define CY_BLE_RF_DCXO_BUF_CFG_REG_CLK_DIV_SHIFT             (0U)
 107:Generated_Source\PSoC6\pdl\middleware\ble/cy_ble_clk.c **** #define CY_BLE_RF_DCXO_BUF_CFG_REG_CLK_DIV_MASK              (0x0fUL)
 108:Generated_Source\PSoC6\pdl\middleware\ble/cy_ble_clk.c **** 
 109:Generated_Source\PSoC6\pdl\middleware\ble/cy_ble_clk.c **** #define CY_BLE_RF_LDO_CFG_REG                                (0x1e07u)
 110:Generated_Source\PSoC6\pdl\middleware\ble/cy_ble_clk.c **** #define CY_BLE_RF_LDO_CFG_REG_LDO10_CFG_SHIFT                (11U)
 111:Generated_Source\PSoC6\pdl\middleware\ble/cy_ble_clk.c **** #define CY_BLE_RF_LDO_CFG_REG_LDO10_CFG_MASK                 (0x03UL)
 112:Generated_Source\PSoC6\pdl\middleware\ble/cy_ble_clk.c **** #define CY_BLE_RF_LDO_CFG_REG_LDO_ACT_CFG_SHIFT              (7U)
 113:Generated_Source\PSoC6\pdl\middleware\ble/cy_ble_clk.c **** #define CY_BLE_RF_LDO_CFG_REG_LDO_ACT_CFG_MASK               (0x15UL)
 114:Generated_Source\PSoC6\pdl\middleware\ble/cy_ble_clk.c **** #define CY_BLE_RF_LDO_CFG_REG_LDO_IF_CFG_SHIFT               (5U)
 115:Generated_Source\PSoC6\pdl\middleware\ble/cy_ble_clk.c **** #define CY_BLE_RF_LDO_CFG_REG_LDO_IF_CFG_MASK                (0x03UL)
 116:Generated_Source\PSoC6\pdl\middleware\ble/cy_ble_clk.c **** 
 117:Generated_Source\PSoC6\pdl\middleware\ble/cy_ble_clk.c **** #define CY_BLE_RF_LDO_EN_REG                                 (0x1e06U)
 118:Generated_Source\PSoC6\pdl\middleware\ble/cy_ble_clk.c **** #define CY_BLE_RF_LDO_EN_REG_LDO_RF_CFG_SHIFT                (6U)
 119:Generated_Source\PSoC6\pdl\middleware\ble/cy_ble_clk.c **** #define CY_BLE_RF_LDO_EN_REG_LDO_RF_CFG_MASK                 (0x03UL)
 120:Generated_Source\PSoC6\pdl\middleware\ble/cy_ble_clk.c **** 
 121:Generated_Source\PSoC6\pdl\middleware\ble/cy_ble_clk.c **** #define CY_BLE_DELAY_TIME                                    (1U)                          /* in us
 122:Generated_Source\PSoC6\pdl\middleware\ble/cy_ble_clk.c **** #define CY_BLE_RCB_TIMEOUT                                   (1000U / CY_BLE_DELAY_TIME)   /* 1ms  
 123:Generated_Source\PSoC6\pdl\middleware\ble/cy_ble_clk.c **** #define CY_BLE_VIO_TIMEOUT                                   (2000U / CY_BLE_DELAY_TIME)   /* 2ms  
 124:Generated_Source\PSoC6\pdl\middleware\ble/cy_ble_clk.c **** #define CY_BLE_ACT_TIMEOUT                                   (950000U / CY_BLE_DELAY_TIME) /* 950ms
 125:Generated_Source\PSoC6\pdl\middleware\ble/cy_ble_clk.c **** #define CY_BLE_RCB_RETRIES                                   (10U)
 126:Generated_Source\PSoC6\pdl\middleware\ble/cy_ble_clk.c **** 
 127:Generated_Source\PSoC6\pdl\middleware\ble/cy_ble_clk.c **** #define CY_BLE_ECO_SET_TRIM_DELAY_COEF                       (32U)
 128:Generated_Source\PSoC6\pdl\middleware\ble/cy_ble_clk.c **** #define CY_BLE_ECO_LDO_ENABLE_DELAY                          (64U)
 129:Generated_Source\PSoC6\pdl\middleware\ble/cy_ble_clk.c **** /** \endcond */
 130:Generated_Source\PSoC6\pdl\middleware\ble/cy_ble_clk.c **** 
 131:Generated_Source\PSoC6\pdl\middleware\ble/cy_ble_clk.c **** 
 132:Generated_Source\PSoC6\pdl\middleware\ble/cy_ble_clk.c **** /*******************************************************************************
 133:Generated_Source\PSoC6\pdl\middleware\ble/cy_ble_clk.c **** * Function Name: Cy_BLE_EcoStart
 134:Generated_Source\PSoC6\pdl\middleware\ble/cy_ble_clk.c **** ****************************************************************************//**
 135:Generated_Source\PSoC6\pdl\middleware\ble/cy_ble_clk.c **** *
 136:Generated_Source\PSoC6\pdl\middleware\ble/cy_ble_clk.c **** *  Configures and starts BLE ECO clock.
 137:Generated_Source\PSoC6\pdl\middleware\ble/cy_ble_clk.c **** *
 138:Generated_Source\PSoC6\pdl\middleware\ble/cy_ble_clk.c **** *  If Cy_BLE_Start()/Cy_BLE_Enable() APIs are called by the application, 
 139:Generated_Source\PSoC6\pdl\middleware\ble/cy_ble_clk.c **** *  the stack enables the BLE ECO clock automatically with the following default
 140:Generated_Source\PSoC6\pdl\middleware\ble/cy_ble_clk.c **** *  parameters:
 141:Generated_Source\PSoC6\pdl\middleware\ble/cy_ble_clk.c **** *
 142:Generated_Source\PSoC6\pdl\middleware\ble/cy_ble_clk.c **** *    Parameter                 |  Value
 143:Generated_Source\PSoC6\pdl\middleware\ble/cy_ble_clk.c **** *  --------------------        | -----------
 144:Generated_Source\PSoC6\pdl\middleware\ble/cy_ble_clk.c **** *    ECO Frequency             | CY_BLE_DEFAULT_ECO_FREQ
 145:Generated_Source\PSoC6\pdl\middleware\ble/cy_ble_clk.c **** *    Divider                   | CY_BLE_DEFAULT_ECO_DIV
ARM GAS  C:\Users\Agentos\AppData\Local\Temp\ccEAbd3r.s 			page 4


 146:Generated_Source\PSoC6\pdl\middleware\ble/cy_ble_clk.c **** *    Startup time              | CY_BLE_DEFAULT_OSC_STARTUP_DELAY_LF
 147:Generated_Source\PSoC6\pdl\middleware\ble/cy_ble_clk.c **** *    Load cap                  | CY_BLE_DEFAULT_CAP_TRIM_VALUE
 148:Generated_Source\PSoC6\pdl\middleware\ble/cy_ble_clk.c **** *
 149:Generated_Source\PSoC6\pdl\middleware\ble/cy_ble_clk.c **** *  If there is a need to start the BLE ECO with non-default parameters, call the  
 150:Generated_Source\PSoC6\pdl\middleware\ble/cy_ble_clk.c **** *  Cy_BLE_EcoConfigure() function with the custom configuration each time before calling
 151:Generated_Source\PSoC6\pdl\middleware\ble/cy_ble_clk.c **** *  the Cy_BLE_Enable() function.
 152:Generated_Source\PSoC6\pdl\middleware\ble/cy_ble_clk.c **** *
 153:Generated_Source\PSoC6\pdl\middleware\ble/cy_ble_clk.c **** *  This clock is stopped in Deep Sleep and Hibernate power modes.
 154:Generated_Source\PSoC6\pdl\middleware\ble/cy_ble_clk.c **** *                         
 155:Generated_Source\PSoC6\pdl\middleware\ble/cy_ble_clk.c **** *  \return
 156:Generated_Source\PSoC6\pdl\middleware\ble/cy_ble_clk.c **** *  \ref cy_en_ble_eco_status_t : The return value indicates if the function 
 157:Generated_Source\PSoC6\pdl\middleware\ble/cy_ble_clk.c **** *  succeeded or failed. The possible error codes:
 158:Generated_Source\PSoC6\pdl\middleware\ble/cy_ble_clk.c **** *
 159:Generated_Source\PSoC6\pdl\middleware\ble/cy_ble_clk.c **** *  \param ecoConfig: Clock configuration of type 'cy_stc_ble_bless_eco_cfg_params_t'.
 160:Generated_Source\PSoC6\pdl\middleware\ble/cy_ble_clk.c **** *
 161:Generated_Source\PSoC6\pdl\middleware\ble/cy_ble_clk.c **** *  \return
 162:Generated_Source\PSoC6\pdl\middleware\ble/cy_ble_clk.c **** *  \ref cy_en_ble_eco_status_t : The return value indicates if the function 
 163:Generated_Source\PSoC6\pdl\middleware\ble/cy_ble_clk.c **** *  succeeded or failed. The possible error codes:
 164:Generated_Source\PSoC6\pdl\middleware\ble/cy_ble_clk.c **** *
 165:Generated_Source\PSoC6\pdl\middleware\ble/cy_ble_clk.c **** *  Error Codes                 | Description
 166:Generated_Source\PSoC6\pdl\middleware\ble/cy_ble_clk.c **** *  --------------------        | -----------
 167:Generated_Source\PSoC6\pdl\middleware\ble/cy_ble_clk.c **** *  CY_BLE_ECO_SUCCESS          | Function completed successfully.
 168:Generated_Source\PSoC6\pdl\middleware\ble/cy_ble_clk.c **** *  CY_BLE_ECO_BAD_PARAM        | Wrong input parameter.
 169:Generated_Source\PSoC6\pdl\middleware\ble/cy_ble_clk.c **** *  CY_BLE_ECO_RCB_CONTROL_LL   | RCB Control is with BLE Link Layer.
 170:Generated_Source\PSoC6\pdl\middleware\ble/cy_ble_clk.c **** *  CY_BLE_ECO_ALREADY_STARTED  | BLE ECO clock is already started.
 171:Generated_Source\PSoC6\pdl\middleware\ble/cy_ble_clk.c **** *  CY_BLE_ECO_HARDWARE_ERROR   | RCB or BLE ECO operation failed.
 172:Generated_Source\PSoC6\pdl\middleware\ble/cy_ble_clk.c **** *
 173:Generated_Source\PSoC6\pdl\middleware\ble/cy_ble_clk.c **** *  \sideeffect
 174:Generated_Source\PSoC6\pdl\middleware\ble/cy_ble_clk.c **** *   The I/O pins will be automatically unfrozen coming out of hibernate when 
 175:Generated_Source\PSoC6\pdl\middleware\ble/cy_ble_clk.c **** *   the BLE ECO is in use.
 176:Generated_Source\PSoC6\pdl\middleware\ble/cy_ble_clk.c **** *
 177:Generated_Source\PSoC6\pdl\middleware\ble/cy_ble_clk.c **** *  \note Limitation: Do not call this API in case if BLE is executed with LPM.
 178:Generated_Source\PSoC6\pdl\middleware\ble/cy_ble_clk.c **** *   There is a risk that when Cy_BLE_EcoStart() function is called on one core,
 179:Generated_Source\PSoC6\pdl\middleware\ble/cy_ble_clk.c **** *   the BLE is in deep-sleep mode on other. It will cause a fault hard exception.
 180:Generated_Source\PSoC6\pdl\middleware\ble/cy_ble_clk.c **** *
 181:Generated_Source\PSoC6\pdl\middleware\ble/cy_ble_clk.c **** *******************************************************************************/
 182:Generated_Source\PSoC6\pdl\middleware\ble/cy_ble_clk.c **** cy_en_ble_eco_status_t Cy_BLE_EcoStart(const cy_stc_ble_bless_eco_cfg_params_t *ecoConfig)
 183:Generated_Source\PSoC6\pdl\middleware\ble/cy_ble_clk.c **** {
 184:Generated_Source\PSoC6\pdl\middleware\ble/cy_ble_clk.c ****     cy_en_ble_eco_status_t status = CY_BLE_ECO_SUCCESS;
 185:Generated_Source\PSoC6\pdl\middleware\ble/cy_ble_clk.c ****     uint32_t timeout;
 186:Generated_Source\PSoC6\pdl\middleware\ble/cy_ble_clk.c ****     uint32_t temp = 0UL;
 187:Generated_Source\PSoC6\pdl\middleware\ble/cy_ble_clk.c ****     
 188:Generated_Source\PSoC6\pdl\middleware\ble/cy_ble_clk.c ****     if(ecoConfig == NULL)
 189:Generated_Source\PSoC6\pdl\middleware\ble/cy_ble_clk.c ****     {
 190:Generated_Source\PSoC6\pdl\middleware\ble/cy_ble_clk.c ****         status = CY_BLE_ECO_BAD_PARAM;
 191:Generated_Source\PSoC6\pdl\middleware\ble/cy_ble_clk.c ****     }
 192:Generated_Source\PSoC6\pdl\middleware\ble/cy_ble_clk.c ****     else
 193:Generated_Source\PSoC6\pdl\middleware\ble/cy_ble_clk.c ****     {
 194:Generated_Source\PSoC6\pdl\middleware\ble/cy_ble_clk.c ****         timeout = CY_BLE_ACT_TIMEOUT;
 195:Generated_Source\PSoC6\pdl\middleware\ble/cy_ble_clk.c ****           
 196:Generated_Source\PSoC6\pdl\middleware\ble/cy_ble_clk.c ****         /* Unfreeze IO after Hibernate */
 197:Generated_Source\PSoC6\pdl\middleware\ble/cy_ble_clk.c ****         if(Cy_SysPm_GetIoFreezeStatus())
 198:Generated_Source\PSoC6\pdl\middleware\ble/cy_ble_clk.c ****         {
 199:Generated_Source\PSoC6\pdl\middleware\ble/cy_ble_clk.c ****             Cy_SysPm_IoUnfreeze();
 200:Generated_Source\PSoC6\pdl\middleware\ble/cy_ble_clk.c ****         }
 201:Generated_Source\PSoC6\pdl\middleware\ble/cy_ble_clk.c ****         
 202:Generated_Source\PSoC6\pdl\middleware\ble/cy_ble_clk.c ****         /* Cypress Id 307068: wait for controller shut-down */
ARM GAS  C:\Users\Agentos\AppData\Local\Temp\ccEAbd3r.s 			page 5


 203:Generated_Source\PSoC6\pdl\middleware\ble/cy_ble_clk.c ****         while((BLE->BLESS.INTR_MASK != 0U) && (timeout > 0U))
 204:Generated_Source\PSoC6\pdl\middleware\ble/cy_ble_clk.c ****         {
 205:Generated_Source\PSoC6\pdl\middleware\ble/cy_ble_clk.c ****             timeout--;
 206:Generated_Source\PSoC6\pdl\middleware\ble/cy_ble_clk.c ****             Cy_SysLib_DelayUs(CY_BLE_DELAY_TIME);
 207:Generated_Source\PSoC6\pdl\middleware\ble/cy_ble_clk.c ****         }   
 208:Generated_Source\PSoC6\pdl\middleware\ble/cy_ble_clk.c ****         
 209:Generated_Source\PSoC6\pdl\middleware\ble/cy_ble_clk.c ****         if((((BLE->BLESS.MT_CFG & BLE_BLESS_MT_CFG_ENABLE_BLERD_Msk) != 0U) && 
 210:Generated_Source\PSoC6\pdl\middleware\ble/cy_ble_clk.c ****             ((BLE->BLESS.MT_STATUS & BLE_BLESS_MT_STATUS_BLESS_STATE_Msk) != 0U)) || (BLE->BLESS.IN
 211:Generated_Source\PSoC6\pdl\middleware\ble/cy_ble_clk.c ****         {
 212:Generated_Source\PSoC6\pdl\middleware\ble/cy_ble_clk.c ****             status = CY_BLE_ECO_ALREADY_STARTED;
 213:Generated_Source\PSoC6\pdl\middleware\ble/cy_ble_clk.c ****         }
 214:Generated_Source\PSoC6\pdl\middleware\ble/cy_ble_clk.c ****         else
 215:Generated_Source\PSoC6\pdl\middleware\ble/cy_ble_clk.c ****         {
 216:Generated_Source\PSoC6\pdl\middleware\ble/cy_ble_clk.c ****             /* HAL Initialization */
 217:Generated_Source\PSoC6\pdl\middleware\ble/cy_ble_clk.c ****             Cy_BLE_HAL_Init();
 218:Generated_Source\PSoC6\pdl\middleware\ble/cy_ble_clk.c ****     
 219:Generated_Source\PSoC6\pdl\middleware\ble/cy_ble_clk.c ****             /* BLESS MT Delays configuration */
 220:Generated_Source\PSoC6\pdl\middleware\ble/cy_ble_clk.c ****             BLE->BLESS.MT_DELAY_CFG =
 221:Generated_Source\PSoC6\pdl\middleware\ble/cy_ble_clk.c ****                 (uint32_t)(CY_BLE_DEFAULT_HVLDO_STARTUP_DELAY << BLE_BLESS_MT_DELAY_CFG_HVLDO_START
 222:Generated_Source\PSoC6\pdl\middleware\ble/cy_ble_clk.c ****                 (uint32_t)(CY_BLE_DEFAULT_ISOLATE_DEASSERT_DELAY << BLE_BLESS_MT_DELAY_CFG_ISOLATE_
 223:Generated_Source\PSoC6\pdl\middleware\ble/cy_ble_clk.c ****                 (uint32_t)(CY_BLE_DEFAULT_ACT_TO_SWITCH_DELAY << BLE_BLESS_MT_DELAY_CFG_ACT_TO_SWIT
 224:Generated_Source\PSoC6\pdl\middleware\ble/cy_ble_clk.c ****                 (uint32_t)(CY_BLE_DEFAULT_HVLDO_DISABLE_DELAY << BLE_BLESS_MT_DELAY_CFG_HVLDO_DISAB
 225:Generated_Source\PSoC6\pdl\middleware\ble/cy_ble_clk.c **** 
 226:Generated_Source\PSoC6\pdl\middleware\ble/cy_ble_clk.c ****             BLE->BLESS.MT_DELAY_CFG2 =
 227:Generated_Source\PSoC6\pdl\middleware\ble/cy_ble_clk.c ****                 (uint32_t)((uint32_t)ecoConfig->ecoXtalStartUpTime << BLE_BLESS_MT_DELAY_CFG2_OSC_S
 228:Generated_Source\PSoC6\pdl\middleware\ble/cy_ble_clk.c ****                 (uint32_t)(CY_BLE_DEFAULT_ACT_STARTUP_DELAY << BLE_BLESS_MT_DELAY_CFG2_ACT_STARTUP_
 229:Generated_Source\PSoC6\pdl\middleware\ble/cy_ble_clk.c ****                 (uint32_t)(CY_BLE_DEFAULT_DIG_LDO_STARTUP_DELAY << BLE_BLESS_MT_DELAY_CFG2_DIG_LDO_
 230:Generated_Source\PSoC6\pdl\middleware\ble/cy_ble_clk.c **** 
 231:Generated_Source\PSoC6\pdl\middleware\ble/cy_ble_clk.c ****             BLE->BLESS.MT_DELAY_CFG3 =
 232:Generated_Source\PSoC6\pdl\middleware\ble/cy_ble_clk.c ****                 (uint32_t)(CY_BLE_DEFAULT_XTAL_DISABLE_DELAY << BLE_BLESS_MT_DELAY_CFG3_XTAL_DISABL
 233:Generated_Source\PSoC6\pdl\middleware\ble/cy_ble_clk.c ****                 (uint32_t)(CY_BLE_DEFAULT_DIG_LDO_DISABLE_DELAY << BLE_BLESS_MT_DELAY_CFG3_DIG_LDO_
 234:Generated_Source\PSoC6\pdl\middleware\ble/cy_ble_clk.c ****                 (uint32_t)(CY_BLE_DEFAULT_VDDR_STABLE_DELAY << BLE_BLESS_MT_DELAY_CFG3_VDDR_STABLE_
 235:Generated_Source\PSoC6\pdl\middleware\ble/cy_ble_clk.c **** 
 236:Generated_Source\PSoC6\pdl\middleware\ble/cy_ble_clk.c ****             /* RCB Initialization
 237:Generated_Source\PSoC6\pdl\middleware\ble/cy_ble_clk.c ****              * Check if the RCB Control is with LL.
 238:Generated_Source\PSoC6\pdl\middleware\ble/cy_ble_clk.c ****              */
 239:Generated_Source\PSoC6\pdl\middleware\ble/cy_ble_clk.c ****             if((BLE->RCB.RCBLL.CTRL & BLE_RCB_RCBLL_CTRL_RCBLL_CTRL_Msk) != 0U)
 240:Generated_Source\PSoC6\pdl\middleware\ble/cy_ble_clk.c ****             {
 241:Generated_Source\PSoC6\pdl\middleware\ble/cy_ble_clk.c ****                 status = CY_BLE_ECO_RCB_CONTROL_LL;
 242:Generated_Source\PSoC6\pdl\middleware\ble/cy_ble_clk.c ****             }
 243:Generated_Source\PSoC6\pdl\middleware\ble/cy_ble_clk.c ****             else
 244:Generated_Source\PSoC6\pdl\middleware\ble/cy_ble_clk.c ****             {
 245:Generated_Source\PSoC6\pdl\middleware\ble/cy_ble_clk.c ****                 uint32_t rcbDivider = 0UL;
 246:Generated_Source\PSoC6\pdl\middleware\ble/cy_ble_clk.c **** 
 247:Generated_Source\PSoC6\pdl\middleware\ble/cy_ble_clk.c ****                 /* If clock source for RCB is PeriClk */
 248:Generated_Source\PSoC6\pdl\middleware\ble/cy_ble_clk.c ****                 if((BLE_BLESS->LL_CLK_EN & BLE_BLESS_LL_CLK_EN_SEL_RCB_CLK_Msk) == 0U)
 249:Generated_Source\PSoC6\pdl\middleware\ble/cy_ble_clk.c ****                 {
 250:Generated_Source\PSoC6\pdl\middleware\ble/cy_ble_clk.c ****                     if(cy_PeriClkFreqHz > CY_BLE_DEFAULT_RCB_CTRL_FREQ)
 251:Generated_Source\PSoC6\pdl\middleware\ble/cy_ble_clk.c ****                     {
 252:Generated_Source\PSoC6\pdl\middleware\ble/cy_ble_clk.c ****                         rcbDivider = (cy_PeriClkFreqHz / CY_BLE_DEFAULT_RCB_CTRL_FREQ) - 1U;
 253:Generated_Source\PSoC6\pdl\middleware\ble/cy_ble_clk.c ****                     }
 254:Generated_Source\PSoC6\pdl\middleware\ble/cy_ble_clk.c ****                 }
 255:Generated_Source\PSoC6\pdl\middleware\ble/cy_ble_clk.c ****                 else
 256:Generated_Source\PSoC6\pdl\middleware\ble/cy_ble_clk.c ****                 {
 257:Generated_Source\PSoC6\pdl\middleware\ble/cy_ble_clk.c ****                     rcbDivider = CY_BLE_DEFAULT_RCB_CTRL_DIV;
 258:Generated_Source\PSoC6\pdl\middleware\ble/cy_ble_clk.c ****                 }
 259:Generated_Source\PSoC6\pdl\middleware\ble/cy_ble_clk.c **** 
ARM GAS  C:\Users\Agentos\AppData\Local\Temp\ccEAbd3r.s 			page 6


 260:Generated_Source\PSoC6\pdl\middleware\ble/cy_ble_clk.c ****                 /* Configure default RCB Parameters. */
 261:Generated_Source\PSoC6\pdl\middleware\ble/cy_ble_clk.c ****                 BLE->RCB.CTRL |= (BLE_RCB_CTRL_ENABLED_Msk |
 262:Generated_Source\PSoC6\pdl\middleware\ble/cy_ble_clk.c ****                                   BLE_RCB_CTRL_RX_CLK_EDGE_Msk |
 263:Generated_Source\PSoC6\pdl\middleware\ble/cy_ble_clk.c ****                                   (CY_BLE_DEFAULT_RCB_CTRL_LEAD << BLE_RCB_CTRL_LEAD_Pos) |
 264:Generated_Source\PSoC6\pdl\middleware\ble/cy_ble_clk.c ****                                   (CY_BLE_DEFAULT_RCB_CTRL_LAG << BLE_RCB_CTRL_LAG_Pos) |
 265:Generated_Source\PSoC6\pdl\middleware\ble/cy_ble_clk.c ****                                   ((rcbDivider > 0U) ? ((rcbDivider << BLE_RCB_CTRL_DIV_Pos) |
 266:Generated_Source\PSoC6\pdl\middleware\ble/cy_ble_clk.c ****                                                         BLE_RCB_CTRL_DIV_ENABLED_Msk) : 0U));
 267:Generated_Source\PSoC6\pdl\middleware\ble/cy_ble_clk.c **** 
 268:Generated_Source\PSoC6\pdl\middleware\ble/cy_ble_clk.c ****                 /* If user uses SIMO Buck, enable Buck2 in hardware mode for BLE */
 269:Generated_Source\PSoC6\pdl\middleware\ble/cy_ble_clk.c ****                 if(Cy_SysPm_SimoBuckIsEnabled())
 270:Generated_Source\PSoC6\pdl\middleware\ble/cy_ble_clk.c ****                 {
 271:Generated_Source\PSoC6\pdl\middleware\ble/cy_ble_clk.c ****                     Cy_SysPm_SimoBuckSetVoltage2(CY_SYSPM_SIMO_BUCK_OUT2_VOLTAGE_1_3V, true);
 272:Generated_Source\PSoC6\pdl\middleware\ble/cy_ble_clk.c ****                     Cy_SysPm_SimoBuckSetHwControl(true);
 273:Generated_Source\PSoC6\pdl\middleware\ble/cy_ble_clk.c ****                 }
 274:Generated_Source\PSoC6\pdl\middleware\ble/cy_ble_clk.c ****                 else    /* Configure BLE LDO if SIMO Buck2 is not enabled */
 275:Generated_Source\PSoC6\pdl\middleware\ble/cy_ble_clk.c ****                 {
 276:Generated_Source\PSoC6\pdl\middleware\ble/cy_ble_clk.c ****                     BLE->BLESS.MISC_EN_CTRL |= (BLE_BLESS_MISC_EN_CTRL_ACT_REG_EN_CTRL_Msk |
 277:Generated_Source\PSoC6\pdl\middleware\ble/cy_ble_clk.c ****                                                 BLE_BLESS_MISC_EN_CTRL_BUCK_EN_CTRL_Msk);
 278:Generated_Source\PSoC6\pdl\middleware\ble/cy_ble_clk.c ****                 }
 279:Generated_Source\PSoC6\pdl\middleware\ble/cy_ble_clk.c **** 
 280:Generated_Source\PSoC6\pdl\middleware\ble/cy_ble_clk.c ****                 /* Enable the VIO supply and LDO in standby mode for slow ramp */
 281:Generated_Source\PSoC6\pdl\middleware\ble/cy_ble_clk.c ****                 temp = BLE->BLESS.MT_CFG;
 282:Generated_Source\PSoC6\pdl\middleware\ble/cy_ble_clk.c ****                 temp |= BLE_BLESS_MT_CFG_HVLDO_BYPASS_Msk |
 283:Generated_Source\PSoC6\pdl\middleware\ble/cy_ble_clk.c ****                         BLE_BLESS_MT_CFG_OVERRIDE_HVLDO_BYPASS_Msk |
 284:Generated_Source\PSoC6\pdl\middleware\ble/cy_ble_clk.c ****                         BLE_BLESS_MT_CFG_HVLDO_EN_Msk |
 285:Generated_Source\PSoC6\pdl\middleware\ble/cy_ble_clk.c ****                         BLE_BLESS_MT_CFG_OVERRIDE_HVLDO_EN_Msk;
 286:Generated_Source\PSoC6\pdl\middleware\ble/cy_ble_clk.c ****                 BLE->BLESS.MT_CFG = temp;
 287:Generated_Source\PSoC6\pdl\middleware\ble/cy_ble_clk.c ****                 Cy_SysLib_DelayUs(CY_BLE_ECO_LDO_ENABLE_DELAY);
 288:Generated_Source\PSoC6\pdl\middleware\ble/cy_ble_clk.c **** 
 289:Generated_Source\PSoC6\pdl\middleware\ble/cy_ble_clk.c ****                 if((BLE->BLESS.MT_VIO_CTRL & BLE_BLESS_MT_VIO_CTRL_SRSS_SWITCH_EN_Msk) == 0U)
 290:Generated_Source\PSoC6\pdl\middleware\ble/cy_ble_clk.c ****                 {
 291:Generated_Source\PSoC6\pdl\middleware\ble/cy_ble_clk.c ****                     /* Enable LDO */
 292:Generated_Source\PSoC6\pdl\middleware\ble/cy_ble_clk.c ****                     BLE->BLESS.MT_VIO_CTRL = BLE_BLESS_MT_VIO_CTRL_SRSS_SWITCH_EN_Msk;
 293:Generated_Source\PSoC6\pdl\middleware\ble/cy_ble_clk.c **** 
 294:Generated_Source\PSoC6\pdl\middleware\ble/cy_ble_clk.c ****                     /* Wait for 64us after turning HVLDO ON */
 295:Generated_Source\PSoC6\pdl\middleware\ble/cy_ble_clk.c ****                     Cy_SysLib_DelayUs(CY_BLE_ECO_LDO_ENABLE_DELAY);
 296:Generated_Source\PSoC6\pdl\middleware\ble/cy_ble_clk.c **** 
 297:Generated_Source\PSoC6\pdl\middleware\ble/cy_ble_clk.c ****                     /* Enable LDO Delayed */
 298:Generated_Source\PSoC6\pdl\middleware\ble/cy_ble_clk.c ****                     BLE->BLESS.MT_VIO_CTRL = BLE_BLESS_MT_VIO_CTRL_SRSS_SWITCH_EN_Msk |
 299:Generated_Source\PSoC6\pdl\middleware\ble/cy_ble_clk.c ****                                              BLE_BLESS_MT_VIO_CTRL_SRSS_SWITCH_EN_DLY_Msk;
 300:Generated_Source\PSoC6\pdl\middleware\ble/cy_ble_clk.c ****                     /* Wait for 64us */
 301:Generated_Source\PSoC6\pdl\middleware\ble/cy_ble_clk.c ****                     Cy_SysLib_DelayUs(CY_BLE_ECO_LDO_ENABLE_DELAY);
 302:Generated_Source\PSoC6\pdl\middleware\ble/cy_ble_clk.c ****                 }
 303:Generated_Source\PSoC6\pdl\middleware\ble/cy_ble_clk.c **** 
 304:Generated_Source\PSoC6\pdl\middleware\ble/cy_ble_clk.c ****                 /* Disable override mode and let hardware take control of HVLDO */
 305:Generated_Source\PSoC6\pdl\middleware\ble/cy_ble_clk.c ****                 temp &= ~(BLE_BLESS_MT_CFG_OVERRIDE_HVLDO_BYPASS_Msk |
 306:Generated_Source\PSoC6\pdl\middleware\ble/cy_ble_clk.c ****                           BLE_BLESS_MT_CFG_OVERRIDE_HVLDO_EN_Msk);
 307:Generated_Source\PSoC6\pdl\middleware\ble/cy_ble_clk.c ****                 BLE->BLESS.MT_CFG = temp;
 308:Generated_Source\PSoC6\pdl\middleware\ble/cy_ble_clk.c **** 
 309:Generated_Source\PSoC6\pdl\middleware\ble/cy_ble_clk.c ****                 /* Wait for the VIO stable key write operation to complete */
 310:Generated_Source\PSoC6\pdl\middleware\ble/cy_ble_clk.c ****                 {
 311:Generated_Source\PSoC6\pdl\middleware\ble/cy_ble_clk.c ****                     timeout = CY_BLE_VIO_TIMEOUT;
 312:Generated_Source\PSoC6\pdl\middleware\ble/cy_ble_clk.c ****                     while(((GPIO->VDD_ACTIVE & 0x10U) == 0U) && (timeout > 0U))
 313:Generated_Source\PSoC6\pdl\middleware\ble/cy_ble_clk.c ****                     {
 314:Generated_Source\PSoC6\pdl\middleware\ble/cy_ble_clk.c ****                         timeout--;
 315:Generated_Source\PSoC6\pdl\middleware\ble/cy_ble_clk.c ****                         Cy_SysLib_DelayUs(CY_BLE_DELAY_TIME);
 316:Generated_Source\PSoC6\pdl\middleware\ble/cy_ble_clk.c ****                     }
ARM GAS  C:\Users\Agentos\AppData\Local\Temp\ccEAbd3r.s 			page 7


 317:Generated_Source\PSoC6\pdl\middleware\ble/cy_ble_clk.c ****                     if(timeout == 0U)
 318:Generated_Source\PSoC6\pdl\middleware\ble/cy_ble_clk.c ****                     {
 319:Generated_Source\PSoC6\pdl\middleware\ble/cy_ble_clk.c ****                         status = CY_BLE_ECO_HARDWARE_ERROR;
 320:Generated_Source\PSoC6\pdl\middleware\ble/cy_ble_clk.c ****                     }
 321:Generated_Source\PSoC6\pdl\middleware\ble/cy_ble_clk.c ****                 }
 322:Generated_Source\PSoC6\pdl\middleware\ble/cy_ble_clk.c **** 
 323:Generated_Source\PSoC6\pdl\middleware\ble/cy_ble_clk.c **** 
 324:Generated_Source\PSoC6\pdl\middleware\ble/cy_ble_clk.c ****                 if(status == CY_BLE_ECO_SUCCESS)
 325:Generated_Source\PSoC6\pdl\middleware\ble/cy_ble_clk.c ****                 {
 326:Generated_Source\PSoC6\pdl\middleware\ble/cy_ble_clk.c ****                     timeout = CY_BLE_ACT_TIMEOUT;
 327:Generated_Source\PSoC6\pdl\middleware\ble/cy_ble_clk.c **** 
 328:Generated_Source\PSoC6\pdl\middleware\ble/cy_ble_clk.c ****                     /* Clear the BLERD_ACTIVE_INTR */
 329:Generated_Source\PSoC6\pdl\middleware\ble/cy_ble_clk.c ****                     BLE->BLESS.INTR_STAT |= BLE_BLESS_INTR_STAT_BLERD_ACTIVE_INTR_Msk;
 330:Generated_Source\PSoC6\pdl\middleware\ble/cy_ble_clk.c **** 
 331:Generated_Source\PSoC6\pdl\middleware\ble/cy_ble_clk.c ****                     if(!Cy_SysPm_SimoBuckOutputIsEnabled(CY_SYSPM_BUCK_VRF))
 332:Generated_Source\PSoC6\pdl\middleware\ble/cy_ble_clk.c ****                     {
 333:Generated_Source\PSoC6\pdl\middleware\ble/cy_ble_clk.c ****                         temp |= BLE_BLESS_MT_CFG_ACT_LDO_NOT_BUCK_Msk;
 334:Generated_Source\PSoC6\pdl\middleware\ble/cy_ble_clk.c ****                     }
 335:Generated_Source\PSoC6\pdl\middleware\ble/cy_ble_clk.c ****                     /* Enable Radio */
 336:Generated_Source\PSoC6\pdl\middleware\ble/cy_ble_clk.c ****                     temp |= BLE_BLESS_MT_CFG_ENABLE_BLERD_Msk;
 337:Generated_Source\PSoC6\pdl\middleware\ble/cy_ble_clk.c **** 
 338:Generated_Source\PSoC6\pdl\middleware\ble/cy_ble_clk.c ****                     /* Disable ECO in DeepSleep mode */
 339:Generated_Source\PSoC6\pdl\middleware\ble/cy_ble_clk.c ****                     temp &= ~BLE_BLESS_MT_CFG_DPSLP_ECO_ON_Msk;
 340:Generated_Source\PSoC6\pdl\middleware\ble/cy_ble_clk.c ****                     BLE->BLESS.MT_CFG = temp;
 341:Generated_Source\PSoC6\pdl\middleware\ble/cy_ble_clk.c **** 
 342:Generated_Source\PSoC6\pdl\middleware\ble/cy_ble_clk.c ****                     /* Wait for BLESS in ACTIVE state */
 343:Generated_Source\PSoC6\pdl\middleware\ble/cy_ble_clk.c ****                     while(((BLE->BLESS.MT_STATUS & BLE_BLESS_MT_STATUS_BLESS_STATE_Msk) == 0U) && (
 344:Generated_Source\PSoC6\pdl\middleware\ble/cy_ble_clk.c ****                     {
 345:Generated_Source\PSoC6\pdl\middleware\ble/cy_ble_clk.c ****                         timeout--;
 346:Generated_Source\PSoC6\pdl\middleware\ble/cy_ble_clk.c ****                         Cy_SysLib_DelayUs(CY_BLE_DELAY_TIME);
 347:Generated_Source\PSoC6\pdl\middleware\ble/cy_ble_clk.c ****                     }
 348:Generated_Source\PSoC6\pdl\middleware\ble/cy_ble_clk.c ****                     if(timeout == 0U)
 349:Generated_Source\PSoC6\pdl\middleware\ble/cy_ble_clk.c ****                     {
 350:Generated_Source\PSoC6\pdl\middleware\ble/cy_ble_clk.c ****                         status = CY_BLE_ECO_HARDWARE_ERROR;
 351:Generated_Source\PSoC6\pdl\middleware\ble/cy_ble_clk.c ****                     }
 352:Generated_Source\PSoC6\pdl\middleware\ble/cy_ble_clk.c ****                 }
 353:Generated_Source\PSoC6\pdl\middleware\ble/cy_ble_clk.c **** 
 354:Generated_Source\PSoC6\pdl\middleware\ble/cy_ble_clk.c ****                 if(status == CY_BLE_ECO_SUCCESS)
 355:Generated_Source\PSoC6\pdl\middleware\ble/cy_ble_clk.c ****                 {
 356:Generated_Source\PSoC6\pdl\middleware\ble/cy_ble_clk.c ****                     /* Enable and configure radio clock */
 357:Generated_Source\PSoC6\pdl\middleware\ble/cy_ble_clk.c ****                     status = Cy_BLE_HAL_MxdRadioEnableClocks(ecoConfig);
 358:Generated_Source\PSoC6\pdl\middleware\ble/cy_ble_clk.c ****                 }
 359:Generated_Source\PSoC6\pdl\middleware\ble/cy_ble_clk.c **** 
 360:Generated_Source\PSoC6\pdl\middleware\ble/cy_ble_clk.c ****                 if(status == CY_BLE_ECO_SUCCESS)
 361:Generated_Source\PSoC6\pdl\middleware\ble/cy_ble_clk.c ****                 {
 362:Generated_Source\PSoC6\pdl\middleware\ble/cy_ble_clk.c ****                     /* Set Load capacitance */
 363:Generated_Source\PSoC6\pdl\middleware\ble/cy_ble_clk.c ****                     status = Cy_BLE_HAL_EcoSetTrim(ecoConfig->loadCap, ecoConfig->ecoXtalStartUpTim
 364:Generated_Source\PSoC6\pdl\middleware\ble/cy_ble_clk.c ****                 }
 365:Generated_Source\PSoC6\pdl\middleware\ble/cy_ble_clk.c ****             }
 366:Generated_Source\PSoC6\pdl\middleware\ble/cy_ble_clk.c ****         }
 367:Generated_Source\PSoC6\pdl\middleware\ble/cy_ble_clk.c ****     }
 368:Generated_Source\PSoC6\pdl\middleware\ble/cy_ble_clk.c **** 
 369:Generated_Source\PSoC6\pdl\middleware\ble/cy_ble_clk.c ****     return(status);
 370:Generated_Source\PSoC6\pdl\middleware\ble/cy_ble_clk.c **** }
 371:Generated_Source\PSoC6\pdl\middleware\ble/cy_ble_clk.c **** 
 372:Generated_Source\PSoC6\pdl\middleware\ble/cy_ble_clk.c **** 
 373:Generated_Source\PSoC6\pdl\middleware\ble/cy_ble_clk.c **** /*******************************************************************************
ARM GAS  C:\Users\Agentos\AppData\Local\Temp\ccEAbd3r.s 			page 8


 374:Generated_Source\PSoC6\pdl\middleware\ble/cy_ble_clk.c **** * Function Name: Cy_BLE_EcoStop
 375:Generated_Source\PSoC6\pdl\middleware\ble/cy_ble_clk.c **** ****************************************************************************//**
 376:Generated_Source\PSoC6\pdl\middleware\ble/cy_ble_clk.c **** *
 377:Generated_Source\PSoC6\pdl\middleware\ble/cy_ble_clk.c **** *  Disables BLE ECO clock.
 378:Generated_Source\PSoC6\pdl\middleware\ble/cy_ble_clk.c **** *
 379:Generated_Source\PSoC6\pdl\middleware\ble/cy_ble_clk.c **** *******************************************************************************/
 380:Generated_Source\PSoC6\pdl\middleware\ble/cy_ble_clk.c **** void Cy_BLE_EcoStop(void)
 381:Generated_Source\PSoC6\pdl\middleware\ble/cy_ble_clk.c **** {
 382:Generated_Source\PSoC6\pdl\middleware\ble/cy_ble_clk.c ****     /* Initiate Soft Reset */
 383:Generated_Source\PSoC6\pdl\middleware\ble/cy_ble_clk.c ****     BLE->BLESS.LL_CLK_EN |= BLE_BLESS_LL_CLK_EN_BLESS_RESET_Msk;
 384:Generated_Source\PSoC6\pdl\middleware\ble/cy_ble_clk.c **** }
 385:Generated_Source\PSoC6\pdl\middleware\ble/cy_ble_clk.c **** 
 386:Generated_Source\PSoC6\pdl\middleware\ble/cy_ble_clk.c **** 
 387:Generated_Source\PSoC6\pdl\middleware\ble/cy_ble_clk.c **** /*******************************************************************************
 388:Generated_Source\PSoC6\pdl\middleware\ble/cy_ble_clk.c **** * Function Name: Cy_BLE_HAL_Init
 389:Generated_Source\PSoC6\pdl\middleware\ble/cy_ble_clk.c **** ****************************************************************************//**
 390:Generated_Source\PSoC6\pdl\middleware\ble/cy_ble_clk.c **** *
 391:Generated_Source\PSoC6\pdl\middleware\ble/cy_ble_clk.c **** *  Initializes the BLESS port.
 392:Generated_Source\PSoC6\pdl\middleware\ble/cy_ble_clk.c **** *
 393:Generated_Source\PSoC6\pdl\middleware\ble/cy_ble_clk.c **** * \return
 394:Generated_Source\PSoC6\pdl\middleware\ble/cy_ble_clk.c **** *  None
 395:Generated_Source\PSoC6\pdl\middleware\ble/cy_ble_clk.c **** *
 396:Generated_Source\PSoC6\pdl\middleware\ble/cy_ble_clk.c **** *******************************************************************************/
 397:Generated_Source\PSoC6\pdl\middleware\ble/cy_ble_clk.c **** void Cy_BLE_HAL_Init(void)
 398:Generated_Source\PSoC6\pdl\middleware\ble/cy_ble_clk.c **** {
 399:Generated_Source\PSoC6\pdl\middleware\ble/cy_ble_clk.c ****     /* Configures pins for BLESS */
 400:Generated_Source\PSoC6\pdl\middleware\ble/cy_ble_clk.c ****     const cy_stc_gpio_prt_config_t port2_cfg =
 401:Generated_Source\PSoC6\pdl\middleware\ble/cy_ble_clk.c ****     {
 402:Generated_Source\PSoC6\pdl\middleware\ble/cy_ble_clk.c ****            0UL,                         /* out        */
 403:Generated_Source\PSoC6\pdl\middleware\ble/cy_ble_clk.c ****            0UL,                         /* ntrMask    */
 404:Generated_Source\PSoC6\pdl\middleware\ble/cy_ble_clk.c ****            0UL,                         /* intrCfg    */
 405:Generated_Source\PSoC6\pdl\middleware\ble/cy_ble_clk.c ****            CY_BLE_PORT2_CFG_VAL,        /* cfg        */
 406:Generated_Source\PSoC6\pdl\middleware\ble/cy_ble_clk.c ****            0UL,                         /* cfgIn      */
 407:Generated_Source\PSoC6\pdl\middleware\ble/cy_ble_clk.c ****            CY_BLE_PORT_CFG_OUT_VAL,     /* cfgOut     */
 408:Generated_Source\PSoC6\pdl\middleware\ble/cy_ble_clk.c ****            0UL,                         /* cfgSIO     */
 409:Generated_Source\PSoC6\pdl\middleware\ble/cy_ble_clk.c ****            CY_BLE_PORT2_HSIOM_SEL0,     /* sel0Active */
 410:Generated_Source\PSoC6\pdl\middleware\ble/cy_ble_clk.c ****            CY_BLE_PORT2_HSIOM_SEL1      /* sel1Active */
 411:Generated_Source\PSoC6\pdl\middleware\ble/cy_ble_clk.c ****     };
 412:Generated_Source\PSoC6\pdl\middleware\ble/cy_ble_clk.c **** 
 413:Generated_Source\PSoC6\pdl\middleware\ble/cy_ble_clk.c ****     const cy_stc_gpio_prt_config_t port3_cfg =
 414:Generated_Source\PSoC6\pdl\middleware\ble/cy_ble_clk.c ****     {
 415:Generated_Source\PSoC6\pdl\middleware\ble/cy_ble_clk.c ****            0UL,                         /* out        */
 416:Generated_Source\PSoC6\pdl\middleware\ble/cy_ble_clk.c ****            0UL,                         /* ntrMask    */
 417:Generated_Source\PSoC6\pdl\middleware\ble/cy_ble_clk.c ****            0UL,                         /* intrCfg    */
 418:Generated_Source\PSoC6\pdl\middleware\ble/cy_ble_clk.c ****            CY_BLE_PORT3_CFG_VAL,        /* cfg        */
 419:Generated_Source\PSoC6\pdl\middleware\ble/cy_ble_clk.c ****            0UL,                         /* cfgIn      */
 420:Generated_Source\PSoC6\pdl\middleware\ble/cy_ble_clk.c ****            CY_BLE_PORT_CFG_OUT_VAL,     /* cfgOut     */
 421:Generated_Source\PSoC6\pdl\middleware\ble/cy_ble_clk.c ****            0UL,                         /* cfgSIO     */
 422:Generated_Source\PSoC6\pdl\middleware\ble/cy_ble_clk.c ****            CY_BLE_PORT3_HSIOM_SEL0,     /* sel0Active */
 423:Generated_Source\PSoC6\pdl\middleware\ble/cy_ble_clk.c ****            CY_BLE_PORT3_HSIOM_SEL1      /* sel1Active */
 424:Generated_Source\PSoC6\pdl\middleware\ble/cy_ble_clk.c ****     };
 425:Generated_Source\PSoC6\pdl\middleware\ble/cy_ble_clk.c **** 
 426:Generated_Source\PSoC6\pdl\middleware\ble/cy_ble_clk.c ****     const cy_stc_gpio_prt_config_t port4_cfg =
 427:Generated_Source\PSoC6\pdl\middleware\ble/cy_ble_clk.c ****     {
 428:Generated_Source\PSoC6\pdl\middleware\ble/cy_ble_clk.c ****            0UL,                         /* out        */
 429:Generated_Source\PSoC6\pdl\middleware\ble/cy_ble_clk.c ****            0UL,                         /* ntrMask    */
 430:Generated_Source\PSoC6\pdl\middleware\ble/cy_ble_clk.c ****            0UL,                         /* intrCfg    */
ARM GAS  C:\Users\Agentos\AppData\Local\Temp\ccEAbd3r.s 			page 9


 431:Generated_Source\PSoC6\pdl\middleware\ble/cy_ble_clk.c ****            CY_BLE_PORT4_CFG_VAL,        /* cfg        */
 432:Generated_Source\PSoC6\pdl\middleware\ble/cy_ble_clk.c ****            0UL,                         /* cfgIn      */
 433:Generated_Source\PSoC6\pdl\middleware\ble/cy_ble_clk.c ****            CY_BLE_PORT_CFG_OUT_VAL,     /* cfgOut     */
 434:Generated_Source\PSoC6\pdl\middleware\ble/cy_ble_clk.c ****            0UL,                         /* cfgSIO     */
 435:Generated_Source\PSoC6\pdl\middleware\ble/cy_ble_clk.c ****            CY_BLE_PORT4_HSIOM_SEL0,     /* sel0Active */
 436:Generated_Source\PSoC6\pdl\middleware\ble/cy_ble_clk.c ****            CY_BLE_PORT4_HSIOM_SEL1      /* sel1Active */
 437:Generated_Source\PSoC6\pdl\middleware\ble/cy_ble_clk.c ****     };
 438:Generated_Source\PSoC6\pdl\middleware\ble/cy_ble_clk.c **** 
 439:Generated_Source\PSoC6\pdl\middleware\ble/cy_ble_clk.c ****     (void)Cy_GPIO_Port_Init(GPIO_PRT2, &port2_cfg);
 440:Generated_Source\PSoC6\pdl\middleware\ble/cy_ble_clk.c ****     (void)Cy_GPIO_Port_Init(GPIO_PRT3, &port3_cfg);
 441:Generated_Source\PSoC6\pdl\middleware\ble/cy_ble_clk.c ****     (void)Cy_GPIO_Port_Init(GPIO_PRT4, &port4_cfg);
 442:Generated_Source\PSoC6\pdl\middleware\ble/cy_ble_clk.c **** }
 443:Generated_Source\PSoC6\pdl\middleware\ble/cy_ble_clk.c **** 
 444:Generated_Source\PSoC6\pdl\middleware\ble/cy_ble_clk.c **** 
 445:Generated_Source\PSoC6\pdl\middleware\ble/cy_ble_clk.c **** /*******************************************************************************
 446:Generated_Source\PSoC6\pdl\middleware\ble/cy_ble_clk.c **** * Function Name: Cy_BLE_HAL_RcbRegRead
 447:Generated_Source\PSoC6\pdl\middleware\ble/cy_ble_clk.c **** ****************************************************************************//**
 448:Generated_Source\PSoC6\pdl\middleware\ble/cy_ble_clk.c **** *
 449:Generated_Source\PSoC6\pdl\middleware\ble/cy_ble_clk.c **** *  Reads Radio register.
 450:Generated_Source\PSoC6\pdl\middleware\ble/cy_ble_clk.c **** *
 451:Generated_Source\PSoC6\pdl\middleware\ble/cy_ble_clk.c **** *  \param addr : Register address.
 452:Generated_Source\PSoC6\pdl\middleware\ble/cy_ble_clk.c **** *  \param *data: Register data (output parameter).
 453:Generated_Source\PSoC6\pdl\middleware\ble/cy_ble_clk.c **** *
 454:Generated_Source\PSoC6\pdl\middleware\ble/cy_ble_clk.c **** *  \return
 455:Generated_Source\PSoC6\pdl\middleware\ble/cy_ble_clk.c **** *  \ref cy_en_ble_eco_status_t : Return value indicates if the function succeeded or
 456:Generated_Source\PSoC6\pdl\middleware\ble/cy_ble_clk.c **** *  failed. The following are possible error codes:
 457:Generated_Source\PSoC6\pdl\middleware\ble/cy_ble_clk.c **** *
 458:Generated_Source\PSoC6\pdl\middleware\ble/cy_ble_clk.c **** *  Error Codes                 | Description
 459:Generated_Source\PSoC6\pdl\middleware\ble/cy_ble_clk.c **** *  --------------------        | -----------
 460:Generated_Source\PSoC6\pdl\middleware\ble/cy_ble_clk.c **** *  CY_BLE_ECO_SUCCESS          | On successful operation.
 461:Generated_Source\PSoC6\pdl\middleware\ble/cy_ble_clk.c **** *  CY_BLE_ECO_HARDWARE_ERROR   | If RCB operation failed
 462:Generated_Source\PSoC6\pdl\middleware\ble/cy_ble_clk.c **** *
 463:Generated_Source\PSoC6\pdl\middleware\ble/cy_ble_clk.c **** *******************************************************************************/
 464:Generated_Source\PSoC6\pdl\middleware\ble/cy_ble_clk.c **** static cy_en_ble_eco_status_t Cy_BLE_HAL_RcbRegRead(uint16_t addr, uint16_t *data)
 465:Generated_Source\PSoC6\pdl\middleware\ble/cy_ble_clk.c **** {
  27              		.loc 1 465 0
  28              		.cfi_startproc
  29              		@ args = 0, pretend = 0, frame = 0
  30              		@ frame_needed = 0, uses_anonymous_args = 0
  31              	.LVL0:
  32 0000 70B5     		push	{r4, r5, r6, lr}
  33              		.cfi_def_cfa_offset 16
  34              		.cfi_offset 4, -16
  35              		.cfi_offset 5, -12
  36              		.cfi_offset 6, -8
  37              		.cfi_offset 14, -4
  38 0002 0D00     		movs	r5, r1
  39              	.LVL1:
 466:Generated_Source\PSoC6\pdl\middleware\ble/cy_ble_clk.c ****     cy_en_ble_eco_status_t status = CY_BLE_ECO_HARDWARE_ERROR;
 467:Generated_Source\PSoC6\pdl\middleware\ble/cy_ble_clk.c ****     uint32_t timeout = CY_BLE_RCB_TIMEOUT;
 468:Generated_Source\PSoC6\pdl\middleware\ble/cy_ble_clk.c ****     uint32_t temp = (uint32_t)((CY_BLE_RCB_FIFO_WR_BIT_MASK | addr) << CY_BLE_RCB_FIFO_WR_BIT_SHIFT
  40              		.loc 1 468 0
  41 0004 0F4B     		ldr	r3, .L7
  42 0006 1843     		orrs	r0, r3
  43              	.LVL2:
  44 0008 0004     		lsls	r0, r0, #16
  45              	.LVL3:
ARM GAS  C:\Users\Agentos\AppData\Local\Temp\ccEAbd3r.s 			page 10


 469:Generated_Source\PSoC6\pdl\middleware\ble/cy_ble_clk.c **** 
 470:Generated_Source\PSoC6\pdl\middleware\ble/cy_ble_clk.c ****     /* Write Address to the RCB */
 471:Generated_Source\PSoC6\pdl\middleware\ble/cy_ble_clk.c ****     BLE->RCB.TX_FIFO_WR = temp;
  46              		.loc 1 471 0
  47 000a 0F4B     		ldr	r3, .L7+4
  48 000c D861     		str	r0, [r3, #28]
 467:Generated_Source\PSoC6\pdl\middleware\ble/cy_ble_clk.c ****     uint32_t temp = (uint32_t)((CY_BLE_RCB_FIFO_WR_BIT_MASK | addr) << CY_BLE_RCB_FIFO_WR_BIT_SHIFT
  49              		.loc 1 467 0
  50 000e FA24     		movs	r4, #250
  51 0010 A400     		lsls	r4, r4, #2
 472:Generated_Source\PSoC6\pdl\middleware\ble/cy_ble_clk.c **** 
 473:Generated_Source\PSoC6\pdl\middleware\ble/cy_ble_clk.c ****     /* Wait for Data. */
 474:Generated_Source\PSoC6\pdl\middleware\ble/cy_ble_clk.c ****     while(((BLE->RCB.INTR & BLE_RCB_INTR_RCB_DONE_Msk) == 0U) && (timeout > 0U))
  52              		.loc 1 474 0
  53 0012 03E0     		b	.L2
  54              	.LVL4:
  55              	.L4:
 475:Generated_Source\PSoC6\pdl\middleware\ble/cy_ble_clk.c ****     {
 476:Generated_Source\PSoC6\pdl\middleware\ble/cy_ble_clk.c ****         timeout--;
  56              		.loc 1 476 0
  57 0014 013C     		subs	r4, r4, #1
  58              	.LVL5:
 477:Generated_Source\PSoC6\pdl\middleware\ble/cy_ble_clk.c ****         Cy_SysLib_DelayUs(CY_BLE_DELAY_TIME);
  59              		.loc 1 477 0
  60 0016 0120     		movs	r0, #1
  61 0018 FFF7FEFF 		bl	Cy_SysLib_DelayUs
  62              	.LVL6:
  63              	.L2:
 474:Generated_Source\PSoC6\pdl\middleware\ble/cy_ble_clk.c ****     {
  64              		.loc 1 474 0
  65 001c 0A4B     		ldr	r3, .L7+4
  66 001e 1B6C     		ldr	r3, [r3, #64]
  67 0020 DB07     		lsls	r3, r3, #31
  68 0022 01D4     		bmi	.L3
 474:Generated_Source\PSoC6\pdl\middleware\ble/cy_ble_clk.c ****     {
  69              		.loc 1 474 0 is_stmt 0 discriminator 1
  70 0024 002C     		cmp	r4, #0
  71 0026 F5D1     		bne	.L4
  72              	.L3:
 478:Generated_Source\PSoC6\pdl\middleware\ble/cy_ble_clk.c ****     }
 479:Generated_Source\PSoC6\pdl\middleware\ble/cy_ble_clk.c **** 
 480:Generated_Source\PSoC6\pdl\middleware\ble/cy_ble_clk.c ****     if(timeout > 0U)
  73              		.loc 1 480 0 is_stmt 1
  74 0028 002C     		cmp	r4, #0
  75 002a 08D0     		beq	.L6
 481:Generated_Source\PSoC6\pdl\middleware\ble/cy_ble_clk.c ****     {
 482:Generated_Source\PSoC6\pdl\middleware\ble/cy_ble_clk.c ****         BLE->RCB.INTR |= BLE_RCB_INTR_RCB_DONE_Msk;
  76              		.loc 1 482 0
  77 002c 064B     		ldr	r3, .L7+4
  78 002e 196C     		ldr	r1, [r3, #64]
  79 0030 0122     		movs	r2, #1
  80 0032 0A43     		orrs	r2, r1
  81 0034 1A64     		str	r2, [r3, #64]
 483:Generated_Source\PSoC6\pdl\middleware\ble/cy_ble_clk.c ****         *data = (uint16_t)BLE->RCB.RX_FIFO_RD;
  82              		.loc 1 483 0
  83 0036 DB6A     		ldr	r3, [r3, #44]
  84 0038 2B80     		strh	r3, [r5]
ARM GAS  C:\Users\Agentos\AppData\Local\Temp\ccEAbd3r.s 			page 11


  85              	.LVL7:
 484:Generated_Source\PSoC6\pdl\middleware\ble/cy_ble_clk.c ****         status = CY_BLE_ECO_SUCCESS;
  86              		.loc 1 484 0
  87 003a 0020     		movs	r0, #0
  88 003c 00E0     		b	.L5
  89              	.LVL8:
  90              	.L6:
 466:Generated_Source\PSoC6\pdl\middleware\ble/cy_ble_clk.c ****     uint32_t timeout = CY_BLE_RCB_TIMEOUT;
  91              		.loc 1 466 0
  92 003e 0348     		ldr	r0, .L7+8
  93              	.LVL9:
  94              	.L5:
 485:Generated_Source\PSoC6\pdl\middleware\ble/cy_ble_clk.c ****     }
 486:Generated_Source\PSoC6\pdl\middleware\ble/cy_ble_clk.c **** 
 487:Generated_Source\PSoC6\pdl\middleware\ble/cy_ble_clk.c ****     return(status);
 488:Generated_Source\PSoC6\pdl\middleware\ble/cy_ble_clk.c **** }
  95              		.loc 1 488 0
  96              		@ sp needed
  97              	.LVL10:
  98              	.LVL11:
  99 0040 70BD     		pop	{r4, r5, r6, pc}
 100              	.L8:
 101 0042 C046     		.align	2
 102              	.L7:
 103 0044 0080FFFF 		.word	-32768
 104 0048 00003C40 		.word	1077673984
 105 004c 04001600 		.word	1441796
 106              		.cfi_endproc
 107              	.LFE180:
 108              		.size	Cy_BLE_HAL_RcbRegRead, .-Cy_BLE_HAL_RcbRegRead
 109              		.section	.text.Cy_BLE_HAL_RcbRegWrite,"ax",%progbits
 110              		.align	2
 111              		.code	16
 112              		.thumb_func
 113              		.type	Cy_BLE_HAL_RcbRegWrite, %function
 114              	Cy_BLE_HAL_RcbRegWrite:
 115              	.LFB181:
 489:Generated_Source\PSoC6\pdl\middleware\ble/cy_ble_clk.c **** 
 490:Generated_Source\PSoC6\pdl\middleware\ble/cy_ble_clk.c **** 
 491:Generated_Source\PSoC6\pdl\middleware\ble/cy_ble_clk.c **** /*******************************************************************************
 492:Generated_Source\PSoC6\pdl\middleware\ble/cy_ble_clk.c **** * Function Name: Cy_BLE_HAL_RcbRegWrite
 493:Generated_Source\PSoC6\pdl\middleware\ble/cy_ble_clk.c **** ****************************************************************************//**
 494:Generated_Source\PSoC6\pdl\middleware\ble/cy_ble_clk.c **** *
 495:Generated_Source\PSoC6\pdl\middleware\ble/cy_ble_clk.c **** *  Writes Radio register.
 496:Generated_Source\PSoC6\pdl\middleware\ble/cy_ble_clk.c **** *
 497:Generated_Source\PSoC6\pdl\middleware\ble/cy_ble_clk.c **** *  \param addr: Register address.
 498:Generated_Source\PSoC6\pdl\middleware\ble/cy_ble_clk.c **** *  \param data: Register data.
 499:Generated_Source\PSoC6\pdl\middleware\ble/cy_ble_clk.c **** *
 500:Generated_Source\PSoC6\pdl\middleware\ble/cy_ble_clk.c **** *  \return
 501:Generated_Source\PSoC6\pdl\middleware\ble/cy_ble_clk.c **** *  \ref cy_en_ble_eco_status_t : Return value indicates if the function succeeded or
 502:Generated_Source\PSoC6\pdl\middleware\ble/cy_ble_clk.c **** *                                failed. The following are possible error codes:
 503:Generated_Source\PSoC6\pdl\middleware\ble/cy_ble_clk.c **** *  Error Codes                 | Description
 504:Generated_Source\PSoC6\pdl\middleware\ble/cy_ble_clk.c **** *  --------------------        | -----------
 505:Generated_Source\PSoC6\pdl\middleware\ble/cy_ble_clk.c **** *  CY_BLE_ECO_SUCCESS          | On successful operation.
 506:Generated_Source\PSoC6\pdl\middleware\ble/cy_ble_clk.c **** *  CY_BLE_ECO_HARDWARE_ERROR   | If RCB operation failed
 507:Generated_Source\PSoC6\pdl\middleware\ble/cy_ble_clk.c **** *
 508:Generated_Source\PSoC6\pdl\middleware\ble/cy_ble_clk.c **** *******************************************************************************/
ARM GAS  C:\Users\Agentos\AppData\Local\Temp\ccEAbd3r.s 			page 12


 509:Generated_Source\PSoC6\pdl\middleware\ble/cy_ble_clk.c **** static cy_en_ble_eco_status_t Cy_BLE_HAL_RcbRegWrite(uint16_t addr, uint16_t data)
 510:Generated_Source\PSoC6\pdl\middleware\ble/cy_ble_clk.c **** {
 116              		.loc 1 510 0
 117              		.cfi_startproc
 118              		@ args = 0, pretend = 0, frame = 0
 119              		@ frame_needed = 0, uses_anonymous_args = 0
 120              	.LVL12:
 121 0000 10B5     		push	{r4, lr}
 122              		.cfi_def_cfa_offset 8
 123              		.cfi_offset 4, -8
 124              		.cfi_offset 14, -4
 125              	.LVL13:
 511:Generated_Source\PSoC6\pdl\middleware\ble/cy_ble_clk.c ****     cy_en_ble_eco_status_t status = CY_BLE_ECO_HARDWARE_ERROR;
 512:Generated_Source\PSoC6\pdl\middleware\ble/cy_ble_clk.c ****     uint32_t timeout = CY_BLE_RCB_TIMEOUT;
 513:Generated_Source\PSoC6\pdl\middleware\ble/cy_ble_clk.c ****     uint32_t temp = ((uint32_t)((~CY_BLE_RCB_FIFO_WR_BIT_MASK & addr) << CY_BLE_RCB_FIFO_WR_BIT_SHI
 126              		.loc 1 513 0
 127 0002 0004     		lsls	r0, r0, #16
 128              	.LVL14:
 129 0004 0E4B     		ldr	r3, .L15
 130 0006 1840     		ands	r0, r3
 131 0008 0143     		orrs	r1, r0
 132              	.LVL15:
 514:Generated_Source\PSoC6\pdl\middleware\ble/cy_ble_clk.c **** 
 515:Generated_Source\PSoC6\pdl\middleware\ble/cy_ble_clk.c ****     BLE->RCB.TX_FIFO_WR = temp;
 133              		.loc 1 515 0
 134 000a 0E4B     		ldr	r3, .L15+4
 135 000c D961     		str	r1, [r3, #28]
 512:Generated_Source\PSoC6\pdl\middleware\ble/cy_ble_clk.c ****     uint32_t temp = ((uint32_t)((~CY_BLE_RCB_FIFO_WR_BIT_MASK & addr) << CY_BLE_RCB_FIFO_WR_BIT_SHI
 136              		.loc 1 512 0
 137 000e FA24     		movs	r4, #250
 138 0010 A400     		lsls	r4, r4, #2
 516:Generated_Source\PSoC6\pdl\middleware\ble/cy_ble_clk.c **** 
 517:Generated_Source\PSoC6\pdl\middleware\ble/cy_ble_clk.c ****     /* Wait for RCB done. */
 518:Generated_Source\PSoC6\pdl\middleware\ble/cy_ble_clk.c ****     while(((BLE->RCB.INTR & BLE_RCB_INTR_RCB_DONE_Msk) == 0U) && (timeout > 0U))
 139              		.loc 1 518 0
 140 0012 03E0     		b	.L10
 141              	.LVL16:
 142              	.L12:
 519:Generated_Source\PSoC6\pdl\middleware\ble/cy_ble_clk.c ****     {
 520:Generated_Source\PSoC6\pdl\middleware\ble/cy_ble_clk.c ****         timeout--;
 143              		.loc 1 520 0
 144 0014 013C     		subs	r4, r4, #1
 145              	.LVL17:
 521:Generated_Source\PSoC6\pdl\middleware\ble/cy_ble_clk.c ****         Cy_SysLib_DelayUs(CY_BLE_DELAY_TIME);
 146              		.loc 1 521 0
 147 0016 0120     		movs	r0, #1
 148 0018 FFF7FEFF 		bl	Cy_SysLib_DelayUs
 149              	.LVL18:
 150              	.L10:
 518:Generated_Source\PSoC6\pdl\middleware\ble/cy_ble_clk.c ****     {
 151              		.loc 1 518 0
 152 001c 094B     		ldr	r3, .L15+4
 153 001e 1B6C     		ldr	r3, [r3, #64]
 154 0020 DB07     		lsls	r3, r3, #31
 155 0022 01D4     		bmi	.L11
 518:Generated_Source\PSoC6\pdl\middleware\ble/cy_ble_clk.c ****     {
 156              		.loc 1 518 0 is_stmt 0 discriminator 1
ARM GAS  C:\Users\Agentos\AppData\Local\Temp\ccEAbd3r.s 			page 13


 157 0024 002C     		cmp	r4, #0
 158 0026 F5D1     		bne	.L12
 159              	.L11:
 522:Generated_Source\PSoC6\pdl\middleware\ble/cy_ble_clk.c ****     }
 523:Generated_Source\PSoC6\pdl\middleware\ble/cy_ble_clk.c **** 
 524:Generated_Source\PSoC6\pdl\middleware\ble/cy_ble_clk.c ****     if(timeout > 0U)
 160              		.loc 1 524 0 is_stmt 1
 161 0028 002C     		cmp	r4, #0
 162 002a 06D0     		beq	.L14
 525:Generated_Source\PSoC6\pdl\middleware\ble/cy_ble_clk.c ****     {
 526:Generated_Source\PSoC6\pdl\middleware\ble/cy_ble_clk.c ****         BLE->RCB.INTR |= BLE_RCB_INTR_RCB_DONE_Msk;
 163              		.loc 1 526 0
 164 002c 054A     		ldr	r2, .L15+4
 165 002e 116C     		ldr	r1, [r2, #64]
 166 0030 0123     		movs	r3, #1
 167 0032 0B43     		orrs	r3, r1
 168 0034 1364     		str	r3, [r2, #64]
 169              	.LVL19:
 527:Generated_Source\PSoC6\pdl\middleware\ble/cy_ble_clk.c ****         status = CY_BLE_ECO_SUCCESS;
 170              		.loc 1 527 0
 171 0036 0020     		movs	r0, #0
 172 0038 00E0     		b	.L13
 173              	.LVL20:
 174              	.L14:
 511:Generated_Source\PSoC6\pdl\middleware\ble/cy_ble_clk.c ****     uint32_t timeout = CY_BLE_RCB_TIMEOUT;
 175              		.loc 1 511 0
 176 003a 0348     		ldr	r0, .L15+8
 177              	.LVL21:
 178              	.L13:
 528:Generated_Source\PSoC6\pdl\middleware\ble/cy_ble_clk.c ****     }
 529:Generated_Source\PSoC6\pdl\middleware\ble/cy_ble_clk.c ****     
 530:Generated_Source\PSoC6\pdl\middleware\ble/cy_ble_clk.c ****     return(status);
 531:Generated_Source\PSoC6\pdl\middleware\ble/cy_ble_clk.c **** }
 179              		.loc 1 531 0
 180              		@ sp needed
 181              	.LVL22:
 182 003c 10BD     		pop	{r4, pc}
 183              	.L16:
 184 003e C046     		.align	2
 185              	.L15:
 186 0040 0000FF7F 		.word	2147418112
 187 0044 00003C40 		.word	1077673984
 188 0048 04001600 		.word	1441796
 189              		.cfi_endproc
 190              	.LFE181:
 191              		.size	Cy_BLE_HAL_RcbRegWrite, .-Cy_BLE_HAL_RcbRegWrite
 192              		.section	.text.Cy_BLE_HAL_MxdRadioEnableClocks,"ax",%progbits
 193              		.align	2
 194              		.code	16
 195              		.thumb_func
 196              		.type	Cy_BLE_HAL_MxdRadioEnableClocks, %function
 197              	Cy_BLE_HAL_MxdRadioEnableClocks:
 198              	.LFB183:
 532:Generated_Source\PSoC6\pdl\middleware\ble/cy_ble_clk.c **** 
 533:Generated_Source\PSoC6\pdl\middleware\ble/cy_ble_clk.c **** 
 534:Generated_Source\PSoC6\pdl\middleware\ble/cy_ble_clk.c **** /*******************************************************************************
 535:Generated_Source\PSoC6\pdl\middleware\ble/cy_ble_clk.c **** * Function Name: Cy_BLE_HAL_EcoSetTrim
ARM GAS  C:\Users\Agentos\AppData\Local\Temp\ccEAbd3r.s 			page 14


 536:Generated_Source\PSoC6\pdl\middleware\ble/cy_ble_clk.c **** ****************************************************************************//**
 537:Generated_Source\PSoC6\pdl\middleware\ble/cy_ble_clk.c **** *
 538:Generated_Source\PSoC6\pdl\middleware\ble/cy_ble_clk.c **** *  Sets ECO trim value.
 539:Generated_Source\PSoC6\pdl\middleware\ble/cy_ble_clk.c **** *
 540:Generated_Source\PSoC6\pdl\middleware\ble/cy_ble_clk.c **** *  \param trim       : Trim value.
 541:Generated_Source\PSoC6\pdl\middleware\ble/cy_ble_clk.c **** *         startUpTime: Start up time delay.
 542:Generated_Source\PSoC6\pdl\middleware\ble/cy_ble_clk.c **** *
 543:Generated_Source\PSoC6\pdl\middleware\ble/cy_ble_clk.c **** *  \return
 544:Generated_Source\PSoC6\pdl\middleware\ble/cy_ble_clk.c **** *  \ref cy_en_ble_eco_status_t : Return value indicates if the function succeeded or
 545:Generated_Source\PSoC6\pdl\middleware\ble/cy_ble_clk.c **** *                                failed. The following are possible error codes:
 546:Generated_Source\PSoC6\pdl\middleware\ble/cy_ble_clk.c **** *  Error Codes                 | Description
 547:Generated_Source\PSoC6\pdl\middleware\ble/cy_ble_clk.c **** *  --------------------        | -----------
 548:Generated_Source\PSoC6\pdl\middleware\ble/cy_ble_clk.c **** *  CY_BLE_ECO_SUCCESS          | On successful operation.
 549:Generated_Source\PSoC6\pdl\middleware\ble/cy_ble_clk.c **** *  CY_BLE_ECO_HARDWARE_ERROR   | If RCB operation failed
 550:Generated_Source\PSoC6\pdl\middleware\ble/cy_ble_clk.c **** *
 551:Generated_Source\PSoC6\pdl\middleware\ble/cy_ble_clk.c **** *******************************************************************************/
 552:Generated_Source\PSoC6\pdl\middleware\ble/cy_ble_clk.c **** static cy_en_ble_eco_status_t Cy_BLE_HAL_EcoSetTrim(uint8_t trim, uint8_t startUpTime)
 553:Generated_Source\PSoC6\pdl\middleware\ble/cy_ble_clk.c **** {
 554:Generated_Source\PSoC6\pdl\middleware\ble/cy_ble_clk.c ****     uint16_t reg = CY_BLE_RF_DCXO_CFG_REG_VALUE;
 555:Generated_Source\PSoC6\pdl\middleware\ble/cy_ble_clk.c ****     cy_en_ble_eco_status_t status;
 556:Generated_Source\PSoC6\pdl\middleware\ble/cy_ble_clk.c ****     
 557:Generated_Source\PSoC6\pdl\middleware\ble/cy_ble_clk.c ****     /* Load the new CAP TRIM value */
 558:Generated_Source\PSoC6\pdl\middleware\ble/cy_ble_clk.c ****     reg |= (uint16_t)((uint16_t)trim << CY_BLE_RF_DCXO_CFG_REG_DCXO_CAP_SHIFT);
 559:Generated_Source\PSoC6\pdl\middleware\ble/cy_ble_clk.c **** 
 560:Generated_Source\PSoC6\pdl\middleware\ble/cy_ble_clk.c ****     /* Write the new value to the register */
 561:Generated_Source\PSoC6\pdl\middleware\ble/cy_ble_clk.c ****     status = Cy_BLE_HAL_RcbRegWrite(CY_BLE_RF_DCXO_CFG_REG, reg);
 562:Generated_Source\PSoC6\pdl\middleware\ble/cy_ble_clk.c ****         
 563:Generated_Source\PSoC6\pdl\middleware\ble/cy_ble_clk.c ****     if(status == CY_BLE_ECO_SUCCESS)
 564:Generated_Source\PSoC6\pdl\middleware\ble/cy_ble_clk.c ****     {
 565:Generated_Source\PSoC6\pdl\middleware\ble/cy_ble_clk.c ****         /* Write the new value to the CFG2 register */
 566:Generated_Source\PSoC6\pdl\middleware\ble/cy_ble_clk.c ****         status = Cy_BLE_HAL_RcbRegWrite(CY_BLE_RF_DCXO_CFG2_REG, CY_BLE_RF_DCXO_CFG2_REG_VALUE);
 567:Generated_Source\PSoC6\pdl\middleware\ble/cy_ble_clk.c ****     }
 568:Generated_Source\PSoC6\pdl\middleware\ble/cy_ble_clk.c ****     
 569:Generated_Source\PSoC6\pdl\middleware\ble/cy_ble_clk.c ****     Cy_SysLib_DelayUs(startUpTime * CY_BLE_ECO_SET_TRIM_DELAY_COEF);
 570:Generated_Source\PSoC6\pdl\middleware\ble/cy_ble_clk.c ****     
 571:Generated_Source\PSoC6\pdl\middleware\ble/cy_ble_clk.c ****     return(status);
 572:Generated_Source\PSoC6\pdl\middleware\ble/cy_ble_clk.c **** }
 573:Generated_Source\PSoC6\pdl\middleware\ble/cy_ble_clk.c **** 
 574:Generated_Source\PSoC6\pdl\middleware\ble/cy_ble_clk.c **** 
 575:Generated_Source\PSoC6\pdl\middleware\ble/cy_ble_clk.c **** /*******************************************************************************
 576:Generated_Source\PSoC6\pdl\middleware\ble/cy_ble_clk.c **** * Function Name: Cy_BLE_HAL_MxdRadioEnableClocks
 577:Generated_Source\PSoC6\pdl\middleware\ble/cy_ble_clk.c **** ****************************************************************************//**
 578:Generated_Source\PSoC6\pdl\middleware\ble/cy_ble_clk.c **** *
 579:Generated_Source\PSoC6\pdl\middleware\ble/cy_ble_clk.c **** *  Enables and configures radio clock.
 580:Generated_Source\PSoC6\pdl\middleware\ble/cy_ble_clk.c **** *  
 581:Generated_Source\PSoC6\pdl\middleware\ble/cy_ble_clk.c **** *  \param ecoConfig: Clock configuration of type 'cy_stc_ble_bless_eco_cfg_params_t'.
 582:Generated_Source\PSoC6\pdl\middleware\ble/cy_ble_clk.c **** *
 583:Generated_Source\PSoC6\pdl\middleware\ble/cy_ble_clk.c **** *  \return
 584:Generated_Source\PSoC6\pdl\middleware\ble/cy_ble_clk.c **** *  \ref cy_en_ble_eco_status_t : Return value indicates if the function succeeded or
 585:Generated_Source\PSoC6\pdl\middleware\ble/cy_ble_clk.c **** *  failed. The following are possible error codes:
 586:Generated_Source\PSoC6\pdl\middleware\ble/cy_ble_clk.c **** *
 587:Generated_Source\PSoC6\pdl\middleware\ble/cy_ble_clk.c **** *  Error Codes                 | Description
 588:Generated_Source\PSoC6\pdl\middleware\ble/cy_ble_clk.c **** *  --------------------        | -----------
 589:Generated_Source\PSoC6\pdl\middleware\ble/cy_ble_clk.c **** *  CY_BLE_ECO_SUCCESS          | On successful operation.
 590:Generated_Source\PSoC6\pdl\middleware\ble/cy_ble_clk.c **** *  CY_BLE_ECO_HARDWARE_ERROR   | If RCB operation failed
 591:Generated_Source\PSoC6\pdl\middleware\ble/cy_ble_clk.c **** *
 592:Generated_Source\PSoC6\pdl\middleware\ble/cy_ble_clk.c **** *******************************************************************************/
ARM GAS  C:\Users\Agentos\AppData\Local\Temp\ccEAbd3r.s 			page 15


 593:Generated_Source\PSoC6\pdl\middleware\ble/cy_ble_clk.c **** static cy_en_ble_eco_status_t Cy_BLE_HAL_MxdRadioEnableClocks(const cy_stc_ble_bless_eco_cfg_params
 594:Generated_Source\PSoC6\pdl\middleware\ble/cy_ble_clk.c **** {
 199              		.loc 1 594 0
 200              		.cfi_startproc
 201              		@ args = 0, pretend = 0, frame = 8
 202              		@ frame_needed = 0, uses_anonymous_args = 0
 203              	.LVL23:
 204 0000 F0B5     		push	{r4, r5, r6, r7, lr}
 205              		.cfi_def_cfa_offset 20
 206              		.cfi_offset 4, -20
 207              		.cfi_offset 5, -16
 208              		.cfi_offset 6, -12
 209              		.cfi_offset 7, -8
 210              		.cfi_offset 14, -4
 211 0002 83B0     		sub	sp, sp, #12
 212              		.cfi_def_cfa_offset 32
 213 0004 0600     		movs	r6, r0
 214              	.LVL24:
 595:Generated_Source\PSoC6\pdl\middleware\ble/cy_ble_clk.c ****     uint16_t temp;
 596:Generated_Source\PSoC6\pdl\middleware\ble/cy_ble_clk.c ****     uint32_t retries = CY_BLE_RCB_RETRIES;
 215              		.loc 1 596 0
 216 0006 0A24     		movs	r4, #10
 217              	.LVL25:
 218              	.L21:
 597:Generated_Source\PSoC6\pdl\middleware\ble/cy_ble_clk.c ****     cy_en_ble_eco_status_t status;
 598:Generated_Source\PSoC6\pdl\middleware\ble/cy_ble_clk.c **** 
 599:Generated_Source\PSoC6\pdl\middleware\ble/cy_ble_clk.c ****     /* De-assert active domain reset and enable clock buffer in MXD Radio */
 600:Generated_Source\PSoC6\pdl\middleware\ble/cy_ble_clk.c ****     do
 601:Generated_Source\PSoC6\pdl\middleware\ble/cy_ble_clk.c ****     {
 602:Generated_Source\PSoC6\pdl\middleware\ble/cy_ble_clk.c ****         status = Cy_BLE_HAL_RcbRegWrite(CY_BLE_PMU_MODE_TRANSITION_REG, CY_BLE_MXD_RADIO_CLK_BUF_EN
 219              		.loc 1 602 0
 220 0008 C021     		movs	r1, #192
 221 000a 4901     		lsls	r1, r1, #5
 222 000c 7548     		ldr	r0, .L42
 223 000e FFF7FEFF 		bl	Cy_BLE_HAL_RcbRegWrite
 224              	.LVL26:
 603:Generated_Source\PSoC6\pdl\middleware\ble/cy_ble_clk.c ****         if(status == CY_BLE_ECO_SUCCESS)
 225              		.loc 1 603 0
 226 0012 0028     		cmp	r0, #0
 227 0014 04D1     		bne	.L18
 604:Generated_Source\PSoC6\pdl\middleware\ble/cy_ble_clk.c ****         {
 605:Generated_Source\PSoC6\pdl\middleware\ble/cy_ble_clk.c ****             status = Cy_BLE_HAL_RcbRegRead(CY_BLE_PMU_MODE_TRANSITION_REG, &temp);
 228              		.loc 1 605 0
 229 0016 6B46     		mov	r3, sp
 230 0018 991D     		adds	r1, r3, #6
 231 001a 7248     		ldr	r0, .L42
 232              	.LVL27:
 233 001c FFF7FEFF 		bl	Cy_BLE_HAL_RcbRegRead
 234              	.LVL28:
 235              	.L18:
 606:Generated_Source\PSoC6\pdl\middleware\ble/cy_ble_clk.c ****         }
 607:Generated_Source\PSoC6\pdl\middleware\ble/cy_ble_clk.c ****         if(retries > 0U)
 236              		.loc 1 607 0
 237 0020 002C     		cmp	r4, #0
 238 0022 01D0     		beq	.L37
 608:Generated_Source\PSoC6\pdl\middleware\ble/cy_ble_clk.c ****         {
 609:Generated_Source\PSoC6\pdl\middleware\ble/cy_ble_clk.c ****             retries--;
ARM GAS  C:\Users\Agentos\AppData\Local\Temp\ccEAbd3r.s 			page 16


 239              		.loc 1 609 0
 240 0024 013C     		subs	r4, r4, #1
 241              	.LVL29:
 242 0026 00E0     		b	.L19
 243              	.L37:
 610:Generated_Source\PSoC6\pdl\middleware\ble/cy_ble_clk.c ****         }
 611:Generated_Source\PSoC6\pdl\middleware\ble/cy_ble_clk.c ****         else
 612:Generated_Source\PSoC6\pdl\middleware\ble/cy_ble_clk.c ****         {
 613:Generated_Source\PSoC6\pdl\middleware\ble/cy_ble_clk.c ****             status = CY_BLE_ECO_HARDWARE_ERROR;
 244              		.loc 1 613 0
 245 0028 6F48     		ldr	r0, .L42+4
 246              	.LVL30:
 247              	.L19:
 614:Generated_Source\PSoC6\pdl\middleware\ble/cy_ble_clk.c ****         }
 615:Generated_Source\PSoC6\pdl\middleware\ble/cy_ble_clk.c ****     }
 616:Generated_Source\PSoC6\pdl\middleware\ble/cy_ble_clk.c ****     while((status == CY_BLE_ECO_SUCCESS) && (temp != CY_BLE_MXD_RADIO_CLK_BUF_EN_VAL));
 248              		.loc 1 616 0
 249 002a 0028     		cmp	r0, #0
 250 002c 05D1     		bne	.L20
 251              		.loc 1 616 0 is_stmt 0 discriminator 1
 252 002e 6B46     		mov	r3, sp
 253 0030 DA88     		ldrh	r2, [r3, #6]
 254 0032 C023     		movs	r3, #192
 255 0034 5B01     		lsls	r3, r3, #5
 256 0036 9A42     		cmp	r2, r3
 257 0038 E6D1     		bne	.L21
 258              	.L20:
 617:Generated_Source\PSoC6\pdl\middleware\ble/cy_ble_clk.c **** 
 618:Generated_Source\PSoC6\pdl\middleware\ble/cy_ble_clk.c ****     /* Check if ECO clock output is enabled
 619:Generated_Source\PSoC6\pdl\middleware\ble/cy_ble_clk.c ****      * In MXD_VER2, ECO clock is stopped on overwriting this bit */
 620:Generated_Source\PSoC6\pdl\middleware\ble/cy_ble_clk.c ****     if(status == CY_BLE_ECO_SUCCESS)
 259              		.loc 1 620 0 is_stmt 1
 260 003a 0028     		cmp	r0, #0
 261 003c 25D1     		bne	.L22
 262              	.LVL31:
 621:Generated_Source\PSoC6\pdl\middleware\ble/cy_ble_clk.c ****     {
 622:Generated_Source\PSoC6\pdl\middleware\ble/cy_ble_clk.c ****         retries = CY_BLE_RCB_RETRIES;
 623:Generated_Source\PSoC6\pdl\middleware\ble/cy_ble_clk.c ****         status = Cy_BLE_HAL_RcbRegRead(CY_BLE_PMU_PMU_CTRL_REG, &temp);
 263              		.loc 1 623 0
 264 003e 6B46     		mov	r3, sp
 265 0040 991D     		adds	r1, r3, #6
 266 0042 6A48     		ldr	r0, .L42+8
 267              	.LVL32:
 268 0044 FFF7FEFF 		bl	Cy_BLE_HAL_RcbRegRead
 269              	.LVL33:
 624:Generated_Source\PSoC6\pdl\middleware\ble/cy_ble_clk.c ****         if((status == CY_BLE_ECO_SUCCESS) && ((temp & CY_BLE_MXD_RADIO_DIG_CLK_OUT_EN_VAL) == 0U)) 
 270              		.loc 1 624 0
 271 0048 0028     		cmp	r0, #0
 272 004a 1ED1     		bne	.L22
 273              		.loc 1 624 0 is_stmt 0 discriminator 1
 274 004c 6B46     		mov	r3, sp
 275 004e 0633     		adds	r3, r3, #6
 276 0050 1B88     		ldrh	r3, [r3]
 277 0052 5B05     		lsls	r3, r3, #21
 278 0054 19D4     		bmi	.L22
 279 0056 0A24     		movs	r4, #10
 280              	.LVL34:
ARM GAS  C:\Users\Agentos\AppData\Local\Temp\ccEAbd3r.s 			page 17


 281              	.L25:
 625:Generated_Source\PSoC6\pdl\middleware\ble/cy_ble_clk.c ****         {
 626:Generated_Source\PSoC6\pdl\middleware\ble/cy_ble_clk.c ****             /* Enable digital ECO clock output from MXD Radio to BLESS */
 627:Generated_Source\PSoC6\pdl\middleware\ble/cy_ble_clk.c ****             do
 628:Generated_Source\PSoC6\pdl\middleware\ble/cy_ble_clk.c ****             {
 629:Generated_Source\PSoC6\pdl\middleware\ble/cy_ble_clk.c ****                 status = Cy_BLE_HAL_RcbRegWrite(CY_BLE_PMU_PMU_CTRL_REG, CY_BLE_MXD_RADIO_DIG_CLK_O
 282              		.loc 1 629 0 is_stmt 1
 283 0058 8021     		movs	r1, #128
 284 005a C900     		lsls	r1, r1, #3
 285 005c 6348     		ldr	r0, .L42+8
 286              	.LVL35:
 287 005e FFF7FEFF 		bl	Cy_BLE_HAL_RcbRegWrite
 288              	.LVL36:
 630:Generated_Source\PSoC6\pdl\middleware\ble/cy_ble_clk.c ****                 if(status == CY_BLE_ECO_SUCCESS)
 289              		.loc 1 630 0
 290 0062 0028     		cmp	r0, #0
 291 0064 04D1     		bne	.L23
 631:Generated_Source\PSoC6\pdl\middleware\ble/cy_ble_clk.c ****                 {
 632:Generated_Source\PSoC6\pdl\middleware\ble/cy_ble_clk.c ****                     status = Cy_BLE_HAL_RcbRegRead(CY_BLE_PMU_PMU_CTRL_REG, &temp);
 292              		.loc 1 632 0
 293 0066 6B46     		mov	r3, sp
 294 0068 991D     		adds	r1, r3, #6
 295 006a 6048     		ldr	r0, .L42+8
 296              	.LVL37:
 297 006c FFF7FEFF 		bl	Cy_BLE_HAL_RcbRegRead
 298              	.LVL38:
 299              	.L23:
 633:Generated_Source\PSoC6\pdl\middleware\ble/cy_ble_clk.c ****                 }
 634:Generated_Source\PSoC6\pdl\middleware\ble/cy_ble_clk.c ****                 if(retries > 0U)
 300              		.loc 1 634 0
 301 0070 002C     		cmp	r4, #0
 302 0072 01D0     		beq	.L38
 635:Generated_Source\PSoC6\pdl\middleware\ble/cy_ble_clk.c ****                 {
 636:Generated_Source\PSoC6\pdl\middleware\ble/cy_ble_clk.c ****                     retries--;
 303              		.loc 1 636 0
 304 0074 013C     		subs	r4, r4, #1
 305              	.LVL39:
 306 0076 00E0     		b	.L24
 307              	.L38:
 637:Generated_Source\PSoC6\pdl\middleware\ble/cy_ble_clk.c ****                 }
 638:Generated_Source\PSoC6\pdl\middleware\ble/cy_ble_clk.c ****                 else
 639:Generated_Source\PSoC6\pdl\middleware\ble/cy_ble_clk.c ****                 {
 640:Generated_Source\PSoC6\pdl\middleware\ble/cy_ble_clk.c ****                     status = CY_BLE_ECO_HARDWARE_ERROR;
 308              		.loc 1 640 0
 309 0078 5B48     		ldr	r0, .L42+4
 310              	.LVL40:
 311              	.L24:
 641:Generated_Source\PSoC6\pdl\middleware\ble/cy_ble_clk.c ****                 }
 642:Generated_Source\PSoC6\pdl\middleware\ble/cy_ble_clk.c ****             }
 643:Generated_Source\PSoC6\pdl\middleware\ble/cy_ble_clk.c ****             while((status == CY_BLE_ECO_SUCCESS) && (temp != CY_BLE_MXD_RADIO_DIG_CLK_OUT_EN_VAL));
 312              		.loc 1 643 0
 313 007a 0028     		cmp	r0, #0
 314 007c 05D1     		bne	.L22
 315              		.loc 1 643 0 is_stmt 0 discriminator 1
 316 007e 6B46     		mov	r3, sp
 317 0080 DA88     		ldrh	r2, [r3, #6]
 318 0082 8023     		movs	r3, #128
ARM GAS  C:\Users\Agentos\AppData\Local\Temp\ccEAbd3r.s 			page 18


 319 0084 DB00     		lsls	r3, r3, #3
 320 0086 9A42     		cmp	r2, r3
 321 0088 E6D1     		bne	.L25
 322              	.LVL41:
 323              	.L22:
 644:Generated_Source\PSoC6\pdl\middleware\ble/cy_ble_clk.c ****         }
 645:Generated_Source\PSoC6\pdl\middleware\ble/cy_ble_clk.c ****     }
 646:Generated_Source\PSoC6\pdl\middleware\ble/cy_ble_clk.c **** 
 647:Generated_Source\PSoC6\pdl\middleware\ble/cy_ble_clk.c ****     /* Configure ECO clock frequency and clock divider in MXD Radio */
 648:Generated_Source\PSoC6\pdl\middleware\ble/cy_ble_clk.c ****     if(status == CY_BLE_ECO_SUCCESS)
 324              		.loc 1 648 0 is_stmt 1
 325 008a 0028     		cmp	r0, #0
 326 008c 04D1     		bne	.L26
 649:Generated_Source\PSoC6\pdl\middleware\ble/cy_ble_clk.c ****     {
 650:Generated_Source\PSoC6\pdl\middleware\ble/cy_ble_clk.c ****         /* Read the MXD Radio register */
 651:Generated_Source\PSoC6\pdl\middleware\ble/cy_ble_clk.c ****         status = Cy_BLE_HAL_RcbRegRead(CY_BLE_RF_DCXO_BUF_CFG_REG, &temp);
 327              		.loc 1 651 0
 328 008e 6B46     		mov	r3, sp
 329 0090 991D     		adds	r1, r3, #6
 330 0092 5748     		ldr	r0, .L42+12
 331              	.LVL42:
 332 0094 FFF7FEFF 		bl	Cy_BLE_HAL_RcbRegRead
 333              	.LVL43:
 334              	.L26:
 652:Generated_Source\PSoC6\pdl\middleware\ble/cy_ble_clk.c ****     }
 653:Generated_Source\PSoC6\pdl\middleware\ble/cy_ble_clk.c ****     if(status == CY_BLE_ECO_SUCCESS)
 335              		.loc 1 653 0
 336 0098 0028     		cmp	r0, #0
 337 009a 44D1     		bne	.L27
 338              	.LVL44:
 339              	.LBB18:
 654:Generated_Source\PSoC6\pdl\middleware\ble/cy_ble_clk.c ****     {
 655:Generated_Source\PSoC6\pdl\middleware\ble/cy_ble_clk.c ****         uint16_t blerdDivider;
 656:Generated_Source\PSoC6\pdl\middleware\ble/cy_ble_clk.c ****         uint16_t ecoSysDivider;
 657:Generated_Source\PSoC6\pdl\middleware\ble/cy_ble_clk.c ****         uint16_t blellDivider = 0U;
 658:Generated_Source\PSoC6\pdl\middleware\ble/cy_ble_clk.c **** 
 659:Generated_Source\PSoC6\pdl\middleware\ble/cy_ble_clk.c ****         /* Clear clock divider and select amp buffer output bits */
 660:Generated_Source\PSoC6\pdl\middleware\ble/cy_ble_clk.c ****         temp &= CY_LO16(~((CY_BLE_RF_DCXO_BUF_CFG_REG_CLK_DIV_MASK << CY_BLE_RF_DCXO_BUF_CFG_REG_CL
 340              		.loc 1 660 0
 341 009c 6B46     		mov	r3, sp
 342 009e 0633     		adds	r3, r3, #6
 343 00a0 1B88     		ldrh	r3, [r3]
 344 00a2 3F22     		movs	r2, #63
 345 00a4 9343     		bics	r3, r2
 661:Generated_Source\PSoC6\pdl\middleware\ble/cy_ble_clk.c ****                           (CY_BLE_RF_DCXO_BUF_CFG_REG_BUF_AMP_SEL_MASK << CY_BLE_RF_DCXO_BUF_CFG_RE
 662:Generated_Source\PSoC6\pdl\middleware\ble/cy_ble_clk.c **** 
 663:Generated_Source\PSoC6\pdl\middleware\ble/cy_ble_clk.c ****         /* Total ECO divider consist of divider located on BLERD and BLESS divider
 664:Generated_Source\PSoC6\pdl\middleware\ble/cy_ble_clk.c ****          * Set BLERD divider to maximum value taking in to account that 8 MHz is required for BLELL
 665:Generated_Source\PSoC6\pdl\middleware\ble/cy_ble_clk.c ****          * BLELL clock frequency is set to 8 MHz irrespective of the crystal value.
 666:Generated_Source\PSoC6\pdl\middleware\ble/cy_ble_clk.c ****          */
 667:Generated_Source\PSoC6\pdl\middleware\ble/cy_ble_clk.c ****         if(ecoConfig->ecoFreq == CY_BLE_BLESS_ECO_FREQ_32MHZ)
 346              		.loc 1 667 0
 347 00a6 B278     		ldrb	r2, [r6, #2]
 348 00a8 012A     		cmp	r2, #1
 349 00aa 15D1     		bne	.L28
 668:Generated_Source\PSoC6\pdl\middleware\ble/cy_ble_clk.c ****         {
 669:Generated_Source\PSoC6\pdl\middleware\ble/cy_ble_clk.c ****             if(ecoConfig->ecoSysDiv >= CY_BLE_SYS_ECO_CLK_DIV_4)
ARM GAS  C:\Users\Agentos\AppData\Local\Temp\ccEAbd3r.s 			page 19


 350              		.loc 1 669 0
 351 00ac F178     		ldrb	r1, [r6, #3]
 352 00ae 0129     		cmp	r1, #1
 353 00b0 04D8     		bhi	.L39
 670:Generated_Source\PSoC6\pdl\middleware\ble/cy_ble_clk.c ****             {
 671:Generated_Source\PSoC6\pdl\middleware\ble/cy_ble_clk.c ****                 blerdDivider = (uint16_t)CY_BLE_MXD_RADIO_CLK_DIV_4;
 672:Generated_Source\PSoC6\pdl\middleware\ble/cy_ble_clk.c ****             }
 673:Generated_Source\PSoC6\pdl\middleware\ble/cy_ble_clk.c ****             else
 674:Generated_Source\PSoC6\pdl\middleware\ble/cy_ble_clk.c ****             {
 675:Generated_Source\PSoC6\pdl\middleware\ble/cy_ble_clk.c ****                 blerdDivider = (uint16_t)ecoConfig->ecoSysDiv;
 354              		.loc 1 675 0
 355 00b2 8FB2     		uxth	r7, r1
 356              	.LVL45:
 676:Generated_Source\PSoC6\pdl\middleware\ble/cy_ble_clk.c ****                 blellDivider = (uint16_t)CY_BLE_MXD_RADIO_CLK_DIV_4 - blerdDivider;
 357              		.loc 1 676 0
 358 00b4 0222     		movs	r2, #2
 359 00b6 D21B     		subs	r2, r2, r7
 360 00b8 95B2     		uxth	r5, r2
 361              	.LVL46:
 362 00ba 01E0     		b	.L29
 363              	.LVL47:
 364              	.L39:
 657:Generated_Source\PSoC6\pdl\middleware\ble/cy_ble_clk.c **** 
 365              		.loc 1 657 0
 366 00bc 0025     		movs	r5, #0
 671:Generated_Source\PSoC6\pdl\middleware\ble/cy_ble_clk.c ****             }
 367              		.loc 1 671 0
 368 00be 0227     		movs	r7, #2
 369              	.LVL48:
 370              	.L29:
 677:Generated_Source\PSoC6\pdl\middleware\ble/cy_ble_clk.c ****             }
 678:Generated_Source\PSoC6\pdl\middleware\ble/cy_ble_clk.c ****             temp |= CY_BLE_RF_DCXO_BUF_CFG_REG_XTAL_32M_SEL_BIT;
 371              		.loc 1 678 0
 372 00c0 4022     		movs	r2, #64
 373 00c2 1343     		orrs	r3, r2
 374 00c4 9BB2     		uxth	r3, r3
 679:Generated_Source\PSoC6\pdl\middleware\ble/cy_ble_clk.c ****             temp |= (uint16_t)(CY_BLE_MXD_RADIO_CLK_BUF_AMP_32M_LARGE << CY_BLE_RF_DCXO_BUF_CFG_REG
 375              		.loc 1 679 0
 376 00c6 3022     		movs	r2, #48
 377 00c8 1343     		orrs	r3, r2
 378 00ca 6A46     		mov	r2, sp
 379 00cc D380     		strh	r3, [r2, #6]
 680:Generated_Source\PSoC6\pdl\middleware\ble/cy_ble_clk.c **** 
 681:Generated_Source\PSoC6\pdl\middleware\ble/cy_ble_clk.c ****             /* Update cy_BleEcoClockFreqHz for the proper Cy_SysLib_Delay functionality */
 682:Generated_Source\PSoC6\pdl\middleware\ble/cy_ble_clk.c ****             cy_BleEcoClockFreqHz = CY_BLE_DEFAULT_ECO_CLK_FREQ_32MHZ / (1UL << (uint16_t)ecoConfig-
 380              		.loc 1 682 0
 381 00ce 494B     		ldr	r3, .L42+16
 382 00d0 CB40     		lsrs	r3, r3, r1
 383 00d2 494A     		ldr	r2, .L42+20
 384 00d4 1360     		str	r3, [r2]
 385 00d6 13E0     		b	.L30
 386              	.LVL49:
 387              	.L28:
 683:Generated_Source\PSoC6\pdl\middleware\ble/cy_ble_clk.c ****         }
 684:Generated_Source\PSoC6\pdl\middleware\ble/cy_ble_clk.c ****         else
 685:Generated_Source\PSoC6\pdl\middleware\ble/cy_ble_clk.c ****         {
 686:Generated_Source\PSoC6\pdl\middleware\ble/cy_ble_clk.c ****             if(ecoConfig->ecoSysDiv >= CY_BLE_SYS_ECO_CLK_DIV_2)
ARM GAS  C:\Users\Agentos\AppData\Local\Temp\ccEAbd3r.s 			page 20


 388              		.loc 1 686 0
 389 00d8 F178     		ldrb	r1, [r6, #3]
 390 00da 0029     		cmp	r1, #0
 391 00dc 04D1     		bne	.L40
 687:Generated_Source\PSoC6\pdl\middleware\ble/cy_ble_clk.c ****             {
 688:Generated_Source\PSoC6\pdl\middleware\ble/cy_ble_clk.c ****                 blerdDivider = (uint16_t)CY_BLE_MXD_RADIO_CLK_DIV_2;
 689:Generated_Source\PSoC6\pdl\middleware\ble/cy_ble_clk.c ****             }
 690:Generated_Source\PSoC6\pdl\middleware\ble/cy_ble_clk.c ****             else
 691:Generated_Source\PSoC6\pdl\middleware\ble/cy_ble_clk.c ****             {
 692:Generated_Source\PSoC6\pdl\middleware\ble/cy_ble_clk.c ****                 blerdDivider = (uint16_t)ecoConfig->ecoSysDiv;
 392              		.loc 1 692 0
 393 00de 8FB2     		uxth	r7, r1
 394              	.LVL50:
 693:Generated_Source\PSoC6\pdl\middleware\ble/cy_ble_clk.c ****                 blellDivider = (uint16_t)CY_BLE_MXD_RADIO_CLK_DIV_2 - blerdDivider;
 395              		.loc 1 693 0
 396 00e0 0122     		movs	r2, #1
 397 00e2 D21B     		subs	r2, r2, r7
 398 00e4 95B2     		uxth	r5, r2
 399              	.LVL51:
 400 00e6 01E0     		b	.L31
 401              	.LVL52:
 402              	.L40:
 657:Generated_Source\PSoC6\pdl\middleware\ble/cy_ble_clk.c **** 
 403              		.loc 1 657 0
 404 00e8 0025     		movs	r5, #0
 688:Generated_Source\PSoC6\pdl\middleware\ble/cy_ble_clk.c ****             }
 405              		.loc 1 688 0
 406 00ea 0127     		movs	r7, #1
 407              	.LVL53:
 408              	.L31:
 694:Generated_Source\PSoC6\pdl\middleware\ble/cy_ble_clk.c ****             }
 695:Generated_Source\PSoC6\pdl\middleware\ble/cy_ble_clk.c ****             temp &= (uint16_t) ~CY_BLE_RF_DCXO_BUF_CFG_REG_XTAL_32M_SEL_BIT;
 409              		.loc 1 695 0
 410 00ec 4022     		movs	r2, #64
 411 00ee 9343     		bics	r3, r2
 696:Generated_Source\PSoC6\pdl\middleware\ble/cy_ble_clk.c ****             temp |= (uint16_t)(CY_BLE_MXD_RADIO_CLK_BUF_AMP_16M_LARGE << CY_BLE_RF_DCXO_BUF_CFG_REG
 412              		.loc 1 696 0
 413 00f0 1022     		movs	r2, #16
 414 00f2 1343     		orrs	r3, r2
 415 00f4 6A46     		mov	r2, sp
 416 00f6 D380     		strh	r3, [r2, #6]
 697:Generated_Source\PSoC6\pdl\middleware\ble/cy_ble_clk.c **** 
 698:Generated_Source\PSoC6\pdl\middleware\ble/cy_ble_clk.c ****             /* Update cy_BleEcoClockFreqHz for the proper Cy_SysLib_Delay functionality */
 699:Generated_Source\PSoC6\pdl\middleware\ble/cy_ble_clk.c ****             cy_BleEcoClockFreqHz = CY_BLE_DEFAULT_ECO_CLK_FREQ_16MHZ / (1UL << (uint16_t)ecoConfig-
 417              		.loc 1 699 0
 418 00f8 404B     		ldr	r3, .L42+24
 419 00fa CB40     		lsrs	r3, r3, r1
 420 00fc 3E4A     		ldr	r2, .L42+20
 421 00fe 1360     		str	r3, [r2]
 422              	.L30:
 700:Generated_Source\PSoC6\pdl\middleware\ble/cy_ble_clk.c ****         }
 701:Generated_Source\PSoC6\pdl\middleware\ble/cy_ble_clk.c **** 
 702:Generated_Source\PSoC6\pdl\middleware\ble/cy_ble_clk.c ****         temp |= (uint16_t)(blerdDivider << CY_BLE_RF_DCXO_BUF_CFG_REG_CLK_DIV_SHIFT);
 423              		.loc 1 702 0
 424 0100 6B46     		mov	r3, sp
 425 0102 9C1D     		adds	r4, r3, #6
 426 0104 D988     		ldrh	r1, [r3, #6]
ARM GAS  C:\Users\Agentos\AppData\Local\Temp\ccEAbd3r.s 			page 21


 427 0106 3943     		orrs	r1, r7
 428 0108 D980     		strh	r1, [r3, #6]
 703:Generated_Source\PSoC6\pdl\middleware\ble/cy_ble_clk.c ****         
 704:Generated_Source\PSoC6\pdl\middleware\ble/cy_ble_clk.c ****         /* Write the MXD Radio register */
 705:Generated_Source\PSoC6\pdl\middleware\ble/cy_ble_clk.c ****         status = Cy_BLE_HAL_RcbRegWrite(CY_BLE_RF_DCXO_BUF_CFG_REG, temp);
 429              		.loc 1 705 0
 430 010a 3948     		ldr	r0, .L42+12
 431              	.LVL54:
 432 010c FFF7FEFF 		bl	Cy_BLE_HAL_RcbRegWrite
 433              	.LVL55:
 706:Generated_Source\PSoC6\pdl\middleware\ble/cy_ble_clk.c ****         
 707:Generated_Source\PSoC6\pdl\middleware\ble/cy_ble_clk.c ****         /* Reduce BLESS divider by BLERD divider value */
 708:Generated_Source\PSoC6\pdl\middleware\ble/cy_ble_clk.c ****         ecoSysDivider = (uint16_t)ecoConfig->ecoSysDiv - blerdDivider;
 434              		.loc 1 708 0
 435 0110 F378     		ldrb	r3, [r6, #3]
 436 0112 DB1B     		subs	r3, r3, r7
 437              	.LVL56:
 709:Generated_Source\PSoC6\pdl\middleware\ble/cy_ble_clk.c ****         temp = (uint16_t)(ecoSysDivider & BLE_BLESS_XTAL_CLK_DIV_CONFIG_SYSCLK_DIV_Msk);
 438              		.loc 1 709 0
 439 0114 0322     		movs	r2, #3
 440 0116 1340     		ands	r3, r2
 441              	.LVL57:
 710:Generated_Source\PSoC6\pdl\middleware\ble/cy_ble_clk.c ****         temp |= (uint16_t)(blellDivider << BLE_BLESS_XTAL_CLK_DIV_CONFIG_LLCLK_DIV_Pos);
 442              		.loc 1 710 0
 443 0118 AA00     		lsls	r2, r5, #2
 444 011a 92B2     		uxth	r2, r2
 445 011c 1343     		orrs	r3, r2
 446 011e 2380     		strh	r3, [r4]
 447              	.LVL58:
 711:Generated_Source\PSoC6\pdl\middleware\ble/cy_ble_clk.c **** 
 712:Generated_Source\PSoC6\pdl\middleware\ble/cy_ble_clk.c ****         /* Set clock divider */
 713:Generated_Source\PSoC6\pdl\middleware\ble/cy_ble_clk.c ****         BLE->BLESS.XTAL_CLK_DIV_CONFIG = temp;
 448              		.loc 1 713 0
 449 0120 374A     		ldr	r2, .L42+28
 450 0122 3849     		ldr	r1, .L42+32
 451 0124 8B50     		str	r3, [r1, r2]
 452              	.LVL59:
 453              	.L27:
 454              	.LBE18:
 455              	.LBB19:
 456              	.LBB20:
 457              		.file 2 "Generated_Source\\PSoC6\\pdl\\drivers/peripheral/syslib/cy_syslib.h"
   1:Generated_Source\PSoC6\pdl\drivers/peripheral/syslib/cy_syslib.h **** /***************************************************************************//**
   2:Generated_Source\PSoC6\pdl\drivers/peripheral/syslib/cy_syslib.h **** * \file cy_syslib.h
   3:Generated_Source\PSoC6\pdl\drivers/peripheral/syslib/cy_syslib.h **** * \version 2.10
   4:Generated_Source\PSoC6\pdl\drivers/peripheral/syslib/cy_syslib.h **** *
   5:Generated_Source\PSoC6\pdl\drivers/peripheral/syslib/cy_syslib.h **** * Provides an API declaration of the SysLib driver.
   6:Generated_Source\PSoC6\pdl\drivers/peripheral/syslib/cy_syslib.h **** *
   7:Generated_Source\PSoC6\pdl\drivers/peripheral/syslib/cy_syslib.h **** ********************************************************************************
   8:Generated_Source\PSoC6\pdl\drivers/peripheral/syslib/cy_syslib.h **** * \copyright
   9:Generated_Source\PSoC6\pdl\drivers/peripheral/syslib/cy_syslib.h **** * Copyright 2016-2018, Cypress Semiconductor Corporation. All rights reserved.
  10:Generated_Source\PSoC6\pdl\drivers/peripheral/syslib/cy_syslib.h **** * You may use this file only in accordance with the license, terms, conditions,
  11:Generated_Source\PSoC6\pdl\drivers/peripheral/syslib/cy_syslib.h **** * disclaimers, and limitations in the end user license agreement accompanying
  12:Generated_Source\PSoC6\pdl\drivers/peripheral/syslib/cy_syslib.h **** * the software package with which this file was provided.
  13:Generated_Source\PSoC6\pdl\drivers/peripheral/syslib/cy_syslib.h **** *******************************************************************************/
  14:Generated_Source\PSoC6\pdl\drivers/peripheral/syslib/cy_syslib.h **** 
  15:Generated_Source\PSoC6\pdl\drivers/peripheral/syslib/cy_syslib.h **** /**
ARM GAS  C:\Users\Agentos\AppData\Local\Temp\ccEAbd3r.s 			page 22


  16:Generated_Source\PSoC6\pdl\drivers/peripheral/syslib/cy_syslib.h **** * \addtogroup group_syslib
  17:Generated_Source\PSoC6\pdl\drivers/peripheral/syslib/cy_syslib.h **** * \{
  18:Generated_Source\PSoC6\pdl\drivers/peripheral/syslib/cy_syslib.h **** * The system libraries provide APIs that can be called in the user application
  19:Generated_Source\PSoC6\pdl\drivers/peripheral/syslib/cy_syslib.h **** * to handle the timing, logical checking or register.
  20:Generated_Source\PSoC6\pdl\drivers/peripheral/syslib/cy_syslib.h **** *
  21:Generated_Source\PSoC6\pdl\drivers/peripheral/syslib/cy_syslib.h **** * The functions and other declarations used in this driver are in cy_syslib.h. 
  22:Generated_Source\PSoC6\pdl\drivers/peripheral/syslib/cy_syslib.h **** * You can include cy_pdl.h (ModusToolbox only) to get access to all functions 
  23:Generated_Source\PSoC6\pdl\drivers/peripheral/syslib/cy_syslib.h **** * and declarations in the PDL. 
  24:Generated_Source\PSoC6\pdl\drivers/peripheral/syslib/cy_syslib.h **** *
  25:Generated_Source\PSoC6\pdl\drivers/peripheral/syslib/cy_syslib.h **** * The SysLib driver contains a set of different system functions. These functions
  26:Generated_Source\PSoC6\pdl\drivers/peripheral/syslib/cy_syslib.h **** * can be called in the application routine. Major features of the system library:
  27:Generated_Source\PSoC6\pdl\drivers/peripheral/syslib/cy_syslib.h **** * * Delay functions
  28:Generated_Source\PSoC6\pdl\drivers/peripheral/syslib/cy_syslib.h **** * * The register Read/Write macro
  29:Generated_Source\PSoC6\pdl\drivers/peripheral/syslib/cy_syslib.h **** * * Assert and Halt
  30:Generated_Source\PSoC6\pdl\drivers/peripheral/syslib/cy_syslib.h **** * * Assert Classes and Levels
  31:Generated_Source\PSoC6\pdl\drivers/peripheral/syslib/cy_syslib.h **** * * A software reset
  32:Generated_Source\PSoC6\pdl\drivers/peripheral/syslib/cy_syslib.h **** * * Reading the reset cause
  33:Generated_Source\PSoC6\pdl\drivers/peripheral/syslib/cy_syslib.h **** * * An API to invalidate the flash cache and buffer
  34:Generated_Source\PSoC6\pdl\drivers/peripheral/syslib/cy_syslib.h **** * * Data manipulation macro
  35:Generated_Source\PSoC6\pdl\drivers/peripheral/syslib/cy_syslib.h **** * * A variable type definition from MISRA-C which specifies signedness
  36:Generated_Source\PSoC6\pdl\drivers/peripheral/syslib/cy_syslib.h **** * * Cross compiler compatible attributes
  37:Generated_Source\PSoC6\pdl\drivers/peripheral/syslib/cy_syslib.h **** * * Getting a silicon-unique ID API
  38:Generated_Source\PSoC6\pdl\drivers/peripheral/syslib/cy_syslib.h **** * * Setting wait states API
  39:Generated_Source\PSoC6\pdl\drivers/peripheral/syslib/cy_syslib.h **** * * Resetting the backup domain API
  40:Generated_Source\PSoC6\pdl\drivers/peripheral/syslib/cy_syslib.h **** * * APIs to serve Fault handler
  41:Generated_Source\PSoC6\pdl\drivers/peripheral/syslib/cy_syslib.h **** *
  42:Generated_Source\PSoC6\pdl\drivers/peripheral/syslib/cy_syslib.h **** * \section group_syslib_configuration Configuration Considerations
  43:Generated_Source\PSoC6\pdl\drivers/peripheral/syslib/cy_syslib.h **** * <b> Assertion Usage </b> <br />
  44:Generated_Source\PSoC6\pdl\drivers/peripheral/syslib/cy_syslib.h **** * Use the CY_ASSERT() macro to check expressions that must be true as long as the
  45:Generated_Source\PSoC6\pdl\drivers/peripheral/syslib/cy_syslib.h **** * program is running correctly. It is a convenient way to insert sanity checks.
  46:Generated_Source\PSoC6\pdl\drivers/peripheral/syslib/cy_syslib.h **** * The CY_ASSERT() macro is defined in the cy_syslib.h file which is part of
  47:Generated_Source\PSoC6\pdl\drivers/peripheral/syslib/cy_syslib.h **** * the PDL library. The behavior of the macro is as follows: if the expression
  48:Generated_Source\PSoC6\pdl\drivers/peripheral/syslib/cy_syslib.h **** * passed to the macro is false, output an error message that includes the file
  49:Generated_Source\PSoC6\pdl\drivers/peripheral/syslib/cy_syslib.h **** * name and line number, and then halts the CPU. \n
  50:Generated_Source\PSoC6\pdl\drivers/peripheral/syslib/cy_syslib.h **** * In case of fault, the CY_ASSERT() macro calls the Cy_SysLib_AssertFailed() function.
  51:Generated_Source\PSoC6\pdl\drivers/peripheral/syslib/cy_syslib.h **** * This is a weakly linked function. The default implementation stores the file
  52:Generated_Source\PSoC6\pdl\drivers/peripheral/syslib/cy_syslib.h **** * name and line number of the ASSERT into global variables, cy_assertFileName
  53:Generated_Source\PSoC6\pdl\drivers/peripheral/syslib/cy_syslib.h **** * and cy_assertLine . It then calls the Cy_SysLib_Halt() function.
  54:Generated_Source\PSoC6\pdl\drivers/peripheral/syslib/cy_syslib.h **** * \note Firmware can redefine the Cy_SysLib_AssertFailed() function for custom processing.
  55:Generated_Source\PSoC6\pdl\drivers/peripheral/syslib/cy_syslib.h **** * 
  56:Generated_Source\PSoC6\pdl\drivers/peripheral/syslib/cy_syslib.h **** * The PDL source code uses this assert mechanism extensively. It is recommended
  57:Generated_Source\PSoC6\pdl\drivers/peripheral/syslib/cy_syslib.h **** * that you enable asserts when debugging firmware. \n
  58:Generated_Source\PSoC6\pdl\drivers/peripheral/syslib/cy_syslib.h **** * <b> Assertion Classes and Levels </b> <br />
  59:Generated_Source\PSoC6\pdl\drivers/peripheral/syslib/cy_syslib.h **** * The PDL defines three assert classes, which correspond to different kinds
  60:Generated_Source\PSoC6\pdl\drivers/peripheral/syslib/cy_syslib.h **** * of parameters. There is a corresponding assert "level" for each class.
  61:Generated_Source\PSoC6\pdl\drivers/peripheral/syslib/cy_syslib.h **** * <table class="doxtable">
  62:Generated_Source\PSoC6\pdl\drivers/peripheral/syslib/cy_syslib.h **** *   <tr><th>Class Macro</th><th>Level Macro</th><th>Type of check</th></tr>
  63:Generated_Source\PSoC6\pdl\drivers/peripheral/syslib/cy_syslib.h **** *   <tr>
  64:Generated_Source\PSoC6\pdl\drivers/peripheral/syslib/cy_syslib.h **** *     <td>CY_ASSERT_CLASS_1</td>
  65:Generated_Source\PSoC6\pdl\drivers/peripheral/syslib/cy_syslib.h **** *     <td>CY_ASSERT_L1</td>
  66:Generated_Source\PSoC6\pdl\drivers/peripheral/syslib/cy_syslib.h **** *     <td>A parameter that could change between different PSoC devices
  67:Generated_Source\PSoC6\pdl\drivers/peripheral/syslib/cy_syslib.h **** *         (e.g. the number of clock paths)</td>
  68:Generated_Source\PSoC6\pdl\drivers/peripheral/syslib/cy_syslib.h **** *   </tr>
  69:Generated_Source\PSoC6\pdl\drivers/peripheral/syslib/cy_syslib.h **** *   <tr>
  70:Generated_Source\PSoC6\pdl\drivers/peripheral/syslib/cy_syslib.h **** *     <td>CY_ASSERT_CLASS_2</td>
  71:Generated_Source\PSoC6\pdl\drivers/peripheral/syslib/cy_syslib.h **** *     <td>CY_ASSERT_L2</td>
  72:Generated_Source\PSoC6\pdl\drivers/peripheral/syslib/cy_syslib.h **** *     <td>A parameter that has fixed limits such as a counter period</td>
ARM GAS  C:\Users\Agentos\AppData\Local\Temp\ccEAbd3r.s 			page 23


  73:Generated_Source\PSoC6\pdl\drivers/peripheral/syslib/cy_syslib.h **** *   </tr>
  74:Generated_Source\PSoC6\pdl\drivers/peripheral/syslib/cy_syslib.h **** *   <tr>
  75:Generated_Source\PSoC6\pdl\drivers/peripheral/syslib/cy_syslib.h **** *     <td>CY_ASSERT_CLASS_3</td>
  76:Generated_Source\PSoC6\pdl\drivers/peripheral/syslib/cy_syslib.h **** *     <td>CY_ASSERT_L3</td>
  77:Generated_Source\PSoC6\pdl\drivers/peripheral/syslib/cy_syslib.h **** *     <td>A parameter that is an enum constant</td>
  78:Generated_Source\PSoC6\pdl\drivers/peripheral/syslib/cy_syslib.h **** *   </tr>
  79:Generated_Source\PSoC6\pdl\drivers/peripheral/syslib/cy_syslib.h **** * </table>
  80:Generated_Source\PSoC6\pdl\drivers/peripheral/syslib/cy_syslib.h **** * Firmware defines which ASSERT class is enabled by defining CY_ASSERT_LEVEL.
  81:Generated_Source\PSoC6\pdl\drivers/peripheral/syslib/cy_syslib.h **** * This is a compiler command line argument, similar to how the DEBUG / NDEBUG
  82:Generated_Source\PSoC6\pdl\drivers/peripheral/syslib/cy_syslib.h **** * macro is passed. \n 
  83:Generated_Source\PSoC6\pdl\drivers/peripheral/syslib/cy_syslib.h **** * Enabling any class also enables any lower-numbered class.
  84:Generated_Source\PSoC6\pdl\drivers/peripheral/syslib/cy_syslib.h **** * CY_ASSERT_CLASS_3 is the default level, and it enables asserts for all three
  85:Generated_Source\PSoC6\pdl\drivers/peripheral/syslib/cy_syslib.h **** * classes. The following example shows the command-line option to enable all
  86:Generated_Source\PSoC6\pdl\drivers/peripheral/syslib/cy_syslib.h **** * the assert levels:
  87:Generated_Source\PSoC6\pdl\drivers/peripheral/syslib/cy_syslib.h **** * \code -D CY_ASSERT_LEVEL=CY_ASSERT_CLASS_3 \endcode
  88:Generated_Source\PSoC6\pdl\drivers/peripheral/syslib/cy_syslib.h **** * \note The use of special characters, such as spaces, parenthesis, etc. must
  89:Generated_Source\PSoC6\pdl\drivers/peripheral/syslib/cy_syslib.h **** * be protected with quotes. 
  90:Generated_Source\PSoC6\pdl\drivers/peripheral/syslib/cy_syslib.h **** * 
  91:Generated_Source\PSoC6\pdl\drivers/peripheral/syslib/cy_syslib.h **** * After CY_ASSERT_LEVEL is defined, firmware can use
  92:Generated_Source\PSoC6\pdl\drivers/peripheral/syslib/cy_syslib.h **** * one of the three level macros to make an assertion. For example, if the
  93:Generated_Source\PSoC6\pdl\drivers/peripheral/syslib/cy_syslib.h **** * parameter can vary between devices, firmware uses the L1 macro.
  94:Generated_Source\PSoC6\pdl\drivers/peripheral/syslib/cy_syslib.h **** * \code CY_ASSERT_L1(clkPath < SRSS_NUM_CLKPATH); \endcode
  95:Generated_Source\PSoC6\pdl\drivers/peripheral/syslib/cy_syslib.h **** * If the parameter has bounds, firmware uses L2.
  96:Generated_Source\PSoC6\pdl\drivers/peripheral/syslib/cy_syslib.h **** * \code CY_ASSERT_L2(trim <= CY_CTB_TRIM_VALUE_MAX); \endcode
  97:Generated_Source\PSoC6\pdl\drivers/peripheral/syslib/cy_syslib.h **** * If the parameter is an enum, firmware uses L3.
  98:Generated_Source\PSoC6\pdl\drivers/peripheral/syslib/cy_syslib.h **** * \code CY_ASSERT_L3(config->LossAction <= CY_SYSCLK_CSV_ERROR_FAULT_RESET); \endcode
  99:Generated_Source\PSoC6\pdl\drivers/peripheral/syslib/cy_syslib.h **** * Each check uses the appropriate level macro for the kind of parameter being checked.
 100:Generated_Source\PSoC6\pdl\drivers/peripheral/syslib/cy_syslib.h **** * If a particular assert class/level is not enabled, then the assert does nothing.
 101:Generated_Source\PSoC6\pdl\drivers/peripheral/syslib/cy_syslib.h **** *
 102:Generated_Source\PSoC6\pdl\drivers/peripheral/syslib/cy_syslib.h **** * \section group_syslib_more_information More Information
 103:Generated_Source\PSoC6\pdl\drivers/peripheral/syslib/cy_syslib.h **** * Refer to the technical reference manual (TRM).
 104:Generated_Source\PSoC6\pdl\drivers/peripheral/syslib/cy_syslib.h **** *
 105:Generated_Source\PSoC6\pdl\drivers/peripheral/syslib/cy_syslib.h **** * \section group_syslib_MISRA MISRA-C Compliance
 106:Generated_Source\PSoC6\pdl\drivers/peripheral/syslib/cy_syslib.h **** * <table class="doxtable">
 107:Generated_Source\PSoC6\pdl\drivers/peripheral/syslib/cy_syslib.h **** *   <tr>
 108:Generated_Source\PSoC6\pdl\drivers/peripheral/syslib/cy_syslib.h **** *     <th>MISRA Rule</th>
 109:Generated_Source\PSoC6\pdl\drivers/peripheral/syslib/cy_syslib.h **** *     <th>Rule Class (Required/Advisory)</th>
 110:Generated_Source\PSoC6\pdl\drivers/peripheral/syslib/cy_syslib.h **** *     <th>Rule Description</th>
 111:Generated_Source\PSoC6\pdl\drivers/peripheral/syslib/cy_syslib.h **** *     <th>Description of Deviation(s)</th>
 112:Generated_Source\PSoC6\pdl\drivers/peripheral/syslib/cy_syslib.h **** *   </tr>
 113:Generated_Source\PSoC6\pdl\drivers/peripheral/syslib/cy_syslib.h **** *   <tr>
 114:Generated_Source\PSoC6\pdl\drivers/peripheral/syslib/cy_syslib.h **** *     <td>1.2</td>
 115:Generated_Source\PSoC6\pdl\drivers/peripheral/syslib/cy_syslib.h **** *     <td>R</td>
 116:Generated_Source\PSoC6\pdl\drivers/peripheral/syslib/cy_syslib.h **** *     <td>No reliance shall be placed on undefined or unspecified behaviour.</td>
 117:Generated_Source\PSoC6\pdl\drivers/peripheral/syslib/cy_syslib.h **** *     <td>This specific behavior is explicitly covered in rule 20.1.</td>
 118:Generated_Source\PSoC6\pdl\drivers/peripheral/syslib/cy_syslib.h **** *   </tr>
 119:Generated_Source\PSoC6\pdl\drivers/peripheral/syslib/cy_syslib.h **** *   <tr>
 120:Generated_Source\PSoC6\pdl\drivers/peripheral/syslib/cy_syslib.h **** *     <td>2.1</td>
 121:Generated_Source\PSoC6\pdl\drivers/peripheral/syslib/cy_syslib.h **** *     <td>R</td>
 122:Generated_Source\PSoC6\pdl\drivers/peripheral/syslib/cy_syslib.h **** *     <td>This function contains a mixture of in-line assembler statements and C statements.</td>
 123:Generated_Source\PSoC6\pdl\drivers/peripheral/syslib/cy_syslib.h **** *     <td>This si required by design of the Cy_SysLib_Halt function.</td>
 124:Generated_Source\PSoC6\pdl\drivers/peripheral/syslib/cy_syslib.h **** *   </tr>
 125:Generated_Source\PSoC6\pdl\drivers/peripheral/syslib/cy_syslib.h **** *   <tr>
 126:Generated_Source\PSoC6\pdl\drivers/peripheral/syslib/cy_syslib.h **** *     <td>18.4</td>
 127:Generated_Source\PSoC6\pdl\drivers/peripheral/syslib/cy_syslib.h **** *     <td>R</td>
 128:Generated_Source\PSoC6\pdl\drivers/peripheral/syslib/cy_syslib.h **** *     <td>Unions shall not be used.</td>
 129:Generated_Source\PSoC6\pdl\drivers/peripheral/syslib/cy_syslib.h **** *     <td>The unions are used for CFSR, HFSR and SHCSR Fault Status Registers
ARM GAS  C:\Users\Agentos\AppData\Local\Temp\ccEAbd3r.s 			page 24


 130:Generated_Source\PSoC6\pdl\drivers/peripheral/syslib/cy_syslib.h **** *         content access as a word in code and as a structure during debug.</td>
 131:Generated_Source\PSoC6\pdl\drivers/peripheral/syslib/cy_syslib.h **** *   </tr>
 132:Generated_Source\PSoC6\pdl\drivers/peripheral/syslib/cy_syslib.h **** *   <tr>
 133:Generated_Source\PSoC6\pdl\drivers/peripheral/syslib/cy_syslib.h **** *     <td>19.13</td>
 134:Generated_Source\PSoC6\pdl\drivers/peripheral/syslib/cy_syslib.h **** *     <td>A</td>
 135:Generated_Source\PSoC6\pdl\drivers/peripheral/syslib/cy_syslib.h **** *     <td>The # and ## operators should not be used.</td>
 136:Generated_Source\PSoC6\pdl\drivers/peripheral/syslib/cy_syslib.h **** *     <td>The ## preprocessor operator is used in macros to form the field mask.</td>
 137:Generated_Source\PSoC6\pdl\drivers/peripheral/syslib/cy_syslib.h **** *   </tr>
 138:Generated_Source\PSoC6\pdl\drivers/peripheral/syslib/cy_syslib.h **** *   <tr>
 139:Generated_Source\PSoC6\pdl\drivers/peripheral/syslib/cy_syslib.h **** *     <td>20.1</td>
 140:Generated_Source\PSoC6\pdl\drivers/peripheral/syslib/cy_syslib.h **** *     <td>R</td>
 141:Generated_Source\PSoC6\pdl\drivers/peripheral/syslib/cy_syslib.h **** *     <td>Reserved identifiers, macros and functions in the standard library, shall not be 
 142:Generated_Source\PSoC6\pdl\drivers/peripheral/syslib/cy_syslib.h **** *         defined, redefined or undefined.</td>
 143:Generated_Source\PSoC6\pdl\drivers/peripheral/syslib/cy_syslib.h **** *     <td>The driver defines the macros with leading underscores 
 144:Generated_Source\PSoC6\pdl\drivers/peripheral/syslib/cy_syslib.h **** *         (_CLR_SET_FLD/_BOOL2FLD/_FLD2BOOL) and therefore generates this MISRA violation.</td>
 145:Generated_Source\PSoC6\pdl\drivers/peripheral/syslib/cy_syslib.h **** *   </tr>
 146:Generated_Source\PSoC6\pdl\drivers/peripheral/syslib/cy_syslib.h **** * </table>
 147:Generated_Source\PSoC6\pdl\drivers/peripheral/syslib/cy_syslib.h **** *
 148:Generated_Source\PSoC6\pdl\drivers/peripheral/syslib/cy_syslib.h **** * \section group_syslib_changelog Changelog
 149:Generated_Source\PSoC6\pdl\drivers/peripheral/syslib/cy_syslib.h **** * <table class="doxtable">
 150:Generated_Source\PSoC6\pdl\drivers/peripheral/syslib/cy_syslib.h **** *   <tr><th>Version</th><th>Changes</th><th>Reason for Change</th></tr>
 151:Generated_Source\PSoC6\pdl\drivers/peripheral/syslib/cy_syslib.h **** *   <tr>
 152:Generated_Source\PSoC6\pdl\drivers/peripheral/syslib/cy_syslib.h **** *     <td rowspan="4">2.10</td>
 153:Generated_Source\PSoC6\pdl\drivers/peripheral/syslib/cy_syslib.h **** *     <td>Flattened the organization of the driver source code into the single source directory and
 154:Generated_Source\PSoC6\pdl\drivers/peripheral/syslib/cy_syslib.h **** *     <td>Driver library directory-structure simplification.</td>
 155:Generated_Source\PSoC6\pdl\drivers/peripheral/syslib/cy_syslib.h **** *   </tr>
 156:Generated_Source\PSoC6\pdl\drivers/peripheral/syslib/cy_syslib.h **** *   <tr>
 157:Generated_Source\PSoC6\pdl\drivers/peripheral/syslib/cy_syslib.h **** *     <td>Added the following macros: \ref CY_REG32_CLR_SET, \ref _CLR_SET_FLD16U, \ref CY_REG16_CL
 158:Generated_Source\PSoC6\pdl\drivers/peripheral/syslib/cy_syslib.h **** *     <td>Register access simplification.</td>
 159:Generated_Source\PSoC6\pdl\drivers/peripheral/syslib/cy_syslib.h **** *   </tr>
 160:Generated_Source\PSoC6\pdl\drivers/peripheral/syslib/cy_syslib.h **** *   <tr>
 161:Generated_Source\PSoC6\pdl\drivers/peripheral/syslib/cy_syslib.h **** *     <td>Removed the Cy_SysLib_GetNumHfclkResetCause API function.</td>
 162:Generated_Source\PSoC6\pdl\drivers/peripheral/syslib/cy_syslib.h **** *     <td>This feature is not supported by SRSS_ver1.</td>
 163:Generated_Source\PSoC6\pdl\drivers/peripheral/syslib/cy_syslib.h **** *   </tr>
 164:Generated_Source\PSoC6\pdl\drivers/peripheral/syslib/cy_syslib.h **** *   <tr>
 165:Generated_Source\PSoC6\pdl\drivers/peripheral/syslib/cy_syslib.h **** *     <td>Added register access layer. Use register access macros instead
 166:Generated_Source\PSoC6\pdl\drivers/peripheral/syslib/cy_syslib.h **** *         of direct register access using dereferenced pointers.</td>
 167:Generated_Source\PSoC6\pdl\drivers/peripheral/syslib/cy_syslib.h **** *     <td>Makes register access device-independent, so that the PDL does 
 168:Generated_Source\PSoC6\pdl\drivers/peripheral/syslib/cy_syslib.h **** *         not need to be recompiled for each supported part number.</td>
 169:Generated_Source\PSoC6\pdl\drivers/peripheral/syslib/cy_syslib.h **** *   </tr>
 170:Generated_Source\PSoC6\pdl\drivers/peripheral/syslib/cy_syslib.h **** *   <tr>
 171:Generated_Source\PSoC6\pdl\drivers/peripheral/syslib/cy_syslib.h **** *     <td>2.0.1</td>
 172:Generated_Source\PSoC6\pdl\drivers/peripheral/syslib/cy_syslib.h **** *     <td>Minor documentation edits</td>
 173:Generated_Source\PSoC6\pdl\drivers/peripheral/syslib/cy_syslib.h **** *     <td>Documentation update and clarification</td>
 174:Generated_Source\PSoC6\pdl\drivers/peripheral/syslib/cy_syslib.h **** *   </tr>
 175:Generated_Source\PSoC6\pdl\drivers/peripheral/syslib/cy_syslib.h **** *   <tr>
 176:Generated_Source\PSoC6\pdl\drivers/peripheral/syslib/cy_syslib.h **** *     <td rowspan="4"> 2.0</td>
 177:Generated_Source\PSoC6\pdl\drivers/peripheral/syslib/cy_syslib.h **** *     <td>
 178:Generated_Source\PSoC6\pdl\drivers/peripheral/syslib/cy_syslib.h **** * Added Cy_SysLib_ResetBackupDomain() API implementation. \n
 179:Generated_Source\PSoC6\pdl\drivers/peripheral/syslib/cy_syslib.h **** * Added CY_NOINLINE attribute implementation. \n
 180:Generated_Source\PSoC6\pdl\drivers/peripheral/syslib/cy_syslib.h **** * Added DIE_YEAR field to 64-bit unique ID return value of Cy_SysLib_GetUniqueId() API. \n
 181:Generated_Source\PSoC6\pdl\drivers/peripheral/syslib/cy_syslib.h **** * Added storing of SCB->HFSR, SCB->SHCSR registers and SCB->MMFAR, SCB->BFAR addresses to Fault Han
 182:Generated_Source\PSoC6\pdl\drivers/peripheral/syslib/cy_syslib.h **** * Optimized Cy_SysLib_SetWaitStates() API implementation.
 183:Generated_Source\PSoC6\pdl\drivers/peripheral/syslib/cy_syslib.h **** *     </td>
 184:Generated_Source\PSoC6\pdl\drivers/peripheral/syslib/cy_syslib.h **** *     <td>Improvements made based on usability feedback.</td>
 185:Generated_Source\PSoC6\pdl\drivers/peripheral/syslib/cy_syslib.h **** *   </tr>
 186:Generated_Source\PSoC6\pdl\drivers/peripheral/syslib/cy_syslib.h **** *   <tr>
ARM GAS  C:\Users\Agentos\AppData\Local\Temp\ccEAbd3r.s 			page 25


 187:Generated_Source\PSoC6\pdl\drivers/peripheral/syslib/cy_syslib.h **** *     <td>Added Assertion Classes and Levels.</td>
 188:Generated_Source\PSoC6\pdl\drivers/peripheral/syslib/cy_syslib.h **** *     <td>For error checking, parameter validation and status returns in the PDL API.</td>
 189:Generated_Source\PSoC6\pdl\drivers/peripheral/syslib/cy_syslib.h **** *   </tr>
 190:Generated_Source\PSoC6\pdl\drivers/peripheral/syslib/cy_syslib.h **** *   <tr>
 191:Generated_Source\PSoC6\pdl\drivers/peripheral/syslib/cy_syslib.h **** *     <td>Applied CY_NOINIT attribute to cy_assertFileName, cy_assertLine, and cy_faultFrame global
 192:Generated_Source\PSoC6\pdl\drivers/peripheral/syslib/cy_syslib.h **** *     <td>To store debug information into a non-zero init area for future analysis.</td>
 193:Generated_Source\PSoC6\pdl\drivers/peripheral/syslib/cy_syslib.h **** *   </tr>
 194:Generated_Source\PSoC6\pdl\drivers/peripheral/syslib/cy_syslib.h **** *   <tr>
 195:Generated_Source\PSoC6\pdl\drivers/peripheral/syslib/cy_syslib.h **** *     <td>Removed CY_WEAK attribute implementation.</td>
 196:Generated_Source\PSoC6\pdl\drivers/peripheral/syslib/cy_syslib.h **** *     <td>CMSIS __WEAK attribute should be used instead.</td>
 197:Generated_Source\PSoC6\pdl\drivers/peripheral/syslib/cy_syslib.h **** *   </tr>
 198:Generated_Source\PSoC6\pdl\drivers/peripheral/syslib/cy_syslib.h **** *   <tr>
 199:Generated_Source\PSoC6\pdl\drivers/peripheral/syslib/cy_syslib.h **** *     <td>1.0</td>
 200:Generated_Source\PSoC6\pdl\drivers/peripheral/syslib/cy_syslib.h **** *     <td>Initial version</td>
 201:Generated_Source\PSoC6\pdl\drivers/peripheral/syslib/cy_syslib.h **** *     <td></td>
 202:Generated_Source\PSoC6\pdl\drivers/peripheral/syslib/cy_syslib.h **** *   </tr>
 203:Generated_Source\PSoC6\pdl\drivers/peripheral/syslib/cy_syslib.h **** * </table>
 204:Generated_Source\PSoC6\pdl\drivers/peripheral/syslib/cy_syslib.h **** *
 205:Generated_Source\PSoC6\pdl\drivers/peripheral/syslib/cy_syslib.h **** * \defgroup group_syslib_macros Macros
 206:Generated_Source\PSoC6\pdl\drivers/peripheral/syslib/cy_syslib.h **** * \defgroup group_syslib_functions Functions
 207:Generated_Source\PSoC6\pdl\drivers/peripheral/syslib/cy_syslib.h **** * \defgroup group_syslib_data_structures Data Structures
 208:Generated_Source\PSoC6\pdl\drivers/peripheral/syslib/cy_syslib.h **** * \defgroup group_syslib_enumerated_types Enumerated Types
 209:Generated_Source\PSoC6\pdl\drivers/peripheral/syslib/cy_syslib.h **** *
 210:Generated_Source\PSoC6\pdl\drivers/peripheral/syslib/cy_syslib.h **** */
 211:Generated_Source\PSoC6\pdl\drivers/peripheral/syslib/cy_syslib.h **** 
 212:Generated_Source\PSoC6\pdl\drivers/peripheral/syslib/cy_syslib.h **** #if !defined(CY_SYSLIB_H)
 213:Generated_Source\PSoC6\pdl\drivers/peripheral/syslib/cy_syslib.h **** #define CY_SYSLIB_H
 214:Generated_Source\PSoC6\pdl\drivers/peripheral/syslib/cy_syslib.h **** 
 215:Generated_Source\PSoC6\pdl\drivers/peripheral/syslib/cy_syslib.h **** #include <stdint.h>
 216:Generated_Source\PSoC6\pdl\drivers/peripheral/syslib/cy_syslib.h **** #include <stdbool.h>
 217:Generated_Source\PSoC6\pdl\drivers/peripheral/syslib/cy_syslib.h **** #include "cy_device.h"
 218:Generated_Source\PSoC6\pdl\drivers/peripheral/syslib/cy_syslib.h **** #include "cy_device_headers.h"
 219:Generated_Source\PSoC6\pdl\drivers/peripheral/syslib/cy_syslib.h **** 
 220:Generated_Source\PSoC6\pdl\drivers/peripheral/syslib/cy_syslib.h **** #if defined(__cplusplus)
 221:Generated_Source\PSoC6\pdl\drivers/peripheral/syslib/cy_syslib.h **** extern "C" {
 222:Generated_Source\PSoC6\pdl\drivers/peripheral/syslib/cy_syslib.h **** #endif /* defined(__cplusplus) */
 223:Generated_Source\PSoC6\pdl\drivers/peripheral/syslib/cy_syslib.h **** 
 224:Generated_Source\PSoC6\pdl\drivers/peripheral/syslib/cy_syslib.h **** #if defined( __ICCARM__ )
 225:Generated_Source\PSoC6\pdl\drivers/peripheral/syslib/cy_syslib.h ****     /* Suppress the warning for multiple volatile variables in an expression. */
 226:Generated_Source\PSoC6\pdl\drivers/peripheral/syslib/cy_syslib.h ****     /* This is common for driver's code and the usage is not order-dependent. */
 227:Generated_Source\PSoC6\pdl\drivers/peripheral/syslib/cy_syslib.h ****     #pragma diag_suppress=Pa082
 228:Generated_Source\PSoC6\pdl\drivers/peripheral/syslib/cy_syslib.h **** #endif  /* defined( __ICCARM__ ) */
 229:Generated_Source\PSoC6\pdl\drivers/peripheral/syslib/cy_syslib.h **** 
 230:Generated_Source\PSoC6\pdl\drivers/peripheral/syslib/cy_syslib.h **** /**
 231:Generated_Source\PSoC6\pdl\drivers/peripheral/syslib/cy_syslib.h **** * \addtogroup group_syslib_macros
 232:Generated_Source\PSoC6\pdl\drivers/peripheral/syslib/cy_syslib.h **** * \{
 233:Generated_Source\PSoC6\pdl\drivers/peripheral/syslib/cy_syslib.h **** */
 234:Generated_Source\PSoC6\pdl\drivers/peripheral/syslib/cy_syslib.h **** 
 235:Generated_Source\PSoC6\pdl\drivers/peripheral/syslib/cy_syslib.h **** /******************************************************************************
 236:Generated_Source\PSoC6\pdl\drivers/peripheral/syslib/cy_syslib.h **** * Macros
 237:Generated_Source\PSoC6\pdl\drivers/peripheral/syslib/cy_syslib.h **** *****************************************************************************/
 238:Generated_Source\PSoC6\pdl\drivers/peripheral/syslib/cy_syslib.h **** 
 239:Generated_Source\PSoC6\pdl\drivers/peripheral/syslib/cy_syslib.h **** #define CY_CPU_CORTEX_M0P   (__CORTEX_M == 0)    /**< CM0+ core CPU Code */
 240:Generated_Source\PSoC6\pdl\drivers/peripheral/syslib/cy_syslib.h **** #define CY_CPU_CORTEX_M4    (__CORTEX_M == 4)    /**< CM4  core CPU Code */
 241:Generated_Source\PSoC6\pdl\drivers/peripheral/syslib/cy_syslib.h **** 
 242:Generated_Source\PSoC6\pdl\drivers/peripheral/syslib/cy_syslib.h **** /** The macro to disable the Fault Handler */
 243:Generated_Source\PSoC6\pdl\drivers/peripheral/syslib/cy_syslib.h **** #define CY_ARM_FAULT_DEBUG_DISABLED    (0U)
ARM GAS  C:\Users\Agentos\AppData\Local\Temp\ccEAbd3r.s 			page 26


 244:Generated_Source\PSoC6\pdl\drivers/peripheral/syslib/cy_syslib.h **** /** The macro to enable the Fault Handler */
 245:Generated_Source\PSoC6\pdl\drivers/peripheral/syslib/cy_syslib.h **** #define CY_ARM_FAULT_DEBUG_ENABLED     (1U)
 246:Generated_Source\PSoC6\pdl\drivers/peripheral/syslib/cy_syslib.h **** 
 247:Generated_Source\PSoC6\pdl\drivers/peripheral/syslib/cy_syslib.h **** #if !defined(CY_ARM_FAULT_DEBUG)
 248:Generated_Source\PSoC6\pdl\drivers/peripheral/syslib/cy_syslib.h ****     /** The macro defines if the Fault Handler is enabled. Enabled by default. */
 249:Generated_Source\PSoC6\pdl\drivers/peripheral/syslib/cy_syslib.h ****     #define CY_ARM_FAULT_DEBUG         (CY_ARM_FAULT_DEBUG_ENABLED)
 250:Generated_Source\PSoC6\pdl\drivers/peripheral/syslib/cy_syslib.h **** #endif /* CY_ARM_FAULT_DEBUG */
 251:Generated_Source\PSoC6\pdl\drivers/peripheral/syslib/cy_syslib.h **** 
 252:Generated_Source\PSoC6\pdl\drivers/peripheral/syslib/cy_syslib.h **** /**
 253:Generated_Source\PSoC6\pdl\drivers/peripheral/syslib/cy_syslib.h **** * \defgroup group_syslib_macros_status_codes Status codes
 254:Generated_Source\PSoC6\pdl\drivers/peripheral/syslib/cy_syslib.h **** * \{
 255:Generated_Source\PSoC6\pdl\drivers/peripheral/syslib/cy_syslib.h **** * Function status type codes
 256:Generated_Source\PSoC6\pdl\drivers/peripheral/syslib/cy_syslib.h **** */
 257:Generated_Source\PSoC6\pdl\drivers/peripheral/syslib/cy_syslib.h **** #define CY_PDL_STATUS_CODE_Pos  (0U)        /**< The module status code position in the status code
 258:Generated_Source\PSoC6\pdl\drivers/peripheral/syslib/cy_syslib.h **** #define CY_PDL_STATUS_TYPE_Pos  (16U)       /**< The status type position in the status code */
 259:Generated_Source\PSoC6\pdl\drivers/peripheral/syslib/cy_syslib.h **** #define CY_PDL_MODULE_ID_Pos    (18U)       /**< The software module ID position in the status code
 260:Generated_Source\PSoC6\pdl\drivers/peripheral/syslib/cy_syslib.h **** #define CY_PDL_STATUS_INFO      (0UL << CY_PDL_STATUS_TYPE_Pos)    /**< The information status type
 261:Generated_Source\PSoC6\pdl\drivers/peripheral/syslib/cy_syslib.h **** #define CY_PDL_STATUS_WARNING   (1UL << CY_PDL_STATUS_TYPE_Pos)    /**< The warning status type */
 262:Generated_Source\PSoC6\pdl\drivers/peripheral/syslib/cy_syslib.h **** #define CY_PDL_STATUS_ERROR     (2UL << CY_PDL_STATUS_TYPE_Pos)    /**< The error status type */
 263:Generated_Source\PSoC6\pdl\drivers/peripheral/syslib/cy_syslib.h **** #define CY_PDL_MODULE_ID_Msk    (0x3FFFU)   /**< The software module ID mask */
 264:Generated_Source\PSoC6\pdl\drivers/peripheral/syslib/cy_syslib.h **** /** Get the software PDL module ID */
 265:Generated_Source\PSoC6\pdl\drivers/peripheral/syslib/cy_syslib.h **** #define CY_PDL_DRV_ID(id)       ((uint32_t)((uint32_t)((id) & CY_PDL_MODULE_ID_Msk) << CY_PDL_MODUL
 266:Generated_Source\PSoC6\pdl\drivers/peripheral/syslib/cy_syslib.h **** #define CY_SYSLIB_ID            CY_PDL_DRV_ID(0x11U)     /**< SYSLIB PDL ID */
 267:Generated_Source\PSoC6\pdl\drivers/peripheral/syslib/cy_syslib.h **** /** \} group_syslib_macros_status_codes */
 268:Generated_Source\PSoC6\pdl\drivers/peripheral/syslib/cy_syslib.h **** 
 269:Generated_Source\PSoC6\pdl\drivers/peripheral/syslib/cy_syslib.h **** /** \} group_syslib_macros */
 270:Generated_Source\PSoC6\pdl\drivers/peripheral/syslib/cy_syslib.h **** 
 271:Generated_Source\PSoC6\pdl\drivers/peripheral/syslib/cy_syslib.h **** /**
 272:Generated_Source\PSoC6\pdl\drivers/peripheral/syslib/cy_syslib.h **** * \addtogroup group_syslib_enumerated_types
 273:Generated_Source\PSoC6\pdl\drivers/peripheral/syslib/cy_syslib.h **** * \{
 274:Generated_Source\PSoC6\pdl\drivers/peripheral/syslib/cy_syslib.h **** */
 275:Generated_Source\PSoC6\pdl\drivers/peripheral/syslib/cy_syslib.h **** 
 276:Generated_Source\PSoC6\pdl\drivers/peripheral/syslib/cy_syslib.h **** /** The SysLib status code structure. */
 277:Generated_Source\PSoC6\pdl\drivers/peripheral/syslib/cy_syslib.h **** typedef enum
 278:Generated_Source\PSoC6\pdl\drivers/peripheral/syslib/cy_syslib.h **** {
 279:Generated_Source\PSoC6\pdl\drivers/peripheral/syslib/cy_syslib.h ****     CY_SYSLIB_SUCCESS       = 0x00UL,    /**< The success status code */
 280:Generated_Source\PSoC6\pdl\drivers/peripheral/syslib/cy_syslib.h ****     CY_SYSLIB_BAD_PARAM     = CY_SYSLIB_ID | CY_PDL_STATUS_ERROR | 0x01UL,    /**< The bad paramete
 281:Generated_Source\PSoC6\pdl\drivers/peripheral/syslib/cy_syslib.h ****     CY_SYSLIB_TIMEOUT       = CY_SYSLIB_ID | CY_PDL_STATUS_ERROR | 0x02UL,    /**< The time out sta
 282:Generated_Source\PSoC6\pdl\drivers/peripheral/syslib/cy_syslib.h ****     CY_SYSLIB_INVALID_STATE = CY_SYSLIB_ID | CY_PDL_STATUS_ERROR | 0x03UL,    /**< The invalid stat
 283:Generated_Source\PSoC6\pdl\drivers/peripheral/syslib/cy_syslib.h ****     CY_SYSLIB_UNKNOWN       = CY_SYSLIB_ID | CY_PDL_STATUS_ERROR | 0xFFUL     /**< Unknown status c
 284:Generated_Source\PSoC6\pdl\drivers/peripheral/syslib/cy_syslib.h **** } cy_en_syslib_status_t;
 285:Generated_Source\PSoC6\pdl\drivers/peripheral/syslib/cy_syslib.h **** 
 286:Generated_Source\PSoC6\pdl\drivers/peripheral/syslib/cy_syslib.h **** /** \} group_syslib_enumerated_types */
 287:Generated_Source\PSoC6\pdl\drivers/peripheral/syslib/cy_syslib.h **** /**
 288:Generated_Source\PSoC6\pdl\drivers/peripheral/syslib/cy_syslib.h **** * \addtogroup group_syslib_data_structures
 289:Generated_Source\PSoC6\pdl\drivers/peripheral/syslib/cy_syslib.h **** * \{
 290:Generated_Source\PSoC6\pdl\drivers/peripheral/syslib/cy_syslib.h **** */
 291:Generated_Source\PSoC6\pdl\drivers/peripheral/syslib/cy_syslib.h **** 
 292:Generated_Source\PSoC6\pdl\drivers/peripheral/syslib/cy_syslib.h **** #if (CY_ARM_FAULT_DEBUG == CY_ARM_FAULT_DEBUG_ENABLED)
 293:Generated_Source\PSoC6\pdl\drivers/peripheral/syslib/cy_syslib.h ****     #if (CY_CPU_CORTEX_M4)
 294:Generated_Source\PSoC6\pdl\drivers/peripheral/syslib/cy_syslib.h ****         /** Configurable Fault Status Register - CFSR */
 295:Generated_Source\PSoC6\pdl\drivers/peripheral/syslib/cy_syslib.h ****         typedef struct
 296:Generated_Source\PSoC6\pdl\drivers/peripheral/syslib/cy_syslib.h ****         {
 297:Generated_Source\PSoC6\pdl\drivers/peripheral/syslib/cy_syslib.h ****             /** MemManage Fault Status Sub-register - MMFSR */
 298:Generated_Source\PSoC6\pdl\drivers/peripheral/syslib/cy_syslib.h ****             uint32_t iaccViol    : 1;  /**< MemManage Fault - The instruction access violation flag
 299:Generated_Source\PSoC6\pdl\drivers/peripheral/syslib/cy_syslib.h ****             uint32_t daccViol    : 1;  /**< MemManage Fault - The data access violation flag */
 300:Generated_Source\PSoC6\pdl\drivers/peripheral/syslib/cy_syslib.h ****             uint32_t reserved1   : 1;  /**< Reserved */
ARM GAS  C:\Users\Agentos\AppData\Local\Temp\ccEAbd3r.s 			page 27


 301:Generated_Source\PSoC6\pdl\drivers/peripheral/syslib/cy_syslib.h ****             uint32_t mUnstkErr   : 1;  /**< MemManage Fault - Unstacking for a return from exceptio
 302:Generated_Source\PSoC6\pdl\drivers/peripheral/syslib/cy_syslib.h ****             uint32_t mStkErr     : 1;  /**< MemManage Fault - MemManage fault on stacking for excep
 303:Generated_Source\PSoC6\pdl\drivers/peripheral/syslib/cy_syslib.h ****             uint32_t mlspErr     : 1;  /**< MemManage Fault - MemManage fault occurred during float
 304:Generated_Source\PSoC6\pdl\drivers/peripheral/syslib/cy_syslib.h ****             uint32_t reserved2   : 1;  /**< Reserved */
 305:Generated_Source\PSoC6\pdl\drivers/peripheral/syslib/cy_syslib.h ****             uint32_t mmarValid   : 1;  /**< MemManage Fault - The MemManage Address register valid 
 306:Generated_Source\PSoC6\pdl\drivers/peripheral/syslib/cy_syslib.h ****             /** Bus Fault Status Sub-register - UFSR */
 307:Generated_Source\PSoC6\pdl\drivers/peripheral/syslib/cy_syslib.h ****             uint32_t iBusErr     : 1;  /**< Bus Fault - The instruction bus error */
 308:Generated_Source\PSoC6\pdl\drivers/peripheral/syslib/cy_syslib.h ****             uint32_t precisErr   : 1;  /**< Bus Fault - The precise Data bus error */
 309:Generated_Source\PSoC6\pdl\drivers/peripheral/syslib/cy_syslib.h ****             uint32_t imprecisErr : 1;  /**< Bus Fault - The imprecise data bus error */
 310:Generated_Source\PSoC6\pdl\drivers/peripheral/syslib/cy_syslib.h ****             uint32_t unstkErr    : 1;  /**< Bus Fault - Unstacking for an exception return has caus
 311:Generated_Source\PSoC6\pdl\drivers/peripheral/syslib/cy_syslib.h ****             uint32_t stkErr      : 1;  /**< Bus Fault - Stacking for an exception entry has caused 
 312:Generated_Source\PSoC6\pdl\drivers/peripheral/syslib/cy_syslib.h ****             uint32_t lspErr      : 1;  /**< Bus Fault - A bus fault occurred during the floating-po
 313:Generated_Source\PSoC6\pdl\drivers/peripheral/syslib/cy_syslib.h ****             uint32_t reserved3   : 1;  /**< Reserved */
 314:Generated_Source\PSoC6\pdl\drivers/peripheral/syslib/cy_syslib.h ****             uint32_t bfarValid   : 1;  /**< Bus Fault - The bus fault address register valid flag *
 315:Generated_Source\PSoC6\pdl\drivers/peripheral/syslib/cy_syslib.h ****             /** Usage Fault Status Sub-register - UFSR */
 316:Generated_Source\PSoC6\pdl\drivers/peripheral/syslib/cy_syslib.h ****             uint32_t undefInstr  : 1;  /**< Usage Fault - An undefined instruction */
 317:Generated_Source\PSoC6\pdl\drivers/peripheral/syslib/cy_syslib.h ****             uint32_t invState    : 1;  /**< Usage Fault - The invalid state */
 318:Generated_Source\PSoC6\pdl\drivers/peripheral/syslib/cy_syslib.h ****             uint32_t invPC       : 1;  /**< Usage Fault - An invalid PC */
 319:Generated_Source\PSoC6\pdl\drivers/peripheral/syslib/cy_syslib.h ****             uint32_t noCP        : 1;  /**< Usage Fault - No coprocessor */
 320:Generated_Source\PSoC6\pdl\drivers/peripheral/syslib/cy_syslib.h ****             uint32_t reserved4   : 4;  /**< Reserved */
 321:Generated_Source\PSoC6\pdl\drivers/peripheral/syslib/cy_syslib.h ****             uint32_t unaligned   : 1;  /**< Usage Fault - Unaligned access */
 322:Generated_Source\PSoC6\pdl\drivers/peripheral/syslib/cy_syslib.h ****             uint32_t divByZero   : 1;  /**< Usage Fault - Divide by zero */
 323:Generated_Source\PSoC6\pdl\drivers/peripheral/syslib/cy_syslib.h ****             uint32_t reserved5   : 6;  /**< Reserved */
 324:Generated_Source\PSoC6\pdl\drivers/peripheral/syslib/cy_syslib.h ****         } cy_stc_fault_cfsr_t;
 325:Generated_Source\PSoC6\pdl\drivers/peripheral/syslib/cy_syslib.h **** 
 326:Generated_Source\PSoC6\pdl\drivers/peripheral/syslib/cy_syslib.h ****         /** Hard Fault Status Register - HFSR */
 327:Generated_Source\PSoC6\pdl\drivers/peripheral/syslib/cy_syslib.h ****         typedef struct
 328:Generated_Source\PSoC6\pdl\drivers/peripheral/syslib/cy_syslib.h ****         {
 329:Generated_Source\PSoC6\pdl\drivers/peripheral/syslib/cy_syslib.h ****             uint32_t reserved1   :  1;   /**< Reserved. */
 330:Generated_Source\PSoC6\pdl\drivers/peripheral/syslib/cy_syslib.h ****             uint32_t vectTbl     :  1;   /**< HFSR - Indicates a bus fault on a vector table read d
 331:Generated_Source\PSoC6\pdl\drivers/peripheral/syslib/cy_syslib.h ****             uint32_t reserved2   : 28;   /**< Reserved. */
 332:Generated_Source\PSoC6\pdl\drivers/peripheral/syslib/cy_syslib.h ****             uint32_t forced      :  1;   /**< HFSR - Indicates a forced hard fault */
 333:Generated_Source\PSoC6\pdl\drivers/peripheral/syslib/cy_syslib.h ****             uint32_t debugEvt    :  1;   /**< HFSR - Reserved for the debug use.  */
 334:Generated_Source\PSoC6\pdl\drivers/peripheral/syslib/cy_syslib.h ****         } cy_stc_fault_hfsr_t;
 335:Generated_Source\PSoC6\pdl\drivers/peripheral/syslib/cy_syslib.h **** 
 336:Generated_Source\PSoC6\pdl\drivers/peripheral/syslib/cy_syslib.h ****         /** System Handler Control and State Register - SHCSR */
 337:Generated_Source\PSoC6\pdl\drivers/peripheral/syslib/cy_syslib.h ****         typedef struct
 338:Generated_Source\PSoC6\pdl\drivers/peripheral/syslib/cy_syslib.h ****         {
 339:Generated_Source\PSoC6\pdl\drivers/peripheral/syslib/cy_syslib.h ****             uint32_t memFaultAct    :  1;   /**< SHCSR - The MemManage exception active bit, reads 
 340:Generated_Source\PSoC6\pdl\drivers/peripheral/syslib/cy_syslib.h ****             uint32_t busFaultAct    :  1;   /**< SHCSR - The BusFault exception active bit, reads a
 341:Generated_Source\PSoC6\pdl\drivers/peripheral/syslib/cy_syslib.h ****             uint32_t reserved1      :  1;   /**< Reserved. */
 342:Generated_Source\PSoC6\pdl\drivers/peripheral/syslib/cy_syslib.h ****             uint32_t usgFaultAct    :  1;   /**< SHCSR - The UsageFault exception active bit, reads
 343:Generated_Source\PSoC6\pdl\drivers/peripheral/syslib/cy_syslib.h ****             uint32_t reserved2      :  3;   /**< Reserved. */
 344:Generated_Source\PSoC6\pdl\drivers/peripheral/syslib/cy_syslib.h ****             uint32_t svCallAct      :  1;   /**< SHCSR - The SVCall active bit, reads as 1 if the S
 345:Generated_Source\PSoC6\pdl\drivers/peripheral/syslib/cy_syslib.h ****             uint32_t monitorAct     :  1;   /**< SHCSR - The debug monitor active bit, reads as 1 i
 346:Generated_Source\PSoC6\pdl\drivers/peripheral/syslib/cy_syslib.h ****             uint32_t reserved3      :  1;   /**< Reserved. */
 347:Generated_Source\PSoC6\pdl\drivers/peripheral/syslib/cy_syslib.h ****             uint32_t pendSVAct      :  1;   /**< SHCSR - The PendSV exception active bit, reads as 
 348:Generated_Source\PSoC6\pdl\drivers/peripheral/syslib/cy_syslib.h ****             uint32_t sysTickAct     :  1;   /**< SHCSR - The SysTick exception active bit, reads as
 349:Generated_Source\PSoC6\pdl\drivers/peripheral/syslib/cy_syslib.h ****             uint32_t usgFaultPended :  1;   /**< SHCSR - The UsageFault exception pending bit, read
 350:Generated_Source\PSoC6\pdl\drivers/peripheral/syslib/cy_syslib.h ****             uint32_t memFaultPended :  1;   /**< SHCSR - The MemManage exception pending bit, reads
 351:Generated_Source\PSoC6\pdl\drivers/peripheral/syslib/cy_syslib.h ****             uint32_t busFaultPended :  1;   /**< SHCSR - The BusFault exception pending bit, reads 
 352:Generated_Source\PSoC6\pdl\drivers/peripheral/syslib/cy_syslib.h ****             uint32_t svCallPended   :  1;   /**< SHCSR - The SVCall pending bit, reads as 1 if the 
 353:Generated_Source\PSoC6\pdl\drivers/peripheral/syslib/cy_syslib.h ****             uint32_t memFaultEna    :  1;   /**< SHCSR - The MemManage enable bit, set to 1 to enab
 354:Generated_Source\PSoC6\pdl\drivers/peripheral/syslib/cy_syslib.h ****             uint32_t busFaultEna    :  1;   /**< SHCSR - The BusFault enable bit, set to 1 to enabl
 355:Generated_Source\PSoC6\pdl\drivers/peripheral/syslib/cy_syslib.h ****             uint32_t usgFaultEna    :  1;   /**< SHCSR - The UsageFault enable bit, set to 1 to ena
 356:Generated_Source\PSoC6\pdl\drivers/peripheral/syslib/cy_syslib.h ****             uint32_t reserved4      : 13;   /**< Reserved */
 357:Generated_Source\PSoC6\pdl\drivers/peripheral/syslib/cy_syslib.h ****         } cy_stc_fault_shcsr_t;
ARM GAS  C:\Users\Agentos\AppData\Local\Temp\ccEAbd3r.s 			page 28


 358:Generated_Source\PSoC6\pdl\drivers/peripheral/syslib/cy_syslib.h ****     #endif /* CY_CPU_CORTEX_M4 */
 359:Generated_Source\PSoC6\pdl\drivers/peripheral/syslib/cy_syslib.h **** 
 360:Generated_Source\PSoC6\pdl\drivers/peripheral/syslib/cy_syslib.h ****     /** The fault configuration structure. */
 361:Generated_Source\PSoC6\pdl\drivers/peripheral/syslib/cy_syslib.h ****     typedef struct
 362:Generated_Source\PSoC6\pdl\drivers/peripheral/syslib/cy_syslib.h ****     {
 363:Generated_Source\PSoC6\pdl\drivers/peripheral/syslib/cy_syslib.h ****         uint32_t r0;       /**< R0 register content */
 364:Generated_Source\PSoC6\pdl\drivers/peripheral/syslib/cy_syslib.h ****         uint32_t r1;       /**< R1 register content */
 365:Generated_Source\PSoC6\pdl\drivers/peripheral/syslib/cy_syslib.h ****         uint32_t r2;       /**< R2 register content */
 366:Generated_Source\PSoC6\pdl\drivers/peripheral/syslib/cy_syslib.h ****         uint32_t r3;       /**< R3 register content */
 367:Generated_Source\PSoC6\pdl\drivers/peripheral/syslib/cy_syslib.h ****         uint32_t r12;      /**< R12 register content */
 368:Generated_Source\PSoC6\pdl\drivers/peripheral/syslib/cy_syslib.h ****         uint32_t lr;       /**< LR register content */
 369:Generated_Source\PSoC6\pdl\drivers/peripheral/syslib/cy_syslib.h ****         uint32_t pc;       /**< PC register content */
 370:Generated_Source\PSoC6\pdl\drivers/peripheral/syslib/cy_syslib.h ****         uint32_t psr;      /**< PSR register content */
 371:Generated_Source\PSoC6\pdl\drivers/peripheral/syslib/cy_syslib.h ****         #if (CY_CPU_CORTEX_M4)
 372:Generated_Source\PSoC6\pdl\drivers/peripheral/syslib/cy_syslib.h ****             union
 373:Generated_Source\PSoC6\pdl\drivers/peripheral/syslib/cy_syslib.h ****             {
 374:Generated_Source\PSoC6\pdl\drivers/peripheral/syslib/cy_syslib.h ****                 uint32_t cfsrReg;              /**< CFSR register content as a word */
 375:Generated_Source\PSoC6\pdl\drivers/peripheral/syslib/cy_syslib.h ****                 cy_stc_fault_cfsr_t cfsrBits;  /**< CFSR register content as a structure */
 376:Generated_Source\PSoC6\pdl\drivers/peripheral/syslib/cy_syslib.h ****             } cfsr;
 377:Generated_Source\PSoC6\pdl\drivers/peripheral/syslib/cy_syslib.h ****             union
 378:Generated_Source\PSoC6\pdl\drivers/peripheral/syslib/cy_syslib.h ****             {
 379:Generated_Source\PSoC6\pdl\drivers/peripheral/syslib/cy_syslib.h ****                 uint32_t hfsrReg;              /**< HFSR register content as a word */
 380:Generated_Source\PSoC6\pdl\drivers/peripheral/syslib/cy_syslib.h ****                 cy_stc_fault_hfsr_t hfsrBits;  /**< HFSR register content as a structure */
 381:Generated_Source\PSoC6\pdl\drivers/peripheral/syslib/cy_syslib.h ****             } hfsr;
 382:Generated_Source\PSoC6\pdl\drivers/peripheral/syslib/cy_syslib.h ****             union
 383:Generated_Source\PSoC6\pdl\drivers/peripheral/syslib/cy_syslib.h ****             {
 384:Generated_Source\PSoC6\pdl\drivers/peripheral/syslib/cy_syslib.h ****                 uint32_t shcsrReg;              /**< SHCSR register content as a word */
 385:Generated_Source\PSoC6\pdl\drivers/peripheral/syslib/cy_syslib.h ****                 cy_stc_fault_shcsr_t shcsrBits; /**< SHCSR register content as a structure */
 386:Generated_Source\PSoC6\pdl\drivers/peripheral/syslib/cy_syslib.h ****             } shcsr;
 387:Generated_Source\PSoC6\pdl\drivers/peripheral/syslib/cy_syslib.h ****             uint32_t mmfar;                /**< MMFAR register content */
 388:Generated_Source\PSoC6\pdl\drivers/peripheral/syslib/cy_syslib.h ****             uint32_t bfar;                 /**< BFAR register content */
 389:Generated_Source\PSoC6\pdl\drivers/peripheral/syslib/cy_syslib.h ****             #if ((defined (__FPU_PRESENT) && (__FPU_PRESENT == 1U)) && \
 390:Generated_Source\PSoC6\pdl\drivers/peripheral/syslib/cy_syslib.h ****                  (defined (__FPU_USED   ) && (__FPU_USED    == 1U)))
 391:Generated_Source\PSoC6\pdl\drivers/peripheral/syslib/cy_syslib.h ****                 uint32_t s0;       /**< FPU S0 register content */
 392:Generated_Source\PSoC6\pdl\drivers/peripheral/syslib/cy_syslib.h ****                 uint32_t s1;       /**< FPU S1 register content */
 393:Generated_Source\PSoC6\pdl\drivers/peripheral/syslib/cy_syslib.h ****                 uint32_t s2;       /**< FPU S2 register content */
 394:Generated_Source\PSoC6\pdl\drivers/peripheral/syslib/cy_syslib.h ****                 uint32_t s3;       /**< FPU S3 register content */
 395:Generated_Source\PSoC6\pdl\drivers/peripheral/syslib/cy_syslib.h ****                 uint32_t s4;       /**< FPU S4 register content */
 396:Generated_Source\PSoC6\pdl\drivers/peripheral/syslib/cy_syslib.h ****                 uint32_t s5;       /**< FPU S5 register content */
 397:Generated_Source\PSoC6\pdl\drivers/peripheral/syslib/cy_syslib.h ****                 uint32_t s6;       /**< FPU S6 register content */
 398:Generated_Source\PSoC6\pdl\drivers/peripheral/syslib/cy_syslib.h ****                 uint32_t s7;       /**< FPU S7 register content */
 399:Generated_Source\PSoC6\pdl\drivers/peripheral/syslib/cy_syslib.h ****                 uint32_t s8;       /**< FPU S8 register content */
 400:Generated_Source\PSoC6\pdl\drivers/peripheral/syslib/cy_syslib.h ****                 uint32_t s9;       /**< FPU S9 register content */
 401:Generated_Source\PSoC6\pdl\drivers/peripheral/syslib/cy_syslib.h ****                 uint32_t s10;      /**< FPU S10 register content */
 402:Generated_Source\PSoC6\pdl\drivers/peripheral/syslib/cy_syslib.h ****                 uint32_t s11;      /**< FPU S11 register content */
 403:Generated_Source\PSoC6\pdl\drivers/peripheral/syslib/cy_syslib.h ****                 uint32_t s12;      /**< FPU S12 register content */
 404:Generated_Source\PSoC6\pdl\drivers/peripheral/syslib/cy_syslib.h ****                 uint32_t s13;      /**< FPU S13 register content */
 405:Generated_Source\PSoC6\pdl\drivers/peripheral/syslib/cy_syslib.h ****                 uint32_t s14;      /**< FPU S14 register content */
 406:Generated_Source\PSoC6\pdl\drivers/peripheral/syslib/cy_syslib.h ****                 uint32_t s15;      /**< FPU S15 register content */
 407:Generated_Source\PSoC6\pdl\drivers/peripheral/syslib/cy_syslib.h ****                 uint32_t fpscr;    /**< FPU FPSCR register content */
 408:Generated_Source\PSoC6\pdl\drivers/peripheral/syslib/cy_syslib.h ****             #endif /* __FPU_PRESENT */
 409:Generated_Source\PSoC6\pdl\drivers/peripheral/syslib/cy_syslib.h ****         #endif /* CY_CPU_CORTEX_M4 */
 410:Generated_Source\PSoC6\pdl\drivers/peripheral/syslib/cy_syslib.h ****     } cy_stc_fault_frame_t;
 411:Generated_Source\PSoC6\pdl\drivers/peripheral/syslib/cy_syslib.h **** #endif /* (CY_ARM_FAULT_DEBUG == CY_ARM_FAULT_DEBUG_ENABLED) */
 412:Generated_Source\PSoC6\pdl\drivers/peripheral/syslib/cy_syslib.h **** 
 413:Generated_Source\PSoC6\pdl\drivers/peripheral/syslib/cy_syslib.h **** /** \} group_syslib_data_structures */
 414:Generated_Source\PSoC6\pdl\drivers/peripheral/syslib/cy_syslib.h **** 
ARM GAS  C:\Users\Agentos\AppData\Local\Temp\ccEAbd3r.s 			page 29


 415:Generated_Source\PSoC6\pdl\drivers/peripheral/syslib/cy_syslib.h **** /**
 416:Generated_Source\PSoC6\pdl\drivers/peripheral/syslib/cy_syslib.h **** * \addtogroup group_syslib_macros
 417:Generated_Source\PSoC6\pdl\drivers/peripheral/syslib/cy_syslib.h **** * \{
 418:Generated_Source\PSoC6\pdl\drivers/peripheral/syslib/cy_syslib.h **** */
 419:Generated_Source\PSoC6\pdl\drivers/peripheral/syslib/cy_syslib.h **** 
 420:Generated_Source\PSoC6\pdl\drivers/peripheral/syslib/cy_syslib.h **** /** The driver major version */
 421:Generated_Source\PSoC6\pdl\drivers/peripheral/syslib/cy_syslib.h **** #define CY_SYSLIB_DRV_VERSION_MAJOR    2
 422:Generated_Source\PSoC6\pdl\drivers/peripheral/syslib/cy_syslib.h **** 
 423:Generated_Source\PSoC6\pdl\drivers/peripheral/syslib/cy_syslib.h **** /** The driver minor version */
 424:Generated_Source\PSoC6\pdl\drivers/peripheral/syslib/cy_syslib.h **** #define CY_SYSLIB_DRV_VERSION_MINOR    10
 425:Generated_Source\PSoC6\pdl\drivers/peripheral/syslib/cy_syslib.h **** 
 426:Generated_Source\PSoC6\pdl\drivers/peripheral/syslib/cy_syslib.h **** 
 427:Generated_Source\PSoC6\pdl\drivers/peripheral/syslib/cy_syslib.h **** /*******************************************************************************
 428:Generated_Source\PSoC6\pdl\drivers/peripheral/syslib/cy_syslib.h **** *  Data manipulation defines
 429:Generated_Source\PSoC6\pdl\drivers/peripheral/syslib/cy_syslib.h **** *******************************************************************************/
 430:Generated_Source\PSoC6\pdl\drivers/peripheral/syslib/cy_syslib.h **** 
 431:Generated_Source\PSoC6\pdl\drivers/peripheral/syslib/cy_syslib.h **** /** Get the lower 8 bits of a 16-bit value. */
 432:Generated_Source\PSoC6\pdl\drivers/peripheral/syslib/cy_syslib.h **** #define CY_LO8(x)               ((uint8_t) ((x) & 0xFFU))
 433:Generated_Source\PSoC6\pdl\drivers/peripheral/syslib/cy_syslib.h **** /** Get the upper 8 bits of a 16-bit value. */
 434:Generated_Source\PSoC6\pdl\drivers/peripheral/syslib/cy_syslib.h **** #define CY_HI8(x)               ((uint8_t) ((uint16_t)(x) >> 8U))
 435:Generated_Source\PSoC6\pdl\drivers/peripheral/syslib/cy_syslib.h **** 
 436:Generated_Source\PSoC6\pdl\drivers/peripheral/syslib/cy_syslib.h **** /** Get the lower 16 bits of a 32-bit value. */
 437:Generated_Source\PSoC6\pdl\drivers/peripheral/syslib/cy_syslib.h **** #define CY_LO16(x)              ((uint16_t) ((x) & 0xFFFFU))
 438:Generated_Source\PSoC6\pdl\drivers/peripheral/syslib/cy_syslib.h **** /** Get the upper 16 bits of a 32-bit value. */
 439:Generated_Source\PSoC6\pdl\drivers/peripheral/syslib/cy_syslib.h **** #define CY_HI16(x)              ((uint16_t) ((uint32_t)(x) >> 16U))
 440:Generated_Source\PSoC6\pdl\drivers/peripheral/syslib/cy_syslib.h **** 
 441:Generated_Source\PSoC6\pdl\drivers/peripheral/syslib/cy_syslib.h **** /** Swap the byte ordering of a 16-bit value */
 442:Generated_Source\PSoC6\pdl\drivers/peripheral/syslib/cy_syslib.h **** #define CY_SWAP_ENDIAN16(x)     ((uint16_t)(((x) << 8U) | (((x) >> 8U) & 0x00FFU)))
 443:Generated_Source\PSoC6\pdl\drivers/peripheral/syslib/cy_syslib.h **** 
 444:Generated_Source\PSoC6\pdl\drivers/peripheral/syslib/cy_syslib.h **** /** Swap the byte ordering of a 32-bit value */
 445:Generated_Source\PSoC6\pdl\drivers/peripheral/syslib/cy_syslib.h **** #define CY_SWAP_ENDIAN32(x)     ((uint32_t)((((x) >> 24U) & 0x000000FFU) | (((x) & 0x00FF0000U) >> 
 446:Generated_Source\PSoC6\pdl\drivers/peripheral/syslib/cy_syslib.h ****                                 (((x) & 0x0000FF00U) << 8U) | ((x) << 24U)))
 447:Generated_Source\PSoC6\pdl\drivers/peripheral/syslib/cy_syslib.h **** 
 448:Generated_Source\PSoC6\pdl\drivers/peripheral/syslib/cy_syslib.h **** /** Swap the byte ordering of a 64-bit value */
 449:Generated_Source\PSoC6\pdl\drivers/peripheral/syslib/cy_syslib.h **** #define CY_SWAP_ENDIAN64(x)     ((uint64_t) (((uint64_t) CY_SWAP_ENDIAN32((uint32_t)(x)) << 32U) | 
 450:Generated_Source\PSoC6\pdl\drivers/peripheral/syslib/cy_syslib.h ****                                 CY_SWAP_ENDIAN32((uint32_t)((x) >> 32U))))
 451:Generated_Source\PSoC6\pdl\drivers/peripheral/syslib/cy_syslib.h **** 
 452:Generated_Source\PSoC6\pdl\drivers/peripheral/syslib/cy_syslib.h **** 
 453:Generated_Source\PSoC6\pdl\drivers/peripheral/syslib/cy_syslib.h **** /*******************************************************************************
 454:Generated_Source\PSoC6\pdl\drivers/peripheral/syslib/cy_syslib.h **** *   Memory model definitions
 455:Generated_Source\PSoC6\pdl\drivers/peripheral/syslib/cy_syslib.h **** *******************************************************************************/
 456:Generated_Source\PSoC6\pdl\drivers/peripheral/syslib/cy_syslib.h **** #if defined(__ARMCC_VERSION)
 457:Generated_Source\PSoC6\pdl\drivers/peripheral/syslib/cy_syslib.h ****     /** To create cross compiler compatible code, use the CY_NOINIT, CY_SECTION, CY_UNUSED, CY_ALIG
 458:Generated_Source\PSoC6\pdl\drivers/peripheral/syslib/cy_syslib.h ****      * attributes at the first place of declaration/definition.
 459:Generated_Source\PSoC6\pdl\drivers/peripheral/syslib/cy_syslib.h ****      * For example: CY_NOINIT uint32_t noinitVar;
 460:Generated_Source\PSoC6\pdl\drivers/peripheral/syslib/cy_syslib.h ****      */
 461:Generated_Source\PSoC6\pdl\drivers/peripheral/syslib/cy_syslib.h ****     #define CY_NOINIT           __attribute__ ((section(".noinit"), zero_init))
 462:Generated_Source\PSoC6\pdl\drivers/peripheral/syslib/cy_syslib.h ****     #define CY_SECTION(name)    __attribute__ ((section(name)))
 463:Generated_Source\PSoC6\pdl\drivers/peripheral/syslib/cy_syslib.h ****     #define CY_UNUSED           __attribute__ ((unused))
 464:Generated_Source\PSoC6\pdl\drivers/peripheral/syslib/cy_syslib.h ****     #define CY_NOINLINE         __attribute__ ((noinline))
 465:Generated_Source\PSoC6\pdl\drivers/peripheral/syslib/cy_syslib.h ****     /* Specifies the minimum alignment (in bytes) for variables of the specified type. */
 466:Generated_Source\PSoC6\pdl\drivers/peripheral/syslib/cy_syslib.h ****     #define CY_ALIGN(align)     __ALIGNED(align)
 467:Generated_Source\PSoC6\pdl\drivers/peripheral/syslib/cy_syslib.h **** #elif defined (__GNUC__)
 468:Generated_Source\PSoC6\pdl\drivers/peripheral/syslib/cy_syslib.h ****     #if defined (__clang__)
 469:Generated_Source\PSoC6\pdl\drivers/peripheral/syslib/cy_syslib.h ****         #define CY_NOINIT           __attribute__ ((section("__DATA, __noinit")))
 470:Generated_Source\PSoC6\pdl\drivers/peripheral/syslib/cy_syslib.h ****         #define CY_SECTION(name)    __attribute__ ((section("__DATA, "name)))
 471:Generated_Source\PSoC6\pdl\drivers/peripheral/syslib/cy_syslib.h ****     #else
ARM GAS  C:\Users\Agentos\AppData\Local\Temp\ccEAbd3r.s 			page 30


 472:Generated_Source\PSoC6\pdl\drivers/peripheral/syslib/cy_syslib.h ****         #define CY_NOINIT           __attribute__ ((section(".noinit")))
 473:Generated_Source\PSoC6\pdl\drivers/peripheral/syslib/cy_syslib.h ****         #define CY_SECTION(name)    __attribute__ ((section(name)))
 474:Generated_Source\PSoC6\pdl\drivers/peripheral/syslib/cy_syslib.h ****     #endif
 475:Generated_Source\PSoC6\pdl\drivers/peripheral/syslib/cy_syslib.h ****     
 476:Generated_Source\PSoC6\pdl\drivers/peripheral/syslib/cy_syslib.h ****     #define CY_UNUSED           __attribute__ ((unused))
 477:Generated_Source\PSoC6\pdl\drivers/peripheral/syslib/cy_syslib.h ****     #define CY_NOINLINE         __attribute__ ((noinline))
 478:Generated_Source\PSoC6\pdl\drivers/peripheral/syslib/cy_syslib.h ****     #define CY_ALIGN(align)     __ALIGNED(align)
 479:Generated_Source\PSoC6\pdl\drivers/peripheral/syslib/cy_syslib.h **** #elif defined (__ICCARM__)
 480:Generated_Source\PSoC6\pdl\drivers/peripheral/syslib/cy_syslib.h ****     #define CY_PRAGMA(x)        _Pragma(#x)
 481:Generated_Source\PSoC6\pdl\drivers/peripheral/syslib/cy_syslib.h ****     #define CY_NOINIT           __no_init
 482:Generated_Source\PSoC6\pdl\drivers/peripheral/syslib/cy_syslib.h ****     #define CY_SECTION(name)    CY_PRAGMA(location = name)
 483:Generated_Source\PSoC6\pdl\drivers/peripheral/syslib/cy_syslib.h ****     #define CY_UNUSED
 484:Generated_Source\PSoC6\pdl\drivers/peripheral/syslib/cy_syslib.h ****     #define CY_NOINLINE         CY_PRAGMA(optimize = no_inline)
 485:Generated_Source\PSoC6\pdl\drivers/peripheral/syslib/cy_syslib.h ****     #if (__VER__ < 8010001)
 486:Generated_Source\PSoC6\pdl\drivers/peripheral/syslib/cy_syslib.h ****         #define CY_ALIGN(align) CY_PRAGMA(data_alignment = align)
 487:Generated_Source\PSoC6\pdl\drivers/peripheral/syslib/cy_syslib.h ****     #else
 488:Generated_Source\PSoC6\pdl\drivers/peripheral/syslib/cy_syslib.h ****         #define CY_ALIGN(align) __ALIGNED(align)
 489:Generated_Source\PSoC6\pdl\drivers/peripheral/syslib/cy_syslib.h ****     #endif /* (__VER__ < 8010001) */
 490:Generated_Source\PSoC6\pdl\drivers/peripheral/syslib/cy_syslib.h **** #else
 491:Generated_Source\PSoC6\pdl\drivers/peripheral/syslib/cy_syslib.h ****     #error "An unsupported toolchain"
 492:Generated_Source\PSoC6\pdl\drivers/peripheral/syslib/cy_syslib.h **** #endif  /* (__ARMCC_VERSION) */
 493:Generated_Source\PSoC6\pdl\drivers/peripheral/syslib/cy_syslib.h **** 
 494:Generated_Source\PSoC6\pdl\drivers/peripheral/syslib/cy_syslib.h **** typedef void (* cy_israddress)(void);   /**< Type of ISR callbacks */
 495:Generated_Source\PSoC6\pdl\drivers/peripheral/syslib/cy_syslib.h **** #if defined (__ICCARM__)
 496:Generated_Source\PSoC6\pdl\drivers/peripheral/syslib/cy_syslib.h ****     typedef union { cy_israddress __fun; void * __ptr; } cy_intvec_elem;
 497:Generated_Source\PSoC6\pdl\drivers/peripheral/syslib/cy_syslib.h **** #endif  /* defined (__ICCARM__) */
 498:Generated_Source\PSoC6\pdl\drivers/peripheral/syslib/cy_syslib.h **** 
 499:Generated_Source\PSoC6\pdl\drivers/peripheral/syslib/cy_syslib.h **** /* MISRA rule 6.3 recommends using specific-length typedef for the basic
 500:Generated_Source\PSoC6\pdl\drivers/peripheral/syslib/cy_syslib.h ****  * numerical types of signed and unsigned variants of char, float, and double.
 501:Generated_Source\PSoC6\pdl\drivers/peripheral/syslib/cy_syslib.h ****  */
 502:Generated_Source\PSoC6\pdl\drivers/peripheral/syslib/cy_syslib.h **** typedef char     char_t;    /**< Specific-length typedef for the basic numerical types of char */
 503:Generated_Source\PSoC6\pdl\drivers/peripheral/syslib/cy_syslib.h **** typedef float    float32_t; /**< Specific-length typedef for the basic numerical types of float */
 504:Generated_Source\PSoC6\pdl\drivers/peripheral/syslib/cy_syslib.h **** typedef double   float64_t; /**< Specific-length typedef for the basic numerical types of double */
 505:Generated_Source\PSoC6\pdl\drivers/peripheral/syslib/cy_syslib.h **** 
 506:Generated_Source\PSoC6\pdl\drivers/peripheral/syslib/cy_syslib.h **** #if !defined(NDEBUG)
 507:Generated_Source\PSoC6\pdl\drivers/peripheral/syslib/cy_syslib.h ****     /** The max size of the file name which stores the ASSERT location */
 508:Generated_Source\PSoC6\pdl\drivers/peripheral/syslib/cy_syslib.h ****     #define CY_MAX_FILE_NAME_SIZE  (24U)
 509:Generated_Source\PSoC6\pdl\drivers/peripheral/syslib/cy_syslib.h ****     extern CY_NOINIT char_t cy_assertFileName[CY_MAX_FILE_NAME_SIZE];  /**< The assert buffer */
 510:Generated_Source\PSoC6\pdl\drivers/peripheral/syslib/cy_syslib.h ****     extern CY_NOINIT uint32_t cy_assertLine;                           /**< The assert line value *
 511:Generated_Source\PSoC6\pdl\drivers/peripheral/syslib/cy_syslib.h **** #endif /* NDEBUG */
 512:Generated_Source\PSoC6\pdl\drivers/peripheral/syslib/cy_syslib.h **** 
 513:Generated_Source\PSoC6\pdl\drivers/peripheral/syslib/cy_syslib.h **** #if (CY_ARM_FAULT_DEBUG == CY_ARM_FAULT_DEBUG_ENABLED)
 514:Generated_Source\PSoC6\pdl\drivers/peripheral/syslib/cy_syslib.h ****     #define CY_R0_Pos             (0U)     /**< The position of the R0  content in a fault structur
 515:Generated_Source\PSoC6\pdl\drivers/peripheral/syslib/cy_syslib.h ****     #define CY_R1_Pos             (1U)     /**< The position of the R1  content in a fault structur
 516:Generated_Source\PSoC6\pdl\drivers/peripheral/syslib/cy_syslib.h ****     #define CY_R2_Pos             (2U)     /**< The position of the R2  content in a fault structur
 517:Generated_Source\PSoC6\pdl\drivers/peripheral/syslib/cy_syslib.h ****     #define CY_R3_Pos             (3U)     /**< The position of the R3  content in a fault structur
 518:Generated_Source\PSoC6\pdl\drivers/peripheral/syslib/cy_syslib.h ****     #define CY_R12_Pos            (4U)     /**< The position of the R12 content in a fault structur
 519:Generated_Source\PSoC6\pdl\drivers/peripheral/syslib/cy_syslib.h ****     #define CY_LR_Pos             (5U)     /**< The position of the LR  content in a fault structur
 520:Generated_Source\PSoC6\pdl\drivers/peripheral/syslib/cy_syslib.h ****     #define CY_PC_Pos             (6U)     /**< The position of the PC  content in a fault structur
 521:Generated_Source\PSoC6\pdl\drivers/peripheral/syslib/cy_syslib.h ****     #define CY_PSR_Pos            (7U)     /**< The position of the PSR content in a fault structur
 522:Generated_Source\PSoC6\pdl\drivers/peripheral/syslib/cy_syslib.h ****     #if (CY_CPU_CORTEX_M4) && ((defined (__FPU_PRESENT) && (__FPU_PRESENT == 1U)) && \
 523:Generated_Source\PSoC6\pdl\drivers/peripheral/syslib/cy_syslib.h ****                                (defined (__FPU_USED   ) && (__FPU_USED    == 1U)))
 524:Generated_Source\PSoC6\pdl\drivers/peripheral/syslib/cy_syslib.h ****         #define CY_FPSCR_IXC_Msk  (0x00000010U)    /**< The cumulative exception bit for floating-p
 525:Generated_Source\PSoC6\pdl\drivers/peripheral/syslib/cy_syslib.h ****         #define CY_FPSCR_IDC_Msk  (0x00000080U)    /**< The cumulative exception bit for floating-p
 526:Generated_Source\PSoC6\pdl\drivers/peripheral/syslib/cy_syslib.h ****         #define CY_S0_Pos         (8U)     /**< The position of the FPU S0 content in a fault struc
 527:Generated_Source\PSoC6\pdl\drivers/peripheral/syslib/cy_syslib.h ****         #define CY_S1_Pos         (9U)     /**< The position of the FPU S1 content in a fault struc
 528:Generated_Source\PSoC6\pdl\drivers/peripheral/syslib/cy_syslib.h ****         #define CY_S2_Pos         (10U)    /**< The position of the FPU S2 content in a fault struc
ARM GAS  C:\Users\Agentos\AppData\Local\Temp\ccEAbd3r.s 			page 31


 529:Generated_Source\PSoC6\pdl\drivers/peripheral/syslib/cy_syslib.h ****         #define CY_S3_Pos         (11U)    /**< The position of the FPU S3 content in a fault struc
 530:Generated_Source\PSoC6\pdl\drivers/peripheral/syslib/cy_syslib.h ****         #define CY_S4_Pos         (12U)    /**< The position of the FPU S4 content in a fault struc
 531:Generated_Source\PSoC6\pdl\drivers/peripheral/syslib/cy_syslib.h ****         #define CY_S5_Pos         (13U)    /**< The position of the FPU S5 content in a fault struc
 532:Generated_Source\PSoC6\pdl\drivers/peripheral/syslib/cy_syslib.h ****         #define CY_S6_Pos         (14U)    /**< The position of the FPU S6 content in a fault struc
 533:Generated_Source\PSoC6\pdl\drivers/peripheral/syslib/cy_syslib.h ****         #define CY_S7_Pos         (15U)    /**< The position of the FPU S7 content in a fault struc
 534:Generated_Source\PSoC6\pdl\drivers/peripheral/syslib/cy_syslib.h ****         #define CY_S8_Pos         (16U)    /**< The position of the FPU S8 content in a fault struc
 535:Generated_Source\PSoC6\pdl\drivers/peripheral/syslib/cy_syslib.h ****         #define CY_S9_Pos         (17U)    /**< The position of the FPU S9 content in a fault struc
 536:Generated_Source\PSoC6\pdl\drivers/peripheral/syslib/cy_syslib.h ****         #define CY_S10_Pos        (18U)    /**< The position of the FPU S10 content in a fault stru
 537:Generated_Source\PSoC6\pdl\drivers/peripheral/syslib/cy_syslib.h ****         #define CY_S11_Pos        (19U)    /**< The position of the FPU S11 content in a fault stru
 538:Generated_Source\PSoC6\pdl\drivers/peripheral/syslib/cy_syslib.h ****         #define CY_S12_Pos        (20U)    /**< The position of the FPU S12 content in a fault stru
 539:Generated_Source\PSoC6\pdl\drivers/peripheral/syslib/cy_syslib.h ****         #define CY_S13_Pos        (21U)    /**< The position of the FPU S13 content in a fault stru
 540:Generated_Source\PSoC6\pdl\drivers/peripheral/syslib/cy_syslib.h ****         #define CY_S14_Pos        (22U)    /**< The position of the FPU S14 content in a fault stru
 541:Generated_Source\PSoC6\pdl\drivers/peripheral/syslib/cy_syslib.h ****         #define CY_S15_Pos        (23U)    /**< The position of the FPU S15 content in a fault stru
 542:Generated_Source\PSoC6\pdl\drivers/peripheral/syslib/cy_syslib.h ****         #define CY_FPSCR_Pos      (24U)    /**< The position of the FPU FPSCR content in a fault st
 543:Generated_Source\PSoC6\pdl\drivers/peripheral/syslib/cy_syslib.h ****     #endif /* CY_CPU_CORTEX_M4 && __FPU_PRESENT */
 544:Generated_Source\PSoC6\pdl\drivers/peripheral/syslib/cy_syslib.h **** 
 545:Generated_Source\PSoC6\pdl\drivers/peripheral/syslib/cy_syslib.h ****     extern CY_NOINIT cy_stc_fault_frame_t cy_faultFrame;    /**< Fault frame structure */
 546:Generated_Source\PSoC6\pdl\drivers/peripheral/syslib/cy_syslib.h **** #endif /* (CY_ARM_FAULT_DEBUG == CY_ARM_FAULT_DEBUG_ENABLED) */
 547:Generated_Source\PSoC6\pdl\drivers/peripheral/syslib/cy_syslib.h **** 
 548:Generated_Source\PSoC6\pdl\drivers/peripheral/syslib/cy_syslib.h **** 
 549:Generated_Source\PSoC6\pdl\drivers/peripheral/syslib/cy_syslib.h **** /*******************************************************************************
 550:Generated_Source\PSoC6\pdl\drivers/peripheral/syslib/cy_syslib.h **** * Macro Name: CY_GET_REG8(addr)
 551:Generated_Source\PSoC6\pdl\drivers/peripheral/syslib/cy_syslib.h **** ****************************************************************************//**
 552:Generated_Source\PSoC6\pdl\drivers/peripheral/syslib/cy_syslib.h **** *
 553:Generated_Source\PSoC6\pdl\drivers/peripheral/syslib/cy_syslib.h **** * Reads the 8-bit value from the specified address. This function can't be
 554:Generated_Source\PSoC6\pdl\drivers/peripheral/syslib/cy_syslib.h **** * used to access the Core register, otherwise a fault occurs.
 555:Generated_Source\PSoC6\pdl\drivers/peripheral/syslib/cy_syslib.h **** *
 556:Generated_Source\PSoC6\pdl\drivers/peripheral/syslib/cy_syslib.h **** * \param addr  The register address.
 557:Generated_Source\PSoC6\pdl\drivers/peripheral/syslib/cy_syslib.h **** *
 558:Generated_Source\PSoC6\pdl\drivers/peripheral/syslib/cy_syslib.h **** * \return The read value.
 559:Generated_Source\PSoC6\pdl\drivers/peripheral/syslib/cy_syslib.h **** *
 560:Generated_Source\PSoC6\pdl\drivers/peripheral/syslib/cy_syslib.h **** *******************************************************************************/
 561:Generated_Source\PSoC6\pdl\drivers/peripheral/syslib/cy_syslib.h **** #define CY_GET_REG8(addr)           (*((const volatile uint8_t *)(addr)))
 562:Generated_Source\PSoC6\pdl\drivers/peripheral/syslib/cy_syslib.h **** 
 563:Generated_Source\PSoC6\pdl\drivers/peripheral/syslib/cy_syslib.h **** 
 564:Generated_Source\PSoC6\pdl\drivers/peripheral/syslib/cy_syslib.h **** /*******************************************************************************
 565:Generated_Source\PSoC6\pdl\drivers/peripheral/syslib/cy_syslib.h **** * Macro Name: CY_SET_REG8(addr, value)
 566:Generated_Source\PSoC6\pdl\drivers/peripheral/syslib/cy_syslib.h **** ****************************************************************************//**
 567:Generated_Source\PSoC6\pdl\drivers/peripheral/syslib/cy_syslib.h **** *
 568:Generated_Source\PSoC6\pdl\drivers/peripheral/syslib/cy_syslib.h **** * Writes an 8-bit value to the specified address. This function can't be
 569:Generated_Source\PSoC6\pdl\drivers/peripheral/syslib/cy_syslib.h **** * used to access the Core register, otherwise a fault occurs.
 570:Generated_Source\PSoC6\pdl\drivers/peripheral/syslib/cy_syslib.h **** *
 571:Generated_Source\PSoC6\pdl\drivers/peripheral/syslib/cy_syslib.h **** * \param addr  The register address.
 572:Generated_Source\PSoC6\pdl\drivers/peripheral/syslib/cy_syslib.h **** *
 573:Generated_Source\PSoC6\pdl\drivers/peripheral/syslib/cy_syslib.h **** * \param value The value to write.
 574:Generated_Source\PSoC6\pdl\drivers/peripheral/syslib/cy_syslib.h **** *
 575:Generated_Source\PSoC6\pdl\drivers/peripheral/syslib/cy_syslib.h **** *******************************************************************************/
 576:Generated_Source\PSoC6\pdl\drivers/peripheral/syslib/cy_syslib.h **** #define CY_SET_REG8(addr, value)    (*((volatile uint8_t *)(addr)) = (uint8_t)(value))
 577:Generated_Source\PSoC6\pdl\drivers/peripheral/syslib/cy_syslib.h **** 
 578:Generated_Source\PSoC6\pdl\drivers/peripheral/syslib/cy_syslib.h **** 
 579:Generated_Source\PSoC6\pdl\drivers/peripheral/syslib/cy_syslib.h **** /*******************************************************************************
 580:Generated_Source\PSoC6\pdl\drivers/peripheral/syslib/cy_syslib.h **** * Macro Name: CY_GET_REG16(addr)
 581:Generated_Source\PSoC6\pdl\drivers/peripheral/syslib/cy_syslib.h **** ****************************************************************************//**
 582:Generated_Source\PSoC6\pdl\drivers/peripheral/syslib/cy_syslib.h **** *
 583:Generated_Source\PSoC6\pdl\drivers/peripheral/syslib/cy_syslib.h **** * Reads the 16-bit value from the specified address.
 584:Generated_Source\PSoC6\pdl\drivers/peripheral/syslib/cy_syslib.h **** *
 585:Generated_Source\PSoC6\pdl\drivers/peripheral/syslib/cy_syslib.h **** * \param addr  The register address.
ARM GAS  C:\Users\Agentos\AppData\Local\Temp\ccEAbd3r.s 			page 32


 586:Generated_Source\PSoC6\pdl\drivers/peripheral/syslib/cy_syslib.h **** *
 587:Generated_Source\PSoC6\pdl\drivers/peripheral/syslib/cy_syslib.h **** * \return The read value.
 588:Generated_Source\PSoC6\pdl\drivers/peripheral/syslib/cy_syslib.h **** *
 589:Generated_Source\PSoC6\pdl\drivers/peripheral/syslib/cy_syslib.h **** *******************************************************************************/
 590:Generated_Source\PSoC6\pdl\drivers/peripheral/syslib/cy_syslib.h **** #define CY_GET_REG16(addr)          (*((const volatile uint16_t *)(addr)))
 591:Generated_Source\PSoC6\pdl\drivers/peripheral/syslib/cy_syslib.h **** 
 592:Generated_Source\PSoC6\pdl\drivers/peripheral/syslib/cy_syslib.h **** 
 593:Generated_Source\PSoC6\pdl\drivers/peripheral/syslib/cy_syslib.h **** /*******************************************************************************
 594:Generated_Source\PSoC6\pdl\drivers/peripheral/syslib/cy_syslib.h **** * Macro Name: CY_SET_REG16(addr, value)
 595:Generated_Source\PSoC6\pdl\drivers/peripheral/syslib/cy_syslib.h **** ****************************************************************************//**
 596:Generated_Source\PSoC6\pdl\drivers/peripheral/syslib/cy_syslib.h **** *
 597:Generated_Source\PSoC6\pdl\drivers/peripheral/syslib/cy_syslib.h **** * Writes the 16-bit value to the specified address.
 598:Generated_Source\PSoC6\pdl\drivers/peripheral/syslib/cy_syslib.h **** *
 599:Generated_Source\PSoC6\pdl\drivers/peripheral/syslib/cy_syslib.h **** * \param addr  The register address.
 600:Generated_Source\PSoC6\pdl\drivers/peripheral/syslib/cy_syslib.h **** *
 601:Generated_Source\PSoC6\pdl\drivers/peripheral/syslib/cy_syslib.h **** * \param value The value to write.
 602:Generated_Source\PSoC6\pdl\drivers/peripheral/syslib/cy_syslib.h **** *
 603:Generated_Source\PSoC6\pdl\drivers/peripheral/syslib/cy_syslib.h **** *******************************************************************************/
 604:Generated_Source\PSoC6\pdl\drivers/peripheral/syslib/cy_syslib.h **** #define CY_SET_REG16(addr, value)   (*((volatile uint16_t *)(addr)) = (uint16_t)(value))
 605:Generated_Source\PSoC6\pdl\drivers/peripheral/syslib/cy_syslib.h **** 
 606:Generated_Source\PSoC6\pdl\drivers/peripheral/syslib/cy_syslib.h **** 
 607:Generated_Source\PSoC6\pdl\drivers/peripheral/syslib/cy_syslib.h **** /*******************************************************************************
 608:Generated_Source\PSoC6\pdl\drivers/peripheral/syslib/cy_syslib.h **** * Macro Name: CY_GET_REG24(addr)
 609:Generated_Source\PSoC6\pdl\drivers/peripheral/syslib/cy_syslib.h **** ****************************************************************************//**
 610:Generated_Source\PSoC6\pdl\drivers/peripheral/syslib/cy_syslib.h **** *
 611:Generated_Source\PSoC6\pdl\drivers/peripheral/syslib/cy_syslib.h **** * Reads the 24-bit value from the specified address.
 612:Generated_Source\PSoC6\pdl\drivers/peripheral/syslib/cy_syslib.h **** *
 613:Generated_Source\PSoC6\pdl\drivers/peripheral/syslib/cy_syslib.h **** * \param addr  The register address.
 614:Generated_Source\PSoC6\pdl\drivers/peripheral/syslib/cy_syslib.h **** *
 615:Generated_Source\PSoC6\pdl\drivers/peripheral/syslib/cy_syslib.h **** * \return The read value.
 616:Generated_Source\PSoC6\pdl\drivers/peripheral/syslib/cy_syslib.h **** *
 617:Generated_Source\PSoC6\pdl\drivers/peripheral/syslib/cy_syslib.h **** *******************************************************************************/
 618:Generated_Source\PSoC6\pdl\drivers/peripheral/syslib/cy_syslib.h **** #define CY_GET_REG24(addr)          (((uint32_t) (*((const volatile uint8_t *)(addr)))) | \
 619:Generated_Source\PSoC6\pdl\drivers/peripheral/syslib/cy_syslib.h ****                                     (((uint32_t) (*((const volatile uint8_t *)(addr) + 1))) << 8U) 
 620:Generated_Source\PSoC6\pdl\drivers/peripheral/syslib/cy_syslib.h ****                                     (((uint32_t) (*((const volatile uint8_t *)(addr) + 2))) << 16U)
 621:Generated_Source\PSoC6\pdl\drivers/peripheral/syslib/cy_syslib.h **** 
 622:Generated_Source\PSoC6\pdl\drivers/peripheral/syslib/cy_syslib.h **** 
 623:Generated_Source\PSoC6\pdl\drivers/peripheral/syslib/cy_syslib.h **** /*******************************************************************************
 624:Generated_Source\PSoC6\pdl\drivers/peripheral/syslib/cy_syslib.h **** * Macro Name: CY_SET_REG24(addr, value)
 625:Generated_Source\PSoC6\pdl\drivers/peripheral/syslib/cy_syslib.h **** ****************************************************************************//**
 626:Generated_Source\PSoC6\pdl\drivers/peripheral/syslib/cy_syslib.h **** *
 627:Generated_Source\PSoC6\pdl\drivers/peripheral/syslib/cy_syslib.h **** * Writes the 24-bit value to the specified address.
 628:Generated_Source\PSoC6\pdl\drivers/peripheral/syslib/cy_syslib.h **** *
 629:Generated_Source\PSoC6\pdl\drivers/peripheral/syslib/cy_syslib.h **** * \param addr  The register address.
 630:Generated_Source\PSoC6\pdl\drivers/peripheral/syslib/cy_syslib.h **** *
 631:Generated_Source\PSoC6\pdl\drivers/peripheral/syslib/cy_syslib.h **** * \param value The value to write.
 632:Generated_Source\PSoC6\pdl\drivers/peripheral/syslib/cy_syslib.h **** *
 633:Generated_Source\PSoC6\pdl\drivers/peripheral/syslib/cy_syslib.h **** *******************************************************************************/
 634:Generated_Source\PSoC6\pdl\drivers/peripheral/syslib/cy_syslib.h **** #define CY_SET_REG24(addr, value)   do  \
 635:Generated_Source\PSoC6\pdl\drivers/peripheral/syslib/cy_syslib.h ****                                     {   \
 636:Generated_Source\PSoC6\pdl\drivers/peripheral/syslib/cy_syslib.h ****                                         (*((volatile uint8_t *) (addr))) = (uint8_t)(value);       
 637:Generated_Source\PSoC6\pdl\drivers/peripheral/syslib/cy_syslib.h ****                                         (*((volatile uint8_t *) (addr) + 1)) = (uint8_t)((value) >>
 638:Generated_Source\PSoC6\pdl\drivers/peripheral/syslib/cy_syslib.h ****                                         (*((volatile uint8_t *) (addr) + 2)) = (uint8_t)((value) >>
 639:Generated_Source\PSoC6\pdl\drivers/peripheral/syslib/cy_syslib.h ****                                     }   \
 640:Generated_Source\PSoC6\pdl\drivers/peripheral/syslib/cy_syslib.h ****                                     while(0)
 641:Generated_Source\PSoC6\pdl\drivers/peripheral/syslib/cy_syslib.h **** 
 642:Generated_Source\PSoC6\pdl\drivers/peripheral/syslib/cy_syslib.h **** 
ARM GAS  C:\Users\Agentos\AppData\Local\Temp\ccEAbd3r.s 			page 33


 643:Generated_Source\PSoC6\pdl\drivers/peripheral/syslib/cy_syslib.h **** /*******************************************************************************
 644:Generated_Source\PSoC6\pdl\drivers/peripheral/syslib/cy_syslib.h **** * Macro Name: CY_GET_REG32(addr)
 645:Generated_Source\PSoC6\pdl\drivers/peripheral/syslib/cy_syslib.h **** ****************************************************************************//**
 646:Generated_Source\PSoC6\pdl\drivers/peripheral/syslib/cy_syslib.h **** *
 647:Generated_Source\PSoC6\pdl\drivers/peripheral/syslib/cy_syslib.h **** * Reads the 32-bit value from the specified register. The address is the little
 648:Generated_Source\PSoC6\pdl\drivers/peripheral/syslib/cy_syslib.h **** * endian order (LSB in lowest address).
 649:Generated_Source\PSoC6\pdl\drivers/peripheral/syslib/cy_syslib.h **** *
 650:Generated_Source\PSoC6\pdl\drivers/peripheral/syslib/cy_syslib.h **** * \param addr  The register address.
 651:Generated_Source\PSoC6\pdl\drivers/peripheral/syslib/cy_syslib.h **** *
 652:Generated_Source\PSoC6\pdl\drivers/peripheral/syslib/cy_syslib.h **** * \return The read value.
 653:Generated_Source\PSoC6\pdl\drivers/peripheral/syslib/cy_syslib.h **** *
 654:Generated_Source\PSoC6\pdl\drivers/peripheral/syslib/cy_syslib.h **** *******************************************************************************/
 655:Generated_Source\PSoC6\pdl\drivers/peripheral/syslib/cy_syslib.h **** #define CY_GET_REG32(addr)          (*((const volatile uint32_t *)(addr)))
 656:Generated_Source\PSoC6\pdl\drivers/peripheral/syslib/cy_syslib.h **** 
 657:Generated_Source\PSoC6\pdl\drivers/peripheral/syslib/cy_syslib.h **** 
 658:Generated_Source\PSoC6\pdl\drivers/peripheral/syslib/cy_syslib.h **** /*******************************************************************************
 659:Generated_Source\PSoC6\pdl\drivers/peripheral/syslib/cy_syslib.h **** * Macro Name: CY_SET_REG32(addr, value)
 660:Generated_Source\PSoC6\pdl\drivers/peripheral/syslib/cy_syslib.h **** ****************************************************************************//**
 661:Generated_Source\PSoC6\pdl\drivers/peripheral/syslib/cy_syslib.h **** *
 662:Generated_Source\PSoC6\pdl\drivers/peripheral/syslib/cy_syslib.h **** * Writes the 32-bit value to the specified register. The address is the little
 663:Generated_Source\PSoC6\pdl\drivers/peripheral/syslib/cy_syslib.h **** * endian order (LSB in lowest address).
 664:Generated_Source\PSoC6\pdl\drivers/peripheral/syslib/cy_syslib.h **** *
 665:Generated_Source\PSoC6\pdl\drivers/peripheral/syslib/cy_syslib.h **** * \param addr  The register address.
 666:Generated_Source\PSoC6\pdl\drivers/peripheral/syslib/cy_syslib.h **** *
 667:Generated_Source\PSoC6\pdl\drivers/peripheral/syslib/cy_syslib.h **** * \param value The value to write.
 668:Generated_Source\PSoC6\pdl\drivers/peripheral/syslib/cy_syslib.h **** *
 669:Generated_Source\PSoC6\pdl\drivers/peripheral/syslib/cy_syslib.h **** *******************************************************************************/
 670:Generated_Source\PSoC6\pdl\drivers/peripheral/syslib/cy_syslib.h **** #define CY_SET_REG32(addr, value)   (*((volatile uint32_t *)(addr)) = (uint32_t)(value))
 671:Generated_Source\PSoC6\pdl\drivers/peripheral/syslib/cy_syslib.h **** 
 672:Generated_Source\PSoC6\pdl\drivers/peripheral/syslib/cy_syslib.h **** 
 673:Generated_Source\PSoC6\pdl\drivers/peripheral/syslib/cy_syslib.h **** /**
 674:Generated_Source\PSoC6\pdl\drivers/peripheral/syslib/cy_syslib.h **** * \defgroup group_syslib_macros_assert Assert Classes and Levels
 675:Generated_Source\PSoC6\pdl\drivers/peripheral/syslib/cy_syslib.h **** * \{
 676:Generated_Source\PSoC6\pdl\drivers/peripheral/syslib/cy_syslib.h **** * Defines for the Assert Classes and Levels
 677:Generated_Source\PSoC6\pdl\drivers/peripheral/syslib/cy_syslib.h **** */
 678:Generated_Source\PSoC6\pdl\drivers/peripheral/syslib/cy_syslib.h **** 
 679:Generated_Source\PSoC6\pdl\drivers/peripheral/syslib/cy_syslib.h **** /** 
 680:Generated_Source\PSoC6\pdl\drivers/peripheral/syslib/cy_syslib.h **** * Class 1 - The highest class, safety-critical functions which rely on parameters that could be
 681:Generated_Source\PSoC6\pdl\drivers/peripheral/syslib/cy_syslib.h **** * changed between different PSoC devices
 682:Generated_Source\PSoC6\pdl\drivers/peripheral/syslib/cy_syslib.h **** */
 683:Generated_Source\PSoC6\pdl\drivers/peripheral/syslib/cy_syslib.h **** #define CY_ASSERT_CLASS_1           (1U)
 684:Generated_Source\PSoC6\pdl\drivers/peripheral/syslib/cy_syslib.h **** 
 685:Generated_Source\PSoC6\pdl\drivers/peripheral/syslib/cy_syslib.h **** /** Class 2 - Functions that have fixed limits such as counter periods (16-bits/32-bits etc.) */
 686:Generated_Source\PSoC6\pdl\drivers/peripheral/syslib/cy_syslib.h **** #define CY_ASSERT_CLASS_2           (2U)
 687:Generated_Source\PSoC6\pdl\drivers/peripheral/syslib/cy_syslib.h **** 
 688:Generated_Source\PSoC6\pdl\drivers/peripheral/syslib/cy_syslib.h **** /** Class 3 - Functions that accept enums as constant parameters */
 689:Generated_Source\PSoC6\pdl\drivers/peripheral/syslib/cy_syslib.h **** #define CY_ASSERT_CLASS_3           (3U)
 690:Generated_Source\PSoC6\pdl\drivers/peripheral/syslib/cy_syslib.h **** 
 691:Generated_Source\PSoC6\pdl\drivers/peripheral/syslib/cy_syslib.h **** #ifndef CY_ASSERT_LEVEL
 692:Generated_Source\PSoC6\pdl\drivers/peripheral/syslib/cy_syslib.h ****     /** The user-definable assert level from compiler command-line argument (similarly to DEBUG / N
 693:Generated_Source\PSoC6\pdl\drivers/peripheral/syslib/cy_syslib.h ****     #define CY_ASSERT_LEVEL         CY_ASSERT_CLASS_3
 694:Generated_Source\PSoC6\pdl\drivers/peripheral/syslib/cy_syslib.h **** #endif /* CY_ASSERT_LEVEL */
 695:Generated_Source\PSoC6\pdl\drivers/peripheral/syslib/cy_syslib.h **** 
 696:Generated_Source\PSoC6\pdl\drivers/peripheral/syslib/cy_syslib.h **** #if (CY_ASSERT_LEVEL == CY_ASSERT_CLASS_1)
 697:Generated_Source\PSoC6\pdl\drivers/peripheral/syslib/cy_syslib.h ****     #define CY_ASSERT_L1(x)         CY_ASSERT(x)     /**< Assert Level 1 */
 698:Generated_Source\PSoC6\pdl\drivers/peripheral/syslib/cy_syslib.h ****     #define CY_ASSERT_L2(x)         do{} while(0)    /**< Assert Level 2 */
 699:Generated_Source\PSoC6\pdl\drivers/peripheral/syslib/cy_syslib.h ****     #define CY_ASSERT_L3(x)         do{} while(0)    /**< Assert Level 3 */
ARM GAS  C:\Users\Agentos\AppData\Local\Temp\ccEAbd3r.s 			page 34


 700:Generated_Source\PSoC6\pdl\drivers/peripheral/syslib/cy_syslib.h **** #elif (CY_ASSERT_LEVEL == CY_ASSERT_CLASS_2)
 701:Generated_Source\PSoC6\pdl\drivers/peripheral/syslib/cy_syslib.h ****     #define CY_ASSERT_L1(x)         CY_ASSERT(x)     /**< Assert Level 1 */
 702:Generated_Source\PSoC6\pdl\drivers/peripheral/syslib/cy_syslib.h ****     #define CY_ASSERT_L2(x)         CY_ASSERT(x)     /**< Assert Level 2 */
 703:Generated_Source\PSoC6\pdl\drivers/peripheral/syslib/cy_syslib.h ****     #define CY_ASSERT_L3(x)         do{} while(0)    /**< Assert Level 3 */
 704:Generated_Source\PSoC6\pdl\drivers/peripheral/syslib/cy_syslib.h **** #else /* Default is Level 3 */
 705:Generated_Source\PSoC6\pdl\drivers/peripheral/syslib/cy_syslib.h ****     #define CY_ASSERT_L1(x)         CY_ASSERT(x)     /**< Assert Level 1 */
 706:Generated_Source\PSoC6\pdl\drivers/peripheral/syslib/cy_syslib.h ****     #define CY_ASSERT_L2(x)         CY_ASSERT(x)     /**< Assert Level 2 */
 707:Generated_Source\PSoC6\pdl\drivers/peripheral/syslib/cy_syslib.h ****     #define CY_ASSERT_L3(x)         CY_ASSERT(x)     /**< Assert Level 3 */
 708:Generated_Source\PSoC6\pdl\drivers/peripheral/syslib/cy_syslib.h **** #endif /* CY_ASSERT_LEVEL == CY_ASSERT_CLASS_1 */
 709:Generated_Source\PSoC6\pdl\drivers/peripheral/syslib/cy_syslib.h **** 
 710:Generated_Source\PSoC6\pdl\drivers/peripheral/syslib/cy_syslib.h **** /** \} group_syslib_macros_assert */
 711:Generated_Source\PSoC6\pdl\drivers/peripheral/syslib/cy_syslib.h **** 
 712:Generated_Source\PSoC6\pdl\drivers/peripheral/syslib/cy_syslib.h **** 
 713:Generated_Source\PSoC6\pdl\drivers/peripheral/syslib/cy_syslib.h **** /*******************************************************************************
 714:Generated_Source\PSoC6\pdl\drivers/peripheral/syslib/cy_syslib.h **** * Macro Name: CY_ASSERT
 715:Generated_Source\PSoC6\pdl\drivers/peripheral/syslib/cy_syslib.h **** ****************************************************************************//**
 716:Generated_Source\PSoC6\pdl\drivers/peripheral/syslib/cy_syslib.h **** *
 717:Generated_Source\PSoC6\pdl\drivers/peripheral/syslib/cy_syslib.h **** *  The macro that evaluates the expression and, if it is false (evaluates to 0),
 718:Generated_Source\PSoC6\pdl\drivers/peripheral/syslib/cy_syslib.h **** *  the processor is halted. Cy_SysLib_AssertFailed() is called when the logical
 719:Generated_Source\PSoC6\pdl\drivers/peripheral/syslib/cy_syslib.h **** *  expression is false to store the ASSERT location and halt the processor.
 720:Generated_Source\PSoC6\pdl\drivers/peripheral/syslib/cy_syslib.h **** *
 721:Generated_Source\PSoC6\pdl\drivers/peripheral/syslib/cy_syslib.h **** * \param x  The logical expression. Asserts if false.
 722:Generated_Source\PSoC6\pdl\drivers/peripheral/syslib/cy_syslib.h **** * \note This macro is evaluated unless NDEBUG is not defined.
 723:Generated_Source\PSoC6\pdl\drivers/peripheral/syslib/cy_syslib.h **** *       If NDEBUG is defined, just empty do while cycle is generated for this
 724:Generated_Source\PSoC6\pdl\drivers/peripheral/syslib/cy_syslib.h **** *       macro for the sake of consistency and to avoid MISRA violation.
 725:Generated_Source\PSoC6\pdl\drivers/peripheral/syslib/cy_syslib.h **** *       NDEBUG is defined by default for a Release build setting and not defined
 726:Generated_Source\PSoC6\pdl\drivers/peripheral/syslib/cy_syslib.h **** *       for a Debug build setting.
 727:Generated_Source\PSoC6\pdl\drivers/peripheral/syslib/cy_syslib.h **** *
 728:Generated_Source\PSoC6\pdl\drivers/peripheral/syslib/cy_syslib.h **** *******************************************************************************/
 729:Generated_Source\PSoC6\pdl\drivers/peripheral/syslib/cy_syslib.h **** #if !defined(NDEBUG)
 730:Generated_Source\PSoC6\pdl\drivers/peripheral/syslib/cy_syslib.h ****     #define CY_ASSERT(x)    do  \
 731:Generated_Source\PSoC6\pdl\drivers/peripheral/syslib/cy_syslib.h ****                             {   \
 732:Generated_Source\PSoC6\pdl\drivers/peripheral/syslib/cy_syslib.h ****                                 if(!(x)) \
 733:Generated_Source\PSoC6\pdl\drivers/peripheral/syslib/cy_syslib.h ****                                 { \
 734:Generated_Source\PSoC6\pdl\drivers/peripheral/syslib/cy_syslib.h ****                                     Cy_SysLib_AssertFailed((char_t *) __FILE__, (uint32_t) __LINE__
 735:Generated_Source\PSoC6\pdl\drivers/peripheral/syslib/cy_syslib.h ****                                 } \
 736:Generated_Source\PSoC6\pdl\drivers/peripheral/syslib/cy_syslib.h ****                             } while(0)
 737:Generated_Source\PSoC6\pdl\drivers/peripheral/syslib/cy_syslib.h **** #else
 738:Generated_Source\PSoC6\pdl\drivers/peripheral/syslib/cy_syslib.h ****     #define CY_ASSERT(x)    do  \
 739:Generated_Source\PSoC6\pdl\drivers/peripheral/syslib/cy_syslib.h ****                             {   \
 740:Generated_Source\PSoC6\pdl\drivers/peripheral/syslib/cy_syslib.h ****                             } while(0)
 741:Generated_Source\PSoC6\pdl\drivers/peripheral/syslib/cy_syslib.h **** #endif  /* !defined(NDEBUG) */
 742:Generated_Source\PSoC6\pdl\drivers/peripheral/syslib/cy_syslib.h **** 
 743:Generated_Source\PSoC6\pdl\drivers/peripheral/syslib/cy_syslib.h **** 
 744:Generated_Source\PSoC6\pdl\drivers/peripheral/syslib/cy_syslib.h **** /*******************************************************************************
 745:Generated_Source\PSoC6\pdl\drivers/peripheral/syslib/cy_syslib.h **** * Macro Name: _CLR_SET_FLD32U
 746:Generated_Source\PSoC6\pdl\drivers/peripheral/syslib/cy_syslib.h **** ****************************************************************************//**
 747:Generated_Source\PSoC6\pdl\drivers/peripheral/syslib/cy_syslib.h **** *
 748:Generated_Source\PSoC6\pdl\drivers/peripheral/syslib/cy_syslib.h **** *  The macro for setting a register with a name field and value for providing
 749:Generated_Source\PSoC6\pdl\drivers/peripheral/syslib/cy_syslib.h **** *  get-clear-modify-write operations.
 750:Generated_Source\PSoC6\pdl\drivers/peripheral/syslib/cy_syslib.h **** *  Returns a resulting value to be assigned to the register.
 751:Generated_Source\PSoC6\pdl\drivers/peripheral/syslib/cy_syslib.h **** *
 752:Generated_Source\PSoC6\pdl\drivers/peripheral/syslib/cy_syslib.h **** *******************************************************************************/
 753:Generated_Source\PSoC6\pdl\drivers/peripheral/syslib/cy_syslib.h **** #define _CLR_SET_FLD32U(reg, field, value) (((reg) & ((uint32_t)(~(field ## _Msk)))) | (_VAL2FLD(fi
 754:Generated_Source\PSoC6\pdl\drivers/peripheral/syslib/cy_syslib.h **** 
 755:Generated_Source\PSoC6\pdl\drivers/peripheral/syslib/cy_syslib.h **** 
 756:Generated_Source\PSoC6\pdl\drivers/peripheral/syslib/cy_syslib.h **** /*******************************************************************************
ARM GAS  C:\Users\Agentos\AppData\Local\Temp\ccEAbd3r.s 			page 35


 757:Generated_Source\PSoC6\pdl\drivers/peripheral/syslib/cy_syslib.h **** * Macro Name: CY_REG32_CLR_SET
 758:Generated_Source\PSoC6\pdl\drivers/peripheral/syslib/cy_syslib.h **** ****************************************************************************//**
 759:Generated_Source\PSoC6\pdl\drivers/peripheral/syslib/cy_syslib.h **** *
 760:Generated_Source\PSoC6\pdl\drivers/peripheral/syslib/cy_syslib.h **** *  Uses _CLR_SET_FLD32U macro for providing get-clear-modify-write 
 761:Generated_Source\PSoC6\pdl\drivers/peripheral/syslib/cy_syslib.h **** *  operations with a name field and value and writes a resulting value 
 762:Generated_Source\PSoC6\pdl\drivers/peripheral/syslib/cy_syslib.h **** *  to the 32-bit register.
 763:Generated_Source\PSoC6\pdl\drivers/peripheral/syslib/cy_syslib.h **** *
 764:Generated_Source\PSoC6\pdl\drivers/peripheral/syslib/cy_syslib.h **** *******************************************************************************/
 765:Generated_Source\PSoC6\pdl\drivers/peripheral/syslib/cy_syslib.h **** #define CY_REG32_CLR_SET(reg, field, value) ((reg) = _CLR_SET_FLD32U((reg), field, (value)))
 766:Generated_Source\PSoC6\pdl\drivers/peripheral/syslib/cy_syslib.h **** 
 767:Generated_Source\PSoC6\pdl\drivers/peripheral/syslib/cy_syslib.h **** 
 768:Generated_Source\PSoC6\pdl\drivers/peripheral/syslib/cy_syslib.h **** /*******************************************************************************
 769:Generated_Source\PSoC6\pdl\drivers/peripheral/syslib/cy_syslib.h **** * Macro Name: _CLR_SET_FLD16U
 770:Generated_Source\PSoC6\pdl\drivers/peripheral/syslib/cy_syslib.h **** ****************************************************************************//**
 771:Generated_Source\PSoC6\pdl\drivers/peripheral/syslib/cy_syslib.h **** *
 772:Generated_Source\PSoC6\pdl\drivers/peripheral/syslib/cy_syslib.h **** *  The macro for setting a 16-bit register with a name field and value for providing
 773:Generated_Source\PSoC6\pdl\drivers/peripheral/syslib/cy_syslib.h **** *  get-clear-modify-write operations.
 774:Generated_Source\PSoC6\pdl\drivers/peripheral/syslib/cy_syslib.h **** *  Returns a resulting value to be assigned to the 16-bit register.
 775:Generated_Source\PSoC6\pdl\drivers/peripheral/syslib/cy_syslib.h **** *
 776:Generated_Source\PSoC6\pdl\drivers/peripheral/syslib/cy_syslib.h **** *******************************************************************************/
 777:Generated_Source\PSoC6\pdl\drivers/peripheral/syslib/cy_syslib.h **** #define _CLR_SET_FLD16U(reg, field, value) ((uint16_t)(((reg) & ((uint16_t)(~(field ## _Msk)))) |  
 778:Generated_Source\PSoC6\pdl\drivers/peripheral/syslib/cy_syslib.h ****                                                        ((uint16_t)_VAL2FLD(field, value))))
 779:Generated_Source\PSoC6\pdl\drivers/peripheral/syslib/cy_syslib.h ****                                                        
 780:Generated_Source\PSoC6\pdl\drivers/peripheral/syslib/cy_syslib.h ****                                                        
 781:Generated_Source\PSoC6\pdl\drivers/peripheral/syslib/cy_syslib.h **** /*******************************************************************************
 782:Generated_Source\PSoC6\pdl\drivers/peripheral/syslib/cy_syslib.h **** * Macro Name: CY_REG16_CLR_SET
 783:Generated_Source\PSoC6\pdl\drivers/peripheral/syslib/cy_syslib.h **** ****************************************************************************//**
 784:Generated_Source\PSoC6\pdl\drivers/peripheral/syslib/cy_syslib.h **** *
 785:Generated_Source\PSoC6\pdl\drivers/peripheral/syslib/cy_syslib.h **** *  Uses _CLR_SET_FLD16U macro for providing get-clear-modify-write 
 786:Generated_Source\PSoC6\pdl\drivers/peripheral/syslib/cy_syslib.h **** *  operations with a name field and value and writes a resulting value 
 787:Generated_Source\PSoC6\pdl\drivers/peripheral/syslib/cy_syslib.h **** *  to the 16-bit register.
 788:Generated_Source\PSoC6\pdl\drivers/peripheral/syslib/cy_syslib.h **** *
 789:Generated_Source\PSoC6\pdl\drivers/peripheral/syslib/cy_syslib.h **** *******************************************************************************/
 790:Generated_Source\PSoC6\pdl\drivers/peripheral/syslib/cy_syslib.h **** #define CY_REG16_CLR_SET(reg, field, value) ((reg) = _CLR_SET_FLD16U((reg), field, (value)))
 791:Generated_Source\PSoC6\pdl\drivers/peripheral/syslib/cy_syslib.h **** 
 792:Generated_Source\PSoC6\pdl\drivers/peripheral/syslib/cy_syslib.h **** 
 793:Generated_Source\PSoC6\pdl\drivers/peripheral/syslib/cy_syslib.h **** /*******************************************************************************
 794:Generated_Source\PSoC6\pdl\drivers/peripheral/syslib/cy_syslib.h **** * Macro Name: _CLR_SET_FLD8U
 795:Generated_Source\PSoC6\pdl\drivers/peripheral/syslib/cy_syslib.h **** ****************************************************************************//**
 796:Generated_Source\PSoC6\pdl\drivers/peripheral/syslib/cy_syslib.h **** *
 797:Generated_Source\PSoC6\pdl\drivers/peripheral/syslib/cy_syslib.h **** *  The macro for setting a 8-bit register with a name field and value for providing
 798:Generated_Source\PSoC6\pdl\drivers/peripheral/syslib/cy_syslib.h **** *  get-clear-modify-write operations.
 799:Generated_Source\PSoC6\pdl\drivers/peripheral/syslib/cy_syslib.h **** *  Returns a resulting value to be assigned to the 8-bit register.
 800:Generated_Source\PSoC6\pdl\drivers/peripheral/syslib/cy_syslib.h **** *
 801:Generated_Source\PSoC6\pdl\drivers/peripheral/syslib/cy_syslib.h **** *******************************************************************************/
 802:Generated_Source\PSoC6\pdl\drivers/peripheral/syslib/cy_syslib.h **** #define _CLR_SET_FLD8U(reg, field, value) ((uint8_t)(((reg) & ((uint8_t)(~(field ## _Msk)))) |  \
 803:Generated_Source\PSoC6\pdl\drivers/peripheral/syslib/cy_syslib.h ****                                                      ((uint8_t)_VAL2FLD(field, value))))
 804:Generated_Source\PSoC6\pdl\drivers/peripheral/syslib/cy_syslib.h ****                                                      
 805:Generated_Source\PSoC6\pdl\drivers/peripheral/syslib/cy_syslib.h ****                                                      
 806:Generated_Source\PSoC6\pdl\drivers/peripheral/syslib/cy_syslib.h **** /*******************************************************************************
 807:Generated_Source\PSoC6\pdl\drivers/peripheral/syslib/cy_syslib.h **** * Macro Name: CY_REG8_CLR_SET
 808:Generated_Source\PSoC6\pdl\drivers/peripheral/syslib/cy_syslib.h **** ****************************************************************************//**
 809:Generated_Source\PSoC6\pdl\drivers/peripheral/syslib/cy_syslib.h **** *
 810:Generated_Source\PSoC6\pdl\drivers/peripheral/syslib/cy_syslib.h **** *  Uses _CLR_SET_FLD8U macro for providing get-clear-modify-write 
 811:Generated_Source\PSoC6\pdl\drivers/peripheral/syslib/cy_syslib.h **** *  operations with a name field and value and writes a resulting value 
 812:Generated_Source\PSoC6\pdl\drivers/peripheral/syslib/cy_syslib.h **** *  to the 8-bit register.
 813:Generated_Source\PSoC6\pdl\drivers/peripheral/syslib/cy_syslib.h **** *
ARM GAS  C:\Users\Agentos\AppData\Local\Temp\ccEAbd3r.s 			page 36


 814:Generated_Source\PSoC6\pdl\drivers/peripheral/syslib/cy_syslib.h **** *******************************************************************************/
 815:Generated_Source\PSoC6\pdl\drivers/peripheral/syslib/cy_syslib.h **** #define CY_REG8_CLR_SET(reg, field, value) ((reg) = _CLR_SET_FLD8U((reg), field, (value)))
 816:Generated_Source\PSoC6\pdl\drivers/peripheral/syslib/cy_syslib.h **** 
 817:Generated_Source\PSoC6\pdl\drivers/peripheral/syslib/cy_syslib.h **** 
 818:Generated_Source\PSoC6\pdl\drivers/peripheral/syslib/cy_syslib.h **** /*******************************************************************************
 819:Generated_Source\PSoC6\pdl\drivers/peripheral/syslib/cy_syslib.h **** * Macro Name: _BOOL2FLD
 820:Generated_Source\PSoC6\pdl\drivers/peripheral/syslib/cy_syslib.h **** ****************************************************************************//**
 821:Generated_Source\PSoC6\pdl\drivers/peripheral/syslib/cy_syslib.h **** *
 822:Generated_Source\PSoC6\pdl\drivers/peripheral/syslib/cy_syslib.h **** *  Returns a field mask if the value is not false.
 823:Generated_Source\PSoC6\pdl\drivers/peripheral/syslib/cy_syslib.h **** *  Returns 0, if the value is false.
 824:Generated_Source\PSoC6\pdl\drivers/peripheral/syslib/cy_syslib.h **** *
 825:Generated_Source\PSoC6\pdl\drivers/peripheral/syslib/cy_syslib.h **** *******************************************************************************/
 826:Generated_Source\PSoC6\pdl\drivers/peripheral/syslib/cy_syslib.h **** #define _BOOL2FLD(field, value) (((value) != false) ? (field ## _Msk) : 0UL)
 827:Generated_Source\PSoC6\pdl\drivers/peripheral/syslib/cy_syslib.h **** 
 828:Generated_Source\PSoC6\pdl\drivers/peripheral/syslib/cy_syslib.h **** 
 829:Generated_Source\PSoC6\pdl\drivers/peripheral/syslib/cy_syslib.h **** /*******************************************************************************
 830:Generated_Source\PSoC6\pdl\drivers/peripheral/syslib/cy_syslib.h **** * Macro Name: _FLD2BOOL
 831:Generated_Source\PSoC6\pdl\drivers/peripheral/syslib/cy_syslib.h **** ****************************************************************************//**
 832:Generated_Source\PSoC6\pdl\drivers/peripheral/syslib/cy_syslib.h **** *
 833:Generated_Source\PSoC6\pdl\drivers/peripheral/syslib/cy_syslib.h **** *  Returns true, if the value includes the field mask.
 834:Generated_Source\PSoC6\pdl\drivers/peripheral/syslib/cy_syslib.h **** *  Returns false, if the value doesn't include the field mask.
 835:Generated_Source\PSoC6\pdl\drivers/peripheral/syslib/cy_syslib.h **** *
 836:Generated_Source\PSoC6\pdl\drivers/peripheral/syslib/cy_syslib.h **** *******************************************************************************/
 837:Generated_Source\PSoC6\pdl\drivers/peripheral/syslib/cy_syslib.h **** #define _FLD2BOOL(field, value) (((value) & (field ## _Msk)) != 0UL)
 838:Generated_Source\PSoC6\pdl\drivers/peripheral/syslib/cy_syslib.h **** 
 839:Generated_Source\PSoC6\pdl\drivers/peripheral/syslib/cy_syslib.h **** 
 840:Generated_Source\PSoC6\pdl\drivers/peripheral/syslib/cy_syslib.h **** /******************************************************************************
 841:Generated_Source\PSoC6\pdl\drivers/peripheral/syslib/cy_syslib.h **** * Constants
 842:Generated_Source\PSoC6\pdl\drivers/peripheral/syslib/cy_syslib.h **** *****************************************************************************/
 843:Generated_Source\PSoC6\pdl\drivers/peripheral/syslib/cy_syslib.h **** /** Defines a 32-kHz clock delay */
 844:Generated_Source\PSoC6\pdl\drivers/peripheral/syslib/cy_syslib.h **** #define CY_DELAY_MS_OVERFLOW            (0x8000U)
 845:Generated_Source\PSoC6\pdl\drivers/peripheral/syslib/cy_syslib.h **** 
 846:Generated_Source\PSoC6\pdl\drivers/peripheral/syslib/cy_syslib.h **** /**
 847:Generated_Source\PSoC6\pdl\drivers/peripheral/syslib/cy_syslib.h **** * \defgroup group_syslib_macros_reset_cause Reset cause
 848:Generated_Source\PSoC6\pdl\drivers/peripheral/syslib/cy_syslib.h **** * \{
 849:Generated_Source\PSoC6\pdl\drivers/peripheral/syslib/cy_syslib.h **** * Define RESET_CAUSE mask values
 850:Generated_Source\PSoC6\pdl\drivers/peripheral/syslib/cy_syslib.h **** */
 851:Generated_Source\PSoC6\pdl\drivers/peripheral/syslib/cy_syslib.h **** /** A basic WatchDog Timer (WDT) reset has occurred since the last power cycle. */
 852:Generated_Source\PSoC6\pdl\drivers/peripheral/syslib/cy_syslib.h **** #define CY_SYSLIB_RESET_HWWDT           (0x0001U)
 853:Generated_Source\PSoC6\pdl\drivers/peripheral/syslib/cy_syslib.h **** /** The fault logging system requested a reset from its Active logic. */
 854:Generated_Source\PSoC6\pdl\drivers/peripheral/syslib/cy_syslib.h **** #define CY_SYSLIB_RESET_ACT_FAULT       (0x0002U)
 855:Generated_Source\PSoC6\pdl\drivers/peripheral/syslib/cy_syslib.h **** /** The fault logging system requested a reset from its Deep-Sleep logic. */
 856:Generated_Source\PSoC6\pdl\drivers/peripheral/syslib/cy_syslib.h **** #define CY_SYSLIB_RESET_DPSLP_FAULT     (0x0004U)
 857:Generated_Source\PSoC6\pdl\drivers/peripheral/syslib/cy_syslib.h **** /** The CPU requested a system reset through it's SYSRESETREQ. This can be done via a debugger prob
 858:Generated_Source\PSoC6\pdl\drivers/peripheral/syslib/cy_syslib.h **** #define CY_SYSLIB_RESET_SOFT            (0x0010U)
 859:Generated_Source\PSoC6\pdl\drivers/peripheral/syslib/cy_syslib.h **** /** The Multi-Counter Watchdog timer #0 reset has occurred since the last power cycle. */
 860:Generated_Source\PSoC6\pdl\drivers/peripheral/syslib/cy_syslib.h **** #define CY_SYSLIB_RESET_SWWDT0          (0x0020U)
 861:Generated_Source\PSoC6\pdl\drivers/peripheral/syslib/cy_syslib.h **** /** The Multi-Counter Watchdog timer #1 reset has occurred since the last power cycle. */
 862:Generated_Source\PSoC6\pdl\drivers/peripheral/syslib/cy_syslib.h **** #define CY_SYSLIB_RESET_SWWDT1          (0x0040U)
 863:Generated_Source\PSoC6\pdl\drivers/peripheral/syslib/cy_syslib.h **** /** The Multi-Counter Watchdog timer #2 reset has occurred since the last power cycle. */
 864:Generated_Source\PSoC6\pdl\drivers/peripheral/syslib/cy_syslib.h **** #define CY_SYSLIB_RESET_SWWDT2          (0x0080U)
 865:Generated_Source\PSoC6\pdl\drivers/peripheral/syslib/cy_syslib.h **** /** The Multi-Counter Watchdog timer #3 reset has occurred since the last power cycle. */
 866:Generated_Source\PSoC6\pdl\drivers/peripheral/syslib/cy_syslib.h **** #define CY_SYSLIB_RESET_SWWDT3          (0x0100U)
 867:Generated_Source\PSoC6\pdl\drivers/peripheral/syslib/cy_syslib.h **** /** The reset has occurred on a wakeup from Hibernate power mode. */
 868:Generated_Source\PSoC6\pdl\drivers/peripheral/syslib/cy_syslib.h **** #define CY_SYSLIB_RESET_HIB_WAKEUP      (0x40000UL)
 869:Generated_Source\PSoC6\pdl\drivers/peripheral/syslib/cy_syslib.h **** 
 870:Generated_Source\PSoC6\pdl\drivers/peripheral/syslib/cy_syslib.h **** /** \} group_syslib_macros_reset_cause */
ARM GAS  C:\Users\Agentos\AppData\Local\Temp\ccEAbd3r.s 			page 37


 871:Generated_Source\PSoC6\pdl\drivers/peripheral/syslib/cy_syslib.h **** 
 872:Generated_Source\PSoC6\pdl\drivers/peripheral/syslib/cy_syslib.h **** /** Bit[31:24] Opcode = 0x1B (SoftReset)
 873:Generated_Source\PSoC6\pdl\drivers/peripheral/syslib/cy_syslib.h ****  *  Bit[7:1]   Type   = 1    (Only CM4 reset)
 874:Generated_Source\PSoC6\pdl\drivers/peripheral/syslib/cy_syslib.h ****  */
 875:Generated_Source\PSoC6\pdl\drivers/peripheral/syslib/cy_syslib.h **** #define CY_IPC_DATA_FOR_CM4_SOFT_RESET  (0x1B000002UL)
 876:Generated_Source\PSoC6\pdl\drivers/peripheral/syslib/cy_syslib.h **** 
 877:Generated_Source\PSoC6\pdl\drivers/peripheral/syslib/cy_syslib.h **** /**
 878:Generated_Source\PSoC6\pdl\drivers/peripheral/syslib/cy_syslib.h **** * \defgroup group_syslib_macros_unique_id Unique ID
 879:Generated_Source\PSoC6\pdl\drivers/peripheral/syslib/cy_syslib.h **** * \{
 880:Generated_Source\PSoC6\pdl\drivers/peripheral/syslib/cy_syslib.h **** * Unique ID fields positions
 881:Generated_Source\PSoC6\pdl\drivers/peripheral/syslib/cy_syslib.h **** */
 882:Generated_Source\PSoC6\pdl\drivers/peripheral/syslib/cy_syslib.h **** #define CY_UNIQUE_ID_DIE_YEAR_Pos       (57U)    /**< The position of the DIE_YEAR  field in the si
 883:Generated_Source\PSoC6\pdl\drivers/peripheral/syslib/cy_syslib.h **** #define CY_UNIQUE_ID_DIE_MINOR_Pos      (56U)    /**< The position of the DIE_MINOR field in the si
 884:Generated_Source\PSoC6\pdl\drivers/peripheral/syslib/cy_syslib.h **** #define CY_UNIQUE_ID_DIE_SORT_Pos       (48U)    /**< The position of the DIE_SORT  field in the si
 885:Generated_Source\PSoC6\pdl\drivers/peripheral/syslib/cy_syslib.h **** #define CY_UNIQUE_ID_DIE_Y_Pos          (40U)    /**< The position of the DIE_Y     field in the si
 886:Generated_Source\PSoC6\pdl\drivers/peripheral/syslib/cy_syslib.h **** #define CY_UNIQUE_ID_DIE_X_Pos          (32U)    /**< The position of the DIE_X     field in the si
 887:Generated_Source\PSoC6\pdl\drivers/peripheral/syslib/cy_syslib.h **** #define CY_UNIQUE_ID_DIE_WAFER_Pos      (24U)    /**< The position of the DIE_WAFER field in the si
 888:Generated_Source\PSoC6\pdl\drivers/peripheral/syslib/cy_syslib.h **** #define CY_UNIQUE_ID_DIE_LOT_2_Pos      (16U)    /**< The position of the DIE_LOT_2 field in the si
 889:Generated_Source\PSoC6\pdl\drivers/peripheral/syslib/cy_syslib.h **** #define CY_UNIQUE_ID_DIE_LOT_1_Pos      (8U)     /**< The position of the DIE_LOT_1 field in the si
 890:Generated_Source\PSoC6\pdl\drivers/peripheral/syslib/cy_syslib.h **** #define CY_UNIQUE_ID_DIE_LOT_0_Pos      (0U)     /**< The position of the DIE_LOT_0 field in the si
 891:Generated_Source\PSoC6\pdl\drivers/peripheral/syslib/cy_syslib.h **** 
 892:Generated_Source\PSoC6\pdl\drivers/peripheral/syslib/cy_syslib.h **** /** \} group_syslib_macros_unique_id */
 893:Generated_Source\PSoC6\pdl\drivers/peripheral/syslib/cy_syslib.h **** 
 894:Generated_Source\PSoC6\pdl\drivers/peripheral/syslib/cy_syslib.h **** /** \} group_syslib_macros */
 895:Generated_Source\PSoC6\pdl\drivers/peripheral/syslib/cy_syslib.h **** 
 896:Generated_Source\PSoC6\pdl\drivers/peripheral/syslib/cy_syslib.h **** /******************************************************************************
 897:Generated_Source\PSoC6\pdl\drivers/peripheral/syslib/cy_syslib.h **** * Function prototypes
 898:Generated_Source\PSoC6\pdl\drivers/peripheral/syslib/cy_syslib.h **** ******************************************************************************/
 899:Generated_Source\PSoC6\pdl\drivers/peripheral/syslib/cy_syslib.h **** 
 900:Generated_Source\PSoC6\pdl\drivers/peripheral/syslib/cy_syslib.h **** /**
 901:Generated_Source\PSoC6\pdl\drivers/peripheral/syslib/cy_syslib.h **** * \addtogroup group_syslib_functions
 902:Generated_Source\PSoC6\pdl\drivers/peripheral/syslib/cy_syslib.h **** * \{
 903:Generated_Source\PSoC6\pdl\drivers/peripheral/syslib/cy_syslib.h **** */
 904:Generated_Source\PSoC6\pdl\drivers/peripheral/syslib/cy_syslib.h **** 
 905:Generated_Source\PSoC6\pdl\drivers/peripheral/syslib/cy_syslib.h **** void Cy_SysLib_Delay(uint32_t milliseconds);
 906:Generated_Source\PSoC6\pdl\drivers/peripheral/syslib/cy_syslib.h **** void Cy_SysLib_DelayUs(uint16_t microseconds);
 907:Generated_Source\PSoC6\pdl\drivers/peripheral/syslib/cy_syslib.h **** /** Delays for the specified number of cycles.
 908:Generated_Source\PSoC6\pdl\drivers/peripheral/syslib/cy_syslib.h ****  *  The function is implemented in the assembler for each supported compiler.
 909:Generated_Source\PSoC6\pdl\drivers/peripheral/syslib/cy_syslib.h ****  *  \param cycles  The number of cycles to delay.
 910:Generated_Source\PSoC6\pdl\drivers/peripheral/syslib/cy_syslib.h ****  */
 911:Generated_Source\PSoC6\pdl\drivers/peripheral/syslib/cy_syslib.h **** void Cy_SysLib_DelayCycles(uint32_t cycles);
 912:Generated_Source\PSoC6\pdl\drivers/peripheral/syslib/cy_syslib.h **** __NO_RETURN void Cy_SysLib_Halt(uint32_t reason);
 913:Generated_Source\PSoC6\pdl\drivers/peripheral/syslib/cy_syslib.h **** #if !defined(NDEBUG) || defined(CY_DOXYGEN)
 914:Generated_Source\PSoC6\pdl\drivers/peripheral/syslib/cy_syslib.h ****     void Cy_SysLib_AssertFailed(const char_t * file, uint32_t line);
 915:Generated_Source\PSoC6\pdl\drivers/peripheral/syslib/cy_syslib.h **** #endif  /* !defined(NDEBUG) || defined(CY_DOXYGEN) */
 916:Generated_Source\PSoC6\pdl\drivers/peripheral/syslib/cy_syslib.h **** void Cy_SysLib_ClearFlashCacheAndBuffer(void);
 917:Generated_Source\PSoC6\pdl\drivers/peripheral/syslib/cy_syslib.h **** cy_en_syslib_status_t Cy_SysLib_ResetBackupDomain(void);
 918:Generated_Source\PSoC6\pdl\drivers/peripheral/syslib/cy_syslib.h **** uint32_t Cy_SysLib_GetResetReason(void);
 919:Generated_Source\PSoC6\pdl\drivers/peripheral/syslib/cy_syslib.h **** void Cy_SysLib_ClearResetReason(void);
 920:Generated_Source\PSoC6\pdl\drivers/peripheral/syslib/cy_syslib.h **** uint64_t Cy_SysLib_GetUniqueId(void);
 921:Generated_Source\PSoC6\pdl\drivers/peripheral/syslib/cy_syslib.h **** #if (CY_CPU_CORTEX_M0P)
 922:Generated_Source\PSoC6\pdl\drivers/peripheral/syslib/cy_syslib.h ****     void Cy_SysLib_SoftResetCM4(void);
 923:Generated_Source\PSoC6\pdl\drivers/peripheral/syslib/cy_syslib.h **** #endif /* CY_CPU_CORTEX_M0P */
 924:Generated_Source\PSoC6\pdl\drivers/peripheral/syslib/cy_syslib.h **** #if (CY_ARM_FAULT_DEBUG == CY_ARM_FAULT_DEBUG_ENABLED) || defined(CY_DOXYGEN)
 925:Generated_Source\PSoC6\pdl\drivers/peripheral/syslib/cy_syslib.h ****     void Cy_SysLib_FaultHandler(uint32_t const *faultStackAddr);
 926:Generated_Source\PSoC6\pdl\drivers/peripheral/syslib/cy_syslib.h ****     void Cy_SysLib_ProcessingFault(void);
 927:Generated_Source\PSoC6\pdl\drivers/peripheral/syslib/cy_syslib.h **** #endif /* (CY_ARM_FAULT_DEBUG == CY_ARM_FAULT_DEBUG_ENABLED) */
ARM GAS  C:\Users\Agentos\AppData\Local\Temp\ccEAbd3r.s 			page 38


 928:Generated_Source\PSoC6\pdl\drivers/peripheral/syslib/cy_syslib.h **** void Cy_SysLib_SetWaitStates(bool ulpMode, uint32_t clkHfMHz);
 929:Generated_Source\PSoC6\pdl\drivers/peripheral/syslib/cy_syslib.h **** 
 930:Generated_Source\PSoC6\pdl\drivers/peripheral/syslib/cy_syslib.h **** 
 931:Generated_Source\PSoC6\pdl\drivers/peripheral/syslib/cy_syslib.h **** /*******************************************************************************
 932:Generated_Source\PSoC6\pdl\drivers/peripheral/syslib/cy_syslib.h **** * Function Name: Cy_SysLib_EnterCriticalSection
 933:Generated_Source\PSoC6\pdl\drivers/peripheral/syslib/cy_syslib.h **** ****************************************************************************//**
 934:Generated_Source\PSoC6\pdl\drivers/peripheral/syslib/cy_syslib.h **** *
 935:Generated_Source\PSoC6\pdl\drivers/peripheral/syslib/cy_syslib.h **** *  Cy_SysLib_EnterCriticalSection disables interrupts and returns a value
 936:Generated_Source\PSoC6\pdl\drivers/peripheral/syslib/cy_syslib.h **** *  indicating whether the interrupts were previously enabled.
 937:Generated_Source\PSoC6\pdl\drivers/peripheral/syslib/cy_syslib.h **** *
 938:Generated_Source\PSoC6\pdl\drivers/peripheral/syslib/cy_syslib.h **** *  \return Returns the current interrupt status. Returns 0 if the interrupts
 939:Generated_Source\PSoC6\pdl\drivers/peripheral/syslib/cy_syslib.h **** *          were previously enabled or 1 if the interrupts were previously
 940:Generated_Source\PSoC6\pdl\drivers/peripheral/syslib/cy_syslib.h **** *          disabled.
 941:Generated_Source\PSoC6\pdl\drivers/peripheral/syslib/cy_syslib.h **** *
 942:Generated_Source\PSoC6\pdl\drivers/peripheral/syslib/cy_syslib.h **** *  \note Implementation of Cy_SysLib_EnterCriticalSection manipulates the IRQ
 943:Generated_Source\PSoC6\pdl\drivers/peripheral/syslib/cy_syslib.h **** *        enable bit with interrupts still enabled.
 944:Generated_Source\PSoC6\pdl\drivers/peripheral/syslib/cy_syslib.h **** *
 945:Generated_Source\PSoC6\pdl\drivers/peripheral/syslib/cy_syslib.h **** *******************************************************************************/
 946:Generated_Source\PSoC6\pdl\drivers/peripheral/syslib/cy_syslib.h **** uint32_t Cy_SysLib_EnterCriticalSection(void);
 947:Generated_Source\PSoC6\pdl\drivers/peripheral/syslib/cy_syslib.h **** 
 948:Generated_Source\PSoC6\pdl\drivers/peripheral/syslib/cy_syslib.h **** 
 949:Generated_Source\PSoC6\pdl\drivers/peripheral/syslib/cy_syslib.h **** /*******************************************************************************
 950:Generated_Source\PSoC6\pdl\drivers/peripheral/syslib/cy_syslib.h **** * Function Name: Cy_SysLib_ExitCriticalSection
 951:Generated_Source\PSoC6\pdl\drivers/peripheral/syslib/cy_syslib.h **** ****************************************************************************//**
 952:Generated_Source\PSoC6\pdl\drivers/peripheral/syslib/cy_syslib.h **** *
 953:Generated_Source\PSoC6\pdl\drivers/peripheral/syslib/cy_syslib.h **** *  Re-enables the interrupts if they were enabled before
 954:Generated_Source\PSoC6\pdl\drivers/peripheral/syslib/cy_syslib.h **** *  Cy_SysLib_EnterCriticalSection() was called. The argument should be the value
 955:Generated_Source\PSoC6\pdl\drivers/peripheral/syslib/cy_syslib.h **** *  returned from \ref Cy_SysLib_EnterCriticalSection().
 956:Generated_Source\PSoC6\pdl\drivers/peripheral/syslib/cy_syslib.h **** *
 957:Generated_Source\PSoC6\pdl\drivers/peripheral/syslib/cy_syslib.h **** *  \param savedIntrStatus  Puts the saved interrupts status returned by
 958:Generated_Source\PSoC6\pdl\drivers/peripheral/syslib/cy_syslib.h **** *                          the \ref Cy_SysLib_EnterCriticalSection().
 959:Generated_Source\PSoC6\pdl\drivers/peripheral/syslib/cy_syslib.h **** *
 960:Generated_Source\PSoC6\pdl\drivers/peripheral/syslib/cy_syslib.h **** *******************************************************************************/
 961:Generated_Source\PSoC6\pdl\drivers/peripheral/syslib/cy_syslib.h **** void Cy_SysLib_ExitCriticalSection(uint32_t savedIntrStatus);
 962:Generated_Source\PSoC6\pdl\drivers/peripheral/syslib/cy_syslib.h **** 
 963:Generated_Source\PSoC6\pdl\drivers/peripheral/syslib/cy_syslib.h **** 
 964:Generated_Source\PSoC6\pdl\drivers/peripheral/syslib/cy_syslib.h **** /** \cond INTERNAL */
 965:Generated_Source\PSoC6\pdl\drivers/peripheral/syslib/cy_syslib.h **** #define CY_SYSLIB_DEVICE_REV_0A       (0x21U)  /**< The device TO *A Revision ID */
 966:Generated_Source\PSoC6\pdl\drivers/peripheral/syslib/cy_syslib.h **** #define CY_SYSLIB_DEVICE_PSOC6ABLE2   (0x100U) /**< The PSoC6 BLE2 device Family ID */
 967:Generated_Source\PSoC6\pdl\drivers/peripheral/syslib/cy_syslib.h **** 
 968:Generated_Source\PSoC6\pdl\drivers/peripheral/syslib/cy_syslib.h **** 
 969:Generated_Source\PSoC6\pdl\drivers/peripheral/syslib/cy_syslib.h **** /*******************************************************************************
 970:Generated_Source\PSoC6\pdl\drivers/peripheral/syslib/cy_syslib.h **** * Function Name: Cy_SysLib_GetDeviceRevision
 971:Generated_Source\PSoC6\pdl\drivers/peripheral/syslib/cy_syslib.h **** ****************************************************************************//**
 972:Generated_Source\PSoC6\pdl\drivers/peripheral/syslib/cy_syslib.h **** *
 973:Generated_Source\PSoC6\pdl\drivers/peripheral/syslib/cy_syslib.h **** * This function returns a device Revision ID.
 974:Generated_Source\PSoC6\pdl\drivers/peripheral/syslib/cy_syslib.h **** *
 975:Generated_Source\PSoC6\pdl\drivers/peripheral/syslib/cy_syslib.h **** * \return  A device Revision ID.
 976:Generated_Source\PSoC6\pdl\drivers/peripheral/syslib/cy_syslib.h **** *
 977:Generated_Source\PSoC6\pdl\drivers/peripheral/syslib/cy_syslib.h **** *******************************************************************************/
 978:Generated_Source\PSoC6\pdl\drivers/peripheral/syslib/cy_syslib.h **** __STATIC_INLINE uint8_t Cy_SysLib_GetDeviceRevision(void)
 979:Generated_Source\PSoC6\pdl\drivers/peripheral/syslib/cy_syslib.h **** {
 980:Generated_Source\PSoC6\pdl\drivers/peripheral/syslib/cy_syslib.h ****     return ((SFLASH_SI_REVISION_ID == 0UL) ? CY_SYSLIB_DEVICE_REV_0A : SFLASH_SI_REVISION_ID);
 458              		.loc 2 980 0
 459 0126 B023     		movs	r3, #176
 460 0128 5B05     		lsls	r3, r3, #21
 461 012a 5B78     		ldrb	r3, [r3, #1]
ARM GAS  C:\Users\Agentos\AppData\Local\Temp\ccEAbd3r.s 			page 39


 462 012c 002B     		cmp	r3, #0
 463 012e 04D0     		beq	.L41
 464 0130 B023     		movs	r3, #176
 465 0132 5B05     		lsls	r3, r3, #21
 466 0134 5B78     		ldrb	r3, [r3, #1]
 467 0136 DBB2     		uxtb	r3, r3
 468 0138 00E0     		b	.L32
 469              	.L41:
 470 013a 2123     		movs	r3, #33
 471              	.L32:
 472              	.LBE20:
 473              	.LBE19:
 714:Generated_Source\PSoC6\pdl\middleware\ble/cy_ble_clk.c ****     }
 715:Generated_Source\PSoC6\pdl\middleware\ble/cy_ble_clk.c ****     
 716:Generated_Source\PSoC6\pdl\middleware\ble/cy_ble_clk.c ****     /* Update RADIO LDO trim values */
 717:Generated_Source\PSoC6\pdl\middleware\ble/cy_ble_clk.c ****     if((Cy_SysLib_GetDeviceRevision() != CY_SYSLIB_DEVICE_REV_0A) && (SFLASH->RADIO_LDO_TRIMS != 0U
 474              		.loc 1 717 0
 475 013c 212B     		cmp	r3, #33
 476 013e 4FD0     		beq	.L33
 477              		.loc 1 717 0 is_stmt 0 discriminator 1
 478 0140 314B     		ldr	r3, .L42+36
 479 0142 B022     		movs	r2, #176
 480 0144 5205     		lsls	r2, r2, #21
 481 0146 D35A     		ldrh	r3, [r2, r3]
 482 0148 9BB2     		uxth	r3, r3
 483 014a 002B     		cmp	r3, #0
 484 014c 48D0     		beq	.L33
 718:Generated_Source\PSoC6\pdl\middleware\ble/cy_ble_clk.c ****     {
 719:Generated_Source\PSoC6\pdl\middleware\ble/cy_ble_clk.c ****         if(status == CY_BLE_ECO_SUCCESS)
 485              		.loc 1 719 0 is_stmt 1
 486 014e 0028     		cmp	r0, #0
 487 0150 04D1     		bne	.L34
 720:Generated_Source\PSoC6\pdl\middleware\ble/cy_ble_clk.c ****         {
 721:Generated_Source\PSoC6\pdl\middleware\ble/cy_ble_clk.c ****             status = Cy_BLE_HAL_RcbRegRead(CY_BLE_RF_LDO_CFG_REG, &temp);
 488              		.loc 1 721 0
 489 0152 6B46     		mov	r3, sp
 490 0154 991D     		adds	r1, r3, #6
 491 0156 2D48     		ldr	r0, .L42+40
 492              	.LVL60:
 493 0158 FFF7FEFF 		bl	Cy_BLE_HAL_RcbRegRead
 494              	.LVL61:
 495              	.L34:
 722:Generated_Source\PSoC6\pdl\middleware\ble/cy_ble_clk.c ****         }
 723:Generated_Source\PSoC6\pdl\middleware\ble/cy_ble_clk.c ****         
 724:Generated_Source\PSoC6\pdl\middleware\ble/cy_ble_clk.c ****         if(status == CY_BLE_ECO_SUCCESS) 
 496              		.loc 1 724 0
 497 015c 0028     		cmp	r0, #0
 498 015e 24D1     		bne	.L35
 725:Generated_Source\PSoC6\pdl\middleware\ble/cy_ble_clk.c ****         {
 726:Generated_Source\PSoC6\pdl\middleware\ble/cy_ble_clk.c ****             /* Update LDO_IF value */
 727:Generated_Source\PSoC6\pdl\middleware\ble/cy_ble_clk.c ****             temp &= (uint16_t)~((uint16_t) ((uint16_t)CY_BLE_RF_LDO_CFG_REG_LDO_IF_CFG_MASK << CY_B
 499              		.loc 1 727 0
 500 0160 6B46     		mov	r3, sp
 501 0162 9A1D     		adds	r2, r3, #6
 502 0164 DB88     		ldrh	r3, [r3, #6]
 503 0166 6021     		movs	r1, #96
 504 0168 8B43     		bics	r3, r1
ARM GAS  C:\Users\Agentos\AppData\Local\Temp\ccEAbd3r.s 			page 40


 505 016a 1800     		movs	r0, r3
 506              	.LVL62:
 507 016c 1380     		strh	r3, [r2]
 728:Generated_Source\PSoC6\pdl\middleware\ble/cy_ble_clk.c ****             temp |= (uint16_t)(((SFLASH->RADIO_LDO_TRIMS & SFLASH_RADIO_LDO_TRIMS_LDO_IF_Msk) >>
 508              		.loc 1 728 0
 509 016e B025     		movs	r5, #176
 510 0170 6D05     		lsls	r5, r5, #21
 511 0172 254C     		ldr	r4, .L42+36
 512 0174 2B5B     		ldrh	r3, [r5, r4]
 513 0176 6031     		adds	r1, r1, #96
 514 0178 0B40     		ands	r3, r1
 515 017a 5B08     		lsrs	r3, r3, #1
 516 017c 0343     		orrs	r3, r0
 729:Generated_Source\PSoC6\pdl\middleware\ble/cy_ble_clk.c ****                                 SFLASH_RADIO_LDO_TRIMS_LDO_IF_Pos) << CY_BLE_RF_LDO_CFG_REG_LDO_IF_
 730:Generated_Source\PSoC6\pdl\middleware\ble/cy_ble_clk.c ****             
 731:Generated_Source\PSoC6\pdl\middleware\ble/cy_ble_clk.c ****             /* Update LDO_ACT value */
 732:Generated_Source\PSoC6\pdl\middleware\ble/cy_ble_clk.c ****             temp &= (uint16_t)~((uint16_t) ((uint16_t)CY_BLE_RF_LDO_CFG_REG_LDO_ACT_CFG_MASK << CY_
 517              		.loc 1 732 0
 518 017e 2449     		ldr	r1, .L42+44
 519 0180 0B40     		ands	r3, r1
 520 0182 1380     		strh	r3, [r2]
 733:Generated_Source\PSoC6\pdl\middleware\ble/cy_ble_clk.c ****             temp |= (uint16_t)(((SFLASH->RADIO_LDO_TRIMS & SFLASH_RADIO_LDO_TRIMS_LDO_ACT_Msk) >>
 521              		.loc 1 733 0
 522 0184 295B     		ldrh	r1, [r5, r4]
 523 0186 C901     		lsls	r1, r1, #7
 524 0188 F020     		movs	r0, #240
 525 018a C000     		lsls	r0, r0, #3
 526 018c 0140     		ands	r1, r0
 527 018e 0B43     		orrs	r3, r1
 734:Generated_Source\PSoC6\pdl\middleware\ble/cy_ble_clk.c ****                                 SFLASH_RADIO_LDO_TRIMS_LDO_ACT_Pos) << CY_BLE_RF_LDO_CFG_REG_LDO_AC
 735:Generated_Source\PSoC6\pdl\middleware\ble/cy_ble_clk.c ****             
 736:Generated_Source\PSoC6\pdl\middleware\ble/cy_ble_clk.c ****             /* Update LDO_DIG value */
 737:Generated_Source\PSoC6\pdl\middleware\ble/cy_ble_clk.c ****             temp &= (uint16_t)~((uint16_t) ((uint16_t)CY_BLE_RF_LDO_CFG_REG_LDO10_CFG_MASK << CY_BL
 528              		.loc 1 737 0
 529 0190 2049     		ldr	r1, .L42+48
 530 0192 1940     		ands	r1, r3
 531 0194 1180     		strh	r1, [r2]
 738:Generated_Source\PSoC6\pdl\middleware\ble/cy_ble_clk.c ****             temp |= (uint16_t)(((SFLASH->RADIO_LDO_TRIMS & SFLASH_RADIO_LDO_TRIMS_LDO_DIG_Msk) >>
 532              		.loc 1 738 0
 533 0196 285B     		ldrh	r0, [r5, r4]
 534 0198 C023     		movs	r3, #192
 535 019a 9B00     		lsls	r3, r3, #2
 536 019c 0340     		ands	r3, r0
 537 019e DB00     		lsls	r3, r3, #3
 538 01a0 1943     		orrs	r1, r3
 539 01a2 1180     		strh	r1, [r2]
 739:Generated_Source\PSoC6\pdl\middleware\ble/cy_ble_clk.c ****                                 SFLASH_RADIO_LDO_TRIMS_LDO_DIG_Pos) << CY_BLE_RF_LDO_CFG_REG_LDO10_
 740:Generated_Source\PSoC6\pdl\middleware\ble/cy_ble_clk.c ****             
 741:Generated_Source\PSoC6\pdl\middleware\ble/cy_ble_clk.c ****             status = Cy_BLE_HAL_RcbRegWrite(CY_BLE_RF_LDO_CFG_REG, temp);
 540              		.loc 1 741 0
 541 01a4 1948     		ldr	r0, .L42+40
 542 01a6 FFF7FEFF 		bl	Cy_BLE_HAL_RcbRegWrite
 543              	.LVL63:
 544              	.L35:
 742:Generated_Source\PSoC6\pdl\middleware\ble/cy_ble_clk.c ****         }
 743:Generated_Source\PSoC6\pdl\middleware\ble/cy_ble_clk.c ****         
 744:Generated_Source\PSoC6\pdl\middleware\ble/cy_ble_clk.c ****         if(status == CY_BLE_ECO_SUCCESS)
ARM GAS  C:\Users\Agentos\AppData\Local\Temp\ccEAbd3r.s 			page 41


 545              		.loc 1 744 0
 546 01aa 0028     		cmp	r0, #0
 547 01ac 04D1     		bne	.L36
 745:Generated_Source\PSoC6\pdl\middleware\ble/cy_ble_clk.c ****         {
 746:Generated_Source\PSoC6\pdl\middleware\ble/cy_ble_clk.c ****            status = Cy_BLE_HAL_RcbRegRead(CY_BLE_RF_LDO_EN_REG, &temp);
 548              		.loc 1 746 0
 549 01ae 6B46     		mov	r3, sp
 550 01b0 991D     		adds	r1, r3, #6
 551 01b2 1948     		ldr	r0, .L42+52
 552              	.LVL64:
 553 01b4 FFF7FEFF 		bl	Cy_BLE_HAL_RcbRegRead
 554              	.LVL65:
 555              	.L36:
 747:Generated_Source\PSoC6\pdl\middleware\ble/cy_ble_clk.c ****         }
 748:Generated_Source\PSoC6\pdl\middleware\ble/cy_ble_clk.c ****         
 749:Generated_Source\PSoC6\pdl\middleware\ble/cy_ble_clk.c ****         if(status == CY_BLE_ECO_SUCCESS)
 556              		.loc 1 749 0
 557 01b8 0028     		cmp	r0, #0
 558 01ba 11D1     		bne	.L33
 750:Generated_Source\PSoC6\pdl\middleware\ble/cy_ble_clk.c ****         {  
 751:Generated_Source\PSoC6\pdl\middleware\ble/cy_ble_clk.c ****             /* Update LDO_LNA value */
 752:Generated_Source\PSoC6\pdl\middleware\ble/cy_ble_clk.c ****             temp &= (uint16_t)~(CY_BLE_RF_LDO_EN_REG_LDO_RF_CFG_MASK << CY_BLE_RF_LDO_EN_REG_LDO_RF
 559              		.loc 1 752 0
 560 01bc 6B46     		mov	r3, sp
 561 01be 9A1D     		adds	r2, r3, #6
 562 01c0 D988     		ldrh	r1, [r3, #6]
 563 01c2 C023     		movs	r3, #192
 564 01c4 9943     		bics	r1, r3
 565 01c6 1180     		strh	r1, [r2]
 753:Generated_Source\PSoC6\pdl\middleware\ble/cy_ble_clk.c ****             temp |= (uint16_t)(((SFLASH->RADIO_LDO_TRIMS & SFLASH_RADIO_LDO_TRIMS_LDO_LNA_Msk) >>
 566              		.loc 1 753 0
 567 01c8 0F4B     		ldr	r3, .L42+36
 568 01ca B020     		movs	r0, #176
 569              	.LVL66:
 570 01cc 4005     		lsls	r0, r0, #21
 571 01ce C05A     		ldrh	r0, [r0, r3]
 572 01d0 3023     		movs	r3, #48
 573 01d2 0340     		ands	r3, r0
 574 01d4 9B00     		lsls	r3, r3, #2
 575 01d6 1943     		orrs	r1, r3
 576 01d8 1180     		strh	r1, [r2]
 754:Generated_Source\PSoC6\pdl\middleware\ble/cy_ble_clk.c ****                        SFLASH_RADIO_LDO_TRIMS_LDO_LNA_Pos) << CY_BLE_RF_LDO_EN_REG_LDO_RF_CFG_SHIFT
 755:Generated_Source\PSoC6\pdl\middleware\ble/cy_ble_clk.c ****             
 756:Generated_Source\PSoC6\pdl\middleware\ble/cy_ble_clk.c ****             status = Cy_BLE_HAL_RcbRegWrite(CY_BLE_RF_LDO_EN_REG, temp);
 577              		.loc 1 756 0
 578 01da 0F48     		ldr	r0, .L42+52
 579 01dc FFF7FEFF 		bl	Cy_BLE_HAL_RcbRegWrite
 580              	.LVL67:
 581              	.L33:
 757:Generated_Source\PSoC6\pdl\middleware\ble/cy_ble_clk.c ****         }
 758:Generated_Source\PSoC6\pdl\middleware\ble/cy_ble_clk.c ****     }
 759:Generated_Source\PSoC6\pdl\middleware\ble/cy_ble_clk.c ****     return(status);
 760:Generated_Source\PSoC6\pdl\middleware\ble/cy_ble_clk.c **** }
 582              		.loc 1 760 0
 583 01e0 03B0     		add	sp, sp, #12
 584              		@ sp needed
 585              	.LVL68:
ARM GAS  C:\Users\Agentos\AppData\Local\Temp\ccEAbd3r.s 			page 42


 586 01e2 F0BD     		pop	{r4, r5, r6, r7, pc}
 587              	.L43:
 588              		.align	2
 589              	.L42:
 590 01e4 021E0000 		.word	7682
 591 01e8 04001600 		.word	1441796
 592 01ec 031E0000 		.word	7683
 593 01f0 091E0000 		.word	7689
 594 01f4 0048E801 		.word	32000000
 595 01f8 00000000 		.word	cy_BleEcoClockFreqHz
 596 01fc 0024F400 		.word	16000000
 597 0200 64F00100 		.word	127076
 598 0204 00003C40 		.word	1077673984
 599 0208 16180000 		.word	6166
 600 020c 071E0000 		.word	7687
 601 0210 7FF5FFFF 		.word	-2689
 602 0214 FFE7FFFF 		.word	-6145
 603 0218 061E0000 		.word	7686
 604              		.cfi_endproc
 605              	.LFE183:
 606              		.size	Cy_BLE_HAL_MxdRadioEnableClocks, .-Cy_BLE_HAL_MxdRadioEnableClocks
 607              		.section	.text.Cy_BLE_HAL_EcoSetTrim,"ax",%progbits
 608              		.align	2
 609              		.code	16
 610              		.thumb_func
 611              		.type	Cy_BLE_HAL_EcoSetTrim, %function
 612              	Cy_BLE_HAL_EcoSetTrim:
 613              	.LFB182:
 553:Generated_Source\PSoC6\pdl\middleware\ble/cy_ble_clk.c ****     uint16_t reg = CY_BLE_RF_DCXO_CFG_REG_VALUE;
 614              		.loc 1 553 0
 615              		.cfi_startproc
 616              		@ args = 0, pretend = 0, frame = 0
 617              		@ frame_needed = 0, uses_anonymous_args = 0
 618              	.LVL69:
 619 0000 70B5     		push	{r4, r5, r6, lr}
 620              		.cfi_def_cfa_offset 16
 621              		.cfi_offset 4, -16
 622              		.cfi_offset 5, -12
 623              		.cfi_offset 6, -8
 624              		.cfi_offset 14, -4
 625 0002 0C00     		movs	r4, r1
 626              	.LVL70:
 558:Generated_Source\PSoC6\pdl\middleware\ble/cy_ble_clk.c **** 
 627              		.loc 1 558 0
 628 0004 4000     		lsls	r0, r0, #1
 629              	.LVL71:
 630 0006 0849     		ldr	r1, .L46
 631              	.LVL72:
 632 0008 0143     		orrs	r1, r0
 633              	.LVL73:
 561:Generated_Source\PSoC6\pdl\middleware\ble/cy_ble_clk.c ****         
 634              		.loc 1 561 0
 635 000a 0848     		ldr	r0, .L46+4
 636 000c FFF7FEFF 		bl	Cy_BLE_HAL_RcbRegWrite
 637              	.LVL74:
 638 0010 051E     		subs	r5, r0, #0
 639              	.LVL75:
ARM GAS  C:\Users\Agentos\AppData\Local\Temp\ccEAbd3r.s 			page 43


 563:Generated_Source\PSoC6\pdl\middleware\ble/cy_ble_clk.c ****     {
 640              		.loc 1 563 0
 641 0012 04D1     		bne	.L45
 566:Generated_Source\PSoC6\pdl\middleware\ble/cy_ble_clk.c ****     }
 642              		.loc 1 566 0
 643 0014 0649     		ldr	r1, .L46+8
 644 0016 0748     		ldr	r0, .L46+12
 645              	.LVL76:
 646 0018 FFF7FEFF 		bl	Cy_BLE_HAL_RcbRegWrite
 647              	.LVL77:
 648 001c 0500     		movs	r5, r0
 649              	.LVL78:
 650              	.L45:
 569:Generated_Source\PSoC6\pdl\middleware\ble/cy_ble_clk.c ****     
 651              		.loc 1 569 0
 652 001e 6001     		lsls	r0, r4, #5
 653              	.LVL79:
 654 0020 FFF7FEFF 		bl	Cy_SysLib_DelayUs
 655              	.LVL80:
 572:Generated_Source\PSoC6\pdl\middleware\ble/cy_ble_clk.c **** 
 656              		.loc 1 572 0
 657 0024 2800     		movs	r0, r5
 658              		@ sp needed
 659              	.LVL81:
 660 0026 70BD     		pop	{r4, r5, r6, pc}
 661              	.L47:
 662              		.align	2
 663              	.L46:
 664 0028 01100000 		.word	4097
 665 002c 081E0000 		.word	7688
 666 0030 37680000 		.word	26679
 667 0034 0F1E0000 		.word	7695
 668              		.cfi_endproc
 669              	.LFE182:
 670              		.size	Cy_BLE_HAL_EcoSetTrim, .-Cy_BLE_HAL_EcoSetTrim
 671              		.section	.text.Cy_BLE_EcoStop,"ax",%progbits
 672              		.align	2
 673              		.global	Cy_BLE_EcoStop
 674              		.code	16
 675              		.thumb_func
 676              		.type	Cy_BLE_EcoStop, %function
 677              	Cy_BLE_EcoStop:
 678              	.LFB178:
 381:Generated_Source\PSoC6\pdl\middleware\ble/cy_ble_clk.c ****     /* Initiate Soft Reset */
 679              		.loc 1 381 0
 680              		.cfi_startproc
 681              		@ args = 0, pretend = 0, frame = 0
 682              		@ frame_needed = 0, uses_anonymous_args = 0
 683              		@ link register save eliminated.
 383:Generated_Source\PSoC6\pdl\middleware\ble/cy_ble_clk.c **** }
 684              		.loc 1 383 0
 685 0000 0349     		ldr	r1, .L49
 686 0002 044A     		ldr	r2, .L49+4
 687 0004 8858     		ldr	r0, [r1, r2]
 688 0006 1023     		movs	r3, #16
 689 0008 0343     		orrs	r3, r0
 690 000a 8B50     		str	r3, [r1, r2]
ARM GAS  C:\Users\Agentos\AppData\Local\Temp\ccEAbd3r.s 			page 44


 384:Generated_Source\PSoC6\pdl\middleware\ble/cy_ble_clk.c **** 
 691              		.loc 1 384 0
 692              		@ sp needed
 693 000c 7047     		bx	lr
 694              	.L50:
 695 000e C046     		.align	2
 696              	.L49:
 697 0010 00003C40 		.word	1077673984
 698 0014 70F00100 		.word	127088
 699              		.cfi_endproc
 700              	.LFE178:
 701              		.size	Cy_BLE_EcoStop, .-Cy_BLE_EcoStop
 702              		.section	.text.Cy_BLE_HAL_Init,"ax",%progbits
 703              		.align	2
 704              		.global	Cy_BLE_HAL_Init
 705              		.code	16
 706              		.thumb_func
 707              		.type	Cy_BLE_HAL_Init, %function
 708              	Cy_BLE_HAL_Init:
 709              	.LFB179:
 398:Generated_Source\PSoC6\pdl\middleware\ble/cy_ble_clk.c ****     /* Configures pins for BLESS */
 710              		.loc 1 398 0
 711              		.cfi_startproc
 712              		@ args = 0, pretend = 0, frame = 112
 713              		@ frame_needed = 0, uses_anonymous_args = 0
 714 0000 F0B5     		push	{r4, r5, r6, r7, lr}
 715              		.cfi_def_cfa_offset 20
 716              		.cfi_offset 4, -20
 717              		.cfi_offset 5, -16
 718              		.cfi_offset 6, -12
 719              		.cfi_offset 7, -8
 720              		.cfi_offset 14, -4
 721 0002 9DB0     		sub	sp, sp, #116
 722              		.cfi_def_cfa_offset 136
 400:Generated_Source\PSoC6\pdl\middleware\ble/cy_ble_clk.c ****     {
 723              		.loc 1 400 0
 724 0004 13A9     		add	r1, sp, #76
 725 0006 144B     		ldr	r3, .L52
 726 0008 0A00     		movs	r2, r1
 727 000a 1800     		movs	r0, r3
 728 000c 70C8     		ldmia	r0!, {r4, r5, r6}
 729 000e 70C2     		stmia	r2!, {r4, r5, r6}
 730 0010 70C8     		ldmia	r0!, {r4, r5, r6}
 731 0012 70C2     		stmia	r2!, {r4, r5, r6}
 732 0014 70C8     		ldmia	r0!, {r4, r5, r6}
 733 0016 70C2     		stmia	r2!, {r4, r5, r6}
 413:Generated_Source\PSoC6\pdl\middleware\ble/cy_ble_clk.c ****     {
 734              		.loc 1 413 0
 735 0018 0AAD     		add	r5, sp, #40
 736 001a 2800     		movs	r0, r5
 737 001c 1A00     		movs	r2, r3
 738 001e 2432     		adds	r2, r2, #36
 739 0020 D0CA     		ldmia	r2!, {r4, r6, r7}
 740 0022 D0C0     		stmia	r0!, {r4, r6, r7}
 741 0024 D0CA     		ldmia	r2!, {r4, r6, r7}
 742 0026 D0C0     		stmia	r0!, {r4, r6, r7}
 743 0028 D0CA     		ldmia	r2!, {r4, r6, r7}
ARM GAS  C:\Users\Agentos\AppData\Local\Temp\ccEAbd3r.s 			page 45


 744 002a D0C0     		stmia	r0!, {r4, r6, r7}
 426:Generated_Source\PSoC6\pdl\middleware\ble/cy_ble_clk.c ****     {
 745              		.loc 1 426 0
 746 002c 01AC     		add	r4, sp, #4
 747 002e 2200     		movs	r2, r4
 748 0030 4833     		adds	r3, r3, #72
 749 0032 C1CB     		ldmia	r3!, {r0, r6, r7}
 750 0034 C1C2     		stmia	r2!, {r0, r6, r7}
 751 0036 C1CB     		ldmia	r3!, {r0, r6, r7}
 752 0038 C1C2     		stmia	r2!, {r0, r6, r7}
 753 003a C1CB     		ldmia	r3!, {r0, r6, r7}
 754 003c C1C2     		stmia	r2!, {r0, r6, r7}
 439:Generated_Source\PSoC6\pdl\middleware\ble/cy_ble_clk.c ****     (void)Cy_GPIO_Port_Init(GPIO_PRT3, &port3_cfg);
 755              		.loc 1 439 0
 756 003e 0748     		ldr	r0, .L52+4
 757 0040 FFF7FEFF 		bl	Cy_GPIO_Port_Init
 758              	.LVL82:
 440:Generated_Source\PSoC6\pdl\middleware\ble/cy_ble_clk.c ****     (void)Cy_GPIO_Port_Init(GPIO_PRT4, &port4_cfg);
 759              		.loc 1 440 0
 760 0044 2900     		movs	r1, r5
 761 0046 0648     		ldr	r0, .L52+8
 762 0048 FFF7FEFF 		bl	Cy_GPIO_Port_Init
 763              	.LVL83:
 441:Generated_Source\PSoC6\pdl\middleware\ble/cy_ble_clk.c **** }
 764              		.loc 1 441 0
 765 004c 2100     		movs	r1, r4
 766 004e 0548     		ldr	r0, .L52+12
 767 0050 FFF7FEFF 		bl	Cy_GPIO_Port_Init
 768              	.LVL84:
 442:Generated_Source\PSoC6\pdl\middleware\ble/cy_ble_clk.c **** 
 769              		.loc 1 442 0
 770 0054 1DB0     		add	sp, sp, #116
 771              		@ sp needed
 772 0056 F0BD     		pop	{r4, r5, r6, r7, pc}
 773              	.L53:
 774              		.align	2
 775              	.L52:
 776 0058 00000000 		.word	.LANCHOR0
 777 005c 00013240 		.word	1077018880
 778 0060 80013240 		.word	1077019008
 779 0064 00023240 		.word	1077019136
 780              		.cfi_endproc
 781              	.LFE179:
 782              		.size	Cy_BLE_HAL_Init, .-Cy_BLE_HAL_Init
 783              		.global	__aeabi_uidiv
 784              		.section	.text.Cy_BLE_EcoStart,"ax",%progbits
 785              		.align	2
 786              		.global	Cy_BLE_EcoStart
 787              		.code	16
 788              		.thumb_func
 789              		.type	Cy_BLE_EcoStart, %function
 790              	Cy_BLE_EcoStart:
 791              	.LFB177:
 183:Generated_Source\PSoC6\pdl\middleware\ble/cy_ble_clk.c ****     cy_en_ble_eco_status_t status = CY_BLE_ECO_SUCCESS;
 792              		.loc 1 183 0
 793              		.cfi_startproc
 794              		@ args = 0, pretend = 0, frame = 0
ARM GAS  C:\Users\Agentos\AppData\Local\Temp\ccEAbd3r.s 			page 46


 795              		@ frame_needed = 0, uses_anonymous_args = 0
 796              	.LVL85:
 797 0000 F8B5     		push	{r3, r4, r5, r6, r7, lr}
 798              		.cfi_def_cfa_offset 24
 799              		.cfi_offset 3, -24
 800              		.cfi_offset 4, -20
 801              		.cfi_offset 5, -16
 802              		.cfi_offset 6, -12
 803              		.cfi_offset 7, -8
 804              		.cfi_offset 14, -4
 805 0002 051E     		subs	r5, r0, #0
 806              	.LVL86:
 188:Generated_Source\PSoC6\pdl\middleware\ble/cy_ble_clk.c ****     {
 807              		.loc 1 188 0
 808 0004 00D1     		bne	.LCB820
 809 0006 DDE0     		b	.L76	@long jump
 810              	.LCB820:
 811              	.LVL87:
 812              	.LBB21:
 813              	.LBB22:
 814              		.file 3 "Generated_Source\\PSoC6\\pdl\\drivers/peripheral/syspm/cy_syspm.h"
   1:Generated_Source\PSoC6\pdl\drivers/peripheral/syspm/cy_syspm.h **** /***************************************************************************//**
   2:Generated_Source\PSoC6\pdl\drivers/peripheral/syspm/cy_syspm.h **** * \file cy_syspm.h
   3:Generated_Source\PSoC6\pdl\drivers/peripheral/syspm/cy_syspm.h **** * \version 4.0
   4:Generated_Source\PSoC6\pdl\drivers/peripheral/syspm/cy_syspm.h **** *
   5:Generated_Source\PSoC6\pdl\drivers/peripheral/syspm/cy_syspm.h **** * Provides the function definitions for the power management API.
   6:Generated_Source\PSoC6\pdl\drivers/peripheral/syspm/cy_syspm.h **** *
   7:Generated_Source\PSoC6\pdl\drivers/peripheral/syspm/cy_syspm.h **** ********************************************************************************
   8:Generated_Source\PSoC6\pdl\drivers/peripheral/syspm/cy_syspm.h **** * \copyright
   9:Generated_Source\PSoC6\pdl\drivers/peripheral/syspm/cy_syspm.h **** * Copyright 2016-2018, Cypress Semiconductor Corporation.  All rights reserved.
  10:Generated_Source\PSoC6\pdl\drivers/peripheral/syspm/cy_syspm.h **** * You may use this file only in accordance with the license, terms, conditions,
  11:Generated_Source\PSoC6\pdl\drivers/peripheral/syspm/cy_syspm.h **** * disclaimers, and limitations in the end user license agreement accompanying
  12:Generated_Source\PSoC6\pdl\drivers/peripheral/syspm/cy_syspm.h **** * the software package with which this file was provided.
  13:Generated_Source\PSoC6\pdl\drivers/peripheral/syspm/cy_syspm.h **** *
  14:Generated_Source\PSoC6\pdl\drivers/peripheral/syspm/cy_syspm.h **** *******************************************************************************/
  15:Generated_Source\PSoC6\pdl\drivers/peripheral/syspm/cy_syspm.h **** 
  16:Generated_Source\PSoC6\pdl\drivers/peripheral/syspm/cy_syspm.h **** /**
  17:Generated_Source\PSoC6\pdl\drivers/peripheral/syspm/cy_syspm.h **** * \addtogroup group_syspm
  18:Generated_Source\PSoC6\pdl\drivers/peripheral/syspm/cy_syspm.h **** * \{
  19:Generated_Source\PSoC6\pdl\drivers/peripheral/syspm/cy_syspm.h **** *
  20:Generated_Source\PSoC6\pdl\drivers/peripheral/syspm/cy_syspm.h **** * Use the System Power Management (SysPm) driver to change power modes and 
  21:Generated_Source\PSoC6\pdl\drivers/peripheral/syspm/cy_syspm.h **** * reduce system power consumption in power sensitive designs. 
  22:Generated_Source\PSoC6\pdl\drivers/peripheral/syspm/cy_syspm.h **** *
  23:Generated_Source\PSoC6\pdl\drivers/peripheral/syspm/cy_syspm.h **** * The functions and other declarations used in this driver are in cy_syspm.h. 
  24:Generated_Source\PSoC6\pdl\drivers/peripheral/syspm/cy_syspm.h **** * You can include cy_pdl.h (ModusToolbox only) to get access to all functions 
  25:Generated_Source\PSoC6\pdl\drivers/peripheral/syspm/cy_syspm.h **** * and declarations in the PDL. 
  26:Generated_Source\PSoC6\pdl\drivers/peripheral/syspm/cy_syspm.h **** *
  27:Generated_Source\PSoC6\pdl\drivers/peripheral/syspm/cy_syspm.h **** * For multi-CPU devices, this library allows you to individually enter low power  
  28:Generated_Source\PSoC6\pdl\drivers/peripheral/syspm/cy_syspm.h **** * modes for each CPU.
  29:Generated_Source\PSoC6\pdl\drivers/peripheral/syspm/cy_syspm.h **** *
  30:Generated_Source\PSoC6\pdl\drivers/peripheral/syspm/cy_syspm.h **** * This document contains the following topics:
  31:Generated_Source\PSoC6\pdl\drivers/peripheral/syspm/cy_syspm.h **** *
  32:Generated_Source\PSoC6\pdl\drivers/peripheral/syspm/cy_syspm.h **** * * \ref group_syspm_power_modes
  33:Generated_Source\PSoC6\pdl\drivers/peripheral/syspm/cy_syspm.h **** * * \ref group_syspm_system_power_modes
  34:Generated_Source\PSoC6\pdl\drivers/peripheral/syspm/cy_syspm.h **** *   - \ref group_syspm_switching_into_ulp
  35:Generated_Source\PSoC6\pdl\drivers/peripheral/syspm/cy_syspm.h **** *     - \ref group_syspm_ulp_limitations
  36:Generated_Source\PSoC6\pdl\drivers/peripheral/syspm/cy_syspm.h **** *   - \ref group_syspm_switching_into_lp
ARM GAS  C:\Users\Agentos\AppData\Local\Temp\ccEAbd3r.s 			page 47


  37:Generated_Source\PSoC6\pdl\drivers/peripheral/syspm/cy_syspm.h **** *     - \ref group_syspm_lp_limitations
  38:Generated_Source\PSoC6\pdl\drivers/peripheral/syspm/cy_syspm.h **** *   - \ref group_syspm_switching_into_sleep
  39:Generated_Source\PSoC6\pdl\drivers/peripheral/syspm/cy_syspm.h **** *   - \ref group_syspm_switching_into_deepsleep
  40:Generated_Source\PSoC6\pdl\drivers/peripheral/syspm/cy_syspm.h **** *   - \ref group_syspm_wakingup_from_sleep_deepsleep
  41:Generated_Source\PSoC6\pdl\drivers/peripheral/syspm/cy_syspm.h **** *   - \ref group_syspm_switching_into_hibernate
  42:Generated_Source\PSoC6\pdl\drivers/peripheral/syspm/cy_syspm.h **** *   - \ref group_syspm_wakingup_from_hibernate
  43:Generated_Source\PSoC6\pdl\drivers/peripheral/syspm/cy_syspm.h **** * * \ref group_syspm_system_reg_curr_mode
  44:Generated_Source\PSoC6\pdl\drivers/peripheral/syspm/cy_syspm.h **** *   - \ref group_syspm_system_set_min_reg_curr_mode
  45:Generated_Source\PSoC6\pdl\drivers/peripheral/syspm/cy_syspm.h **** *   - \ref group_syspm_system_set_normal_reg_curr_mode
  46:Generated_Source\PSoC6\pdl\drivers/peripheral/syspm/cy_syspm.h **** * * \ref group_syspm_migration_guide_for_syspm_4_0
  47:Generated_Source\PSoC6\pdl\drivers/peripheral/syspm/cy_syspm.h **** * * \ref group_syspm_managing_pmic
  48:Generated_Source\PSoC6\pdl\drivers/peripheral/syspm/cy_syspm.h **** * * \ref group_syspm_managing_backup_domain
  49:Generated_Source\PSoC6\pdl\drivers/peripheral/syspm/cy_syspm.h **** * * \ref group_syspm_cb
  50:Generated_Source\PSoC6\pdl\drivers/peripheral/syspm/cy_syspm.h **** *   - \ref group_syspm_cb_example
  51:Generated_Source\PSoC6\pdl\drivers/peripheral/syspm/cy_syspm.h **** *   - \ref group_syspm_cb_config_consideration
  52:Generated_Source\PSoC6\pdl\drivers/peripheral/syspm/cy_syspm.h **** *     - \ref group_syspm_cb_parameters
  53:Generated_Source\PSoC6\pdl\drivers/peripheral/syspm/cy_syspm.h **** *     - \ref group_syspm_cb_structures
  54:Generated_Source\PSoC6\pdl\drivers/peripheral/syspm/cy_syspm.h **** *     - \ref group_syspm_cb_function_implementation
  55:Generated_Source\PSoC6\pdl\drivers/peripheral/syspm/cy_syspm.h **** *     - \ref group_syspm_cb_flow
  56:Generated_Source\PSoC6\pdl\drivers/peripheral/syspm/cy_syspm.h **** *     - \ref group_syspm_cb_unregistering
  57:Generated_Source\PSoC6\pdl\drivers/peripheral/syspm/cy_syspm.h **** * * \ref group_syspm_definitions
  58:Generated_Source\PSoC6\pdl\drivers/peripheral/syspm/cy_syspm.h **** *
  59:Generated_Source\PSoC6\pdl\drivers/peripheral/syspm/cy_syspm.h **** * \section group_syspm_section_configuration Configuration Considerations
  60:Generated_Source\PSoC6\pdl\drivers/peripheral/syspm/cy_syspm.h **** * \subsection group_syspm_power_modes Power Modes
  61:Generated_Source\PSoC6\pdl\drivers/peripheral/syspm/cy_syspm.h **** * PSoC 6 MCUs support four system and three CPU power modes. These power modes
  62:Generated_Source\PSoC6\pdl\drivers/peripheral/syspm/cy_syspm.h **** * are intended to minimize average power consumption in an application.
  63:Generated_Source\PSoC6\pdl\drivers/peripheral/syspm/cy_syspm.h **** * System power modes:
  64:Generated_Source\PSoC6\pdl\drivers/peripheral/syspm/cy_syspm.h **** * * <b>Low Power</b> - All peripheral and CPU power modes
  65:Generated_Source\PSoC6\pdl\drivers/peripheral/syspm/cy_syspm.h **** *   are available to be used at maximum device frequency and current 
  66:Generated_Source\PSoC6\pdl\drivers/peripheral/syspm/cy_syspm.h **** *   consumption.
  67:Generated_Source\PSoC6\pdl\drivers/peripheral/syspm/cy_syspm.h **** * * <b>Ultra Low Power</b> - All peripheral and 
  68:Generated_Source\PSoC6\pdl\drivers/peripheral/syspm/cy_syspm.h **** *   CPU power modes are available, but the frequency and current consumption 
  69:Generated_Source\PSoC6\pdl\drivers/peripheral/syspm/cy_syspm.h **** *   are limited to a device specific number.
  70:Generated_Source\PSoC6\pdl\drivers/peripheral/syspm/cy_syspm.h **** * * <b>Deep Sleep</b> - Device and I/O states is retained. Low-frequency 
  71:Generated_Source\PSoC6\pdl\drivers/peripheral/syspm/cy_syspm.h **** *   peripherals are available. Both CPUs are in CPU Deep Sleep power mode. 
  72:Generated_Source\PSoC6\pdl\drivers/peripheral/syspm/cy_syspm.h **** * * <b>Hibernate</b> - The device and I/O states are frozen and the device 
  73:Generated_Source\PSoC6\pdl\drivers/peripheral/syspm/cy_syspm.h **** *   resets on wakeup.
  74:Generated_Source\PSoC6\pdl\drivers/peripheral/syspm/cy_syspm.h **** *
  75:Generated_Source\PSoC6\pdl\drivers/peripheral/syspm/cy_syspm.h **** * The CPU <b>Active</b>, <b>Sleep</b> and <b>Deep Sleep</b> power modes are 
  76:Generated_Source\PSoC6\pdl\drivers/peripheral/syspm/cy_syspm.h **** * Arm-defined power modes supported by the Arm CPU instruction 
  77:Generated_Source\PSoC6\pdl\drivers/peripheral/syspm/cy_syspm.h **** * set architecture (ISA). 
  78:Generated_Source\PSoC6\pdl\drivers/peripheral/syspm/cy_syspm.h **** * 
  79:Generated_Source\PSoC6\pdl\drivers/peripheral/syspm/cy_syspm.h **** * \subsection group_syspm_system_power_modes System Power Modes
  80:Generated_Source\PSoC6\pdl\drivers/peripheral/syspm/cy_syspm.h **** * * <b>LP</b> - In this mode, code is executed and all logic and 
  81:Generated_Source\PSoC6\pdl\drivers/peripheral/syspm/cy_syspm.h **** *   memories are powered. Firmware may disable/reduce clocks for specific 
  82:Generated_Source\PSoC6\pdl\drivers/peripheral/syspm/cy_syspm.h **** *   peripherals and power down specific analog power domains.
  83:Generated_Source\PSoC6\pdl\drivers/peripheral/syspm/cy_syspm.h **** *
  84:Generated_Source\PSoC6\pdl\drivers/peripheral/syspm/cy_syspm.h **** * * <b>ULP</b> - This power mode is like LP mode, but 
  85:Generated_Source\PSoC6\pdl\drivers/peripheral/syspm/cy_syspm.h **** *   with clock restrictions and limited/slower peripherals to achieve lower
  86:Generated_Source\PSoC6\pdl\drivers/peripheral/syspm/cy_syspm.h **** *   current consumption. Refer to \ref group_syspm_switching_into_ulp in 
  87:Generated_Source\PSoC6\pdl\drivers/peripheral/syspm/cy_syspm.h **** *   Configuration considerations.
  88:Generated_Source\PSoC6\pdl\drivers/peripheral/syspm/cy_syspm.h **** *
  89:Generated_Source\PSoC6\pdl\drivers/peripheral/syspm/cy_syspm.h **** * * <b>Deep Sleep</b> - Is a lower power mode where high-frequency clocks are 
  90:Generated_Source\PSoC6\pdl\drivers/peripheral/syspm/cy_syspm.h **** *   disabled. Refer to \ref group_syspm_switching_into_deepsleep in 
  91:Generated_Source\PSoC6\pdl\drivers/peripheral/syspm/cy_syspm.h **** *   Configuration considerations. Deep-sleep-capable peripherals are available. 
  92:Generated_Source\PSoC6\pdl\drivers/peripheral/syspm/cy_syspm.h **** *   A normal wakeup from Deep Sleep returns to either system LP or ULP mode, 
  93:Generated_Source\PSoC6\pdl\drivers/peripheral/syspm/cy_syspm.h **** *   depending on the previous state and programmed behavior for the configured 
ARM GAS  C:\Users\Agentos\AppData\Local\Temp\ccEAbd3r.s 			page 48


  94:Generated_Source\PSoC6\pdl\drivers/peripheral/syspm/cy_syspm.h **** *   wakeup interrupt. Likewise, a debug wakes up from system Deep Sleep and 
