ARM GAS  C:\Users\Agentos\AppData\Local\Temp\ccncDuUf.s 			page 1


   1              		.syntax unified
   2              		.cpu cortex-m0plus
   3              		.fpu softvfp
   4              		.eabi_attribute 20, 1
   5              		.eabi_attribute 21, 1
   6              		.eabi_attribute 23, 3
   7              		.eabi_attribute 24, 1
   8              		.eabi_attribute 25, 1
   9              		.eabi_attribute 26, 1
  10              		.eabi_attribute 30, 1
  11              		.eabi_attribute 34, 0
  12              		.eabi_attribute 18, 4
  13              		.thumb
  14              		.syntax unified
  15              		.file	"dfu_user.c"
  16              		.text
  17              	.Ltext0:
  18              		.cfi_sections	.debug_frame
  19              		.global	__aeabi_uidivmod
  20              		.section	.text.IsMultipleOf,"ax",%progbits
  21              		.align	2
  22              		.code	16
  23              		.thumb_func
  24              		.type	IsMultipleOf, %function
  25              	IsMultipleOf:
  26              	.LFB45:
  27              		.file 1 "dfu_user.c"
   1:dfu_user.c    **** /***************************************************************************//**
   2:dfu_user.c    **** * \file dfu_user.c
   3:dfu_user.c    **** * \version 3.0
   4:dfu_user.c    **** * 
   5:dfu_user.c    **** * This file provides the custom API for a firmware application with 
   6:dfu_user.c    **** * DFU SDK.
   7:dfu_user.c    **** * - Cy_DFU_ReadData (address, length, ctl, params) - to read  the NVM block
   8:dfu_user.c    **** * - Cy_Bootalod_WriteData(address, length, ctl, params) - to write the NVM block
   9:dfu_user.c    **** *
  10:dfu_user.c    **** * - Cy_DFU_TransportStart() to start a communication interface
  11:dfu_user.c    **** * - Cy_DFU_TransportStop () to stop  a communication interface
  12:dfu_user.c    **** * - Cy_DFU_TransportReset() to reset a communication interface
  13:dfu_user.c    **** * - Cy_DFU_TransportRead (buffer, size, count, timeout)
  14:dfu_user.c    **** * - Cy_DFU_TransportWrite(buffer, size, count, timeout)
  15:dfu_user.c    **** *
  16:dfu_user.c    **** ********************************************************************************
  17:dfu_user.c    **** * \copyright
  18:dfu_user.c    **** * Copyright 2016-2018, Cypress Semiconductor Corporation.  All rights reserved.
  19:dfu_user.c    **** * You may use this file only in accordance with the license, terms, conditions,
  20:dfu_user.c    **** * disclaimers, and limitations in the end user license agreement accompanying
  21:dfu_user.c    **** * the software package with which this file was provided.
  22:dfu_user.c    **** *******************************************************************************/
  23:dfu_user.c    **** 
  24:dfu_user.c    **** #include <string.h>
  25:dfu_user.c    **** #include "transport_uart.h"
  26:dfu_user.c    **** #include "cy_syslib.h"
  27:dfu_user.c    **** #include "cy_flash.h"
  28:dfu_user.c    **** #include "cy_dfu.h"
  29:dfu_user.c    **** 
  30:dfu_user.c    **** 
ARM GAS  C:\Users\Agentos\AppData\Local\Temp\ccncDuUf.s 			page 2


  31:dfu_user.c    **** /*
  32:dfu_user.c    **** * The DFU SDK metadata initial value is placed here
  33:dfu_user.c    **** * Note: the number of elements equal to the number of the app multiplies by 2 
  34:dfu_user.c    **** *       because of the two fields per app plus one element for the CRC-32C field.
  35:dfu_user.c    **** */
  36:dfu_user.c    **** CY_SECTION(".cy_boot_metadata") __USED
  37:dfu_user.c    **** static const uint32_t cy_dfu_metadata[CY_FLASH_SIZEOF_ROW / sizeof(uint32_t)] =
  38:dfu_user.c    **** {
  39:dfu_user.c    ****     CY_DFU_APP0_VERIFY_START, CY_DFU_APP0_VERIFY_LENGTH, /* The App0 base address and length */
  40:dfu_user.c    ****     CY_DFU_APP1_VERIFY_START, CY_DFU_APP1_VERIFY_LENGTH, /* The App1 base address and length */
  41:dfu_user.c    ****     0u                                                             /* The rest does not matter     
  42:dfu_user.c    **** };
  43:dfu_user.c    **** 
  44:dfu_user.c    **** 
  45:dfu_user.c    **** static uint32_t IsMultipleOf(uint32_t value, uint32_t multiple);
  46:dfu_user.c    **** static void GetStartEndAddress(uint32_t appId, uint32_t *startAddress, uint32_t *endAddress);
  47:dfu_user.c    **** 
  48:dfu_user.c    **** 
  49:dfu_user.c    **** /*******************************************************************************
  50:dfu_user.c    **** * Function Name: IsMultipleOf
  51:dfu_user.c    **** ****************************************************************************//**
  52:dfu_user.c    **** *
  53:dfu_user.c    **** * This internal function check if value parameter is a multiple of parameter 
  54:dfu_user.c    **** * multiple
  55:dfu_user.c    **** *
  56:dfu_user.c    **** * \param value      value that will be checked
  57:dfu_user.c    **** * \param multiple   value with which value is checked 
  58:dfu_user.c    **** *
  59:dfu_user.c    **** * \return 1 - value is multiple of parameter multiple, else 0  
  60:dfu_user.c    **** *
  61:dfu_user.c    **** *******************************************************************************/
  62:dfu_user.c    **** static uint32_t IsMultipleOf(uint32_t value, uint32_t multiple)
  63:dfu_user.c    **** {
  28              		.loc 1 63 0
  29              		.cfi_startproc
  30              		@ args = 0, pretend = 0, frame = 0
  31              		@ frame_needed = 0, uses_anonymous_args = 0
  32              	.LVL0:
  33 0000 10B5     		push	{r4, lr}
  34              		.cfi_def_cfa_offset 8
  35              		.cfi_offset 4, -8
  36              		.cfi_offset 14, -4
  64:dfu_user.c    ****     return ( ((value % multiple) == 0u)? 1ul : 0ul);
  37              		.loc 1 64 0
  38 0002 FFF7FEFF 		bl	__aeabi_uidivmod
  39              	.LVL1:
  40 0006 0029     		cmp	r1, #0
  41 0008 01D1     		bne	.L3
  42 000a 0120     		movs	r0, #1
  43 000c 00E0     		b	.L2
  44              	.L3:
  45 000e 0020     		movs	r0, #0
  46              	.L2:
  65:dfu_user.c    **** }
  47              		.loc 1 65 0 discriminator 4
  48              		@ sp needed
  49 0010 10BD     		pop	{r4, pc}
ARM GAS  C:\Users\Agentos\AppData\Local\Temp\ccncDuUf.s 			page 3


  50              		.cfi_endproc
  51              	.LFE45:
  52              		.size	IsMultipleOf, .-IsMultipleOf
  53 0012 C046     		.section	.text.GetStartEndAddress,"ax",%progbits
  54              		.align	2
  55              		.code	16
  56              		.thumb_func
  57              		.type	GetStartEndAddress, %function
  58              	GetStartEndAddress:
  59              	.LFB46:
  66:dfu_user.c    **** 
  67:dfu_user.c    **** 
  68:dfu_user.c    **** /*******************************************************************************
  69:dfu_user.c    **** * Function Name: GetStartEndAddress
  70:dfu_user.c    **** ****************************************************************************//**
  71:dfu_user.c    **** *
  72:dfu_user.c    **** * This internal function returns start and end address of application
  73:dfu_user.c    **** *
  74:dfu_user.c    **** * \param appId          The application number
  75:dfu_user.c    **** * \param startAddress   The pointer to a variable where an application start
  76:dfu_user.c    **** *                       address is stored
  77:dfu_user.c    **** * \param endAddress     The pointer to a variable where a size of application 
  78:dfu_user.c    **** *                       area is stored.
  79:dfu_user.c    **** *
  80:dfu_user.c    **** *******************************************************************************/
  81:dfu_user.c    **** static void GetStartEndAddress(uint32_t appId, uint32_t *startAddress, uint32_t *endAddress)
  82:dfu_user.c    **** {
  60              		.loc 1 82 0
  61              		.cfi_startproc
  62              		@ args = 0, pretend = 0, frame = 8
  63              		@ frame_needed = 0, uses_anonymous_args = 0
  64              	.LVL2:
  65 0000 30B5     		push	{r4, r5, lr}
  66              		.cfi_def_cfa_offset 12
  67              		.cfi_offset 4, -12
  68              		.cfi_offset 5, -8
  69              		.cfi_offset 14, -4
  70 0002 83B0     		sub	sp, sp, #12
  71              		.cfi_def_cfa_offset 24
  72 0004 0D00     		movs	r5, r1
  73 0006 1400     		movs	r4, r2
  83:dfu_user.c    ****     uint32_t verifyStart;
  84:dfu_user.c    ****     uint32_t verifySize;
  85:dfu_user.c    **** 
  86:dfu_user.c    ****     (void)Cy_DFU_GetAppMetadata(appId, &verifyStart, &verifySize);
  74              		.loc 1 86 0
  75 0008 6A46     		mov	r2, sp
  76              	.LVL3:
  77 000a 01A9     		add	r1, sp, #4
  78              	.LVL4:
  79 000c FFF7FEFF 		bl	Cy_DFU_GetAppMetadata
  80              	.LVL5:
  87:dfu_user.c    **** 
  88:dfu_user.c    **** #if (CY_DFU_APP_FORMAT == CY_DFU_SIMPLIFIED_APP)
  89:dfu_user.c    ****     *startAddress = verifyStart - CY_DFU_SIGNATURE_SIZE; 
  90:dfu_user.c    ****     *endAddress = verifyStart + verifySize;
  91:dfu_user.c    **** #else
ARM GAS  C:\Users\Agentos\AppData\Local\Temp\ccncDuUf.s 			page 4


  92:dfu_user.c    ****     *startAddress = verifyStart; 
  81              		.loc 1 92 0
  82 0010 019B     		ldr	r3, [sp, #4]
  83 0012 2B60     		str	r3, [r5]
  93:dfu_user.c    ****     *endAddress = verifyStart + verifySize + CY_DFU_SIGNATURE_SIZE;
  84              		.loc 1 93 0
  85 0014 009A     		ldr	r2, [sp]
  86 0016 9446     		mov	ip, r2
  87 0018 6344     		add	r3, r3, ip
  88 001a 024A     		ldr	r2, .L5
  89 001c 9B18     		adds	r3, r3, r2
  90 001e 2360     		str	r3, [r4]
  94:dfu_user.c    **** #endif
  95:dfu_user.c    **** }
  91              		.loc 1 95 0
  92 0020 03B0     		add	sp, sp, #12
  93              		@ sp needed
  94              	.LVL6:
  95              	.LVL7:
  96 0022 30BD     		pop	{r4, r5, pc}
  97              	.L6:
  98              		.align	2
  99              	.L5:
 100 0024 00000000 		.word	__cy_boot_signature_size
 101              		.cfi_endproc
 102              	.LFE46:
 103              		.size	GetStartEndAddress, .-GetStartEndAddress
 104              		.section	.text.Cy_DFU_WriteData,"ax",%progbits
 105              		.align	2
 106              		.global	Cy_DFU_WriteData
 107              		.code	16
 108              		.thumb_func
 109              		.type	Cy_DFU_WriteData, %function
 110              	Cy_DFU_WriteData:
 111              	.LFB47:
  96:dfu_user.c    **** 
  97:dfu_user.c    **** 
  98:dfu_user.c    **** /*******************************************************************************
  99:dfu_user.c    **** * Function Name: Cy_DFU_WriteData
 100:dfu_user.c    **** ****************************************************************************//**
 101:dfu_user.c    **** *
 102:dfu_user.c    **** * This function documentation is part of the DFU SDK API, see the
 103:dfu_user.c    **** * cy_dfu.h file or DFU SDK API Reference Manual for details.
 104:dfu_user.c    **** *
 105:dfu_user.c    **** *******************************************************************************/
 106:dfu_user.c    **** cy_en_dfu_status_t Cy_DFU_WriteData (uint32_t address, uint32_t length, uint32_t ctl, 
 107:dfu_user.c    ****                                                cy_stc_dfu_params_t *params)
 108:dfu_user.c    **** {
 112              		.loc 1 108 0
 113              		.cfi_startproc
 114              		@ args = 0, pretend = 0, frame = 8
 115              		@ frame_needed = 0, uses_anonymous_args = 0
 116              	.LVL8:
 117 0000 F0B5     		push	{r4, r5, r6, r7, lr}
 118              		.cfi_def_cfa_offset 20
 119              		.cfi_offset 4, -20
 120              		.cfi_offset 5, -16
ARM GAS  C:\Users\Agentos\AppData\Local\Temp\ccncDuUf.s 			page 5


 121              		.cfi_offset 6, -12
 122              		.cfi_offset 7, -8
 123              		.cfi_offset 14, -4
 124 0002 83B0     		sub	sp, sp, #12
 125              		.cfi_def_cfa_offset 32
 126 0004 0400     		movs	r4, r0
 127 0006 0D00     		movs	r5, r1
 128 0008 1600     		movs	r6, r2
 129 000a 1F00     		movs	r7, r3
 130              	.LVL9:
 109:dfu_user.c    ****     /* User Flash Limits */
 110:dfu_user.c    ****     /* Note that App0 is out of range */
 111:dfu_user.c    ****     const uint32_t minUFlashAddress = CY_FLASH_BASE + CY_DFU_APP0_VERIFY_LENGTH;
 112:dfu_user.c    ****     const uint32_t maxUFlashAddress = CY_FLASH_BASE + CY_FLASH_SIZE;
 113:dfu_user.c    ****     /* EM_EEPROM Limits*/
 114:dfu_user.c    ****     const uint32_t minEmEepromAddress = CY_EM_EEPROM_BASE;
 115:dfu_user.c    ****     const uint32_t maxEmEepromAddress = CY_EM_EEPROM_BASE + CY_EM_EEPROM_SIZE;
 116:dfu_user.c    ****     
 117:dfu_user.c    ****     cy_en_dfu_status_t status = CY_DFU_SUCCESS;
 118:dfu_user.c    **** 
 119:dfu_user.c    ****     uint32_t app = Cy_DFU_GetRunningApp();
 131              		.loc 1 119 0
 132 000c FFF7FEFF 		bl	Cy_DFU_GetRunningApp
 133              	.LVL10:
 120:dfu_user.c    ****     uint32_t startAddress;
 121:dfu_user.c    ****     uint32_t endAddress;
 122:dfu_user.c    ****     
 123:dfu_user.c    ****     GetStartEndAddress(app, &startAddress, &endAddress);
 134              		.loc 1 123 0
 135 0010 6A46     		mov	r2, sp
 136 0012 01A9     		add	r1, sp, #4
 137 0014 FFF7FEFF 		bl	GetStartEndAddress
 138              	.LVL11:
 124:dfu_user.c    **** 
 125:dfu_user.c    ****     /* Check if the address  and length are valid 
 126:dfu_user.c    ****      * Note Length = 0 is valid for erase command */
 127:dfu_user.c    ****     if ( (IsMultipleOf(address, CY_FLASH_SIZEOF_ROW) == 0u) || 
 139              		.loc 1 127 0
 140 0018 8021     		movs	r1, #128
 141 001a 8900     		lsls	r1, r1, #2
 142 001c 2000     		movs	r0, r4
 143 001e FFF7FEFF 		bl	IsMultipleOf
 144              	.LVL12:
 145 0022 0028     		cmp	r0, #0
 146 0024 07D0     		beq	.L14
 147              		.loc 1 127 0 is_stmt 0 discriminator 1
 148 0026 8023     		movs	r3, #128
 149 0028 9B00     		lsls	r3, r3, #2
 150 002a 9D42     		cmp	r5, r3
 151 002c 05D0     		beq	.L15
 128:dfu_user.c    ****          ( (length != CY_FLASH_SIZEOF_ROW) && ( (ctl & CY_DFU_IOCTL_ERASE) == 0u) ) )
 152              		.loc 1 128 0 is_stmt 1
 153 002e F307     		lsls	r3, r6, #31
 154 0030 05D5     		bpl	.L16
 117:dfu_user.c    **** 
 155              		.loc 1 117 0
 156 0032 0025     		movs	r5, #0
ARM GAS  C:\Users\Agentos\AppData\Local\Temp\ccncDuUf.s 			page 6


 157              	.LVL13:
 158 0034 04E0     		b	.L8
 159              	.LVL14:
 160              	.L14:
 129:dfu_user.c    ****     {
 130:dfu_user.c    ****         status = CY_DFU_ERROR_LENGTH;   
 161              		.loc 1 130 0
 162 0036 184D     		ldr	r5, .L20
 163              	.LVL15:
 164 0038 02E0     		b	.L8
 165              	.LVL16:
 166              	.L15:
 117:dfu_user.c    **** 
 167              		.loc 1 117 0
 168 003a 0025     		movs	r5, #0
 169              	.LVL17:
 170 003c 00E0     		b	.L8
 171              	.LVL18:
 172              	.L16:
 173              		.loc 1 130 0
 174 003e 164D     		ldr	r5, .L20
 175              	.LVL19:
 176              	.L8:
 131:dfu_user.c    ****     }
 132:dfu_user.c    **** 
 133:dfu_user.c    ****     /* Refuse to write to a row within a range of the current application */ 
 134:dfu_user.c    ****     if ( (startAddress <= address) && (address < endAddress) )
 177              		.loc 1 134 0
 178 0040 019B     		ldr	r3, [sp, #4]
 179 0042 9C42     		cmp	r4, r3
 180 0044 03D3     		bcc	.L9
 181              		.loc 1 134 0 is_stmt 0 discriminator 1
 182 0046 009B     		ldr	r3, [sp]
 183 0048 9C42     		cmp	r4, r3
 184 004a 00D2     		bcs	.L9
 135:dfu_user.c    ****     {   /* It is forbidden to overwrite the currently running application */
 136:dfu_user.c    ****         status = CY_DFU_ERROR_ADDRESS;
 185              		.loc 1 136 0 is_stmt 1
 186 004c 134D     		ldr	r5, .L20+4
 187              	.LVL20:
 188              	.L9:
 137:dfu_user.c    ****     }
 138:dfu_user.c    **** #if CY_DFU_OPT_GOLDEN_IMAGE
 139:dfu_user.c    ****     if (status == CY_DFU_SUCCESS)
 140:dfu_user.c    ****     {
 141:dfu_user.c    ****         uint8_t goldenImages[] = { CY_DFU_GOLDEN_IMAGE_IDS() };
 142:dfu_user.c    ****         uint32_t count = sizeof(goldenImages) / sizeof(goldenImages[0]);
 143:dfu_user.c    ****         uint32_t idx;
 144:dfu_user.c    ****         for (idx = 0u; idx < count; ++idx)
 145:dfu_user.c    ****         {
 146:dfu_user.c    ****             app = goldenImages[idx];
 147:dfu_user.c    ****             GetStartEndAddress(app, &startAddress, &endAddress);
 148:dfu_user.c    **** 
 149:dfu_user.c    ****             if ( (startAddress <= address) && (address < endAddress) )
 150:dfu_user.c    ****             {
 151:dfu_user.c    ****                 status = Cy_DFU_ValidateApp(app, params);
 152:dfu_user.c    ****                 status = (status == CY_DFU_SUCCESS) ? CY_DFU_ERROR_ADDRESS : CY_DFU_SUCCESS;
ARM GAS  C:\Users\Agentos\AppData\Local\Temp\ccncDuUf.s 			page 7


 153:dfu_user.c    ****                 break;
 154:dfu_user.c    ****             }
 155:dfu_user.c    ****         }
 156:dfu_user.c    ****     } 
 157:dfu_user.c    **** #endif /* #if CY_DFU_OPT_GOLDEN_IMAGE != 0 */
 158:dfu_user.c    ****     
 159:dfu_user.c    ****     /* Check if the address is inside the valid range */
 160:dfu_user.c    ****     if ( ( (minUFlashAddress <= address) && (address < maxUFlashAddress) ) 
 189              		.loc 1 160 0
 190 004e 144B     		ldr	r3, .L20+8
 191 0050 8022     		movs	r2, #128
 192 0052 5205     		lsls	r2, r2, #21
 193 0054 9446     		mov	ip, r2
 194 0056 6344     		add	r3, r3, ip
 195 0058 9C42     		cmp	r4, r3
 196 005a 02D3     		bcc	.L10
 197              		.loc 1 160 0 is_stmt 0 discriminator 1
 198 005c 114B     		ldr	r3, .L20+12
 199 005e 9C42     		cmp	r4, r3
 200 0060 06D9     		bls	.L11
 201              	.L10:
 161:dfu_user.c    ****       || ( (minEmEepromAddress <= address) && (address < maxEmEepromAddress) )  )
 202              		.loc 1 161 0 is_stmt 1
 203 0062 114A     		ldr	r2, .L20+16
 204 0064 EC23     		movs	r3, #236
 205 0066 1B06     		lsls	r3, r3, #24
 206 0068 E318     		adds	r3, r4, r3
 207 006a 9342     		cmp	r3, r2
 208 006c 00D9     		bls	.L11
 162:dfu_user.c    ****     {   /* Do nothing, this is an allowed memory range to update to */
 163:dfu_user.c    ****     }
 164:dfu_user.c    ****     else
 165:dfu_user.c    ****     {
 166:dfu_user.c    ****         status = CY_DFU_ERROR_ADDRESS;   
 209              		.loc 1 166 0
 210 006e 0B4D     		ldr	r5, .L20+4
 211              	.LVL21:
 212              	.L11:
 167:dfu_user.c    ****     }
 168:dfu_user.c    ****     
 169:dfu_user.c    ****     if (status == CY_DFU_SUCCESS)
 213              		.loc 1 169 0
 214 0070 002D     		cmp	r5, #0
 215 0072 0ED1     		bne	.L12
 216              	.LBB2:
 170:dfu_user.c    ****     {
 171:dfu_user.c    ****         if ((ctl & CY_DFU_IOCTL_ERASE) != 0u)
 217              		.loc 1 171 0
 218 0074 F307     		lsls	r3, r6, #31
 219 0076 05D5     		bpl	.L13
 172:dfu_user.c    ****         {
 173:dfu_user.c    ****             (void) memset(params->dataBuffer, 0, CY_FLASH_SIZEOF_ROW);
 220              		.loc 1 173 0
 221 0078 8022     		movs	r2, #128
 222 007a 9200     		lsls	r2, r2, #2
 223 007c 0021     		movs	r1, #0
 224 007e 3868     		ldr	r0, [r7]
ARM GAS  C:\Users\Agentos\AppData\Local\Temp\ccncDuUf.s 			page 8


 225 0080 FFF7FEFF 		bl	memset
 226              	.LVL22:
 227              	.L13:
 174:dfu_user.c    ****         }
 175:dfu_user.c    ****         cy_en_flashdrv_status_t fstatus =  Cy_Flash_WriteRow(address, (uint32_t*)params->dataBuffer
 228              		.loc 1 175 0
 229 0084 3968     		ldr	r1, [r7]
 230 0086 2000     		movs	r0, r4
 231 0088 FFF7FEFF 		bl	Cy_Flash_WriteRow
 232              	.LVL23:
 176:dfu_user.c    ****         status = (fstatus == CY_FLASH_DRV_SUCCESS) ? CY_DFU_SUCCESS : CY_DFU_ERROR_DATA;
 233              		.loc 1 176 0
 234 008c 0028     		cmp	r0, #0
 235 008e 00D0     		beq	.L12
 236 0090 064D     		ldr	r5, .L20+20
 237              	.LVL24:
 238              	.L12:
 239              	.LBE2:
 177:dfu_user.c    ****     }
 178:dfu_user.c    ****     return (status);
 179:dfu_user.c    **** }
 240              		.loc 1 179 0
 241 0092 2800     		movs	r0, r5
 242 0094 03B0     		add	sp, sp, #12
 243              		@ sp needed
 244              	.LVL25:
 245              	.LVL26:
 246              	.LVL27:
 247              	.LVL28:
 248 0096 F0BD     		pop	{r4, r5, r6, r7, pc}
 249              	.L21:
 250              		.align	2
 251              	.L20:
 252 0098 03001A00 		.word	1703939
 253 009c 0A001A00 		.word	1703946
 254 00a0 00000000 		.word	__cy_app0_verify_length
 255 00a4 FFFF0F10 		.word	269484031
 256 00a8 FF7F0000 		.word	32767
 257 00ac 04001A00 		.word	1703940
 258              		.cfi_endproc
 259              	.LFE47:
 260              		.size	Cy_DFU_WriteData, .-Cy_DFU_WriteData
 261              		.section	.text.Cy_DFU_ReadData,"ax",%progbits
 262              		.align	2
 263              		.global	Cy_DFU_ReadData
 264              		.code	16
 265              		.thumb_func
 266              		.type	Cy_DFU_ReadData, %function
 267              	Cy_DFU_ReadData:
 268              	.LFB48:
 180:dfu_user.c    **** 
 181:dfu_user.c    **** 
 182:dfu_user.c    **** /*******************************************************************************
 183:dfu_user.c    **** * Function Name: Cy_DFU_ReadData
 184:dfu_user.c    **** ****************************************************************************//**
 185:dfu_user.c    **** *
 186:dfu_user.c    **** * This function documentation is part of the DFU SDK API, see the
ARM GAS  C:\Users\Agentos\AppData\Local\Temp\ccncDuUf.s 			page 9


 187:dfu_user.c    **** * cy_dfu.h file or DFU SDK API Reference Manual for details.
 188:dfu_user.c    **** *
 189:dfu_user.c    **** *******************************************************************************/
 190:dfu_user.c    **** cy_en_dfu_status_t Cy_DFU_ReadData (uint32_t address, uint32_t length, uint32_t ctl, 
 191:dfu_user.c    ****                                               cy_stc_dfu_params_t *params)
 192:dfu_user.c    **** {
 269              		.loc 1 192 0
 270              		.cfi_startproc
 271              		@ args = 0, pretend = 0, frame = 8
 272              		@ frame_needed = 0, uses_anonymous_args = 0
 273              	.LVL29:
 274 0000 F0B5     		push	{r4, r5, r6, r7, lr}
 275              		.cfi_def_cfa_offset 20
 276              		.cfi_offset 4, -20
 277              		.cfi_offset 5, -16
 278              		.cfi_offset 6, -12
 279              		.cfi_offset 7, -8
 280              		.cfi_offset 14, -4
 281 0002 83B0     		sub	sp, sp, #12
 282              		.cfi_def_cfa_offset 32
 283 0004 0600     		movs	r6, r0
 284 0006 0800     		movs	r0, r1
 285              	.LVL30:
 286 0008 0191     		str	r1, [sp, #4]
 287 000a 1500     		movs	r5, r2
 288 000c 1C00     		movs	r4, r3
 289              	.LVL31:
 193:dfu_user.c    ****     /* User Flash Limits */
 194:dfu_user.c    ****     /* Note that App0 is out of range */
 195:dfu_user.c    ****     const uint32_t minUFlashAddress = CY_FLASH_BASE + CY_DFU_APP0_VERIFY_LENGTH;
 196:dfu_user.c    ****     const uint32_t maxUFlashAddress = CY_FLASH_BASE + CY_FLASH_SIZE;
 197:dfu_user.c    ****     /* EM_EEPROM Limits*/
 198:dfu_user.c    ****     const uint32_t minEmEepromAddress = CY_EM_EEPROM_BASE;
 199:dfu_user.c    ****     const uint32_t maxEmEepromAddress = CY_EM_EEPROM_BASE + CY_EM_EEPROM_SIZE;
 200:dfu_user.c    ****     
 201:dfu_user.c    ****     cy_en_dfu_status_t status = CY_DFU_SUCCESS;
 202:dfu_user.c    **** 
 203:dfu_user.c    ****     /* Check if the length is valid */
 204:dfu_user.c    ****     if (IsMultipleOf(length, CY_FLASH_SIZEOF_ROW) == 0u) 
 290              		.loc 1 204 0
 291 000e 8021     		movs	r1, #128
 292              	.LVL32:
 293 0010 8900     		lsls	r1, r1, #2
 294 0012 FFF7FEFF 		bl	IsMultipleOf
 295              	.LVL33:
 296 0016 0028     		cmp	r0, #0
 297 0018 01D0     		beq	.L28
 201:dfu_user.c    **** 
 298              		.loc 1 201 0
 299 001a 0027     		movs	r7, #0
 300 001c 00E0     		b	.L23
 301              	.L28:
 205:dfu_user.c    ****     {
 206:dfu_user.c    ****         status = CY_DFU_ERROR_LENGTH;   
 302              		.loc 1 206 0
 303 001e 134F     		ldr	r7, .L31
 304              	.L23:
ARM GAS  C:\Users\Agentos\AppData\Local\Temp\ccncDuUf.s 			page 10


 305              	.LVL34:
 207:dfu_user.c    ****     }
 208:dfu_user.c    **** 
 209:dfu_user.c    ****     /* Check if the address is inside the valid range */
 210:dfu_user.c    ****     if ( ( (minUFlashAddress <= address) && (address < maxUFlashAddress) ) 
 306              		.loc 1 210 0
 307 0020 134B     		ldr	r3, .L31+4
 308 0022 8022     		movs	r2, #128
 309 0024 5205     		lsls	r2, r2, #21
 310 0026 9446     		mov	ip, r2
 311 0028 6344     		add	r3, r3, ip
 312 002a B342     		cmp	r3, r6
 313 002c 02D8     		bhi	.L24
 314              		.loc 1 210 0 is_stmt 0 discriminator 1
 315 002e 114B     		ldr	r3, .L31+8
 316 0030 9E42     		cmp	r6, r3
 317 0032 06D9     		bls	.L25
 318              	.L24:
 211:dfu_user.c    ****       || ( (minEmEepromAddress <= address) && (address < maxEmEepromAddress) )  )
 319              		.loc 1 211 0 is_stmt 1
 320 0034 104A     		ldr	r2, .L31+12
 321 0036 EC23     		movs	r3, #236
 322 0038 1B06     		lsls	r3, r3, #24
 323 003a F318     		adds	r3, r6, r3
 324 003c 9342     		cmp	r3, r2
 325 003e 00D9     		bls	.L25
 212:dfu_user.c    ****     {   /* Do nothing, this is an allowed memory range to update to */
 213:dfu_user.c    ****     }
 214:dfu_user.c    ****     else
 215:dfu_user.c    ****     {
 216:dfu_user.c    ****         status = CY_DFU_ERROR_ADDRESS;   
 326              		.loc 1 216 0
 327 0040 0E4F     		ldr	r7, .L31+16
 328              	.LVL35:
 329              	.L25:
 217:dfu_user.c    ****     }
 218:dfu_user.c    **** 
 219:dfu_user.c    ****     /* Read or Compare */
 220:dfu_user.c    ****     if (status == CY_DFU_SUCCESS)
 330              		.loc 1 220 0
 331 0042 002F     		cmp	r7, #0
 332 0044 0FD1     		bne	.L26
 221:dfu_user.c    ****     {
 222:dfu_user.c    ****         if ((ctl & CY_DFU_IOCTL_COMPARE) == 0u)
 333              		.loc 1 222 0
 334 0046 EB07     		lsls	r3, r5, #31
 335 0048 05D4     		bmi	.L27
 223:dfu_user.c    ****         {
 224:dfu_user.c    ****             (void) memcpy(params->dataBuffer, (const void *)address, length);
 336              		.loc 1 224 0
 337 004a 2068     		ldr	r0, [r4]
 338 004c 019A     		ldr	r2, [sp, #4]
 339 004e 3100     		movs	r1, r6
 340 0050 FFF7FEFF 		bl	memcpy
 341              	.LVL36:
 342 0054 07E0     		b	.L26
 343              	.LVL37:
ARM GAS  C:\Users\Agentos\AppData\Local\Temp\ccncDuUf.s 			page 11


 344              	.L27:
 225:dfu_user.c    ****             status = CY_DFU_SUCCESS;
 226:dfu_user.c    ****         }
 227:dfu_user.c    ****         else
 228:dfu_user.c    ****         {
 229:dfu_user.c    ****             status = ( memcmp(params->dataBuffer, (const void *)address, length) == 0 )
 345              		.loc 1 229 0
 346 0056 2068     		ldr	r0, [r4]
 347 0058 019A     		ldr	r2, [sp, #4]
 348 005a 3100     		movs	r1, r6
 349 005c FFF7FEFF 		bl	memcmp
 350              	.LVL38:
 351 0060 0028     		cmp	r0, #0
 352 0062 00D0     		beq	.L26
 353 0064 064F     		ldr	r7, .L31+20
 354              	.LVL39:
 355              	.L26:
 230:dfu_user.c    ****                      ? CY_DFU_SUCCESS : CY_DFU_ERROR_VERIFY;
 231:dfu_user.c    ****         }
 232:dfu_user.c    ****     }
 233:dfu_user.c    ****     return (status);
 234:dfu_user.c    **** }
 356              		.loc 1 234 0
 357 0066 3800     		movs	r0, r7
 358 0068 03B0     		add	sp, sp, #12
 359              		@ sp needed
 360              	.LVL40:
 361              	.LVL41:
 362              	.LVL42:
 363              	.LVL43:
 364 006a F0BD     		pop	{r4, r5, r6, r7, pc}
 365              	.L32:
 366              		.align	2
 367              	.L31:
 368 006c 03001A00 		.word	1703939
 369 0070 00000000 		.word	__cy_app0_verify_length
 370 0074 FFFF0F10 		.word	269484031
 371 0078 FF7F0000 		.word	32767
 372 007c 0A001A00 		.word	1703946
 373 0080 02001A00 		.word	1703938
 374              		.cfi_endproc
 375              	.LFE48:
 376              		.size	Cy_DFU_ReadData, .-Cy_DFU_ReadData
 377              		.section	.text.Cy_DFU_TransportRead,"ax",%progbits
 378              		.align	2
 379              		.global	Cy_DFU_TransportRead
 380              		.code	16
 381              		.thumb_func
 382              		.type	Cy_DFU_TransportRead, %function
 383              	Cy_DFU_TransportRead:
 384              	.LFB49:
 235:dfu_user.c    **** 
 236:dfu_user.c    **** 
 237:dfu_user.c    **** /*******************************************************************************
 238:dfu_user.c    **** * Function Name: Cy_DFU_TransportRead
 239:dfu_user.c    **** ****************************************************************************//**
 240:dfu_user.c    **** *
ARM GAS  C:\Users\Agentos\AppData\Local\Temp\ccncDuUf.s 			page 12


 241:dfu_user.c    **** * This function documentation is part of the DFU SDK API, see the
 242:dfu_user.c    **** * cy_dfu.h file or DFU SDK API Reference Manual for details.
 243:dfu_user.c    **** *
 244:dfu_user.c    **** *******************************************************************************/
 245:dfu_user.c    **** cy_en_dfu_status_t Cy_DFU_TransportRead (uint8_t *buffer, uint32_t size, uint32_t *count, uint32_t 
 246:dfu_user.c    **** {
 385              		.loc 1 246 0
 386              		.cfi_startproc
 387              		@ args = 0, pretend = 0, frame = 0
 388              		@ frame_needed = 0, uses_anonymous_args = 0
 389              	.LVL44:
 390 0000 10B5     		push	{r4, lr}
 391              		.cfi_def_cfa_offset 8
 392              		.cfi_offset 4, -8
 393              		.cfi_offset 14, -4
 247:dfu_user.c    ****     return (UART_UartCyBtldrCommRead(buffer, size, count, timeout));
 394              		.loc 1 247 0
 395 0002 FFF7FEFF 		bl	UART_UartCyBtldrCommRead
 396              	.LVL45:
 248:dfu_user.c    **** }
 397              		.loc 1 248 0
 398              		@ sp needed
 399 0006 10BD     		pop	{r4, pc}
 400              		.cfi_endproc
 401              	.LFE49:
 402              		.size	Cy_DFU_TransportRead, .-Cy_DFU_TransportRead
 403              		.section	.text.Cy_DFU_TransportWrite,"ax",%progbits
 404              		.align	2
 405              		.global	Cy_DFU_TransportWrite
 406              		.code	16
 407              		.thumb_func
 408              		.type	Cy_DFU_TransportWrite, %function
 409              	Cy_DFU_TransportWrite:
 410              	.LFB50:
 249:dfu_user.c    **** 
 250:dfu_user.c    **** /*******************************************************************************
 251:dfu_user.c    **** * Function Name: Cy_DFU_TransportWrite
 252:dfu_user.c    **** ****************************************************************************//**
 253:dfu_user.c    **** *
 254:dfu_user.c    **** * This function documentation is part of the DFU SDK API, see the
 255:dfu_user.c    **** * cy_dfu.h file or DFU SDK API Reference Manual for details.
 256:dfu_user.c    **** *
 257:dfu_user.c    **** *******************************************************************************/
 258:dfu_user.c    **** cy_en_dfu_status_t Cy_DFU_TransportWrite(uint8_t *buffer, uint32_t size, uint32_t *count, uint32_t 
 259:dfu_user.c    **** {
 411              		.loc 1 259 0
 412              		.cfi_startproc
 413              		@ args = 0, pretend = 0, frame = 0
 414              		@ frame_needed = 0, uses_anonymous_args = 0
 415              	.LVL46:
 416 0000 10B5     		push	{r4, lr}
 417              		.cfi_def_cfa_offset 8
 418              		.cfi_offset 4, -8
 419              		.cfi_offset 14, -4
 260:dfu_user.c    ****     return (UART_UartCyBtldrCommWrite(buffer, size, count, timeout));
 420              		.loc 1 260 0
 421 0002 FFF7FEFF 		bl	UART_UartCyBtldrCommWrite
ARM GAS  C:\Users\Agentos\AppData\Local\Temp\ccncDuUf.s 			page 13


 422              	.LVL47:
 261:dfu_user.c    **** }
 423              		.loc 1 261 0
 424              		@ sp needed
 425 0006 10BD     		pop	{r4, pc}
 426              		.cfi_endproc
 427              	.LFE50:
 428              		.size	Cy_DFU_TransportWrite, .-Cy_DFU_TransportWrite
 429              		.section	.text.Cy_DFU_TransportReset,"ax",%progbits
 430              		.align	2
 431              		.global	Cy_DFU_TransportReset
 432              		.code	16
 433              		.thumb_func
 434              		.type	Cy_DFU_TransportReset, %function
 435              	Cy_DFU_TransportReset:
 436              	.LFB51:
 262:dfu_user.c    **** 
 263:dfu_user.c    **** /*******************************************************************************
 264:dfu_user.c    **** * Function Name: Cy_DFU_TransportReset
 265:dfu_user.c    **** ****************************************************************************//**
 266:dfu_user.c    **** *
 267:dfu_user.c    **** * This function documentation is part of the DFU SDK API, see the
 268:dfu_user.c    **** * cy_dfu.h file or DFU SDK API Reference Manual for details.
 269:dfu_user.c    **** *
 270:dfu_user.c    **** *******************************************************************************/
 271:dfu_user.c    **** void Cy_DFU_TransportReset(void)
 272:dfu_user.c    **** {
 437              		.loc 1 272 0
 438              		.cfi_startproc
 439              		@ args = 0, pretend = 0, frame = 0
 440              		@ frame_needed = 0, uses_anonymous_args = 0
 441 0000 10B5     		push	{r4, lr}
 442              		.cfi_def_cfa_offset 8
 443              		.cfi_offset 4, -8
 444              		.cfi_offset 14, -4
 273:dfu_user.c    ****     UART_UartCyBtldrCommReset();
 445              		.loc 1 273 0
 446 0002 FFF7FEFF 		bl	UART_UartCyBtldrCommReset
 447              	.LVL48:
 274:dfu_user.c    **** }
 448              		.loc 1 274 0
 449              		@ sp needed
 450 0006 10BD     		pop	{r4, pc}
 451              		.cfi_endproc
 452              	.LFE51:
 453              		.size	Cy_DFU_TransportReset, .-Cy_DFU_TransportReset
 454              		.section	.text.Cy_DFU_TransportStart,"ax",%progbits
 455              		.align	2
 456              		.global	Cy_DFU_TransportStart
 457              		.code	16
 458              		.thumb_func
 459              		.type	Cy_DFU_TransportStart, %function
 460              	Cy_DFU_TransportStart:
 461              	.LFB52:
 275:dfu_user.c    **** 
 276:dfu_user.c    **** /*******************************************************************************
 277:dfu_user.c    **** * Function Name: Cy_DFU_TransportStart
ARM GAS  C:\Users\Agentos\AppData\Local\Temp\ccncDuUf.s 			page 14


 278:dfu_user.c    **** ****************************************************************************//**
 279:dfu_user.c    **** *
 280:dfu_user.c    **** * This function documentation is part of the DFU SDK API, see the
 281:dfu_user.c    **** * cy_dfu.h file or DFU SDK API Reference Manual for details.
 282:dfu_user.c    **** *
 283:dfu_user.c    **** *******************************************************************************/
 284:dfu_user.c    **** void Cy_DFU_TransportStart(void)
 285:dfu_user.c    **** {
 462              		.loc 1 285 0
 463              		.cfi_startproc
 464              		@ args = 0, pretend = 0, frame = 0
 465              		@ frame_needed = 0, uses_anonymous_args = 0
 466 0000 10B5     		push	{r4, lr}
 467              		.cfi_def_cfa_offset 8
 468              		.cfi_offset 4, -8
 469              		.cfi_offset 14, -4
 286:dfu_user.c    ****     UART_UartCyBtldrCommStart();
 470              		.loc 1 286 0
 471 0002 FFF7FEFF 		bl	UART_UartCyBtldrCommStart
 472              	.LVL49:
 287:dfu_user.c    **** }
 473              		.loc 1 287 0
 474              		@ sp needed
 475 0006 10BD     		pop	{r4, pc}
 476              		.cfi_endproc
 477              	.LFE52:
 478              		.size	Cy_DFU_TransportStart, .-Cy_DFU_TransportStart
 479              		.section	.text.Cy_DFU_TransportStop,"ax",%progbits
 480              		.align	2
 481              		.global	Cy_DFU_TransportStop
 482              		.code	16
 483              		.thumb_func
 484              		.type	Cy_DFU_TransportStop, %function
 485              	Cy_DFU_TransportStop:
 486              	.LFB53:
 288:dfu_user.c    **** 
 289:dfu_user.c    **** /*******************************************************************************
 290:dfu_user.c    **** * Function Name: Cy_DFU_TransportStop
 291:dfu_user.c    **** ****************************************************************************//**
 292:dfu_user.c    **** *
 293:dfu_user.c    **** * This function documentation is part of the DFU SDK API, see the
 294:dfu_user.c    **** * cy_dfu.h file or DFU SDK API Reference Manual for details.
 295:dfu_user.c    **** *
 296:dfu_user.c    **** *******************************************************************************/
 297:dfu_user.c    **** void Cy_DFU_TransportStop(void)
 298:dfu_user.c    **** {
 487              		.loc 1 298 0
 488              		.cfi_startproc
 489              		@ args = 0, pretend = 0, frame = 0
 490              		@ frame_needed = 0, uses_anonymous_args = 0
 491 0000 10B5     		push	{r4, lr}
 492              		.cfi_def_cfa_offset 8
 493              		.cfi_offset 4, -8
 494              		.cfi_offset 14, -4
 299:dfu_user.c    ****     UART_UartCyBtldrCommStop();
 495              		.loc 1 299 0
 496 0002 FFF7FEFF 		bl	UART_UartCyBtldrCommStop
ARM GAS  C:\Users\Agentos\AppData\Local\Temp\ccncDuUf.s 			page 15


 497              	.LVL50:
 300:dfu_user.c    **** }
 498              		.loc 1 300 0
 499              		@ sp needed
 500 0006 10BD     		pop	{r4, pc}
 501              		.cfi_endproc
 502              	.LFE53:
 503              		.size	Cy_DFU_TransportStop, .-Cy_DFU_TransportStop
 504              		.section	.cy_boot_metadata,"a",%progbits
 505              		.align	2
 506              		.type	cy_dfu_metadata, %object
 507              		.size	cy_dfu_metadata, 512
 508              	cy_dfu_metadata:
 509 0000 00000000 		.word	__cy_app0_verify_start
 510 0004 00000000 		.word	__cy_app0_verify_length
 511 0008 00000000 		.word	__cy_app1_verify_start
 512 000c 00000000 		.word	__cy_app1_verify_length
 513 0010 00000000 		.word	0
 514 0014 00000000 		.space	492
 514      00000000 
 514      00000000 
 514      00000000 
 514      00000000 
 515              		.text
 516              	.Letext0:
 517              		.file 2 "c:\\program files (x86)\\cypress\\psoc creator\\4.2\\psoc creator\\import\\gnu\\arm\\5.4.
 518              		.file 3 "c:\\program files (x86)\\cypress\\psoc creator\\4.2\\psoc creator\\import\\gnu\\arm\\5.4.
 519              		.file 4 "Generated_Source\\PSoC6\\pdl\\drivers/peripheral/flash/cy_flash.h"
 520              		.file 5 "Generated_Source\\PSoC6\\pdl\\dfu/cy_dfu.h"
 521              		.file 6 "./dfu_user.h"
 522              		.file 7 "c:\\program files (x86)\\cypress\\psoc creator\\4.2\\psoc creator\\import\\gnu\\arm\\5.4.
 523              		.file 8 "transport_uart.h"