ARM GAS  C:\Users\cypress\AppData\Local\Temp\ccxRek6y.s 			page 1


   1              		.syntax unified
   2              		.cpu cortex-m4
   3              		.eabi_attribute 27, 1
   4              		.fpu fpv4-sp-d16
   5              		.eabi_attribute 20, 1
   6              		.eabi_attribute 21, 1
   7              		.eabi_attribute 23, 3
   8              		.eabi_attribute 24, 1
   9              		.eabi_attribute 25, 1
  10              		.eabi_attribute 26, 1
  11              		.eabi_attribute 30, 1
  12              		.eabi_attribute 34, 1
  13              		.eabi_attribute 18, 4
  14              		.thumb
  15              		.syntax unified
  16              		.file	"main_cm4.c"
  17              		.text
  18              	.Ltext0:
  19              		.cfi_sections	.debug_frame
  20              		.section	.text.main,"ax",%progbits
  21              		.align	2
  22              		.global	main
  23              		.thumb
  24              		.thumb_func
  25              		.type	main, %function
  26              	main:
  27              	.LFB450:
  28              		.file 1 "main_cm4.c"
   1:main_cm4.c    **** /* ========================================
   2:main_cm4.c    ****  *
   3:main_cm4.c    ****  * Copyright YOUR COMPANY, THE YEAR
   4:main_cm4.c    ****  * All Rights Reserved
   5:main_cm4.c    ****  * UNPUBLISHED, LICENSED SOFTWARE.
   6:main_cm4.c    ****  *
   7:main_cm4.c    ****  * CONFIDENTIAL AND PROPRIETARY INFORMATION
   8:main_cm4.c    ****  * WHICH IS THE PROPERTY OF your company.
   9:main_cm4.c    ****  *
  10:main_cm4.c    ****  * ========================================
  11:main_cm4.c    **** */
  12:main_cm4.c    **** #include "project.h"
  13:main_cm4.c    **** 
  14:main_cm4.c    **** int main(void)
  15:main_cm4.c    **** {
  29              		.loc 1 15 0
  30              		.cfi_startproc
  31              		@ Volatile: function does not return.
  32              		@ args = 0, pretend = 0, frame = 0
  33              		@ frame_needed = 0, uses_anonymous_args = 0
  34 0000 80B5     		push	{r7, lr}
  35              		.cfi_def_cfa_offset 8
  36              		.cfi_offset 7, -8
  37              		.cfi_offset 14, -4
  38              	.LBB40:
  39              	.LBB41:
  40              		.file 2 "Generated_Source\\PSoC6\\pdl\\cmsis/include/cmsis_gcc.h"
   1:Generated_Source\PSoC6\pdl\cmsis/include/cmsis_gcc.h **** /**************************************************************************//**
   2:Generated_Source\PSoC6\pdl\cmsis/include/cmsis_gcc.h ****  * @file     cmsis_gcc.h
ARM GAS  C:\Users\cypress\AppData\Local\Temp\ccxRek6y.s 			page 2


   3:Generated_Source\PSoC6\pdl\cmsis/include/cmsis_gcc.h ****  * @brief    CMSIS compiler GCC header file
   4:Generated_Source\PSoC6\pdl\cmsis/include/cmsis_gcc.h ****  * @version  V5.0.1
   5:Generated_Source\PSoC6\pdl\cmsis/include/cmsis_gcc.h ****  * @date     02. February 2017
   6:Generated_Source\PSoC6\pdl\cmsis/include/cmsis_gcc.h ****  ******************************************************************************/
   7:Generated_Source\PSoC6\pdl\cmsis/include/cmsis_gcc.h **** /*
   8:Generated_Source\PSoC6\pdl\cmsis/include/cmsis_gcc.h ****  * Copyright (c) 2009-2017 ARM Limited. All rights reserved.
   9:Generated_Source\PSoC6\pdl\cmsis/include/cmsis_gcc.h ****  *
  10:Generated_Source\PSoC6\pdl\cmsis/include/cmsis_gcc.h ****  * SPDX-License-Identifier: Apache-2.0
  11:Generated_Source\PSoC6\pdl\cmsis/include/cmsis_gcc.h ****  *
  12:Generated_Source\PSoC6\pdl\cmsis/include/cmsis_gcc.h ****  * Licensed under the Apache License, Version 2.0 (the License); you may
  13:Generated_Source\PSoC6\pdl\cmsis/include/cmsis_gcc.h ****  * not use this file except in compliance with the License.
  14:Generated_Source\PSoC6\pdl\cmsis/include/cmsis_gcc.h ****  * You may obtain a copy of the License at
  15:Generated_Source\PSoC6\pdl\cmsis/include/cmsis_gcc.h ****  *
  16:Generated_Source\PSoC6\pdl\cmsis/include/cmsis_gcc.h ****  * www.apache.org/licenses/LICENSE-2.0
  17:Generated_Source\PSoC6\pdl\cmsis/include/cmsis_gcc.h ****  *
  18:Generated_Source\PSoC6\pdl\cmsis/include/cmsis_gcc.h ****  * Unless required by applicable law or agreed to in writing, software
  19:Generated_Source\PSoC6\pdl\cmsis/include/cmsis_gcc.h ****  * distributed under the License is distributed on an AS IS BASIS, WITHOUT
  20:Generated_Source\PSoC6\pdl\cmsis/include/cmsis_gcc.h ****  * WARRANTIES OR CONDITIONS OF ANY KIND, either express or implied.
  21:Generated_Source\PSoC6\pdl\cmsis/include/cmsis_gcc.h ****  * See the License for the specific language governing permissions and
  22:Generated_Source\PSoC6\pdl\cmsis/include/cmsis_gcc.h ****  * limitations under the License.
  23:Generated_Source\PSoC6\pdl\cmsis/include/cmsis_gcc.h ****  */
  24:Generated_Source\PSoC6\pdl\cmsis/include/cmsis_gcc.h **** 
  25:Generated_Source\PSoC6\pdl\cmsis/include/cmsis_gcc.h **** #ifndef __CMSIS_GCC_H
  26:Generated_Source\PSoC6\pdl\cmsis/include/cmsis_gcc.h **** #define __CMSIS_GCC_H
  27:Generated_Source\PSoC6\pdl\cmsis/include/cmsis_gcc.h **** 
  28:Generated_Source\PSoC6\pdl\cmsis/include/cmsis_gcc.h **** /* ignore some GCC warnings */
  29:Generated_Source\PSoC6\pdl\cmsis/include/cmsis_gcc.h **** #pragma GCC diagnostic push
  30:Generated_Source\PSoC6\pdl\cmsis/include/cmsis_gcc.h **** #pragma GCC diagnostic ignored "-Wsign-conversion"
  31:Generated_Source\PSoC6\pdl\cmsis/include/cmsis_gcc.h **** #pragma GCC diagnostic ignored "-Wconversion"
  32:Generated_Source\PSoC6\pdl\cmsis/include/cmsis_gcc.h **** #pragma GCC diagnostic ignored "-Wunused-parameter"
  33:Generated_Source\PSoC6\pdl\cmsis/include/cmsis_gcc.h **** 
  34:Generated_Source\PSoC6\pdl\cmsis/include/cmsis_gcc.h **** /* CMSIS compiler specific defines */
  35:Generated_Source\PSoC6\pdl\cmsis/include/cmsis_gcc.h **** #ifndef   __ASM
  36:Generated_Source\PSoC6\pdl\cmsis/include/cmsis_gcc.h ****   #define __ASM                     __asm
  37:Generated_Source\PSoC6\pdl\cmsis/include/cmsis_gcc.h **** #endif
  38:Generated_Source\PSoC6\pdl\cmsis/include/cmsis_gcc.h **** #ifndef   __INLINE
  39:Generated_Source\PSoC6\pdl\cmsis/include/cmsis_gcc.h ****   #define __INLINE                  inline
  40:Generated_Source\PSoC6\pdl\cmsis/include/cmsis_gcc.h **** #endif
  41:Generated_Source\PSoC6\pdl\cmsis/include/cmsis_gcc.h **** #ifndef   __STATIC_INLINE
  42:Generated_Source\PSoC6\pdl\cmsis/include/cmsis_gcc.h ****   #define __STATIC_INLINE           static inline
  43:Generated_Source\PSoC6\pdl\cmsis/include/cmsis_gcc.h **** #endif
  44:Generated_Source\PSoC6\pdl\cmsis/include/cmsis_gcc.h **** #ifndef   __NO_RETURN
  45:Generated_Source\PSoC6\pdl\cmsis/include/cmsis_gcc.h ****   #define __NO_RETURN               __attribute__((noreturn))
  46:Generated_Source\PSoC6\pdl\cmsis/include/cmsis_gcc.h **** #endif
  47:Generated_Source\PSoC6\pdl\cmsis/include/cmsis_gcc.h **** #ifndef   __USED
  48:Generated_Source\PSoC6\pdl\cmsis/include/cmsis_gcc.h ****   #define __USED                    __attribute__((used))
  49:Generated_Source\PSoC6\pdl\cmsis/include/cmsis_gcc.h **** #endif
  50:Generated_Source\PSoC6\pdl\cmsis/include/cmsis_gcc.h **** #ifndef   __WEAK
  51:Generated_Source\PSoC6\pdl\cmsis/include/cmsis_gcc.h ****   #define __WEAK                    __attribute__((weak))
  52:Generated_Source\PSoC6\pdl\cmsis/include/cmsis_gcc.h **** #endif
  53:Generated_Source\PSoC6\pdl\cmsis/include/cmsis_gcc.h **** #ifndef   __UNALIGNED_UINT32
  54:Generated_Source\PSoC6\pdl\cmsis/include/cmsis_gcc.h **** #pragma GCC diagnostic push
  55:Generated_Source\PSoC6\pdl\cmsis/include/cmsis_gcc.h **** #pragma GCC diagnostic ignored "-Wpacked"
  56:Generated_Source\PSoC6\pdl\cmsis/include/cmsis_gcc.h **** #pragma GCC diagnostic ignored "-Wattributes"
  57:Generated_Source\PSoC6\pdl\cmsis/include/cmsis_gcc.h ****   struct __attribute__((packed)) T_UINT32 { uint32_t v; };
  58:Generated_Source\PSoC6\pdl\cmsis/include/cmsis_gcc.h **** #pragma GCC diagnostic pop
  59:Generated_Source\PSoC6\pdl\cmsis/include/cmsis_gcc.h ****   #define __UNALIGNED_UINT32(x)     (((struct T_UINT32 *)(x))->v)
ARM GAS  C:\Users\cypress\AppData\Local\Temp\ccxRek6y.s 			page 3


  60:Generated_Source\PSoC6\pdl\cmsis/include/cmsis_gcc.h **** #endif
  61:Generated_Source\PSoC6\pdl\cmsis/include/cmsis_gcc.h **** #ifndef   __ALIGNED
  62:Generated_Source\PSoC6\pdl\cmsis/include/cmsis_gcc.h ****   #define __ALIGNED(x)              __attribute__((aligned(x)))
  63:Generated_Source\PSoC6\pdl\cmsis/include/cmsis_gcc.h **** #endif
  64:Generated_Source\PSoC6\pdl\cmsis/include/cmsis_gcc.h **** #ifndef   __PACKED
  65:Generated_Source\PSoC6\pdl\cmsis/include/cmsis_gcc.h ****   #define __PACKED                  __attribute__((packed, aligned(1)))
  66:Generated_Source\PSoC6\pdl\cmsis/include/cmsis_gcc.h **** #endif
  67:Generated_Source\PSoC6\pdl\cmsis/include/cmsis_gcc.h **** #ifndef   __PACKED_STRUCT
  68:Generated_Source\PSoC6\pdl\cmsis/include/cmsis_gcc.h ****   #define __PACKED_STRUCT           struct __attribute__((packed, aligned(1)))
  69:Generated_Source\PSoC6\pdl\cmsis/include/cmsis_gcc.h **** #endif
  70:Generated_Source\PSoC6\pdl\cmsis/include/cmsis_gcc.h **** 
  71:Generated_Source\PSoC6\pdl\cmsis/include/cmsis_gcc.h **** 
  72:Generated_Source\PSoC6\pdl\cmsis/include/cmsis_gcc.h **** /* ###########################  Core Function Access  ########################### */
  73:Generated_Source\PSoC6\pdl\cmsis/include/cmsis_gcc.h **** /** \ingroup  CMSIS_Core_FunctionInterface
  74:Generated_Source\PSoC6\pdl\cmsis/include/cmsis_gcc.h ****     \defgroup CMSIS_Core_RegAccFunctions CMSIS Core Register Access Functions
  75:Generated_Source\PSoC6\pdl\cmsis/include/cmsis_gcc.h ****   @{
  76:Generated_Source\PSoC6\pdl\cmsis/include/cmsis_gcc.h ****  */
  77:Generated_Source\PSoC6\pdl\cmsis/include/cmsis_gcc.h **** 
  78:Generated_Source\PSoC6\pdl\cmsis/include/cmsis_gcc.h **** /**
  79:Generated_Source\PSoC6\pdl\cmsis/include/cmsis_gcc.h ****   \brief   Enable IRQ Interrupts
  80:Generated_Source\PSoC6\pdl\cmsis/include/cmsis_gcc.h ****   \details Enables IRQ interrupts by clearing the I-bit in the CPSR.
  81:Generated_Source\PSoC6\pdl\cmsis/include/cmsis_gcc.h ****            Can only be executed in Privileged modes.
  82:Generated_Source\PSoC6\pdl\cmsis/include/cmsis_gcc.h ****  */
  83:Generated_Source\PSoC6\pdl\cmsis/include/cmsis_gcc.h **** __attribute__((always_inline)) __STATIC_INLINE void __enable_irq(void)
  84:Generated_Source\PSoC6\pdl\cmsis/include/cmsis_gcc.h **** {
  85:Generated_Source\PSoC6\pdl\cmsis/include/cmsis_gcc.h ****   __ASM volatile ("cpsie i" : : : "memory");
  41              		.loc 2 85 0
  42              		.syntax unified
  43              	@ 85 "Generated_Source\PSoC6\pdl\cmsis/include/cmsis_gcc.h" 1
  44 0002 62B6     		cpsie i
  45              	@ 0 "" 2
  46              		.thumb
  47              		.syntax unified
  48              	.LBE41:
  49              	.LBE40:
  16:main_cm4.c    ****     __enable_irq(); /* Enable global interrupts. */
  17:main_cm4.c    **** 
  18:main_cm4.c    ****     /* Place your initialization/startup code here (e.g. MyInst_Start()) */
  19:main_cm4.c    ****     Cy_TCPWM_PWM_Init(PWM_1_HW, PWM_1_CNT_NUM, &PWM_1_config);
  50              		.loc 1 19 0
  51 0004 254C     		ldr	r4, .L4
  52 0006 264A     		ldr	r2, .L4+4
  53 0008 0221     		movs	r1, #2
  54 000a 2046     		mov	r0, r4
  55 000c FFF7FEFF 		bl	Cy_TCPWM_PWM_Init
  56              	.LVL0:
  57              	.LBB42:
  58              	.LBB43:
  59              		.file 3 "Generated_Source\\PSoC6\\pdl\\drivers/peripheral/tcpwm/cy_tcpwm_pwm.h"
   1:Generated_Source\PSoC6\pdl\drivers/peripheral/tcpwm/cy_tcpwm_pwm.h **** /***************************************************************************//**
   2:Generated_Source\PSoC6\pdl\drivers/peripheral/tcpwm/cy_tcpwm_pwm.h **** * \file cy_tcpwm_pwm.h
   3:Generated_Source\PSoC6\pdl\drivers/peripheral/tcpwm/cy_tcpwm_pwm.h **** * \version 1.0.1
   4:Generated_Source\PSoC6\pdl\drivers/peripheral/tcpwm/cy_tcpwm_pwm.h **** *
   5:Generated_Source\PSoC6\pdl\drivers/peripheral/tcpwm/cy_tcpwm_pwm.h **** * \brief
   6:Generated_Source\PSoC6\pdl\drivers/peripheral/tcpwm/cy_tcpwm_pwm.h **** * The header file of the TCPWM PWM driver.
   7:Generated_Source\PSoC6\pdl\drivers/peripheral/tcpwm/cy_tcpwm_pwm.h **** *
   8:Generated_Source\PSoC6\pdl\drivers/peripheral/tcpwm/cy_tcpwm_pwm.h **** ********************************************************************************
ARM GAS  C:\Users\cypress\AppData\Local\Temp\ccxRek6y.s 			page 4


   9:Generated_Source\PSoC6\pdl\drivers/peripheral/tcpwm/cy_tcpwm_pwm.h **** * \copyright
  10:Generated_Source\PSoC6\pdl\drivers/peripheral/tcpwm/cy_tcpwm_pwm.h **** * Copyright 2016-2018, Cypress Semiconductor Corporation. All rights reserved.
  11:Generated_Source\PSoC6\pdl\drivers/peripheral/tcpwm/cy_tcpwm_pwm.h **** * You may use this file only in accordance with the license, terms, conditions,
  12:Generated_Source\PSoC6\pdl\drivers/peripheral/tcpwm/cy_tcpwm_pwm.h **** * disclaimers, and limitations in the end user license agreement accompanying
  13:Generated_Source\PSoC6\pdl\drivers/peripheral/tcpwm/cy_tcpwm_pwm.h **** * the software package with which this file was provided.
  14:Generated_Source\PSoC6\pdl\drivers/peripheral/tcpwm/cy_tcpwm_pwm.h **** *******************************************************************************/
  15:Generated_Source\PSoC6\pdl\drivers/peripheral/tcpwm/cy_tcpwm_pwm.h **** 
  16:Generated_Source\PSoC6\pdl\drivers/peripheral/tcpwm/cy_tcpwm_pwm.h **** #if !defined(CY_TCPWM_PWM_H)
  17:Generated_Source\PSoC6\pdl\drivers/peripheral/tcpwm/cy_tcpwm_pwm.h **** #define CY_TCPWM_PWM_H
  18:Generated_Source\PSoC6\pdl\drivers/peripheral/tcpwm/cy_tcpwm_pwm.h **** 
  19:Generated_Source\PSoC6\pdl\drivers/peripheral/tcpwm/cy_tcpwm_pwm.h **** #include "cy_tcpwm.h"
  20:Generated_Source\PSoC6\pdl\drivers/peripheral/tcpwm/cy_tcpwm_pwm.h **** 
  21:Generated_Source\PSoC6\pdl\drivers/peripheral/tcpwm/cy_tcpwm_pwm.h **** #if defined(__cplusplus)
  22:Generated_Source\PSoC6\pdl\drivers/peripheral/tcpwm/cy_tcpwm_pwm.h **** extern "C" {
  23:Generated_Source\PSoC6\pdl\drivers/peripheral/tcpwm/cy_tcpwm_pwm.h **** #endif
  24:Generated_Source\PSoC6\pdl\drivers/peripheral/tcpwm/cy_tcpwm_pwm.h **** 
  25:Generated_Source\PSoC6\pdl\drivers/peripheral/tcpwm/cy_tcpwm_pwm.h **** /**
  26:Generated_Source\PSoC6\pdl\drivers/peripheral/tcpwm/cy_tcpwm_pwm.h **** * \addtogroup group_tcpwm_pwm
  27:Generated_Source\PSoC6\pdl\drivers/peripheral/tcpwm/cy_tcpwm_pwm.h **** * Driver API for PWM.
  28:Generated_Source\PSoC6\pdl\drivers/peripheral/tcpwm/cy_tcpwm_pwm.h **** * \{
  29:Generated_Source\PSoC6\pdl\drivers/peripheral/tcpwm/cy_tcpwm_pwm.h **** */
  30:Generated_Source\PSoC6\pdl\drivers/peripheral/tcpwm/cy_tcpwm_pwm.h **** 
  31:Generated_Source\PSoC6\pdl\drivers/peripheral/tcpwm/cy_tcpwm_pwm.h **** /**
  32:Generated_Source\PSoC6\pdl\drivers/peripheral/tcpwm/cy_tcpwm_pwm.h **** * \defgroup group_tcpwm_macros_pwm          Macros
  33:Generated_Source\PSoC6\pdl\drivers/peripheral/tcpwm/cy_tcpwm_pwm.h **** * \defgroup group_tcpwm_functions_pwm       Functions
  34:Generated_Source\PSoC6\pdl\drivers/peripheral/tcpwm/cy_tcpwm_pwm.h **** * \defgroup group_tcpwm_data_structures_pwm Data Structures
  35:Generated_Source\PSoC6\pdl\drivers/peripheral/tcpwm/cy_tcpwm_pwm.h **** * \} */
  36:Generated_Source\PSoC6\pdl\drivers/peripheral/tcpwm/cy_tcpwm_pwm.h **** 
  37:Generated_Source\PSoC6\pdl\drivers/peripheral/tcpwm/cy_tcpwm_pwm.h **** /**
  38:Generated_Source\PSoC6\pdl\drivers/peripheral/tcpwm/cy_tcpwm_pwm.h **** * \addtogroup group_tcpwm_data_structures_pwm
  39:Generated_Source\PSoC6\pdl\drivers/peripheral/tcpwm/cy_tcpwm_pwm.h **** * \{
  40:Generated_Source\PSoC6\pdl\drivers/peripheral/tcpwm/cy_tcpwm_pwm.h **** */
  41:Generated_Source\PSoC6\pdl\drivers/peripheral/tcpwm/cy_tcpwm_pwm.h **** 
  42:Generated_Source\PSoC6\pdl\drivers/peripheral/tcpwm/cy_tcpwm_pwm.h **** /** PWM configuration structure */
  43:Generated_Source\PSoC6\pdl\drivers/peripheral/tcpwm/cy_tcpwm_pwm.h **** typedef struct cy_stc_tcpwm_pwm_config
  44:Generated_Source\PSoC6\pdl\drivers/peripheral/tcpwm/cy_tcpwm_pwm.h **** {
  45:Generated_Source\PSoC6\pdl\drivers/peripheral/tcpwm/cy_tcpwm_pwm.h ****     uint32_t    pwmMode;            /**< Sets the PWM mode. See \ref group_tcpwm_pwm_modes */
  46:Generated_Source\PSoC6\pdl\drivers/peripheral/tcpwm/cy_tcpwm_pwm.h ****     /** Sets the clock prescaler inside the TCWPM block. See \ref group_tcpwm_pwm_clk_prescalers */
  47:Generated_Source\PSoC6\pdl\drivers/peripheral/tcpwm/cy_tcpwm_pwm.h ****     uint32_t     clockPrescaler;
  48:Generated_Source\PSoC6\pdl\drivers/peripheral/tcpwm/cy_tcpwm_pwm.h ****     uint32_t    pwmAlignment;       /**< Sets the PWM alignment. See \ref group_tcpwm_pwm_alignment
  49:Generated_Source\PSoC6\pdl\drivers/peripheral/tcpwm/cy_tcpwm_pwm.h ****     uint32_t    deadTimeClocks;     /**< The number of dead time-clocks if PWM with dead time is ch
  50:Generated_Source\PSoC6\pdl\drivers/peripheral/tcpwm/cy_tcpwm_pwm.h ****     uint32_t    runMode;            /**< Sets the PWM run mode. See \ref group_tcpwm_pwm_run_modes 
  51:Generated_Source\PSoC6\pdl\drivers/peripheral/tcpwm/cy_tcpwm_pwm.h ****     uint32_t    period0;            /**< Sets the period0 of the pwm */
  52:Generated_Source\PSoC6\pdl\drivers/peripheral/tcpwm/cy_tcpwm_pwm.h ****     uint32_t    period1;            /**< Sets the period1 of the pwm */
  53:Generated_Source\PSoC6\pdl\drivers/peripheral/tcpwm/cy_tcpwm_pwm.h ****     bool        enablePeriodSwap;   /**< Enables swapping of period 0 and period 1 on terminal coun
  54:Generated_Source\PSoC6\pdl\drivers/peripheral/tcpwm/cy_tcpwm_pwm.h ****     uint32_t    compare0;           /**< Sets the value for Compare0 */
  55:Generated_Source\PSoC6\pdl\drivers/peripheral/tcpwm/cy_tcpwm_pwm.h ****     uint32_t    compare1;           /**< Sets the value for Compare1 */
  56:Generated_Source\PSoC6\pdl\drivers/peripheral/tcpwm/cy_tcpwm_pwm.h ****     bool        enableCompareSwap;  /**< If enabled, the compare values are swapped on the terminal
  57:Generated_Source\PSoC6\pdl\drivers/peripheral/tcpwm/cy_tcpwm_pwm.h ****     /** Enables an interrupt on the terminal count, capture or compare. See \ref group_tcpwm_interr
  58:Generated_Source\PSoC6\pdl\drivers/peripheral/tcpwm/cy_tcpwm_pwm.h ****     uint32_t    interruptSources;
  59:Generated_Source\PSoC6\pdl\drivers/peripheral/tcpwm/cy_tcpwm_pwm.h ****     uint32_t    invertPWMOut;       /**< Inverts the PWM output */
  60:Generated_Source\PSoC6\pdl\drivers/peripheral/tcpwm/cy_tcpwm_pwm.h ****     uint32_t    invertPWMOutN;      /**< Inverts the PWM_n output */
  61:Generated_Source\PSoC6\pdl\drivers/peripheral/tcpwm/cy_tcpwm_pwm.h ****     uint32_t    killMode;           /**< Configures the PWM kill modes. See \ref group_tcpwm_pwm_ki
  62:Generated_Source\PSoC6\pdl\drivers/peripheral/tcpwm/cy_tcpwm_pwm.h ****     uint32_t    swapInputMode;      /**< Configures how the swap input behaves. See \ref group_tcpw
  63:Generated_Source\PSoC6\pdl\drivers/peripheral/tcpwm/cy_tcpwm_pwm.h ****     /** Selects which input the swap uses. Inputs are device-specific. See \ref group_tcpwm_input_s
  64:Generated_Source\PSoC6\pdl\drivers/peripheral/tcpwm/cy_tcpwm_pwm.h ****     uint32_t    swapInput;
  65:Generated_Source\PSoC6\pdl\drivers/peripheral/tcpwm/cy_tcpwm_pwm.h ****     uint32_t    reloadInputMode;    /**< Configures how the reload input behaves. See \ref group_tc
ARM GAS  C:\Users\cypress\AppData\Local\Temp\ccxRek6y.s 			page 5


  66:Generated_Source\PSoC6\pdl\drivers/peripheral/tcpwm/cy_tcpwm_pwm.h ****     /** Selects which input the reload uses. The inputs are device-specific. See \ref group_tcpwm_i
  67:Generated_Source\PSoC6\pdl\drivers/peripheral/tcpwm/cy_tcpwm_pwm.h ****     uint32_t    reloadInput;            
  68:Generated_Source\PSoC6\pdl\drivers/peripheral/tcpwm/cy_tcpwm_pwm.h ****     uint32_t    startInputMode;     /**< Configures how the start input behaves. See \ref group_tcp
  69:Generated_Source\PSoC6\pdl\drivers/peripheral/tcpwm/cy_tcpwm_pwm.h ****     /** Selects which input the start uses. The inputs are device-specific. See \ref group_tcpwm_in
  70:Generated_Source\PSoC6\pdl\drivers/peripheral/tcpwm/cy_tcpwm_pwm.h ****     uint32_t    startInput;                
  71:Generated_Source\PSoC6\pdl\drivers/peripheral/tcpwm/cy_tcpwm_pwm.h ****     uint32_t    killInputMode;      /**< Configures how the kill input behaves. See \ref group_tcpw
  72:Generated_Source\PSoC6\pdl\drivers/peripheral/tcpwm/cy_tcpwm_pwm.h ****     /** Selects which input the kill uses. The inputs are device-specific. See \ref group_tcpwm_inp
  73:Generated_Source\PSoC6\pdl\drivers/peripheral/tcpwm/cy_tcpwm_pwm.h ****     uint32_t    killInput;
  74:Generated_Source\PSoC6\pdl\drivers/peripheral/tcpwm/cy_tcpwm_pwm.h ****     uint32_t    countInputMode;     /**< Configures how the count input behaves. See \ref group_tcp
  75:Generated_Source\PSoC6\pdl\drivers/peripheral/tcpwm/cy_tcpwm_pwm.h ****     /** Selects which input the count uses. The inputs are device-specific. See \ref group_tcpwm_in
  76:Generated_Source\PSoC6\pdl\drivers/peripheral/tcpwm/cy_tcpwm_pwm.h ****     uint32_t    countInput;
  77:Generated_Source\PSoC6\pdl\drivers/peripheral/tcpwm/cy_tcpwm_pwm.h **** }cy_stc_tcpwm_pwm_config_t;
  78:Generated_Source\PSoC6\pdl\drivers/peripheral/tcpwm/cy_tcpwm_pwm.h **** /** \} group_tcpwm_data_structures_pwm */
  79:Generated_Source\PSoC6\pdl\drivers/peripheral/tcpwm/cy_tcpwm_pwm.h **** 
  80:Generated_Source\PSoC6\pdl\drivers/peripheral/tcpwm/cy_tcpwm_pwm.h **** /**
  81:Generated_Source\PSoC6\pdl\drivers/peripheral/tcpwm/cy_tcpwm_pwm.h **** * \addtogroup group_tcpwm_macros_pwm
  82:Generated_Source\PSoC6\pdl\drivers/peripheral/tcpwm/cy_tcpwm_pwm.h **** * \{
  83:Generated_Source\PSoC6\pdl\drivers/peripheral/tcpwm/cy_tcpwm_pwm.h **** * \defgroup group_tcpwm_pwm_run_modes PWM run modes
  84:Generated_Source\PSoC6\pdl\drivers/peripheral/tcpwm/cy_tcpwm_pwm.h **** * \{
  85:Generated_Source\PSoC6\pdl\drivers/peripheral/tcpwm/cy_tcpwm_pwm.h **** * Run modes for the pwm timer.
  86:Generated_Source\PSoC6\pdl\drivers/peripheral/tcpwm/cy_tcpwm_pwm.h **** */
  87:Generated_Source\PSoC6\pdl\drivers/peripheral/tcpwm/cy_tcpwm_pwm.h **** #define CY_TCPWM_PWM_ONESHOT            (1U)    /**< Counter runs once and then stops */
  88:Generated_Source\PSoC6\pdl\drivers/peripheral/tcpwm/cy_tcpwm_pwm.h **** #define CY_TCPWM_PWM_CONTINUOUS         (0U)    /**< Counter runs forever */
  89:Generated_Source\PSoC6\pdl\drivers/peripheral/tcpwm/cy_tcpwm_pwm.h **** /** \} group_tcpwm_pwm_run_modes */
  90:Generated_Source\PSoC6\pdl\drivers/peripheral/tcpwm/cy_tcpwm_pwm.h **** 
  91:Generated_Source\PSoC6\pdl\drivers/peripheral/tcpwm/cy_tcpwm_pwm.h **** /** \defgroup group_tcpwm_pwm_modes PWM modes 
  92:Generated_Source\PSoC6\pdl\drivers/peripheral/tcpwm/cy_tcpwm_pwm.h **** * \{
  93:Generated_Source\PSoC6\pdl\drivers/peripheral/tcpwm/cy_tcpwm_pwm.h **** * Sets the PWM modes.
  94:Generated_Source\PSoC6\pdl\drivers/peripheral/tcpwm/cy_tcpwm_pwm.h **** */
  95:Generated_Source\PSoC6\pdl\drivers/peripheral/tcpwm/cy_tcpwm_pwm.h **** #define CY_TCPWM_PWM_MODE_PWM           (4U) /**< Standard PWM Mode*/
  96:Generated_Source\PSoC6\pdl\drivers/peripheral/tcpwm/cy_tcpwm_pwm.h **** #define CY_TCPWM_PWM_MODE_DEADTIME      (5U)    /**< PWM with deadtime mode*/
  97:Generated_Source\PSoC6\pdl\drivers/peripheral/tcpwm/cy_tcpwm_pwm.h **** #define CY_TCPWM_PWM_MODE_PSEUDORANDOM  (6U)    /**< Pseudo Random PWM */
  98:Generated_Source\PSoC6\pdl\drivers/peripheral/tcpwm/cy_tcpwm_pwm.h **** /** \} group_tcpwm_pwm_modes */
  99:Generated_Source\PSoC6\pdl\drivers/peripheral/tcpwm/cy_tcpwm_pwm.h **** 
 100:Generated_Source\PSoC6\pdl\drivers/peripheral/tcpwm/cy_tcpwm_pwm.h **** /** \defgroup group_tcpwm_pwm_alignment PWM Alignment
 101:Generated_Source\PSoC6\pdl\drivers/peripheral/tcpwm/cy_tcpwm_pwm.h **** * Sets the alignment of the PWM.
 102:Generated_Source\PSoC6\pdl\drivers/peripheral/tcpwm/cy_tcpwm_pwm.h **** * \{
 103:Generated_Source\PSoC6\pdl\drivers/peripheral/tcpwm/cy_tcpwm_pwm.h **** */
 104:Generated_Source\PSoC6\pdl\drivers/peripheral/tcpwm/cy_tcpwm_pwm.h **** #define CY_TCPWM_PWM_LEFT_ALIGN         (0U)     /**< PWM is left aligned, meaning it starts high *
 105:Generated_Source\PSoC6\pdl\drivers/peripheral/tcpwm/cy_tcpwm_pwm.h **** #define CY_TCPWM_PWM_RIGHT_ALIGN        (1U)        /**< PWM is right aligned, meaning it starts lo
 106:Generated_Source\PSoC6\pdl\drivers/peripheral/tcpwm/cy_tcpwm_pwm.h **** /** PWM is centered aligned, terminal count only occurs on underflow */
 107:Generated_Source\PSoC6\pdl\drivers/peripheral/tcpwm/cy_tcpwm_pwm.h **** #define CY_TCPWM_PWM_CENTER_ALIGN       (2U)
 108:Generated_Source\PSoC6\pdl\drivers/peripheral/tcpwm/cy_tcpwm_pwm.h **** /** PWM is asymmetrically aligned, terminal count occurs on overflow and underflow */
 109:Generated_Source\PSoC6\pdl\drivers/peripheral/tcpwm/cy_tcpwm_pwm.h **** #define CY_TCPWM_PWM_ASYMMETRIC_ALIGN   (3U)
 110:Generated_Source\PSoC6\pdl\drivers/peripheral/tcpwm/cy_tcpwm_pwm.h **** /** \} group_tcpwm_pwm_alignment */
 111:Generated_Source\PSoC6\pdl\drivers/peripheral/tcpwm/cy_tcpwm_pwm.h **** 
 112:Generated_Source\PSoC6\pdl\drivers/peripheral/tcpwm/cy_tcpwm_pwm.h **** /** \defgroup group_tcpwm_pwm_kill_modes PWM kill modes
 113:Generated_Source\PSoC6\pdl\drivers/peripheral/tcpwm/cy_tcpwm_pwm.h **** * Sets the kill mode for the PWM.
 114:Generated_Source\PSoC6\pdl\drivers/peripheral/tcpwm/cy_tcpwm_pwm.h **** * \{
 115:Generated_Source\PSoC6\pdl\drivers/peripheral/tcpwm/cy_tcpwm_pwm.h **** */
 116:Generated_Source\PSoC6\pdl\drivers/peripheral/tcpwm/cy_tcpwm_pwm.h **** #define CY_TCPWM_PWM_STOP_ON_KILL       (2U)    /**< PWM stops counting on kill */
 117:Generated_Source\PSoC6\pdl\drivers/peripheral/tcpwm/cy_tcpwm_pwm.h **** #define CY_TCPWM_PWM_SYNCH_KILL         (1U)    /**< PWM output is killed after next TC*/
 118:Generated_Source\PSoC6\pdl\drivers/peripheral/tcpwm/cy_tcpwm_pwm.h **** #define CY_TCPWM_PWM_ASYNC_KILL         (0U)    /**< PWM output is killed instantly */
 119:Generated_Source\PSoC6\pdl\drivers/peripheral/tcpwm/cy_tcpwm_pwm.h **** /** \} group_tcpwm_pwm_kill_modes */
 120:Generated_Source\PSoC6\pdl\drivers/peripheral/tcpwm/cy_tcpwm_pwm.h **** 
 121:Generated_Source\PSoC6\pdl\drivers/peripheral/tcpwm/cy_tcpwm_pwm.h **** /** \defgroup group_tcpwm_pwm_clk_prescalers PWM CLK Prescaler values
 122:Generated_Source\PSoC6\pdl\drivers/peripheral/tcpwm/cy_tcpwm_pwm.h **** * \{
ARM GAS  C:\Users\cypress\AppData\Local\Temp\ccxRek6y.s 			page 6


 123:Generated_Source\PSoC6\pdl\drivers/peripheral/tcpwm/cy_tcpwm_pwm.h **** * Clock prescaler values.
 124:Generated_Source\PSoC6\pdl\drivers/peripheral/tcpwm/cy_tcpwm_pwm.h **** */
 125:Generated_Source\PSoC6\pdl\drivers/peripheral/tcpwm/cy_tcpwm_pwm.h **** #define CY_TCPWM_PWM_PRESCALER_DIVBY_1      (0U) /**< Divide by 1 */
 126:Generated_Source\PSoC6\pdl\drivers/peripheral/tcpwm/cy_tcpwm_pwm.h **** #define CY_TCPWM_PWM_PRESCALER_DIVBY_2      (1U) /**< Divide by 2 */
 127:Generated_Source\PSoC6\pdl\drivers/peripheral/tcpwm/cy_tcpwm_pwm.h **** #define CY_TCPWM_PWM_PRESCALER_DIVBY_4      (2U) /**< Divide by 4 */
 128:Generated_Source\PSoC6\pdl\drivers/peripheral/tcpwm/cy_tcpwm_pwm.h **** #define CY_TCPWM_PWM_PRESCALER_DIVBY_8      (3U) /**< Divide by 8 */
 129:Generated_Source\PSoC6\pdl\drivers/peripheral/tcpwm/cy_tcpwm_pwm.h **** #define CY_TCPWM_PWM_PRESCALER_DIVBY_16     (4U) /**< Divide by 16 */
 130:Generated_Source\PSoC6\pdl\drivers/peripheral/tcpwm/cy_tcpwm_pwm.h **** #define CY_TCPWM_PWM_PRESCALER_DIVBY_32     (5U) /**< Divide by 32 */
 131:Generated_Source\PSoC6\pdl\drivers/peripheral/tcpwm/cy_tcpwm_pwm.h **** #define CY_TCPWM_PWM_PRESCALER_DIVBY_64     (6U) /**< Divide by 64 */
 132:Generated_Source\PSoC6\pdl\drivers/peripheral/tcpwm/cy_tcpwm_pwm.h **** #define CY_TCPWM_PWM_PRESCALER_DIVBY_128    (7U) /**< Divide by 128 */
 133:Generated_Source\PSoC6\pdl\drivers/peripheral/tcpwm/cy_tcpwm_pwm.h **** /** \} group_tcpwm_pwm_clk_prescalers */
 134:Generated_Source\PSoC6\pdl\drivers/peripheral/tcpwm/cy_tcpwm_pwm.h **** 
 135:Generated_Source\PSoC6\pdl\drivers/peripheral/tcpwm/cy_tcpwm_pwm.h **** /** \defgroup group_tcpwm_pwm_output_invert PWM output invert
 136:Generated_Source\PSoC6\pdl\drivers/peripheral/tcpwm/cy_tcpwm_pwm.h **** * \{
 137:Generated_Source\PSoC6\pdl\drivers/peripheral/tcpwm/cy_tcpwm_pwm.h **** * Output invert modes.
 138:Generated_Source\PSoC6\pdl\drivers/peripheral/tcpwm/cy_tcpwm_pwm.h **** */
 139:Generated_Source\PSoC6\pdl\drivers/peripheral/tcpwm/cy_tcpwm_pwm.h **** #define CY_TCPWM_PWM_INVERT_ENABLE          (1U)  /**< Invert the output mode */
 140:Generated_Source\PSoC6\pdl\drivers/peripheral/tcpwm/cy_tcpwm_pwm.h **** #define CY_TCPWM_PWM_INVERT_DISABLE         (0U)  /**< Do not invert the output mode */
 141:Generated_Source\PSoC6\pdl\drivers/peripheral/tcpwm/cy_tcpwm_pwm.h **** /** \} group_tcpwm_pwm_output_invert */
 142:Generated_Source\PSoC6\pdl\drivers/peripheral/tcpwm/cy_tcpwm_pwm.h **** 
 143:Generated_Source\PSoC6\pdl\drivers/peripheral/tcpwm/cy_tcpwm_pwm.h **** /** \defgroup group_tcpwm_pwm_status PWM Status
 144:Generated_Source\PSoC6\pdl\drivers/peripheral/tcpwm/cy_tcpwm_pwm.h **** * \{
 145:Generated_Source\PSoC6\pdl\drivers/peripheral/tcpwm/cy_tcpwm_pwm.h **** * The counter status.
 146:Generated_Source\PSoC6\pdl\drivers/peripheral/tcpwm/cy_tcpwm_pwm.h **** */
 147:Generated_Source\PSoC6\pdl\drivers/peripheral/tcpwm/cy_tcpwm_pwm.h **** #define CY_TCPWM_PWM_STATUS_DOWN_COUNTING   (0x1UL)        /**< PWM is down counting */
 148:Generated_Source\PSoC6\pdl\drivers/peripheral/tcpwm/cy_tcpwm_pwm.h **** #define CY_TCPWM_PWM_STATUS_UP_COUNTING     (0x2UL)        /**< PWM is up counting */
 149:Generated_Source\PSoC6\pdl\drivers/peripheral/tcpwm/cy_tcpwm_pwm.h **** #define CY_TCPWM_PWM_STATUS_COUNTER_RUNNING (TCPWM_CNT_STATUS_RUNNING_Msk)     /**< PWM counter is 
 150:Generated_Source\PSoC6\pdl\drivers/peripheral/tcpwm/cy_tcpwm_pwm.h **** /** \} group_tcpwm_pwm_status */
 151:Generated_Source\PSoC6\pdl\drivers/peripheral/tcpwm/cy_tcpwm_pwm.h **** 
 152:Generated_Source\PSoC6\pdl\drivers/peripheral/tcpwm/cy_tcpwm_pwm.h **** 
 153:Generated_Source\PSoC6\pdl\drivers/peripheral/tcpwm/cy_tcpwm_pwm.h **** /***************************************
 154:Generated_Source\PSoC6\pdl\drivers/peripheral/tcpwm/cy_tcpwm_pwm.h **** *        Registers Constants
 155:Generated_Source\PSoC6\pdl\drivers/peripheral/tcpwm/cy_tcpwm_pwm.h **** ***************************************/
 156:Generated_Source\PSoC6\pdl\drivers/peripheral/tcpwm/cy_tcpwm_pwm.h **** 
 157:Generated_Source\PSoC6\pdl\drivers/peripheral/tcpwm/cy_tcpwm_pwm.h **** /** \cond INTERNAL */
 158:Generated_Source\PSoC6\pdl\drivers/peripheral/tcpwm/cy_tcpwm_pwm.h **** #define CY_TCPWM_PWM_CTRL_SYNC_KILL_OR_STOP_ON_KILL_POS  (2U)
 159:Generated_Source\PSoC6\pdl\drivers/peripheral/tcpwm/cy_tcpwm_pwm.h **** #define CY_TCPWM_PWM_CTRL_SYNC_KILL_OR_STOP_ON_KILL_MASK (0x3UL << CY_TCPWM_PWM_CTRL_SYNC_KILL_OR_S
 160:Generated_Source\PSoC6\pdl\drivers/peripheral/tcpwm/cy_tcpwm_pwm.h **** /** \endcond */
 161:Generated_Source\PSoC6\pdl\drivers/peripheral/tcpwm/cy_tcpwm_pwm.h **** 
 162:Generated_Source\PSoC6\pdl\drivers/peripheral/tcpwm/cy_tcpwm_pwm.h **** /** \defgroup group_tcpwm_pwm_output_configuration PWM output signal configuration
 163:Generated_Source\PSoC6\pdl\drivers/peripheral/tcpwm/cy_tcpwm_pwm.h **** * \{
 164:Generated_Source\PSoC6\pdl\drivers/peripheral/tcpwm/cy_tcpwm_pwm.h **** * The configuration of PWM output signal for PWM alignment.
 165:Generated_Source\PSoC6\pdl\drivers/peripheral/tcpwm/cy_tcpwm_pwm.h **** */
 166:Generated_Source\PSoC6\pdl\drivers/peripheral/tcpwm/cy_tcpwm_pwm.h **** #define CY_TCPWM_PWM_TR_CTRL2_SET           (0UL) /**< Set define for PWM output signal configurati
 167:Generated_Source\PSoC6\pdl\drivers/peripheral/tcpwm/cy_tcpwm_pwm.h **** #define CY_TCPWM_PWM_TR_CTRL2_CLEAR         (1UL) /**< Clear define for PWM output signal configura
 168:Generated_Source\PSoC6\pdl\drivers/peripheral/tcpwm/cy_tcpwm_pwm.h **** #define CY_TCPWM_PWM_TR_CTRL2_INVERT        (2UL) /**< Invert define for PWM output signal configur
 169:Generated_Source\PSoC6\pdl\drivers/peripheral/tcpwm/cy_tcpwm_pwm.h **** #define CY_TCPWM_PWM_TR_CTRL2_NO_CHANGE     (3UL) /**< No change define for PWM output signal confi
 170:Generated_Source\PSoC6\pdl\drivers/peripheral/tcpwm/cy_tcpwm_pwm.h **** 
 171:Generated_Source\PSoC6\pdl\drivers/peripheral/tcpwm/cy_tcpwm_pwm.h **** /** The configuration of PWM output signal in Pseudo Random Mode */
 172:Generated_Source\PSoC6\pdl\drivers/peripheral/tcpwm/cy_tcpwm_pwm.h **** #define CY_TCPWM_PWM_MODE_PR         (_VAL2FLD(TCPWM_CNT_TR_CTRL2_CC_MATCH_MODE, CY_TCPWM_PWM_TR_CT
 173:Generated_Source\PSoC6\pdl\drivers/peripheral/tcpwm/cy_tcpwm_pwm.h ****                                       _VAL2FLD(TCPWM_CNT_TR_CTRL2_OVERFLOW_MODE, CY_TCPWM_PWM_TR_CT
 174:Generated_Source\PSoC6\pdl\drivers/peripheral/tcpwm/cy_tcpwm_pwm.h ****                                       _VAL2FLD(TCPWM_CNT_TR_CTRL2_UNDERFLOW_MODE, CY_TCPWM_PWM_TR_C
 175:Generated_Source\PSoC6\pdl\drivers/peripheral/tcpwm/cy_tcpwm_pwm.h **** 
 176:Generated_Source\PSoC6\pdl\drivers/peripheral/tcpwm/cy_tcpwm_pwm.h **** /** The configuration of PWM output signal for Left alignment */
 177:Generated_Source\PSoC6\pdl\drivers/peripheral/tcpwm/cy_tcpwm_pwm.h **** #define CY_TCPWM_PWM_MODE_LEFT       (_VAL2FLD(TCPWM_CNT_TR_CTRL2_CC_MATCH_MODE, CY_TCPWM_PWM_TR_CT
 178:Generated_Source\PSoC6\pdl\drivers/peripheral/tcpwm/cy_tcpwm_pwm.h ****                                       _VAL2FLD(TCPWM_CNT_TR_CTRL2_OVERFLOW_MODE, CY_TCPWM_PWM_TR_CT
 179:Generated_Source\PSoC6\pdl\drivers/peripheral/tcpwm/cy_tcpwm_pwm.h ****                                       _VAL2FLD(TCPWM_CNT_TR_CTRL2_UNDERFLOW_MODE, CY_TCPWM_PWM_TR_C
ARM GAS  C:\Users\cypress\AppData\Local\Temp\ccxRek6y.s 			page 7


 180:Generated_Source\PSoC6\pdl\drivers/peripheral/tcpwm/cy_tcpwm_pwm.h **** 
 181:Generated_Source\PSoC6\pdl\drivers/peripheral/tcpwm/cy_tcpwm_pwm.h **** /** The configuration of PWM output signal for Right alignment */
 182:Generated_Source\PSoC6\pdl\drivers/peripheral/tcpwm/cy_tcpwm_pwm.h **** #define CY_TCPWM_PWM_MODE_RIGHT      (_VAL2FLD(TCPWM_CNT_TR_CTRL2_CC_MATCH_MODE, CY_TCPWM_PWM_TR_CT
 183:Generated_Source\PSoC6\pdl\drivers/peripheral/tcpwm/cy_tcpwm_pwm.h ****                                       _VAL2FLD(TCPWM_CNT_TR_CTRL2_OVERFLOW_MODE, CY_TCPWM_PWM_TR_CT
 184:Generated_Source\PSoC6\pdl\drivers/peripheral/tcpwm/cy_tcpwm_pwm.h ****                                       _VAL2FLD(TCPWM_CNT_TR_CTRL2_UNDERFLOW_MODE, CY_TCPWM_PWM_TR_C
 185:Generated_Source\PSoC6\pdl\drivers/peripheral/tcpwm/cy_tcpwm_pwm.h **** 
 186:Generated_Source\PSoC6\pdl\drivers/peripheral/tcpwm/cy_tcpwm_pwm.h **** /** The configuration of PWM output signal for Center and Asymmetric alignment */
 187:Generated_Source\PSoC6\pdl\drivers/peripheral/tcpwm/cy_tcpwm_pwm.h **** #define CY_TCPWM_PWM_MODE_CNTR_OR_ASYMM (_VAL2FLD(TCPWM_CNT_TR_CTRL2_CC_MATCH_MODE, CY_TCPWM_PWM_TR
 188:Generated_Source\PSoC6\pdl\drivers/peripheral/tcpwm/cy_tcpwm_pwm.h ****                                          _VAL2FLD(TCPWM_CNT_TR_CTRL2_OVERFLOW_MODE, CY_TCPWM_PWM_TR
 189:Generated_Source\PSoC6\pdl\drivers/peripheral/tcpwm/cy_tcpwm_pwm.h ****                                          _VAL2FLD(TCPWM_CNT_TR_CTRL2_UNDERFLOW_MODE, CY_TCPWM_PWM_T
 190:Generated_Source\PSoC6\pdl\drivers/peripheral/tcpwm/cy_tcpwm_pwm.h **** /** \} group_tcpwm_pwm_output_configuration */
 191:Generated_Source\PSoC6\pdl\drivers/peripheral/tcpwm/cy_tcpwm_pwm.h **** /** \} group_tcpwm_macros_pwm */
 192:Generated_Source\PSoC6\pdl\drivers/peripheral/tcpwm/cy_tcpwm_pwm.h **** 
 193:Generated_Source\PSoC6\pdl\drivers/peripheral/tcpwm/cy_tcpwm_pwm.h **** 
 194:Generated_Source\PSoC6\pdl\drivers/peripheral/tcpwm/cy_tcpwm_pwm.h **** /*******************************************************************************
 195:Generated_Source\PSoC6\pdl\drivers/peripheral/tcpwm/cy_tcpwm_pwm.h **** *        Function Prototypes
 196:Generated_Source\PSoC6\pdl\drivers/peripheral/tcpwm/cy_tcpwm_pwm.h **** *******************************************************************************/
 197:Generated_Source\PSoC6\pdl\drivers/peripheral/tcpwm/cy_tcpwm_pwm.h **** 
 198:Generated_Source\PSoC6\pdl\drivers/peripheral/tcpwm/cy_tcpwm_pwm.h **** /**
 199:Generated_Source\PSoC6\pdl\drivers/peripheral/tcpwm/cy_tcpwm_pwm.h **** * \addtogroup group_tcpwm_functions_pwm
 200:Generated_Source\PSoC6\pdl\drivers/peripheral/tcpwm/cy_tcpwm_pwm.h **** * \{
 201:Generated_Source\PSoC6\pdl\drivers/peripheral/tcpwm/cy_tcpwm_pwm.h **** */
 202:Generated_Source\PSoC6\pdl\drivers/peripheral/tcpwm/cy_tcpwm_pwm.h **** 
 203:Generated_Source\PSoC6\pdl\drivers/peripheral/tcpwm/cy_tcpwm_pwm.h **** cy_en_tcpwm_status_t Cy_TCPWM_PWM_Init(TCPWM_Type *base, uint32_t cntNum, cy_stc_tcpwm_pwm_config_t
 204:Generated_Source\PSoC6\pdl\drivers/peripheral/tcpwm/cy_tcpwm_pwm.h **** void Cy_TCPWM_PWM_DeInit(TCPWM_Type *base, uint32_t cntNum, cy_stc_tcpwm_pwm_config_t const *config
 205:Generated_Source\PSoC6\pdl\drivers/peripheral/tcpwm/cy_tcpwm_pwm.h **** __STATIC_INLINE void Cy_TCPWM_PWM_Enable(TCPWM_Type *base, uint32_t cntNum);
 206:Generated_Source\PSoC6\pdl\drivers/peripheral/tcpwm/cy_tcpwm_pwm.h **** __STATIC_INLINE void Cy_TCPWM_PWM_Disable(TCPWM_Type *base, uint32_t cntNum);
 207:Generated_Source\PSoC6\pdl\drivers/peripheral/tcpwm/cy_tcpwm_pwm.h **** __STATIC_INLINE uint32_t Cy_TCPWM_PWM_GetStatus(TCPWM_Type const *base, uint32_t cntNum);
 208:Generated_Source\PSoC6\pdl\drivers/peripheral/tcpwm/cy_tcpwm_pwm.h **** __STATIC_INLINE void Cy_TCPWM_PWM_SetCompare0(TCPWM_Type *base, uint32_t cntNum, uint32_t compare0)
 209:Generated_Source\PSoC6\pdl\drivers/peripheral/tcpwm/cy_tcpwm_pwm.h **** __STATIC_INLINE uint32_t Cy_TCPWM_PWM_GetCompare0(TCPWM_Type const *base, uint32_t cntNum);
 210:Generated_Source\PSoC6\pdl\drivers/peripheral/tcpwm/cy_tcpwm_pwm.h **** __STATIC_INLINE void Cy_TCPWM_PWM_SetCompare1(TCPWM_Type *base, uint32_t cntNum, uint32_t compare1)
 211:Generated_Source\PSoC6\pdl\drivers/peripheral/tcpwm/cy_tcpwm_pwm.h **** __STATIC_INLINE uint32_t Cy_TCPWM_PWM_GetCompare1(TCPWM_Type const *base, uint32_t cntNum);
 212:Generated_Source\PSoC6\pdl\drivers/peripheral/tcpwm/cy_tcpwm_pwm.h **** __STATIC_INLINE void Cy_TCPWM_PWM_EnableCompareSwap(TCPWM_Type *base, uint32_t cntNum, bool enable)
 213:Generated_Source\PSoC6\pdl\drivers/peripheral/tcpwm/cy_tcpwm_pwm.h **** __STATIC_INLINE void Cy_TCPWM_PWM_SetCounter(TCPWM_Type *base, uint32_t cntNum, uint32_t count);
 214:Generated_Source\PSoC6\pdl\drivers/peripheral/tcpwm/cy_tcpwm_pwm.h **** __STATIC_INLINE uint32_t Cy_TCPWM_PWM_GetCounter(TCPWM_Type const *base, uint32_t cntNum);
 215:Generated_Source\PSoC6\pdl\drivers/peripheral/tcpwm/cy_tcpwm_pwm.h **** __STATIC_INLINE void Cy_TCPWM_PWM_SetPeriod0(TCPWM_Type *base, uint32_t cntNum, uint32_t period0);
 216:Generated_Source\PSoC6\pdl\drivers/peripheral/tcpwm/cy_tcpwm_pwm.h **** __STATIC_INLINE uint32_t Cy_TCPWM_PWM_GetPeriod0(TCPWM_Type const *base, uint32_t cntNum);
 217:Generated_Source\PSoC6\pdl\drivers/peripheral/tcpwm/cy_tcpwm_pwm.h **** __STATIC_INLINE void Cy_TCPWM_PWM_SetPeriod1(TCPWM_Type *base, uint32_t cntNum, uint32_t period1);
 218:Generated_Source\PSoC6\pdl\drivers/peripheral/tcpwm/cy_tcpwm_pwm.h **** __STATIC_INLINE uint32_t Cy_TCPWM_PWM_GetPeriod1(TCPWM_Type const *base, uint32_t cntNum);
 219:Generated_Source\PSoC6\pdl\drivers/peripheral/tcpwm/cy_tcpwm_pwm.h **** __STATIC_INLINE void Cy_TCPWM_PWM_EnablePeriodSwap(TCPWM_Type *base, uint32_t cntNum, bool enable);
 220:Generated_Source\PSoC6\pdl\drivers/peripheral/tcpwm/cy_tcpwm_pwm.h **** 
 221:Generated_Source\PSoC6\pdl\drivers/peripheral/tcpwm/cy_tcpwm_pwm.h **** 
 222:Generated_Source\PSoC6\pdl\drivers/peripheral/tcpwm/cy_tcpwm_pwm.h **** /*******************************************************************************
 223:Generated_Source\PSoC6\pdl\drivers/peripheral/tcpwm/cy_tcpwm_pwm.h **** * Function Name: Cy_TCPWM_PWM_Enable
 224:Generated_Source\PSoC6\pdl\drivers/peripheral/tcpwm/cy_tcpwm_pwm.h **** ****************************************************************************//**
 225:Generated_Source\PSoC6\pdl\drivers/peripheral/tcpwm/cy_tcpwm_pwm.h **** *
 226:Generated_Source\PSoC6\pdl\drivers/peripheral/tcpwm/cy_tcpwm_pwm.h **** * Enables the counter in the TCPWM block for the PWM operation.
 227:Generated_Source\PSoC6\pdl\drivers/peripheral/tcpwm/cy_tcpwm_pwm.h **** *
 228:Generated_Source\PSoC6\pdl\drivers/peripheral/tcpwm/cy_tcpwm_pwm.h **** * \param base
 229:Generated_Source\PSoC6\pdl\drivers/peripheral/tcpwm/cy_tcpwm_pwm.h **** * The pointer to a TCPWM instance.
 230:Generated_Source\PSoC6\pdl\drivers/peripheral/tcpwm/cy_tcpwm_pwm.h **** *
 231:Generated_Source\PSoC6\pdl\drivers/peripheral/tcpwm/cy_tcpwm_pwm.h **** * \param cntNum 
 232:Generated_Source\PSoC6\pdl\drivers/peripheral/tcpwm/cy_tcpwm_pwm.h **** * The Counter instance number in the selected TCPWM.
 233:Generated_Source\PSoC6\pdl\drivers/peripheral/tcpwm/cy_tcpwm_pwm.h **** *
 234:Generated_Source\PSoC6\pdl\drivers/peripheral/tcpwm/cy_tcpwm_pwm.h **** * \funcusage
 235:Generated_Source\PSoC6\pdl\drivers/peripheral/tcpwm/cy_tcpwm_pwm.h **** * \snippet tcpwm/tcpwm_v1_0_pwm_sut_01.cydsn/main_cm4.c snippet_Cy_TCPWM_PWM_Init
 236:Generated_Source\PSoC6\pdl\drivers/peripheral/tcpwm/cy_tcpwm_pwm.h **** *
ARM GAS  C:\Users\cypress\AppData\Local\Temp\ccxRek6y.s 			page 8


 237:Generated_Source\PSoC6\pdl\drivers/peripheral/tcpwm/cy_tcpwm_pwm.h **** *******************************************************************************/
 238:Generated_Source\PSoC6\pdl\drivers/peripheral/tcpwm/cy_tcpwm_pwm.h **** __STATIC_INLINE void Cy_TCPWM_PWM_Enable(TCPWM_Type *base, uint32_t cntNum)
 239:Generated_Source\PSoC6\pdl\drivers/peripheral/tcpwm/cy_tcpwm_pwm.h **** {
 240:Generated_Source\PSoC6\pdl\drivers/peripheral/tcpwm/cy_tcpwm_pwm.h ****     base->CTRL_SET = (1UL << cntNum);  
  60              		.loc 3 240 0
  61 0010 0423     		movs	r3, #4
  62 0012 A360     		str	r3, [r4, #8]
  63              	.LVL1:
  64              	.LBE43:
  65              	.LBE42:
  20:main_cm4.c    ****     Cy_TCPWM_PWM_Enable(PWM_1_HW, PWM_1_CNT_NUM);
  21:main_cm4.c    ****     
  22:main_cm4.c    ****     Cy_TCPWM_PWM_Init(PWM_2_HW, PWM_2_CNT_NUM, &PWM_2_config);
  66              		.loc 1 22 0
  67 0014 234A     		ldr	r2, .L4+8
  68 0016 0021     		movs	r1, #0
  69 0018 2046     		mov	r0, r4
  70 001a FFF7FEFF 		bl	Cy_TCPWM_PWM_Init
  71              	.LVL2:
  72              	.LBB44:
  73              	.LBB45:
  74              		.loc 3 240 0
  75 001e 0121     		movs	r1, #1
  76 0020 A160     		str	r1, [r4, #8]
  77              	.LVL3:
  78              	.LBE45:
  79              	.LBE44:
  23:main_cm4.c    ****     Cy_TCPWM_PWM_Enable(PWM_2_HW, PWM_2_CNT_NUM);
  24:main_cm4.c    ****     
  25:main_cm4.c    ****     Cy_TCPWM_PWM_Init(PWM_3_HW, PWM_3_CNT_NUM, &PWM_3_config);
  80              		.loc 1 25 0
  81 0022 214A     		ldr	r2, .L4+12
  82 0024 2046     		mov	r0, r4
  83 0026 FFF7FEFF 		bl	Cy_TCPWM_PWM_Init
  84              	.LVL4:
  85              	.LBB46:
  86              	.LBB47:
  87              		.loc 3 240 0
  88 002a 0223     		movs	r3, #2
  89 002c A360     		str	r3, [r4, #8]
  90              	.L2:
  91              	.LVL5:
  92              	.LBE47:
  93              	.LBE46:
  94              	.LBB48:
  95              	.LBB49:
  96              		.file 4 "Generated_Source\\PSoC6\\pdl\\drivers/peripheral/gpio/cy_gpio.h"
   1:Generated_Source\PSoC6\pdl\drivers/peripheral/gpio/cy_gpio.h **** /***************************************************************************//**
   2:Generated_Source\PSoC6\pdl\drivers/peripheral/gpio/cy_gpio.h **** * \file cy_gpio.h
   3:Generated_Source\PSoC6\pdl\drivers/peripheral/gpio/cy_gpio.h **** * \version 1.10.1
   4:Generated_Source\PSoC6\pdl\drivers/peripheral/gpio/cy_gpio.h **** *
   5:Generated_Source\PSoC6\pdl\drivers/peripheral/gpio/cy_gpio.h **** * \brief
   6:Generated_Source\PSoC6\pdl\drivers/peripheral/gpio/cy_gpio.h **** * Provides an API declaration of the GPIO driver
   7:Generated_Source\PSoC6\pdl\drivers/peripheral/gpio/cy_gpio.h **** *
   8:Generated_Source\PSoC6\pdl\drivers/peripheral/gpio/cy_gpio.h **** ********************************************************************************
   9:Generated_Source\PSoC6\pdl\drivers/peripheral/gpio/cy_gpio.h **** * \copyright
  10:Generated_Source\PSoC6\pdl\drivers/peripheral/gpio/cy_gpio.h **** * Copyright 2016-2018, Cypress Semiconductor Corporation. All rights reserved.
ARM GAS  C:\Users\cypress\AppData\Local\Temp\ccxRek6y.s 			page 9


  11:Generated_Source\PSoC6\pdl\drivers/peripheral/gpio/cy_gpio.h **** * You may use this file only in accordance with the license, terms, conditions,
  12:Generated_Source\PSoC6\pdl\drivers/peripheral/gpio/cy_gpio.h **** * disclaimers, and limitations in the end user license agreement accompanying
  13:Generated_Source\PSoC6\pdl\drivers/peripheral/gpio/cy_gpio.h **** * the software package with which this file was provided.
  14:Generated_Source\PSoC6\pdl\drivers/peripheral/gpio/cy_gpio.h **** *******************************************************************************/
  15:Generated_Source\PSoC6\pdl\drivers/peripheral/gpio/cy_gpio.h **** 
  16:Generated_Source\PSoC6\pdl\drivers/peripheral/gpio/cy_gpio.h **** /**
  17:Generated_Source\PSoC6\pdl\drivers/peripheral/gpio/cy_gpio.h **** * \defgroup group_gpio General Purpose Input Output (GPIO)
  18:Generated_Source\PSoC6\pdl\drivers/peripheral/gpio/cy_gpio.h **** * \{
  19:Generated_Source\PSoC6\pdl\drivers/peripheral/gpio/cy_gpio.h **** * The GPIO driver provides an API to configure and access device Input/Output pins.
  20:Generated_Source\PSoC6\pdl\drivers/peripheral/gpio/cy_gpio.h **** * IO pins include all general purpose types such as GPIO, SIO, HSIO, AUXIO, and
  21:Generated_Source\PSoC6\pdl\drivers/peripheral/gpio/cy_gpio.h **** * their variants.
  22:Generated_Source\PSoC6\pdl\drivers/peripheral/gpio/cy_gpio.h **** *
  23:Generated_Source\PSoC6\pdl\drivers/peripheral/gpio/cy_gpio.h **** * Initialization can be performed either at the port level or by configuring the
  24:Generated_Source\PSoC6\pdl\drivers/peripheral/gpio/cy_gpio.h **** * individual pins. For efficient use of code space, port
  25:Generated_Source\PSoC6\pdl\drivers/peripheral/gpio/cy_gpio.h **** * configuration should be used in the field. Refer to the product device header files 
  26:Generated_Source\PSoC6\pdl\drivers/peripheral/gpio/cy_gpio.h **** * for the list of supported ports and pins.
  27:Generated_Source\PSoC6\pdl\drivers/peripheral/gpio/cy_gpio.h **** * 
  28:Generated_Source\PSoC6\pdl\drivers/peripheral/gpio/cy_gpio.h **** * - Single pin configuration is performed by using \ref Cy_GPIO_Pin_FastInit 
  29:Generated_Source\PSoC6\pdl\drivers/peripheral/gpio/cy_gpio.h **** *   (provide specific values) or \ref Cy_GPIO_Pin_Init (provide a filled
  30:Generated_Source\PSoC6\pdl\drivers/peripheral/gpio/cy_gpio.h **** *   cy_stc_gpio_pin_config_t structure).
  31:Generated_Source\PSoC6\pdl\drivers/peripheral/gpio/cy_gpio.h **** * - An entire port can be configured using \ref Cy_GPIO_Port_Init. Provide a filled 
  32:Generated_Source\PSoC6\pdl\drivers/peripheral/gpio/cy_gpio.h **** *   cy_stc_gpio_prt_config_t structure. The values in the structure are 
  33:Generated_Source\PSoC6\pdl\drivers/peripheral/gpio/cy_gpio.h **** *   bitfields representing the desired value for each pin in the port.
  34:Generated_Source\PSoC6\pdl\drivers/peripheral/gpio/cy_gpio.h **** * - Pin configuration and management is based on the port address and pin number.
  35:Generated_Source\PSoC6\pdl\drivers/peripheral/gpio/cy_gpio.h **** *   \ref Cy_GPIO_PortToAddr function can optionally be used to calculate the port
  36:Generated_Source\PSoC6\pdl\drivers/peripheral/gpio/cy_gpio.h **** *   address from the port number at run-time.
  37:Generated_Source\PSoC6\pdl\drivers/peripheral/gpio/cy_gpio.h **** *
  38:Generated_Source\PSoC6\pdl\drivers/peripheral/gpio/cy_gpio.h **** * Once the pin/port initialization is complete, each pin can be accessed by 
  39:Generated_Source\PSoC6\pdl\drivers/peripheral/gpio/cy_gpio.h **** * specifying the port (GPIO_PRT_Type) and the pin (0-7) in the provided API 
  40:Generated_Source\PSoC6\pdl\drivers/peripheral/gpio/cy_gpio.h **** * functions.
  41:Generated_Source\PSoC6\pdl\drivers/peripheral/gpio/cy_gpio.h **** *
  42:Generated_Source\PSoC6\pdl\drivers/peripheral/gpio/cy_gpio.h **** * \section group_gpio_configuration Configuration Considerations
  43:Generated_Source\PSoC6\pdl\drivers/peripheral/gpio/cy_gpio.h **** *
  44:Generated_Source\PSoC6\pdl\drivers/peripheral/gpio/cy_gpio.h **** * 1. Pin multiplexing is controlled through the High-Speed IO Matrix (HSIOM) selection.
  45:Generated_Source\PSoC6\pdl\drivers/peripheral/gpio/cy_gpio.h **** *    This allows the pin to connect to signal sources/sinks throughout the device,
  46:Generated_Source\PSoC6\pdl\drivers/peripheral/gpio/cy_gpio.h **** *    as defined by the pin HSIOM selection options (en_hsiom_sel_t).
  47:Generated_Source\PSoC6\pdl\drivers/peripheral/gpio/cy_gpio.h **** * 2. All pins are initialized to High-Z drive mode with HSIOM connected to CPU (SW
  48:Generated_Source\PSoC6\pdl\drivers/peripheral/gpio/cy_gpio.h **** *    control digital pin only) at Power-On-Reset(POR).
  49:Generated_Source\PSoC6\pdl\drivers/peripheral/gpio/cy_gpio.h **** * 3. Some API functions perform read-modify-write operations on shared port
  50:Generated_Source\PSoC6\pdl\drivers/peripheral/gpio/cy_gpio.h **** *    registers. These functions are not thread safe and care must be taken when
  51:Generated_Source\PSoC6\pdl\drivers/peripheral/gpio/cy_gpio.h **** *    called by the application.
  52:Generated_Source\PSoC6\pdl\drivers/peripheral/gpio/cy_gpio.h **** *
  53:Generated_Source\PSoC6\pdl\drivers/peripheral/gpio/cy_gpio.h **** * Multiple pins on a port can be updated using direct port register writes with an
  54:Generated_Source\PSoC6\pdl\drivers/peripheral/gpio/cy_gpio.h **** * appropriate port mask. An example is shown below, highlighting the different ways of 
  55:Generated_Source\PSoC6\pdl\drivers/peripheral/gpio/cy_gpio.h **** * configuring Port 1 pins using,
  56:Generated_Source\PSoC6\pdl\drivers/peripheral/gpio/cy_gpio.h **** * 
  57:Generated_Source\PSoC6\pdl\drivers/peripheral/gpio/cy_gpio.h **** * - Port output data register
  58:Generated_Source\PSoC6\pdl\drivers/peripheral/gpio/cy_gpio.h **** * - Port output data set register
  59:Generated_Source\PSoC6\pdl\drivers/peripheral/gpio/cy_gpio.h **** * - Port output data clear register
  60:Generated_Source\PSoC6\pdl\drivers/peripheral/gpio/cy_gpio.h **** *
  61:Generated_Source\PSoC6\pdl\drivers/peripheral/gpio/cy_gpio.h **** * \snippet gpio/gpio_v1_10_sut_01.cydsn/main_cm4.c Cy_GPIO_Snippet
  62:Generated_Source\PSoC6\pdl\drivers/peripheral/gpio/cy_gpio.h **** *
  63:Generated_Source\PSoC6\pdl\drivers/peripheral/gpio/cy_gpio.h **** * \section group_gpio_more_information More Information
  64:Generated_Source\PSoC6\pdl\drivers/peripheral/gpio/cy_gpio.h **** *
  65:Generated_Source\PSoC6\pdl\drivers/peripheral/gpio/cy_gpio.h **** * Refer to the technical reference manual (TRM) and the device datasheet.
  66:Generated_Source\PSoC6\pdl\drivers/peripheral/gpio/cy_gpio.h **** *
  67:Generated_Source\PSoC6\pdl\drivers/peripheral/gpio/cy_gpio.h **** * \section group_gpio_MISRA MISRA-C Compliance]
ARM GAS  C:\Users\cypress\AppData\Local\Temp\ccxRek6y.s 			page 10


  68:Generated_Source\PSoC6\pdl\drivers/peripheral/gpio/cy_gpio.h **** * <table class="doxtable">
  69:Generated_Source\PSoC6\pdl\drivers/peripheral/gpio/cy_gpio.h **** *   <tr>
  70:Generated_Source\PSoC6\pdl\drivers/peripheral/gpio/cy_gpio.h **** *     <th>MISRA Rule</th>
  71:Generated_Source\PSoC6\pdl\drivers/peripheral/gpio/cy_gpio.h **** *     <th>Rule Class (Required/Advisory)</th>
  72:Generated_Source\PSoC6\pdl\drivers/peripheral/gpio/cy_gpio.h **** *     <th>Rule Description</th>
  73:Generated_Source\PSoC6\pdl\drivers/peripheral/gpio/cy_gpio.h **** *     <th>Description of Deviation(s)</th>
  74:Generated_Source\PSoC6\pdl\drivers/peripheral/gpio/cy_gpio.h **** *   </tr>
  75:Generated_Source\PSoC6\pdl\drivers/peripheral/gpio/cy_gpio.h **** *   <tr>
  76:Generated_Source\PSoC6\pdl\drivers/peripheral/gpio/cy_gpio.h **** *     <td>16.7</td>
  77:Generated_Source\PSoC6\pdl\drivers/peripheral/gpio/cy_gpio.h **** *     <td>A</td>
  78:Generated_Source\PSoC6\pdl\drivers/peripheral/gpio/cy_gpio.h **** *     <td>A pointer parameter in a function prototype should be declared as pointer 
  79:Generated_Source\PSoC6\pdl\drivers/peripheral/gpio/cy_gpio.h **** *         to const if the pointer is not used to modify the addressed object.</td>
  80:Generated_Source\PSoC6\pdl\drivers/peripheral/gpio/cy_gpio.h **** *     <td>The objects pointed to by the base addresses of the GPIO port are not always modified.
  81:Generated_Source\PSoC6\pdl\drivers/peripheral/gpio/cy_gpio.h **** *         While a const qualifier can be used in select scenarios, it brings little benefit
  82:Generated_Source\PSoC6\pdl\drivers/peripheral/gpio/cy_gpio.h **** *         in adding this to the affected functions. </td>
  83:Generated_Source\PSoC6\pdl\drivers/peripheral/gpio/cy_gpio.h **** *   </tr>
  84:Generated_Source\PSoC6\pdl\drivers/peripheral/gpio/cy_gpio.h **** * </table>
  85:Generated_Source\PSoC6\pdl\drivers/peripheral/gpio/cy_gpio.h **** *
  86:Generated_Source\PSoC6\pdl\drivers/peripheral/gpio/cy_gpio.h **** * \section group_gpio_changelog Changelog
  87:Generated_Source\PSoC6\pdl\drivers/peripheral/gpio/cy_gpio.h **** * <table class="doxtable">
  88:Generated_Source\PSoC6\pdl\drivers/peripheral/gpio/cy_gpio.h **** *   <tr><th>Version</th><th>Changes</th><th>Reason for Change</th></tr>
  89:Generated_Source\PSoC6\pdl\drivers/peripheral/gpio/cy_gpio.h **** *   <tr>
  90:Generated_Source\PSoC6\pdl\drivers/peripheral/gpio/cy_gpio.h **** *     <td>1.10.1</td>
  91:Generated_Source\PSoC6\pdl\drivers/peripheral/gpio/cy_gpio.h **** *     <td>Updated description for the functions: \ref Cy_GPIO_GetInterruptStatus, 
  92:Generated_Source\PSoC6\pdl\drivers/peripheral/gpio/cy_gpio.h **** *         \ref Cy_GPIO_GetInterruptMask, \ref Cy_GPIO_GetInterruptStatusMasked.
  93:Generated_Source\PSoC6\pdl\drivers/peripheral/gpio/cy_gpio.h **** *         Minor documentation edits.
  94:Generated_Source\PSoC6\pdl\drivers/peripheral/gpio/cy_gpio.h **** *     </td>
  95:Generated_Source\PSoC6\pdl\drivers/peripheral/gpio/cy_gpio.h **** *     <td>Documentation update and clarification</td>
  96:Generated_Source\PSoC6\pdl\drivers/peripheral/gpio/cy_gpio.h **** *   </tr>
  97:Generated_Source\PSoC6\pdl\drivers/peripheral/gpio/cy_gpio.h **** *   <tr>
  98:Generated_Source\PSoC6\pdl\drivers/peripheral/gpio/cy_gpio.h **** *     <td>1.10</td>
  99:Generated_Source\PSoC6\pdl\drivers/peripheral/gpio/cy_gpio.h **** *     <td>Added input parameter validation to the API functions</td>
 100:Generated_Source\PSoC6\pdl\drivers/peripheral/gpio/cy_gpio.h **** *     <td></td>
 101:Generated_Source\PSoC6\pdl\drivers/peripheral/gpio/cy_gpio.h **** *   </tr>
 102:Generated_Source\PSoC6\pdl\drivers/peripheral/gpio/cy_gpio.h **** *   <tr>
 103:Generated_Source\PSoC6\pdl\drivers/peripheral/gpio/cy_gpio.h **** *     <td>1.0</td>
 104:Generated_Source\PSoC6\pdl\drivers/peripheral/gpio/cy_gpio.h **** *     <td>Initial version</td>
 105:Generated_Source\PSoC6\pdl\drivers/peripheral/gpio/cy_gpio.h **** *     <td></td>
 106:Generated_Source\PSoC6\pdl\drivers/peripheral/gpio/cy_gpio.h **** *   </tr>
 107:Generated_Source\PSoC6\pdl\drivers/peripheral/gpio/cy_gpio.h **** * </table>
 108:Generated_Source\PSoC6\pdl\drivers/peripheral/gpio/cy_gpio.h **** *
 109:Generated_Source\PSoC6\pdl\drivers/peripheral/gpio/cy_gpio.h **** * \defgroup group_gpio_macros Macros
 110:Generated_Source\PSoC6\pdl\drivers/peripheral/gpio/cy_gpio.h **** * \defgroup group_gpio_functions Functions
 111:Generated_Source\PSoC6\pdl\drivers/peripheral/gpio/cy_gpio.h **** * \{
 112:Generated_Source\PSoC6\pdl\drivers/peripheral/gpio/cy_gpio.h **** *   \defgroup group_gpio_functions_init       Initialization Functions
 113:Generated_Source\PSoC6\pdl\drivers/peripheral/gpio/cy_gpio.h **** *   \defgroup group_gpio_functions_gpio       GPIO Functions
 114:Generated_Source\PSoC6\pdl\drivers/peripheral/gpio/cy_gpio.h **** *   \defgroup group_gpio_functions_sio        SIO Functions
 115:Generated_Source\PSoC6\pdl\drivers/peripheral/gpio/cy_gpio.h **** *   \defgroup group_gpio_functions_interrupt  Port Interrupt Functions
 116:Generated_Source\PSoC6\pdl\drivers/peripheral/gpio/cy_gpio.h **** * \}
 117:Generated_Source\PSoC6\pdl\drivers/peripheral/gpio/cy_gpio.h **** * \defgroup group_gpio_data_structures Data Structures
 118:Generated_Source\PSoC6\pdl\drivers/peripheral/gpio/cy_gpio.h **** * \defgroup group_gpio_enums Enumerated Types
 119:Generated_Source\PSoC6\pdl\drivers/peripheral/gpio/cy_gpio.h **** */
 120:Generated_Source\PSoC6\pdl\drivers/peripheral/gpio/cy_gpio.h **** 
 121:Generated_Source\PSoC6\pdl\drivers/peripheral/gpio/cy_gpio.h **** #if !defined(CY_GPIO_H)
 122:Generated_Source\PSoC6\pdl\drivers/peripheral/gpio/cy_gpio.h **** #define CY_GPIO_H
 123:Generated_Source\PSoC6\pdl\drivers/peripheral/gpio/cy_gpio.h **** 
 124:Generated_Source\PSoC6\pdl\drivers/peripheral/gpio/cy_gpio.h **** #include <stddef.h>
ARM GAS  C:\Users\cypress\AppData\Local\Temp\ccxRek6y.s 			page 11


 125:Generated_Source\PSoC6\pdl\drivers/peripheral/gpio/cy_gpio.h **** #include "syslib/cy_syslib.h"
 126:Generated_Source\PSoC6\pdl\drivers/peripheral/gpio/cy_gpio.h **** #include "cy_device_headers.h"
 127:Generated_Source\PSoC6\pdl\drivers/peripheral/gpio/cy_gpio.h **** 
 128:Generated_Source\PSoC6\pdl\drivers/peripheral/gpio/cy_gpio.h **** #if defined(__cplusplus)
 129:Generated_Source\PSoC6\pdl\drivers/peripheral/gpio/cy_gpio.h **** extern "C" {
 130:Generated_Source\PSoC6\pdl\drivers/peripheral/gpio/cy_gpio.h **** #endif
 131:Generated_Source\PSoC6\pdl\drivers/peripheral/gpio/cy_gpio.h **** 
 132:Generated_Source\PSoC6\pdl\drivers/peripheral/gpio/cy_gpio.h **** /** \addtogroup group_gpio_macros
 133:Generated_Source\PSoC6\pdl\drivers/peripheral/gpio/cy_gpio.h **** * \{
 134:Generated_Source\PSoC6\pdl\drivers/peripheral/gpio/cy_gpio.h **** */
 135:Generated_Source\PSoC6\pdl\drivers/peripheral/gpio/cy_gpio.h **** 
 136:Generated_Source\PSoC6\pdl\drivers/peripheral/gpio/cy_gpio.h **** /** Driver major version */
 137:Generated_Source\PSoC6\pdl\drivers/peripheral/gpio/cy_gpio.h **** #define CY_GPIO_DRV_VERSION_MAJOR       1
 138:Generated_Source\PSoC6\pdl\drivers/peripheral/gpio/cy_gpio.h **** 
 139:Generated_Source\PSoC6\pdl\drivers/peripheral/gpio/cy_gpio.h **** /** Driver minor version */
 140:Generated_Source\PSoC6\pdl\drivers/peripheral/gpio/cy_gpio.h **** #define CY_GPIO_DRV_VERSION_MINOR       10
 141:Generated_Source\PSoC6\pdl\drivers/peripheral/gpio/cy_gpio.h **** 
 142:Generated_Source\PSoC6\pdl\drivers/peripheral/gpio/cy_gpio.h **** /** GPIO driver ID */
 143:Generated_Source\PSoC6\pdl\drivers/peripheral/gpio/cy_gpio.h **** #define CY_GPIO_ID CY_PDL_DRV_ID(0x16u)
 144:Generated_Source\PSoC6\pdl\drivers/peripheral/gpio/cy_gpio.h **** 
 145:Generated_Source\PSoC6\pdl\drivers/peripheral/gpio/cy_gpio.h **** /** \} group_gpio_macros */
 146:Generated_Source\PSoC6\pdl\drivers/peripheral/gpio/cy_gpio.h **** 
 147:Generated_Source\PSoC6\pdl\drivers/peripheral/gpio/cy_gpio.h **** 
 148:Generated_Source\PSoC6\pdl\drivers/peripheral/gpio/cy_gpio.h **** /***************************************
 149:Generated_Source\PSoC6\pdl\drivers/peripheral/gpio/cy_gpio.h **** *       Enumerations
 150:Generated_Source\PSoC6\pdl\drivers/peripheral/gpio/cy_gpio.h **** ***************************************/
 151:Generated_Source\PSoC6\pdl\drivers/peripheral/gpio/cy_gpio.h **** /**
 152:Generated_Source\PSoC6\pdl\drivers/peripheral/gpio/cy_gpio.h **** * \addtogroup group_gpio_enums
 153:Generated_Source\PSoC6\pdl\drivers/peripheral/gpio/cy_gpio.h **** * \{
 154:Generated_Source\PSoC6\pdl\drivers/peripheral/gpio/cy_gpio.h **** */
 155:Generated_Source\PSoC6\pdl\drivers/peripheral/gpio/cy_gpio.h **** 
 156:Generated_Source\PSoC6\pdl\drivers/peripheral/gpio/cy_gpio.h **** /**
 157:Generated_Source\PSoC6\pdl\drivers/peripheral/gpio/cy_gpio.h **** * GPIO Driver error codes
 158:Generated_Source\PSoC6\pdl\drivers/peripheral/gpio/cy_gpio.h **** */
 159:Generated_Source\PSoC6\pdl\drivers/peripheral/gpio/cy_gpio.h **** typedef enum 
 160:Generated_Source\PSoC6\pdl\drivers/peripheral/gpio/cy_gpio.h **** {
 161:Generated_Source\PSoC6\pdl\drivers/peripheral/gpio/cy_gpio.h ****     CY_GPIO_SUCCESS   = 0x00u,                                    /**< Returned successful */
 162:Generated_Source\PSoC6\pdl\drivers/peripheral/gpio/cy_gpio.h ****     CY_GPIO_BAD_PARAM = CY_GPIO_ID | CY_PDL_STATUS_ERROR | 0x01u, /**< Bad parameter was passed */
 163:Generated_Source\PSoC6\pdl\drivers/peripheral/gpio/cy_gpio.h **** } cy_en_gpio_status_t;
 164:Generated_Source\PSoC6\pdl\drivers/peripheral/gpio/cy_gpio.h **** 
 165:Generated_Source\PSoC6\pdl\drivers/peripheral/gpio/cy_gpio.h **** /** \} group_gpio_enums */
 166:Generated_Source\PSoC6\pdl\drivers/peripheral/gpio/cy_gpio.h **** 
 167:Generated_Source\PSoC6\pdl\drivers/peripheral/gpio/cy_gpio.h **** 
 168:Generated_Source\PSoC6\pdl\drivers/peripheral/gpio/cy_gpio.h **** /***************************************
 169:Generated_Source\PSoC6\pdl\drivers/peripheral/gpio/cy_gpio.h **** *       Configuration Structures
 170:Generated_Source\PSoC6\pdl\drivers/peripheral/gpio/cy_gpio.h **** ***************************************/
 171:Generated_Source\PSoC6\pdl\drivers/peripheral/gpio/cy_gpio.h **** 
 172:Generated_Source\PSoC6\pdl\drivers/peripheral/gpio/cy_gpio.h **** /**
 173:Generated_Source\PSoC6\pdl\drivers/peripheral/gpio/cy_gpio.h **** * \addtogroup group_gpio_data_structures
 174:Generated_Source\PSoC6\pdl\drivers/peripheral/gpio/cy_gpio.h **** * \{
 175:Generated_Source\PSoC6\pdl\drivers/peripheral/gpio/cy_gpio.h **** */
 176:Generated_Source\PSoC6\pdl\drivers/peripheral/gpio/cy_gpio.h **** 
 177:Generated_Source\PSoC6\pdl\drivers/peripheral/gpio/cy_gpio.h **** /** This structure is used to initialize a port of GPIO pins */
 178:Generated_Source\PSoC6\pdl\drivers/peripheral/gpio/cy_gpio.h **** typedef struct {
 179:Generated_Source\PSoC6\pdl\drivers/peripheral/gpio/cy_gpio.h ****     uint32_t out;           /**< Initial output data for the IO pins in the port */
 180:Generated_Source\PSoC6\pdl\drivers/peripheral/gpio/cy_gpio.h ****     uint32_t intrMask;      /**< Interrupt enable mask for the port interrupt */
 181:Generated_Source\PSoC6\pdl\drivers/peripheral/gpio/cy_gpio.h ****     uint32_t intrCfg;       /**< Port pin interrupt edge detection configuration */
ARM GAS  C:\Users\cypress\AppData\Local\Temp\ccxRek6y.s 			page 12


 182:Generated_Source\PSoC6\pdl\drivers/peripheral/gpio/cy_gpio.h ****     uint32_t cfg;           /**< Port pin drive modes and input buffer enable configuration */
 183:Generated_Source\PSoC6\pdl\drivers/peripheral/gpio/cy_gpio.h ****     uint32_t cfgIn;         /**< Port pin input buffer configuration */
 184:Generated_Source\PSoC6\pdl\drivers/peripheral/gpio/cy_gpio.h ****     uint32_t cfgOut;        /**< Port pin output buffer configuration */
 185:Generated_Source\PSoC6\pdl\drivers/peripheral/gpio/cy_gpio.h ****     uint32_t cfgSIO;        /**< Port SIO pins configuration */
 186:Generated_Source\PSoC6\pdl\drivers/peripheral/gpio/cy_gpio.h ****     uint32_t sel0Active;    /**< HSIOM selection for port pins 0,1,2,3 */
 187:Generated_Source\PSoC6\pdl\drivers/peripheral/gpio/cy_gpio.h ****     uint32_t sel1Active;    /**< HSIOM selection for port pins 4,5,6,7 */
 188:Generated_Source\PSoC6\pdl\drivers/peripheral/gpio/cy_gpio.h **** } cy_stc_gpio_prt_config_t;
 189:Generated_Source\PSoC6\pdl\drivers/peripheral/gpio/cy_gpio.h **** 
 190:Generated_Source\PSoC6\pdl\drivers/peripheral/gpio/cy_gpio.h **** /** This structure is used to initialize a single GPIO pin */
 191:Generated_Source\PSoC6\pdl\drivers/peripheral/gpio/cy_gpio.h **** typedef struct {
 192:Generated_Source\PSoC6\pdl\drivers/peripheral/gpio/cy_gpio.h ****     uint32_t outVal;         /**< Pin output state */
 193:Generated_Source\PSoC6\pdl\drivers/peripheral/gpio/cy_gpio.h ****     uint32_t driveMode;      /**< Drive mode */
 194:Generated_Source\PSoC6\pdl\drivers/peripheral/gpio/cy_gpio.h ****     en_hsiom_sel_t hsiom;   /**< HSIOM selection */
 195:Generated_Source\PSoC6\pdl\drivers/peripheral/gpio/cy_gpio.h ****     uint32_t intEdge;        /**< Interrupt Edge type */
 196:Generated_Source\PSoC6\pdl\drivers/peripheral/gpio/cy_gpio.h ****     uint32_t intMask;        /**< Interrupt enable mask */
 197:Generated_Source\PSoC6\pdl\drivers/peripheral/gpio/cy_gpio.h ****     uint32_t vtrip;          /**< Input buffer voltage trip type */
 198:Generated_Source\PSoC6\pdl\drivers/peripheral/gpio/cy_gpio.h ****     uint32_t slewRate;       /**< Output buffer slew rate */
 199:Generated_Source\PSoC6\pdl\drivers/peripheral/gpio/cy_gpio.h ****     uint32_t driveSel;       /**< Drive strength */
 200:Generated_Source\PSoC6\pdl\drivers/peripheral/gpio/cy_gpio.h ****     uint32_t vregEn;         /**< SIO pair output buffer mode */
 201:Generated_Source\PSoC6\pdl\drivers/peripheral/gpio/cy_gpio.h ****     uint32_t ibufMode;       /**< SIO pair input buffer mode */
 202:Generated_Source\PSoC6\pdl\drivers/peripheral/gpio/cy_gpio.h ****     uint32_t vtripSel;       /**< SIO pair input buffer trip point */
 203:Generated_Source\PSoC6\pdl\drivers/peripheral/gpio/cy_gpio.h ****     uint32_t vrefSel;        /**< SIO pair reference voltage for input buffer trip point */
 204:Generated_Source\PSoC6\pdl\drivers/peripheral/gpio/cy_gpio.h ****     uint32_t vohSel;         /**< SIO pair regulated voltage output level */
 205:Generated_Source\PSoC6\pdl\drivers/peripheral/gpio/cy_gpio.h **** } cy_stc_gpio_pin_config_t;
 206:Generated_Source\PSoC6\pdl\drivers/peripheral/gpio/cy_gpio.h **** 
 207:Generated_Source\PSoC6\pdl\drivers/peripheral/gpio/cy_gpio.h **** /** \} group_gpio_data_structures */
 208:Generated_Source\PSoC6\pdl\drivers/peripheral/gpio/cy_gpio.h **** 
 209:Generated_Source\PSoC6\pdl\drivers/peripheral/gpio/cy_gpio.h **** /***************************************
 210:Generated_Source\PSoC6\pdl\drivers/peripheral/gpio/cy_gpio.h **** *        Constants
 211:Generated_Source\PSoC6\pdl\drivers/peripheral/gpio/cy_gpio.h **** ***************************************/
 212:Generated_Source\PSoC6\pdl\drivers/peripheral/gpio/cy_gpio.h **** 
 213:Generated_Source\PSoC6\pdl\drivers/peripheral/gpio/cy_gpio.h **** /** \cond INTERNAL */
 214:Generated_Source\PSoC6\pdl\drivers/peripheral/gpio/cy_gpio.h **** 
 215:Generated_Source\PSoC6\pdl\drivers/peripheral/gpio/cy_gpio.h **** /* General Constants */
 216:Generated_Source\PSoC6\pdl\drivers/peripheral/gpio/cy_gpio.h **** #define CY_GPIO_PRT_HALF                       (4UL)      /**< Half-way point of a GPIO port */
 217:Generated_Source\PSoC6\pdl\drivers/peripheral/gpio/cy_gpio.h **** #define CY_GPIO_PRT_DEINIT                     (0UL)      /**< De-init value for port registers */
 218:Generated_Source\PSoC6\pdl\drivers/peripheral/gpio/cy_gpio.h **** 
 219:Generated_Source\PSoC6\pdl\drivers/peripheral/gpio/cy_gpio.h **** /* GPIO Masks */
 220:Generated_Source\PSoC6\pdl\drivers/peripheral/gpio/cy_gpio.h **** #define CY_GPIO_HSIOM_MASK                     (0x1FUL)   /**< HSIOM selection mask */
 221:Generated_Source\PSoC6\pdl\drivers/peripheral/gpio/cy_gpio.h **** #define CY_GPIO_OUT_MASK                       (0x01UL)   /**< Single pin mask for OUT register */
 222:Generated_Source\PSoC6\pdl\drivers/peripheral/gpio/cy_gpio.h **** #define CY_GPIO_IN_MASK                        (0x01UL)   /**< Single pin mask for IN register */
 223:Generated_Source\PSoC6\pdl\drivers/peripheral/gpio/cy_gpio.h **** #define CY_GPIO_CFG_DM_MASK                    (0x0FUL)   /**< Single pin mask for drive mode in CF
 224:Generated_Source\PSoC6\pdl\drivers/peripheral/gpio/cy_gpio.h **** #define CY_GPIO_CFG_IN_VTRIP_SEL_MASK          (0x01UL)   /**< Single pin mask for VTRIP selection 
 225:Generated_Source\PSoC6\pdl\drivers/peripheral/gpio/cy_gpio.h **** #define CY_GPIO_CFG_OUT_SLOW_MASK              (0x01UL)   /**< Single pin mask for slew rate in CFG
 226:Generated_Source\PSoC6\pdl\drivers/peripheral/gpio/cy_gpio.h **** #define CY_GPIO_CFG_OUT_DRIVE_SEL_MASK         (0x03UL)   /**< Single pin mask for drive strength i
 227:Generated_Source\PSoC6\pdl\drivers/peripheral/gpio/cy_gpio.h **** #define CY_GPIO_INTR_STATUS_MASK               (0x01UL)   /**< Single pin mask for interrupt status
 228:Generated_Source\PSoC6\pdl\drivers/peripheral/gpio/cy_gpio.h **** #define CY_GPIO_INTR_EN_MASK                   (0x01UL)   /**< Single pin mask for interrupt status
 229:Generated_Source\PSoC6\pdl\drivers/peripheral/gpio/cy_gpio.h **** #define CY_GPIO_INTR_MASKED_MASK               (0x01UL)   /**< Single pin mask for masked interrupt
 230:Generated_Source\PSoC6\pdl\drivers/peripheral/gpio/cy_gpio.h **** #define CY_GPIO_INTR_SET_MASK                  (0x01UL)   /**< Single pin mask for setting the inte
 231:Generated_Source\PSoC6\pdl\drivers/peripheral/gpio/cy_gpio.h **** #define CY_GPIO_INTR_EDGE_MASK                 (0x03UL)   /**< Single pin mask for interrupt edge t
 232:Generated_Source\PSoC6\pdl\drivers/peripheral/gpio/cy_gpio.h **** #define CY_GPIO_INTR_FLT_EDGE_MASK             (0x07UL)   /**< Single pin mask for setting filtered
 233:Generated_Source\PSoC6\pdl\drivers/peripheral/gpio/cy_gpio.h **** 
 234:Generated_Source\PSoC6\pdl\drivers/peripheral/gpio/cy_gpio.h **** /* SIO Masks */
 235:Generated_Source\PSoC6\pdl\drivers/peripheral/gpio/cy_gpio.h **** #define CY_GPIO_VREG_EN_MASK                   (0x01UL)   /**< Single SIO pin mask for voltage regu
 236:Generated_Source\PSoC6\pdl\drivers/peripheral/gpio/cy_gpio.h **** #define CY_GPIO_IBUF_MASK                      (0x01UL)   /**< Single SIO pin mask for input buffer
 237:Generated_Source\PSoC6\pdl\drivers/peripheral/gpio/cy_gpio.h **** #define CY_GPIO_IBUF_SHIFT                     (0x01UL)   /**< Single SIO pin shift for input buffe
 238:Generated_Source\PSoC6\pdl\drivers/peripheral/gpio/cy_gpio.h **** #define CY_GPIO_VTRIP_SEL_MASK                 (0x01UL)   /**< Single SIO pin mask for the input bu
ARM GAS  C:\Users\cypress\AppData\Local\Temp\ccxRek6y.s 			page 13


 239:Generated_Source\PSoC6\pdl\drivers/peripheral/gpio/cy_gpio.h **** #define CY_GPIO_VTRIP_SEL_SHIFT                (0x02UL)   /**< Single SIO pin shift for the input b
 240:Generated_Source\PSoC6\pdl\drivers/peripheral/gpio/cy_gpio.h **** #define CY_GPIO_VREF_SEL_MASK                  (0x03UL)   /**< Single SIO pin mask for voltage refe
 241:Generated_Source\PSoC6\pdl\drivers/peripheral/gpio/cy_gpio.h **** #define CY_GPIO_VREF_SEL_SHIFT                 (0x03UL)   /**< Single SIO pin shift for voltage ref
 242:Generated_Source\PSoC6\pdl\drivers/peripheral/gpio/cy_gpio.h **** #define CY_GPIO_VOH_SEL_MASK                   (0x07UL)   /**< Single SIO pin mask for VOH */
 243:Generated_Source\PSoC6\pdl\drivers/peripheral/gpio/cy_gpio.h **** #define CY_GPIO_VOH_SEL_SHIFT                  (0x05UL)   /**< Single SIO pin shift for VOH */
 244:Generated_Source\PSoC6\pdl\drivers/peripheral/gpio/cy_gpio.h **** 
 245:Generated_Source\PSoC6\pdl\drivers/peripheral/gpio/cy_gpio.h **** /* Special mask for SIO pin pair setting */
 246:Generated_Source\PSoC6\pdl\drivers/peripheral/gpio/cy_gpio.h **** #define CY_GPIO_SIO_ODD_PIN_MASK               (0x00FEUL) /**< SIO pin pair selection mask */
 247:Generated_Source\PSoC6\pdl\drivers/peripheral/gpio/cy_gpio.h **** #define CY_GPIO_SIO_PIN_MASK                   (0x00FFUL) /**< SIO pin pair mask */
 248:Generated_Source\PSoC6\pdl\drivers/peripheral/gpio/cy_gpio.h **** 
 249:Generated_Source\PSoC6\pdl\drivers/peripheral/gpio/cy_gpio.h **** /* Offsets */
 250:Generated_Source\PSoC6\pdl\drivers/peripheral/gpio/cy_gpio.h **** #define CY_GPIO_HSIOM_OFFSET                   (3UL)      /**< Offset for HSIOM */
 251:Generated_Source\PSoC6\pdl\drivers/peripheral/gpio/cy_gpio.h **** #define CY_GPIO_DRIVE_MODE_OFFSET              (2UL)      /**< Offset for Drive mode */
 252:Generated_Source\PSoC6\pdl\drivers/peripheral/gpio/cy_gpio.h **** #define CY_GPIO_INBUF_OFFSET                   (3UL)      /**< Offset for input buffer */
 253:Generated_Source\PSoC6\pdl\drivers/peripheral/gpio/cy_gpio.h **** #define CY_GPIO_CFG_OUT_DRIVE_OFFSET           (16UL)     /**< Offset for drive strength */
 254:Generated_Source\PSoC6\pdl\drivers/peripheral/gpio/cy_gpio.h **** #define CY_GPIO_INTR_CFG_OFFSET                (1UL)      /**< Offset for interrupt config */
 255:Generated_Source\PSoC6\pdl\drivers/peripheral/gpio/cy_gpio.h **** #define CY_GPIO_INTR_FILT_OFFSET               (18UL)     /**< Offset for filtered interrupt config
 256:Generated_Source\PSoC6\pdl\drivers/peripheral/gpio/cy_gpio.h **** #define CY_GPIO_CFG_SIO_OFFSET                 (2UL)      /**< Offset for SIO config */
 257:Generated_Source\PSoC6\pdl\drivers/peripheral/gpio/cy_gpio.h **** 
 258:Generated_Source\PSoC6\pdl\drivers/peripheral/gpio/cy_gpio.h **** /* Parameter validation constants */
 259:Generated_Source\PSoC6\pdl\drivers/peripheral/gpio/cy_gpio.h **** #define CY_GPIO_PINS_MAX                       (8UL)      /**< Number of pins in the port */
 260:Generated_Source\PSoC6\pdl\drivers/peripheral/gpio/cy_gpio.h **** #define CY_GPIO_PRT_PINS_MASK                  (0x0000000FFUL)
 261:Generated_Source\PSoC6\pdl\drivers/peripheral/gpio/cy_gpio.h **** #define CY_GPIO_PRT_INTR_CFG_EDGE_SEL_MASK     (GPIO_PRT_INTR_CFG_EDGE0_SEL_Msk | \
 262:Generated_Source\PSoC6\pdl\drivers/peripheral/gpio/cy_gpio.h ****                                                 GPIO_PRT_INTR_CFG_EDGE1_SEL_Msk | \
 263:Generated_Source\PSoC6\pdl\drivers/peripheral/gpio/cy_gpio.h ****                                                 GPIO_PRT_INTR_CFG_EDGE2_SEL_Msk | \
 264:Generated_Source\PSoC6\pdl\drivers/peripheral/gpio/cy_gpio.h ****                                                 GPIO_PRT_INTR_CFG_EDGE3_SEL_Msk | \
 265:Generated_Source\PSoC6\pdl\drivers/peripheral/gpio/cy_gpio.h ****                                                 GPIO_PRT_INTR_CFG_EDGE4_SEL_Msk | \
 266:Generated_Source\PSoC6\pdl\drivers/peripheral/gpio/cy_gpio.h ****                                                 GPIO_PRT_INTR_CFG_EDGE5_SEL_Msk | \
 267:Generated_Source\PSoC6\pdl\drivers/peripheral/gpio/cy_gpio.h ****                                                 GPIO_PRT_INTR_CFG_EDGE6_SEL_Msk | \
 268:Generated_Source\PSoC6\pdl\drivers/peripheral/gpio/cy_gpio.h ****                                                 GPIO_PRT_INTR_CFG_EDGE7_SEL_Msk)            
 269:Generated_Source\PSoC6\pdl\drivers/peripheral/gpio/cy_gpio.h **** #define CY_GPIO_PRT_INTR_CFG_RANGE_MASK        (CY_GPIO_PRT_INTR_CFG_EDGE_SEL_MASK | \
 270:Generated_Source\PSoC6\pdl\drivers/peripheral/gpio/cy_gpio.h ****                                                 GPIO_PRT_INTR_CFG_FLT_EDGE_SEL_Msk | \
 271:Generated_Source\PSoC6\pdl\drivers/peripheral/gpio/cy_gpio.h ****                                                 GPIO_PRT_INTR_CFG_FLT_SEL_Msk)
 272:Generated_Source\PSoC6\pdl\drivers/peripheral/gpio/cy_gpio.h **** #define CY_GPIO_PRT_INT_MASK_MASK              (0x0000001FFUL)
 273:Generated_Source\PSoC6\pdl\drivers/peripheral/gpio/cy_gpio.h **** #define CY_GPIO_PRT_SEL_ACTIVE_MASK            (0x1FFFFFFFUL)
 274:Generated_Source\PSoC6\pdl\drivers/peripheral/gpio/cy_gpio.h **** 
 275:Generated_Source\PSoC6\pdl\drivers/peripheral/gpio/cy_gpio.h **** /* Parameter validation macros */
 276:Generated_Source\PSoC6\pdl\drivers/peripheral/gpio/cy_gpio.h **** #define CY_GPIO_IS_PIN_VALID(pinNum)           (CY_GPIO_PINS_MAX > (pinNum))
 277:Generated_Source\PSoC6\pdl\drivers/peripheral/gpio/cy_gpio.h **** #define CY_GPIO_IS_FILTER_PIN_VALID(pinNum)    (CY_GPIO_PINS_MAX >= (pinNum))
 278:Generated_Source\PSoC6\pdl\drivers/peripheral/gpio/cy_gpio.h **** #define CY_GPIO_IS_VALUE_VALID(outVal)         (1UL >= (outVal))
 279:Generated_Source\PSoC6\pdl\drivers/peripheral/gpio/cy_gpio.h **** #define CY_GPIO_IS_DM_VALID(driveMode)         (0U == ((driveMode) & (uint32_t)~CY_GPIO_CFG_DM_MASK
 280:Generated_Source\PSoC6\pdl\drivers/peripheral/gpio/cy_gpio.h **** 
 281:Generated_Source\PSoC6\pdl\drivers/peripheral/gpio/cy_gpio.h **** #define CY_GPIO_IS_HSIOM_VALID(hsiom)          (0U == ((hsiom) & (uint32_t)~CY_GPIO_HSIOM_MASK))
 282:Generated_Source\PSoC6\pdl\drivers/peripheral/gpio/cy_gpio.h **** 
 283:Generated_Source\PSoC6\pdl\drivers/peripheral/gpio/cy_gpio.h **** #define CY_GPIO_IS_INT_EDGE_VALID(intEdge)     ((CY_GPIO_INTR_DISABLE  == (intEdge)) || \
 284:Generated_Source\PSoC6\pdl\drivers/peripheral/gpio/cy_gpio.h ****                                                 (CY_GPIO_INTR_RISING   == (intEdge)) || \
 285:Generated_Source\PSoC6\pdl\drivers/peripheral/gpio/cy_gpio.h ****                                                 (CY_GPIO_INTR_FALLING  == (intEdge)) || \
 286:Generated_Source\PSoC6\pdl\drivers/peripheral/gpio/cy_gpio.h ****                                                 (CY_GPIO_INTR_BOTH     == (intEdge)))
 287:Generated_Source\PSoC6\pdl\drivers/peripheral/gpio/cy_gpio.h **** 
 288:Generated_Source\PSoC6\pdl\drivers/peripheral/gpio/cy_gpio.h **** #define CY_GPIO_IS_DRIVE_SEL_VALID(driveSel)   ((CY_GPIO_DRIVE_FULL    == (driveSel)) || \
 289:Generated_Source\PSoC6\pdl\drivers/peripheral/gpio/cy_gpio.h ****                                                 (CY_GPIO_DRIVE_1_2     == (driveSel)) || \
 290:Generated_Source\PSoC6\pdl\drivers/peripheral/gpio/cy_gpio.h ****                                                 (CY_GPIO_DRIVE_1_4     == (driveSel)) || \
 291:Generated_Source\PSoC6\pdl\drivers/peripheral/gpio/cy_gpio.h ****                                                 (CY_GPIO_DRIVE_1_8     == (driveSel)))
 292:Generated_Source\PSoC6\pdl\drivers/peripheral/gpio/cy_gpio.h **** 
 293:Generated_Source\PSoC6\pdl\drivers/peripheral/gpio/cy_gpio.h **** #define CY_GPIO_IS_VREF_SEL_VALID(vrefSel)     ((CY_SIO_VREF_PINREF    == (vrefSel)) || \
 294:Generated_Source\PSoC6\pdl\drivers/peripheral/gpio/cy_gpio.h ****                                                 (CY_SIO_VREF_1_2V      == (vrefSel)) || \
 295:Generated_Source\PSoC6\pdl\drivers/peripheral/gpio/cy_gpio.h ****                                                 (CY_SIO_VREF_AMUX_A    == (vrefSel)) || \
ARM GAS  C:\Users\cypress\AppData\Local\Temp\ccxRek6y.s 			page 14


 296:Generated_Source\PSoC6\pdl\drivers/peripheral/gpio/cy_gpio.h ****                                                 (CY_SIO_VREF_AMUX_B    == (vrefSel)))
 297:Generated_Source\PSoC6\pdl\drivers/peripheral/gpio/cy_gpio.h **** 
 298:Generated_Source\PSoC6\pdl\drivers/peripheral/gpio/cy_gpio.h **** #define CY_GPIO_IS_VOH_SEL_VALID(vrefSel)      ((CY_SIO_VOH_1_00       == (vrefSel)) || \
 299:Generated_Source\PSoC6\pdl\drivers/peripheral/gpio/cy_gpio.h ****                                                 (CY_SIO_VOH_1_25       == (vrefSel)) || \
 300:Generated_Source\PSoC6\pdl\drivers/peripheral/gpio/cy_gpio.h ****                                                 (CY_SIO_VOH_1_49       == (vrefSel)) || \
 301:Generated_Source\PSoC6\pdl\drivers/peripheral/gpio/cy_gpio.h ****                                                 (CY_SIO_VOH_1_67       == (vrefSel)) || \
 302:Generated_Source\PSoC6\pdl\drivers/peripheral/gpio/cy_gpio.h ****                                                 (CY_SIO_VOH_2_08       == (vrefSel)) || \
 303:Generated_Source\PSoC6\pdl\drivers/peripheral/gpio/cy_gpio.h ****                                                 (CY_SIO_VOH_2_50       == (vrefSel)) || \
 304:Generated_Source\PSoC6\pdl\drivers/peripheral/gpio/cy_gpio.h ****                                                 (CY_SIO_VOH_2_78       == (vrefSel)) || \
 305:Generated_Source\PSoC6\pdl\drivers/peripheral/gpio/cy_gpio.h ****                                                 (CY_SIO_VOH_4_16       == (vrefSel)))
 306:Generated_Source\PSoC6\pdl\drivers/peripheral/gpio/cy_gpio.h ****                    
 307:Generated_Source\PSoC6\pdl\drivers/peripheral/gpio/cy_gpio.h **** #define CY_GPIO_IS_PIN_BIT_VALID(pinBit)       (0U == ((pinBit) & (uint32_t)~CY_GPIO_PRT_PINS_MASK)
 308:Generated_Source\PSoC6\pdl\drivers/peripheral/gpio/cy_gpio.h **** #define CY_GPIO_IS_INTR_CFG_VALID(intrCfg)     (0U == ((intrCfg) & (uint32_t)~CY_GPIO_PRT_INTR_CFG_
 309:Generated_Source\PSoC6\pdl\drivers/peripheral/gpio/cy_gpio.h **** #define CY_GPIO_IS_INTR_MASK_VALID(intrMask)   (0U == ((intrMask) & (uint32_t)~CY_GPIO_PRT_INT_MASK
 310:Generated_Source\PSoC6\pdl\drivers/peripheral/gpio/cy_gpio.h **** #define CY_GPIO_IS_SEL_ACT_VALID(selActive)    (0U == ((selActive) & (uint32_t)~CY_GPIO_PRT_SEL_ACT
 311:Generated_Source\PSoC6\pdl\drivers/peripheral/gpio/cy_gpio.h **** 
 312:Generated_Source\PSoC6\pdl\drivers/peripheral/gpio/cy_gpio.h **** /** \endcond */
 313:Generated_Source\PSoC6\pdl\drivers/peripheral/gpio/cy_gpio.h **** 
 314:Generated_Source\PSoC6\pdl\drivers/peripheral/gpio/cy_gpio.h **** 
 315:Generated_Source\PSoC6\pdl\drivers/peripheral/gpio/cy_gpio.h **** /***************************************
 316:Generated_Source\PSoC6\pdl\drivers/peripheral/gpio/cy_gpio.h **** *        Function Constants
 317:Generated_Source\PSoC6\pdl\drivers/peripheral/gpio/cy_gpio.h **** ***************************************/
 318:Generated_Source\PSoC6\pdl\drivers/peripheral/gpio/cy_gpio.h **** 
 319:Generated_Source\PSoC6\pdl\drivers/peripheral/gpio/cy_gpio.h **** /**
 320:Generated_Source\PSoC6\pdl\drivers/peripheral/gpio/cy_gpio.h **** * \addtogroup group_gpio_macros
 321:Generated_Source\PSoC6\pdl\drivers/peripheral/gpio/cy_gpio.h **** * \{
 322:Generated_Source\PSoC6\pdl\drivers/peripheral/gpio/cy_gpio.h **** */
 323:Generated_Source\PSoC6\pdl\drivers/peripheral/gpio/cy_gpio.h **** 
 324:Generated_Source\PSoC6\pdl\drivers/peripheral/gpio/cy_gpio.h **** /**
 325:Generated_Source\PSoC6\pdl\drivers/peripheral/gpio/cy_gpio.h **** * \defgroup group_gpio_driveModes Pin drive mode
 326:Generated_Source\PSoC6\pdl\drivers/peripheral/gpio/cy_gpio.h **** * \{
 327:Generated_Source\PSoC6\pdl\drivers/peripheral/gpio/cy_gpio.h **** * Constants to be used for setting the drive mode of the pin.
 328:Generated_Source\PSoC6\pdl\drivers/peripheral/gpio/cy_gpio.h **** */
 329:Generated_Source\PSoC6\pdl\drivers/peripheral/gpio/cy_gpio.h **** #define CY_GPIO_DM_ANALOG                      (0x00UL) /**< \brief Analog High-Z. Input buffer off
 330:Generated_Source\PSoC6\pdl\drivers/peripheral/gpio/cy_gpio.h **** #define CY_GPIO_DM_PULLUP_IN_OFF               (0x02UL) /**< \brief Resistive Pull-Up. Input buffer
 331:Generated_Source\PSoC6\pdl\drivers/peripheral/gpio/cy_gpio.h **** #define CY_GPIO_DM_PULLDOWN_IN_OFF             (0x03UL) /**< \brief Resistive Pull-Down. Input buff
 332:Generated_Source\PSoC6\pdl\drivers/peripheral/gpio/cy_gpio.h **** #define CY_GPIO_DM_OD_DRIVESLOW_IN_OFF         (0x04UL) /**< \brief Open Drain, Drives Low. Input b
 333:Generated_Source\PSoC6\pdl\drivers/peripheral/gpio/cy_gpio.h **** #define CY_GPIO_DM_OD_DRIVESHIGH_IN_OFF        (0x05UL) /**< \brief Open Drain, Drives High. Input 
 334:Generated_Source\PSoC6\pdl\drivers/peripheral/gpio/cy_gpio.h **** #define CY_GPIO_DM_STRONG_IN_OFF               (0x06UL) /**< \brief Strong Drive. Input buffer off 
 335:Generated_Source\PSoC6\pdl\drivers/peripheral/gpio/cy_gpio.h **** #define CY_GPIO_DM_PULLUP_DOWN_IN_OFF          (0x07UL) /**< \brief Resistive Pull-Up/Down. Input b
 336:Generated_Source\PSoC6\pdl\drivers/peripheral/gpio/cy_gpio.h **** #define CY_GPIO_DM_HIGHZ                       (0x08UL) /**< \brief Digital High-Z. Input buffer on
 337:Generated_Source\PSoC6\pdl\drivers/peripheral/gpio/cy_gpio.h **** #define CY_GPIO_DM_PULLUP                      (0x0AUL) /**< \brief Resistive Pull-Up. Input buffer
 338:Generated_Source\PSoC6\pdl\drivers/peripheral/gpio/cy_gpio.h **** #define CY_GPIO_DM_PULLDOWN                    (0x0BUL) /**< \brief Resistive Pull-Down. Input buff
 339:Generated_Source\PSoC6\pdl\drivers/peripheral/gpio/cy_gpio.h **** #define CY_GPIO_DM_OD_DRIVESLOW                (0x0CUL) /**< \brief Open Drain, Drives Low. Input b
 340:Generated_Source\PSoC6\pdl\drivers/peripheral/gpio/cy_gpio.h **** #define CY_GPIO_DM_OD_DRIVESHIGH               (0x0DUL) /**< \brief Open Drain, Drives High. Input 
 341:Generated_Source\PSoC6\pdl\drivers/peripheral/gpio/cy_gpio.h **** #define CY_GPIO_DM_STRONG                      (0x0EUL) /**< \brief Strong Drive. Input buffer on *
 342:Generated_Source\PSoC6\pdl\drivers/peripheral/gpio/cy_gpio.h **** #define CY_GPIO_DM_PULLUP_DOWN                 (0x0FUL) /**< \brief Resistive Pull-Up/Down. Input b
 343:Generated_Source\PSoC6\pdl\drivers/peripheral/gpio/cy_gpio.h **** /** \} */
 344:Generated_Source\PSoC6\pdl\drivers/peripheral/gpio/cy_gpio.h **** 
 345:Generated_Source\PSoC6\pdl\drivers/peripheral/gpio/cy_gpio.h **** /**
 346:Generated_Source\PSoC6\pdl\drivers/peripheral/gpio/cy_gpio.h **** * \defgroup group_gpio_vtrip Voltage trip mode
 347:Generated_Source\PSoC6\pdl\drivers/peripheral/gpio/cy_gpio.h **** * \{
 348:Generated_Source\PSoC6\pdl\drivers/peripheral/gpio/cy_gpio.h **** * Constants to be used for setting the voltage trip type on the pin.
 349:Generated_Source\PSoC6\pdl\drivers/peripheral/gpio/cy_gpio.h **** */
 350:Generated_Source\PSoC6\pdl\drivers/peripheral/gpio/cy_gpio.h **** #define CY_GPIO_VTRIP_CMOS                     (0x00UL) /**< \brief Input buffer compatible with CM
 351:Generated_Source\PSoC6\pdl\drivers/peripheral/gpio/cy_gpio.h **** #define CY_GPIO_VTRIP_TTL                      (0x01UL) /**< \brief Input buffer compatible with TT
 352:Generated_Source\PSoC6\pdl\drivers/peripheral/gpio/cy_gpio.h **** /** \} */
ARM GAS  C:\Users\cypress\AppData\Local\Temp\ccxRek6y.s 			page 15


 353:Generated_Source\PSoC6\pdl\drivers/peripheral/gpio/cy_gpio.h **** 
 354:Generated_Source\PSoC6\pdl\drivers/peripheral/gpio/cy_gpio.h **** /**
 355:Generated_Source\PSoC6\pdl\drivers/peripheral/gpio/cy_gpio.h **** * \defgroup group_gpio_slewRate Slew Rate Mode
 356:Generated_Source\PSoC6\pdl\drivers/peripheral/gpio/cy_gpio.h **** * \{
 357:Generated_Source\PSoC6\pdl\drivers/peripheral/gpio/cy_gpio.h **** * Constants to be used for setting the slew rate of the pin.
 358:Generated_Source\PSoC6\pdl\drivers/peripheral/gpio/cy_gpio.h **** */
 359:Generated_Source\PSoC6\pdl\drivers/peripheral/gpio/cy_gpio.h **** #define CY_GPIO_SLEW_FAST                      (0x00UL) /**< \brief Fast slew rate */
 360:Generated_Source\PSoC6\pdl\drivers/peripheral/gpio/cy_gpio.h **** #define CY_GPIO_SLEW_SLOW                      (0x01UL) /**< \brief Slow slew rate */
 361:Generated_Source\PSoC6\pdl\drivers/peripheral/gpio/cy_gpio.h **** /** \} */
 362:Generated_Source\PSoC6\pdl\drivers/peripheral/gpio/cy_gpio.h **** 
 363:Generated_Source\PSoC6\pdl\drivers/peripheral/gpio/cy_gpio.h **** /**
 364:Generated_Source\PSoC6\pdl\drivers/peripheral/gpio/cy_gpio.h **** * \defgroup group_gpio_driveStrength Pin drive strength
 365:Generated_Source\PSoC6\pdl\drivers/peripheral/gpio/cy_gpio.h **** * \{
 366:Generated_Source\PSoC6\pdl\drivers/peripheral/gpio/cy_gpio.h **** * Constants to be used for setting the drive strength of the pin.
 367:Generated_Source\PSoC6\pdl\drivers/peripheral/gpio/cy_gpio.h **** */
 368:Generated_Source\PSoC6\pdl\drivers/peripheral/gpio/cy_gpio.h **** #define CY_GPIO_DRIVE_FULL                     (0x00UL) /**< \brief Full drive strength: Max drive 
 369:Generated_Source\PSoC6\pdl\drivers/peripheral/gpio/cy_gpio.h **** #define CY_GPIO_DRIVE_1_2                      (0x01UL) /**< \brief 1/2 drive strength: 1/2 drive c
 370:Generated_Source\PSoC6\pdl\drivers/peripheral/gpio/cy_gpio.h **** #define CY_GPIO_DRIVE_1_4                      (0x02UL) /**< \brief 1/4 drive strength: 1/4 drive c
 371:Generated_Source\PSoC6\pdl\drivers/peripheral/gpio/cy_gpio.h **** #define CY_GPIO_DRIVE_1_8                      (0x03UL) /**< \brief 1/8 drive strength: 1/8 drive c
 372:Generated_Source\PSoC6\pdl\drivers/peripheral/gpio/cy_gpio.h **** /** \} */
 373:Generated_Source\PSoC6\pdl\drivers/peripheral/gpio/cy_gpio.h **** 
 374:Generated_Source\PSoC6\pdl\drivers/peripheral/gpio/cy_gpio.h **** /**
 375:Generated_Source\PSoC6\pdl\drivers/peripheral/gpio/cy_gpio.h **** * \defgroup group_gpio_interruptTrigger Interrupt trigger type
 376:Generated_Source\PSoC6\pdl\drivers/peripheral/gpio/cy_gpio.h **** * \{
 377:Generated_Source\PSoC6\pdl\drivers/peripheral/gpio/cy_gpio.h **** * Constants to be used for setting the interrupt trigger type on the pin.
 378:Generated_Source\PSoC6\pdl\drivers/peripheral/gpio/cy_gpio.h **** */
 379:Generated_Source\PSoC6\pdl\drivers/peripheral/gpio/cy_gpio.h **** #define CY_GPIO_INTR_DISABLE                   (0x00UL) /**< \brief Disable the pin interrupt gener
 380:Generated_Source\PSoC6\pdl\drivers/peripheral/gpio/cy_gpio.h **** #define CY_GPIO_INTR_RISING                    (0x01UL) /**< \brief Rising-Edge interrupt */
 381:Generated_Source\PSoC6\pdl\drivers/peripheral/gpio/cy_gpio.h **** #define CY_GPIO_INTR_FALLING                   (0x02UL) /**< \brief Falling-Edge interrupt */
 382:Generated_Source\PSoC6\pdl\drivers/peripheral/gpio/cy_gpio.h **** #define CY_GPIO_INTR_BOTH                      (0x03UL) /**< \brief Both-Edge interrupt */
 383:Generated_Source\PSoC6\pdl\drivers/peripheral/gpio/cy_gpio.h **** /** \} */
 384:Generated_Source\PSoC6\pdl\drivers/peripheral/gpio/cy_gpio.h **** 
 385:Generated_Source\PSoC6\pdl\drivers/peripheral/gpio/cy_gpio.h **** /**
 386:Generated_Source\PSoC6\pdl\drivers/peripheral/gpio/cy_gpio.h **** * \defgroup group_gpio_sioVreg SIO output buffer mode
 387:Generated_Source\PSoC6\pdl\drivers/peripheral/gpio/cy_gpio.h **** * \{
 388:Generated_Source\PSoC6\pdl\drivers/peripheral/gpio/cy_gpio.h **** * Constants to be used for setting the SIO output buffer mode on the pin.
 389:Generated_Source\PSoC6\pdl\drivers/peripheral/gpio/cy_gpio.h **** */
 390:Generated_Source\PSoC6\pdl\drivers/peripheral/gpio/cy_gpio.h **** #define CY_SIO_VREG_UNREGULATED                (0x00UL) /**< \brief Unregulated output buffer */
 391:Generated_Source\PSoC6\pdl\drivers/peripheral/gpio/cy_gpio.h **** #define CY_SIO_VREG_REGULATED                  (0x01UL) /**< \brief Regulated output buffer */
 392:Generated_Source\PSoC6\pdl\drivers/peripheral/gpio/cy_gpio.h **** /** \} */
 393:Generated_Source\PSoC6\pdl\drivers/peripheral/gpio/cy_gpio.h **** 
 394:Generated_Source\PSoC6\pdl\drivers/peripheral/gpio/cy_gpio.h **** /**
 395:Generated_Source\PSoC6\pdl\drivers/peripheral/gpio/cy_gpio.h **** * \defgroup group_gpio_sioIbuf SIO input buffer mode
 396:Generated_Source\PSoC6\pdl\drivers/peripheral/gpio/cy_gpio.h **** * \{
 397:Generated_Source\PSoC6\pdl\drivers/peripheral/gpio/cy_gpio.h **** * Constants to be used for setting the SIO input buffer mode on the pin.
 398:Generated_Source\PSoC6\pdl\drivers/peripheral/gpio/cy_gpio.h **** */
 399:Generated_Source\PSoC6\pdl\drivers/peripheral/gpio/cy_gpio.h **** #define CY_SIO_IBUF_SINGLEENDED                (0x00UL) /**< \brief Single ended input buffer */
 400:Generated_Source\PSoC6\pdl\drivers/peripheral/gpio/cy_gpio.h **** #define CY_SIO_IBUF_DIFFERENTIAL               (0x01UL) /**< \brief Differential input buffer */
 401:Generated_Source\PSoC6\pdl\drivers/peripheral/gpio/cy_gpio.h **** /** \} */
 402:Generated_Source\PSoC6\pdl\drivers/peripheral/gpio/cy_gpio.h **** 
 403:Generated_Source\PSoC6\pdl\drivers/peripheral/gpio/cy_gpio.h **** /**
 404:Generated_Source\PSoC6\pdl\drivers/peripheral/gpio/cy_gpio.h **** * \defgroup group_gpio_sioVtrip SIO input buffer trip-point
 405:Generated_Source\PSoC6\pdl\drivers/peripheral/gpio/cy_gpio.h **** * \{
 406:Generated_Source\PSoC6\pdl\drivers/peripheral/gpio/cy_gpio.h **** * Constants to be used for setting the SIO input buffer trip-point of the pin.
 407:Generated_Source\PSoC6\pdl\drivers/peripheral/gpio/cy_gpio.h **** */
 408:Generated_Source\PSoC6\pdl\drivers/peripheral/gpio/cy_gpio.h **** #define CY_SIO_VTRIP_CMOS                      (0x00UL) /**< \brief CMOS input buffer (single-ended
 409:Generated_Source\PSoC6\pdl\drivers/peripheral/gpio/cy_gpio.h **** #define CY_SIO_VTRIP_TTL                       (0x01UL) /**< \brief TTL input buffer (single-ended)
ARM GAS  C:\Users\cypress\AppData\Local\Temp\ccxRek6y.s 			page 16


 410:Generated_Source\PSoC6\pdl\drivers/peripheral/gpio/cy_gpio.h **** #define CY_SIO_VTRIP_0_5VDDIO_0_5VOH           (0x00UL) /**< \brief 0.5xVddio or 0.5xVoh (different
 411:Generated_Source\PSoC6\pdl\drivers/peripheral/gpio/cy_gpio.h **** #define CY_SIO_VTRIP_0_4VDDIO_1_0VREF          (0x01UL) /**< \brief 0.4xVddio or 0.4xVoh (different
 412:Generated_Source\PSoC6\pdl\drivers/peripheral/gpio/cy_gpio.h **** /** \} */
 413:Generated_Source\PSoC6\pdl\drivers/peripheral/gpio/cy_gpio.h **** 
 414:Generated_Source\PSoC6\pdl\drivers/peripheral/gpio/cy_gpio.h **** /**
 415:Generated_Source\PSoC6\pdl\drivers/peripheral/gpio/cy_gpio.h **** * \defgroup group_gpio_sioVref SIO reference voltage for input buffer trip-point
 416:Generated_Source\PSoC6\pdl\drivers/peripheral/gpio/cy_gpio.h **** * \{
 417:Generated_Source\PSoC6\pdl\drivers/peripheral/gpio/cy_gpio.h **** * Constants to be used for setting the reference voltage of SIO input buffer trip-point.
 418:Generated_Source\PSoC6\pdl\drivers/peripheral/gpio/cy_gpio.h **** */
 419:Generated_Source\PSoC6\pdl\drivers/peripheral/gpio/cy_gpio.h **** #define CY_SIO_VREF_PINREF                     (0x00UL) /**< \brief Vref from analog pin */
 420:Generated_Source\PSoC6\pdl\drivers/peripheral/gpio/cy_gpio.h **** #define CY_SIO_VREF_1_2V                       (0x01UL) /**< \brief Vref from internal 1.2V referen
 421:Generated_Source\PSoC6\pdl\drivers/peripheral/gpio/cy_gpio.h **** #define CY_SIO_VREF_AMUX_A                     (0x02UL) /**< \brief Vref from AMUXBUS_A */
 422:Generated_Source\PSoC6\pdl\drivers/peripheral/gpio/cy_gpio.h **** #define CY_SIO_VREF_AMUX_B                     (0x03UL) /**< \brief Vref from AMUXBUS_B */
 423:Generated_Source\PSoC6\pdl\drivers/peripheral/gpio/cy_gpio.h **** /** \} */
 424:Generated_Source\PSoC6\pdl\drivers/peripheral/gpio/cy_gpio.h **** 
 425:Generated_Source\PSoC6\pdl\drivers/peripheral/gpio/cy_gpio.h **** /**
 426:Generated_Source\PSoC6\pdl\drivers/peripheral/gpio/cy_gpio.h **** * \defgroup group_gpio_sioVoh Regulated output voltage level (Voh) and input buffer trip-point of a
 427:Generated_Source\PSoC6\pdl\drivers/peripheral/gpio/cy_gpio.h **** * \{
 428:Generated_Source\PSoC6\pdl\drivers/peripheral/gpio/cy_gpio.h **** * Constants to be used for setting the Voh and input buffer trip-point of an SIO pair
 429:Generated_Source\PSoC6\pdl\drivers/peripheral/gpio/cy_gpio.h **** */
 430:Generated_Source\PSoC6\pdl\drivers/peripheral/gpio/cy_gpio.h **** #define CY_SIO_VOH_1_00                        (0x00UL) /**< \brief Voh = 1 x Reference */
 431:Generated_Source\PSoC6\pdl\drivers/peripheral/gpio/cy_gpio.h **** #define CY_SIO_VOH_1_25                        (0x01UL) /**< \brief Voh = 1.25 x Reference */
 432:Generated_Source\PSoC6\pdl\drivers/peripheral/gpio/cy_gpio.h **** #define CY_SIO_VOH_1_49                        (0x02UL) /**< \brief Voh = 1.49 x Reference */
 433:Generated_Source\PSoC6\pdl\drivers/peripheral/gpio/cy_gpio.h **** #define CY_SIO_VOH_1_67                        (0x03UL) /**< \brief Voh = 1.67 x Reference */
 434:Generated_Source\PSoC6\pdl\drivers/peripheral/gpio/cy_gpio.h **** #define CY_SIO_VOH_2_08                        (0x04UL) /**< \brief Voh = 2.08 x Reference */
 435:Generated_Source\PSoC6\pdl\drivers/peripheral/gpio/cy_gpio.h **** #define CY_SIO_VOH_2_50                        (0x05UL) /**< \brief Voh = 2.50 x Reference */
 436:Generated_Source\PSoC6\pdl\drivers/peripheral/gpio/cy_gpio.h **** #define CY_SIO_VOH_2_78                        (0x06UL) /**< \brief Voh = 2.78 x Reference */
 437:Generated_Source\PSoC6\pdl\drivers/peripheral/gpio/cy_gpio.h **** #define CY_SIO_VOH_4_16                        (0x07UL) /**< \brief Voh = 4.16 x Reference */
 438:Generated_Source\PSoC6\pdl\drivers/peripheral/gpio/cy_gpio.h **** /** \} */
 439:Generated_Source\PSoC6\pdl\drivers/peripheral/gpio/cy_gpio.h **** 
 440:Generated_Source\PSoC6\pdl\drivers/peripheral/gpio/cy_gpio.h **** /** \} group_gpio_macros */
 441:Generated_Source\PSoC6\pdl\drivers/peripheral/gpio/cy_gpio.h **** 
 442:Generated_Source\PSoC6\pdl\drivers/peripheral/gpio/cy_gpio.h **** /***************************************
 443:Generated_Source\PSoC6\pdl\drivers/peripheral/gpio/cy_gpio.h **** *        Function Prototypes
 444:Generated_Source\PSoC6\pdl\drivers/peripheral/gpio/cy_gpio.h **** ***************************************/
 445:Generated_Source\PSoC6\pdl\drivers/peripheral/gpio/cy_gpio.h **** 
 446:Generated_Source\PSoC6\pdl\drivers/peripheral/gpio/cy_gpio.h **** /**
 447:Generated_Source\PSoC6\pdl\drivers/peripheral/gpio/cy_gpio.h **** * \addtogroup group_gpio_functions
 448:Generated_Source\PSoC6\pdl\drivers/peripheral/gpio/cy_gpio.h **** * \{
 449:Generated_Source\PSoC6\pdl\drivers/peripheral/gpio/cy_gpio.h **** */
 450:Generated_Source\PSoC6\pdl\drivers/peripheral/gpio/cy_gpio.h **** 
 451:Generated_Source\PSoC6\pdl\drivers/peripheral/gpio/cy_gpio.h **** /**
 452:Generated_Source\PSoC6\pdl\drivers/peripheral/gpio/cy_gpio.h **** * \addtogroup group_gpio_functions_init
 453:Generated_Source\PSoC6\pdl\drivers/peripheral/gpio/cy_gpio.h **** * \{
 454:Generated_Source\PSoC6\pdl\drivers/peripheral/gpio/cy_gpio.h **** */
 455:Generated_Source\PSoC6\pdl\drivers/peripheral/gpio/cy_gpio.h **** 
 456:Generated_Source\PSoC6\pdl\drivers/peripheral/gpio/cy_gpio.h **** cy_en_gpio_status_t Cy_GPIO_Pin_Init(GPIO_PRT_Type* base, uint32_t pinNum, const cy_stc_gpio_pin_co
 457:Generated_Source\PSoC6\pdl\drivers/peripheral/gpio/cy_gpio.h **** cy_en_gpio_status_t Cy_GPIO_Port_Init(GPIO_PRT_Type* base, const cy_stc_gpio_prt_config_t *config);
 458:Generated_Source\PSoC6\pdl\drivers/peripheral/gpio/cy_gpio.h **** void Cy_GPIO_Pin_FastInit(GPIO_PRT_Type* base, uint32_t pinNum, uint32_t driveMode, uint32_t outVal
 459:Generated_Source\PSoC6\pdl\drivers/peripheral/gpio/cy_gpio.h **** void Cy_GPIO_Port_Deinit(GPIO_PRT_Type* base);
 460:Generated_Source\PSoC6\pdl\drivers/peripheral/gpio/cy_gpio.h **** __STATIC_INLINE void Cy_GPIO_SetHSIOM(GPIO_PRT_Type* base, uint32_t pinNum, en_hsiom_sel_t value);
 461:Generated_Source\PSoC6\pdl\drivers/peripheral/gpio/cy_gpio.h **** __STATIC_INLINE en_hsiom_sel_t Cy_GPIO_GetHSIOM(GPIO_PRT_Type* base, uint32_t pinNum);
 462:Generated_Source\PSoC6\pdl\drivers/peripheral/gpio/cy_gpio.h **** __STATIC_INLINE GPIO_PRT_Type* Cy_GPIO_PortToAddr(uint32_t portNum);
 463:Generated_Source\PSoC6\pdl\drivers/peripheral/gpio/cy_gpio.h **** 
 464:Generated_Source\PSoC6\pdl\drivers/peripheral/gpio/cy_gpio.h **** /** \} group_gpio_functions_init */
 465:Generated_Source\PSoC6\pdl\drivers/peripheral/gpio/cy_gpio.h **** 
 466:Generated_Source\PSoC6\pdl\drivers/peripheral/gpio/cy_gpio.h **** /**
ARM GAS  C:\Users\cypress\AppData\Local\Temp\ccxRek6y.s 			page 17


 467:Generated_Source\PSoC6\pdl\drivers/peripheral/gpio/cy_gpio.h **** * \addtogroup group_gpio_functions_gpio
 468:Generated_Source\PSoC6\pdl\drivers/peripheral/gpio/cy_gpio.h **** * \{
 469:Generated_Source\PSoC6\pdl\drivers/peripheral/gpio/cy_gpio.h **** */
 470:Generated_Source\PSoC6\pdl\drivers/peripheral/gpio/cy_gpio.h **** 
 471:Generated_Source\PSoC6\pdl\drivers/peripheral/gpio/cy_gpio.h **** __STATIC_INLINE uint32_t Cy_GPIO_Read(GPIO_PRT_Type* base, uint32_t pinNum);
 472:Generated_Source\PSoC6\pdl\drivers/peripheral/gpio/cy_gpio.h **** __STATIC_INLINE void Cy_GPIO_Write(GPIO_PRT_Type* base, uint32_t pinNum, uint32_t value);
 473:Generated_Source\PSoC6\pdl\drivers/peripheral/gpio/cy_gpio.h **** __STATIC_INLINE uint32_t Cy_GPIO_ReadOut(GPIO_PRT_Type* base, uint32_t pinNum);
 474:Generated_Source\PSoC6\pdl\drivers/peripheral/gpio/cy_gpio.h **** __STATIC_INLINE void Cy_GPIO_Set(GPIO_PRT_Type* base, uint32_t pinNum);
 475:Generated_Source\PSoC6\pdl\drivers/peripheral/gpio/cy_gpio.h **** __STATIC_INLINE void Cy_GPIO_Clr(GPIO_PRT_Type* base, uint32_t pinNum);
 476:Generated_Source\PSoC6\pdl\drivers/peripheral/gpio/cy_gpio.h **** __STATIC_INLINE void Cy_GPIO_Inv(GPIO_PRT_Type* base, uint32_t pinNum);
 477:Generated_Source\PSoC6\pdl\drivers/peripheral/gpio/cy_gpio.h **** __STATIC_INLINE void Cy_GPIO_SetDrivemode(GPIO_PRT_Type* base, uint32_t pinNum, uint32_t value);
 478:Generated_Source\PSoC6\pdl\drivers/peripheral/gpio/cy_gpio.h **** __STATIC_INLINE uint32_t Cy_GPIO_GetDrivemode(GPIO_PRT_Type* base, uint32_t pinNum);
 479:Generated_Source\PSoC6\pdl\drivers/peripheral/gpio/cy_gpio.h **** __STATIC_INLINE void Cy_GPIO_SetVtrip(GPIO_PRT_Type* base, uint32_t pinNum, uint32_t value);
 480:Generated_Source\PSoC6\pdl\drivers/peripheral/gpio/cy_gpio.h **** __STATIC_INLINE uint32_t Cy_GPIO_GetVtrip(GPIO_PRT_Type* base, uint32_t pinNum);
 481:Generated_Source\PSoC6\pdl\drivers/peripheral/gpio/cy_gpio.h **** __STATIC_INLINE void Cy_GPIO_SetSlewRate(GPIO_PRT_Type* base, uint32_t pinNum, uint32_t value);
 482:Generated_Source\PSoC6\pdl\drivers/peripheral/gpio/cy_gpio.h **** __STATIC_INLINE uint32_t Cy_GPIO_GetSlewRate(GPIO_PRT_Type* base, uint32_t pinNum);
 483:Generated_Source\PSoC6\pdl\drivers/peripheral/gpio/cy_gpio.h **** __STATIC_INLINE void Cy_GPIO_SetDriveSel(GPIO_PRT_Type* base, uint32_t pinNum, uint32_t value);
 484:Generated_Source\PSoC6\pdl\drivers/peripheral/gpio/cy_gpio.h **** __STATIC_INLINE uint32_t Cy_GPIO_GetDriveSel(GPIO_PRT_Type* base, uint32_t pinNum);
 485:Generated_Source\PSoC6\pdl\drivers/peripheral/gpio/cy_gpio.h **** 
 486:Generated_Source\PSoC6\pdl\drivers/peripheral/gpio/cy_gpio.h **** /** \} group_gpio_functions_gpio */
 487:Generated_Source\PSoC6\pdl\drivers/peripheral/gpio/cy_gpio.h **** 
 488:Generated_Source\PSoC6\pdl\drivers/peripheral/gpio/cy_gpio.h **** /**
 489:Generated_Source\PSoC6\pdl\drivers/peripheral/gpio/cy_gpio.h **** * \addtogroup group_gpio_functions_sio
 490:Generated_Source\PSoC6\pdl\drivers/peripheral/gpio/cy_gpio.h **** * \{
 491:Generated_Source\PSoC6\pdl\drivers/peripheral/gpio/cy_gpio.h **** */
 492:Generated_Source\PSoC6\pdl\drivers/peripheral/gpio/cy_gpio.h **** 
 493:Generated_Source\PSoC6\pdl\drivers/peripheral/gpio/cy_gpio.h **** __STATIC_INLINE void Cy_GPIO_SetVregEn(GPIO_PRT_Type* base, uint32_t pinNum, uint32_t value);
 494:Generated_Source\PSoC6\pdl\drivers/peripheral/gpio/cy_gpio.h **** __STATIC_INLINE uint32_t Cy_GPIO_GetVregEn(GPIO_PRT_Type* base, uint32_t pinNum);
 495:Generated_Source\PSoC6\pdl\drivers/peripheral/gpio/cy_gpio.h **** __STATIC_INLINE void Cy_GPIO_SetIbufMode(GPIO_PRT_Type* base, uint32_t pinNum, uint32_t value);
 496:Generated_Source\PSoC6\pdl\drivers/peripheral/gpio/cy_gpio.h **** __STATIC_INLINE uint32_t Cy_GPIO_GetIbufMode(GPIO_PRT_Type* base, uint32_t pinNum);
 497:Generated_Source\PSoC6\pdl\drivers/peripheral/gpio/cy_gpio.h **** __STATIC_INLINE void Cy_GPIO_SetVtripSel(GPIO_PRT_Type* base, uint32_t pinNum, uint32_t value);
 498:Generated_Source\PSoC6\pdl\drivers/peripheral/gpio/cy_gpio.h **** __STATIC_INLINE uint32_t Cy_GPIO_GetVtripSel(GPIO_PRT_Type* base, uint32_t pinNum);
 499:Generated_Source\PSoC6\pdl\drivers/peripheral/gpio/cy_gpio.h **** __STATIC_INLINE void Cy_GPIO_SetVrefSel(GPIO_PRT_Type* base, uint32_t pinNum, uint32_t value);
 500:Generated_Source\PSoC6\pdl\drivers/peripheral/gpio/cy_gpio.h **** __STATIC_INLINE uint32_t Cy_GPIO_GetVrefSel(GPIO_PRT_Type* base, uint32_t pinNum);
 501:Generated_Source\PSoC6\pdl\drivers/peripheral/gpio/cy_gpio.h **** __STATIC_INLINE void Cy_GPIO_SetVohSel(GPIO_PRT_Type* base, uint32_t pinNum, uint32_t value);
 502:Generated_Source\PSoC6\pdl\drivers/peripheral/gpio/cy_gpio.h **** __STATIC_INLINE uint32_t Cy_GPIO_GetVohSel(GPIO_PRT_Type* base, uint32_t pinNum);
 503:Generated_Source\PSoC6\pdl\drivers/peripheral/gpio/cy_gpio.h **** 
 504:Generated_Source\PSoC6\pdl\drivers/peripheral/gpio/cy_gpio.h **** /** \} group_gpio_functions_sio */
 505:Generated_Source\PSoC6\pdl\drivers/peripheral/gpio/cy_gpio.h **** 
 506:Generated_Source\PSoC6\pdl\drivers/peripheral/gpio/cy_gpio.h **** /**
 507:Generated_Source\PSoC6\pdl\drivers/peripheral/gpio/cy_gpio.h **** * \addtogroup group_gpio_functions_interrupt
 508:Generated_Source\PSoC6\pdl\drivers/peripheral/gpio/cy_gpio.h **** * \{
 509:Generated_Source\PSoC6\pdl\drivers/peripheral/gpio/cy_gpio.h **** */
 510:Generated_Source\PSoC6\pdl\drivers/peripheral/gpio/cy_gpio.h **** 
 511:Generated_Source\PSoC6\pdl\drivers/peripheral/gpio/cy_gpio.h **** __STATIC_INLINE uint32_t Cy_GPIO_GetInterruptStatus(GPIO_PRT_Type* base, uint32_t pinNum);
 512:Generated_Source\PSoC6\pdl\drivers/peripheral/gpio/cy_gpio.h **** __STATIC_INLINE void Cy_GPIO_ClearInterrupt(GPIO_PRT_Type* base, uint32_t pinNum);
 513:Generated_Source\PSoC6\pdl\drivers/peripheral/gpio/cy_gpio.h **** __STATIC_INLINE void Cy_GPIO_SetInterruptMask(GPIO_PRT_Type* base, uint32_t pinNum, uint32_t value)
 514:Generated_Source\PSoC6\pdl\drivers/peripheral/gpio/cy_gpio.h **** __STATIC_INLINE uint32_t Cy_GPIO_GetInterruptMask(GPIO_PRT_Type* base, uint32_t pinNum);
 515:Generated_Source\PSoC6\pdl\drivers/peripheral/gpio/cy_gpio.h **** __STATIC_INLINE uint32_t Cy_GPIO_GetInterruptStatusMasked(GPIO_PRT_Type* base, uint32_t pinNum);
 516:Generated_Source\PSoC6\pdl\drivers/peripheral/gpio/cy_gpio.h **** __STATIC_INLINE void Cy_GPIO_SetSwInterrupt(GPIO_PRT_Type* base, uint32_t pinNum);
 517:Generated_Source\PSoC6\pdl\drivers/peripheral/gpio/cy_gpio.h **** __STATIC_INLINE void Cy_GPIO_SetInterruptEdge(GPIO_PRT_Type* base, uint32_t pinNum, uint32_t value)
 518:Generated_Source\PSoC6\pdl\drivers/peripheral/gpio/cy_gpio.h **** __STATIC_INLINE uint32_t Cy_GPIO_GetInterruptEdge(GPIO_PRT_Type* base, uint32_t pinNum);
 519:Generated_Source\PSoC6\pdl\drivers/peripheral/gpio/cy_gpio.h **** __STATIC_INLINE void Cy_GPIO_SetFilter(GPIO_PRT_Type* base, uint32_t value);
 520:Generated_Source\PSoC6\pdl\drivers/peripheral/gpio/cy_gpio.h **** __STATIC_INLINE uint32_t Cy_GPIO_GetFilter(GPIO_PRT_Type* base);
 521:Generated_Source\PSoC6\pdl\drivers/peripheral/gpio/cy_gpio.h **** 
 522:Generated_Source\PSoC6\pdl\drivers/peripheral/gpio/cy_gpio.h **** #if (IOSS_GPIO_GPIO_PORT_NR_0_31 != 0) || defined (CY_DOXYGEN)
 523:Generated_Source\PSoC6\pdl\drivers/peripheral/gpio/cy_gpio.h **** __STATIC_INLINE uint32_t Cy_GPIO_GetInterruptCause0(void);
ARM GAS  C:\Users\cypress\AppData\Local\Temp\ccxRek6y.s 			page 18


 524:Generated_Source\PSoC6\pdl\drivers/peripheral/gpio/cy_gpio.h **** #endif /* (IOSS_GPIO_GPIO_PORT_NR_0_31 != 0) */
 525:Generated_Source\PSoC6\pdl\drivers/peripheral/gpio/cy_gpio.h **** 
 526:Generated_Source\PSoC6\pdl\drivers/peripheral/gpio/cy_gpio.h **** #if (IOSS_GPIO_GPIO_PORT_NR_32_63 != 0) || defined (CY_DOXYGEN)
 527:Generated_Source\PSoC6\pdl\drivers/peripheral/gpio/cy_gpio.h **** __STATIC_INLINE uint32_t Cy_GPIO_GetInterruptCause1(void);
 528:Generated_Source\PSoC6\pdl\drivers/peripheral/gpio/cy_gpio.h **** #endif /* (IOSS_GPIO_GPIO_PORT_NR_32_63 != 0) */
 529:Generated_Source\PSoC6\pdl\drivers/peripheral/gpio/cy_gpio.h **** 
 530:Generated_Source\PSoC6\pdl\drivers/peripheral/gpio/cy_gpio.h **** #if (IOSS_GPIO_GPIO_PORT_NR_64_95 != 0) || defined (CY_DOXYGEN)
 531:Generated_Source\PSoC6\pdl\drivers/peripheral/gpio/cy_gpio.h **** __STATIC_INLINE uint32_t Cy_GPIO_GetInterruptCause2(void);
 532:Generated_Source\PSoC6\pdl\drivers/peripheral/gpio/cy_gpio.h **** #endif /* (IOSS_GPIO_GPIO_PORT_NR_64_95 != 0) */
 533:Generated_Source\PSoC6\pdl\drivers/peripheral/gpio/cy_gpio.h **** 
 534:Generated_Source\PSoC6\pdl\drivers/peripheral/gpio/cy_gpio.h **** #if (IOSS_GPIO_GPIO_PORT_NR_96_127 != 0) || defined (CY_DOXYGEN)
 535:Generated_Source\PSoC6\pdl\drivers/peripheral/gpio/cy_gpio.h **** __STATIC_INLINE uint32_t Cy_GPIO_GetInterruptCause3(void);
 536:Generated_Source\PSoC6\pdl\drivers/peripheral/gpio/cy_gpio.h **** #endif /* (IOSS_GPIO_GPIO_PORT_NR_96_127 != 0) */
 537:Generated_Source\PSoC6\pdl\drivers/peripheral/gpio/cy_gpio.h **** 
 538:Generated_Source\PSoC6\pdl\drivers/peripheral/gpio/cy_gpio.h **** /** \} group_gpio_functions_interrupt */
 539:Generated_Source\PSoC6\pdl\drivers/peripheral/gpio/cy_gpio.h **** 
 540:Generated_Source\PSoC6\pdl\drivers/peripheral/gpio/cy_gpio.h **** 
 541:Generated_Source\PSoC6\pdl\drivers/peripheral/gpio/cy_gpio.h **** /**
 542:Generated_Source\PSoC6\pdl\drivers/peripheral/gpio/cy_gpio.h **** * \addtogroup group_gpio_functions_init
 543:Generated_Source\PSoC6\pdl\drivers/peripheral/gpio/cy_gpio.h **** * \{
 544:Generated_Source\PSoC6\pdl\drivers/peripheral/gpio/cy_gpio.h **** */
 545:Generated_Source\PSoC6\pdl\drivers/peripheral/gpio/cy_gpio.h **** 
 546:Generated_Source\PSoC6\pdl\drivers/peripheral/gpio/cy_gpio.h **** /*******************************************************************************
 547:Generated_Source\PSoC6\pdl\drivers/peripheral/gpio/cy_gpio.h **** * Function Name: Cy_GPIO_SetHSIOM
 548:Generated_Source\PSoC6\pdl\drivers/peripheral/gpio/cy_gpio.h **** ****************************************************************************//**
 549:Generated_Source\PSoC6\pdl\drivers/peripheral/gpio/cy_gpio.h **** *
 550:Generated_Source\PSoC6\pdl\drivers/peripheral/gpio/cy_gpio.h **** * \brief Configures the HSIOM connection to the pin.
 551:Generated_Source\PSoC6\pdl\drivers/peripheral/gpio/cy_gpio.h **** *
 552:Generated_Source\PSoC6\pdl\drivers/peripheral/gpio/cy_gpio.h **** * Connects the specified High-Speed Input Output Multiplexer (HSIOM) selection
 553:Generated_Source\PSoC6\pdl\drivers/peripheral/gpio/cy_gpio.h **** * to the pin.
 554:Generated_Source\PSoC6\pdl\drivers/peripheral/gpio/cy_gpio.h **** *
 555:Generated_Source\PSoC6\pdl\drivers/peripheral/gpio/cy_gpio.h **** * \param base
 556:Generated_Source\PSoC6\pdl\drivers/peripheral/gpio/cy_gpio.h **** * Pointer to the pin's port register base address
 557:Generated_Source\PSoC6\pdl\drivers/peripheral/gpio/cy_gpio.h **** *
 558:Generated_Source\PSoC6\pdl\drivers/peripheral/gpio/cy_gpio.h **** * \param pinNum
 559:Generated_Source\PSoC6\pdl\drivers/peripheral/gpio/cy_gpio.h **** * Position of the pin bit-field within the port register
 560:Generated_Source\PSoC6\pdl\drivers/peripheral/gpio/cy_gpio.h **** *
 561:Generated_Source\PSoC6\pdl\drivers/peripheral/gpio/cy_gpio.h **** * \param value
 562:Generated_Source\PSoC6\pdl\drivers/peripheral/gpio/cy_gpio.h **** * HSIOM input selection
 563:Generated_Source\PSoC6\pdl\drivers/peripheral/gpio/cy_gpio.h **** *
 564:Generated_Source\PSoC6\pdl\drivers/peripheral/gpio/cy_gpio.h **** * \return
 565:Generated_Source\PSoC6\pdl\drivers/peripheral/gpio/cy_gpio.h **** * void
 566:Generated_Source\PSoC6\pdl\drivers/peripheral/gpio/cy_gpio.h **** *
 567:Generated_Source\PSoC6\pdl\drivers/peripheral/gpio/cy_gpio.h **** * \note 
 568:Generated_Source\PSoC6\pdl\drivers/peripheral/gpio/cy_gpio.h **** * This function modifies a port register in a read-modify-write operation. It is
 569:Generated_Source\PSoC6\pdl\drivers/peripheral/gpio/cy_gpio.h **** * not thread safe as the resource is shared among multiple pins on a port.
 570:Generated_Source\PSoC6\pdl\drivers/peripheral/gpio/cy_gpio.h **** *
 571:Generated_Source\PSoC6\pdl\drivers/peripheral/gpio/cy_gpio.h **** * \funcusage
 572:Generated_Source\PSoC6\pdl\drivers/peripheral/gpio/cy_gpio.h **** * \snippet gpio/gpio_v1_10_sut_01.cydsn/main_cm4.c snippet_Cy_GPIO_SetHSIOM
 573:Generated_Source\PSoC6\pdl\drivers/peripheral/gpio/cy_gpio.h **** *
 574:Generated_Source\PSoC6\pdl\drivers/peripheral/gpio/cy_gpio.h **** *******************************************************************************/
 575:Generated_Source\PSoC6\pdl\drivers/peripheral/gpio/cy_gpio.h **** __STATIC_INLINE void Cy_GPIO_SetHSIOM(GPIO_PRT_Type* base, uint32_t pinNum, en_hsiom_sel_t value)
 576:Generated_Source\PSoC6\pdl\drivers/peripheral/gpio/cy_gpio.h **** {
 577:Generated_Source\PSoC6\pdl\drivers/peripheral/gpio/cy_gpio.h ****     uint32_t portNum;
 578:Generated_Source\PSoC6\pdl\drivers/peripheral/gpio/cy_gpio.h ****     uint32_t tempReg;
 579:Generated_Source\PSoC6\pdl\drivers/peripheral/gpio/cy_gpio.h ****     HSIOM_PRT_Type* portAddrHSIOM;
 580:Generated_Source\PSoC6\pdl\drivers/peripheral/gpio/cy_gpio.h **** 
ARM GAS  C:\Users\cypress\AppData\Local\Temp\ccxRek6y.s 			page 19


 581:Generated_Source\PSoC6\pdl\drivers/peripheral/gpio/cy_gpio.h ****     CY_ASSERT_L2(CY_GPIO_IS_PIN_VALID(pinNum));
 582:Generated_Source\PSoC6\pdl\drivers/peripheral/gpio/cy_gpio.h ****     CY_ASSERT_L2(CY_GPIO_IS_HSIOM_VALID(value));
 583:Generated_Source\PSoC6\pdl\drivers/peripheral/gpio/cy_gpio.h **** 
 584:Generated_Source\PSoC6\pdl\drivers/peripheral/gpio/cy_gpio.h ****     portNum = ((uint32_t)(base) - GPIO_BASE) / GPIO_PRT_SECTION_SIZE;
 585:Generated_Source\PSoC6\pdl\drivers/peripheral/gpio/cy_gpio.h ****     portAddrHSIOM = (HSIOM_PRT_Type*)(HSIOM_BASE + (HSIOM_PRT_SECTION_SIZE * portNum));
 586:Generated_Source\PSoC6\pdl\drivers/peripheral/gpio/cy_gpio.h **** 
 587:Generated_Source\PSoC6\pdl\drivers/peripheral/gpio/cy_gpio.h ****     if(pinNum < CY_GPIO_PRT_HALF)
 588:Generated_Source\PSoC6\pdl\drivers/peripheral/gpio/cy_gpio.h ****     {
 589:Generated_Source\PSoC6\pdl\drivers/peripheral/gpio/cy_gpio.h ****         tempReg = portAddrHSIOM->PORT_SEL0 & ~(CY_GPIO_HSIOM_MASK << (pinNum << CY_GPIO_HSIOM_OFFSE
 590:Generated_Source\PSoC6\pdl\drivers/peripheral/gpio/cy_gpio.h ****         portAddrHSIOM->PORT_SEL0 = tempReg | ((value & CY_GPIO_HSIOM_MASK) << (pinNum << CY_GPIO_HS
 591:Generated_Source\PSoC6\pdl\drivers/peripheral/gpio/cy_gpio.h ****     }
 592:Generated_Source\PSoC6\pdl\drivers/peripheral/gpio/cy_gpio.h ****     else
 593:Generated_Source\PSoC6\pdl\drivers/peripheral/gpio/cy_gpio.h ****     {
 594:Generated_Source\PSoC6\pdl\drivers/peripheral/gpio/cy_gpio.h ****         pinNum -= CY_GPIO_PRT_HALF;
 595:Generated_Source\PSoC6\pdl\drivers/peripheral/gpio/cy_gpio.h ****         tempReg = portAddrHSIOM->PORT_SEL1 & ~(CY_GPIO_HSIOM_MASK << (pinNum << CY_GPIO_HSIOM_OFFSE
 596:Generated_Source\PSoC6\pdl\drivers/peripheral/gpio/cy_gpio.h ****         portAddrHSIOM->PORT_SEL1 = tempReg | ((value & CY_GPIO_HSIOM_MASK) << (pinNum << CY_GPIO_HS
 597:Generated_Source\PSoC6\pdl\drivers/peripheral/gpio/cy_gpio.h ****     }
 598:Generated_Source\PSoC6\pdl\drivers/peripheral/gpio/cy_gpio.h **** }
 599:Generated_Source\PSoC6\pdl\drivers/peripheral/gpio/cy_gpio.h **** 
 600:Generated_Source\PSoC6\pdl\drivers/peripheral/gpio/cy_gpio.h **** 
 601:Generated_Source\PSoC6\pdl\drivers/peripheral/gpio/cy_gpio.h **** /*******************************************************************************
 602:Generated_Source\PSoC6\pdl\drivers/peripheral/gpio/cy_gpio.h **** * Function Name: Cy_GPIO_GetHSIOM
 603:Generated_Source\PSoC6\pdl\drivers/peripheral/gpio/cy_gpio.h **** ****************************************************************************//**
 604:Generated_Source\PSoC6\pdl\drivers/peripheral/gpio/cy_gpio.h **** *
 605:Generated_Source\PSoC6\pdl\drivers/peripheral/gpio/cy_gpio.h **** * \brief Returns the current HSIOM multiplexer connection to the pin.
 606:Generated_Source\PSoC6\pdl\drivers/peripheral/gpio/cy_gpio.h **** *
 607:Generated_Source\PSoC6\pdl\drivers/peripheral/gpio/cy_gpio.h **** * \param base
 608:Generated_Source\PSoC6\pdl\drivers/peripheral/gpio/cy_gpio.h **** * Pointer to the pin's port register base address
 609:Generated_Source\PSoC6\pdl\drivers/peripheral/gpio/cy_gpio.h **** *
 610:Generated_Source\PSoC6\pdl\drivers/peripheral/gpio/cy_gpio.h **** * \param pinNum
 611:Generated_Source\PSoC6\pdl\drivers/peripheral/gpio/cy_gpio.h **** * Position of the pin bit-field within the port register
 612:Generated_Source\PSoC6\pdl\drivers/peripheral/gpio/cy_gpio.h **** *
 613:Generated_Source\PSoC6\pdl\drivers/peripheral/gpio/cy_gpio.h **** * \return
 614:Generated_Source\PSoC6\pdl\drivers/peripheral/gpio/cy_gpio.h **** * HSIOM input selection
 615:Generated_Source\PSoC6\pdl\drivers/peripheral/gpio/cy_gpio.h **** *
 616:Generated_Source\PSoC6\pdl\drivers/peripheral/gpio/cy_gpio.h **** * \funcusage
 617:Generated_Source\PSoC6\pdl\drivers/peripheral/gpio/cy_gpio.h **** * \snippet gpio/gpio_v1_10_sut_01.cydsn/main_cm4.c snippet_Cy_GPIO_SetHSIOM
 618:Generated_Source\PSoC6\pdl\drivers/peripheral/gpio/cy_gpio.h **** *
 619:Generated_Source\PSoC6\pdl\drivers/peripheral/gpio/cy_gpio.h **** *******************************************************************************/
 620:Generated_Source\PSoC6\pdl\drivers/peripheral/gpio/cy_gpio.h **** __STATIC_INLINE en_hsiom_sel_t Cy_GPIO_GetHSIOM(GPIO_PRT_Type* base, uint32_t pinNum)
 621:Generated_Source\PSoC6\pdl\drivers/peripheral/gpio/cy_gpio.h **** {
 622:Generated_Source\PSoC6\pdl\drivers/peripheral/gpio/cy_gpio.h ****     uint32_t returnValue;
 623:Generated_Source\PSoC6\pdl\drivers/peripheral/gpio/cy_gpio.h ****     uint32_t portNum;
 624:Generated_Source\PSoC6\pdl\drivers/peripheral/gpio/cy_gpio.h ****     HSIOM_PRT_Type* portAddrHSIOM;
 625:Generated_Source\PSoC6\pdl\drivers/peripheral/gpio/cy_gpio.h ****     
 626:Generated_Source\PSoC6\pdl\drivers/peripheral/gpio/cy_gpio.h ****     CY_ASSERT_L2(CY_GPIO_IS_PIN_VALID(pinNum));
 627:Generated_Source\PSoC6\pdl\drivers/peripheral/gpio/cy_gpio.h **** 
 628:Generated_Source\PSoC6\pdl\drivers/peripheral/gpio/cy_gpio.h ****     portNum = ((uint32_t)(base) - GPIO_BASE) / GPIO_PRT_SECTION_SIZE;
 629:Generated_Source\PSoC6\pdl\drivers/peripheral/gpio/cy_gpio.h ****     portAddrHSIOM = (HSIOM_PRT_Type*)(HSIOM_BASE + (HSIOM_PRT_SECTION_SIZE * portNum));
 630:Generated_Source\PSoC6\pdl\drivers/peripheral/gpio/cy_gpio.h **** 
 631:Generated_Source\PSoC6\pdl\drivers/peripheral/gpio/cy_gpio.h ****     if(pinNum < CY_GPIO_PRT_HALF)
 632:Generated_Source\PSoC6\pdl\drivers/peripheral/gpio/cy_gpio.h ****     {
 633:Generated_Source\PSoC6\pdl\drivers/peripheral/gpio/cy_gpio.h ****         returnValue = (portAddrHSIOM->PORT_SEL0 >> (pinNum << CY_GPIO_HSIOM_OFFSET)) & CY_GPIO_HSIO
 634:Generated_Source\PSoC6\pdl\drivers/peripheral/gpio/cy_gpio.h ****     }
 635:Generated_Source\PSoC6\pdl\drivers/peripheral/gpio/cy_gpio.h ****     else
 636:Generated_Source\PSoC6\pdl\drivers/peripheral/gpio/cy_gpio.h ****     {
 637:Generated_Source\PSoC6\pdl\drivers/peripheral/gpio/cy_gpio.h ****         pinNum -= CY_GPIO_PRT_HALF;
ARM GAS  C:\Users\cypress\AppData\Local\Temp\ccxRek6y.s 			page 20


 638:Generated_Source\PSoC6\pdl\drivers/peripheral/gpio/cy_gpio.h ****         returnValue = (portAddrHSIOM->PORT_SEL1 >> (pinNum << CY_GPIO_HSIOM_OFFSET)) & CY_GPIO_HSIO
 639:Generated_Source\PSoC6\pdl\drivers/peripheral/gpio/cy_gpio.h ****     }
 640:Generated_Source\PSoC6\pdl\drivers/peripheral/gpio/cy_gpio.h **** 
 641:Generated_Source\PSoC6\pdl\drivers/peripheral/gpio/cy_gpio.h ****     return (en_hsiom_sel_t)returnValue;
 642:Generated_Source\PSoC6\pdl\drivers/peripheral/gpio/cy_gpio.h **** }
 643:Generated_Source\PSoC6\pdl\drivers/peripheral/gpio/cy_gpio.h **** 
 644:Generated_Source\PSoC6\pdl\drivers/peripheral/gpio/cy_gpio.h **** 
 645:Generated_Source\PSoC6\pdl\drivers/peripheral/gpio/cy_gpio.h **** /*******************************************************************************
 646:Generated_Source\PSoC6\pdl\drivers/peripheral/gpio/cy_gpio.h **** * Function Name: Cy_GPIO_PortToAddr
 647:Generated_Source\PSoC6\pdl\drivers/peripheral/gpio/cy_gpio.h **** ****************************************************************************//**
 648:Generated_Source\PSoC6\pdl\drivers/peripheral/gpio/cy_gpio.h **** *
 649:Generated_Source\PSoC6\pdl\drivers/peripheral/gpio/cy_gpio.h **** * \brief Retrieves the port address based on the given port number.
 650:Generated_Source\PSoC6\pdl\drivers/peripheral/gpio/cy_gpio.h **** *
 651:Generated_Source\PSoC6\pdl\drivers/peripheral/gpio/cy_gpio.h **** * This is a helper function to calculate the port base address when given a port
 652:Generated_Source\PSoC6\pdl\drivers/peripheral/gpio/cy_gpio.h **** * number. It is to be used when pin access needs to be calculated at runtime.
 653:Generated_Source\PSoC6\pdl\drivers/peripheral/gpio/cy_gpio.h **** *
 654:Generated_Source\PSoC6\pdl\drivers/peripheral/gpio/cy_gpio.h **** * \param portNum
 655:Generated_Source\PSoC6\pdl\drivers/peripheral/gpio/cy_gpio.h **** * Port number
 656:Generated_Source\PSoC6\pdl\drivers/peripheral/gpio/cy_gpio.h **** *
 657:Generated_Source\PSoC6\pdl\drivers/peripheral/gpio/cy_gpio.h **** * \return
 658:Generated_Source\PSoC6\pdl\drivers/peripheral/gpio/cy_gpio.h **** * Base address of the port register structure
 659:Generated_Source\PSoC6\pdl\drivers/peripheral/gpio/cy_gpio.h **** *
 660:Generated_Source\PSoC6\pdl\drivers/peripheral/gpio/cy_gpio.h **** * \funcusage
 661:Generated_Source\PSoC6\pdl\drivers/peripheral/gpio/cy_gpio.h **** * \snippet gpio/gpio_v1_10_sut_01.cydsn/main_cm4.c snippet_Cy_GPIO_PortToAddr
 662:Generated_Source\PSoC6\pdl\drivers/peripheral/gpio/cy_gpio.h **** *
 663:Generated_Source\PSoC6\pdl\drivers/peripheral/gpio/cy_gpio.h **** *******************************************************************************/
 664:Generated_Source\PSoC6\pdl\drivers/peripheral/gpio/cy_gpio.h **** __STATIC_INLINE GPIO_PRT_Type* Cy_GPIO_PortToAddr(uint32_t portNum)
 665:Generated_Source\PSoC6\pdl\drivers/peripheral/gpio/cy_gpio.h **** {
 666:Generated_Source\PSoC6\pdl\drivers/peripheral/gpio/cy_gpio.h ****     GPIO_PRT_Type* base;
 667:Generated_Source\PSoC6\pdl\drivers/peripheral/gpio/cy_gpio.h ****     
 668:Generated_Source\PSoC6\pdl\drivers/peripheral/gpio/cy_gpio.h ****     if(portNum < (uint32_t)IOSS_GPIO_GPIO_PORT_NR)
 669:Generated_Source\PSoC6\pdl\drivers/peripheral/gpio/cy_gpio.h ****     {
 670:Generated_Source\PSoC6\pdl\drivers/peripheral/gpio/cy_gpio.h ****          base = (GPIO_PRT_Type *)(GPIO_BASE + (GPIO_PRT_SECTION_SIZE * portNum));
 671:Generated_Source\PSoC6\pdl\drivers/peripheral/gpio/cy_gpio.h ****     }
 672:Generated_Source\PSoC6\pdl\drivers/peripheral/gpio/cy_gpio.h ****     else
 673:Generated_Source\PSoC6\pdl\drivers/peripheral/gpio/cy_gpio.h ****     {
 674:Generated_Source\PSoC6\pdl\drivers/peripheral/gpio/cy_gpio.h ****         /* Error: Return default base address */
 675:Generated_Source\PSoC6\pdl\drivers/peripheral/gpio/cy_gpio.h ****         base = (GPIO_PRT_Type *)(GPIO_BASE);
 676:Generated_Source\PSoC6\pdl\drivers/peripheral/gpio/cy_gpio.h ****     }
 677:Generated_Source\PSoC6\pdl\drivers/peripheral/gpio/cy_gpio.h **** 
 678:Generated_Source\PSoC6\pdl\drivers/peripheral/gpio/cy_gpio.h ****     return (base);
 679:Generated_Source\PSoC6\pdl\drivers/peripheral/gpio/cy_gpio.h **** }
 680:Generated_Source\PSoC6\pdl\drivers/peripheral/gpio/cy_gpio.h **** 
 681:Generated_Source\PSoC6\pdl\drivers/peripheral/gpio/cy_gpio.h **** /** \} group_gpio_functions_init */
 682:Generated_Source\PSoC6\pdl\drivers/peripheral/gpio/cy_gpio.h **** 
 683:Generated_Source\PSoC6\pdl\drivers/peripheral/gpio/cy_gpio.h **** /**
 684:Generated_Source\PSoC6\pdl\drivers/peripheral/gpio/cy_gpio.h **** * \addtogroup group_gpio_functions_gpio
 685:Generated_Source\PSoC6\pdl\drivers/peripheral/gpio/cy_gpio.h **** * \{
 686:Generated_Source\PSoC6\pdl\drivers/peripheral/gpio/cy_gpio.h **** */
 687:Generated_Source\PSoC6\pdl\drivers/peripheral/gpio/cy_gpio.h **** 
 688:Generated_Source\PSoC6\pdl\drivers/peripheral/gpio/cy_gpio.h **** /*******************************************************************************
 689:Generated_Source\PSoC6\pdl\drivers/peripheral/gpio/cy_gpio.h **** * Function Name: Cy_GPIO_Read
 690:Generated_Source\PSoC6\pdl\drivers/peripheral/gpio/cy_gpio.h **** ****************************************************************************//**
 691:Generated_Source\PSoC6\pdl\drivers/peripheral/gpio/cy_gpio.h **** *
 692:Generated_Source\PSoC6\pdl\drivers/peripheral/gpio/cy_gpio.h **** * \brief Reads the current logic level on the input buffer of the pin.
 693:Generated_Source\PSoC6\pdl\drivers/peripheral/gpio/cy_gpio.h **** *
 694:Generated_Source\PSoC6\pdl\drivers/peripheral/gpio/cy_gpio.h **** * \param base
ARM GAS  C:\Users\cypress\AppData\Local\Temp\ccxRek6y.s 			page 21


 695:Generated_Source\PSoC6\pdl\drivers/peripheral/gpio/cy_gpio.h **** * Pointer to the pin's port register base address
 696:Generated_Source\PSoC6\pdl\drivers/peripheral/gpio/cy_gpio.h **** *
 697:Generated_Source\PSoC6\pdl\drivers/peripheral/gpio/cy_gpio.h **** * \param pinNum
 698:Generated_Source\PSoC6\pdl\drivers/peripheral/gpio/cy_gpio.h **** * Position of the pin bit-field within the port register.
 699:Generated_Source\PSoC6\pdl\drivers/peripheral/gpio/cy_gpio.h **** * Bit position 8 is the routed pin through the port glitch filter.
 700:Generated_Source\PSoC6\pdl\drivers/peripheral/gpio/cy_gpio.h **** *
 701:Generated_Source\PSoC6\pdl\drivers/peripheral/gpio/cy_gpio.h **** * \return
 702:Generated_Source\PSoC6\pdl\drivers/peripheral/gpio/cy_gpio.h **** * Logic level present on the pin
 703:Generated_Source\PSoC6\pdl\drivers/peripheral/gpio/cy_gpio.h **** *
 704:Generated_Source\PSoC6\pdl\drivers/peripheral/gpio/cy_gpio.h **** * \funcusage
 705:Generated_Source\PSoC6\pdl\drivers/peripheral/gpio/cy_gpio.h **** * \snippet gpio/gpio_v1_10_sut_01.cydsn/main_cm4.c snippet_Cy_GPIO_Read
 706:Generated_Source\PSoC6\pdl\drivers/peripheral/gpio/cy_gpio.h **** *
 707:Generated_Source\PSoC6\pdl\drivers/peripheral/gpio/cy_gpio.h **** *******************************************************************************/
 708:Generated_Source\PSoC6\pdl\drivers/peripheral/gpio/cy_gpio.h **** __STATIC_INLINE uint32_t Cy_GPIO_Read(GPIO_PRT_Type* base, uint32_t pinNum)
 709:Generated_Source\PSoC6\pdl\drivers/peripheral/gpio/cy_gpio.h **** {
 710:Generated_Source\PSoC6\pdl\drivers/peripheral/gpio/cy_gpio.h ****     CY_ASSERT_L2(CY_GPIO_IS_FILTER_PIN_VALID(pinNum));
 711:Generated_Source\PSoC6\pdl\drivers/peripheral/gpio/cy_gpio.h ****     
 712:Generated_Source\PSoC6\pdl\drivers/peripheral/gpio/cy_gpio.h ****     return (base->IN >> (pinNum)) & CY_GPIO_IN_MASK;
 713:Generated_Source\PSoC6\pdl\drivers/peripheral/gpio/cy_gpio.h **** }
 714:Generated_Source\PSoC6\pdl\drivers/peripheral/gpio/cy_gpio.h **** 
 715:Generated_Source\PSoC6\pdl\drivers/peripheral/gpio/cy_gpio.h **** 
 716:Generated_Source\PSoC6\pdl\drivers/peripheral/gpio/cy_gpio.h **** /*******************************************************************************
 717:Generated_Source\PSoC6\pdl\drivers/peripheral/gpio/cy_gpio.h **** * Function Name: Cy_GPIO_Write
 718:Generated_Source\PSoC6\pdl\drivers/peripheral/gpio/cy_gpio.h **** ****************************************************************************//**
 719:Generated_Source\PSoC6\pdl\drivers/peripheral/gpio/cy_gpio.h **** *
 720:Generated_Source\PSoC6\pdl\drivers/peripheral/gpio/cy_gpio.h **** * \brief Write a logic 0 or logic 1 state to the output driver.
 721:Generated_Source\PSoC6\pdl\drivers/peripheral/gpio/cy_gpio.h **** *
 722:Generated_Source\PSoC6\pdl\drivers/peripheral/gpio/cy_gpio.h **** * This function should be used only for software driven pins. It does not have
 723:Generated_Source\PSoC6\pdl\drivers/peripheral/gpio/cy_gpio.h **** * any effect on peripheral driven pins.
 724:Generated_Source\PSoC6\pdl\drivers/peripheral/gpio/cy_gpio.h **** *
 725:Generated_Source\PSoC6\pdl\drivers/peripheral/gpio/cy_gpio.h **** * \param base
 726:Generated_Source\PSoC6\pdl\drivers/peripheral/gpio/cy_gpio.h **** * Pointer to the pin's port register base address
 727:Generated_Source\PSoC6\pdl\drivers/peripheral/gpio/cy_gpio.h **** *
 728:Generated_Source\PSoC6\pdl\drivers/peripheral/gpio/cy_gpio.h **** * \param pinNum
 729:Generated_Source\PSoC6\pdl\drivers/peripheral/gpio/cy_gpio.h **** * Position of the pin bit-field within the port register
 730:Generated_Source\PSoC6\pdl\drivers/peripheral/gpio/cy_gpio.h **** *
 731:Generated_Source\PSoC6\pdl\drivers/peripheral/gpio/cy_gpio.h **** * \param value
 732:Generated_Source\PSoC6\pdl\drivers/peripheral/gpio/cy_gpio.h **** * Logic level to drive out on the pin
 733:Generated_Source\PSoC6\pdl\drivers/peripheral/gpio/cy_gpio.h **** *
 734:Generated_Source\PSoC6\pdl\drivers/peripheral/gpio/cy_gpio.h **** * \return
 735:Generated_Source\PSoC6\pdl\drivers/peripheral/gpio/cy_gpio.h **** * void
 736:Generated_Source\PSoC6\pdl\drivers/peripheral/gpio/cy_gpio.h **** *
 737:Generated_Source\PSoC6\pdl\drivers/peripheral/gpio/cy_gpio.h **** * \funcusage
 738:Generated_Source\PSoC6\pdl\drivers/peripheral/gpio/cy_gpio.h **** * \snippet gpio/gpio_v1_10_sut_01.cydsn/main_cm4.c snippet_Cy_GPIO_Write
 739:Generated_Source\PSoC6\pdl\drivers/peripheral/gpio/cy_gpio.h **** *
 740:Generated_Source\PSoC6\pdl\drivers/peripheral/gpio/cy_gpio.h **** *******************************************************************************/
 741:Generated_Source\PSoC6\pdl\drivers/peripheral/gpio/cy_gpio.h **** __STATIC_INLINE void Cy_GPIO_Write(GPIO_PRT_Type* base, uint32_t pinNum, uint32_t value)
 742:Generated_Source\PSoC6\pdl\drivers/peripheral/gpio/cy_gpio.h **** {
 743:Generated_Source\PSoC6\pdl\drivers/peripheral/gpio/cy_gpio.h ****     CY_ASSERT_L2(CY_GPIO_IS_PIN_VALID(pinNum));
 744:Generated_Source\PSoC6\pdl\drivers/peripheral/gpio/cy_gpio.h ****     CY_ASSERT_L2(CY_GPIO_IS_VALUE_VALID(value));
 745:Generated_Source\PSoC6\pdl\drivers/peripheral/gpio/cy_gpio.h **** 
 746:Generated_Source\PSoC6\pdl\drivers/peripheral/gpio/cy_gpio.h ****     /* Thread-safe: Directly access the pin registers instead of base->OUT */
 747:Generated_Source\PSoC6\pdl\drivers/peripheral/gpio/cy_gpio.h ****     if(0UL == value)
 748:Generated_Source\PSoC6\pdl\drivers/peripheral/gpio/cy_gpio.h ****     {
 749:Generated_Source\PSoC6\pdl\drivers/peripheral/gpio/cy_gpio.h ****         base->OUT_CLR = CY_GPIO_OUT_MASK << pinNum;
 750:Generated_Source\PSoC6\pdl\drivers/peripheral/gpio/cy_gpio.h ****     }
 751:Generated_Source\PSoC6\pdl\drivers/peripheral/gpio/cy_gpio.h ****     else
ARM GAS  C:\Users\cypress\AppData\Local\Temp\ccxRek6y.s 			page 22


 752:Generated_Source\PSoC6\pdl\drivers/peripheral/gpio/cy_gpio.h ****     {
 753:Generated_Source\PSoC6\pdl\drivers/peripheral/gpio/cy_gpio.h ****         base->OUT_SET = CY_GPIO_OUT_MASK << pinNum;
  97              		.loc 4 753 0 discriminator 1
  98 002e DFF88480 		ldr	r8, .L4+24
  99 0032 4FF00809 		mov	r9, #8
 100 0036 C8F80890 		str	r9, [r8, #8]
 101              	.LVL6:
 102              	.LBE49:
 103              	.LBE48:
 104              	.LBB50:
 105              	.LBB51:
 749:Generated_Source\PSoC6\pdl\drivers/peripheral/gpio/cy_gpio.h ****     }
 106              		.loc 4 749 0 discriminator 1
 107 003a 1C4F     		ldr	r7, .L4+16
 108 003c 0224     		movs	r4, #2
 109 003e 7C60     		str	r4, [r7, #4]
 110              	.LVL7:
 111              	.LBE51:
 112              	.LBE50:
 113              	.LBB52:
 114              	.LBB53:
 115 0040 1B4E     		ldr	r6, .L4+20
 116 0042 7460     		str	r4, [r6, #4]
 117              	.LVL8:
 118              	.LBE53:
 119              	.LBE52:
 120              	.LBB54:
 121              	.LBB55:
 122              		.file 5 "Generated_Source\\PSoC6\\pdl\\drivers/peripheral/tcpwm/cy_tcpwm.h"
   1:Generated_Source\PSoC6\pdl\drivers/peripheral/tcpwm/cy_tcpwm.h **** /***************************************************************************//**
   2:Generated_Source\PSoC6\pdl\drivers/peripheral/tcpwm/cy_tcpwm.h **** * \file cy_tcpwm.h
   3:Generated_Source\PSoC6\pdl\drivers/peripheral/tcpwm/cy_tcpwm.h **** * \version 1.0.1
   4:Generated_Source\PSoC6\pdl\drivers/peripheral/tcpwm/cy_tcpwm.h **** *
   5:Generated_Source\PSoC6\pdl\drivers/peripheral/tcpwm/cy_tcpwm.h **** * The header file of the TCPWM driver.
   6:Generated_Source\PSoC6\pdl\drivers/peripheral/tcpwm/cy_tcpwm.h **** *
   7:Generated_Source\PSoC6\pdl\drivers/peripheral/tcpwm/cy_tcpwm.h **** ********************************************************************************
   8:Generated_Source\PSoC6\pdl\drivers/peripheral/tcpwm/cy_tcpwm.h **** * \copyright
   9:Generated_Source\PSoC6\pdl\drivers/peripheral/tcpwm/cy_tcpwm.h **** * Copyright 2016-2018, Cypress Semiconductor Corporation. All rights reserved.
  10:Generated_Source\PSoC6\pdl\drivers/peripheral/tcpwm/cy_tcpwm.h **** * You may use this file only in accordance with the license, terms, conditions,
  11:Generated_Source\PSoC6\pdl\drivers/peripheral/tcpwm/cy_tcpwm.h **** * disclaimers, and limitations in the end user license agreement accompanying
  12:Generated_Source\PSoC6\pdl\drivers/peripheral/tcpwm/cy_tcpwm.h **** * the software package with which this file was provided.
  13:Generated_Source\PSoC6\pdl\drivers/peripheral/tcpwm/cy_tcpwm.h **** *******************************************************************************/
  14:Generated_Source\PSoC6\pdl\drivers/peripheral/tcpwm/cy_tcpwm.h **** 
  15:Generated_Source\PSoC6\pdl\drivers/peripheral/tcpwm/cy_tcpwm.h **** /**
  16:Generated_Source\PSoC6\pdl\drivers/peripheral/tcpwm/cy_tcpwm.h **** * \defgroup group_tcpwm Timer Counter PWM (TCPWM)
  17:Generated_Source\PSoC6\pdl\drivers/peripheral/tcpwm/cy_tcpwm.h **** * \{
  18:Generated_Source\PSoC6\pdl\drivers/peripheral/tcpwm/cy_tcpwm.h **** * \defgroup group_tcpwm_common  Common
  19:Generated_Source\PSoC6\pdl\drivers/peripheral/tcpwm/cy_tcpwm.h **** * \defgroup group_tcpwm_counter Timer/Counter (TCPWM)
  20:Generated_Source\PSoC6\pdl\drivers/peripheral/tcpwm/cy_tcpwm.h **** * \defgroup group_tcpwm_pwm     PWM (TCPWM)
  21:Generated_Source\PSoC6\pdl\drivers/peripheral/tcpwm/cy_tcpwm.h **** * \defgroup group_tcpwm_quaddec Quadrature Decoder (TCPWM)
  22:Generated_Source\PSoC6\pdl\drivers/peripheral/tcpwm/cy_tcpwm.h **** * \} */
  23:Generated_Source\PSoC6\pdl\drivers/peripheral/tcpwm/cy_tcpwm.h **** 
  24:Generated_Source\PSoC6\pdl\drivers/peripheral/tcpwm/cy_tcpwm.h **** /**
  25:Generated_Source\PSoC6\pdl\drivers/peripheral/tcpwm/cy_tcpwm.h **** * \addtogroup group_tcpwm
  26:Generated_Source\PSoC6\pdl\drivers/peripheral/tcpwm/cy_tcpwm.h **** * \{
  27:Generated_Source\PSoC6\pdl\drivers/peripheral/tcpwm/cy_tcpwm.h **** * 
  28:Generated_Source\PSoC6\pdl\drivers/peripheral/tcpwm/cy_tcpwm.h **** * The TCPWM driver is a multifunction driver that implements Timer Counter, 
ARM GAS  C:\Users\cypress\AppData\Local\Temp\ccxRek6y.s 			page 23


  29:Generated_Source\PSoC6\pdl\drivers/peripheral/tcpwm/cy_tcpwm.h **** * PWM, and Quadrature Decoder functionality using the TCPWM block.
  30:Generated_Source\PSoC6\pdl\drivers/peripheral/tcpwm/cy_tcpwm.h **** *
  31:Generated_Source\PSoC6\pdl\drivers/peripheral/tcpwm/cy_tcpwm.h **** * Each TCPWM block is a collection of counters that can all be triggered 
  32:Generated_Source\PSoC6\pdl\drivers/peripheral/tcpwm/cy_tcpwm.h **** * simultaneously. For each function call, the base register address of 
  33:Generated_Source\PSoC6\pdl\drivers/peripheral/tcpwm/cy_tcpwm.h **** * the TCPWM being used must be passed first, followed by the index of 
  34:Generated_Source\PSoC6\pdl\drivers/peripheral/tcpwm/cy_tcpwm.h **** * the counter you want to touch next. 
  35:Generated_Source\PSoC6\pdl\drivers/peripheral/tcpwm/cy_tcpwm.h **** * For some functions, you can manage multiple counters simultaneously. You 
  36:Generated_Source\PSoC6\pdl\drivers/peripheral/tcpwm/cy_tcpwm.h **** * provide a bit field representing each counter, rather than the single counter 
  37:Generated_Source\PSoC6\pdl\drivers/peripheral/tcpwm/cy_tcpwm.h **** * index). 
  38:Generated_Source\PSoC6\pdl\drivers/peripheral/tcpwm/cy_tcpwm.h **** *
  39:Generated_Source\PSoC6\pdl\drivers/peripheral/tcpwm/cy_tcpwm.h **** * The TCPWM supports three operating modes:
  40:Generated_Source\PSoC6\pdl\drivers/peripheral/tcpwm/cy_tcpwm.h **** * * Timer/Counter
  41:Generated_Source\PSoC6\pdl\drivers/peripheral/tcpwm/cy_tcpwm.h **** * * PWM
  42:Generated_Source\PSoC6\pdl\drivers/peripheral/tcpwm/cy_tcpwm.h **** * * Quadrature Decoder
  43:Generated_Source\PSoC6\pdl\drivers/peripheral/tcpwm/cy_tcpwm.h **** *
  44:Generated_Source\PSoC6\pdl\drivers/peripheral/tcpwm/cy_tcpwm.h **** * \n
  45:Generated_Source\PSoC6\pdl\drivers/peripheral/tcpwm/cy_tcpwm.h **** * \b Timer/Counter
  46:Generated_Source\PSoC6\pdl\drivers/peripheral/tcpwm/cy_tcpwm.h **** *
  47:Generated_Source\PSoC6\pdl\drivers/peripheral/tcpwm/cy_tcpwm.h **** * Use this mode whenever a specific timing interval or measurement is 
  48:Generated_Source\PSoC6\pdl\drivers/peripheral/tcpwm/cy_tcpwm.h **** * needed. Examples include:
  49:Generated_Source\PSoC6\pdl\drivers/peripheral/tcpwm/cy_tcpwm.h **** * * Creating a periodic interrupt for running other system tasks
  50:Generated_Source\PSoC6\pdl\drivers/peripheral/tcpwm/cy_tcpwm.h **** * * Measuring frequency of an input signal
  51:Generated_Source\PSoC6\pdl\drivers/peripheral/tcpwm/cy_tcpwm.h **** * * Measuring pulse width of an input signal
  52:Generated_Source\PSoC6\pdl\drivers/peripheral/tcpwm/cy_tcpwm.h **** * * Measuring time between two external events
  53:Generated_Source\PSoC6\pdl\drivers/peripheral/tcpwm/cy_tcpwm.h **** * * Counting events
  54:Generated_Source\PSoC6\pdl\drivers/peripheral/tcpwm/cy_tcpwm.h **** * * Triggering other system resources after x number events
  55:Generated_Source\PSoC6\pdl\drivers/peripheral/tcpwm/cy_tcpwm.h **** * * Capturing time stamps when events occur
  56:Generated_Source\PSoC6\pdl\drivers/peripheral/tcpwm/cy_tcpwm.h **** *
  57:Generated_Source\PSoC6\pdl\drivers/peripheral/tcpwm/cy_tcpwm.h **** * The Timer/Counter has the following features:
  58:Generated_Source\PSoC6\pdl\drivers/peripheral/tcpwm/cy_tcpwm.h **** * * 16- or 32-bit Timer/Counter
  59:Generated_Source\PSoC6\pdl\drivers/peripheral/tcpwm/cy_tcpwm.h **** * * Programmable Period Register
  60:Generated_Source\PSoC6\pdl\drivers/peripheral/tcpwm/cy_tcpwm.h **** * * Programmable Compare Register. Compare value can be swapped with a 
  61:Generated_Source\PSoC6\pdl\drivers/peripheral/tcpwm/cy_tcpwm.h **** * buffered compare value on comparison event
  62:Generated_Source\PSoC6\pdl\drivers/peripheral/tcpwm/cy_tcpwm.h **** * * Capture with buffer register
  63:Generated_Source\PSoC6\pdl\drivers/peripheral/tcpwm/cy_tcpwm.h **** * * Count Up, Count Down, or Count Up and Down Counting modes
  64:Generated_Source\PSoC6\pdl\drivers/peripheral/tcpwm/cy_tcpwm.h **** * * Continuous or One Shot Run modes
  65:Generated_Source\PSoC6\pdl\drivers/peripheral/tcpwm/cy_tcpwm.h **** * * Interrupt and Output on Overflow, Underflow, Capture, or Compare 
  66:Generated_Source\PSoC6\pdl\drivers/peripheral/tcpwm/cy_tcpwm.h **** * * Start, Reload, Stop, Capture, and Count Inputs
  67:Generated_Source\PSoC6\pdl\drivers/peripheral/tcpwm/cy_tcpwm.h **** *
  68:Generated_Source\PSoC6\pdl\drivers/peripheral/tcpwm/cy_tcpwm.h **** * \n
  69:Generated_Source\PSoC6\pdl\drivers/peripheral/tcpwm/cy_tcpwm.h **** * \b PWM
  70:Generated_Source\PSoC6\pdl\drivers/peripheral/tcpwm/cy_tcpwm.h **** *
  71:Generated_Source\PSoC6\pdl\drivers/peripheral/tcpwm/cy_tcpwm.h **** * Use this mode when an output square wave is needed with a specific 
  72:Generated_Source\PSoC6\pdl\drivers/peripheral/tcpwm/cy_tcpwm.h **** * period and duty cycle, such as:
  73:Generated_Source\PSoC6\pdl\drivers/peripheral/tcpwm/cy_tcpwm.h **** * * Creating arbitrary square wave outputs
  74:Generated_Source\PSoC6\pdl\drivers/peripheral/tcpwm/cy_tcpwm.h **** * * Driving an LED (changing the brightness)
  75:Generated_Source\PSoC6\pdl\drivers/peripheral/tcpwm/cy_tcpwm.h **** * * Driving Motors (dead time assertion available)
  76:Generated_Source\PSoC6\pdl\drivers/peripheral/tcpwm/cy_tcpwm.h **** *
  77:Generated_Source\PSoC6\pdl\drivers/peripheral/tcpwm/cy_tcpwm.h **** * The PWM has the following features:
  78:Generated_Source\PSoC6\pdl\drivers/peripheral/tcpwm/cy_tcpwm.h **** * * 16- or 32-bit Counter
  79:Generated_Source\PSoC6\pdl\drivers/peripheral/tcpwm/cy_tcpwm.h **** * * Two Programmable Period registers that can be swapped
  80:Generated_Source\PSoC6\pdl\drivers/peripheral/tcpwm/cy_tcpwm.h **** * * Two Output Compare registers that can be swapped on overflow and/or 
  81:Generated_Source\PSoC6\pdl\drivers/peripheral/tcpwm/cy_tcpwm.h **** * underflow
  82:Generated_Source\PSoC6\pdl\drivers/peripheral/tcpwm/cy_tcpwm.h **** * * Left Aligned, Right Aligned, Center Aligned, and Asymmetric Aligned modes
  83:Generated_Source\PSoC6\pdl\drivers/peripheral/tcpwm/cy_tcpwm.h **** * * Continuous or One Shot run modes
  84:Generated_Source\PSoC6\pdl\drivers/peripheral/tcpwm/cy_tcpwm.h **** * * Pseudo Random mode
  85:Generated_Source\PSoC6\pdl\drivers/peripheral/tcpwm/cy_tcpwm.h **** * * Two PWM outputs with Dead Time insertion, and programmable polarity
ARM GAS  C:\Users\cypress\AppData\Local\Temp\ccxRek6y.s 			page 24


  86:Generated_Source\PSoC6\pdl\drivers/peripheral/tcpwm/cy_tcpwm.h **** * * Interrupt and Output on Overflow, Underflow, or Compare 
  87:Generated_Source\PSoC6\pdl\drivers/peripheral/tcpwm/cy_tcpwm.h **** * * Start, Reload, Stop, Swap (Capture), and Count Inputs
  88:Generated_Source\PSoC6\pdl\drivers/peripheral/tcpwm/cy_tcpwm.h **** * * Multiple Components can be synchronized together for applications 
  89:Generated_Source\PSoC6\pdl\drivers/peripheral/tcpwm/cy_tcpwm.h **** * such as three phase motor control
  90:Generated_Source\PSoC6\pdl\drivers/peripheral/tcpwm/cy_tcpwm.h **** *
  91:Generated_Source\PSoC6\pdl\drivers/peripheral/tcpwm/cy_tcpwm.h **** * \n
  92:Generated_Source\PSoC6\pdl\drivers/peripheral/tcpwm/cy_tcpwm.h **** * \b Quadrature \b Decoder
  93:Generated_Source\PSoC6\pdl\drivers/peripheral/tcpwm/cy_tcpwm.h **** *
  94:Generated_Source\PSoC6\pdl\drivers/peripheral/tcpwm/cy_tcpwm.h **** * A quadrature decoder is used to decode the output of a quadrature encoder. 
  95:Generated_Source\PSoC6\pdl\drivers/peripheral/tcpwm/cy_tcpwm.h **** * A quadrature encoder senses the position, velocity, and direction of 
  96:Generated_Source\PSoC6\pdl\drivers/peripheral/tcpwm/cy_tcpwm.h **** * an object (for example a rotating axle, or a spinning mouse ball). 
  97:Generated_Source\PSoC6\pdl\drivers/peripheral/tcpwm/cy_tcpwm.h **** * A quadrature decoder can also be used for precision measurement of speed, 
  98:Generated_Source\PSoC6\pdl\drivers/peripheral/tcpwm/cy_tcpwm.h **** * acceleration, and position of a motor's rotor, or with a rotary switch to 
  99:Generated_Source\PSoC6\pdl\drivers/peripheral/tcpwm/cy_tcpwm.h **** * determine user input. \n
 100:Generated_Source\PSoC6\pdl\drivers/peripheral/tcpwm/cy_tcpwm.h **** * 
 101:Generated_Source\PSoC6\pdl\drivers/peripheral/tcpwm/cy_tcpwm.h **** * The Quadrature Decoder has the following features:
 102:Generated_Source\PSoC6\pdl\drivers/peripheral/tcpwm/cy_tcpwm.h **** * * 16- or 32-bit Counter
 103:Generated_Source\PSoC6\pdl\drivers/peripheral/tcpwm/cy_tcpwm.h **** * * Counter Resolution of x1, x2, and x4 the frequency of the phiA (Count) and 
 104:Generated_Source\PSoC6\pdl\drivers/peripheral/tcpwm/cy_tcpwm.h **** * phiB (Start) inputs
 105:Generated_Source\PSoC6\pdl\drivers/peripheral/tcpwm/cy_tcpwm.h **** * * Index Input to determine absolute position
 106:Generated_Source\PSoC6\pdl\drivers/peripheral/tcpwm/cy_tcpwm.h **** * * A positive edge on phiA increments the counter when phiB is 0 and decrements
 107:Generated_Source\PSoC6\pdl\drivers/peripheral/tcpwm/cy_tcpwm.h **** * the counter when phiB is 1
 108:Generated_Source\PSoC6\pdl\drivers/peripheral/tcpwm/cy_tcpwm.h **** *
 109:Generated_Source\PSoC6\pdl\drivers/peripheral/tcpwm/cy_tcpwm.h **** * \section group_tcpwm_configuration Configuration Considerations
 110:Generated_Source\PSoC6\pdl\drivers/peripheral/tcpwm/cy_tcpwm.h **** *
 111:Generated_Source\PSoC6\pdl\drivers/peripheral/tcpwm/cy_tcpwm.h **** * For each mode, the TCPWM driver has a configuration structure, an Init 
 112:Generated_Source\PSoC6\pdl\drivers/peripheral/tcpwm/cy_tcpwm.h **** * function, and an Enable function. 
 113:Generated_Source\PSoC6\pdl\drivers/peripheral/tcpwm/cy_tcpwm.h **** *
 114:Generated_Source\PSoC6\pdl\drivers/peripheral/tcpwm/cy_tcpwm.h **** * Provide the configuration parameters in the appropriate structure (see
 115:Generated_Source\PSoC6\pdl\drivers/peripheral/tcpwm/cy_tcpwm.h **** * Counter \ref group_tcpwm_data_structures_counter, PWM 
 116:Generated_Source\PSoC6\pdl\drivers/peripheral/tcpwm/cy_tcpwm.h **** * \ref group_tcpwm_data_structures_pwm, or QuadDec 
 117:Generated_Source\PSoC6\pdl\drivers/peripheral/tcpwm/cy_tcpwm.h **** * \ref group_tcpwm_data_structures_quaddec). 
 118:Generated_Source\PSoC6\pdl\drivers/peripheral/tcpwm/cy_tcpwm.h **** * Then call the appropriate Init function: 
 119:Generated_Source\PSoC6\pdl\drivers/peripheral/tcpwm/cy_tcpwm.h **** * \ref Cy_TCPWM_Counter_Init, \ref Cy_TCPWM_PWM_Init, or 
 120:Generated_Source\PSoC6\pdl\drivers/peripheral/tcpwm/cy_tcpwm.h **** * \ref Cy_TCPWM_QuadDec_Init. Provide the address of the filled structure as a 
 121:Generated_Source\PSoC6\pdl\drivers/peripheral/tcpwm/cy_tcpwm.h **** * parameter. To enable the counter, call the appropriate Enable function: 
 122:Generated_Source\PSoC6\pdl\drivers/peripheral/tcpwm/cy_tcpwm.h **** * \ref Cy_TCPWM_Counter_Enable, \ref Cy_TCPWM_PWM_Enable, or 
 123:Generated_Source\PSoC6\pdl\drivers/peripheral/tcpwm/cy_tcpwm.h **** * \ref Cy_TCPWM_QuadDec_Enable).
 124:Generated_Source\PSoC6\pdl\drivers/peripheral/tcpwm/cy_tcpwm.h **** *
 125:Generated_Source\PSoC6\pdl\drivers/peripheral/tcpwm/cy_tcpwm.h **** * Many functions work with an individual counter. You can also manage multiple 
 126:Generated_Source\PSoC6\pdl\drivers/peripheral/tcpwm/cy_tcpwm.h **** * counters simultaneously for certain functions. These are listed in the 
 127:Generated_Source\PSoC6\pdl\drivers/peripheral/tcpwm/cy_tcpwm.h **** * \ref group_tcpwm_functions_common 
 128:Generated_Source\PSoC6\pdl\drivers/peripheral/tcpwm/cy_tcpwm.h **** * section of the TCPWM. You can enable, disable, or trigger (in various ways) 
 129:Generated_Source\PSoC6\pdl\drivers/peripheral/tcpwm/cy_tcpwm.h **** * multiple counters simultaneously. For these functions you provide a bit field 
 130:Generated_Source\PSoC6\pdl\drivers/peripheral/tcpwm/cy_tcpwm.h **** * representing each counter in the TCPWM you want to control. You can 
 131:Generated_Source\PSoC6\pdl\drivers/peripheral/tcpwm/cy_tcpwm.h **** * represent the bit field as an ORed mask of each counter, like 
 132:Generated_Source\PSoC6\pdl\drivers/peripheral/tcpwm/cy_tcpwm.h **** * ((1U << cntNumX) | (1U << cntNumX) | (1U << cntNumX)), where X is the counter 
 133:Generated_Source\PSoC6\pdl\drivers/peripheral/tcpwm/cy_tcpwm.h **** * number from 0 to 31.
 134:Generated_Source\PSoC6\pdl\drivers/peripheral/tcpwm/cy_tcpwm.h **** *
 135:Generated_Source\PSoC6\pdl\drivers/peripheral/tcpwm/cy_tcpwm.h **** * \note
 136:Generated_Source\PSoC6\pdl\drivers/peripheral/tcpwm/cy_tcpwm.h **** * * If none of the input terminals (start, reload(index)) are used, the 
 137:Generated_Source\PSoC6\pdl\drivers/peripheral/tcpwm/cy_tcpwm.h **** * software event \ref Cy_TCPWM_TriggerStart or 
 138:Generated_Source\PSoC6\pdl\drivers/peripheral/tcpwm/cy_tcpwm.h **** * \ref Cy_TCPWM_TriggerReloadOrIndex must be called to start the counting.
 139:Generated_Source\PSoC6\pdl\drivers/peripheral/tcpwm/cy_tcpwm.h **** * * If count input terminal is not used, the \ref CY_TCPWM_INPUT_LEVEL macro 
 140:Generated_Source\PSoC6\pdl\drivers/peripheral/tcpwm/cy_tcpwm.h **** * should be set for the countInputMode parameter and the \ref CY_TCPWM_INPUT_1 
 141:Generated_Source\PSoC6\pdl\drivers/peripheral/tcpwm/cy_tcpwm.h **** * macro should be set for the countInputMode parameter in the configuration 
 142:Generated_Source\PSoC6\pdl\drivers/peripheral/tcpwm/cy_tcpwm.h **** * structure of the appropriate mode(Counter 
ARM GAS  C:\Users\cypress\AppData\Local\Temp\ccxRek6y.s 			page 25


 143:Generated_Source\PSoC6\pdl\drivers/peripheral/tcpwm/cy_tcpwm.h **** * \ref group_tcpwm_data_structures_counter, PWM 
 144:Generated_Source\PSoC6\pdl\drivers/peripheral/tcpwm/cy_tcpwm.h **** * \ref group_tcpwm_data_structures_pwm, or QuadDec 
 145:Generated_Source\PSoC6\pdl\drivers/peripheral/tcpwm/cy_tcpwm.h **** * \ref group_tcpwm_data_structures_quaddec).
 146:Generated_Source\PSoC6\pdl\drivers/peripheral/tcpwm/cy_tcpwm.h **** *
 147:Generated_Source\PSoC6\pdl\drivers/peripheral/tcpwm/cy_tcpwm.h **** * \section group_tcpwm_more_information More Information
 148:Generated_Source\PSoC6\pdl\drivers/peripheral/tcpwm/cy_tcpwm.h **** *
 149:Generated_Source\PSoC6\pdl\drivers/peripheral/tcpwm/cy_tcpwm.h **** * For more information on the TCPWM peripheral, refer to the technical 
 150:Generated_Source\PSoC6\pdl\drivers/peripheral/tcpwm/cy_tcpwm.h **** * reference manual (TRM).
 151:Generated_Source\PSoC6\pdl\drivers/peripheral/tcpwm/cy_tcpwm.h **** *
 152:Generated_Source\PSoC6\pdl\drivers/peripheral/tcpwm/cy_tcpwm.h **** * \section group_tcpwm_MISRA MISRA-C Compliance 
 153:Generated_Source\PSoC6\pdl\drivers/peripheral/tcpwm/cy_tcpwm.h **** * <table class="doxtable">
 154:Generated_Source\PSoC6\pdl\drivers/peripheral/tcpwm/cy_tcpwm.h **** *   <tr>
 155:Generated_Source\PSoC6\pdl\drivers/peripheral/tcpwm/cy_tcpwm.h **** *     <th>MISRA Rule</th>
 156:Generated_Source\PSoC6\pdl\drivers/peripheral/tcpwm/cy_tcpwm.h **** *     <th>Rule Class (Required/Advisory)</th>
 157:Generated_Source\PSoC6\pdl\drivers/peripheral/tcpwm/cy_tcpwm.h **** *     <th>Rule Description</th>
 158:Generated_Source\PSoC6\pdl\drivers/peripheral/tcpwm/cy_tcpwm.h **** *     <th>Description of Deviation(s)</th>
 159:Generated_Source\PSoC6\pdl\drivers/peripheral/tcpwm/cy_tcpwm.h **** *   </tr>
 160:Generated_Source\PSoC6\pdl\drivers/peripheral/tcpwm/cy_tcpwm.h **** *   <tr>
 161:Generated_Source\PSoC6\pdl\drivers/peripheral/tcpwm/cy_tcpwm.h **** *     <td>14.2</td>
 162:Generated_Source\PSoC6\pdl\drivers/peripheral/tcpwm/cy_tcpwm.h **** *     <td>R</td>
 163:Generated_Source\PSoC6\pdl\drivers/peripheral/tcpwm/cy_tcpwm.h **** *     <td>All non-null statements shall either: a) have at least one side-effect
 164:Generated_Source\PSoC6\pdl\drivers/peripheral/tcpwm/cy_tcpwm.h **** *         however executed, or b) cause control flow to change.</td>
 165:Generated_Source\PSoC6\pdl\drivers/peripheral/tcpwm/cy_tcpwm.h **** *     <td>The unused function parameters are cast to void. This statement
 166:Generated_Source\PSoC6\pdl\drivers/peripheral/tcpwm/cy_tcpwm.h **** *         has no side-effect and is used to suppress a compiler warning.</td>
 167:Generated_Source\PSoC6\pdl\drivers/peripheral/tcpwm/cy_tcpwm.h **** *   </tr>
 168:Generated_Source\PSoC6\pdl\drivers/peripheral/tcpwm/cy_tcpwm.h **** * </table>
 169:Generated_Source\PSoC6\pdl\drivers/peripheral/tcpwm/cy_tcpwm.h **** *
 170:Generated_Source\PSoC6\pdl\drivers/peripheral/tcpwm/cy_tcpwm.h **** * \section group_tcpwm_changelog Changelog
 171:Generated_Source\PSoC6\pdl\drivers/peripheral/tcpwm/cy_tcpwm.h **** * <table class="doxtable">
 172:Generated_Source\PSoC6\pdl\drivers/peripheral/tcpwm/cy_tcpwm.h **** *   <tr><th>Version</th><th>Changes</th><th>Reason for Change</th></tr>
 173:Generated_Source\PSoC6\pdl\drivers/peripheral/tcpwm/cy_tcpwm.h **** *   <tr>
 174:Generated_Source\PSoC6\pdl\drivers/peripheral/tcpwm/cy_tcpwm.h **** *     <td>1.0.1</td>
 175:Generated_Source\PSoC6\pdl\drivers/peripheral/tcpwm/cy_tcpwm.h **** *     <td>Added a deviation to the MISRA Compliance section.
 176:Generated_Source\PSoC6\pdl\drivers/peripheral/tcpwm/cy_tcpwm.h **** *         Added function-level code snippets.</td>
 177:Generated_Source\PSoC6\pdl\drivers/peripheral/tcpwm/cy_tcpwm.h **** *     <td>Documentation update and clarification</td>
 178:Generated_Source\PSoC6\pdl\drivers/peripheral/tcpwm/cy_tcpwm.h **** *   </tr>
 179:Generated_Source\PSoC6\pdl\drivers/peripheral/tcpwm/cy_tcpwm.h **** *   <tr>
 180:Generated_Source\PSoC6\pdl\drivers/peripheral/tcpwm/cy_tcpwm.h **** *     <td>1.0</td>
 181:Generated_Source\PSoC6\pdl\drivers/peripheral/tcpwm/cy_tcpwm.h **** *     <td>Initial version</td>
 182:Generated_Source\PSoC6\pdl\drivers/peripheral/tcpwm/cy_tcpwm.h **** *     <td></td>
 183:Generated_Source\PSoC6\pdl\drivers/peripheral/tcpwm/cy_tcpwm.h **** *   </tr>
 184:Generated_Source\PSoC6\pdl\drivers/peripheral/tcpwm/cy_tcpwm.h **** * </table>
 185:Generated_Source\PSoC6\pdl\drivers/peripheral/tcpwm/cy_tcpwm.h **** */
 186:Generated_Source\PSoC6\pdl\drivers/peripheral/tcpwm/cy_tcpwm.h **** 
 187:Generated_Source\PSoC6\pdl\drivers/peripheral/tcpwm/cy_tcpwm.h **** /** \} group_tcpwm */
 188:Generated_Source\PSoC6\pdl\drivers/peripheral/tcpwm/cy_tcpwm.h **** 
 189:Generated_Source\PSoC6\pdl\drivers/peripheral/tcpwm/cy_tcpwm.h **** /**
 190:Generated_Source\PSoC6\pdl\drivers/peripheral/tcpwm/cy_tcpwm.h **** * \addtogroup group_tcpwm_common
 191:Generated_Source\PSoC6\pdl\drivers/peripheral/tcpwm/cy_tcpwm.h **** * Common API for the Timer Counter PWM Block.
 192:Generated_Source\PSoC6\pdl\drivers/peripheral/tcpwm/cy_tcpwm.h **** * \{
 193:Generated_Source\PSoC6\pdl\drivers/peripheral/tcpwm/cy_tcpwm.h **** * \defgroup group_tcpwm_macros_common           Macros
 194:Generated_Source\PSoC6\pdl\drivers/peripheral/tcpwm/cy_tcpwm.h **** * \defgroup group_tcpwm_functions_common        Functions
 195:Generated_Source\PSoC6\pdl\drivers/peripheral/tcpwm/cy_tcpwm.h **** * \defgroup group_tcpwm_data_structures_common  Data Structures
 196:Generated_Source\PSoC6\pdl\drivers/peripheral/tcpwm/cy_tcpwm.h **** * \defgroup group_tcpwm_enums Enumerated Types
 197:Generated_Source\PSoC6\pdl\drivers/peripheral/tcpwm/cy_tcpwm.h **** */
 198:Generated_Source\PSoC6\pdl\drivers/peripheral/tcpwm/cy_tcpwm.h **** 
 199:Generated_Source\PSoC6\pdl\drivers/peripheral/tcpwm/cy_tcpwm.h **** 
ARM GAS  C:\Users\cypress\AppData\Local\Temp\ccxRek6y.s 			page 26


 200:Generated_Source\PSoC6\pdl\drivers/peripheral/tcpwm/cy_tcpwm.h **** #if !defined(CY_TCPWM_H)
 201:Generated_Source\PSoC6\pdl\drivers/peripheral/tcpwm/cy_tcpwm.h **** #define CY_TCPWM_H
 202:Generated_Source\PSoC6\pdl\drivers/peripheral/tcpwm/cy_tcpwm.h **** 
 203:Generated_Source\PSoC6\pdl\drivers/peripheral/tcpwm/cy_tcpwm.h **** #include <stdint.h>
 204:Generated_Source\PSoC6\pdl\drivers/peripheral/tcpwm/cy_tcpwm.h **** #include <stdbool.h>
 205:Generated_Source\PSoC6\pdl\drivers/peripheral/tcpwm/cy_tcpwm.h **** #include <stddef.h>
 206:Generated_Source\PSoC6\pdl\drivers/peripheral/tcpwm/cy_tcpwm.h **** #include "syslib/cy_syslib.h"
 207:Generated_Source\PSoC6\pdl\drivers/peripheral/tcpwm/cy_tcpwm.h **** #include "cy_device_headers.h"
 208:Generated_Source\PSoC6\pdl\drivers/peripheral/tcpwm/cy_tcpwm.h **** 
 209:Generated_Source\PSoC6\pdl\drivers/peripheral/tcpwm/cy_tcpwm.h **** #ifndef CY_IP_MXTCPWM
 210:Generated_Source\PSoC6\pdl\drivers/peripheral/tcpwm/cy_tcpwm.h ****     #error "The TCPWM driver is not supported on this device"
 211:Generated_Source\PSoC6\pdl\drivers/peripheral/tcpwm/cy_tcpwm.h **** #endif
 212:Generated_Source\PSoC6\pdl\drivers/peripheral/tcpwm/cy_tcpwm.h **** 
 213:Generated_Source\PSoC6\pdl\drivers/peripheral/tcpwm/cy_tcpwm.h **** #if defined(__cplusplus)
 214:Generated_Source\PSoC6\pdl\drivers/peripheral/tcpwm/cy_tcpwm.h **** extern "C" {
 215:Generated_Source\PSoC6\pdl\drivers/peripheral/tcpwm/cy_tcpwm.h **** #endif
 216:Generated_Source\PSoC6\pdl\drivers/peripheral/tcpwm/cy_tcpwm.h **** 
 217:Generated_Source\PSoC6\pdl\drivers/peripheral/tcpwm/cy_tcpwm.h **** /**
 218:Generated_Source\PSoC6\pdl\drivers/peripheral/tcpwm/cy_tcpwm.h **** * \addtogroup group_tcpwm_macros_common
 219:Generated_Source\PSoC6\pdl\drivers/peripheral/tcpwm/cy_tcpwm.h **** * \{
 220:Generated_Source\PSoC6\pdl\drivers/peripheral/tcpwm/cy_tcpwm.h **** */
 221:Generated_Source\PSoC6\pdl\drivers/peripheral/tcpwm/cy_tcpwm.h **** 
 222:Generated_Source\PSoC6\pdl\drivers/peripheral/tcpwm/cy_tcpwm.h **** /** Driver major version */
 223:Generated_Source\PSoC6\pdl\drivers/peripheral/tcpwm/cy_tcpwm.h **** #define CY_TCPWM_DRV_VERSION_MAJOR       1
 224:Generated_Source\PSoC6\pdl\drivers/peripheral/tcpwm/cy_tcpwm.h **** 
 225:Generated_Source\PSoC6\pdl\drivers/peripheral/tcpwm/cy_tcpwm.h **** /** Driver minor version */
 226:Generated_Source\PSoC6\pdl\drivers/peripheral/tcpwm/cy_tcpwm.h **** #define CY_TCPWM_DRV_VERSION_MINOR       0
 227:Generated_Source\PSoC6\pdl\drivers/peripheral/tcpwm/cy_tcpwm.h **** 
 228:Generated_Source\PSoC6\pdl\drivers/peripheral/tcpwm/cy_tcpwm.h **** 
 229:Generated_Source\PSoC6\pdl\drivers/peripheral/tcpwm/cy_tcpwm.h **** /******************************************************************************
 230:Generated_Source\PSoC6\pdl\drivers/peripheral/tcpwm/cy_tcpwm.h **** * API Constants
 231:Generated_Source\PSoC6\pdl\drivers/peripheral/tcpwm/cy_tcpwm.h **** ******************************************************************************/
 232:Generated_Source\PSoC6\pdl\drivers/peripheral/tcpwm/cy_tcpwm.h **** 
 233:Generated_Source\PSoC6\pdl\drivers/peripheral/tcpwm/cy_tcpwm.h **** /** TCPWM driver identifier */
 234:Generated_Source\PSoC6\pdl\drivers/peripheral/tcpwm/cy_tcpwm.h **** #define CY_TCPWM_ID                     (CY_PDL_DRV_ID(0x2DU))
 235:Generated_Source\PSoC6\pdl\drivers/peripheral/tcpwm/cy_tcpwm.h **** 
 236:Generated_Source\PSoC6\pdl\drivers/peripheral/tcpwm/cy_tcpwm.h **** /** \defgroup group_tcpwm_input_selection  TCPWM Input Selection
 237:Generated_Source\PSoC6\pdl\drivers/peripheral/tcpwm/cy_tcpwm.h **** * \{
 238:Generated_Source\PSoC6\pdl\drivers/peripheral/tcpwm/cy_tcpwm.h **** * Selects which input to use
 239:Generated_Source\PSoC6\pdl\drivers/peripheral/tcpwm/cy_tcpwm.h **** */
 240:Generated_Source\PSoC6\pdl\drivers/peripheral/tcpwm/cy_tcpwm.h **** #define CY_TCPWM_INPUT_0                (0U)  /**< Input is tied to logic 0 */
 241:Generated_Source\PSoC6\pdl\drivers/peripheral/tcpwm/cy_tcpwm.h **** #define CY_TCPWM_INPUT_1                (1U)  /**< Input is tied to logic 1 */
 242:Generated_Source\PSoC6\pdl\drivers/peripheral/tcpwm/cy_tcpwm.h **** #define CY_TCPWM_INPUT_TRIG_0           (2U)  /**< Input is connected to the trigger input 0 */
 243:Generated_Source\PSoC6\pdl\drivers/peripheral/tcpwm/cy_tcpwm.h **** #define CY_TCPWM_INPUT_TRIG_1           (3U)  /**< Input is connected to the trigger input 1 */
 244:Generated_Source\PSoC6\pdl\drivers/peripheral/tcpwm/cy_tcpwm.h **** #define CY_TCPWM_INPUT_TRIG_2           (4U)  /**< Input is connected to the trigger input 2 */
 245:Generated_Source\PSoC6\pdl\drivers/peripheral/tcpwm/cy_tcpwm.h **** #define CY_TCPWM_INPUT_TRIG_3           (5U)  /**< Input is connected to the trigger input 3 */
 246:Generated_Source\PSoC6\pdl\drivers/peripheral/tcpwm/cy_tcpwm.h **** #define CY_TCPWM_INPUT_TRIG_4           (6U)  /**< Input is connected to the trigger input 4 */
 247:Generated_Source\PSoC6\pdl\drivers/peripheral/tcpwm/cy_tcpwm.h **** #define CY_TCPWM_INPUT_TRIG_5           (7U)  /**< Input is connected to the trigger input 5 */
 248:Generated_Source\PSoC6\pdl\drivers/peripheral/tcpwm/cy_tcpwm.h **** #define CY_TCPWM_INPUT_TRIG_6           (8U)  /**< Input is connected to the trigger input 6 */
 249:Generated_Source\PSoC6\pdl\drivers/peripheral/tcpwm/cy_tcpwm.h **** #define CY_TCPWM_INPUT_TRIG_7           (9U)  /**< Input is connected to the trigger input 7 */
 250:Generated_Source\PSoC6\pdl\drivers/peripheral/tcpwm/cy_tcpwm.h **** #define CY_TCPWM_INPUT_TRIG_8           (10U) /**< Input is connected to the trigger input 8 */
 251:Generated_Source\PSoC6\pdl\drivers/peripheral/tcpwm/cy_tcpwm.h **** #define CY_TCPWM_INPUT_TRIG_9           (11U) /**< Input is connected to the trigger input 9 */
 252:Generated_Source\PSoC6\pdl\drivers/peripheral/tcpwm/cy_tcpwm.h **** #define CY_TCPWM_INPUT_TRIG_10          (12U) /**< Input is connected to the trigger input 10 */
 253:Generated_Source\PSoC6\pdl\drivers/peripheral/tcpwm/cy_tcpwm.h **** #define CY_TCPWM_INPUT_TRIG_11          (13U) /**< Input is connected to the trigger input 11 */
 254:Generated_Source\PSoC6\pdl\drivers/peripheral/tcpwm/cy_tcpwm.h **** #define CY_TCPWM_INPUT_TRIG_12          (14U) /**< Input is connected to the trigger input 12 */
 255:Generated_Source\PSoC6\pdl\drivers/peripheral/tcpwm/cy_tcpwm.h **** #define CY_TCPWM_INPUT_TRIG_13          (15U) /**< Input is connected to the trigger input 13 */
 256:Generated_Source\PSoC6\pdl\drivers/peripheral/tcpwm/cy_tcpwm.h **** 
ARM GAS  C:\Users\cypress\AppData\Local\Temp\ccxRek6y.s 			page 27


 257:Generated_Source\PSoC6\pdl\drivers/peripheral/tcpwm/cy_tcpwm.h **** /** Input is defined by Creator, and Init() function does not need to configure input */
 258:Generated_Source\PSoC6\pdl\drivers/peripheral/tcpwm/cy_tcpwm.h **** #define CY_TCPWM_INPUT_CREATOR          (0xFFFFFFFFU)
 259:Generated_Source\PSoC6\pdl\drivers/peripheral/tcpwm/cy_tcpwm.h **** /** \} group_tcpwm_input_selection */
 260:Generated_Source\PSoC6\pdl\drivers/peripheral/tcpwm/cy_tcpwm.h **** 
 261:Generated_Source\PSoC6\pdl\drivers/peripheral/tcpwm/cy_tcpwm.h **** /**
 262:Generated_Source\PSoC6\pdl\drivers/peripheral/tcpwm/cy_tcpwm.h **** * \defgroup group_tcpwm_input_modes  Input Modes
 263:Generated_Source\PSoC6\pdl\drivers/peripheral/tcpwm/cy_tcpwm.h **** * \{
 264:Generated_Source\PSoC6\pdl\drivers/peripheral/tcpwm/cy_tcpwm.h **** * Configures how TCPWM inputs behave
 265:Generated_Source\PSoC6\pdl\drivers/peripheral/tcpwm/cy_tcpwm.h **** */
 266:Generated_Source\PSoC6\pdl\drivers/peripheral/tcpwm/cy_tcpwm.h **** /** A rising edge triggers the event (Capture, Start, Reload, etc..) */
 267:Generated_Source\PSoC6\pdl\drivers/peripheral/tcpwm/cy_tcpwm.h **** #define CY_TCPWM_INPUT_RISINGEDGE       (0U)
 268:Generated_Source\PSoC6\pdl\drivers/peripheral/tcpwm/cy_tcpwm.h **** /** A falling edge triggers the event (Capture, Start, Reload, etc..) */
 269:Generated_Source\PSoC6\pdl\drivers/peripheral/tcpwm/cy_tcpwm.h **** #define CY_TCPWM_INPUT_FALLINGEDGE      (1U)
 270:Generated_Source\PSoC6\pdl\drivers/peripheral/tcpwm/cy_tcpwm.h **** /** A rising edge or falling edge triggers the event (Capture, Start, Reload, etc..) */
 271:Generated_Source\PSoC6\pdl\drivers/peripheral/tcpwm/cy_tcpwm.h **** #define CY_TCPWM_INPUT_EITHEREDGE       (2U)
 272:Generated_Source\PSoC6\pdl\drivers/peripheral/tcpwm/cy_tcpwm.h **** /** The event is triggered on each edge of the TCPWM clock if the input is high */
 273:Generated_Source\PSoC6\pdl\drivers/peripheral/tcpwm/cy_tcpwm.h **** #define CY_TCPWM_INPUT_LEVEL            (3U)
 274:Generated_Source\PSoC6\pdl\drivers/peripheral/tcpwm/cy_tcpwm.h **** /** \} group_tcpwm_input_modes */
 275:Generated_Source\PSoC6\pdl\drivers/peripheral/tcpwm/cy_tcpwm.h **** 
 276:Generated_Source\PSoC6\pdl\drivers/peripheral/tcpwm/cy_tcpwm.h **** /**
 277:Generated_Source\PSoC6\pdl\drivers/peripheral/tcpwm/cy_tcpwm.h **** * \defgroup group_tcpwm_interrupt_sources  Interrupt Sources
 278:Generated_Source\PSoC6\pdl\drivers/peripheral/tcpwm/cy_tcpwm.h **** * \{
 279:Generated_Source\PSoC6\pdl\drivers/peripheral/tcpwm/cy_tcpwm.h **** * Interrupt Sources 
 280:Generated_Source\PSoC6\pdl\drivers/peripheral/tcpwm/cy_tcpwm.h **** */
 281:Generated_Source\PSoC6\pdl\drivers/peripheral/tcpwm/cy_tcpwm.h **** #define CY_TCPWM_INT_ON_TC              (1U) /**< Interrupt on Terminal count(TC) */
 282:Generated_Source\PSoC6\pdl\drivers/peripheral/tcpwm/cy_tcpwm.h **** #define CY_TCPWM_INT_ON_CC              (2U) /**< Interrupt on Compare/Capture(CC) */
 283:Generated_Source\PSoC6\pdl\drivers/peripheral/tcpwm/cy_tcpwm.h **** #define CY_TCPWM_INT_NONE               (0U) /**< No Interrupt */
 284:Generated_Source\PSoC6\pdl\drivers/peripheral/tcpwm/cy_tcpwm.h **** #define CY_TCPWM_INT_ON_CC_OR_TC        (3U) /**< Interrupt on TC or CC */
 285:Generated_Source\PSoC6\pdl\drivers/peripheral/tcpwm/cy_tcpwm.h **** /** \} group_tcpwm_interrupt_sources */
 286:Generated_Source\PSoC6\pdl\drivers/peripheral/tcpwm/cy_tcpwm.h **** 
 287:Generated_Source\PSoC6\pdl\drivers/peripheral/tcpwm/cy_tcpwm.h **** 
 288:Generated_Source\PSoC6\pdl\drivers/peripheral/tcpwm/cy_tcpwm.h **** /***************************************
 289:Generated_Source\PSoC6\pdl\drivers/peripheral/tcpwm/cy_tcpwm.h **** *        Registers Constants
 290:Generated_Source\PSoC6\pdl\drivers/peripheral/tcpwm/cy_tcpwm.h **** ***************************************/
 291:Generated_Source\PSoC6\pdl\drivers/peripheral/tcpwm/cy_tcpwm.h **** 
 292:Generated_Source\PSoC6\pdl\drivers/peripheral/tcpwm/cy_tcpwm.h **** /**
 293:Generated_Source\PSoC6\pdl\drivers/peripheral/tcpwm/cy_tcpwm.h **** * \defgroup group_tcpwm_reg_const Default registers constants
 294:Generated_Source\PSoC6\pdl\drivers/peripheral/tcpwm/cy_tcpwm.h **** * \{
 295:Generated_Source\PSoC6\pdl\drivers/peripheral/tcpwm/cy_tcpwm.h **** * Default constants for CNT Registers
 296:Generated_Source\PSoC6\pdl\drivers/peripheral/tcpwm/cy_tcpwm.h **** */
 297:Generated_Source\PSoC6\pdl\drivers/peripheral/tcpwm/cy_tcpwm.h **** #define CY_TCPWM_CNT_CTRL_DEFAULT           (0x0U) /**< Default value for CTRL register */
 298:Generated_Source\PSoC6\pdl\drivers/peripheral/tcpwm/cy_tcpwm.h **** #define CY_TCPWM_CNT_COUNTER_DEFAULT        (0x0U) /**< Default value for COUNTER register */
 299:Generated_Source\PSoC6\pdl\drivers/peripheral/tcpwm/cy_tcpwm.h **** #define CY_TCPWM_CNT_CC_DEFAULT             (0xFFFFFFFFU) /**< Default value for CC register */
 300:Generated_Source\PSoC6\pdl\drivers/peripheral/tcpwm/cy_tcpwm.h **** #define CY_TCPWM_CNT_CC_BUFF_DEFAULT        (0xFFFFFFFFU) /**< Default value for CC_BUFF register *
 301:Generated_Source\PSoC6\pdl\drivers/peripheral/tcpwm/cy_tcpwm.h **** #define CY_TCPWM_CNT_PERIOD_DEFAULT         (0xFFFFFFFFU) /**< Default value for PERIOD register */
 302:Generated_Source\PSoC6\pdl\drivers/peripheral/tcpwm/cy_tcpwm.h **** #define CY_TCPWM_CNT_PERIOD_BUFF_DEFAULT    (0xFFFFFFFFU) /**< Default value for PERIOD_BUFF regist
 303:Generated_Source\PSoC6\pdl\drivers/peripheral/tcpwm/cy_tcpwm.h **** #define CY_TCPWM_CNT_TR_CTRL0_DEFAULT       (0x10U)  /**< Default value for TR_CTRL0 register */
 304:Generated_Source\PSoC6\pdl\drivers/peripheral/tcpwm/cy_tcpwm.h **** #define CY_TCPWM_CNT_TR_CTRL1_DEFAULT       (0x3FFU) /**< Default value for TR_CTRL1 register */
 305:Generated_Source\PSoC6\pdl\drivers/peripheral/tcpwm/cy_tcpwm.h **** #define CY_TCPWM_CNT_TR_CTRL2_DEFAULT       (0x3FU)  /**< Default value for TR_CTRL2 register */
 306:Generated_Source\PSoC6\pdl\drivers/peripheral/tcpwm/cy_tcpwm.h **** #define CY_TCPWM_CNT_INTR_DEFAULT           (0x3U)   /**< Default value for INTR register */
 307:Generated_Source\PSoC6\pdl\drivers/peripheral/tcpwm/cy_tcpwm.h **** #define CY_TCPWM_CNT_INTR_SET_DEFAULT       (0x0U)   /**< Default value for INTR_SET register */
 308:Generated_Source\PSoC6\pdl\drivers/peripheral/tcpwm/cy_tcpwm.h **** #define CY_TCPWM_CNT_INTR_MASK_DEFAULT      (0x0U)   /**< Default value for INTR_MASK register */
 309:Generated_Source\PSoC6\pdl\drivers/peripheral/tcpwm/cy_tcpwm.h **** /** \} group_tcpwm_reg_const */
 310:Generated_Source\PSoC6\pdl\drivers/peripheral/tcpwm/cy_tcpwm.h **** 
 311:Generated_Source\PSoC6\pdl\drivers/peripheral/tcpwm/cy_tcpwm.h **** /** Position of Up counting counter status */
 312:Generated_Source\PSoC6\pdl\drivers/peripheral/tcpwm/cy_tcpwm.h **** #define CY_TCPWM_CNT_STATUS_UP_POS          (0x1U)
 313:Generated_Source\PSoC6\pdl\drivers/peripheral/tcpwm/cy_tcpwm.h **** /** Initial value for the counter in the Up counting mode */
ARM GAS  C:\Users\cypress\AppData\Local\Temp\ccxRek6y.s 			page 28


 314:Generated_Source\PSoC6\pdl\drivers/peripheral/tcpwm/cy_tcpwm.h **** #define CY_TCPWM_CNT_UP_INIT_VAL            (0x0U)
 315:Generated_Source\PSoC6\pdl\drivers/peripheral/tcpwm/cy_tcpwm.h **** /** Initial value for the counter in the Up/Down counting modes */
 316:Generated_Source\PSoC6\pdl\drivers/peripheral/tcpwm/cy_tcpwm.h **** #define CY_TCPWM_CNT_UP_DOWN_INIT_VAL       (0x1U)
 317:Generated_Source\PSoC6\pdl\drivers/peripheral/tcpwm/cy_tcpwm.h **** /** \} group_tcpwm_macros_common */
 318:Generated_Source\PSoC6\pdl\drivers/peripheral/tcpwm/cy_tcpwm.h **** 
 319:Generated_Source\PSoC6\pdl\drivers/peripheral/tcpwm/cy_tcpwm.h **** 
 320:Generated_Source\PSoC6\pdl\drivers/peripheral/tcpwm/cy_tcpwm.h **** /*******************************************************************************
 321:Generated_Source\PSoC6\pdl\drivers/peripheral/tcpwm/cy_tcpwm.h ****  * Enumerations
 322:Generated_Source\PSoC6\pdl\drivers/peripheral/tcpwm/cy_tcpwm.h ****  ******************************************************************************/
 323:Generated_Source\PSoC6\pdl\drivers/peripheral/tcpwm/cy_tcpwm.h **** 
 324:Generated_Source\PSoC6\pdl\drivers/peripheral/tcpwm/cy_tcpwm.h ****  /**
 325:Generated_Source\PSoC6\pdl\drivers/peripheral/tcpwm/cy_tcpwm.h **** * \addtogroup group_tcpwm_enums
 326:Generated_Source\PSoC6\pdl\drivers/peripheral/tcpwm/cy_tcpwm.h **** * \{
 327:Generated_Source\PSoC6\pdl\drivers/peripheral/tcpwm/cy_tcpwm.h **** */
 328:Generated_Source\PSoC6\pdl\drivers/peripheral/tcpwm/cy_tcpwm.h **** 
 329:Generated_Source\PSoC6\pdl\drivers/peripheral/tcpwm/cy_tcpwm.h **** /** TCPWM status definitions */
 330:Generated_Source\PSoC6\pdl\drivers/peripheral/tcpwm/cy_tcpwm.h **** typedef enum 
 331:Generated_Source\PSoC6\pdl\drivers/peripheral/tcpwm/cy_tcpwm.h **** {
 332:Generated_Source\PSoC6\pdl\drivers/peripheral/tcpwm/cy_tcpwm.h ****     CY_TCPWM_SUCCESS = 0x00U,                                           /**< Successful */
 333:Generated_Source\PSoC6\pdl\drivers/peripheral/tcpwm/cy_tcpwm.h ****     CY_TCPWM_BAD_PARAM = CY_TCPWM_ID | CY_PDL_STATUS_ERROR | 0x01U,     /**< One or more invalid pa
 334:Generated_Source\PSoC6\pdl\drivers/peripheral/tcpwm/cy_tcpwm.h **** } cy_en_tcpwm_status_t;
 335:Generated_Source\PSoC6\pdl\drivers/peripheral/tcpwm/cy_tcpwm.h **** /** \} group_tcpwm_enums */
 336:Generated_Source\PSoC6\pdl\drivers/peripheral/tcpwm/cy_tcpwm.h ****  
 337:Generated_Source\PSoC6\pdl\drivers/peripheral/tcpwm/cy_tcpwm.h **** /*******************************************************************************
 338:Generated_Source\PSoC6\pdl\drivers/peripheral/tcpwm/cy_tcpwm.h **** *        Function Prototypes
 339:Generated_Source\PSoC6\pdl\drivers/peripheral/tcpwm/cy_tcpwm.h **** *******************************************************************************/
 340:Generated_Source\PSoC6\pdl\drivers/peripheral/tcpwm/cy_tcpwm.h **** 
 341:Generated_Source\PSoC6\pdl\drivers/peripheral/tcpwm/cy_tcpwm.h **** /**
 342:Generated_Source\PSoC6\pdl\drivers/peripheral/tcpwm/cy_tcpwm.h **** * \addtogroup group_tcpwm_functions_common
 343:Generated_Source\PSoC6\pdl\drivers/peripheral/tcpwm/cy_tcpwm.h **** * \{
 344:Generated_Source\PSoC6\pdl\drivers/peripheral/tcpwm/cy_tcpwm.h **** */
 345:Generated_Source\PSoC6\pdl\drivers/peripheral/tcpwm/cy_tcpwm.h **** 
 346:Generated_Source\PSoC6\pdl\drivers/peripheral/tcpwm/cy_tcpwm.h **** __STATIC_INLINE void Cy_TCPWM_Enable_Multiple(TCPWM_Type *base, uint32_t counters);
 347:Generated_Source\PSoC6\pdl\drivers/peripheral/tcpwm/cy_tcpwm.h **** __STATIC_INLINE void Cy_TCPWM_Disable_Multiple(TCPWM_Type *base, uint32_t counters);
 348:Generated_Source\PSoC6\pdl\drivers/peripheral/tcpwm/cy_tcpwm.h **** __STATIC_INLINE void Cy_TCPWM_TriggerStart(TCPWM_Type *base, uint32_t counters);
 349:Generated_Source\PSoC6\pdl\drivers/peripheral/tcpwm/cy_tcpwm.h **** __STATIC_INLINE void Cy_TCPWM_TriggerReloadOrIndex(TCPWM_Type *base, uint32_t counters);
 350:Generated_Source\PSoC6\pdl\drivers/peripheral/tcpwm/cy_tcpwm.h **** __STATIC_INLINE void Cy_TCPWM_TriggerStopOrKill(TCPWM_Type *base, uint32_t counters);
 351:Generated_Source\PSoC6\pdl\drivers/peripheral/tcpwm/cy_tcpwm.h **** __STATIC_INLINE void Cy_TCPWM_TriggerCaptureOrSwap(TCPWM_Type *base, uint32_t counters);
 352:Generated_Source\PSoC6\pdl\drivers/peripheral/tcpwm/cy_tcpwm.h **** __STATIC_INLINE uint32_t Cy_TCPWM_GetInterruptStatus(TCPWM_Type const *base, uint32_t cntNum);
 353:Generated_Source\PSoC6\pdl\drivers/peripheral/tcpwm/cy_tcpwm.h **** __STATIC_INLINE void Cy_TCPWM_ClearInterrupt(TCPWM_Type *base, uint32_t cntNum, uint32_t source);
 354:Generated_Source\PSoC6\pdl\drivers/peripheral/tcpwm/cy_tcpwm.h **** __STATIC_INLINE void Cy_TCPWM_SetInterrupt(TCPWM_Type *base, uint32_t cntNum, uint32_t source);
 355:Generated_Source\PSoC6\pdl\drivers/peripheral/tcpwm/cy_tcpwm.h **** __STATIC_INLINE void Cy_TCPWM_SetInterruptMask(TCPWM_Type *base, uint32_t cntNum, uint32_t mask);
 356:Generated_Source\PSoC6\pdl\drivers/peripheral/tcpwm/cy_tcpwm.h **** __STATIC_INLINE uint32_t Cy_TCPWM_GetInterruptMask(TCPWM_Type const *base, uint32_t cntNum);
 357:Generated_Source\PSoC6\pdl\drivers/peripheral/tcpwm/cy_tcpwm.h **** __STATIC_INLINE uint32_t Cy_TCPWM_GetInterruptStatusMasked(TCPWM_Type const *base, uint32_t cntNum)
 358:Generated_Source\PSoC6\pdl\drivers/peripheral/tcpwm/cy_tcpwm.h **** 
 359:Generated_Source\PSoC6\pdl\drivers/peripheral/tcpwm/cy_tcpwm.h **** 
 360:Generated_Source\PSoC6\pdl\drivers/peripheral/tcpwm/cy_tcpwm.h **** /*******************************************************************************
 361:Generated_Source\PSoC6\pdl\drivers/peripheral/tcpwm/cy_tcpwm.h **** * Function Name: Cy_TCPWM_Enable_Multiple
 362:Generated_Source\PSoC6\pdl\drivers/peripheral/tcpwm/cy_tcpwm.h **** ****************************************************************************//**
 363:Generated_Source\PSoC6\pdl\drivers/peripheral/tcpwm/cy_tcpwm.h **** *
 364:Generated_Source\PSoC6\pdl\drivers/peripheral/tcpwm/cy_tcpwm.h **** * Enables the counter(s) in the TCPWM block. Multiple blocks can be started 
 365:Generated_Source\PSoC6\pdl\drivers/peripheral/tcpwm/cy_tcpwm.h **** * simultaneously.
 366:Generated_Source\PSoC6\pdl\drivers/peripheral/tcpwm/cy_tcpwm.h **** *
 367:Generated_Source\PSoC6\pdl\drivers/peripheral/tcpwm/cy_tcpwm.h **** * \param base
 368:Generated_Source\PSoC6\pdl\drivers/peripheral/tcpwm/cy_tcpwm.h **** * The pointer to a TCPWM instance.
 369:Generated_Source\PSoC6\pdl\drivers/peripheral/tcpwm/cy_tcpwm.h **** *
 370:Generated_Source\PSoC6\pdl\drivers/peripheral/tcpwm/cy_tcpwm.h **** * \param counters
ARM GAS  C:\Users\cypress\AppData\Local\Temp\ccxRek6y.s 			page 29


 371:Generated_Source\PSoC6\pdl\drivers/peripheral/tcpwm/cy_tcpwm.h **** * A bit field representing each counter in the TCPWM block.
 372:Generated_Source\PSoC6\pdl\drivers/peripheral/tcpwm/cy_tcpwm.h **** *
 373:Generated_Source\PSoC6\pdl\drivers/peripheral/tcpwm/cy_tcpwm.h **** * \funcusage
 374:Generated_Source\PSoC6\pdl\drivers/peripheral/tcpwm/cy_tcpwm.h **** * \snippet tcpwm/tcpwm_v1_0_counter_sut_01.cydsn/main_cm4.c snippet_Cy_TCPWM_Enable_Multiple
 375:Generated_Source\PSoC6\pdl\drivers/peripheral/tcpwm/cy_tcpwm.h **** *
 376:Generated_Source\PSoC6\pdl\drivers/peripheral/tcpwm/cy_tcpwm.h **** *******************************************************************************/
 377:Generated_Source\PSoC6\pdl\drivers/peripheral/tcpwm/cy_tcpwm.h **** __STATIC_INLINE void Cy_TCPWM_Enable_Multiple(TCPWM_Type *base, uint32_t counters)
 378:Generated_Source\PSoC6\pdl\drivers/peripheral/tcpwm/cy_tcpwm.h **** {
 379:Generated_Source\PSoC6\pdl\drivers/peripheral/tcpwm/cy_tcpwm.h ****     base->CTRL_SET = counters;
 380:Generated_Source\PSoC6\pdl\drivers/peripheral/tcpwm/cy_tcpwm.h **** }
 381:Generated_Source\PSoC6\pdl\drivers/peripheral/tcpwm/cy_tcpwm.h **** 
 382:Generated_Source\PSoC6\pdl\drivers/peripheral/tcpwm/cy_tcpwm.h **** 
 383:Generated_Source\PSoC6\pdl\drivers/peripheral/tcpwm/cy_tcpwm.h **** /*******************************************************************************
 384:Generated_Source\PSoC6\pdl\drivers/peripheral/tcpwm/cy_tcpwm.h **** * Function Name: Cy_TCPWM_Disable_Multiple
 385:Generated_Source\PSoC6\pdl\drivers/peripheral/tcpwm/cy_tcpwm.h **** ****************************************************************************//**
 386:Generated_Source\PSoC6\pdl\drivers/peripheral/tcpwm/cy_tcpwm.h **** *
 387:Generated_Source\PSoC6\pdl\drivers/peripheral/tcpwm/cy_tcpwm.h **** * Disables the counter(s) in the TCPWM block. Multiple TCPWM can be disabled 
 388:Generated_Source\PSoC6\pdl\drivers/peripheral/tcpwm/cy_tcpwm.h **** * simultaneously.
 389:Generated_Source\PSoC6\pdl\drivers/peripheral/tcpwm/cy_tcpwm.h **** *
 390:Generated_Source\PSoC6\pdl\drivers/peripheral/tcpwm/cy_tcpwm.h **** * \param base
 391:Generated_Source\PSoC6\pdl\drivers/peripheral/tcpwm/cy_tcpwm.h **** * The pointer to a TCPWM instance.
 392:Generated_Source\PSoC6\pdl\drivers/peripheral/tcpwm/cy_tcpwm.h **** *
 393:Generated_Source\PSoC6\pdl\drivers/peripheral/tcpwm/cy_tcpwm.h **** * \param counters
 394:Generated_Source\PSoC6\pdl\drivers/peripheral/tcpwm/cy_tcpwm.h **** * A bit field representing each counter in the TCPWM block.
 395:Generated_Source\PSoC6\pdl\drivers/peripheral/tcpwm/cy_tcpwm.h **** *
 396:Generated_Source\PSoC6\pdl\drivers/peripheral/tcpwm/cy_tcpwm.h **** * \funcusage
 397:Generated_Source\PSoC6\pdl\drivers/peripheral/tcpwm/cy_tcpwm.h **** * \snippet tcpwm/tcpwm_v1_0_counter_sut_01.cydsn/main_cm4.c snippet_Cy_TCPWM_Disable_Multiple
 398:Generated_Source\PSoC6\pdl\drivers/peripheral/tcpwm/cy_tcpwm.h **** *
 399:Generated_Source\PSoC6\pdl\drivers/peripheral/tcpwm/cy_tcpwm.h **** *******************************************************************************/
 400:Generated_Source\PSoC6\pdl\drivers/peripheral/tcpwm/cy_tcpwm.h **** __STATIC_INLINE void Cy_TCPWM_Disable_Multiple(TCPWM_Type *base, uint32_t counters)
 401:Generated_Source\PSoC6\pdl\drivers/peripheral/tcpwm/cy_tcpwm.h **** {
 402:Generated_Source\PSoC6\pdl\drivers/peripheral/tcpwm/cy_tcpwm.h ****     base->CTRL_CLR = counters;
 403:Generated_Source\PSoC6\pdl\drivers/peripheral/tcpwm/cy_tcpwm.h **** }
 404:Generated_Source\PSoC6\pdl\drivers/peripheral/tcpwm/cy_tcpwm.h **** 
 405:Generated_Source\PSoC6\pdl\drivers/peripheral/tcpwm/cy_tcpwm.h **** 
 406:Generated_Source\PSoC6\pdl\drivers/peripheral/tcpwm/cy_tcpwm.h **** /*******************************************************************************
 407:Generated_Source\PSoC6\pdl\drivers/peripheral/tcpwm/cy_tcpwm.h **** * Function Name: Cy_TCPWM_TriggerStart
 408:Generated_Source\PSoC6\pdl\drivers/peripheral/tcpwm/cy_tcpwm.h **** ****************************************************************************//**
 409:Generated_Source\PSoC6\pdl\drivers/peripheral/tcpwm/cy_tcpwm.h **** *
 410:Generated_Source\PSoC6\pdl\drivers/peripheral/tcpwm/cy_tcpwm.h **** * Triggers a software start on the selected TCPWMs.
 411:Generated_Source\PSoC6\pdl\drivers/peripheral/tcpwm/cy_tcpwm.h **** *
 412:Generated_Source\PSoC6\pdl\drivers/peripheral/tcpwm/cy_tcpwm.h **** * \param base
 413:Generated_Source\PSoC6\pdl\drivers/peripheral/tcpwm/cy_tcpwm.h **** * The pointer to a TCPWM instance.
 414:Generated_Source\PSoC6\pdl\drivers/peripheral/tcpwm/cy_tcpwm.h **** *
 415:Generated_Source\PSoC6\pdl\drivers/peripheral/tcpwm/cy_tcpwm.h **** * \param counters
 416:Generated_Source\PSoC6\pdl\drivers/peripheral/tcpwm/cy_tcpwm.h **** * A bit field representing each counter in the TCPWM block.
 417:Generated_Source\PSoC6\pdl\drivers/peripheral/tcpwm/cy_tcpwm.h **** *
 418:Generated_Source\PSoC6\pdl\drivers/peripheral/tcpwm/cy_tcpwm.h **** * \funcusage
 419:Generated_Source\PSoC6\pdl\drivers/peripheral/tcpwm/cy_tcpwm.h **** * \snippet tcpwm/tcpwm_v1_0_counter_sut_01.cydsn/main_cm4.c snippet_Cy_TCPWM_Enable_Multiple
 420:Generated_Source\PSoC6\pdl\drivers/peripheral/tcpwm/cy_tcpwm.h **** *
 421:Generated_Source\PSoC6\pdl\drivers/peripheral/tcpwm/cy_tcpwm.h **** *******************************************************************************/
 422:Generated_Source\PSoC6\pdl\drivers/peripheral/tcpwm/cy_tcpwm.h **** __STATIC_INLINE  void Cy_TCPWM_TriggerStart(TCPWM_Type *base, uint32_t counters)
 423:Generated_Source\PSoC6\pdl\drivers/peripheral/tcpwm/cy_tcpwm.h **** {
 424:Generated_Source\PSoC6\pdl\drivers/peripheral/tcpwm/cy_tcpwm.h ****     base->CMD_START = counters;
 123              		.loc 5 424 0 discriminator 1
 124 0044 154D     		ldr	r5, .L4
 125 0046 0423     		movs	r3, #4
ARM GAS  C:\Users\cypress\AppData\Local\Temp\ccxRek6y.s 			page 30


 126 0048 AB61     		str	r3, [r5, #24]
 127              	.LVL9:
 128              	.LBE55:
 129              	.LBE54:
  26:main_cm4.c    ****     Cy_TCPWM_PWM_Enable(PWM_3_HW, PWM_3_CNT_NUM);
  27:main_cm4.c    ****     
  28:main_cm4.c    ****     
  29:main_cm4.c    ****     
  30:main_cm4.c    ****     for(;;)
  31:main_cm4.c    ****     {
  32:main_cm4.c    ****         Cy_GPIO_Write(P0_3_PORT, P0_3_NUM, 1u);
  33:main_cm4.c    ****         Cy_GPIO_Write(P11_1_PORT, P11_1_NUM, 0u);
  34:main_cm4.c    ****         Cy_GPIO_Write(P1_1_PORT, P1_1_NUM, 0u);
  35:main_cm4.c    ****         
  36:main_cm4.c    ****         Cy_TCPWM_TriggerStart(PWM_1_HW, PWM_1_CNT_MASK);
  37:main_cm4.c    ****         CyDelay(4050);
 130              		.loc 1 37 0 discriminator 1
 131 004a 40F6D270 		movw	r0, #4050
 132 004e FFF7FEFF 		bl	Cy_SysLib_Delay
 133              	.LVL10:
 134              	.LBB56:
 135              	.LBB57:
 425:Generated_Source\PSoC6\pdl\drivers/peripheral/tcpwm/cy_tcpwm.h **** }
 426:Generated_Source\PSoC6\pdl\drivers/peripheral/tcpwm/cy_tcpwm.h **** 
 427:Generated_Source\PSoC6\pdl\drivers/peripheral/tcpwm/cy_tcpwm.h **** 
 428:Generated_Source\PSoC6\pdl\drivers/peripheral/tcpwm/cy_tcpwm.h **** /*******************************************************************************
 429:Generated_Source\PSoC6\pdl\drivers/peripheral/tcpwm/cy_tcpwm.h **** * Function Name: Cy_TCPWM_TriggerReloadOrIndex
 430:Generated_Source\PSoC6\pdl\drivers/peripheral/tcpwm/cy_tcpwm.h **** ****************************************************************************//**
 431:Generated_Source\PSoC6\pdl\drivers/peripheral/tcpwm/cy_tcpwm.h **** *
 432:Generated_Source\PSoC6\pdl\drivers/peripheral/tcpwm/cy_tcpwm.h **** * Triggers a software reload event (or index in QuadDec mode).
 433:Generated_Source\PSoC6\pdl\drivers/peripheral/tcpwm/cy_tcpwm.h **** *
 434:Generated_Source\PSoC6\pdl\drivers/peripheral/tcpwm/cy_tcpwm.h **** * \param base
 435:Generated_Source\PSoC6\pdl\drivers/peripheral/tcpwm/cy_tcpwm.h **** * The pointer to a TCPWM instance
 436:Generated_Source\PSoC6\pdl\drivers/peripheral/tcpwm/cy_tcpwm.h **** *
 437:Generated_Source\PSoC6\pdl\drivers/peripheral/tcpwm/cy_tcpwm.h **** * \param counters
 438:Generated_Source\PSoC6\pdl\drivers/peripheral/tcpwm/cy_tcpwm.h **** * A bit field representing each counter in the TCPWM block.
 439:Generated_Source\PSoC6\pdl\drivers/peripheral/tcpwm/cy_tcpwm.h **** *
 440:Generated_Source\PSoC6\pdl\drivers/peripheral/tcpwm/cy_tcpwm.h **** * \funcusage
 441:Generated_Source\PSoC6\pdl\drivers/peripheral/tcpwm/cy_tcpwm.h **** * \snippet tcpwm/tcpwm_v1_0_counter_sut_01.cydsn/main_cm4.c snippet_Cy_TCPWM_TriggerReloadOrIndex
 442:Generated_Source\PSoC6\pdl\drivers/peripheral/tcpwm/cy_tcpwm.h **** *
 443:Generated_Source\PSoC6\pdl\drivers/peripheral/tcpwm/cy_tcpwm.h **** *******************************************************************************/
 444:Generated_Source\PSoC6\pdl\drivers/peripheral/tcpwm/cy_tcpwm.h **** __STATIC_INLINE void Cy_TCPWM_TriggerReloadOrIndex(TCPWM_Type *base, uint32_t counters)
 445:Generated_Source\PSoC6\pdl\drivers/peripheral/tcpwm/cy_tcpwm.h **** {
 446:Generated_Source\PSoC6\pdl\drivers/peripheral/tcpwm/cy_tcpwm.h ****     base->CMD_RELOAD = counters;
 447:Generated_Source\PSoC6\pdl\drivers/peripheral/tcpwm/cy_tcpwm.h **** }
 448:Generated_Source\PSoC6\pdl\drivers/peripheral/tcpwm/cy_tcpwm.h **** 
 449:Generated_Source\PSoC6\pdl\drivers/peripheral/tcpwm/cy_tcpwm.h **** 
 450:Generated_Source\PSoC6\pdl\drivers/peripheral/tcpwm/cy_tcpwm.h **** /*******************************************************************************
 451:Generated_Source\PSoC6\pdl\drivers/peripheral/tcpwm/cy_tcpwm.h **** * Function Name: Cy_TCPWM_TriggerStopOrKill
 452:Generated_Source\PSoC6\pdl\drivers/peripheral/tcpwm/cy_tcpwm.h **** ****************************************************************************//**
 453:Generated_Source\PSoC6\pdl\drivers/peripheral/tcpwm/cy_tcpwm.h **** *
 454:Generated_Source\PSoC6\pdl\drivers/peripheral/tcpwm/cy_tcpwm.h **** * Triggers a stop in the Timer Counter mode, or a kill in the PWM mode.
 455:Generated_Source\PSoC6\pdl\drivers/peripheral/tcpwm/cy_tcpwm.h **** *
 456:Generated_Source\PSoC6\pdl\drivers/peripheral/tcpwm/cy_tcpwm.h **** * \param base
 457:Generated_Source\PSoC6\pdl\drivers/peripheral/tcpwm/cy_tcpwm.h **** * The pointer to a TCPWM instance.
 458:Generated_Source\PSoC6\pdl\drivers/peripheral/tcpwm/cy_tcpwm.h **** *
 459:Generated_Source\PSoC6\pdl\drivers/peripheral/tcpwm/cy_tcpwm.h **** * \param counters
ARM GAS  C:\Users\cypress\AppData\Local\Temp\ccxRek6y.s 			page 31


 460:Generated_Source\PSoC6\pdl\drivers/peripheral/tcpwm/cy_tcpwm.h **** * A bit field representing each counter in the TCPWM block.
 461:Generated_Source\PSoC6\pdl\drivers/peripheral/tcpwm/cy_tcpwm.h **** *
 462:Generated_Source\PSoC6\pdl\drivers/peripheral/tcpwm/cy_tcpwm.h **** * \funcusage
 463:Generated_Source\PSoC6\pdl\drivers/peripheral/tcpwm/cy_tcpwm.h **** * \snippet tcpwm/tcpwm_v1_0_counter_sut_01.cydsn/main_cm4.c snippet_Cy_TCPWM_TriggerStopOrKill
 464:Generated_Source\PSoC6\pdl\drivers/peripheral/tcpwm/cy_tcpwm.h **** *
 465:Generated_Source\PSoC6\pdl\drivers/peripheral/tcpwm/cy_tcpwm.h **** *******************************************************************************/
 466:Generated_Source\PSoC6\pdl\drivers/peripheral/tcpwm/cy_tcpwm.h **** __STATIC_INLINE void Cy_TCPWM_TriggerStopOrKill(TCPWM_Type *base, uint32_t counters)
 467:Generated_Source\PSoC6\pdl\drivers/peripheral/tcpwm/cy_tcpwm.h **** {
 468:Generated_Source\PSoC6\pdl\drivers/peripheral/tcpwm/cy_tcpwm.h ****     base->CMD_STOP = counters;
 136              		.loc 5 468 0 discriminator 1
 137 0052 6C61     		str	r4, [r5, #20]
 138              	.LVL11:
 139              	.LBE57:
 140              	.LBE56:
 141              	.LBB58:
 142              	.LBB59:
 749:Generated_Source\PSoC6\pdl\drivers/peripheral/gpio/cy_gpio.h ****     }
 143              		.loc 4 749 0 discriminator 1
 144 0054 C8F80490 		str	r9, [r8, #4]
 145              	.LVL12:
 146              	.LBE59:
 147              	.LBE58:
  38:main_cm4.c    ****         Cy_TCPWM_TriggerStopOrKill(PWM_1_HW, PWM_1_CNT_NUM);
  39:main_cm4.c    ****         Cy_GPIO_Write(P0_3_PORT, P0_3_NUM, 0u);
  40:main_cm4.c    ****         
  41:main_cm4.c    ****         CyDelay(1000);
 148              		.loc 1 41 0 discriminator 1
 149 0058 4FF47A70 		mov	r0, #1000
 150 005c FFF7FEFF 		bl	Cy_SysLib_Delay
 151              	.LVL13:
 152              	.LBB60:
 153              	.LBB61:
 154              		.loc 4 753 0 discriminator 1
 155 0060 BC60     		str	r4, [r7, #8]
 156              	.LVL14:
 157              	.LBE61:
 158              	.LBE60:
 159              	.LBB62:
 160              	.LBB63:
 424:Generated_Source\PSoC6\pdl\drivers/peripheral/tcpwm/cy_tcpwm.h **** }
 161              		.loc 5 424 0 discriminator 1
 162 0062 4FF00108 		mov	r8, #1
 163 0066 C5F81880 		str	r8, [r5, #24]
 164              	.LVL15:
 165              	.LBE63:
 166              	.LBE62:
  42:main_cm4.c    ****         
  43:main_cm4.c    ****         Cy_GPIO_Write(P11_1_PORT, P11_1_NUM, 1u);
  44:main_cm4.c    ****         Cy_TCPWM_TriggerStart(PWM_2_HW, PWM_2_CNT_MASK);
  45:main_cm4.c    ****         CyDelay(4050);
 167              		.loc 1 45 0 discriminator 1
 168 006a 40F6D270 		movw	r0, #4050
 169 006e FFF7FEFF 		bl	Cy_SysLib_Delay
 170              	.LVL16:
 171              	.LBB64:
 172              	.LBB65:
 173              		.loc 5 468 0 discriminator 1
ARM GAS  C:\Users\cypress\AppData\Local\Temp\ccxRek6y.s 			page 32


 174 0072 0023     		movs	r3, #0
 175 0074 6B61     		str	r3, [r5, #20]
 176              	.LVL17:
 177              	.LBE65:
 178              	.LBE64:
 179              	.LBB66:
 180              	.LBB67:
 749:Generated_Source\PSoC6\pdl\drivers/peripheral/gpio/cy_gpio.h ****     }
 181              		.loc 4 749 0 discriminator 1
 182 0076 7C60     		str	r4, [r7, #4]
 183              	.LVL18:
 184              	.LBE67:
 185              	.LBE66:
  46:main_cm4.c    ****         Cy_TCPWM_TriggerStopOrKill(PWM_2_HW, PWM_2_CNT_NUM);
  47:main_cm4.c    ****         Cy_GPIO_Write(P11_1_PORT, P11_1_NUM, 0u);
  48:main_cm4.c    ****         
  49:main_cm4.c    ****         CyDelay(1000);
 186              		.loc 1 49 0 discriminator 1
 187 0078 4FF47A70 		mov	r0, #1000
 188 007c FFF7FEFF 		bl	Cy_SysLib_Delay
 189              	.LVL19:
 190              	.LBB68:
 191              	.LBB69:
 192              		.loc 4 753 0 discriminator 1
 193 0080 B460     		str	r4, [r6, #8]
 194              	.LVL20:
 195              	.LBE69:
 196              	.LBE68:
 197              	.LBB70:
 198              	.LBB71:
 424:Generated_Source\PSoC6\pdl\drivers/peripheral/tcpwm/cy_tcpwm.h **** }
 199              		.loc 5 424 0 discriminator 1
 200 0082 AC61     		str	r4, [r5, #24]
 201              	.LVL21:
 202              	.LBE71:
 203              	.LBE70:
  50:main_cm4.c    ****         
  51:main_cm4.c    ****         Cy_GPIO_Write(P1_1_PORT, P1_1_NUM, 1u);
  52:main_cm4.c    ****         Cy_TCPWM_TriggerStart(PWM_3_HW, PWM_3_CNT_MASK);
  53:main_cm4.c    ****         CyDelay(4050);
 204              		.loc 1 53 0 discriminator 1
 205 0084 40F6D270 		movw	r0, #4050
 206 0088 FFF7FEFF 		bl	Cy_SysLib_Delay
 207              	.LVL22:
 208              	.LBB72:
 209              	.LBB73:
 210              		.loc 5 468 0 discriminator 1
 211 008c C5F81480 		str	r8, [r5, #20]
 212              	.LVL23:
 213              	.LBE73:
 214              	.LBE72:
 215              	.LBB74:
 216              	.LBB75:
 749:Generated_Source\PSoC6\pdl\drivers/peripheral/gpio/cy_gpio.h ****     }
 217              		.loc 4 749 0 discriminator 1
 218 0090 7460     		str	r4, [r6, #4]
 219              	.LVL24:
ARM GAS  C:\Users\cypress\AppData\Local\Temp\ccxRek6y.s 			page 33


 220              	.LBE75:
 221              	.LBE74:
  54:main_cm4.c    ****         Cy_TCPWM_TriggerStopOrKill(PWM_3_HW, PWM_3_CNT_NUM);
  55:main_cm4.c    ****         Cy_GPIO_Write(P1_1_PORT, P1_1_NUM, 0u);
  56:main_cm4.c    ****         
  57:main_cm4.c    ****         CyDelay(1000);
 222              		.loc 1 57 0 discriminator 1
 223 0092 4FF47A70 		mov	r0, #1000
 224 0096 FFF7FEFF 		bl	Cy_SysLib_Delay
 225              	.LVL25:
 226 009a C8E7     		b	.L2
 227              	.L5:
 228              		.align	2
 229              	.L4:
 230 009c 00003840 		.word	1077411840
 231 00a0 00000000 		.word	PWM_1_config
 232 00a4 00000000 		.word	PWM_2_config
 233 00a8 00000000 		.word	PWM_3_config
 234 00ac 80053240 		.word	1077020032
 235 00b0 80003240 		.word	1077018752
 236 00b4 00003240 		.word	1077018624
 237              		.cfi_endproc
 238              	.LFE450:
 239              		.size	main, .-main
 240              		.text
 241              	.Letext0:
 242              		.file 6 "c:\\program files (x86)\\cypress\\psoc creator\\4.2\\psoc creator\\import\\gnu\\arm\\5.4.
 243              		.file 7 "c:\\program files (x86)\\cypress\\psoc creator\\4.2\\psoc creator\\import\\gnu\\arm\\5.4.
 244              		.file 8 "Generated_Source\\PSoC6\\pdl\\devices/psoc6/ip/cyip_gpio.h"
 245              		.file 9 "Generated_Source\\PSoC6\\pdl\\devices/psoc6/ip/cyip_tcpwm.h"
 246              		.file 10 "Generated_Source\\PSoC6\\pdl\\drivers/peripheral/syslib/cy_syslib.h"
 247              		.file 11 "Generated_Source\\PSoC6\\pdl\\cmsis/include/core_cm4.h"
 248              		.file 12 "Generated_Source\\PSoC6/PWM_1.h"
 249              		.file 13 "Generated_Source\\PSoC6/PWM_2.h"
 250              		.file 14 "Generated_Source\\PSoC6/PWM_3.h"
 251              		.section	.debug_info,"",%progbits
 252              	.Ldebug_info0:
 253 0000 FE090000 		.4byte	0x9fe
 254 0004 0400     		.2byte	0x4
 255 0006 00000000 		.4byte	.Ldebug_abbrev0
 256 000a 04       		.byte	0x4
 257 000b 01       		.uleb128 0x1
 258 000c E9000000 		.4byte	.LASF104
 259 0010 0C       		.byte	0xc
 260 0011 34040000 		.4byte	.LASF105
 261 0015 D5020000 		.4byte	.LASF106
 262 0019 00000000 		.4byte	.Ldebug_ranges0+0
 263 001d 00000000 		.4byte	0
 264 0021 00000000 		.4byte	.Ldebug_line0
 265 0025 02       		.uleb128 0x2
 266 0026 02       		.byte	0x2
 267 0027 05       		.byte	0x5
 268 0028 87000000 		.4byte	.LASF0
 269 002c 02       		.uleb128 0x2
 270 002d 01       		.byte	0x1
 271 002e 06       		.byte	0x6
 272 002f 96030000 		.4byte	.LASF1
ARM GAS  C:\Users\cypress\AppData\Local\Temp\ccxRek6y.s 			page 34


 273 0033 02       		.uleb128 0x2
 274 0034 01       		.byte	0x1
 275 0035 08       		.byte	0x8
 276 0036 71030000 		.4byte	.LASF2
 277 003a 02       		.uleb128 0x2
 278 003b 02       		.byte	0x2
 279 003c 07       		.byte	0x7
 280 003d 4F040000 		.4byte	.LASF3
 281 0041 03       		.uleb128 0x3
 282 0042 88040000 		.4byte	.LASF5
 283 0046 06       		.byte	0x6
 284 0047 3F       		.byte	0x3f
 285 0048 4C000000 		.4byte	0x4c
 286 004c 02       		.uleb128 0x2
 287 004d 04       		.byte	0x4
 288 004e 05       		.byte	0x5
 289 004f 08030000 		.4byte	.LASF4
 290 0053 03       		.uleb128 0x3
 291 0054 FE040000 		.4byte	.LASF6
 292 0058 06       		.byte	0x6
 293 0059 41       		.byte	0x41
 294 005a 5E000000 		.4byte	0x5e
 295 005e 02       		.uleb128 0x2
 296 005f 04       		.byte	0x4
 297 0060 07       		.byte	0x7
 298 0061 C6040000 		.4byte	.LASF7
 299 0065 02       		.uleb128 0x2
 300 0066 08       		.byte	0x8
 301 0067 05       		.byte	0x5
 302 0068 B8020000 		.4byte	.LASF8
 303 006c 02       		.uleb128 0x2
 304 006d 08       		.byte	0x8
 305 006e 07       		.byte	0x7
 306 006f AB030000 		.4byte	.LASF9
 307 0073 04       		.uleb128 0x4
 308 0074 04       		.byte	0x4
 309 0075 05       		.byte	0x5
 310 0076 696E7400 		.ascii	"int\000"
 311 007a 02       		.uleb128 0x2
 312 007b 04       		.byte	0x4
 313 007c 07       		.byte	0x7
 314 007d AF040000 		.4byte	.LASF10
 315 0081 03       		.uleb128 0x3
 316 0082 80040000 		.4byte	.LASF11
 317 0086 07       		.byte	0x7
 318 0087 2C       		.byte	0x2c
 319 0088 41000000 		.4byte	0x41
 320 008c 03       		.uleb128 0x3
 321 008d C2030000 		.4byte	.LASF12
 322 0091 07       		.byte	0x7
 323 0092 30       		.byte	0x30
 324 0093 53000000 		.4byte	0x53
 325 0097 02       		.uleb128 0x2
 326 0098 04       		.byte	0x4
 327 0099 07       		.byte	0x7
 328 009a A0000000 		.4byte	.LASF13
 329 009e 05       		.uleb128 0x5
ARM GAS  C:\Users\cypress\AppData\Local\Temp\ccxRek6y.s 			page 35


 330 009f 8C000000 		.4byte	0x8c
 331 00a3 06       		.uleb128 0x6
 332 00a4 9E000000 		.4byte	0x9e
 333 00a8 07       		.uleb128 0x7
 334 00a9 A3000000 		.4byte	0xa3
 335 00ad B8000000 		.4byte	0xb8
 336 00b1 08       		.uleb128 0x8
 337 00b2 97000000 		.4byte	0x97
 338 00b6 0F       		.byte	0xf
 339 00b7 00       		.byte	0
 340 00b8 09       		.uleb128 0x9
 341 00b9 80       		.byte	0x80
 342 00ba 08       		.byte	0x8
 343 00bb 22       		.byte	0x22
 344 00bc 8C010000 		.4byte	0x18c
 345 00c0 0A       		.uleb128 0xa
 346 00c1 4F555400 		.ascii	"OUT\000"
 347 00c5 08       		.byte	0x8
 348 00c6 23       		.byte	0x23
 349 00c7 9E000000 		.4byte	0x9e
 350 00cb 00       		.byte	0
 351 00cc 0B       		.uleb128 0xb
 352 00cd 22020000 		.4byte	.LASF14
 353 00d1 08       		.byte	0x8
 354 00d2 24       		.byte	0x24
 355 00d3 9E000000 		.4byte	0x9e
 356 00d7 04       		.byte	0x4
 357 00d8 0B       		.uleb128 0xb
 358 00d9 47040000 		.4byte	.LASF15
 359 00dd 08       		.byte	0x8
 360 00de 25       		.byte	0x25
 361 00df 9E000000 		.4byte	0x9e
 362 00e3 08       		.byte	0x8
 363 00e4 0B       		.uleb128 0xb
 364 00e5 70000000 		.4byte	.LASF16
 365 00e9 08       		.byte	0x8
 366 00ea 26       		.byte	0x26
 367 00eb 9E000000 		.4byte	0x9e
 368 00ef 0C       		.byte	0xc
 369 00f0 0A       		.uleb128 0xa
 370 00f1 494E00   		.ascii	"IN\000"
 371 00f4 08       		.byte	0x8
 372 00f5 27       		.byte	0x27
 373 00f6 A3000000 		.4byte	0xa3
 374 00fa 10       		.byte	0x10
 375 00fb 0B       		.uleb128 0xb
 376 00fc 98040000 		.4byte	.LASF17
 377 0100 08       		.byte	0x8
 378 0101 28       		.byte	0x28
 379 0102 9E000000 		.4byte	0x9e
 380 0106 14       		.byte	0x14
 381 0107 0B       		.uleb128 0xb
 382 0108 2A040000 		.4byte	.LASF18
 383 010c 08       		.byte	0x8
 384 010d 29       		.byte	0x29
 385 010e 9E000000 		.4byte	0x9e
 386 0112 18       		.byte	0x18
ARM GAS  C:\Users\cypress\AppData\Local\Temp\ccxRek6y.s 			page 36


 387 0113 0B       		.uleb128 0xb
 388 0114 42030000 		.4byte	.LASF19
 389 0118 08       		.byte	0x8
 390 0119 2A       		.byte	0x2a
 391 011a A3000000 		.4byte	0xa3
 392 011e 1C       		.byte	0x1c
 393 011f 0B       		.uleb128 0xb
 394 0120 A2030000 		.4byte	.LASF20
 395 0124 08       		.byte	0x8
 396 0125 2B       		.byte	0x2b
 397 0126 9E000000 		.4byte	0x9e
 398 012a 20       		.byte	0x20
 399 012b 0B       		.uleb128 0xb
 400 012c 21040000 		.4byte	.LASF21
 401 0130 08       		.byte	0x8
 402 0131 2C       		.byte	0x2c
 403 0132 9E000000 		.4byte	0x9e
 404 0136 24       		.byte	0x24
 405 0137 0A       		.uleb128 0xa
 406 0138 43464700 		.ascii	"CFG\000"
 407 013c 08       		.byte	0x8
 408 013d 2D       		.byte	0x2d
 409 013e 9E000000 		.4byte	0x9e
 410 0142 28       		.byte	0x28
 411 0143 0B       		.uleb128 0xb
 412 0144 B5000000 		.4byte	.LASF22
 413 0148 08       		.byte	0x8
 414 0149 2E       		.byte	0x2e
 415 014a 9E000000 		.4byte	0x9e
 416 014e 2C       		.byte	0x2c
 417 014f 0B       		.uleb128 0xb
 418 0150 8A020000 		.4byte	.LASF23
 419 0154 08       		.byte	0x8
 420 0155 2F       		.byte	0x2f
 421 0156 9E000000 		.4byte	0x9e
 422 015a 30       		.byte	0x30
 423 015b 0B       		.uleb128 0xb
 424 015c 3F040000 		.4byte	.LASF24
 425 0160 08       		.byte	0x8
 426 0161 30       		.byte	0x30
 427 0162 9E000000 		.4byte	0x9e
 428 0166 34       		.byte	0x34
 429 0167 0B       		.uleb128 0xb
 430 0168 C7010000 		.4byte	.LASF25
 431 016c 08       		.byte	0x8
 432 016d 31       		.byte	0x31
 433 016e A3000000 		.4byte	0xa3
 434 0172 38       		.byte	0x38
 435 0173 0B       		.uleb128 0xb
 436 0174 2A020000 		.4byte	.LASF26
 437 0178 08       		.byte	0x8
 438 0179 32       		.byte	0x32
 439 017a 9E000000 		.4byte	0x9e
 440 017e 3C       		.byte	0x3c
 441 017f 0B       		.uleb128 0xb
 442 0180 BC040000 		.4byte	.LASF27
 443 0184 08       		.byte	0x8
ARM GAS  C:\Users\cypress\AppData\Local\Temp\ccxRek6y.s 			page 37


 444 0185 33       		.byte	0x33
 445 0186 91010000 		.4byte	0x191
 446 018a 40       		.byte	0x40
 447 018b 00       		.byte	0
 448 018c 05       		.uleb128 0x5
 449 018d A8000000 		.4byte	0xa8
 450 0191 06       		.uleb128 0x6
 451 0192 8C010000 		.4byte	0x18c
 452 0196 03       		.uleb128 0x3
 453 0197 EF030000 		.4byte	.LASF28
 454 019b 08       		.byte	0x8
 455 019c 34       		.byte	0x34
 456 019d B8000000 		.4byte	0xb8
 457 01a1 0C       		.uleb128 0xc
 458 01a2 2440     		.2byte	0x4024
 459 01a4 08       		.byte	0x8
 460 01a5 39       		.byte	0x39
 461 01a6 2C020000 		.4byte	0x22c
 462 01aa 0A       		.uleb128 0xa
 463 01ab 50525400 		.ascii	"PRT\000"
 464 01af 08       		.byte	0x8
 465 01b0 3A       		.byte	0x3a
 466 01b1 2C020000 		.4byte	0x22c
 467 01b5 00       		.byte	0
 468 01b6 0D       		.uleb128 0xd
 469 01b7 10000000 		.4byte	.LASF29
 470 01bb 08       		.byte	0x8
 471 01bc 3B       		.byte	0x3b
 472 01bd A3000000 		.4byte	0xa3
 473 01c1 0040     		.2byte	0x4000
 474 01c3 0D       		.uleb128 0xd
 475 01c4 CB030000 		.4byte	.LASF30
 476 01c8 08       		.byte	0x8
 477 01c9 3C       		.byte	0x3c
 478 01ca A3000000 		.4byte	0xa3
 479 01ce 0440     		.2byte	0x4004
 480 01d0 0D       		.uleb128 0xd
 481 01d1 D7030000 		.4byte	.LASF31
 482 01d5 08       		.byte	0x8
 483 01d6 3D       		.byte	0x3d
 484 01d7 A3000000 		.4byte	0xa3
 485 01db 0840     		.2byte	0x4008
 486 01dd 0D       		.uleb128 0xd
 487 01de E3030000 		.4byte	.LASF32
 488 01e2 08       		.byte	0x8
 489 01e3 3E       		.byte	0x3e
 490 01e4 A3000000 		.4byte	0xa3
 491 01e8 0C40     		.2byte	0x400c
 492 01ea 0D       		.uleb128 0xd
 493 01eb 38020000 		.4byte	.LASF33
 494 01ef 08       		.byte	0x8
 495 01f0 3F       		.byte	0x3f
 496 01f1 A3000000 		.4byte	0xa3
 497 01f5 1040     		.2byte	0x4010
 498 01f7 0D       		.uleb128 0xd
 499 01f8 14050000 		.4byte	.LASF34
 500 01fc 08       		.byte	0x8
ARM GAS  C:\Users\cypress\AppData\Local\Temp\ccxRek6y.s 			page 38


 501 01fd 40       		.byte	0x40
 502 01fe 9E000000 		.4byte	0x9e
 503 0202 1440     		.2byte	0x4014
 504 0204 0D       		.uleb128 0xd
 505 0205 B9010000 		.4byte	.LASF35
 506 0209 08       		.byte	0x8
 507 020a 41       		.byte	0x41
 508 020b 9E000000 		.4byte	0x9e
 509 020f 1840     		.2byte	0x4018
 510 0211 0D       		.uleb128 0xd
 511 0212 00000000 		.4byte	.LASF36
 512 0216 08       		.byte	0x8
 513 0217 42       		.byte	0x42
 514 0218 A3000000 		.4byte	0xa3
 515 021c 1C40     		.2byte	0x401c
 516 021e 0D       		.uleb128 0xd
 517 021f 4D020000 		.4byte	.LASF37
 518 0223 08       		.byte	0x8
 519 0224 43       		.byte	0x43
 520 0225 9E000000 		.4byte	0x9e
 521 0229 2040     		.2byte	0x4020
 522 022b 00       		.byte	0
 523 022c 07       		.uleb128 0x7
 524 022d 96010000 		.4byte	0x196
 525 0231 3C020000 		.4byte	0x23c
 526 0235 08       		.uleb128 0x8
 527 0236 97000000 		.4byte	0x97
 528 023a 7F       		.byte	0x7f
 529 023b 00       		.byte	0
 530 023c 03       		.uleb128 0x3
 531 023d 62040000 		.4byte	.LASF38
 532 0241 08       		.byte	0x8
 533 0242 44       		.byte	0x44
 534 0243 A1010000 		.4byte	0x1a1
 535 0247 09       		.uleb128 0x9
 536 0248 40       		.byte	0x40
 537 0249 09       		.byte	0x9
 538 024a 22       		.byte	0x22
 539 024b 0F030000 		.4byte	0x30f
 540 024f 0B       		.uleb128 0xb
 541 0250 7F030000 		.4byte	.LASF39
 542 0254 09       		.byte	0x9
 543 0255 23       		.byte	0x23
 544 0256 9E000000 		.4byte	0x9e
 545 025a 00       		.byte	0
 546 025b 0B       		.uleb128 0xb
 547 025c CE020000 		.4byte	.LASF40
 548 0260 09       		.byte	0x9
 549 0261 24       		.byte	0x24
 550 0262 A3000000 		.4byte	0xa3
 551 0266 04       		.byte	0x4
 552 0267 0B       		.uleb128 0xb
 553 0268 4B050000 		.4byte	.LASF41
 554 026c 09       		.byte	0x9
 555 026d 25       		.byte	0x25
 556 026e 9E000000 		.4byte	0x9e
 557 0272 08       		.byte	0x8
ARM GAS  C:\Users\cypress\AppData\Local\Temp\ccxRek6y.s 			page 39


 558 0273 0A       		.uleb128 0xa
 559 0274 434300   		.ascii	"CC\000"
 560 0277 09       		.byte	0x9
 561 0278 26       		.byte	0x26
 562 0279 9E000000 		.4byte	0x9e
 563 027d 0C       		.byte	0xc
 564 027e 0B       		.uleb128 0xb
 565 027f 4E030000 		.4byte	.LASF42
 566 0283 09       		.byte	0x9
 567 0284 27       		.byte	0x27
 568 0285 9E000000 		.4byte	0x9e
 569 0289 10       		.byte	0x10
 570 028a 0B       		.uleb128 0xb
 571 028b C5000000 		.4byte	.LASF43
 572 028f 09       		.byte	0x9
 573 0290 28       		.byte	0x28
 574 0291 9E000000 		.4byte	0x9e
 575 0295 14       		.byte	0x14
 576 0296 0B       		.uleb128 0xb
 577 0297 A9000000 		.4byte	.LASF44
 578 029b 09       		.byte	0x9
 579 029c 29       		.byte	0x29
 580 029d 9E000000 		.4byte	0x9e
 581 02a1 18       		.byte	0x18
 582 02a2 0B       		.uleb128 0xb
 583 02a3 C7010000 		.4byte	.LASF25
 584 02a7 09       		.byte	0x9
 585 02a8 2A       		.byte	0x2a
 586 02a9 A3000000 		.4byte	0xa3
 587 02ad 1C       		.byte	0x1c
 588 02ae 0B       		.uleb128 0xb
 589 02af F4010000 		.4byte	.LASF45
 590 02b3 09       		.byte	0x9
 591 02b4 2B       		.byte	0x2b
 592 02b5 9E000000 		.4byte	0x9e
 593 02b9 20       		.byte	0x20
 594 02ba 0B       		.uleb128 0xb
 595 02bb D7000000 		.4byte	.LASF46
 596 02bf 09       		.byte	0x9
 597 02c0 2C       		.byte	0x2c
 598 02c1 9E000000 		.4byte	0x9e
 599 02c5 24       		.byte	0x24
 600 02c6 0B       		.uleb128 0xb
 601 02c7 E0000000 		.4byte	.LASF47
 602 02cb 09       		.byte	0x9
 603 02cc 2D       		.byte	0x2d
 604 02cd 9E000000 		.4byte	0x9e
 605 02d1 28       		.byte	0x28
 606 02d2 0B       		.uleb128 0xb
 607 02d3 BC040000 		.4byte	.LASF27
 608 02d7 09       		.byte	0x9
 609 02d8 2E       		.byte	0x2e
 610 02d9 A3000000 		.4byte	0xa3
 611 02dd 2C       		.byte	0x2c
 612 02de 0B       		.uleb128 0xb
 613 02df 98040000 		.4byte	.LASF17
 614 02e3 09       		.byte	0x9
ARM GAS  C:\Users\cypress\AppData\Local\Temp\ccxRek6y.s 			page 40


 615 02e4 2F       		.byte	0x2f
 616 02e5 9E000000 		.4byte	0x9e
 617 02e9 30       		.byte	0x30
 618 02ea 0B       		.uleb128 0xb
 619 02eb A2030000 		.4byte	.LASF20
 620 02ef 09       		.byte	0x9
 621 02f0 30       		.byte	0x30
 622 02f1 9E000000 		.4byte	0x9e
 623 02f5 34       		.byte	0x34
 624 02f6 0B       		.uleb128 0xb
 625 02f7 2A040000 		.4byte	.LASF18
 626 02fb 09       		.byte	0x9
 627 02fc 31       		.byte	0x31
 628 02fd 9E000000 		.4byte	0x9e
 629 0301 38       		.byte	0x38
 630 0302 0B       		.uleb128 0xb
 631 0303 42030000 		.4byte	.LASF19
 632 0307 09       		.byte	0x9
 633 0308 32       		.byte	0x32
 634 0309 A3000000 		.4byte	0xa3
 635 030d 3C       		.byte	0x3c
 636 030e 00       		.byte	0
 637 030f 03       		.uleb128 0x3
 638 0310 78000000 		.4byte	.LASF48
 639 0314 09       		.byte	0x9
 640 0315 33       		.byte	0x33
 641 0316 47020000 		.4byte	0x247
 642 031a 0C       		.uleb128 0xc
 643 031b 0009     		.2byte	0x900
 644 031d 09       		.byte	0x9
 645 031e 38       		.byte	0x38
 646 031f 9D030000 		.4byte	0x39d
 647 0323 0B       		.uleb128 0xb
 648 0324 7F030000 		.4byte	.LASF39
 649 0328 09       		.byte	0x9
 650 0329 39       		.byte	0x39
 651 032a 9E000000 		.4byte	0x9e
 652 032e 00       		.byte	0
 653 032f 0B       		.uleb128 0xb
 654 0330 1D050000 		.4byte	.LASF49
 655 0334 09       		.byte	0x9
 656 0335 3A       		.byte	0x3a
 657 0336 9E000000 		.4byte	0x9e
 658 033a 04       		.byte	0x4
 659 033b 0B       		.uleb128 0xb
 660 033c BC000000 		.4byte	.LASF50
 661 0340 09       		.byte	0x9
 662 0341 3B       		.byte	0x3b
 663 0342 9E000000 		.4byte	0x9e
 664 0346 08       		.byte	0x8
 665 0347 0B       		.uleb128 0xb
 666 0348 5A020000 		.4byte	.LASF51
 667 034c 09       		.byte	0x9
 668 034d 3C       		.byte	0x3c
 669 034e 9E000000 		.4byte	0x9e
 670 0352 0C       		.byte	0xc
 671 0353 0B       		.uleb128 0xb
ARM GAS  C:\Users\cypress\AppData\Local\Temp\ccxRek6y.s 			page 41


 672 0354 CC000000 		.4byte	.LASF52
 673 0358 09       		.byte	0x9
 674 0359 3D       		.byte	0x3d
 675 035a 9E000000 		.4byte	0x9e
 676 035e 10       		.byte	0x10
 677 035f 0B       		.uleb128 0xb
 678 0360 18040000 		.4byte	.LASF53
 679 0364 09       		.byte	0x9
 680 0365 3E       		.byte	0x3e
 681 0366 9E000000 		.4byte	0x9e
 682 036a 14       		.byte	0x14
 683 036b 0B       		.uleb128 0xb
 684 036c 77020000 		.4byte	.LASF54
 685 0370 09       		.byte	0x9
 686 0371 3F       		.byte	0x3f
 687 0372 9E000000 		.4byte	0x9e
 688 0376 18       		.byte	0x18
 689 0377 0B       		.uleb128 0xb
 690 0378 84030000 		.4byte	.LASF55
 691 037c 09       		.byte	0x9
 692 037d 40       		.byte	0x40
 693 037e A3000000 		.4byte	0xa3
 694 0382 1C       		.byte	0x1c
 695 0383 0B       		.uleb128 0xb
 696 0384 C7010000 		.4byte	.LASF25
 697 0388 09       		.byte	0x9
 698 0389 41       		.byte	0x41
 699 038a B2030000 		.4byte	0x3b2
 700 038e 20       		.byte	0x20
 701 038f 0E       		.uleb128 0xe
 702 0390 434E5400 		.ascii	"CNT\000"
 703 0394 09       		.byte	0x9
 704 0395 42       		.byte	0x42
 705 0396 B7030000 		.4byte	0x3b7
 706 039a 0001     		.2byte	0x100
 707 039c 00       		.byte	0
 708 039d 07       		.uleb128 0x7
 709 039e A3000000 		.4byte	0xa3
 710 03a2 AD030000 		.4byte	0x3ad
 711 03a6 08       		.uleb128 0x8
 712 03a7 97000000 		.4byte	0x97
 713 03ab 37       		.byte	0x37
 714 03ac 00       		.byte	0
 715 03ad 05       		.uleb128 0x5
 716 03ae 9D030000 		.4byte	0x39d
 717 03b2 06       		.uleb128 0x6
 718 03b3 AD030000 		.4byte	0x3ad
 719 03b7 07       		.uleb128 0x7
 720 03b8 0F030000 		.4byte	0x30f
 721 03bc C7030000 		.4byte	0x3c7
 722 03c0 08       		.uleb128 0x8
 723 03c1 97000000 		.4byte	0x97
 724 03c5 1F       		.byte	0x1f
 725 03c6 00       		.byte	0
 726 03c7 03       		.uleb128 0x3
 727 03c8 9B050000 		.4byte	.LASF56
 728 03cc 09       		.byte	0x9
ARM GAS  C:\Users\cypress\AppData\Local\Temp\ccxRek6y.s 			page 42


 729 03cd 43       		.byte	0x43
 730 03ce 1A030000 		.4byte	0x31a
 731 03d2 02       		.uleb128 0x2
 732 03d3 08       		.byte	0x8
 733 03d4 04       		.byte	0x4
 734 03d5 56030000 		.4byte	.LASF57
 735 03d9 0F       		.uleb128 0xf
 736 03da 11030000 		.4byte	.LASF58
 737 03de 0A       		.byte	0xa
 738 03df C401     		.2byte	0x1c4
 739 03e1 E5030000 		.4byte	0x3e5
 740 03e5 02       		.uleb128 0x2
 741 03e6 01       		.byte	0x1
 742 03e7 08       		.byte	0x8
 743 03e8 6C040000 		.4byte	.LASF59
 744 03ec 02       		.uleb128 0x2
 745 03ed 04       		.byte	0x4
 746 03ee 04       		.byte	0x4
 747 03ef 92020000 		.4byte	.LASF60
 748 03f3 02       		.uleb128 0x2
 749 03f4 08       		.byte	0x8
 750 03f5 04       		.byte	0x4
 751 03f6 E9040000 		.4byte	.LASF61
 752 03fa 02       		.uleb128 0x2
 753 03fb 01       		.byte	0x1
 754 03fc 02       		.byte	0x2
 755 03fd 92040000 		.4byte	.LASF62
 756 0401 10       		.uleb128 0x10
 757 0402 9C010000 		.4byte	.LASF107
 758 0406 64       		.byte	0x64
 759 0407 03       		.byte	0x3
 760 0408 2B       		.byte	0x2b
 761 0409 3A050000 		.4byte	0x53a
 762 040d 0B       		.uleb128 0xb
 763 040e 53050000 		.4byte	.LASF63
 764 0412 03       		.byte	0x3
 765 0413 2D       		.byte	0x2d
 766 0414 8C000000 		.4byte	0x8c
 767 0418 00       		.byte	0
 768 0419 0B       		.uleb128 0xb
 769 041a 28000000 		.4byte	.LASF64
 770 041e 03       		.byte	0x3
 771 041f 2F       		.byte	0x2f
 772 0420 8C000000 		.4byte	0x8c
 773 0424 04       		.byte	0x4
 774 0425 0B       		.uleb128 0xb
 775 0426 03020000 		.4byte	.LASF65
 776 042a 03       		.byte	0x3
 777 042b 30       		.byte	0x30
 778 042c 8C000000 		.4byte	0x8c
 779 0430 08       		.byte	0x8
 780 0431 0B       		.uleb128 0xb
 781 0432 71040000 		.4byte	.LASF66
 782 0436 03       		.byte	0x3
 783 0437 31       		.byte	0x31
 784 0438 8C000000 		.4byte	0x8c
 785 043c 0C       		.byte	0xc
ARM GAS  C:\Users\cypress\AppData\Local\Temp\ccxRek6y.s 			page 43


 786 043d 0B       		.uleb128 0xb
 787 043e C6020000 		.4byte	.LASF67
 788 0442 03       		.byte	0x3
 789 0443 32       		.byte	0x32
 790 0444 8C000000 		.4byte	0x8c
 791 0448 10       		.byte	0x10
 792 0449 0B       		.uleb128 0xb
 793 044a 98020000 		.4byte	.LASF68
 794 044e 03       		.byte	0x3
 795 044f 33       		.byte	0x33
 796 0450 8C000000 		.4byte	0x8c
 797 0454 14       		.byte	0x14
 798 0455 0B       		.uleb128 0xb
 799 0456 A0020000 		.4byte	.LASF69
 800 045a 03       		.byte	0x3
 801 045b 34       		.byte	0x34
 802 045c 8C000000 		.4byte	0x8c
 803 0460 18       		.byte	0x18
 804 0461 0B       		.uleb128 0xb
 805 0462 D8040000 		.4byte	.LASF70
 806 0466 03       		.byte	0x3
 807 0467 35       		.byte	0x35
 808 0468 FA030000 		.4byte	0x3fa
 809 046c 1C       		.byte	0x1c
 810 046d 0B       		.uleb128 0xb
 811 046e 44000000 		.4byte	.LASF71
 812 0472 03       		.byte	0x3
 813 0473 36       		.byte	0x36
 814 0474 8C000000 		.4byte	0x8c
 815 0478 20       		.byte	0x20
 816 0479 0B       		.uleb128 0xb
 817 047a 4D000000 		.4byte	.LASF72
 818 047e 03       		.byte	0x3
 819 047f 37       		.byte	0x37
 820 0480 8C000000 		.4byte	0x8c
 821 0484 24       		.byte	0x24
 822 0485 0B       		.uleb128 0xb
 823 0486 10020000 		.4byte	.LASF73
 824 048a 03       		.byte	0x3
 825 048b 38       		.byte	0x38
 826 048c FA030000 		.4byte	0x3fa
 827 0490 28       		.byte	0x28
 828 0491 0B       		.uleb128 0xb
 829 0492 66020000 		.4byte	.LASF74
 830 0496 03       		.byte	0x3
 831 0497 3A       		.byte	0x3a
 832 0498 8C000000 		.4byte	0x8c
 833 049c 2C       		.byte	0x2c
 834 049d 0B       		.uleb128 0xb
 835 049e 30050000 		.4byte	.LASF75
 836 04a2 03       		.byte	0x3
 837 04a3 3B       		.byte	0x3b
 838 04a4 8C000000 		.4byte	0x8c
 839 04a8 30       		.byte	0x30
 840 04a9 0B       		.uleb128 0xb
 841 04aa 0A040000 		.4byte	.LASF76
 842 04ae 03       		.byte	0x3
ARM GAS  C:\Users\cypress\AppData\Local\Temp\ccxRek6y.s 			page 44


 843 04af 3C       		.byte	0x3c
 844 04b0 8C000000 		.4byte	0x8c
 845 04b4 34       		.byte	0x34
 846 04b5 0B       		.uleb128 0xb
 847 04b6 81020000 		.4byte	.LASF77
 848 04ba 03       		.byte	0x3
 849 04bb 3D       		.byte	0x3d
 850 04bc 8C000000 		.4byte	0x8c
 851 04c0 38       		.byte	0x38
 852 04c1 0B       		.uleb128 0xb
 853 04c2 F0040000 		.4byte	.LASF78
 854 04c6 03       		.byte	0x3
 855 04c7 3E       		.byte	0x3e
 856 04c8 8C000000 		.4byte	0x8c
 857 04cc 3C       		.byte	0x3c
 858 04cd 0B       		.uleb128 0xb
 859 04ce 26050000 		.4byte	.LASF79
 860 04d2 03       		.byte	0x3
 861 04d3 40       		.byte	0x40
 862 04d4 8C000000 		.4byte	0x8c
 863 04d8 40       		.byte	0x40
 864 04d9 0B       		.uleb128 0xb
 865 04da A8020000 		.4byte	.LASF80
 866 04de 03       		.byte	0x3
 867 04df 41       		.byte	0x41
 868 04e0 8C000000 		.4byte	0x8c
 869 04e4 44       		.byte	0x44
 870 04e5 0B       		.uleb128 0xb
 871 04e6 1C000000 		.4byte	.LASF81
 872 04ea 03       		.byte	0x3
 873 04eb 43       		.byte	0x43
 874 04ec 8C000000 		.4byte	0x8c
 875 04f0 48       		.byte	0x48
 876 04f1 0B       		.uleb128 0xb
 877 04f2 62030000 		.4byte	.LASF82
 878 04f6 03       		.byte	0x3
 879 04f7 44       		.byte	0x44
 880 04f8 8C000000 		.4byte	0x8c
 881 04fc 4C       		.byte	0x4c
 882 04fd 0B       		.uleb128 0xb
 883 04fe 09050000 		.4byte	.LASF83
 884 0502 03       		.byte	0x3
 885 0503 46       		.byte	0x46
 886 0504 8C000000 		.4byte	0x8c
 887 0508 50       		.byte	0x50
 888 0509 0B       		.uleb128 0xb
 889 050a 3D050000 		.4byte	.LASF84
 890 050e 03       		.byte	0x3
 891 050f 47       		.byte	0x47
 892 0510 8C000000 		.4byte	0x8c
 893 0514 54       		.byte	0x54
 894 0515 0B       		.uleb128 0xb
 895 0516 43020000 		.4byte	.LASF85
 896 051a 03       		.byte	0x3
 897 051b 49       		.byte	0x49
 898 051c 8C000000 		.4byte	0x8c
 899 0520 58       		.byte	0x58
ARM GAS  C:\Users\cypress\AppData\Local\Temp\ccxRek6y.s 			page 45


 900 0521 0B       		.uleb128 0xb
 901 0522 91000000 		.4byte	.LASF86
 902 0526 03       		.byte	0x3
 903 0527 4A       		.byte	0x4a
 904 0528 8C000000 		.4byte	0x8c
 905 052c 5C       		.byte	0x5c
 906 052d 0B       		.uleb128 0xb
 907 052e 83050000 		.4byte	.LASF87
 908 0532 03       		.byte	0x3
 909 0533 4C       		.byte	0x4c
 910 0534 8C000000 		.4byte	0x8c
 911 0538 60       		.byte	0x60
 912 0539 00       		.byte	0
 913 053a 03       		.uleb128 0x3
 914 053b 56000000 		.4byte	.LASF88
 915 053f 03       		.byte	0x3
 916 0540 4D       		.byte	0x4d
 917 0541 01040000 		.4byte	0x401
 918 0545 11       		.uleb128 0x11
 919 0546 1F030000 		.4byte	.LASF108
 920 054a 02       		.byte	0x2
 921 054b 53       		.byte	0x53
 922 054c 03       		.byte	0x3
 923 054d 12       		.uleb128 0x12
 924 054e E0010000 		.4byte	.LASF91
 925 0552 03       		.byte	0x3
 926 0553 EE       		.byte	0xee
 927 0554 03       		.byte	0x3
 928 0555 70050000 		.4byte	0x570
 929 0559 13       		.uleb128 0x13
 930 055a A6050000 		.4byte	.LASF89
 931 055e 03       		.byte	0x3
 932 055f EE       		.byte	0xee
 933 0560 70050000 		.4byte	0x570
 934 0564 13       		.uleb128 0x13
 935 0565 18030000 		.4byte	.LASF90
 936 0569 03       		.byte	0x3
 937 056a EE       		.byte	0xee
 938 056b 8C000000 		.4byte	0x8c
 939 056f 00       		.byte	0
 940 0570 14       		.uleb128 0x14
 941 0571 04       		.byte	0x4
 942 0572 C7030000 		.4byte	0x3c7
 943 0576 15       		.uleb128 0x15
 944 0577 AB050000 		.4byte	.LASF92
 945 057b 04       		.byte	0x4
 946 057c E502     		.2byte	0x2e5
 947 057e 03       		.byte	0x3
 948 057f A8050000 		.4byte	0x5a8
 949 0583 16       		.uleb128 0x16
 950 0584 A6050000 		.4byte	.LASF89
 951 0588 04       		.byte	0x4
 952 0589 E502     		.2byte	0x2e5
 953 058b A8050000 		.4byte	0x5a8
 954 058f 16       		.uleb128 0x16
 955 0590 8F030000 		.4byte	.LASF93
 956 0594 04       		.byte	0x4
ARM GAS  C:\Users\cypress\AppData\Local\Temp\ccxRek6y.s 			page 46


 957 0595 E502     		.2byte	0x2e5
 958 0597 8C000000 		.4byte	0x8c
 959 059b 16       		.uleb128 0x16
 960 059c FD010000 		.4byte	.LASF94
 961 05a0 04       		.byte	0x4
 962 05a1 E502     		.2byte	0x2e5
 963 05a3 8C000000 		.4byte	0x8c
 964 05a7 00       		.byte	0
 965 05a8 14       		.uleb128 0x14
 966 05a9 04       		.byte	0x4
 967 05aa 96010000 		.4byte	0x196
 968 05ae 15       		.uleb128 0x15
 969 05af 5B050000 		.4byte	.LASF95
 970 05b3 05       		.byte	0x5
 971 05b4 D201     		.2byte	0x1d2
 972 05b6 03       		.byte	0x3
 973 05b7 D4050000 		.4byte	0x5d4
 974 05bb 16       		.uleb128 0x16
 975 05bc A6050000 		.4byte	.LASF89
 976 05c0 05       		.byte	0x5
 977 05c1 D201     		.2byte	0x1d2
 978 05c3 70050000 		.4byte	0x570
 979 05c7 16       		.uleb128 0x16
 980 05c8 B9050000 		.4byte	.LASF96
 981 05cc 05       		.byte	0x5
 982 05cd D201     		.2byte	0x1d2
 983 05cf 8C000000 		.4byte	0x8c
 984 05d3 00       		.byte	0
 985 05d4 15       		.uleb128 0x15
 986 05d5 2C030000 		.4byte	.LASF97
 987 05d9 05       		.byte	0x5
 988 05da A601     		.2byte	0x1a6
 989 05dc 03       		.byte	0x3
 990 05dd FA050000 		.4byte	0x5fa
 991 05e1 16       		.uleb128 0x16
 992 05e2 A6050000 		.4byte	.LASF89
 993 05e6 05       		.byte	0x5
 994 05e7 A601     		.2byte	0x1a6
 995 05e9 70050000 		.4byte	0x570
 996 05ed 16       		.uleb128 0x16
 997 05ee B9050000 		.4byte	.LASF96
 998 05f2 05       		.byte	0x5
 999 05f3 A601     		.2byte	0x1a6
 1000 05f5 8C000000 		.4byte	0x8c
 1001 05f9 00       		.byte	0
 1002 05fa 17       		.uleb128 0x17
 1003 05fb B4010000 		.4byte	.LASF109
 1004 05ff 01       		.byte	0x1
 1005 0600 0E       		.byte	0xe
 1006 0601 73000000 		.4byte	0x73
 1007 0605 00000000 		.4byte	.LFB450
 1008 0609 B8000000 		.4byte	.LFE450-.LFB450
 1009 060d 01       		.uleb128 0x1
 1010 060e 9C       		.byte	0x9c
 1011 060f B3090000 		.4byte	0x9b3
 1012 0613 18       		.uleb128 0x18
 1013 0614 45050000 		.4byte	0x545
ARM GAS  C:\Users\cypress\AppData\Local\Temp\ccxRek6y.s 			page 47


 1014 0618 02000000 		.4byte	.LBB40
 1015 061c 02000000 		.4byte	.LBE40-.LBB40
 1016 0620 01       		.byte	0x1
 1017 0621 10       		.byte	0x10
 1018 0622 19       		.uleb128 0x19
 1019 0623 4D050000 		.4byte	0x54d
 1020 0627 10000000 		.4byte	.LBB42
 1021 062b 04000000 		.4byte	.LBE42-.LBB42
 1022 062f 01       		.byte	0x1
 1023 0630 14       		.byte	0x14
 1024 0631 48060000 		.4byte	0x648
 1025 0635 1A       		.uleb128 0x1a
 1026 0636 64050000 		.4byte	0x564
 1027 063a 00000000 		.4byte	.LLST0
 1028 063e 1A       		.uleb128 0x1a
 1029 063f 59050000 		.4byte	0x559
 1030 0643 14000000 		.4byte	.LLST1
 1031 0647 00       		.byte	0
 1032 0648 19       		.uleb128 0x19
 1033 0649 4D050000 		.4byte	0x54d
 1034 064d 1E000000 		.4byte	.LBB44
 1035 0651 04000000 		.4byte	.LBE44-.LBB44
 1036 0655 01       		.byte	0x1
 1037 0656 17       		.byte	0x17
 1038 0657 6E060000 		.4byte	0x66e
 1039 065b 1A       		.uleb128 0x1a
 1040 065c 64050000 		.4byte	0x564
 1041 0660 2C000000 		.4byte	.LLST2
 1042 0664 1A       		.uleb128 0x1a
 1043 0665 59050000 		.4byte	0x559
 1044 0669 40000000 		.4byte	.LLST3
 1045 066d 00       		.byte	0
 1046 066e 19       		.uleb128 0x19
 1047 066f 4D050000 		.4byte	0x54d
 1048 0673 2A000000 		.4byte	.LBB46
 1049 0677 04000000 		.4byte	.LBE46-.LBB46
 1050 067b 01       		.byte	0x1
 1051 067c 1A       		.byte	0x1a
 1052 067d 91060000 		.4byte	0x691
 1053 0681 1B       		.uleb128 0x1b
 1054 0682 64050000 		.4byte	0x564
 1055 0686 01       		.byte	0x1
 1056 0687 1C       		.uleb128 0x1c
 1057 0688 59050000 		.4byte	0x559
 1058 068c 00003840 		.4byte	0x40380000
 1059 0690 00       		.byte	0
 1060 0691 19       		.uleb128 0x19
 1061 0692 76050000 		.4byte	0x576
 1062 0696 2E000000 		.4byte	.LBB48
 1063 069a 0C000000 		.4byte	.LBE48-.LBB48
 1064 069e 01       		.byte	0x1
 1065 069f 20       		.byte	0x20
 1066 06a0 C0060000 		.4byte	0x6c0
 1067 06a4 1A       		.uleb128 0x1a
 1068 06a5 9B050000 		.4byte	0x59b
 1069 06a9 58000000 		.4byte	.LLST4
 1070 06ad 1A       		.uleb128 0x1a
ARM GAS  C:\Users\cypress\AppData\Local\Temp\ccxRek6y.s 			page 48


 1071 06ae 8F050000 		.4byte	0x58f
 1072 06b2 6C000000 		.4byte	.LLST5
 1073 06b6 1A       		.uleb128 0x1a
 1074 06b7 83050000 		.4byte	0x583
 1075 06bb 80000000 		.4byte	.LLST6
 1076 06bf 00       		.byte	0
 1077 06c0 19       		.uleb128 0x19
 1078 06c1 76050000 		.4byte	0x576
 1079 06c5 3A000000 		.4byte	.LBB50
 1080 06c9 06000000 		.4byte	.LBE50-.LBB50
 1081 06cd 01       		.byte	0x1
 1082 06ce 21       		.byte	0x21
 1083 06cf EF060000 		.4byte	0x6ef
 1084 06d3 1A       		.uleb128 0x1a
 1085 06d4 9B050000 		.4byte	0x59b
 1086 06d8 98000000 		.4byte	.LLST7
 1087 06dc 1A       		.uleb128 0x1a
 1088 06dd 8F050000 		.4byte	0x58f
 1089 06e1 AC000000 		.4byte	.LLST8
 1090 06e5 1A       		.uleb128 0x1a
 1091 06e6 83050000 		.4byte	0x583
 1092 06ea C0000000 		.4byte	.LLST9
 1093 06ee 00       		.byte	0
 1094 06ef 19       		.uleb128 0x19
 1095 06f0 76050000 		.4byte	0x576
 1096 06f4 40000000 		.4byte	.LBB52
 1097 06f8 04000000 		.4byte	.LBE52-.LBB52
 1098 06fc 01       		.byte	0x1
 1099 06fd 22       		.byte	0x22
 1100 06fe 1E070000 		.4byte	0x71e
 1101 0702 1A       		.uleb128 0x1a
 1102 0703 9B050000 		.4byte	0x59b
 1103 0707 D8000000 		.4byte	.LLST10
 1104 070b 1A       		.uleb128 0x1a
 1105 070c 8F050000 		.4byte	0x58f
 1106 0710 EC000000 		.4byte	.LLST11
 1107 0714 1A       		.uleb128 0x1a
 1108 0715 83050000 		.4byte	0x583
 1109 0719 00010000 		.4byte	.LLST12
 1110 071d 00       		.byte	0
 1111 071e 19       		.uleb128 0x19
 1112 071f D4050000 		.4byte	0x5d4
 1113 0723 44000000 		.4byte	.LBB54
 1114 0727 06000000 		.4byte	.LBE54-.LBB54
 1115 072b 01       		.byte	0x1
 1116 072c 24       		.byte	0x24
 1117 072d 44070000 		.4byte	0x744
 1118 0731 1A       		.uleb128 0x1a
 1119 0732 ED050000 		.4byte	0x5ed
 1120 0736 18010000 		.4byte	.LLST13
 1121 073a 1A       		.uleb128 0x1a
 1122 073b E1050000 		.4byte	0x5e1
 1123 073f 2C010000 		.4byte	.LLST14
 1124 0743 00       		.byte	0
 1125 0744 19       		.uleb128 0x19
 1126 0745 AE050000 		.4byte	0x5ae
 1127 0749 52000000 		.4byte	.LBB56
ARM GAS  C:\Users\cypress\AppData\Local\Temp\ccxRek6y.s 			page 49


 1128 074d 02000000 		.4byte	.LBE56-.LBB56
 1129 0751 01       		.byte	0x1
 1130 0752 26       		.byte	0x26
 1131 0753 6A070000 		.4byte	0x76a
 1132 0757 1A       		.uleb128 0x1a
 1133 0758 C7050000 		.4byte	0x5c7
 1134 075c 44010000 		.4byte	.LLST15
 1135 0760 1A       		.uleb128 0x1a
 1136 0761 BB050000 		.4byte	0x5bb
 1137 0765 58010000 		.4byte	.LLST16
 1138 0769 00       		.byte	0
 1139 076a 19       		.uleb128 0x19
 1140 076b 76050000 		.4byte	0x576
 1141 076f 54000000 		.4byte	.LBB58
 1142 0773 04000000 		.4byte	.LBE58-.LBB58
 1143 0777 01       		.byte	0x1
 1144 0778 27       		.byte	0x27
 1145 0779 99070000 		.4byte	0x799
 1146 077d 1A       		.uleb128 0x1a
 1147 077e 9B050000 		.4byte	0x59b
 1148 0782 70010000 		.4byte	.LLST17
 1149 0786 1A       		.uleb128 0x1a
 1150 0787 8F050000 		.4byte	0x58f
 1151 078b 84010000 		.4byte	.LLST18
 1152 078f 1A       		.uleb128 0x1a
 1153 0790 83050000 		.4byte	0x583
 1154 0794 98010000 		.4byte	.LLST19
 1155 0798 00       		.byte	0
 1156 0799 19       		.uleb128 0x19
 1157 079a 76050000 		.4byte	0x576
 1158 079e 60000000 		.4byte	.LBB60
 1159 07a2 02000000 		.4byte	.LBE60-.LBB60
 1160 07a6 01       		.byte	0x1
 1161 07a7 2B       		.byte	0x2b
 1162 07a8 C8070000 		.4byte	0x7c8
 1163 07ac 1A       		.uleb128 0x1a
 1164 07ad 9B050000 		.4byte	0x59b
 1165 07b1 B0010000 		.4byte	.LLST20
 1166 07b5 1A       		.uleb128 0x1a
 1167 07b6 8F050000 		.4byte	0x58f
 1168 07ba B0010000 		.4byte	.LLST20
 1169 07be 1A       		.uleb128 0x1a
 1170 07bf 83050000 		.4byte	0x583
 1171 07c3 C4010000 		.4byte	.LLST22
 1172 07c7 00       		.byte	0
 1173 07c8 19       		.uleb128 0x19
 1174 07c9 D4050000 		.4byte	0x5d4
 1175 07cd 62000000 		.4byte	.LBB62
 1176 07d1 08000000 		.4byte	.LBE62-.LBB62
 1177 07d5 01       		.byte	0x1
 1178 07d6 2C       		.byte	0x2c
 1179 07d7 EE070000 		.4byte	0x7ee
 1180 07db 1A       		.uleb128 0x1a
 1181 07dc ED050000 		.4byte	0x5ed
 1182 07e0 DC010000 		.4byte	.LLST23
 1183 07e4 1A       		.uleb128 0x1a
 1184 07e5 E1050000 		.4byte	0x5e1
ARM GAS  C:\Users\cypress\AppData\Local\Temp\ccxRek6y.s 			page 50


 1185 07e9 F0010000 		.4byte	.LLST24
 1186 07ed 00       		.byte	0
 1187 07ee 19       		.uleb128 0x19
 1188 07ef AE050000 		.4byte	0x5ae
 1189 07f3 72000000 		.4byte	.LBB64
 1190 07f7 04000000 		.4byte	.LBE64-.LBB64
 1191 07fb 01       		.byte	0x1
 1192 07fc 2E       		.byte	0x2e
 1193 07fd 14080000 		.4byte	0x814
 1194 0801 1A       		.uleb128 0x1a
 1195 0802 C7050000 		.4byte	0x5c7
 1196 0806 08020000 		.4byte	.LLST25
 1197 080a 1A       		.uleb128 0x1a
 1198 080b BB050000 		.4byte	0x5bb
 1199 080f 1C020000 		.4byte	.LLST26
 1200 0813 00       		.byte	0
 1201 0814 19       		.uleb128 0x19
 1202 0815 76050000 		.4byte	0x576
 1203 0819 76000000 		.4byte	.LBB66
 1204 081d 02000000 		.4byte	.LBE66-.LBB66
 1205 0821 01       		.byte	0x1
 1206 0822 2F       		.byte	0x2f
 1207 0823 43080000 		.4byte	0x843
 1208 0827 1A       		.uleb128 0x1a
 1209 0828 9B050000 		.4byte	0x59b
 1210 082c 34020000 		.4byte	.LLST27
 1211 0830 1A       		.uleb128 0x1a
 1212 0831 8F050000 		.4byte	0x58f
 1213 0835 48020000 		.4byte	.LLST28
 1214 0839 1A       		.uleb128 0x1a
 1215 083a 83050000 		.4byte	0x583
 1216 083e 5C020000 		.4byte	.LLST29
 1217 0842 00       		.byte	0
 1218 0843 19       		.uleb128 0x19
 1219 0844 76050000 		.4byte	0x576
 1220 0848 80000000 		.4byte	.LBB68
 1221 084c 02000000 		.4byte	.LBE68-.LBB68
 1222 0850 01       		.byte	0x1
 1223 0851 33       		.byte	0x33
 1224 0852 72080000 		.4byte	0x872
 1225 0856 1A       		.uleb128 0x1a
 1226 0857 9B050000 		.4byte	0x59b
 1227 085b 74020000 		.4byte	.LLST30
 1228 085f 1A       		.uleb128 0x1a
 1229 0860 8F050000 		.4byte	0x58f
 1230 0864 74020000 		.4byte	.LLST30
 1231 0868 1A       		.uleb128 0x1a
 1232 0869 83050000 		.4byte	0x583
 1233 086d 88020000 		.4byte	.LLST32
 1234 0871 00       		.byte	0
 1235 0872 19       		.uleb128 0x19
 1236 0873 D4050000 		.4byte	0x5d4
 1237 0877 82000000 		.4byte	.LBB70
 1238 087b 02000000 		.4byte	.LBE70-.LBB70
 1239 087f 01       		.byte	0x1
 1240 0880 34       		.byte	0x34
 1241 0881 98080000 		.4byte	0x898
ARM GAS  C:\Users\cypress\AppData\Local\Temp\ccxRek6y.s 			page 51


 1242 0885 1A       		.uleb128 0x1a
 1243 0886 ED050000 		.4byte	0x5ed
 1244 088a A0020000 		.4byte	.LLST33
 1245 088e 1A       		.uleb128 0x1a
 1246 088f E1050000 		.4byte	0x5e1
 1247 0893 B4020000 		.4byte	.LLST34
 1248 0897 00       		.byte	0
 1249 0898 19       		.uleb128 0x19
 1250 0899 AE050000 		.4byte	0x5ae
 1251 089d 8C000000 		.4byte	.LBB72
 1252 08a1 04000000 		.4byte	.LBE72-.LBB72
 1253 08a5 01       		.byte	0x1
 1254 08a6 36       		.byte	0x36
 1255 08a7 BE080000 		.4byte	0x8be
 1256 08ab 1A       		.uleb128 0x1a
 1257 08ac C7050000 		.4byte	0x5c7
 1258 08b0 CC020000 		.4byte	.LLST35
 1259 08b4 1A       		.uleb128 0x1a
 1260 08b5 BB050000 		.4byte	0x5bb
 1261 08b9 E0020000 		.4byte	.LLST36
 1262 08bd 00       		.byte	0
 1263 08be 19       		.uleb128 0x19
 1264 08bf 76050000 		.4byte	0x576
 1265 08c3 90000000 		.4byte	.LBB74
 1266 08c7 02000000 		.4byte	.LBE74-.LBB74
 1267 08cb 01       		.byte	0x1
 1268 08cc 37       		.byte	0x37
 1269 08cd ED080000 		.4byte	0x8ed
 1270 08d1 1A       		.uleb128 0x1a
 1271 08d2 9B050000 		.4byte	0x59b
 1272 08d6 F8020000 		.4byte	.LLST37
 1273 08da 1A       		.uleb128 0x1a
 1274 08db 8F050000 		.4byte	0x58f
 1275 08df 0C030000 		.4byte	.LLST38
 1276 08e3 1A       		.uleb128 0x1a
 1277 08e4 83050000 		.4byte	0x583
 1278 08e8 20030000 		.4byte	.LLST39
 1279 08ec 00       		.byte	0
 1280 08ed 1D       		.uleb128 0x1d
 1281 08ee 10000000 		.4byte	.LVL0
 1282 08f2 EA090000 		.4byte	0x9ea
 1283 08f6 06090000 		.4byte	0x906
 1284 08fa 1E       		.uleb128 0x1e
 1285 08fb 01       		.uleb128 0x1
 1286 08fc 50       		.byte	0x50
 1287 08fd 02       		.uleb128 0x2
 1288 08fe 74       		.byte	0x74
 1289 08ff 00       		.sleb128 0
 1290 0900 1E       		.uleb128 0x1e
 1291 0901 01       		.uleb128 0x1
 1292 0902 51       		.byte	0x51
 1293 0903 01       		.uleb128 0x1
 1294 0904 32       		.byte	0x32
 1295 0905 00       		.byte	0
 1296 0906 1D       		.uleb128 0x1d
 1297 0907 1E000000 		.4byte	.LVL2
 1298 090b EA090000 		.4byte	0x9ea
ARM GAS  C:\Users\cypress\AppData\Local\Temp\ccxRek6y.s 			page 52


 1299 090f 1F090000 		.4byte	0x91f
 1300 0913 1E       		.uleb128 0x1e
 1301 0914 01       		.uleb128 0x1
 1302 0915 50       		.byte	0x50
 1303 0916 02       		.uleb128 0x2
 1304 0917 74       		.byte	0x74
 1305 0918 00       		.sleb128 0
 1306 0919 1E       		.uleb128 0x1e
 1307 091a 01       		.uleb128 0x1
 1308 091b 51       		.byte	0x51
 1309 091c 01       		.uleb128 0x1
 1310 091d 30       		.byte	0x30
 1311 091e 00       		.byte	0
 1312 091f 1D       		.uleb128 0x1d
 1313 0920 2A000000 		.4byte	.LVL4
 1314 0924 EA090000 		.4byte	0x9ea
 1315 0928 38090000 		.4byte	0x938
 1316 092c 1E       		.uleb128 0x1e
 1317 092d 01       		.uleb128 0x1
 1318 092e 50       		.byte	0x50
 1319 092f 02       		.uleb128 0x2
 1320 0930 74       		.byte	0x74
 1321 0931 00       		.sleb128 0
 1322 0932 1E       		.uleb128 0x1e
 1323 0933 01       		.uleb128 0x1
 1324 0934 51       		.byte	0x51
 1325 0935 01       		.uleb128 0x1
 1326 0936 31       		.byte	0x31
 1327 0937 00       		.byte	0
 1328 0938 1D       		.uleb128 0x1d
 1329 0939 52000000 		.4byte	.LVL10
 1330 093d F5090000 		.4byte	0x9f5
 1331 0941 4D090000 		.4byte	0x94d
 1332 0945 1E       		.uleb128 0x1e
 1333 0946 01       		.uleb128 0x1
 1334 0947 50       		.byte	0x50
 1335 0948 03       		.uleb128 0x3
 1336 0949 0A       		.byte	0xa
 1337 094a D20F     		.2byte	0xfd2
 1338 094c 00       		.byte	0
 1339 094d 1D       		.uleb128 0x1d
 1340 094e 60000000 		.4byte	.LVL13
 1341 0952 F5090000 		.4byte	0x9f5
 1342 0956 62090000 		.4byte	0x962
 1343 095a 1E       		.uleb128 0x1e
 1344 095b 01       		.uleb128 0x1
 1345 095c 50       		.byte	0x50
 1346 095d 03       		.uleb128 0x3
 1347 095e 0A       		.byte	0xa
 1348 095f E803     		.2byte	0x3e8
 1349 0961 00       		.byte	0
 1350 0962 1D       		.uleb128 0x1d
 1351 0963 72000000 		.4byte	.LVL16
 1352 0967 F5090000 		.4byte	0x9f5
 1353 096b 77090000 		.4byte	0x977
 1354 096f 1E       		.uleb128 0x1e
 1355 0970 01       		.uleb128 0x1
ARM GAS  C:\Users\cypress\AppData\Local\Temp\ccxRek6y.s 			page 53


 1356 0971 50       		.byte	0x50
 1357 0972 03       		.uleb128 0x3
 1358 0973 0A       		.byte	0xa
 1359 0974 D20F     		.2byte	0xfd2
 1360 0976 00       		.byte	0
 1361 0977 1D       		.uleb128 0x1d
 1362 0978 80000000 		.4byte	.LVL19
 1363 097c F5090000 		.4byte	0x9f5
 1364 0980 8C090000 		.4byte	0x98c
 1365 0984 1E       		.uleb128 0x1e
 1366 0985 01       		.uleb128 0x1
 1367 0986 50       		.byte	0x50
 1368 0987 03       		.uleb128 0x3
 1369 0988 0A       		.byte	0xa
 1370 0989 E803     		.2byte	0x3e8
 1371 098b 00       		.byte	0
 1372 098c 1D       		.uleb128 0x1d
 1373 098d 8C000000 		.4byte	.LVL22
 1374 0991 F5090000 		.4byte	0x9f5
 1375 0995 A1090000 		.4byte	0x9a1
 1376 0999 1E       		.uleb128 0x1e
 1377 099a 01       		.uleb128 0x1
 1378 099b 50       		.byte	0x50
 1379 099c 03       		.uleb128 0x3
 1380 099d 0A       		.byte	0xa
 1381 099e D20F     		.2byte	0xfd2
 1382 09a0 00       		.byte	0
 1383 09a1 1F       		.uleb128 0x1f
 1384 09a2 9A000000 		.4byte	.LVL25
 1385 09a6 F5090000 		.4byte	0x9f5
 1386 09aa 1E       		.uleb128 0x1e
 1387 09ab 01       		.uleb128 0x1
 1388 09ac 50       		.byte	0x50
 1389 09ad 03       		.uleb128 0x3
 1390 09ae 0A       		.byte	0xa
 1391 09af E803     		.2byte	0x3e8
 1392 09b1 00       		.byte	0
 1393 09b2 00       		.byte	0
 1394 09b3 20       		.uleb128 0x20
 1395 09b4 8E050000 		.4byte	.LASF98
 1396 09b8 0B       		.byte	0xb
 1397 09b9 EA07     		.2byte	0x7ea
 1398 09bb BF090000 		.4byte	0x9bf
 1399 09bf 05       		.uleb128 0x5
 1400 09c0 81000000 		.4byte	0x81
 1401 09c4 21       		.uleb128 0x21
 1402 09c5 37000000 		.4byte	.LASF99
 1403 09c9 0C       		.byte	0xc
 1404 09ca 1F       		.byte	0x1f
 1405 09cb CF090000 		.4byte	0x9cf
 1406 09cf 06       		.uleb128 0x6
 1407 09d0 3A050000 		.4byte	0x53a
 1408 09d4 21       		.uleb128 0x21
 1409 09d5 FD030000 		.4byte	.LASF100
 1410 09d9 0D       		.byte	0xd
 1411 09da 1F       		.byte	0x1f
 1412 09db CF090000 		.4byte	0x9cf
ARM GAS  C:\Users\cypress\AppData\Local\Temp\ccxRek6y.s 			page 54


 1413 09df 21       		.uleb128 0x21
 1414 09e0 76050000 		.4byte	.LASF101
 1415 09e4 0E       		.byte	0xe
 1416 09e5 1F       		.byte	0x1f
 1417 09e6 CF090000 		.4byte	0x9cf
 1418 09ea 22       		.uleb128 0x22
 1419 09eb 9D040000 		.4byte	.LASF102
 1420 09ef 9D040000 		.4byte	.LASF102
 1421 09f3 03       		.byte	0x3
 1422 09f4 CB       		.byte	0xcb
 1423 09f5 23       		.uleb128 0x23
 1424 09f6 D0010000 		.4byte	.LASF103
 1425 09fa D0010000 		.4byte	.LASF103
 1426 09fe 0A       		.byte	0xa
 1427 09ff 2103     		.2byte	0x321
 1428 0a01 00       		.byte	0
 1429              		.section	.debug_abbrev,"",%progbits
 1430              	.Ldebug_abbrev0:
 1431 0000 01       		.uleb128 0x1
 1432 0001 11       		.uleb128 0x11
 1433 0002 01       		.byte	0x1
 1434 0003 25       		.uleb128 0x25
 1435 0004 0E       		.uleb128 0xe
 1436 0005 13       		.uleb128 0x13
 1437 0006 0B       		.uleb128 0xb
 1438 0007 03       		.uleb128 0x3
 1439 0008 0E       		.uleb128 0xe
 1440 0009 1B       		.uleb128 0x1b
 1441 000a 0E       		.uleb128 0xe
 1442 000b 55       		.uleb128 0x55
 1443 000c 17       		.uleb128 0x17
 1444 000d 11       		.uleb128 0x11
 1445 000e 01       		.uleb128 0x1
 1446 000f 10       		.uleb128 0x10
 1447 0010 17       		.uleb128 0x17
 1448 0011 00       		.byte	0
 1449 0012 00       		.byte	0
 1450 0013 02       		.uleb128 0x2
 1451 0014 24       		.uleb128 0x24
 1452 0015 00       		.byte	0
 1453 0016 0B       		.uleb128 0xb
 1454 0017 0B       		.uleb128 0xb
 1455 0018 3E       		.uleb128 0x3e
 1456 0019 0B       		.uleb128 0xb
 1457 001a 03       		.uleb128 0x3
 1458 001b 0E       		.uleb128 0xe
 1459 001c 00       		.byte	0
 1460 001d 00       		.byte	0
 1461 001e 03       		.uleb128 0x3
 1462 001f 16       		.uleb128 0x16
 1463 0020 00       		.byte	0
 1464 0021 03       		.uleb128 0x3
 1465 0022 0E       		.uleb128 0xe
 1466 0023 3A       		.uleb128 0x3a
 1467 0024 0B       		.uleb128 0xb
 1468 0025 3B       		.uleb128 0x3b
 1469 0026 0B       		.uleb128 0xb
ARM GAS  C:\Users\cypress\AppData\Local\Temp\ccxRek6y.s 			page 55


 1470 0027 49       		.uleb128 0x49
 1471 0028 13       		.uleb128 0x13
 1472 0029 00       		.byte	0
 1473 002a 00       		.byte	0
 1474 002b 04       		.uleb128 0x4
 1475 002c 24       		.uleb128 0x24
 1476 002d 00       		.byte	0
 1477 002e 0B       		.uleb128 0xb
 1478 002f 0B       		.uleb128 0xb
 1479 0030 3E       		.uleb128 0x3e
 1480 0031 0B       		.uleb128 0xb
 1481 0032 03       		.uleb128 0x3
 1482 0033 08       		.uleb128 0x8
 1483 0034 00       		.byte	0
 1484 0035 00       		.byte	0
 1485 0036 05       		.uleb128 0x5
 1486 0037 35       		.uleb128 0x35
 1487 0038 00       		.byte	0
 1488 0039 49       		.uleb128 0x49
 1489 003a 13       		.uleb128 0x13
 1490 003b 00       		.byte	0
 1491 003c 00       		.byte	0
 1492 003d 06       		.uleb128 0x6
 1493 003e 26       		.uleb128 0x26
 1494 003f 00       		.byte	0
 1495 0040 49       		.uleb128 0x49
 1496 0041 13       		.uleb128 0x13
 1497 0042 00       		.byte	0
 1498 0043 00       		.byte	0
 1499 0044 07       		.uleb128 0x7
 1500 0045 01       		.uleb128 0x1
 1501 0046 01       		.byte	0x1
 1502 0047 49       		.uleb128 0x49
 1503 0048 13       		.uleb128 0x13
 1504 0049 01       		.uleb128 0x1
 1505 004a 13       		.uleb128 0x13
 1506 004b 00       		.byte	0
 1507 004c 00       		.byte	0
 1508 004d 08       		.uleb128 0x8
 1509 004e 21       		.uleb128 0x21
 1510 004f 00       		.byte	0
 1511 0050 49       		.uleb128 0x49
 1512 0051 13       		.uleb128 0x13
 1513 0052 2F       		.uleb128 0x2f
 1514 0053 0B       		.uleb128 0xb
 1515 0054 00       		.byte	0
 1516 0055 00       		.byte	0
 1517 0056 09       		.uleb128 0x9
 1518 0057 13       		.uleb128 0x13
 1519 0058 01       		.byte	0x1
 1520 0059 0B       		.uleb128 0xb
 1521 005a 0B       		.uleb128 0xb
 1522 005b 3A       		.uleb128 0x3a
 1523 005c 0B       		.uleb128 0xb
 1524 005d 3B       		.uleb128 0x3b
 1525 005e 0B       		.uleb128 0xb
 1526 005f 01       		.uleb128 0x1
ARM GAS  C:\Users\cypress\AppData\Local\Temp\ccxRek6y.s 			page 56


 1527 0060 13       		.uleb128 0x13
 1528 0061 00       		.byte	0
 1529 0062 00       		.byte	0
 1530 0063 0A       		.uleb128 0xa
 1531 0064 0D       		.uleb128 0xd
 1532 0065 00       		.byte	0
 1533 0066 03       		.uleb128 0x3
 1534 0067 08       		.uleb128 0x8
 1535 0068 3A       		.uleb128 0x3a
 1536 0069 0B       		.uleb128 0xb
 1537 006a 3B       		.uleb128 0x3b
 1538 006b 0B       		.uleb128 0xb
 1539 006c 49       		.uleb128 0x49
 1540 006d 13       		.uleb128 0x13
 1541 006e 38       		.uleb128 0x38
 1542 006f 0B       		.uleb128 0xb
 1543 0070 00       		.byte	0
 1544 0071 00       		.byte	0
 1545 0072 0B       		.uleb128 0xb
 1546 0073 0D       		.uleb128 0xd
 1547 0074 00       		.byte	0
 1548 0075 03       		.uleb128 0x3
 1549 0076 0E       		.uleb128 0xe
 1550 0077 3A       		.uleb128 0x3a
 1551 0078 0B       		.uleb128 0xb
 1552 0079 3B       		.uleb128 0x3b
 1553 007a 0B       		.uleb128 0xb
 1554 007b 49       		.uleb128 0x49
 1555 007c 13       		.uleb128 0x13
 1556 007d 38       		.uleb128 0x38
 1557 007e 0B       		.uleb128 0xb
 1558 007f 00       		.byte	0
 1559 0080 00       		.byte	0
 1560 0081 0C       		.uleb128 0xc
 1561 0082 13       		.uleb128 0x13
 1562 0083 01       		.byte	0x1
 1563 0084 0B       		.uleb128 0xb
 1564 0085 05       		.uleb128 0x5
 1565 0086 3A       		.uleb128 0x3a
 1566 0087 0B       		.uleb128 0xb
 1567 0088 3B       		.uleb128 0x3b
 1568 0089 0B       		.uleb128 0xb
 1569 008a 01       		.uleb128 0x1
 1570 008b 13       		.uleb128 0x13
 1571 008c 00       		.byte	0
 1572 008d 00       		.byte	0
 1573 008e 0D       		.uleb128 0xd
 1574 008f 0D       		.uleb128 0xd
 1575 0090 00       		.byte	0
 1576 0091 03       		.uleb128 0x3
 1577 0092 0E       		.uleb128 0xe
 1578 0093 3A       		.uleb128 0x3a
 1579 0094 0B       		.uleb128 0xb
 1580 0095 3B       		.uleb128 0x3b
 1581 0096 0B       		.uleb128 0xb
 1582 0097 49       		.uleb128 0x49
 1583 0098 13       		.uleb128 0x13
ARM GAS  C:\Users\cypress\AppData\Local\Temp\ccxRek6y.s 			page 57


 1584 0099 38       		.uleb128 0x38
 1585 009a 05       		.uleb128 0x5
 1586 009b 00       		.byte	0
 1587 009c 00       		.byte	0
 1588 009d 0E       		.uleb128 0xe
 1589 009e 0D       		.uleb128 0xd
 1590 009f 00       		.byte	0
 1591 00a0 03       		.uleb128 0x3
 1592 00a1 08       		.uleb128 0x8
 1593 00a2 3A       		.uleb128 0x3a
 1594 00a3 0B       		.uleb128 0xb
 1595 00a4 3B       		.uleb128 0x3b
 1596 00a5 0B       		.uleb128 0xb
 1597 00a6 49       		.uleb128 0x49
 1598 00a7 13       		.uleb128 0x13
 1599 00a8 38       		.uleb128 0x38
 1600 00a9 05       		.uleb128 0x5
 1601 00aa 00       		.byte	0
 1602 00ab 00       		.byte	0
 1603 00ac 0F       		.uleb128 0xf
 1604 00ad 16       		.uleb128 0x16
 1605 00ae 00       		.byte	0
 1606 00af 03       		.uleb128 0x3
 1607 00b0 0E       		.uleb128 0xe
 1608 00b1 3A       		.uleb128 0x3a
 1609 00b2 0B       		.uleb128 0xb
 1610 00b3 3B       		.uleb128 0x3b
 1611 00b4 05       		.uleb128 0x5
 1612 00b5 49       		.uleb128 0x49
 1613 00b6 13       		.uleb128 0x13
 1614 00b7 00       		.byte	0
 1615 00b8 00       		.byte	0
 1616 00b9 10       		.uleb128 0x10
 1617 00ba 13       		.uleb128 0x13
 1618 00bb 01       		.byte	0x1
 1619 00bc 03       		.uleb128 0x3
 1620 00bd 0E       		.uleb128 0xe
 1621 00be 0B       		.uleb128 0xb
 1622 00bf 0B       		.uleb128 0xb
 1623 00c0 3A       		.uleb128 0x3a
 1624 00c1 0B       		.uleb128 0xb
 1625 00c2 3B       		.uleb128 0x3b
 1626 00c3 0B       		.uleb128 0xb
 1627 00c4 01       		.uleb128 0x1
 1628 00c5 13       		.uleb128 0x13
 1629 00c6 00       		.byte	0
 1630 00c7 00       		.byte	0
 1631 00c8 11       		.uleb128 0x11
 1632 00c9 2E       		.uleb128 0x2e
 1633 00ca 00       		.byte	0
 1634 00cb 03       		.uleb128 0x3
 1635 00cc 0E       		.uleb128 0xe
 1636 00cd 3A       		.uleb128 0x3a
 1637 00ce 0B       		.uleb128 0xb
 1638 00cf 3B       		.uleb128 0x3b
 1639 00d0 0B       		.uleb128 0xb
 1640 00d1 27       		.uleb128 0x27
ARM GAS  C:\Users\cypress\AppData\Local\Temp\ccxRek6y.s 			page 58


 1641 00d2 19       		.uleb128 0x19
 1642 00d3 20       		.uleb128 0x20
 1643 00d4 0B       		.uleb128 0xb
 1644 00d5 00       		.byte	0
 1645 00d6 00       		.byte	0
 1646 00d7 12       		.uleb128 0x12
 1647 00d8 2E       		.uleb128 0x2e
 1648 00d9 01       		.byte	0x1
 1649 00da 03       		.uleb128 0x3
 1650 00db 0E       		.uleb128 0xe
 1651 00dc 3A       		.uleb128 0x3a
 1652 00dd 0B       		.uleb128 0xb
 1653 00de 3B       		.uleb128 0x3b
 1654 00df 0B       		.uleb128 0xb
 1655 00e0 27       		.uleb128 0x27
 1656 00e1 19       		.uleb128 0x19
 1657 00e2 20       		.uleb128 0x20
 1658 00e3 0B       		.uleb128 0xb
 1659 00e4 01       		.uleb128 0x1
 1660 00e5 13       		.uleb128 0x13
 1661 00e6 00       		.byte	0
 1662 00e7 00       		.byte	0
 1663 00e8 13       		.uleb128 0x13
 1664 00e9 05       		.uleb128 0x5
 1665 00ea 00       		.byte	0
 1666 00eb 03       		.uleb128 0x3
 1667 00ec 0E       		.uleb128 0xe
 1668 00ed 3A       		.uleb128 0x3a
 1669 00ee 0B       		.uleb128 0xb
 1670 00ef 3B       		.uleb128 0x3b
 1671 00f0 0B       		.uleb128 0xb
 1672 00f1 49       		.uleb128 0x49
 1673 00f2 13       		.uleb128 0x13
 1674 00f3 00       		.byte	0
 1675 00f4 00       		.byte	0
 1676 00f5 14       		.uleb128 0x14
 1677 00f6 0F       		.uleb128 0xf
 1678 00f7 00       		.byte	0
 1679 00f8 0B       		.uleb128 0xb
 1680 00f9 0B       		.uleb128 0xb
 1681 00fa 49       		.uleb128 0x49
 1682 00fb 13       		.uleb128 0x13
 1683 00fc 00       		.byte	0
 1684 00fd 00       		.byte	0
 1685 00fe 15       		.uleb128 0x15
 1686 00ff 2E       		.uleb128 0x2e
 1687 0100 01       		.byte	0x1
 1688 0101 03       		.uleb128 0x3
 1689 0102 0E       		.uleb128 0xe
 1690 0103 3A       		.uleb128 0x3a
 1691 0104 0B       		.uleb128 0xb
 1692 0105 3B       		.uleb128 0x3b
 1693 0106 05       		.uleb128 0x5
 1694 0107 27       		.uleb128 0x27
 1695 0108 19       		.uleb128 0x19
 1696 0109 20       		.uleb128 0x20
 1697 010a 0B       		.uleb128 0xb
ARM GAS  C:\Users\cypress\AppData\Local\Temp\ccxRek6y.s 			page 59


 1698 010b 01       		.uleb128 0x1
 1699 010c 13       		.uleb128 0x13
 1700 010d 00       		.byte	0
 1701 010e 00       		.byte	0
 1702 010f 16       		.uleb128 0x16
 1703 0110 05       		.uleb128 0x5
 1704 0111 00       		.byte	0
 1705 0112 03       		.uleb128 0x3
 1706 0113 0E       		.uleb128 0xe
 1707 0114 3A       		.uleb128 0x3a
 1708 0115 0B       		.uleb128 0xb
 1709 0116 3B       		.uleb128 0x3b
 1710 0117 05       		.uleb128 0x5
 1711 0118 49       		.uleb128 0x49
 1712 0119 13       		.uleb128 0x13
 1713 011a 00       		.byte	0
 1714 011b 00       		.byte	0
 1715 011c 17       		.uleb128 0x17
 1716 011d 2E       		.uleb128 0x2e
 1717 011e 01       		.byte	0x1
 1718 011f 3F       		.uleb128 0x3f
 1719 0120 19       		.uleb128 0x19
 1720 0121 03       		.uleb128 0x3
 1721 0122 0E       		.uleb128 0xe
 1722 0123 3A       		.uleb128 0x3a
 1723 0124 0B       		.uleb128 0xb
 1724 0125 3B       		.uleb128 0x3b
 1725 0126 0B       		.uleb128 0xb
 1726 0127 27       		.uleb128 0x27
 1727 0128 19       		.uleb128 0x19
 1728 0129 49       		.uleb128 0x49
 1729 012a 13       		.uleb128 0x13
 1730 012b 8701     		.uleb128 0x87
 1731 012d 19       		.uleb128 0x19
 1732 012e 11       		.uleb128 0x11
 1733 012f 01       		.uleb128 0x1
 1734 0130 12       		.uleb128 0x12
 1735 0131 06       		.uleb128 0x6
 1736 0132 40       		.uleb128 0x40
 1737 0133 18       		.uleb128 0x18
 1738 0134 9742     		.uleb128 0x2117
 1739 0136 19       		.uleb128 0x19
 1740 0137 01       		.uleb128 0x1
 1741 0138 13       		.uleb128 0x13
 1742 0139 00       		.byte	0
 1743 013a 00       		.byte	0
 1744 013b 18       		.uleb128 0x18
 1745 013c 1D       		.uleb128 0x1d
 1746 013d 00       		.byte	0
 1747 013e 31       		.uleb128 0x31
 1748 013f 13       		.uleb128 0x13
 1749 0140 11       		.uleb128 0x11
 1750 0141 01       		.uleb128 0x1
 1751 0142 12       		.uleb128 0x12
 1752 0143 06       		.uleb128 0x6
 1753 0144 58       		.uleb128 0x58
 1754 0145 0B       		.uleb128 0xb
ARM GAS  C:\Users\cypress\AppData\Local\Temp\ccxRek6y.s 			page 60


 1755 0146 59       		.uleb128 0x59
 1756 0147 0B       		.uleb128 0xb
 1757 0148 00       		.byte	0
 1758 0149 00       		.byte	0
 1759 014a 19       		.uleb128 0x19
 1760 014b 1D       		.uleb128 0x1d
 1761 014c 01       		.byte	0x1
 1762 014d 31       		.uleb128 0x31
 1763 014e 13       		.uleb128 0x13
 1764 014f 11       		.uleb128 0x11
 1765 0150 01       		.uleb128 0x1
 1766 0151 12       		.uleb128 0x12
 1767 0152 06       		.uleb128 0x6
 1768 0153 58       		.uleb128 0x58
 1769 0154 0B       		.uleb128 0xb
 1770 0155 59       		.uleb128 0x59
 1771 0156 0B       		.uleb128 0xb
 1772 0157 01       		.uleb128 0x1
 1773 0158 13       		.uleb128 0x13
 1774 0159 00       		.byte	0
 1775 015a 00       		.byte	0
 1776 015b 1A       		.uleb128 0x1a
 1777 015c 05       		.uleb128 0x5
 1778 015d 00       		.byte	0
 1779 015e 31       		.uleb128 0x31
 1780 015f 13       		.uleb128 0x13
 1781 0160 02       		.uleb128 0x2
 1782 0161 17       		.uleb128 0x17
 1783 0162 00       		.byte	0
 1784 0163 00       		.byte	0
 1785 0164 1B       		.uleb128 0x1b
 1786 0165 05       		.uleb128 0x5
 1787 0166 00       		.byte	0
 1788 0167 31       		.uleb128 0x31
 1789 0168 13       		.uleb128 0x13
 1790 0169 1C       		.uleb128 0x1c
 1791 016a 0B       		.uleb128 0xb
 1792 016b 00       		.byte	0
 1793 016c 00       		.byte	0
 1794 016d 1C       		.uleb128 0x1c
 1795 016e 05       		.uleb128 0x5
 1796 016f 00       		.byte	0
 1797 0170 31       		.uleb128 0x31
 1798 0171 13       		.uleb128 0x13
 1799 0172 1C       		.uleb128 0x1c
 1800 0173 06       		.uleb128 0x6
 1801 0174 00       		.byte	0
 1802 0175 00       		.byte	0
 1803 0176 1D       		.uleb128 0x1d
 1804 0177 898201   		.uleb128 0x4109
 1805 017a 01       		.byte	0x1
 1806 017b 11       		.uleb128 0x11
 1807 017c 01       		.uleb128 0x1
 1808 017d 31       		.uleb128 0x31
 1809 017e 13       		.uleb128 0x13
 1810 017f 01       		.uleb128 0x1
 1811 0180 13       		.uleb128 0x13
ARM GAS  C:\Users\cypress\AppData\Local\Temp\ccxRek6y.s 			page 61


 1812 0181 00       		.byte	0
 1813 0182 00       		.byte	0
 1814 0183 1E       		.uleb128 0x1e
 1815 0184 8A8201   		.uleb128 0x410a
 1816 0187 00       		.byte	0
 1817 0188 02       		.uleb128 0x2
 1818 0189 18       		.uleb128 0x18
 1819 018a 9142     		.uleb128 0x2111
 1820 018c 18       		.uleb128 0x18
 1821 018d 00       		.byte	0
 1822 018e 00       		.byte	0
 1823 018f 1F       		.uleb128 0x1f
 1824 0190 898201   		.uleb128 0x4109
 1825 0193 01       		.byte	0x1
 1826 0194 11       		.uleb128 0x11
 1827 0195 01       		.uleb128 0x1
 1828 0196 31       		.uleb128 0x31
 1829 0197 13       		.uleb128 0x13
 1830 0198 00       		.byte	0
 1831 0199 00       		.byte	0
 1832 019a 20       		.uleb128 0x20
 1833 019b 34       		.uleb128 0x34
 1834 019c 00       		.byte	0
 1835 019d 03       		.uleb128 0x3
 1836 019e 0E       		.uleb128 0xe
 1837 019f 3A       		.uleb128 0x3a
 1838 01a0 0B       		.uleb128 0xb
 1839 01a1 3B       		.uleb128 0x3b
 1840 01a2 05       		.uleb128 0x5
 1841 01a3 49       		.uleb128 0x49
 1842 01a4 13       		.uleb128 0x13
 1843 01a5 3F       		.uleb128 0x3f
 1844 01a6 19       		.uleb128 0x19
 1845 01a7 3C       		.uleb128 0x3c
 1846 01a8 19       		.uleb128 0x19
 1847 01a9 00       		.byte	0
 1848 01aa 00       		.byte	0
 1849 01ab 21       		.uleb128 0x21
 1850 01ac 34       		.uleb128 0x34
 1851 01ad 00       		.byte	0
 1852 01ae 03       		.uleb128 0x3
 1853 01af 0E       		.uleb128 0xe
 1854 01b0 3A       		.uleb128 0x3a
 1855 01b1 0B       		.uleb128 0xb
 1856 01b2 3B       		.uleb128 0x3b
 1857 01b3 0B       		.uleb128 0xb
 1858 01b4 49       		.uleb128 0x49
 1859 01b5 13       		.uleb128 0x13
 1860 01b6 3F       		.uleb128 0x3f
 1861 01b7 19       		.uleb128 0x19
 1862 01b8 3C       		.uleb128 0x3c
 1863 01b9 19       		.uleb128 0x19
 1864 01ba 00       		.byte	0
 1865 01bb 00       		.byte	0
 1866 01bc 22       		.uleb128 0x22
 1867 01bd 2E       		.uleb128 0x2e
 1868 01be 00       		.byte	0
ARM GAS  C:\Users\cypress\AppData\Local\Temp\ccxRek6y.s 			page 62


 1869 01bf 3F       		.uleb128 0x3f
 1870 01c0 19       		.uleb128 0x19
 1871 01c1 3C       		.uleb128 0x3c
 1872 01c2 19       		.uleb128 0x19
 1873 01c3 6E       		.uleb128 0x6e
 1874 01c4 0E       		.uleb128 0xe
 1875 01c5 03       		.uleb128 0x3
 1876 01c6 0E       		.uleb128 0xe
 1877 01c7 3A       		.uleb128 0x3a
 1878 01c8 0B       		.uleb128 0xb
 1879 01c9 3B       		.uleb128 0x3b
 1880 01ca 0B       		.uleb128 0xb
 1881 01cb 00       		.byte	0
 1882 01cc 00       		.byte	0
 1883 01cd 23       		.uleb128 0x23
 1884 01ce 2E       		.uleb128 0x2e
 1885 01cf 00       		.byte	0
 1886 01d0 3F       		.uleb128 0x3f
 1887 01d1 19       		.uleb128 0x19
 1888 01d2 3C       		.uleb128 0x3c
 1889 01d3 19       		.uleb128 0x19
 1890 01d4 6E       		.uleb128 0x6e
 1891 01d5 0E       		.uleb128 0xe
 1892 01d6 03       		.uleb128 0x3
 1893 01d7 0E       		.uleb128 0xe
 1894 01d8 3A       		.uleb128 0x3a
 1895 01d9 0B       		.uleb128 0xb
 1896 01da 3B       		.uleb128 0x3b
 1897 01db 05       		.uleb128 0x5
 1898 01dc 00       		.byte	0
 1899 01dd 00       		.byte	0
 1900 01de 00       		.byte	0
 1901              		.section	.debug_loc,"",%progbits
 1902              	.Ldebug_loc0:
 1903              	.LLST0:
 1904 0000 10000000 		.4byte	.LVL0
 1905 0004 14000000 		.4byte	.LVL1
 1906 0008 0200     		.2byte	0x2
 1907 000a 32       		.byte	0x32
 1908 000b 9F       		.byte	0x9f
 1909 000c 00000000 		.4byte	0
 1910 0010 00000000 		.4byte	0
 1911              	.LLST1:
 1912 0014 10000000 		.4byte	.LVL0
 1913 0018 14000000 		.4byte	.LVL1
 1914 001c 0600     		.2byte	0x6
 1915 001e 0C       		.byte	0xc
 1916 001f 00003840 		.4byte	0x40380000
 1917 0023 9F       		.byte	0x9f
 1918 0024 00000000 		.4byte	0
 1919 0028 00000000 		.4byte	0
 1920              	.LLST2:
 1921 002c 1E000000 		.4byte	.LVL2
 1922 0030 22000000 		.4byte	.LVL3
 1923 0034 0200     		.2byte	0x2
 1924 0036 30       		.byte	0x30
 1925 0037 9F       		.byte	0x9f
ARM GAS  C:\Users\cypress\AppData\Local\Temp\ccxRek6y.s 			page 63


 1926 0038 00000000 		.4byte	0
 1927 003c 00000000 		.4byte	0
 1928              	.LLST3:
 1929 0040 1E000000 		.4byte	.LVL2
 1930 0044 22000000 		.4byte	.LVL3
 1931 0048 0600     		.2byte	0x6
 1932 004a 0C       		.byte	0xc
 1933 004b 00003840 		.4byte	0x40380000
 1934 004f 9F       		.byte	0x9f
 1935 0050 00000000 		.4byte	0
 1936 0054 00000000 		.4byte	0
 1937              	.LLST4:
 1938 0058 2E000000 		.4byte	.LVL5
 1939 005c 3A000000 		.4byte	.LVL6
 1940 0060 0200     		.2byte	0x2
 1941 0062 31       		.byte	0x31
 1942 0063 9F       		.byte	0x9f
 1943 0064 00000000 		.4byte	0
 1944 0068 00000000 		.4byte	0
 1945              	.LLST5:
 1946 006c 2E000000 		.4byte	.LVL5
 1947 0070 3A000000 		.4byte	.LVL6
 1948 0074 0200     		.2byte	0x2
 1949 0076 33       		.byte	0x33
 1950 0077 9F       		.byte	0x9f
 1951 0078 00000000 		.4byte	0
 1952 007c 00000000 		.4byte	0
 1953              	.LLST6:
 1954 0080 2E000000 		.4byte	.LVL5
 1955 0084 3A000000 		.4byte	.LVL6
 1956 0088 0600     		.2byte	0x6
 1957 008a 0C       		.byte	0xc
 1958 008b 00003240 		.4byte	0x40320000
 1959 008f 9F       		.byte	0x9f
 1960 0090 00000000 		.4byte	0
 1961 0094 00000000 		.4byte	0
 1962              	.LLST7:
 1963 0098 3A000000 		.4byte	.LVL6
 1964 009c 40000000 		.4byte	.LVL7
 1965 00a0 0200     		.2byte	0x2
 1966 00a2 30       		.byte	0x30
 1967 00a3 9F       		.byte	0x9f
 1968 00a4 00000000 		.4byte	0
 1969 00a8 00000000 		.4byte	0
 1970              	.LLST8:
 1971 00ac 3A000000 		.4byte	.LVL6
 1972 00b0 40000000 		.4byte	.LVL7
 1973 00b4 0200     		.2byte	0x2
 1974 00b6 31       		.byte	0x31
 1975 00b7 9F       		.byte	0x9f
 1976 00b8 00000000 		.4byte	0
 1977 00bc 00000000 		.4byte	0
 1978              	.LLST9:
 1979 00c0 3A000000 		.4byte	.LVL6
 1980 00c4 40000000 		.4byte	.LVL7
 1981 00c8 0600     		.2byte	0x6
 1982 00ca 0C       		.byte	0xc
ARM GAS  C:\Users\cypress\AppData\Local\Temp\ccxRek6y.s 			page 64


 1983 00cb 80053240 		.4byte	0x40320580
 1984 00cf 9F       		.byte	0x9f
 1985 00d0 00000000 		.4byte	0
 1986 00d4 00000000 		.4byte	0
 1987              	.LLST10:
 1988 00d8 40000000 		.4byte	.LVL7
 1989 00dc 44000000 		.4byte	.LVL8
 1990 00e0 0200     		.2byte	0x2
 1991 00e2 30       		.byte	0x30
 1992 00e3 9F       		.byte	0x9f
 1993 00e4 00000000 		.4byte	0
 1994 00e8 00000000 		.4byte	0
 1995              	.LLST11:
 1996 00ec 40000000 		.4byte	.LVL7
 1997 00f0 44000000 		.4byte	.LVL8
 1998 00f4 0200     		.2byte	0x2
 1999 00f6 31       		.byte	0x31
 2000 00f7 9F       		.byte	0x9f
 2001 00f8 00000000 		.4byte	0
 2002 00fc 00000000 		.4byte	0
 2003              	.LLST12:
 2004 0100 40000000 		.4byte	.LVL7
 2005 0104 44000000 		.4byte	.LVL8
 2006 0108 0600     		.2byte	0x6
 2007 010a 0C       		.byte	0xc
 2008 010b 80003240 		.4byte	0x40320080
 2009 010f 9F       		.byte	0x9f
 2010 0110 00000000 		.4byte	0
 2011 0114 00000000 		.4byte	0
 2012              	.LLST13:
 2013 0118 44000000 		.4byte	.LVL8
 2014 011c 4A000000 		.4byte	.LVL9
 2015 0120 0200     		.2byte	0x2
 2016 0122 34       		.byte	0x34
 2017 0123 9F       		.byte	0x9f
 2018 0124 00000000 		.4byte	0
 2019 0128 00000000 		.4byte	0
 2020              	.LLST14:
 2021 012c 44000000 		.4byte	.LVL8
 2022 0130 4A000000 		.4byte	.LVL9
 2023 0134 0600     		.2byte	0x6
 2024 0136 0C       		.byte	0xc
 2025 0137 00003840 		.4byte	0x40380000
 2026 013b 9F       		.byte	0x9f
 2027 013c 00000000 		.4byte	0
 2028 0140 00000000 		.4byte	0
 2029              	.LLST15:
 2030 0144 52000000 		.4byte	.LVL10
 2031 0148 54000000 		.4byte	.LVL11
 2032 014c 0200     		.2byte	0x2
 2033 014e 32       		.byte	0x32
 2034 014f 9F       		.byte	0x9f
 2035 0150 00000000 		.4byte	0
 2036 0154 00000000 		.4byte	0
 2037              	.LLST16:
 2038 0158 52000000 		.4byte	.LVL10
 2039 015c 54000000 		.4byte	.LVL11
ARM GAS  C:\Users\cypress\AppData\Local\Temp\ccxRek6y.s 			page 65


 2040 0160 0600     		.2byte	0x6
 2041 0162 0C       		.byte	0xc
 2042 0163 00003840 		.4byte	0x40380000
 2043 0167 9F       		.byte	0x9f
 2044 0168 00000000 		.4byte	0
 2045 016c 00000000 		.4byte	0
 2046              	.LLST17:
 2047 0170 54000000 		.4byte	.LVL11
 2048 0174 58000000 		.4byte	.LVL12
 2049 0178 0200     		.2byte	0x2
 2050 017a 30       		.byte	0x30
 2051 017b 9F       		.byte	0x9f
 2052 017c 00000000 		.4byte	0
 2053 0180 00000000 		.4byte	0
 2054              	.LLST18:
 2055 0184 54000000 		.4byte	.LVL11
 2056 0188 58000000 		.4byte	.LVL12
 2057 018c 0200     		.2byte	0x2
 2058 018e 33       		.byte	0x33
 2059 018f 9F       		.byte	0x9f
 2060 0190 00000000 		.4byte	0
 2061 0194 00000000 		.4byte	0
 2062              	.LLST19:
 2063 0198 54000000 		.4byte	.LVL11
 2064 019c 58000000 		.4byte	.LVL12
 2065 01a0 0600     		.2byte	0x6
 2066 01a2 0C       		.byte	0xc
 2067 01a3 00003240 		.4byte	0x40320000
 2068 01a7 9F       		.byte	0x9f
 2069 01a8 00000000 		.4byte	0
 2070 01ac 00000000 		.4byte	0
 2071              	.LLST20:
 2072 01b0 60000000 		.4byte	.LVL13
 2073 01b4 62000000 		.4byte	.LVL14
 2074 01b8 0200     		.2byte	0x2
 2075 01ba 31       		.byte	0x31
 2076 01bb 9F       		.byte	0x9f
 2077 01bc 00000000 		.4byte	0
 2078 01c0 00000000 		.4byte	0
 2079              	.LLST22:
 2080 01c4 60000000 		.4byte	.LVL13
 2081 01c8 62000000 		.4byte	.LVL14
 2082 01cc 0600     		.2byte	0x6
 2083 01ce 0C       		.byte	0xc
 2084 01cf 80053240 		.4byte	0x40320580
 2085 01d3 9F       		.byte	0x9f
 2086 01d4 00000000 		.4byte	0
 2087 01d8 00000000 		.4byte	0
 2088              	.LLST23:
 2089 01dc 62000000 		.4byte	.LVL14
 2090 01e0 6A000000 		.4byte	.LVL15
 2091 01e4 0200     		.2byte	0x2
 2092 01e6 31       		.byte	0x31
 2093 01e7 9F       		.byte	0x9f
 2094 01e8 00000000 		.4byte	0
 2095 01ec 00000000 		.4byte	0
 2096              	.LLST24:
ARM GAS  C:\Users\cypress\AppData\Local\Temp\ccxRek6y.s 			page 66


 2097 01f0 62000000 		.4byte	.LVL14
 2098 01f4 6A000000 		.4byte	.LVL15
 2099 01f8 0600     		.2byte	0x6
 2100 01fa 0C       		.byte	0xc
 2101 01fb 00003840 		.4byte	0x40380000
 2102 01ff 9F       		.byte	0x9f
 2103 0200 00000000 		.4byte	0
 2104 0204 00000000 		.4byte	0
 2105              	.LLST25:
 2106 0208 72000000 		.4byte	.LVL16
 2107 020c 76000000 		.4byte	.LVL17
 2108 0210 0200     		.2byte	0x2
 2109 0212 30       		.byte	0x30
 2110 0213 9F       		.byte	0x9f
 2111 0214 00000000 		.4byte	0
 2112 0218 00000000 		.4byte	0
 2113              	.LLST26:
 2114 021c 72000000 		.4byte	.LVL16
 2115 0220 76000000 		.4byte	.LVL17
 2116 0224 0600     		.2byte	0x6
 2117 0226 0C       		.byte	0xc
 2118 0227 00003840 		.4byte	0x40380000
 2119 022b 9F       		.byte	0x9f
 2120 022c 00000000 		.4byte	0
 2121 0230 00000000 		.4byte	0
 2122              	.LLST27:
 2123 0234 76000000 		.4byte	.LVL17
 2124 0238 78000000 		.4byte	.LVL18
 2125 023c 0200     		.2byte	0x2
 2126 023e 30       		.byte	0x30
 2127 023f 9F       		.byte	0x9f
 2128 0240 00000000 		.4byte	0
 2129 0244 00000000 		.4byte	0
 2130              	.LLST28:
 2131 0248 76000000 		.4byte	.LVL17
 2132 024c 78000000 		.4byte	.LVL18
 2133 0250 0200     		.2byte	0x2
 2134 0252 31       		.byte	0x31
 2135 0253 9F       		.byte	0x9f
 2136 0254 00000000 		.4byte	0
 2137 0258 00000000 		.4byte	0
 2138              	.LLST29:
 2139 025c 76000000 		.4byte	.LVL17
 2140 0260 78000000 		.4byte	.LVL18
 2141 0264 0600     		.2byte	0x6
 2142 0266 0C       		.byte	0xc
 2143 0267 80053240 		.4byte	0x40320580
 2144 026b 9F       		.byte	0x9f
 2145 026c 00000000 		.4byte	0
 2146 0270 00000000 		.4byte	0
 2147              	.LLST30:
 2148 0274 80000000 		.4byte	.LVL19
 2149 0278 82000000 		.4byte	.LVL20
 2150 027c 0200     		.2byte	0x2
 2151 027e 31       		.byte	0x31
 2152 027f 9F       		.byte	0x9f
 2153 0280 00000000 		.4byte	0
ARM GAS  C:\Users\cypress\AppData\Local\Temp\ccxRek6y.s 			page 67


 2154 0284 00000000 		.4byte	0
 2155              	.LLST32:
 2156 0288 80000000 		.4byte	.LVL19
 2157 028c 82000000 		.4byte	.LVL20
 2158 0290 0600     		.2byte	0x6
 2159 0292 0C       		.byte	0xc
 2160 0293 80003240 		.4byte	0x40320080
 2161 0297 9F       		.byte	0x9f
 2162 0298 00000000 		.4byte	0
 2163 029c 00000000 		.4byte	0
 2164              	.LLST33:
 2165 02a0 82000000 		.4byte	.LVL20
 2166 02a4 84000000 		.4byte	.LVL21
 2167 02a8 0200     		.2byte	0x2
 2168 02aa 32       		.byte	0x32
 2169 02ab 9F       		.byte	0x9f
 2170 02ac 00000000 		.4byte	0
 2171 02b0 00000000 		.4byte	0
 2172              	.LLST34:
 2173 02b4 82000000 		.4byte	.LVL20
 2174 02b8 84000000 		.4byte	.LVL21
 2175 02bc 0600     		.2byte	0x6
 2176 02be 0C       		.byte	0xc
 2177 02bf 00003840 		.4byte	0x40380000
 2178 02c3 9F       		.byte	0x9f
 2179 02c4 00000000 		.4byte	0
 2180 02c8 00000000 		.4byte	0
 2181              	.LLST35:
 2182 02cc 8C000000 		.4byte	.LVL22
 2183 02d0 90000000 		.4byte	.LVL23
 2184 02d4 0200     		.2byte	0x2
 2185 02d6 31       		.byte	0x31
 2186 02d7 9F       		.byte	0x9f
 2187 02d8 00000000 		.4byte	0
 2188 02dc 00000000 		.4byte	0
 2189              	.LLST36:
 2190 02e0 8C000000 		.4byte	.LVL22
 2191 02e4 90000000 		.4byte	.LVL23
 2192 02e8 0600     		.2byte	0x6
 2193 02ea 0C       		.byte	0xc
 2194 02eb 00003840 		.4byte	0x40380000
 2195 02ef 9F       		.byte	0x9f
 2196 02f0 00000000 		.4byte	0
 2197 02f4 00000000 		.4byte	0
 2198              	.LLST37:
 2199 02f8 90000000 		.4byte	.LVL23
 2200 02fc 92000000 		.4byte	.LVL24
 2201 0300 0200     		.2byte	0x2
 2202 0302 30       		.byte	0x30
 2203 0303 9F       		.byte	0x9f
 2204 0304 00000000 		.4byte	0
 2205 0308 00000000 		.4byte	0
 2206              	.LLST38:
 2207 030c 90000000 		.4byte	.LVL23
 2208 0310 92000000 		.4byte	.LVL24
 2209 0314 0200     		.2byte	0x2
 2210 0316 31       		.byte	0x31
ARM GAS  C:\Users\cypress\AppData\Local\Temp\ccxRek6y.s 			page 68


 2211 0317 9F       		.byte	0x9f
 2212 0318 00000000 		.4byte	0
 2213 031c 00000000 		.4byte	0
 2214              	.LLST39:
 2215 0320 90000000 		.4byte	.LVL23
 2216 0324 92000000 		.4byte	.LVL24
 2217 0328 0600     		.2byte	0x6
 2218 032a 0C       		.byte	0xc
 2219 032b 80003240 		.4byte	0x40320080
 2220 032f 9F       		.byte	0x9f
 2221 0330 00000000 		.4byte	0
 2222 0334 00000000 		.4byte	0
 2223              		.section	.debug_aranges,"",%progbits
 2224 0000 1C000000 		.4byte	0x1c
 2225 0004 0200     		.2byte	0x2
 2226 0006 00000000 		.4byte	.Ldebug_info0
 2227 000a 04       		.byte	0x4
 2228 000b 00       		.byte	0
 2229 000c 0000     		.2byte	0
 2230 000e 0000     		.2byte	0
 2231 0010 00000000 		.4byte	.LFB450
 2232 0014 B8000000 		.4byte	.LFE450-.LFB450
 2233 0018 00000000 		.4byte	0
 2234 001c 00000000 		.4byte	0
 2235              		.section	.debug_ranges,"",%progbits
 2236              	.Ldebug_ranges0:
 2237 0000 00000000 		.4byte	.LFB450
 2238 0004 B8000000 		.4byte	.LFE450
 2239 0008 00000000 		.4byte	0
 2240 000c 00000000 		.4byte	0
 2241              		.section	.debug_line,"",%progbits
 2242              	.Ldebug_line0:
 2243 0000 B7030000 		.section	.debug_str,"MS",%progbits,1
 2243      0200BF02 
 2243      00000201 
 2243      FB0E0D00 
 2243      01010101 
 2244              	.LASF36:
 2245 0000 5644445F 		.ascii	"VDD_INTR_MASKED\000"
 2245      494E5452 
 2245      5F4D4153 
 2245      4B454400 
 2246              	.LASF29:
 2247 0010 494E5452 		.ascii	"INTR_CAUSE0\000"
 2247      5F434155 
 2247      53453000 
 2248              	.LASF81:
 2249 001c 72656C6F 		.ascii	"reloadInput\000"
 2249      6164496E 
 2249      70757400 
 2250              	.LASF64:
 2251 0028 636C6F63 		.ascii	"clockPrescaler\000"
 2251      6B507265 
 2251      7363616C 
 2251      657200
 2252              	.LASF99:
 2253 0037 50574D5F 		.ascii	"PWM_1_config\000"
ARM GAS  C:\Users\cypress\AppData\Local\Temp\ccxRek6y.s 			page 69


 2253      315F636F 
 2253      6E666967 
 2253      00
 2254              	.LASF71:
 2255 0044 636F6D70 		.ascii	"compare0\000"
 2255      61726530 
 2255      00
 2256              	.LASF72:
 2257 004d 636F6D70 		.ascii	"compare1\000"
 2257      61726531 
 2257      00
 2258              	.LASF88:
 2259 0056 63795F73 		.ascii	"cy_stc_tcpwm_pwm_config_t\000"
 2259      74635F74 
 2259      6370776D 
 2259      5F70776D 
 2259      5F636F6E 
 2260              	.LASF16:
 2261 0070 4F55545F 		.ascii	"OUT_INV\000"
 2261      494E5600 
 2262              	.LASF48:
 2263 0078 54435057 		.ascii	"TCPWM_CNT_Type\000"
 2263      4D5F434E 
 2263      545F5479 
 2263      706500
 2264              	.LASF0:
 2265 0087 73686F72 		.ascii	"short int\000"
 2265      7420696E 
 2265      7400
 2266              	.LASF86:
 2267 0091 636F756E 		.ascii	"countInputMode\000"
 2267      74496E70 
 2267      75744D6F 
 2267      646500
 2268              	.LASF13:
 2269 00a0 73697A65 		.ascii	"sizetype\000"
 2269      74797065 
 2269      00
 2270              	.LASF44:
 2271 00a9 50455249 		.ascii	"PERIOD_BUFF\000"
 2271      4F445F42 
 2271      55464600 
 2272              	.LASF22:
 2273 00b5 4346475F 		.ascii	"CFG_IN\000"
 2273      494E00
 2274              	.LASF50:
 2275 00bc 4354524C 		.ascii	"CTRL_SET\000"
 2275      5F534554 
 2275      00
 2276              	.LASF43:
 2277 00c5 50455249 		.ascii	"PERIOD\000"
 2277      4F4400
 2278              	.LASF52:
 2279 00cc 434D445F 		.ascii	"CMD_RELOAD\000"
 2279      52454C4F 
 2279      414400
 2280              	.LASF46:
ARM GAS  C:\Users\cypress\AppData\Local\Temp\ccxRek6y.s 			page 70


 2281 00d7 54525F43 		.ascii	"TR_CTRL1\000"
 2281      54524C31 
 2281      00
 2282              	.LASF47:
 2283 00e0 54525F43 		.ascii	"TR_CTRL2\000"
 2283      54524C32 
 2283      00
 2284              	.LASF104:
 2285 00e9 474E5520 		.ascii	"GNU C11 5.4.1 20160609 (release) [ARM/embedded-5-br"
 2285      43313120 
 2285      352E342E 
 2285      31203230 
 2285      31363036 
 2286 011c 616E6368 		.ascii	"anch revision 237715] -mcpu=cortex-m4 -mfloat-abi=s"
 2286      20726576 
 2286      6973696F 
 2286      6E203233 
 2286      37373135 
 2287 014f 6F667466 		.ascii	"oftfp -mfpu=fpv4-sp-d16 -mthumb -g -Og -ffunction-s"
 2287      70202D6D 
 2287      6670753D 
 2287      66707634 
 2287      2D73702D 
 2288 0182 65637469 		.ascii	"ections -ffat-lto-objects\000"
 2288      6F6E7320 
 2288      2D666661 
 2288      742D6C74 
 2288      6F2D6F62 
 2289              	.LASF107:
 2290 019c 63795F73 		.ascii	"cy_stc_tcpwm_pwm_config\000"
 2290      74635F74 
 2290      6370776D 
 2290      5F70776D 
 2290      5F636F6E 
 2291              	.LASF109:
 2292 01b4 6D61696E 		.ascii	"main\000"
 2292      00
 2293              	.LASF35:
 2294 01b9 5644445F 		.ascii	"VDD_INTR_MASK\000"
 2294      494E5452 
 2294      5F4D4153 
 2294      4B00
 2295              	.LASF25:
 2296 01c7 52455345 		.ascii	"RESERVED\000"
 2296      52564544 
 2296      00
 2297              	.LASF103:
 2298 01d0 43795F53 		.ascii	"Cy_SysLib_Delay\000"
 2298      79734C69 
 2298      625F4465 
 2298      6C617900 
 2299              	.LASF91:
 2300 01e0 43795F54 		.ascii	"Cy_TCPWM_PWM_Enable\000"
 2300      4350574D 
 2300      5F50574D 
 2300      5F456E61 
 2300      626C6500 
ARM GAS  C:\Users\cypress\AppData\Local\Temp\ccxRek6y.s 			page 71


 2301              	.LASF45:
 2302 01f4 54525F43 		.ascii	"TR_CTRL0\000"
 2302      54524C30 
 2302      00
 2303              	.LASF94:
 2304 01fd 76616C75 		.ascii	"value\000"
 2304      6500
 2305              	.LASF65:
 2306 0203 70776D41 		.ascii	"pwmAlignment\000"
 2306      6C69676E 
 2306      6D656E74 
 2306      00
 2307              	.LASF73:
 2308 0210 656E6162 		.ascii	"enableCompareSwap\000"
 2308      6C65436F 
 2308      6D706172 
 2308      65537761 
 2308      7000
 2309              	.LASF14:
 2310 0222 4F55545F 		.ascii	"OUT_CLR\000"
 2310      434C5200 
 2311              	.LASF26:
 2312 022a 4346475F 		.ascii	"CFG_IN_GPIO5V\000"
 2312      494E5F47 
 2312      50494F35 
 2312      5600
 2313              	.LASF33:
 2314 0238 5644445F 		.ascii	"VDD_ACTIVE\000"
 2314      41435449 
 2314      564500
 2315              	.LASF85:
 2316 0243 6B696C6C 		.ascii	"killInput\000"
 2316      496E7075 
 2316      7400
 2317              	.LASF37:
 2318 024d 5644445F 		.ascii	"VDD_INTR_SET\000"
 2318      494E5452 
 2318      5F534554 
 2318      00
 2319              	.LASF51:
 2320 025a 434D445F 		.ascii	"CMD_CAPTURE\000"
 2320      43415054 
 2320      55524500 
 2321              	.LASF74:
 2322 0266 696E7465 		.ascii	"interruptSources\000"
 2322      72727570 
 2322      74536F75 
 2322      72636573 
 2322      00
 2323              	.LASF54:
 2324 0277 434D445F 		.ascii	"CMD_START\000"
 2324      53544152 
 2324      5400
 2325              	.LASF77:
 2326 0281 6B696C6C 		.ascii	"killMode\000"
 2326      4D6F6465 
 2326      00
ARM GAS  C:\Users\cypress\AppData\Local\Temp\ccxRek6y.s 			page 72


 2327              	.LASF23:
 2328 028a 4346475F 		.ascii	"CFG_OUT\000"
 2328      4F555400 
 2329              	.LASF60:
 2330 0292 666C6F61 		.ascii	"float\000"
 2330      7400
 2331              	.LASF68:
 2332 0298 70657269 		.ascii	"period0\000"
 2332      6F643000 
 2333              	.LASF69:
 2334 02a0 70657269 		.ascii	"period1\000"
 2334      6F643100 
 2335              	.LASF80:
 2336 02a8 72656C6F 		.ascii	"reloadInputMode\000"
 2336      6164496E 
 2336      7075744D 
 2336      6F646500 
 2337              	.LASF8:
 2338 02b8 6C6F6E67 		.ascii	"long long int\000"
 2338      206C6F6E 
 2338      6720696E 
 2338      7400
 2339              	.LASF67:
 2340 02c6 72756E4D 		.ascii	"runMode\000"
 2340      6F646500 
 2341              	.LASF40:
 2342 02ce 53544154 		.ascii	"STATUS\000"
 2342      555300
 2343              	.LASF106:
 2344 02d5 443A5C73 		.ascii	"D:\\student\\FeS-31\\Stepaniuk\\lab4\\lab4_0\\lab4."
 2344      74756465 
 2344      6E745C46 
 2344      65532D33 
 2344      315C5374 
 2345 0302 63796473 		.ascii	"cydsn\000"
 2345      6E00
 2346              	.LASF4:
 2347 0308 6C6F6E67 		.ascii	"long int\000"
 2347      20696E74 
 2347      00
 2348              	.LASF58:
 2349 0311 63686172 		.ascii	"char_t\000"
 2349      5F7400
 2350              	.LASF90:
 2351 0318 636E744E 		.ascii	"cntNum\000"
 2351      756D00
 2352              	.LASF108:
 2353 031f 5F5F656E 		.ascii	"__enable_irq\000"
 2353      61626C65 
 2353      5F697271 
 2353      00
 2354              	.LASF97:
 2355 032c 43795F54 		.ascii	"Cy_TCPWM_TriggerStart\000"
 2355      4350574D 
 2355      5F547269 
 2355      67676572 
 2355      53746172 
ARM GAS  C:\Users\cypress\AppData\Local\Temp\ccxRek6y.s 			page 73


 2356              	.LASF19:
 2357 0342 494E5452 		.ascii	"INTR_MASKED\000"
 2357      5F4D4153 
 2357      4B454400 
 2358              	.LASF42:
 2359 034e 43435F42 		.ascii	"CC_BUFF\000"
 2359      55464600 
 2360              	.LASF57:
 2361 0356 6C6F6E67 		.ascii	"long double\000"
 2361      20646F75 
 2361      626C6500 
 2362              	.LASF82:
 2363 0362 73746172 		.ascii	"startInputMode\000"
 2363      74496E70 
 2363      75744D6F 
 2363      646500
 2364              	.LASF2:
 2365 0371 756E7369 		.ascii	"unsigned char\000"
 2365      676E6564 
 2365      20636861 
 2365      7200
 2366              	.LASF39:
 2367 037f 4354524C 		.ascii	"CTRL\000"
 2367      00
 2368              	.LASF55:
 2369 0384 494E5452 		.ascii	"INTR_CAUSE\000"
 2369      5F434155 
 2369      534500
 2370              	.LASF93:
 2371 038f 70696E4E 		.ascii	"pinNum\000"
 2371      756D00
 2372              	.LASF1:
 2373 0396 7369676E 		.ascii	"signed char\000"
 2373      65642063 
 2373      68617200 
 2374              	.LASF20:
 2375 03a2 494E5452 		.ascii	"INTR_SET\000"
 2375      5F534554 
 2375      00
 2376              	.LASF9:
 2377 03ab 6C6F6E67 		.ascii	"long long unsigned int\000"
 2377      206C6F6E 
 2377      6720756E 
 2377      7369676E 
 2377      65642069 
 2378              	.LASF12:
 2379 03c2 75696E74 		.ascii	"uint32_t\000"
 2379      33325F74 
 2379      00
 2380              	.LASF30:
 2381 03cb 494E5452 		.ascii	"INTR_CAUSE1\000"
 2381      5F434155 
 2381      53453100 
 2382              	.LASF31:
 2383 03d7 494E5452 		.ascii	"INTR_CAUSE2\000"
 2383      5F434155 
 2383      53453200 
ARM GAS  C:\Users\cypress\AppData\Local\Temp\ccxRek6y.s 			page 74


 2384              	.LASF32:
 2385 03e3 494E5452 		.ascii	"INTR_CAUSE3\000"
 2385      5F434155 
 2385      53453300 
 2386              	.LASF28:
 2387 03ef 4750494F 		.ascii	"GPIO_PRT_Type\000"
 2387      5F505254 
 2387      5F547970 
 2387      6500
 2388              	.LASF100:
 2389 03fd 50574D5F 		.ascii	"PWM_2_config\000"
 2389      325F636F 
 2389      6E666967 
 2389      00
 2390              	.LASF76:
 2391 040a 696E7665 		.ascii	"invertPWMOutN\000"
 2391      72745057 
 2391      4D4F7574 
 2391      4E00
 2392              	.LASF53:
 2393 0418 434D445F 		.ascii	"CMD_STOP\000"
 2393      53544F50 
 2393      00
 2394              	.LASF21:
 2395 0421 494E5452 		.ascii	"INTR_CFG\000"
 2395      5F434647 
 2395      00
 2396              	.LASF18:
 2397 042a 494E5452 		.ascii	"INTR_MASK\000"
 2397      5F4D4153 
 2397      4B00
 2398              	.LASF105:
 2399 0434 6D61696E 		.ascii	"main_cm4.c\000"
 2399      5F636D34 
 2399      2E6300
 2400              	.LASF24:
 2401 043f 4346475F 		.ascii	"CFG_SIO\000"
 2401      53494F00 
 2402              	.LASF15:
 2403 0447 4F55545F 		.ascii	"OUT_SET\000"
 2403      53455400 
 2404              	.LASF3:
 2405 044f 73686F72 		.ascii	"short unsigned int\000"
 2405      7420756E 
 2405      7369676E 
 2405      65642069 
 2405      6E7400
 2406              	.LASF38:
 2407 0462 4750494F 		.ascii	"GPIO_Type\000"
 2407      5F547970 
 2407      6500
 2408              	.LASF59:
 2409 046c 63686172 		.ascii	"char\000"
 2409      00
 2410              	.LASF66:
 2411 0471 64656164 		.ascii	"deadTimeClocks\000"
 2411      54696D65 
ARM GAS  C:\Users\cypress\AppData\Local\Temp\ccxRek6y.s 			page 75


 2411      436C6F63 
 2411      6B7300
 2412              	.LASF11:
 2413 0480 696E7433 		.ascii	"int32_t\000"
 2413      325F7400 
 2414              	.LASF5:
 2415 0488 5F5F696E 		.ascii	"__int32_t\000"
 2415      7433325F 
 2415      7400
 2416              	.LASF62:
 2417 0492 5F426F6F 		.ascii	"_Bool\000"
 2417      6C00
 2418              	.LASF17:
 2419 0498 494E5452 		.ascii	"INTR\000"
 2419      00
 2420              	.LASF102:
 2421 049d 43795F54 		.ascii	"Cy_TCPWM_PWM_Init\000"
 2421      4350574D 
 2421      5F50574D 
 2421      5F496E69 
 2421      7400
 2422              	.LASF10:
 2423 04af 756E7369 		.ascii	"unsigned int\000"
 2423      676E6564 
 2423      20696E74 
 2423      00
 2424              	.LASF27:
 2425 04bc 52455345 		.ascii	"RESERVED1\000"
 2425      52564544 
 2425      3100
 2426              	.LASF7:
 2427 04c6 6C6F6E67 		.ascii	"long unsigned int\000"
 2427      20756E73 
 2427      69676E65 
 2427      6420696E 
 2427      7400
 2428              	.LASF70:
 2429 04d8 656E6162 		.ascii	"enablePeriodSwap\000"
 2429      6C655065 
 2429      72696F64 
 2429      53776170 
 2429      00
 2430              	.LASF61:
 2431 04e9 646F7562 		.ascii	"double\000"
 2431      6C6500
 2432              	.LASF78:
 2433 04f0 73776170 		.ascii	"swapInputMode\000"
 2433      496E7075 
 2433      744D6F64 
 2433      6500
 2434              	.LASF6:
 2435 04fe 5F5F7569 		.ascii	"__uint32_t\000"
 2435      6E743332 
 2435      5F7400
 2436              	.LASF83:
 2437 0509 73746172 		.ascii	"startInput\000"
 2437      74496E70 
ARM GAS  C:\Users\cypress\AppData\Local\Temp\ccxRek6y.s 			page 76


 2437      757400
 2438              	.LASF34:
 2439 0514 5644445F 		.ascii	"VDD_INTR\000"
 2439      494E5452 
 2439      00
 2440              	.LASF49:
 2441 051d 4354524C 		.ascii	"CTRL_CLR\000"
 2441      5F434C52 
 2441      00
 2442              	.LASF79:
 2443 0526 73776170 		.ascii	"swapInput\000"
 2443      496E7075 
 2443      7400
 2444              	.LASF75:
 2445 0530 696E7665 		.ascii	"invertPWMOut\000"
 2445      72745057 
 2445      4D4F7574 
 2445      00
 2446              	.LASF84:
 2447 053d 6B696C6C 		.ascii	"killInputMode\000"
 2447      496E7075 
 2447      744D6F64 
 2447      6500
 2448              	.LASF41:
 2449 054b 434F554E 		.ascii	"COUNTER\000"
 2449      54455200 
 2450              	.LASF63:
 2451 0553 70776D4D 		.ascii	"pwmMode\000"
 2451      6F646500 
 2452              	.LASF95:
 2453 055b 43795F54 		.ascii	"Cy_TCPWM_TriggerStopOrKill\000"
 2453      4350574D 
 2453      5F547269 
 2453      67676572 
 2453      53746F70 
 2454              	.LASF101:
 2455 0576 50574D5F 		.ascii	"PWM_3_config\000"
 2455      335F636F 
 2455      6E666967 
 2455      00
 2456              	.LASF87:
 2457 0583 636F756E 		.ascii	"countInput\000"
 2457      74496E70 
 2457      757400
 2458              	.LASF98:
 2459 058e 49544D5F 		.ascii	"ITM_RxBuffer\000"
 2459      52784275 
 2459      66666572 
 2459      00
 2460              	.LASF56:
 2461 059b 54435057 		.ascii	"TCPWM_Type\000"
 2461      4D5F5479 
 2461      706500
 2462              	.LASF89:
 2463 05a6 62617365 		.ascii	"base\000"
 2463      00
 2464              	.LASF92:
ARM GAS  C:\Users\cypress\AppData\Local\Temp\ccxRek6y.s 			page 77


 2465 05ab 43795F47 		.ascii	"Cy_GPIO_Write\000"
 2465      50494F5F 
 2465      57726974 
 2465      6500
 2466              	.LASF96:
 2467 05b9 636F756E 		.ascii	"counters\000"
 2467      74657273 
 2467      00
 2468              		.ident	"GCC: (GNU Tools for ARM Embedded Processors) 5.4.1 20160609 (release) [ARM/embedded-5-bran
