ARM GAS  C:\Users\cypress\AppData\Local\Temp\ccD9LaTb.s 			page 1


   1              		.syntax unified
   2              		.cpu cortex-m0plus
   3              		.fpu softvfp
   4              		.eabi_attribute 20, 1
   5              		.eabi_attribute 21, 1
   6              		.eabi_attribute 23, 3
   7              		.eabi_attribute 24, 1
   8              		.eabi_attribute 25, 1
   9              		.eabi_attribute 26, 1
  10              		.eabi_attribute 30, 1
  11              		.eabi_attribute 34, 0
  12              		.eabi_attribute 18, 4
  13              		.thumb
  14              		.syntax unified
  15              		.file	"cy_dma.c"
  16              		.text
  17              	.Ltext0:
  18              		.cfi_sections	.debug_frame
  19              		.section	.text.Cy_DMA_Descriptor_Init,"ax",%progbits
  20              		.align	2
  21              		.global	Cy_DMA_Descriptor_Init
  22              		.code	16
  23              		.thumb_func
  24              		.type	Cy_DMA_Descriptor_Init, %function
  25              	Cy_DMA_Descriptor_Init:
  26              	.LFB87:
  27              		.file 1 "Generated_Source\\PSoC6\\pdl\\drivers\\peripheral\\dma\\cy_dma.c"
   1:Generated_Source\PSoC6\pdl\drivers\peripheral\dma/cy_dma.c **** /***************************************************************************//**
   2:Generated_Source\PSoC6\pdl\drivers\peripheral\dma/cy_dma.c **** * \file cy_dma.c
   3:Generated_Source\PSoC6\pdl\drivers\peripheral\dma/cy_dma.c **** * \version 2.0.1
   4:Generated_Source\PSoC6\pdl\drivers\peripheral\dma/cy_dma.c **** *
   5:Generated_Source\PSoC6\pdl\drivers\peripheral\dma/cy_dma.c **** * \brief
   6:Generated_Source\PSoC6\pdl\drivers\peripheral\dma/cy_dma.c **** * The source code file for the DMA driver.
   7:Generated_Source\PSoC6\pdl\drivers\peripheral\dma/cy_dma.c **** *
   8:Generated_Source\PSoC6\pdl\drivers\peripheral\dma/cy_dma.c **** ********************************************************************************
   9:Generated_Source\PSoC6\pdl\drivers\peripheral\dma/cy_dma.c **** * \copyright
  10:Generated_Source\PSoC6\pdl\drivers\peripheral\dma/cy_dma.c **** * Copyright 2016-2018, Cypress Semiconductor Corporation. All rights reserved.
  11:Generated_Source\PSoC6\pdl\drivers\peripheral\dma/cy_dma.c **** * You may use this file only in accordance with the license, terms, conditions,
  12:Generated_Source\PSoC6\pdl\drivers\peripheral\dma/cy_dma.c **** * disclaimers, and limitations in the end user license agreement accompanying
  13:Generated_Source\PSoC6\pdl\drivers\peripheral\dma/cy_dma.c **** * the software package with which this file was provided.
  14:Generated_Source\PSoC6\pdl\drivers\peripheral\dma/cy_dma.c **** *******************************************************************************/
  15:Generated_Source\PSoC6\pdl\drivers\peripheral\dma/cy_dma.c **** 
  16:Generated_Source\PSoC6\pdl\drivers\peripheral\dma/cy_dma.c **** #include "cy_dma.h"
  17:Generated_Source\PSoC6\pdl\drivers\peripheral\dma/cy_dma.c **** 
  18:Generated_Source\PSoC6\pdl\drivers\peripheral\dma/cy_dma.c **** #if defined(__cplusplus)
  19:Generated_Source\PSoC6\pdl\drivers\peripheral\dma/cy_dma.c **** extern "C" {
  20:Generated_Source\PSoC6\pdl\drivers\peripheral\dma/cy_dma.c **** #endif
  21:Generated_Source\PSoC6\pdl\drivers\peripheral\dma/cy_dma.c **** 
  22:Generated_Source\PSoC6\pdl\drivers\peripheral\dma/cy_dma.c **** 
  23:Generated_Source\PSoC6\pdl\drivers\peripheral\dma/cy_dma.c **** /*******************************************************************************
  24:Generated_Source\PSoC6\pdl\drivers\peripheral\dma/cy_dma.c **** * Function Name: Cy_DMA_Descriptor_Init
  25:Generated_Source\PSoC6\pdl\drivers\peripheral\dma/cy_dma.c **** ****************************************************************************//**
  26:Generated_Source\PSoC6\pdl\drivers\peripheral\dma/cy_dma.c **** *
  27:Generated_Source\PSoC6\pdl\drivers\peripheral\dma/cy_dma.c **** * Initializes the descriptor structure in SRAM from a pre-initialized
  28:Generated_Source\PSoC6\pdl\drivers\peripheral\dma/cy_dma.c **** * configuration structure.
  29:Generated_Source\PSoC6\pdl\drivers\peripheral\dma/cy_dma.c **** * This function initializes only the descriptor and not the channel.
  30:Generated_Source\PSoC6\pdl\drivers\peripheral\dma/cy_dma.c **** *
ARM GAS  C:\Users\cypress\AppData\Local\Temp\ccD9LaTb.s 			page 2


  31:Generated_Source\PSoC6\pdl\drivers\peripheral\dma/cy_dma.c **** * \param descriptor
  32:Generated_Source\PSoC6\pdl\drivers\peripheral\dma/cy_dma.c **** * The descriptor structure instance declared by the user/component.
  33:Generated_Source\PSoC6\pdl\drivers\peripheral\dma/cy_dma.c **** *
  34:Generated_Source\PSoC6\pdl\drivers\peripheral\dma/cy_dma.c **** * \param config
  35:Generated_Source\PSoC6\pdl\drivers\peripheral\dma/cy_dma.c **** * This is a configuration structure that has all initialization information for
  36:Generated_Source\PSoC6\pdl\drivers\peripheral\dma/cy_dma.c **** * the descriptor.
  37:Generated_Source\PSoC6\pdl\drivers\peripheral\dma/cy_dma.c **** *
  38:Generated_Source\PSoC6\pdl\drivers\peripheral\dma/cy_dma.c **** * \return
  39:Generated_Source\PSoC6\pdl\drivers\peripheral\dma/cy_dma.c **** * The status /ref cy_en_dma_status_t.
  40:Generated_Source\PSoC6\pdl\drivers\peripheral\dma/cy_dma.c **** *
  41:Generated_Source\PSoC6\pdl\drivers\peripheral\dma/cy_dma.c **** *******************************************************************************/
  42:Generated_Source\PSoC6\pdl\drivers\peripheral\dma/cy_dma.c **** cy_en_dma_status_t Cy_DMA_Descriptor_Init(cy_stc_dma_descriptor_t * descriptor, const cy_stc_dma_de
  43:Generated_Source\PSoC6\pdl\drivers\peripheral\dma/cy_dma.c **** {
  28              		.loc 1 43 0
  29              		.cfi_startproc
  30              		@ args = 0, pretend = 0, frame = 0
  31              		@ frame_needed = 0, uses_anonymous_args = 0
  32              	.LVL0:
  33 0000 70B5     		push	{r4, r5, r6, lr}
  34              		.cfi_def_cfa_offset 16
  35              		.cfi_offset 4, -16
  36              		.cfi_offset 5, -12
  37              		.cfi_offset 6, -8
  38              		.cfi_offset 14, -4
  39 0002 0500     		movs	r5, r0
  40 0004 0C00     		movs	r4, r1
  41              	.LVL1:
  44:Generated_Source\PSoC6\pdl\drivers\peripheral\dma/cy_dma.c ****     cy_en_dma_status_t retVal = CY_DMA_BAD_PARAM;
  45:Generated_Source\PSoC6\pdl\drivers\peripheral\dma/cy_dma.c **** 
  46:Generated_Source\PSoC6\pdl\drivers\peripheral\dma/cy_dma.c ****     if ((NULL != descriptor) && (NULL != config))
  42              		.loc 1 46 0
  43 0006 0028     		cmp	r0, #0
  44 0008 00D1     		bne	.LCB16
  45 000a 0FE1     		b	.L24	@long jump
  46              	.LCB16:
  47              		.loc 1 46 0 is_stmt 0 discriminator 1
  48 000c 0029     		cmp	r1, #0
  49 000e 00D1     		bne	.LCB18
  50 0010 0EE1     		b	.L25	@long jump
  51              	.LCB18:
  47:Generated_Source\PSoC6\pdl\drivers\peripheral\dma/cy_dma.c ****     {
  48:Generated_Source\PSoC6\pdl\drivers\peripheral\dma/cy_dma.c ****         CY_ASSERT_L3(CY_DMA_IS_RETRIGGER_VALID(config->retrigger));
  52              		.loc 1 48 0 is_stmt 1
  53 0012 0B78     		ldrb	r3, [r1]
  54 0014 032B     		cmp	r3, #3
  55 0016 03D9     		bls	.L3
  56              		.loc 1 48 0 is_stmt 0 discriminator 1
  57 0018 3021     		movs	r1, #48
  58              	.LVL2:
  59 001a 8748     		ldr	r0, .L28
  60              	.LVL3:
  61 001c FFF7FEFF 		bl	Cy_SysLib_AssertFailed
  62              	.LVL4:
  63              	.L3:
  49:Generated_Source\PSoC6\pdl\drivers\peripheral\dma/cy_dma.c ****         CY_ASSERT_L3(CY_DMA_IS_TRIG_TYPE_VALID(config->interruptType));
  64              		.loc 1 49 0 is_stmt 1
  65 0020 6378     		ldrb	r3, [r4, #1]
ARM GAS  C:\Users\cypress\AppData\Local\Temp\ccD9LaTb.s 			page 3


  66 0022 032B     		cmp	r3, #3
  67 0024 03D9     		bls	.L4
  68              		.loc 1 49 0 is_stmt 0 discriminator 1
  69 0026 3121     		movs	r1, #49
  70 0028 8348     		ldr	r0, .L28
  71 002a FFF7FEFF 		bl	Cy_SysLib_AssertFailed
  72              	.LVL5:
  73              	.L4:
  50:Generated_Source\PSoC6\pdl\drivers\peripheral\dma/cy_dma.c ****         CY_ASSERT_L3(CY_DMA_IS_TRIG_TYPE_VALID(config->triggerOutType));
  74              		.loc 1 50 0 is_stmt 1
  75 002e A378     		ldrb	r3, [r4, #2]
  76 0030 032B     		cmp	r3, #3
  77 0032 03D9     		bls	.L5
  78              		.loc 1 50 0 is_stmt 0 discriminator 1
  79 0034 3221     		movs	r1, #50
  80 0036 8048     		ldr	r0, .L28
  81 0038 FFF7FEFF 		bl	Cy_SysLib_AssertFailed
  82              	.LVL6:
  83              	.L5:
  51:Generated_Source\PSoC6\pdl\drivers\peripheral\dma/cy_dma.c ****         CY_ASSERT_L3(CY_DMA_IS_TRIG_TYPE_VALID(config->triggerInType));
  84              		.loc 1 51 0 is_stmt 1
  85 003c 2379     		ldrb	r3, [r4, #4]
  86 003e 032B     		cmp	r3, #3
  87 0040 03D9     		bls	.L6
  88              		.loc 1 51 0 is_stmt 0 discriminator 1
  89 0042 3321     		movs	r1, #51
  90 0044 7C48     		ldr	r0, .L28
  91 0046 FFF7FEFF 		bl	Cy_SysLib_AssertFailed
  92              	.LVL7:
  93              	.L6:
  52:Generated_Source\PSoC6\pdl\drivers\peripheral\dma/cy_dma.c ****         CY_ASSERT_L3(CY_DMA_IS_XFER_SIZE_VALID(config->srcTransferSize));
  94              		.loc 1 52 0 is_stmt 1
  95 004a A379     		ldrb	r3, [r4, #6]
  96 004c 012B     		cmp	r3, #1
  97 004e 03D9     		bls	.L7
  98              		.loc 1 52 0 is_stmt 0 discriminator 1
  99 0050 3421     		movs	r1, #52
 100 0052 7948     		ldr	r0, .L28
 101 0054 FFF7FEFF 		bl	Cy_SysLib_AssertFailed
 102              	.LVL8:
 103              	.L7:
  53:Generated_Source\PSoC6\pdl\drivers\peripheral\dma/cy_dma.c ****         CY_ASSERT_L3(CY_DMA_IS_XFER_SIZE_VALID(config->dstTransferSize));
 104              		.loc 1 53 0 is_stmt 1
 105 0058 E379     		ldrb	r3, [r4, #7]
 106 005a 012B     		cmp	r3, #1
 107 005c 03D9     		bls	.L8
 108              		.loc 1 53 0 is_stmt 0 discriminator 1
 109 005e 3521     		movs	r1, #53
 110 0060 7548     		ldr	r0, .L28
 111 0062 FFF7FEFF 		bl	Cy_SysLib_AssertFailed
 112              	.LVL9:
 113              	.L8:
  54:Generated_Source\PSoC6\pdl\drivers\peripheral\dma/cy_dma.c ****         CY_ASSERT_L3(CY_DMA_IS_CHANNEL_STATE_VALID(config->channelState));
 114              		.loc 1 54 0 is_stmt 1
 115 0066 E378     		ldrb	r3, [r4, #3]
 116 0068 012B     		cmp	r3, #1
 117 006a 03D9     		bls	.L9
ARM GAS  C:\Users\cypress\AppData\Local\Temp\ccD9LaTb.s 			page 4


 118              		.loc 1 54 0 is_stmt 0 discriminator 1
 119 006c 3621     		movs	r1, #54
 120 006e 7248     		ldr	r0, .L28
 121 0070 FFF7FEFF 		bl	Cy_SysLib_AssertFailed
 122              	.LVL10:
 123              	.L9:
  55:Generated_Source\PSoC6\pdl\drivers\peripheral\dma/cy_dma.c ****         CY_ASSERT_L3(CY_DMA_IS_DATA_SIZE_VALID(config->dataSize));
 124              		.loc 1 55 0 is_stmt 1
 125 0074 6379     		ldrb	r3, [r4, #5]
 126 0076 022B     		cmp	r3, #2
 127 0078 03D9     		bls	.L10
 128              		.loc 1 55 0 is_stmt 0 discriminator 1
 129 007a 3721     		movs	r1, #55
 130 007c 6E48     		ldr	r0, .L28
 131 007e FFF7FEFF 		bl	Cy_SysLib_AssertFailed
 132              	.LVL11:
 133              	.L10:
  56:Generated_Source\PSoC6\pdl\drivers\peripheral\dma/cy_dma.c ****         CY_ASSERT_L3(CY_DMA_IS_TYPE_VALID(config->descriptorType));
 134              		.loc 1 56 0 is_stmt 1
 135 0082 237A     		ldrb	r3, [r4, #8]
 136 0084 022B     		cmp	r3, #2
 137 0086 03D9     		bls	.L11
 138              		.loc 1 56 0 is_stmt 0 discriminator 1
 139 0088 3821     		movs	r1, #56
 140 008a 6B48     		ldr	r0, .L28
 141 008c FFF7FEFF 		bl	Cy_SysLib_AssertFailed
 142              	.LVL12:
 143              	.L11:
  57:Generated_Source\PSoC6\pdl\drivers\peripheral\dma/cy_dma.c ****         
  58:Generated_Source\PSoC6\pdl\drivers\peripheral\dma/cy_dma.c ****         descriptor->ctl =
  59:Generated_Source\PSoC6\pdl\drivers\peripheral\dma/cy_dma.c ****             _VAL2FLD(CY_DMA_CTL_RETRIG, config->retrigger) |
 144              		.loc 1 59 0 is_stmt 1
 145 0090 2378     		ldrb	r3, [r4]
 146 0092 0321     		movs	r1, #3
 147 0094 1940     		ands	r1, r3
  60:Generated_Source\PSoC6\pdl\drivers\peripheral\dma/cy_dma.c ****             _VAL2FLD(CY_DMA_CTL_INTR_TYPE, config->interruptType) |
 148              		.loc 1 60 0
 149 0096 6278     		ldrb	r2, [r4, #1]
 150 0098 9200     		lsls	r2, r2, #2
 151 009a 0C23     		movs	r3, #12
 152 009c 1340     		ands	r3, r2
  59:Generated_Source\PSoC6\pdl\drivers\peripheral\dma/cy_dma.c ****             _VAL2FLD(CY_DMA_CTL_INTR_TYPE, config->interruptType) |
 153              		.loc 1 59 0
 154 009e 0B43     		orrs	r3, r1
  61:Generated_Source\PSoC6\pdl\drivers\peripheral\dma/cy_dma.c ****             _VAL2FLD(CY_DMA_CTL_TR_OUT_TYPE, config->triggerOutType) |
 155              		.loc 1 61 0
 156 00a0 A278     		ldrb	r2, [r4, #2]
 157 00a2 1201     		lsls	r2, r2, #4
 158 00a4 3021     		movs	r1, #48
 159 00a6 0A40     		ands	r2, r1
  60:Generated_Source\PSoC6\pdl\drivers\peripheral\dma/cy_dma.c ****             _VAL2FLD(CY_DMA_CTL_INTR_TYPE, config->interruptType) |
 160              		.loc 1 60 0
 161 00a8 1343     		orrs	r3, r2
 162 00aa 1900     		movs	r1, r3
  62:Generated_Source\PSoC6\pdl\drivers\peripheral\dma/cy_dma.c ****             _VAL2FLD(CY_DMA_CTL_TR_IN_TYPE, config->triggerInType) |
 163              		.loc 1 62 0
 164 00ac 2279     		ldrb	r2, [r4, #4]
ARM GAS  C:\Users\cypress\AppData\Local\Temp\ccD9LaTb.s 			page 5


 165 00ae 9201     		lsls	r2, r2, #6
 166 00b0 FF23     		movs	r3, #255
 167 00b2 1A40     		ands	r2, r3
  61:Generated_Source\PSoC6\pdl\drivers\peripheral\dma/cy_dma.c ****             _VAL2FLD(CY_DMA_CTL_TR_OUT_TYPE, config->triggerOutType) |
 168              		.loc 1 61 0
 169 00b4 0B00     		movs	r3, r1
 170 00b6 1343     		orrs	r3, r2
  63:Generated_Source\PSoC6\pdl\drivers\peripheral\dma/cy_dma.c ****             _VAL2FLD(CY_DMA_CTL_SRC_SIZE, config->srcTransferSize) |
 171              		.loc 1 63 0
 172 00b8 A279     		ldrb	r2, [r4, #6]
 173 00ba 9206     		lsls	r2, r2, #26
 174 00bc 8021     		movs	r1, #128
 175 00be C904     		lsls	r1, r1, #19
 176 00c0 0A40     		ands	r2, r1
  62:Generated_Source\PSoC6\pdl\drivers\peripheral\dma/cy_dma.c ****             _VAL2FLD(CY_DMA_CTL_TR_IN_TYPE, config->triggerInType) |
 177              		.loc 1 62 0
 178 00c2 1343     		orrs	r3, r2
  64:Generated_Source\PSoC6\pdl\drivers\peripheral\dma/cy_dma.c ****             _VAL2FLD(CY_DMA_CTL_DST_SIZE, config->dstTransferSize) |
 179              		.loc 1 64 0
 180 00c4 E279     		ldrb	r2, [r4, #7]
 181 00c6 D206     		lsls	r2, r2, #27
 182 00c8 8021     		movs	r1, #128
 183 00ca 0905     		lsls	r1, r1, #20
 184 00cc 0A40     		ands	r2, r1
  63:Generated_Source\PSoC6\pdl\drivers\peripheral\dma/cy_dma.c ****             _VAL2FLD(CY_DMA_CTL_SRC_SIZE, config->srcTransferSize) |
 185              		.loc 1 63 0
 186 00ce 1343     		orrs	r3, r2
  65:Generated_Source\PSoC6\pdl\drivers\peripheral\dma/cy_dma.c ****             _VAL2FLD(CY_DMA_CTL_CH_DISABLE, config->channelState) |
 187              		.loc 1 65 0
 188 00d0 E278     		ldrb	r2, [r4, #3]
 189 00d2 1206     		lsls	r2, r2, #24
 190 00d4 8021     		movs	r1, #128
 191 00d6 4904     		lsls	r1, r1, #17
 192 00d8 0A40     		ands	r2, r1
  64:Generated_Source\PSoC6\pdl\drivers\peripheral\dma/cy_dma.c ****             _VAL2FLD(CY_DMA_CTL_DST_SIZE, config->dstTransferSize) |
 193              		.loc 1 64 0
 194 00da 1343     		orrs	r3, r2
  66:Generated_Source\PSoC6\pdl\drivers\peripheral\dma/cy_dma.c ****             _VAL2FLD(CY_DMA_CTL_DATA_SIZE, config->dataSize) |
 195              		.loc 1 66 0
 196 00dc 6279     		ldrb	r2, [r4, #5]
 197 00de 1207     		lsls	r2, r2, #28
 198 00e0 C021     		movs	r1, #192
 199 00e2 8905     		lsls	r1, r1, #22
 200 00e4 0A40     		ands	r2, r1
  65:Generated_Source\PSoC6\pdl\drivers\peripheral\dma/cy_dma.c ****             _VAL2FLD(CY_DMA_CTL_CH_DISABLE, config->channelState) |
 201              		.loc 1 65 0
 202 00e6 1343     		orrs	r3, r2
  67:Generated_Source\PSoC6\pdl\drivers\peripheral\dma/cy_dma.c ****             _VAL2FLD(CY_DMA_CTL_TYPE, config->descriptorType);
 203              		.loc 1 67 0
 204 00e8 227A     		ldrb	r2, [r4, #8]
 205 00ea 9207     		lsls	r2, r2, #30
  66:Generated_Source\PSoC6\pdl\drivers\peripheral\dma/cy_dma.c ****             _VAL2FLD(CY_DMA_CTL_DATA_SIZE, config->dataSize) |
 206              		.loc 1 66 0
 207 00ec 1343     		orrs	r3, r2
  58:Generated_Source\PSoC6\pdl\drivers\peripheral\dma/cy_dma.c ****             _VAL2FLD(CY_DMA_CTL_RETRIG, config->retrigger) |
 208              		.loc 1 58 0
 209 00ee 2B60     		str	r3, [r5]
ARM GAS  C:\Users\cypress\AppData\Local\Temp\ccD9LaTb.s 			page 6


  68:Generated_Source\PSoC6\pdl\drivers\peripheral\dma/cy_dma.c **** 
  69:Generated_Source\PSoC6\pdl\drivers\peripheral\dma/cy_dma.c ****         descriptor->src = (uint32_t)config->srcAddress;
 210              		.loc 1 69 0
 211 00f0 E368     		ldr	r3, [r4, #12]
 212 00f2 6B60     		str	r3, [r5, #4]
  70:Generated_Source\PSoC6\pdl\drivers\peripheral\dma/cy_dma.c **** 
  71:Generated_Source\PSoC6\pdl\drivers\peripheral\dma/cy_dma.c ****         descriptor->dst = (uint32_t)config->dstAddress;
 213              		.loc 1 71 0
 214 00f4 2369     		ldr	r3, [r4, #16]
 215 00f6 AB60     		str	r3, [r5, #8]
  72:Generated_Source\PSoC6\pdl\drivers\peripheral\dma/cy_dma.c **** 
  73:Generated_Source\PSoC6\pdl\drivers\peripheral\dma/cy_dma.c ****         switch(config->descriptorType)
 216              		.loc 1 73 0
 217 00f8 237A     		ldrb	r3, [r4, #8]
 218 00fa 012B     		cmp	r3, #1
 219 00fc 08D0     		beq	.L12
 220 00fe 002B     		cmp	r3, #0
 221 0100 02D0     		beq	.L13
 222 0102 022B     		cmp	r3, #2
 223 0104 35D0     		beq	.L14
 224 0106 95E0     		b	.L27
 225              	.L13:
  74:Generated_Source\PSoC6\pdl\drivers\peripheral\dma/cy_dma.c ****         {
  75:Generated_Source\PSoC6\pdl\drivers\peripheral\dma/cy_dma.c ****             case CY_DMA_SINGLE_TRANSFER:
  76:Generated_Source\PSoC6\pdl\drivers\peripheral\dma/cy_dma.c ****             {
  77:Generated_Source\PSoC6\pdl\drivers\peripheral\dma/cy_dma.c ****                 descriptor->xCtl = (uint32_t)config->nextDescriptor;
 226              		.loc 1 77 0
 227 0108 E36A     		ldr	r3, [r4, #44]
 228 010a EB60     		str	r3, [r5, #12]
  78:Generated_Source\PSoC6\pdl\drivers\peripheral\dma/cy_dma.c ****                 break;
  79:Generated_Source\PSoC6\pdl\drivers\peripheral\dma/cy_dma.c ****             }
  80:Generated_Source\PSoC6\pdl\drivers\peripheral\dma/cy_dma.c ****             case CY_DMA_1D_TRANSFER:
  81:Generated_Source\PSoC6\pdl\drivers\peripheral\dma/cy_dma.c ****             {
  82:Generated_Source\PSoC6\pdl\drivers\peripheral\dma/cy_dma.c ****                 CY_ASSERT_L2(CY_DMA_IS_INCR_VALID(config->srcXincrement));
  83:Generated_Source\PSoC6\pdl\drivers\peripheral\dma/cy_dma.c ****                 CY_ASSERT_L2(CY_DMA_IS_INCR_VALID(config->dstXincrement));
  84:Generated_Source\PSoC6\pdl\drivers\peripheral\dma/cy_dma.c ****                 CY_ASSERT_L2(CY_DMA_IS_COUNT_VALID(config->xCount));
  85:Generated_Source\PSoC6\pdl\drivers\peripheral\dma/cy_dma.c ****                 
  86:Generated_Source\PSoC6\pdl\drivers\peripheral\dma/cy_dma.c ****                 descriptor->xCtl =
  87:Generated_Source\PSoC6\pdl\drivers\peripheral\dma/cy_dma.c ****                     _VAL2FLD(CY_DMA_CTL_SRC_INCR, config->srcXincrement) |
  88:Generated_Source\PSoC6\pdl\drivers\peripheral\dma/cy_dma.c ****                     _VAL2FLD(CY_DMA_CTL_DST_INCR, config->dstXincrement) |
  89:Generated_Source\PSoC6\pdl\drivers\peripheral\dma/cy_dma.c ****     /* Convert the data count from the user's range (1-256) into the machine range (0-255). */
  90:Generated_Source\PSoC6\pdl\drivers\peripheral\dma/cy_dma.c ****                     _VAL2FLD(CY_DMA_CTL_COUNT, config->xCount - 1UL);
  91:Generated_Source\PSoC6\pdl\drivers\peripheral\dma/cy_dma.c ****                     
  92:Generated_Source\PSoC6\pdl\drivers\peripheral\dma/cy_dma.c ****                 descriptor->yCtl = (uint32_t)config->nextDescriptor;
  93:Generated_Source\PSoC6\pdl\drivers\peripheral\dma/cy_dma.c ****                 break;
  94:Generated_Source\PSoC6\pdl\drivers\peripheral\dma/cy_dma.c ****             }
  95:Generated_Source\PSoC6\pdl\drivers\peripheral\dma/cy_dma.c ****             case CY_DMA_2D_TRANSFER:
  96:Generated_Source\PSoC6\pdl\drivers\peripheral\dma/cy_dma.c ****             {                
  97:Generated_Source\PSoC6\pdl\drivers\peripheral\dma/cy_dma.c ****                 CY_ASSERT_L2(CY_DMA_IS_INCR_VALID(config->srcXincrement));
  98:Generated_Source\PSoC6\pdl\drivers\peripheral\dma/cy_dma.c ****                 CY_ASSERT_L2(CY_DMA_IS_INCR_VALID(config->dstXincrement));
  99:Generated_Source\PSoC6\pdl\drivers\peripheral\dma/cy_dma.c ****                 CY_ASSERT_L2(CY_DMA_IS_COUNT_VALID(config->xCount));
 100:Generated_Source\PSoC6\pdl\drivers\peripheral\dma/cy_dma.c ****                 CY_ASSERT_L2(CY_DMA_IS_INCR_VALID(config->srcYincrement));
 101:Generated_Source\PSoC6\pdl\drivers\peripheral\dma/cy_dma.c ****                 CY_ASSERT_L2(CY_DMA_IS_INCR_VALID(config->dstYincrement));
 102:Generated_Source\PSoC6\pdl\drivers\peripheral\dma/cy_dma.c ****                 CY_ASSERT_L2(CY_DMA_IS_COUNT_VALID(config->yCount));
 103:Generated_Source\PSoC6\pdl\drivers\peripheral\dma/cy_dma.c ****                 
 104:Generated_Source\PSoC6\pdl\drivers\peripheral\dma/cy_dma.c ****                 descriptor->xCtl =
 105:Generated_Source\PSoC6\pdl\drivers\peripheral\dma/cy_dma.c ****                     _VAL2FLD(CY_DMA_CTL_SRC_INCR, config->srcXincrement) |
ARM GAS  C:\Users\cypress\AppData\Local\Temp\ccD9LaTb.s 			page 7


 106:Generated_Source\PSoC6\pdl\drivers\peripheral\dma/cy_dma.c ****                     _VAL2FLD(CY_DMA_CTL_DST_INCR, config->dstXincrement) |
 107:Generated_Source\PSoC6\pdl\drivers\peripheral\dma/cy_dma.c ****     /* Convert the data count from the user's range (1-256) into the machine range (0-255). */
 108:Generated_Source\PSoC6\pdl\drivers\peripheral\dma/cy_dma.c ****                     _VAL2FLD(CY_DMA_CTL_COUNT, config->xCount - 1UL);
 109:Generated_Source\PSoC6\pdl\drivers\peripheral\dma/cy_dma.c ****                     
 110:Generated_Source\PSoC6\pdl\drivers\peripheral\dma/cy_dma.c ****                 descriptor->yCtl =
 111:Generated_Source\PSoC6\pdl\drivers\peripheral\dma/cy_dma.c ****                     _VAL2FLD(CY_DMA_CTL_SRC_INCR, config->srcYincrement) |
 112:Generated_Source\PSoC6\pdl\drivers\peripheral\dma/cy_dma.c ****                     _VAL2FLD(CY_DMA_CTL_DST_INCR, config->dstYincrement) |
 113:Generated_Source\PSoC6\pdl\drivers\peripheral\dma/cy_dma.c ****     /* Convert the data count from the user's range (1-256) into the machine range (0-255). */
 114:Generated_Source\PSoC6\pdl\drivers\peripheral\dma/cy_dma.c ****                     _VAL2FLD(CY_DMA_CTL_COUNT, config->yCount - 1UL);
 115:Generated_Source\PSoC6\pdl\drivers\peripheral\dma/cy_dma.c ****                     
 116:Generated_Source\PSoC6\pdl\drivers\peripheral\dma/cy_dma.c ****                 descriptor->nextPtr = (uint32_t)config->nextDescriptor;
 117:Generated_Source\PSoC6\pdl\drivers\peripheral\dma/cy_dma.c ****                 break;
 118:Generated_Source\PSoC6\pdl\drivers\peripheral\dma/cy_dma.c ****             }
 119:Generated_Source\PSoC6\pdl\drivers\peripheral\dma/cy_dma.c ****             default:
 120:Generated_Source\PSoC6\pdl\drivers\peripheral\dma/cy_dma.c ****             {
 121:Generated_Source\PSoC6\pdl\drivers\peripheral\dma/cy_dma.c ****                 /* An unsupported type of a descriptor */
 122:Generated_Source\PSoC6\pdl\drivers\peripheral\dma/cy_dma.c ****                 break;
 123:Generated_Source\PSoC6\pdl\drivers\peripheral\dma/cy_dma.c ****             }
 124:Generated_Source\PSoC6\pdl\drivers\peripheral\dma/cy_dma.c ****         }
 125:Generated_Source\PSoC6\pdl\drivers\peripheral\dma/cy_dma.c **** 
 126:Generated_Source\PSoC6\pdl\drivers\peripheral\dma/cy_dma.c ****         retVal = CY_DMA_SUCCESS;
 229              		.loc 1 126 0
 230 010c 0020     		movs	r0, #0
  78:Generated_Source\PSoC6\pdl\drivers\peripheral\dma/cy_dma.c ****                 break;
 231              		.loc 1 78 0
 232 010e 92E0     		b	.L2
 233              	.L12:
  82:Generated_Source\PSoC6\pdl\drivers\peripheral\dma/cy_dma.c ****                 CY_ASSERT_L2(CY_DMA_IS_INCR_VALID(config->dstXincrement));
 234              		.loc 1 82 0
 235 0110 6369     		ldr	r3, [r4, #20]
 236 0112 8022     		movs	r2, #128
 237 0114 1201     		lsls	r2, r2, #4
 238 0116 9446     		mov	ip, r2
 239 0118 6344     		add	r3, r3, ip
 240 011a 484A     		ldr	r2, .L28+4
 241 011c 9342     		cmp	r3, r2
 242 011e 03D9     		bls	.L15
  82:Generated_Source\PSoC6\pdl\drivers\peripheral\dma/cy_dma.c ****                 CY_ASSERT_L2(CY_DMA_IS_INCR_VALID(config->dstXincrement));
 243              		.loc 1 82 0 is_stmt 0 discriminator 1
 244 0120 5221     		movs	r1, #82
 245 0122 4548     		ldr	r0, .L28
 246 0124 FFF7FEFF 		bl	Cy_SysLib_AssertFailed
 247              	.LVL13:
 248              	.L15:
  83:Generated_Source\PSoC6\pdl\drivers\peripheral\dma/cy_dma.c ****                 CY_ASSERT_L2(CY_DMA_IS_COUNT_VALID(config->xCount));
 249              		.loc 1 83 0 is_stmt 1
 250 0128 A369     		ldr	r3, [r4, #24]
 251 012a 8022     		movs	r2, #128
 252 012c 1201     		lsls	r2, r2, #4
 253 012e 9446     		mov	ip, r2
 254 0130 6344     		add	r3, r3, ip
 255 0132 424A     		ldr	r2, .L28+4
 256 0134 9342     		cmp	r3, r2
 257 0136 03D9     		bls	.L16
  83:Generated_Source\PSoC6\pdl\drivers\peripheral\dma/cy_dma.c ****                 CY_ASSERT_L2(CY_DMA_IS_COUNT_VALID(config->xCount));
 258              		.loc 1 83 0 is_stmt 0 discriminator 1
 259 0138 5321     		movs	r1, #83
ARM GAS  C:\Users\cypress\AppData\Local\Temp\ccD9LaTb.s 			page 8


 260 013a 3F48     		ldr	r0, .L28
 261 013c FFF7FEFF 		bl	Cy_SysLib_AssertFailed
 262              	.LVL14:
 263              	.L16:
  84:Generated_Source\PSoC6\pdl\drivers\peripheral\dma/cy_dma.c ****                 
 264              		.loc 1 84 0 is_stmt 1
 265 0140 E369     		ldr	r3, [r4, #28]
 266 0142 013B     		subs	r3, r3, #1
 267 0144 FF2B     		cmp	r3, #255
 268 0146 03D9     		bls	.L17
  84:Generated_Source\PSoC6\pdl\drivers\peripheral\dma/cy_dma.c ****                 
 269              		.loc 1 84 0 is_stmt 0 discriminator 1
 270 0148 5421     		movs	r1, #84
 271 014a 3B48     		ldr	r0, .L28
 272 014c FFF7FEFF 		bl	Cy_SysLib_AssertFailed
 273              	.LVL15:
 274              	.L17:
  87:Generated_Source\PSoC6\pdl\drivers\peripheral\dma/cy_dma.c ****                     _VAL2FLD(CY_DMA_CTL_DST_INCR, config->dstXincrement) |
 275              		.loc 1 87 0 is_stmt 1
 276 0150 6369     		ldr	r3, [r4, #20]
 277 0152 1B05     		lsls	r3, r3, #20
 278 0154 190D     		lsrs	r1, r3, #20
  88:Generated_Source\PSoC6\pdl\drivers\peripheral\dma/cy_dma.c ****     /* Convert the data count from the user's range (1-256) into the machine range (0-255). */
 279              		.loc 1 88 0
 280 0156 A369     		ldr	r3, [r4, #24]
 281 0158 1B03     		lsls	r3, r3, #12
 282 015a 394A     		ldr	r2, .L28+8
 283 015c 1340     		ands	r3, r2
  87:Generated_Source\PSoC6\pdl\drivers\peripheral\dma/cy_dma.c ****                     _VAL2FLD(CY_DMA_CTL_DST_INCR, config->dstXincrement) |
 284              		.loc 1 87 0
 285 015e 0B43     		orrs	r3, r1
  90:Generated_Source\PSoC6\pdl\drivers\peripheral\dma/cy_dma.c ****                     
 286              		.loc 1 90 0
 287 0160 E269     		ldr	r2, [r4, #28]
 288 0162 013A     		subs	r2, r2, #1
 289 0164 1206     		lsls	r2, r2, #24
  88:Generated_Source\PSoC6\pdl\drivers\peripheral\dma/cy_dma.c ****     /* Convert the data count from the user's range (1-256) into the machine range (0-255). */
 290              		.loc 1 88 0
 291 0166 1343     		orrs	r3, r2
  86:Generated_Source\PSoC6\pdl\drivers\peripheral\dma/cy_dma.c ****                     _VAL2FLD(CY_DMA_CTL_SRC_INCR, config->srcXincrement) |
 292              		.loc 1 86 0
 293 0168 EB60     		str	r3, [r5, #12]
  92:Generated_Source\PSoC6\pdl\drivers\peripheral\dma/cy_dma.c ****                 break;
 294              		.loc 1 92 0
 295 016a E36A     		ldr	r3, [r4, #44]
 296 016c 2B61     		str	r3, [r5, #16]
 297              		.loc 1 126 0
 298 016e 0020     		movs	r0, #0
  93:Generated_Source\PSoC6\pdl\drivers\peripheral\dma/cy_dma.c ****             }
 299              		.loc 1 93 0
 300 0170 61E0     		b	.L2
 301              	.L14:
  97:Generated_Source\PSoC6\pdl\drivers\peripheral\dma/cy_dma.c ****                 CY_ASSERT_L2(CY_DMA_IS_INCR_VALID(config->dstXincrement));
 302              		.loc 1 97 0
 303 0172 6369     		ldr	r3, [r4, #20]
 304 0174 8022     		movs	r2, #128
 305 0176 1201     		lsls	r2, r2, #4
ARM GAS  C:\Users\cypress\AppData\Local\Temp\ccD9LaTb.s 			page 9


 306 0178 9446     		mov	ip, r2
 307 017a 6344     		add	r3, r3, ip
 308 017c 2F4A     		ldr	r2, .L28+4
 309 017e 9342     		cmp	r3, r2
 310 0180 03D9     		bls	.L18
  97:Generated_Source\PSoC6\pdl\drivers\peripheral\dma/cy_dma.c ****                 CY_ASSERT_L2(CY_DMA_IS_INCR_VALID(config->dstXincrement));
 311              		.loc 1 97 0 is_stmt 0 discriminator 1
 312 0182 6121     		movs	r1, #97
 313 0184 2C48     		ldr	r0, .L28
 314 0186 FFF7FEFF 		bl	Cy_SysLib_AssertFailed
 315              	.LVL16:
 316              	.L18:
  98:Generated_Source\PSoC6\pdl\drivers\peripheral\dma/cy_dma.c ****                 CY_ASSERT_L2(CY_DMA_IS_COUNT_VALID(config->xCount));
 317              		.loc 1 98 0 is_stmt 1
 318 018a A369     		ldr	r3, [r4, #24]
 319 018c 8022     		movs	r2, #128
 320 018e 1201     		lsls	r2, r2, #4
 321 0190 9446     		mov	ip, r2
 322 0192 6344     		add	r3, r3, ip
 323 0194 294A     		ldr	r2, .L28+4
 324 0196 9342     		cmp	r3, r2
 325 0198 03D9     		bls	.L19
  98:Generated_Source\PSoC6\pdl\drivers\peripheral\dma/cy_dma.c ****                 CY_ASSERT_L2(CY_DMA_IS_COUNT_VALID(config->xCount));
 326              		.loc 1 98 0 is_stmt 0 discriminator 1
 327 019a 6221     		movs	r1, #98
 328 019c 2648     		ldr	r0, .L28
 329 019e FFF7FEFF 		bl	Cy_SysLib_AssertFailed
 330              	.LVL17:
 331              	.L19:
  99:Generated_Source\PSoC6\pdl\drivers\peripheral\dma/cy_dma.c ****                 CY_ASSERT_L2(CY_DMA_IS_INCR_VALID(config->srcYincrement));
 332              		.loc 1 99 0 is_stmt 1
 333 01a2 E369     		ldr	r3, [r4, #28]
 334 01a4 013B     		subs	r3, r3, #1
 335 01a6 FF2B     		cmp	r3, #255
 336 01a8 03D9     		bls	.L20
  99:Generated_Source\PSoC6\pdl\drivers\peripheral\dma/cy_dma.c ****                 CY_ASSERT_L2(CY_DMA_IS_INCR_VALID(config->srcYincrement));
 337              		.loc 1 99 0 is_stmt 0 discriminator 1
 338 01aa 6321     		movs	r1, #99
 339 01ac 2248     		ldr	r0, .L28
 340 01ae FFF7FEFF 		bl	Cy_SysLib_AssertFailed
 341              	.LVL18:
 342              	.L20:
 100:Generated_Source\PSoC6\pdl\drivers\peripheral\dma/cy_dma.c ****                 CY_ASSERT_L2(CY_DMA_IS_INCR_VALID(config->dstYincrement));
 343              		.loc 1 100 0 is_stmt 1
 344 01b2 236A     		ldr	r3, [r4, #32]
 345 01b4 8022     		movs	r2, #128
 346 01b6 1201     		lsls	r2, r2, #4
 347 01b8 9446     		mov	ip, r2
 348 01ba 6344     		add	r3, r3, ip
 349 01bc 1F4A     		ldr	r2, .L28+4
 350 01be 9342     		cmp	r3, r2
 351 01c0 03D9     		bls	.L21
 100:Generated_Source\PSoC6\pdl\drivers\peripheral\dma/cy_dma.c ****                 CY_ASSERT_L2(CY_DMA_IS_INCR_VALID(config->dstYincrement));
 352              		.loc 1 100 0 is_stmt 0 discriminator 1
 353 01c2 6421     		movs	r1, #100
 354 01c4 1C48     		ldr	r0, .L28
 355 01c6 FFF7FEFF 		bl	Cy_SysLib_AssertFailed
ARM GAS  C:\Users\cypress\AppData\Local\Temp\ccD9LaTb.s 			page 10


 356              	.LVL19:
 357              	.L21:
 101:Generated_Source\PSoC6\pdl\drivers\peripheral\dma/cy_dma.c ****                 CY_ASSERT_L2(CY_DMA_IS_COUNT_VALID(config->yCount));
 358              		.loc 1 101 0 is_stmt 1
 359 01ca 636A     		ldr	r3, [r4, #36]
 360 01cc 8022     		movs	r2, #128
 361 01ce 1201     		lsls	r2, r2, #4
 362 01d0 9446     		mov	ip, r2
 363 01d2 6344     		add	r3, r3, ip
 364 01d4 194A     		ldr	r2, .L28+4
 365 01d6 9342     		cmp	r3, r2
 366 01d8 03D9     		bls	.L22
 101:Generated_Source\PSoC6\pdl\drivers\peripheral\dma/cy_dma.c ****                 CY_ASSERT_L2(CY_DMA_IS_COUNT_VALID(config->yCount));
 367              		.loc 1 101 0 is_stmt 0 discriminator 1
 368 01da 6521     		movs	r1, #101
 369 01dc 1648     		ldr	r0, .L28
 370 01de FFF7FEFF 		bl	Cy_SysLib_AssertFailed
 371              	.LVL20:
 372              	.L22:
 102:Generated_Source\PSoC6\pdl\drivers\peripheral\dma/cy_dma.c ****                 
 373              		.loc 1 102 0 is_stmt 1
 374 01e2 A36A     		ldr	r3, [r4, #40]
 375 01e4 013B     		subs	r3, r3, #1
 376 01e6 FF2B     		cmp	r3, #255
 377 01e8 03D9     		bls	.L23
 102:Generated_Source\PSoC6\pdl\drivers\peripheral\dma/cy_dma.c ****                 
 378              		.loc 1 102 0 is_stmt 0 discriminator 1
 379 01ea 6621     		movs	r1, #102
 380 01ec 1248     		ldr	r0, .L28
 381 01ee FFF7FEFF 		bl	Cy_SysLib_AssertFailed
 382              	.LVL21:
 383              	.L23:
 105:Generated_Source\PSoC6\pdl\drivers\peripheral\dma/cy_dma.c ****                     _VAL2FLD(CY_DMA_CTL_DST_INCR, config->dstXincrement) |
 384              		.loc 1 105 0 is_stmt 1
 385 01f2 6369     		ldr	r3, [r4, #20]
 386 01f4 1A05     		lsls	r2, r3, #20
 387 01f6 130D     		lsrs	r3, r2, #20
 106:Generated_Source\PSoC6\pdl\drivers\peripheral\dma/cy_dma.c ****     /* Convert the data count from the user's range (1-256) into the machine range (0-255). */
 388              		.loc 1 106 0
 389 01f8 A269     		ldr	r2, [r4, #24]
 390 01fa 1203     		lsls	r2, r2, #12
 391 01fc 1048     		ldr	r0, .L28+8
 392 01fe 0240     		ands	r2, r0
 105:Generated_Source\PSoC6\pdl\drivers\peripheral\dma/cy_dma.c ****                     _VAL2FLD(CY_DMA_CTL_DST_INCR, config->dstXincrement) |
 393              		.loc 1 105 0
 394 0200 1A43     		orrs	r2, r3
 108:Generated_Source\PSoC6\pdl\drivers\peripheral\dma/cy_dma.c ****                     
 395              		.loc 1 108 0
 396 0202 E369     		ldr	r3, [r4, #28]
 397 0204 591E     		subs	r1, r3, #1
 398 0206 0906     		lsls	r1, r1, #24
 106:Generated_Source\PSoC6\pdl\drivers\peripheral\dma/cy_dma.c ****     /* Convert the data count from the user's range (1-256) into the machine range (0-255). */
 399              		.loc 1 106 0
 400 0208 0A43     		orrs	r2, r1
 104:Generated_Source\PSoC6\pdl\drivers\peripheral\dma/cy_dma.c ****                     _VAL2FLD(CY_DMA_CTL_SRC_INCR, config->srcXincrement) |
 401              		.loc 1 104 0
 402 020a EA60     		str	r2, [r5, #12]
ARM GAS  C:\Users\cypress\AppData\Local\Temp\ccD9LaTb.s 			page 11


 111:Generated_Source\PSoC6\pdl\drivers\peripheral\dma/cy_dma.c ****                     _VAL2FLD(CY_DMA_CTL_DST_INCR, config->dstYincrement) |
 403              		.loc 1 111 0
 404 020c 236A     		ldr	r3, [r4, #32]
 405 020e 1B05     		lsls	r3, r3, #20
 406 0210 1B0D     		lsrs	r3, r3, #20
 112:Generated_Source\PSoC6\pdl\drivers\peripheral\dma/cy_dma.c ****     /* Convert the data count from the user's range (1-256) into the machine range (0-255). */
 407              		.loc 1 112 0
 408 0212 626A     		ldr	r2, [r4, #36]
 409 0214 1203     		lsls	r2, r2, #12
 410 0216 1040     		ands	r0, r2
 111:Generated_Source\PSoC6\pdl\drivers\peripheral\dma/cy_dma.c ****                     _VAL2FLD(CY_DMA_CTL_DST_INCR, config->dstYincrement) |
 411              		.loc 1 111 0
 412 0218 0343     		orrs	r3, r0
 114:Generated_Source\PSoC6\pdl\drivers\peripheral\dma/cy_dma.c ****                     
 413              		.loc 1 114 0
 414 021a A26A     		ldr	r2, [r4, #40]
 415 021c 013A     		subs	r2, r2, #1
 416 021e 1206     		lsls	r2, r2, #24
 112:Generated_Source\PSoC6\pdl\drivers\peripheral\dma/cy_dma.c ****     /* Convert the data count from the user's range (1-256) into the machine range (0-255). */
 417              		.loc 1 112 0
 418 0220 1343     		orrs	r3, r2
 110:Generated_Source\PSoC6\pdl\drivers\peripheral\dma/cy_dma.c ****                     _VAL2FLD(CY_DMA_CTL_SRC_INCR, config->srcYincrement) |
 419              		.loc 1 110 0
 420 0222 2B61     		str	r3, [r5, #16]
 116:Generated_Source\PSoC6\pdl\drivers\peripheral\dma/cy_dma.c ****                 break;
 421              		.loc 1 116 0
 422 0224 E36A     		ldr	r3, [r4, #44]
 423 0226 6B61     		str	r3, [r5, #20]
 424              		.loc 1 126 0
 425 0228 0020     		movs	r0, #0
 117:Generated_Source\PSoC6\pdl\drivers\peripheral\dma/cy_dma.c ****             }
 426              		.loc 1 117 0
 427 022a 04E0     		b	.L2
 428              	.LVL22:
 429              	.L24:
  44:Generated_Source\PSoC6\pdl\drivers\peripheral\dma/cy_dma.c **** 
 430              		.loc 1 44 0
 431 022c 0548     		ldr	r0, .L28+12
 432              	.LVL23:
 433 022e 02E0     		b	.L2
 434              	.LVL24:
 435              	.L25:
 436 0230 0448     		ldr	r0, .L28+12
 437              	.LVL25:
 438 0232 00E0     		b	.L2
 439              	.LVL26:
 440              	.L27:
 441              		.loc 1 126 0
 442 0234 0020     		movs	r0, #0
 443              	.L2:
 444              	.LVL27:
 127:Generated_Source\PSoC6\pdl\drivers\peripheral\dma/cy_dma.c ****     }
 128:Generated_Source\PSoC6\pdl\drivers\peripheral\dma/cy_dma.c **** 
 129:Generated_Source\PSoC6\pdl\drivers\peripheral\dma/cy_dma.c ****     return retVal;
 130:Generated_Source\PSoC6\pdl\drivers\peripheral\dma/cy_dma.c **** }
 445              		.loc 1 130 0
 446              		@ sp needed
ARM GAS  C:\Users\cypress\AppData\Local\Temp\ccD9LaTb.s 			page 12


 447              	.LVL28:
 448              	.LVL29:
 449 0236 70BD     		pop	{r4, r5, r6, pc}
 450              	.L29:
 451              		.align	2
 452              	.L28:
 453 0238 00000000 		.word	.LC0
 454 023c FF0F0000 		.word	4095
 455 0240 00F0FF00 		.word	16773120
 456 0244 01004E00 		.word	5111809
 457              		.cfi_endproc
 458              	.LFE87:
 459              		.size	Cy_DMA_Descriptor_Init, .-Cy_DMA_Descriptor_Init
 460              		.section	.text.Cy_DMA_Descriptor_DeInit,"ax",%progbits
 461              		.align	2
 462              		.global	Cy_DMA_Descriptor_DeInit
 463              		.code	16
 464              		.thumb_func
 465              		.type	Cy_DMA_Descriptor_DeInit, %function
 466              	Cy_DMA_Descriptor_DeInit:
 467              	.LFB88:
 131:Generated_Source\PSoC6\pdl\drivers\peripheral\dma/cy_dma.c **** 
 132:Generated_Source\PSoC6\pdl\drivers\peripheral\dma/cy_dma.c **** 
 133:Generated_Source\PSoC6\pdl\drivers\peripheral\dma/cy_dma.c **** /*******************************************************************************
 134:Generated_Source\PSoC6\pdl\drivers\peripheral\dma/cy_dma.c **** * Function Name: Cy_DMA_Descriptor_DeInit
 135:Generated_Source\PSoC6\pdl\drivers\peripheral\dma/cy_dma.c **** ****************************************************************************//**
 136:Generated_Source\PSoC6\pdl\drivers\peripheral\dma/cy_dma.c **** *
 137:Generated_Source\PSoC6\pdl\drivers\peripheral\dma/cy_dma.c **** * Clears the content of the specified descriptor.
 138:Generated_Source\PSoC6\pdl\drivers\peripheral\dma/cy_dma.c **** *
 139:Generated_Source\PSoC6\pdl\drivers\peripheral\dma/cy_dma.c **** * \param descriptor
 140:Generated_Source\PSoC6\pdl\drivers\peripheral\dma/cy_dma.c **** * The descriptor structure instance declared by the user/component.
 141:Generated_Source\PSoC6\pdl\drivers\peripheral\dma/cy_dma.c **** *
 142:Generated_Source\PSoC6\pdl\drivers\peripheral\dma/cy_dma.c **** *******************************************************************************/
 143:Generated_Source\PSoC6\pdl\drivers\peripheral\dma/cy_dma.c **** void Cy_DMA_Descriptor_DeInit(cy_stc_dma_descriptor_t * descriptor)
 144:Generated_Source\PSoC6\pdl\drivers\peripheral\dma/cy_dma.c **** {
 468              		.loc 1 144 0
 469              		.cfi_startproc
 470              		@ args = 0, pretend = 0, frame = 0
 471              		@ frame_needed = 0, uses_anonymous_args = 0
 472              		@ link register save eliminated.
 473              	.LVL30:
 145:Generated_Source\PSoC6\pdl\drivers\peripheral\dma/cy_dma.c ****     descriptor->ctl = 0UL;
 474              		.loc 1 145 0
 475 0000 0023     		movs	r3, #0
 476 0002 0360     		str	r3, [r0]
 146:Generated_Source\PSoC6\pdl\drivers\peripheral\dma/cy_dma.c ****     descriptor->src = 0UL;
 477              		.loc 1 146 0
 478 0004 4360     		str	r3, [r0, #4]
 147:Generated_Source\PSoC6\pdl\drivers\peripheral\dma/cy_dma.c ****     descriptor->dst = 0UL;
 479              		.loc 1 147 0
 480 0006 8360     		str	r3, [r0, #8]
 148:Generated_Source\PSoC6\pdl\drivers\peripheral\dma/cy_dma.c ****     descriptor->xCtl = 0UL;
 481              		.loc 1 148 0
 482 0008 C360     		str	r3, [r0, #12]
 149:Generated_Source\PSoC6\pdl\drivers\peripheral\dma/cy_dma.c ****     descriptor->yCtl = 0UL;
 483              		.loc 1 149 0
 484 000a 0361     		str	r3, [r0, #16]
ARM GAS  C:\Users\cypress\AppData\Local\Temp\ccD9LaTb.s 			page 13


 150:Generated_Source\PSoC6\pdl\drivers\peripheral\dma/cy_dma.c ****     descriptor->nextPtr = 0UL;
 485              		.loc 1 150 0
 486 000c 4361     		str	r3, [r0, #20]
 151:Generated_Source\PSoC6\pdl\drivers\peripheral\dma/cy_dma.c **** }
 487              		.loc 1 151 0
 488              		@ sp needed
 489 000e 7047     		bx	lr
 490              		.cfi_endproc
 491              	.LFE88:
 492              		.size	Cy_DMA_Descriptor_DeInit, .-Cy_DMA_Descriptor_DeInit
 493              		.section	.text.Cy_DMA_Channel_Init,"ax",%progbits
 494              		.align	2
 495              		.global	Cy_DMA_Channel_Init
 496              		.code	16
 497              		.thumb_func
 498              		.type	Cy_DMA_Channel_Init, %function
 499              	Cy_DMA_Channel_Init:
 500              	.LFB89:
 152:Generated_Source\PSoC6\pdl\drivers\peripheral\dma/cy_dma.c **** 
 153:Generated_Source\PSoC6\pdl\drivers\peripheral\dma/cy_dma.c **** 
 154:Generated_Source\PSoC6\pdl\drivers\peripheral\dma/cy_dma.c **** /*******************************************************************************
 155:Generated_Source\PSoC6\pdl\drivers\peripheral\dma/cy_dma.c **** * Function Name: Cy_DMA_Channel_Init
 156:Generated_Source\PSoC6\pdl\drivers\peripheral\dma/cy_dma.c **** ****************************************************************************//**
 157:Generated_Source\PSoC6\pdl\drivers\peripheral\dma/cy_dma.c **** *
 158:Generated_Source\PSoC6\pdl\drivers\peripheral\dma/cy_dma.c **** * Initializes the DMA channel with a descriptor and other parameters.
 159:Generated_Source\PSoC6\pdl\drivers\peripheral\dma/cy_dma.c **** *
 160:Generated_Source\PSoC6\pdl\drivers\peripheral\dma/cy_dma.c **** * \param base
 161:Generated_Source\PSoC6\pdl\drivers\peripheral\dma/cy_dma.c **** * The pointer to the hardware DMA block.
 162:Generated_Source\PSoC6\pdl\drivers\peripheral\dma/cy_dma.c **** *
 163:Generated_Source\PSoC6\pdl\drivers\peripheral\dma/cy_dma.c **** * \param channel
 164:Generated_Source\PSoC6\pdl\drivers\peripheral\dma/cy_dma.c **** * A channel number.
 165:Generated_Source\PSoC6\pdl\drivers\peripheral\dma/cy_dma.c **** *
 166:Generated_Source\PSoC6\pdl\drivers\peripheral\dma/cy_dma.c **** * \param channelConfig
 167:Generated_Source\PSoC6\pdl\drivers\peripheral\dma/cy_dma.c **** * The structure that has the initialization information for the
 168:Generated_Source\PSoC6\pdl\drivers\peripheral\dma/cy_dma.c **** * channel.
 169:Generated_Source\PSoC6\pdl\drivers\peripheral\dma/cy_dma.c **** *
 170:Generated_Source\PSoC6\pdl\drivers\peripheral\dma/cy_dma.c **** * \return
 171:Generated_Source\PSoC6\pdl\drivers\peripheral\dma/cy_dma.c **** * The status /ref cy_en_dma_status_t.
 172:Generated_Source\PSoC6\pdl\drivers\peripheral\dma/cy_dma.c **** *
 173:Generated_Source\PSoC6\pdl\drivers\peripheral\dma/cy_dma.c **** *******************************************************************************/
 174:Generated_Source\PSoC6\pdl\drivers\peripheral\dma/cy_dma.c **** cy_en_dma_status_t Cy_DMA_Channel_Init(DW_Type * base, uint32_t channel, cy_stc_dma_channel_config_
 175:Generated_Source\PSoC6\pdl\drivers\peripheral\dma/cy_dma.c **** {
 501              		.loc 1 175 0
 502              		.cfi_startproc
 503              		@ args = 0, pretend = 0, frame = 0
 504              		@ frame_needed = 0, uses_anonymous_args = 0
 505              	.LVL31:
 506 0000 70B5     		push	{r4, r5, r6, lr}
 507              		.cfi_def_cfa_offset 16
 508              		.cfi_offset 4, -16
 509              		.cfi_offset 5, -12
 510              		.cfi_offset 6, -8
 511              		.cfi_offset 14, -4
 512 0002 0400     		movs	r4, r0
 513 0004 0D00     		movs	r5, r1
 514 0006 1600     		movs	r6, r2
 515              	.LVL32:
ARM GAS  C:\Users\cypress\AppData\Local\Temp\ccD9LaTb.s 			page 14


 176:Generated_Source\PSoC6\pdl\drivers\peripheral\dma/cy_dma.c ****     cy_en_dma_status_t retVal = CY_DMA_BAD_PARAM;
 177:Generated_Source\PSoC6\pdl\drivers\peripheral\dma/cy_dma.c **** 
 178:Generated_Source\PSoC6\pdl\drivers\peripheral\dma/cy_dma.c ****     if (((CY_DMA_IS_DW_CH_NR_VALID(base, channel)) && (NULL != channelConfig) && (NULL != channelCo
 516              		.loc 1 178 0
 517 0008 214B     		ldr	r3, .L45
 518 000a 9842     		cmp	r0, r3
 519 000c 02D0     		beq	.L32
 520              		.loc 1 178 0 is_stmt 0 discriminator 2
 521 000e 214B     		ldr	r3, .L45+4
 522 0010 9842     		cmp	r0, r3
 523 0012 35D1     		bne	.L38
 524              	.L32:
 525              		.loc 1 178 0 discriminator 3
 526 0014 0F2D     		cmp	r5, #15
 527 0016 35D8     		bhi	.L39
 528              		.loc 1 178 0 discriminator 4
 529 0018 002E     		cmp	r6, #0
 530 001a 35D0     		beq	.L40
 531              		.loc 1 178 0 discriminator 5
 532 001c 3368     		ldr	r3, [r6]
 533 001e 002B     		cmp	r3, #0
 534 0020 34D0     		beq	.L41
 179:Generated_Source\PSoC6\pdl\drivers\peripheral\dma/cy_dma.c ****     {
 180:Generated_Source\PSoC6\pdl\drivers\peripheral\dma/cy_dma.c ****         CY_ASSERT_L2(CY_DMA_IS_PRIORITY_VALID(channelConfig->priority));
 535              		.loc 1 180 0 is_stmt 1
 536 0022 B368     		ldr	r3, [r6, #8]
 537 0024 032B     		cmp	r3, #3
 538 0026 03D9     		bls	.L34
 539              		.loc 1 180 0 is_stmt 0 discriminator 1
 540 0028 B421     		movs	r1, #180
 541              	.LVL33:
 542 002a 1B48     		ldr	r0, .L45+8
 543              	.LVL34:
 544 002c FFF7FEFF 		bl	Cy_SysLib_AssertFailed
 545              	.LVL35:
 546              	.L34:
 181:Generated_Source\PSoC6\pdl\drivers\peripheral\dma/cy_dma.c ****         
 182:Generated_Source\PSoC6\pdl\drivers\peripheral\dma/cy_dma.c ****         /* Set the current descriptor */
 183:Generated_Source\PSoC6\pdl\drivers\peripheral\dma/cy_dma.c ****         base->CH_STRUCT[channel].CH_CURR_PTR = (uint32_t)channelConfig->descriptor;
 547              		.loc 1 183 0 is_stmt 1
 548 0030 6B01     		lsls	r3, r5, #5
 549 0032 E318     		adds	r3, r4, r3
 550 0034 194A     		ldr	r2, .L45+12
 551 0036 9446     		mov	ip, r2
 552 0038 6344     		add	r3, r3, ip
 553 003a 3268     		ldr	r2, [r6]
 554 003c 1A60     		str	r2, [r3]
 184:Generated_Source\PSoC6\pdl\drivers\peripheral\dma/cy_dma.c **** 
 185:Generated_Source\PSoC6\pdl\drivers\peripheral\dma/cy_dma.c ****         /* Set the channel configuration */
 186:Generated_Source\PSoC6\pdl\drivers\peripheral\dma/cy_dma.c ****         base->CH_STRUCT[channel].CH_CTL = _BOOL2FLD(DW_CH_STRUCT_CH_CTL_PREEMPTABLE, channelConfig-
 555              		.loc 1 186 0
 556 003e 3379     		ldrb	r3, [r6, #4]
 557 0040 002B     		cmp	r3, #0
 558 0042 02D0     		beq	.L42
 559 0044 8021     		movs	r1, #128
 560 0046 C902     		lsls	r1, r1, #11
 561 0048 00E0     		b	.L35
ARM GAS  C:\Users\cypress\AppData\Local\Temp\ccD9LaTb.s 			page 15


 562              	.L42:
 563 004a 0021     		movs	r1, #0
 564              	.L35:
 187:Generated_Source\PSoC6\pdl\drivers\peripheral\dma/cy_dma.c ****                                            _VAL2FLD(DW_CH_STRUCT_CH_CTL_PRIO,        channelConfig-
 565              		.loc 1 187 0
 566 004c B368     		ldr	r3, [r6, #8]
 567 004e 1B04     		lsls	r3, r3, #16
 568 0050 C022     		movs	r2, #192
 569 0052 9202     		lsls	r2, r2, #10
 570 0054 1340     		ands	r3, r2
 186:Generated_Source\PSoC6\pdl\drivers\peripheral\dma/cy_dma.c ****                                            _VAL2FLD(DW_CH_STRUCT_CH_CTL_PRIO,        channelConfig-
 571              		.loc 1 186 0
 572 0056 0B43     		orrs	r3, r1
 188:Generated_Source\PSoC6\pdl\drivers\peripheral\dma/cy_dma.c ****                                           _BOOL2FLD(DW_CH_STRUCT_CH_CTL_ENABLED,     channelConfig-
 573              		.loc 1 188 0
 574 0058 327B     		ldrb	r2, [r6, #12]
 575 005a 002A     		cmp	r2, #0
 576 005c 02D0     		beq	.L43
 577 005e 8022     		movs	r2, #128
 578 0060 1206     		lsls	r2, r2, #24
 579 0062 00E0     		b	.L36
 580              	.L43:
 581 0064 0022     		movs	r2, #0
 582              	.L36:
 187:Generated_Source\PSoC6\pdl\drivers\peripheral\dma/cy_dma.c ****                                            _VAL2FLD(DW_CH_STRUCT_CH_CTL_PRIO,        channelConfig-
 583              		.loc 1 187 0
 584 0066 1343     		orrs	r3, r2
 189:Generated_Source\PSoC6\pdl\drivers\peripheral\dma/cy_dma.c ****                                           _BOOL2FLD(DW_CH_STRUCT_CH_CTL_B,           channelConfig-
 585              		.loc 1 189 0
 586 0068 727B     		ldrb	r2, [r6, #13]
 587 006a 002A     		cmp	r2, #0
 588 006c 01D0     		beq	.L44
 589 006e 0422     		movs	r2, #4
 590 0070 00E0     		b	.L37
 591              	.L44:
 592 0072 0022     		movs	r2, #0
 593              	.L37:
 188:Generated_Source\PSoC6\pdl\drivers\peripheral\dma/cy_dma.c ****                                           _BOOL2FLD(DW_CH_STRUCT_CH_CTL_ENABLED,     channelConfig-
 594              		.loc 1 188 0
 595 0074 1343     		orrs	r3, r2
 186:Generated_Source\PSoC6\pdl\drivers\peripheral\dma/cy_dma.c ****                                            _VAL2FLD(DW_CH_STRUCT_CH_CTL_PRIO,        channelConfig-
 596              		.loc 1 186 0
 597 0076 4035     		adds	r5, r5, #64
 598              	.LVL36:
 599 0078 6D01     		lsls	r5, r5, #5
 600              	.LVL37:
 601 007a 2B51     		str	r3, [r5, r4]
 602              	.LVL38:
 190:Generated_Source\PSoC6\pdl\drivers\peripheral\dma/cy_dma.c ****         retVal = CY_DMA_SUCCESS;
 603              		.loc 1 190 0
 604 007c 0020     		movs	r0, #0
 605 007e 06E0     		b	.L33
 606              	.LVL39:
 607              	.L38:
 176:Generated_Source\PSoC6\pdl\drivers\peripheral\dma/cy_dma.c **** 
 608              		.loc 1 176 0
 609 0080 0748     		ldr	r0, .L45+16
ARM GAS  C:\Users\cypress\AppData\Local\Temp\ccD9LaTb.s 			page 16


 610              	.LVL40:
 611 0082 04E0     		b	.L33
 612              	.LVL41:
 613              	.L39:
 614 0084 0648     		ldr	r0, .L45+16
 615              	.LVL42:
 616 0086 02E0     		b	.L33
 617              	.LVL43:
 618              	.L40:
 619 0088 0548     		ldr	r0, .L45+16
 620              	.LVL44:
 621 008a 00E0     		b	.L33
 622              	.LVL45:
 623              	.L41:
 624 008c 0448     		ldr	r0, .L45+16
 625              	.LVL46:
 626              	.L33:
 191:Generated_Source\PSoC6\pdl\drivers\peripheral\dma/cy_dma.c ****     }
 192:Generated_Source\PSoC6\pdl\drivers\peripheral\dma/cy_dma.c **** 
 193:Generated_Source\PSoC6\pdl\drivers\peripheral\dma/cy_dma.c ****     return (retVal);
 194:Generated_Source\PSoC6\pdl\drivers\peripheral\dma/cy_dma.c **** }
 627              		.loc 1 194 0
 628              		@ sp needed
 629              	.LVL47:
 630              	.LVL48:
 631 008e 70BD     		pop	{r4, r5, r6, pc}
 632              	.L46:
 633              		.align	2
 634              	.L45:
 635 0090 00002840 		.word	1076363264
 636 0094 00102840 		.word	1076367360
 637 0098 00000000 		.word	.LC0
 638 009c 0C080000 		.word	2060
 639 00a0 01004E00 		.word	5111809
 640              		.cfi_endproc
 641              	.LFE89:
 642              		.size	Cy_DMA_Channel_Init, .-Cy_DMA_Channel_Init
 643              		.section	.text.Cy_DMA_Channel_DeInit,"ax",%progbits
 644              		.align	2
 645              		.global	Cy_DMA_Channel_DeInit
 646              		.code	16
 647              		.thumb_func
 648              		.type	Cy_DMA_Channel_DeInit, %function
 649              	Cy_DMA_Channel_DeInit:
 650              	.LFB90:
 195:Generated_Source\PSoC6\pdl\drivers\peripheral\dma/cy_dma.c **** 
 196:Generated_Source\PSoC6\pdl\drivers\peripheral\dma/cy_dma.c **** 
 197:Generated_Source\PSoC6\pdl\drivers\peripheral\dma/cy_dma.c **** /*******************************************************************************
 198:Generated_Source\PSoC6\pdl\drivers\peripheral\dma/cy_dma.c **** * Function Name: Cy_DMA_Channel_DeInit
 199:Generated_Source\PSoC6\pdl\drivers\peripheral\dma/cy_dma.c **** ****************************************************************************//**
 200:Generated_Source\PSoC6\pdl\drivers\peripheral\dma/cy_dma.c **** *
 201:Generated_Source\PSoC6\pdl\drivers\peripheral\dma/cy_dma.c **** * Clears the content of registers corresponding to the channel.
 202:Generated_Source\PSoC6\pdl\drivers\peripheral\dma/cy_dma.c **** *
 203:Generated_Source\PSoC6\pdl\drivers\peripheral\dma/cy_dma.c **** * \param base
 204:Generated_Source\PSoC6\pdl\drivers\peripheral\dma/cy_dma.c **** * The pointer to the hardware DMA block.
 205:Generated_Source\PSoC6\pdl\drivers\peripheral\dma/cy_dma.c **** *
 206:Generated_Source\PSoC6\pdl\drivers\peripheral\dma/cy_dma.c **** * \param channel
ARM GAS  C:\Users\cypress\AppData\Local\Temp\ccD9LaTb.s 			page 17


 207:Generated_Source\PSoC6\pdl\drivers\peripheral\dma/cy_dma.c **** * A channel number.
 208:Generated_Source\PSoC6\pdl\drivers\peripheral\dma/cy_dma.c **** *
 209:Generated_Source\PSoC6\pdl\drivers\peripheral\dma/cy_dma.c **** *******************************************************************************/
 210:Generated_Source\PSoC6\pdl\drivers\peripheral\dma/cy_dma.c **** void Cy_DMA_Channel_DeInit(DW_Type * base, uint32_t channel)
 211:Generated_Source\PSoC6\pdl\drivers\peripheral\dma/cy_dma.c **** {
 651              		.loc 1 211 0
 652              		.cfi_startproc
 653              		@ args = 0, pretend = 0, frame = 0
 654              		@ frame_needed = 0, uses_anonymous_args = 0
 655              	.LVL49:
 656 0000 70B5     		push	{r4, r5, r6, lr}
 657              		.cfi_def_cfa_offset 16
 658              		.cfi_offset 4, -16
 659              		.cfi_offset 5, -12
 660              		.cfi_offset 6, -8
 661              		.cfi_offset 14, -4
 662 0002 0500     		movs	r5, r0
 663 0004 0C00     		movs	r4, r1
 212:Generated_Source\PSoC6\pdl\drivers\peripheral\dma/cy_dma.c ****     CY_ASSERT_L1(CY_DMA_IS_DW_CH_NR_VALID(base, channel));
 664              		.loc 1 212 0
 665 0006 0F4B     		ldr	r3, .L51
 666 0008 9842     		cmp	r0, r3
 667 000a 02D0     		beq	.L48
 668              		.loc 1 212 0 is_stmt 0 discriminator 1
 669 000c 0E4B     		ldr	r3, .L51+4
 670 000e 9842     		cmp	r0, r3
 671 0010 01D1     		bne	.L49
 672              	.L48:
 673              		.loc 1 212 0 discriminator 4
 674 0012 0F2C     		cmp	r4, #15
 675 0014 03D9     		bls	.L50
 676              	.L49:
 677              		.loc 1 212 0 discriminator 5
 678 0016 D421     		movs	r1, #212
 679              	.LVL50:
 680 0018 0C48     		ldr	r0, .L51+8
 681              	.LVL51:
 682 001a FFF7FEFF 		bl	Cy_SysLib_AssertFailed
 683              	.LVL52:
 684              	.L50:
 213:Generated_Source\PSoC6\pdl\drivers\peripheral\dma/cy_dma.c ****     
 214:Generated_Source\PSoC6\pdl\drivers\peripheral\dma/cy_dma.c ****     base->CH_STRUCT[channel].CH_CTL = 0UL;
 685              		.loc 1 214 0 is_stmt 1
 686 001e 2200     		movs	r2, r4
 687 0020 4032     		adds	r2, r2, #64
 688 0022 5201     		lsls	r2, r2, #5
 689 0024 0023     		movs	r3, #0
 690 0026 5351     		str	r3, [r2, r5]
 215:Generated_Source\PSoC6\pdl\drivers\peripheral\dma/cy_dma.c ****     base->CH_STRUCT[channel].CH_IDX = 0UL;
 691              		.loc 1 215 0
 692 0028 6001     		lsls	r0, r4, #5
 693 002a 2818     		adds	r0, r5, r0
 694 002c 084A     		ldr	r2, .L51+12
 695 002e 8218     		adds	r2, r0, r2
 696 0030 1360     		str	r3, [r2]
 216:Generated_Source\PSoC6\pdl\drivers\peripheral\dma/cy_dma.c ****     base->CH_STRUCT[channel].CH_CURR_PTR = 0UL;
 697              		.loc 1 216 0
ARM GAS  C:\Users\cypress\AppData\Local\Temp\ccD9LaTb.s 			page 18


 698 0032 084A     		ldr	r2, .L51+16
 699 0034 8218     		adds	r2, r0, r2
 700 0036 1360     		str	r3, [r2]
 217:Generated_Source\PSoC6\pdl\drivers\peripheral\dma/cy_dma.c ****     base->CH_STRUCT[channel].INTR_MASK = 0UL;
 701              		.loc 1 217 0
 702 0038 074A     		ldr	r2, .L51+20
 703 003a 9446     		mov	ip, r2
 704 003c 6044     		add	r0, r0, ip
 705 003e 0360     		str	r3, [r0]
 218:Generated_Source\PSoC6\pdl\drivers\peripheral\dma/cy_dma.c **** }
 706              		.loc 1 218 0
 707              		@ sp needed
 708              	.LVL53:
 709              	.LVL54:
 710 0040 70BD     		pop	{r4, r5, r6, pc}
 711              	.L52:
 712 0042 C046     		.align	2
 713              	.L51:
 714 0044 00002840 		.word	1076363264
 715 0048 00102840 		.word	1076367360
 716 004c 00000000 		.word	.LC0
 717 0050 08080000 		.word	2056
 718 0054 0C080000 		.word	2060
 719 0058 18080000 		.word	2072
 720              		.cfi_endproc
 721              	.LFE90:
 722              		.size	Cy_DMA_Channel_DeInit, .-Cy_DMA_Channel_DeInit
 723              		.section	.text.Cy_DMA_Descriptor_SetNextDescriptor,"ax",%progbits
 724              		.align	2
 725              		.global	Cy_DMA_Descriptor_SetNextDescriptor
 726              		.code	16
 727              		.thumb_func
 728              		.type	Cy_DMA_Descriptor_SetNextDescriptor, %function
 729              	Cy_DMA_Descriptor_SetNextDescriptor:
 730              	.LFB91:
 219:Generated_Source\PSoC6\pdl\drivers\peripheral\dma/cy_dma.c **** 
 220:Generated_Source\PSoC6\pdl\drivers\peripheral\dma/cy_dma.c **** 
 221:Generated_Source\PSoC6\pdl\drivers\peripheral\dma/cy_dma.c **** /*******************************************************************************
 222:Generated_Source\PSoC6\pdl\drivers\peripheral\dma/cy_dma.c **** * Function Name: Cy_DMA_Descriptor_SetNextDescriptor
 223:Generated_Source\PSoC6\pdl\drivers\peripheral\dma/cy_dma.c **** ****************************************************************************//**
 224:Generated_Source\PSoC6\pdl\drivers\peripheral\dma/cy_dma.c **** *
 225:Generated_Source\PSoC6\pdl\drivers\peripheral\dma/cy_dma.c **** * Sets a Next Descriptor parameter for the specified descriptor.
 226:Generated_Source\PSoC6\pdl\drivers\peripheral\dma/cy_dma.c **** *
 227:Generated_Source\PSoC6\pdl\drivers\peripheral\dma/cy_dma.c **** * Based on the descriptor type, the offset of the address for the next descriptor may
 228:Generated_Source\PSoC6\pdl\drivers\peripheral\dma/cy_dma.c **** * vary. For the single-transfer descriptor type, this register is at offset 0x0c.
 229:Generated_Source\PSoC6\pdl\drivers\peripheral\dma/cy_dma.c **** * For the 1D-transfer descriptor type, this register is at offset 0x10. 
 230:Generated_Source\PSoC6\pdl\drivers\peripheral\dma/cy_dma.c **** * For the 2D-transfer descriptor type, this register is at offset 0x14.  
 231:Generated_Source\PSoC6\pdl\drivers\peripheral\dma/cy_dma.c **** *
 232:Generated_Source\PSoC6\pdl\drivers\peripheral\dma/cy_dma.c **** * \param descriptor
 233:Generated_Source\PSoC6\pdl\drivers\peripheral\dma/cy_dma.c **** * The descriptor structure instance declared by the user/component.
 234:Generated_Source\PSoC6\pdl\drivers\peripheral\dma/cy_dma.c **** *
 235:Generated_Source\PSoC6\pdl\drivers\peripheral\dma/cy_dma.c **** * \param nextDescriptor
 236:Generated_Source\PSoC6\pdl\drivers\peripheral\dma/cy_dma.c **** * The pointer to the next descriptor.
 237:Generated_Source\PSoC6\pdl\drivers\peripheral\dma/cy_dma.c **** *
 238:Generated_Source\PSoC6\pdl\drivers\peripheral\dma/cy_dma.c **** *******************************************************************************/
 239:Generated_Source\PSoC6\pdl\drivers\peripheral\dma/cy_dma.c **** void Cy_DMA_Descriptor_SetNextDescriptor(cy_stc_dma_descriptor_t * descriptor, cy_stc_dma_descripto
 240:Generated_Source\PSoC6\pdl\drivers\peripheral\dma/cy_dma.c **** {
ARM GAS  C:\Users\cypress\AppData\Local\Temp\ccD9LaTb.s 			page 19


 731              		.loc 1 240 0
 732              		.cfi_startproc
 733              		@ args = 0, pretend = 0, frame = 0
 734              		@ frame_needed = 0, uses_anonymous_args = 0
 735              	.LVL55:
 736 0000 70B5     		push	{r4, r5, r6, lr}
 737              		.cfi_def_cfa_offset 16
 738              		.cfi_offset 4, -16
 739              		.cfi_offset 5, -12
 740              		.cfi_offset 6, -8
 741              		.cfi_offset 14, -4
 742 0002 0400     		movs	r4, r0
 743 0004 0D00     		movs	r5, r1
 241:Generated_Source\PSoC6\pdl\drivers\peripheral\dma/cy_dma.c ****     CY_ASSERT_L1(NULL != descriptor);
 744              		.loc 1 241 0
 745 0006 0028     		cmp	r0, #0
 746 0008 03D1     		bne	.L54
 747              		.loc 1 241 0 is_stmt 0 discriminator 1
 748 000a F121     		movs	r1, #241
 749              	.LVL56:
 750 000c 0848     		ldr	r0, .L59
 751              	.LVL57:
 752 000e FFF7FEFF 		bl	Cy_SysLib_AssertFailed
 753              	.LVL58:
 754              	.L54:
 242:Generated_Source\PSoC6\pdl\drivers\peripheral\dma/cy_dma.c ****     
 243:Generated_Source\PSoC6\pdl\drivers\peripheral\dma/cy_dma.c ****     switch((cy_en_dma_descriptor_type_t) _FLD2VAL(CY_DMA_CTL_TYPE, descriptor->ctl))
 755              		.loc 1 243 0 is_stmt 1
 756 0012 2368     		ldr	r3, [r4]
 757 0014 9B0F     		lsrs	r3, r3, #30
 758 0016 012B     		cmp	r3, #1
 759 0018 06D0     		beq	.L56
 760 001a 002B     		cmp	r3, #0
 761 001c 02D0     		beq	.L57
 762 001e 022B     		cmp	r3, #2
 763 0020 04D0     		beq	.L58
 764 0022 04E0     		b	.L53
 765              	.L57:
 244:Generated_Source\PSoC6\pdl\drivers\peripheral\dma/cy_dma.c ****     {
 245:Generated_Source\PSoC6\pdl\drivers\peripheral\dma/cy_dma.c ****         case CY_DMA_SINGLE_TRANSFER:
 246:Generated_Source\PSoC6\pdl\drivers\peripheral\dma/cy_dma.c ****             descriptor->xCtl = (uint32_t)nextDescriptor;
 766              		.loc 1 246 0
 767 0024 E560     		str	r5, [r4, #12]
 247:Generated_Source\PSoC6\pdl\drivers\peripheral\dma/cy_dma.c ****             break;
 768              		.loc 1 247 0
 769 0026 02E0     		b	.L53
 770              	.L56:
 248:Generated_Source\PSoC6\pdl\drivers\peripheral\dma/cy_dma.c ****             
 249:Generated_Source\PSoC6\pdl\drivers\peripheral\dma/cy_dma.c ****         case CY_DMA_1D_TRANSFER:
 250:Generated_Source\PSoC6\pdl\drivers\peripheral\dma/cy_dma.c ****             descriptor->yCtl = (uint32_t)nextDescriptor;
 771              		.loc 1 250 0
 772 0028 2561     		str	r5, [r4, #16]
 251:Generated_Source\PSoC6\pdl\drivers\peripheral\dma/cy_dma.c ****             break;
 773              		.loc 1 251 0
 774 002a 00E0     		b	.L53
 775              	.L58:
 252:Generated_Source\PSoC6\pdl\drivers\peripheral\dma/cy_dma.c ****             
ARM GAS  C:\Users\cypress\AppData\Local\Temp\ccD9LaTb.s 			page 20


 253:Generated_Source\PSoC6\pdl\drivers\peripheral\dma/cy_dma.c ****         case CY_DMA_2D_TRANSFER:
 254:Generated_Source\PSoC6\pdl\drivers\peripheral\dma/cy_dma.c ****             descriptor->nextPtr = (uint32_t)nextDescriptor;
 776              		.loc 1 254 0
 777 002c 6561     		str	r5, [r4, #20]
 778              	.L53:
 255:Generated_Source\PSoC6\pdl\drivers\peripheral\dma/cy_dma.c ****             break;
 256:Generated_Source\PSoC6\pdl\drivers\peripheral\dma/cy_dma.c ****             
 257:Generated_Source\PSoC6\pdl\drivers\peripheral\dma/cy_dma.c ****         default:
 258:Generated_Source\PSoC6\pdl\drivers\peripheral\dma/cy_dma.c ****             /* Unsupported type of descriptor */
 259:Generated_Source\PSoC6\pdl\drivers\peripheral\dma/cy_dma.c ****             break;
 260:Generated_Source\PSoC6\pdl\drivers\peripheral\dma/cy_dma.c ****     }
 261:Generated_Source\PSoC6\pdl\drivers\peripheral\dma/cy_dma.c **** }
 779              		.loc 1 261 0
 780              		@ sp needed
 781              	.LVL59:
 782              	.LVL60:
 783 002e 70BD     		pop	{r4, r5, r6, pc}
 784              	.L60:
 785              		.align	2
 786              	.L59:
 787 0030 00000000 		.word	.LC0
 788              		.cfi_endproc
 789              	.LFE91:
 790              		.size	Cy_DMA_Descriptor_SetNextDescriptor, .-Cy_DMA_Descriptor_SetNextDescriptor
 791              		.section	.text.Cy_DMA_Descriptor_GetNextDescriptor,"ax",%progbits
 792              		.align	2
 793              		.global	Cy_DMA_Descriptor_GetNextDescriptor
 794              		.code	16
 795              		.thumb_func
 796              		.type	Cy_DMA_Descriptor_GetNextDescriptor, %function
 797              	Cy_DMA_Descriptor_GetNextDescriptor:
 798              	.LFB92:
 262:Generated_Source\PSoC6\pdl\drivers\peripheral\dma/cy_dma.c **** 
 263:Generated_Source\PSoC6\pdl\drivers\peripheral\dma/cy_dma.c **** 
 264:Generated_Source\PSoC6\pdl\drivers\peripheral\dma/cy_dma.c **** /*******************************************************************************
 265:Generated_Source\PSoC6\pdl\drivers\peripheral\dma/cy_dma.c **** * Function Name: Cy_DMA_Descriptor_GetNextDescriptor
 266:Generated_Source\PSoC6\pdl\drivers\peripheral\dma/cy_dma.c **** ****************************************************************************//**
 267:Generated_Source\PSoC6\pdl\drivers\peripheral\dma/cy_dma.c **** *
 268:Generated_Source\PSoC6\pdl\drivers\peripheral\dma/cy_dma.c **** * Returns a next descriptor address of the specified descriptor.
 269:Generated_Source\PSoC6\pdl\drivers\peripheral\dma/cy_dma.c **** *
 270:Generated_Source\PSoC6\pdl\drivers\peripheral\dma/cy_dma.c **** * Based on the descriptor type, the offset of the address for the next descriptor may
 271:Generated_Source\PSoC6\pdl\drivers\peripheral\dma/cy_dma.c **** * vary. For a single-transfer descriptor type, this register is at offset 0x0c.
 272:Generated_Source\PSoC6\pdl\drivers\peripheral\dma/cy_dma.c **** * For the 1D-transfer descriptor type, this register is at offset 0x10. 
 273:Generated_Source\PSoC6\pdl\drivers\peripheral\dma/cy_dma.c **** * For the 2D-transfer descriptor type, this register is at offset 0x14.  
 274:Generated_Source\PSoC6\pdl\drivers\peripheral\dma/cy_dma.c **** *
 275:Generated_Source\PSoC6\pdl\drivers\peripheral\dma/cy_dma.c **** * \param descriptor
 276:Generated_Source\PSoC6\pdl\drivers\peripheral\dma/cy_dma.c **** * The descriptor structure instance declared by the user/component.
 277:Generated_Source\PSoC6\pdl\drivers\peripheral\dma/cy_dma.c **** *
 278:Generated_Source\PSoC6\pdl\drivers\peripheral\dma/cy_dma.c **** * \return
 279:Generated_Source\PSoC6\pdl\drivers\peripheral\dma/cy_dma.c **** * The pointer to the next descriptor.
 280:Generated_Source\PSoC6\pdl\drivers\peripheral\dma/cy_dma.c **** *
 281:Generated_Source\PSoC6\pdl\drivers\peripheral\dma/cy_dma.c **** *******************************************************************************/
 282:Generated_Source\PSoC6\pdl\drivers\peripheral\dma/cy_dma.c **** cy_stc_dma_descriptor_t * Cy_DMA_Descriptor_GetNextDescriptor(cy_stc_dma_descriptor_t const * descr
 283:Generated_Source\PSoC6\pdl\drivers\peripheral\dma/cy_dma.c **** {
 799              		.loc 1 283 0
 800              		.cfi_startproc
 801              		@ args = 0, pretend = 0, frame = 0
ARM GAS  C:\Users\cypress\AppData\Local\Temp\ccD9LaTb.s 			page 21


 802              		@ frame_needed = 0, uses_anonymous_args = 0
 803              	.LVL61:
 804 0000 10B5     		push	{r4, lr}
 805              		.cfi_def_cfa_offset 8
 806              		.cfi_offset 4, -8
 807              		.cfi_offset 14, -4
 808 0002 041E     		subs	r4, r0, #0
 809              	.LVL62:
 284:Generated_Source\PSoC6\pdl\drivers\peripheral\dma/cy_dma.c ****     cy_stc_dma_descriptor_t * retVal = NULL;
 285:Generated_Source\PSoC6\pdl\drivers\peripheral\dma/cy_dma.c ****     
 286:Generated_Source\PSoC6\pdl\drivers\peripheral\dma/cy_dma.c ****     CY_ASSERT_L1(NULL != descriptor);
 810              		.loc 1 286 0
 811 0004 04D1     		bne	.L62
 812              		.loc 1 286 0 is_stmt 0 discriminator 1
 813 0006 8F21     		movs	r1, #143
 814 0008 4900     		lsls	r1, r1, #1
 815 000a 0A48     		ldr	r0, .L69
 816              	.LVL63:
 817 000c FFF7FEFF 		bl	Cy_SysLib_AssertFailed
 818              	.LVL64:
 819              	.L62:
 287:Generated_Source\PSoC6\pdl\drivers\peripheral\dma/cy_dma.c ****     
 288:Generated_Source\PSoC6\pdl\drivers\peripheral\dma/cy_dma.c ****     switch((cy_en_dma_descriptor_type_t) _FLD2VAL(CY_DMA_CTL_TYPE, descriptor->ctl))
 820              		.loc 1 288 0 is_stmt 1
 821 0010 2368     		ldr	r3, [r4]
 822 0012 9B0F     		lsrs	r3, r3, #30
 823 0014 012B     		cmp	r3, #1
 824 0016 06D0     		beq	.L64
 825 0018 002B     		cmp	r3, #0
 826 001a 02D0     		beq	.L65
 827 001c 022B     		cmp	r3, #2
 828 001e 04D0     		beq	.L66
 829 0020 05E0     		b	.L68
 830              	.L65:
 289:Generated_Source\PSoC6\pdl\drivers\peripheral\dma/cy_dma.c ****     {
 290:Generated_Source\PSoC6\pdl\drivers\peripheral\dma/cy_dma.c ****         case CY_DMA_SINGLE_TRANSFER:
 291:Generated_Source\PSoC6\pdl\drivers\peripheral\dma/cy_dma.c ****             retVal = (cy_stc_dma_descriptor_t*) descriptor->xCtl;
 831              		.loc 1 291 0
 832 0022 E068     		ldr	r0, [r4, #12]
 833              	.LVL65:
 292:Generated_Source\PSoC6\pdl\drivers\peripheral\dma/cy_dma.c ****             break;
 834              		.loc 1 292 0
 835 0024 04E0     		b	.L63
 836              	.LVL66:
 837              	.L64:
 293:Generated_Source\PSoC6\pdl\drivers\peripheral\dma/cy_dma.c ****             
 294:Generated_Source\PSoC6\pdl\drivers\peripheral\dma/cy_dma.c ****         case CY_DMA_1D_TRANSFER:
 295:Generated_Source\PSoC6\pdl\drivers\peripheral\dma/cy_dma.c ****             retVal = (cy_stc_dma_descriptor_t*) descriptor->yCtl;
 838              		.loc 1 295 0
 839 0026 2069     		ldr	r0, [r4, #16]
 840              	.LVL67:
 296:Generated_Source\PSoC6\pdl\drivers\peripheral\dma/cy_dma.c ****             break;
 841              		.loc 1 296 0
 842 0028 02E0     		b	.L63
 843              	.LVL68:
 844              	.L66:
 297:Generated_Source\PSoC6\pdl\drivers\peripheral\dma/cy_dma.c ****             
ARM GAS  C:\Users\cypress\AppData\Local\Temp\ccD9LaTb.s 			page 22


 298:Generated_Source\PSoC6\pdl\drivers\peripheral\dma/cy_dma.c ****         case CY_DMA_2D_TRANSFER:
 299:Generated_Source\PSoC6\pdl\drivers\peripheral\dma/cy_dma.c ****             retVal = (cy_stc_dma_descriptor_t*) descriptor->nextPtr;
 845              		.loc 1 299 0
 846 002a 6069     		ldr	r0, [r4, #20]
 847              	.LVL69:
 300:Generated_Source\PSoC6\pdl\drivers\peripheral\dma/cy_dma.c ****             break;
 848              		.loc 1 300 0
 849 002c 00E0     		b	.L63
 850              	.LVL70:
 851              	.L68:
 284:Generated_Source\PSoC6\pdl\drivers\peripheral\dma/cy_dma.c ****     
 852              		.loc 1 284 0
 853 002e 0020     		movs	r0, #0
 854              	.LVL71:
 855              	.L63:
 301:Generated_Source\PSoC6\pdl\drivers\peripheral\dma/cy_dma.c ****             
 302:Generated_Source\PSoC6\pdl\drivers\peripheral\dma/cy_dma.c ****         default:
 303:Generated_Source\PSoC6\pdl\drivers\peripheral\dma/cy_dma.c ****             /* An unsupported type of the descriptor */
 304:Generated_Source\PSoC6\pdl\drivers\peripheral\dma/cy_dma.c ****             break;
 305:Generated_Source\PSoC6\pdl\drivers\peripheral\dma/cy_dma.c ****     }
 306:Generated_Source\PSoC6\pdl\drivers\peripheral\dma/cy_dma.c ****     
 307:Generated_Source\PSoC6\pdl\drivers\peripheral\dma/cy_dma.c ****     return (retVal);
 308:Generated_Source\PSoC6\pdl\drivers\peripheral\dma/cy_dma.c **** }
 856              		.loc 1 308 0
 857              		@ sp needed
 858              	.LVL72:
 859 0030 10BD     		pop	{r4, pc}
 860              	.L70:
 861 0032 C046     		.align	2
 862              	.L69:
 863 0034 00000000 		.word	.LC0
 864              		.cfi_endproc
 865              	.LFE92:
 866              		.size	Cy_DMA_Descriptor_GetNextDescriptor, .-Cy_DMA_Descriptor_GetNextDescriptor
 867              		.section	.text.Cy_DMA_Descriptor_SetDescriptorType,"ax",%progbits
 868              		.align	2
 869              		.global	Cy_DMA_Descriptor_SetDescriptorType
 870              		.code	16
 871              		.thumb_func
 872              		.type	Cy_DMA_Descriptor_SetDescriptorType, %function
 873              	Cy_DMA_Descriptor_SetDescriptorType:
 874              	.LFB93:
 309:Generated_Source\PSoC6\pdl\drivers\peripheral\dma/cy_dma.c **** 
 310:Generated_Source\PSoC6\pdl\drivers\peripheral\dma/cy_dma.c **** 
 311:Generated_Source\PSoC6\pdl\drivers\peripheral\dma/cy_dma.c **** /*******************************************************************************
 312:Generated_Source\PSoC6\pdl\drivers\peripheral\dma/cy_dma.c **** * Function Name: Cy_DMA_Descriptor_SetDescriptorType
 313:Generated_Source\PSoC6\pdl\drivers\peripheral\dma/cy_dma.c **** ****************************************************************************//**
 314:Generated_Source\PSoC6\pdl\drivers\peripheral\dma/cy_dma.c **** *
 315:Generated_Source\PSoC6\pdl\drivers\peripheral\dma/cy_dma.c **** * Sets the descriptor's type for the specified descriptor.
 316:Generated_Source\PSoC6\pdl\drivers\peripheral\dma/cy_dma.c **** * Moves the next descriptor register value into the proper place in accordance
 317:Generated_Source\PSoC6\pdl\drivers\peripheral\dma/cy_dma.c **** * to the actual descriptor type.
 318:Generated_Source\PSoC6\pdl\drivers\peripheral\dma/cy_dma.c **** * During the descriptor's type changing, the Xloop and Yloop settings, such as 
 319:Generated_Source\PSoC6\pdl\drivers\peripheral\dma/cy_dma.c **** * data count and source/destination increment (i.e. the content of the 
 320:Generated_Source\PSoC6\pdl\drivers\peripheral\dma/cy_dma.c **** * xCtl and yCtl descriptor registers) might be lost (overriden by the 
 321:Generated_Source\PSoC6\pdl\drivers\peripheral\dma/cy_dma.c **** * next descriptor value) because of the different descriptor registers structures
 322:Generated_Source\PSoC6\pdl\drivers\peripheral\dma/cy_dma.c **** * for different descriptor types. Set up carefully the Xloop
 323:Generated_Source\PSoC6\pdl\drivers\peripheral\dma/cy_dma.c **** * (and Yloop, if used) data count and source/destination increment if the
ARM GAS  C:\Users\cypress\AppData\Local\Temp\ccD9LaTb.s 			page 23


 324:Generated_Source\PSoC6\pdl\drivers\peripheral\dma/cy_dma.c **** * descriptor type is changed from a simpler to a more complicated type 
 325:Generated_Source\PSoC6\pdl\drivers\peripheral\dma/cy_dma.c **** * ("single transfer" -> "1D", "1D" -> "2D", etc.).
 326:Generated_Source\PSoC6\pdl\drivers\peripheral\dma/cy_dma.c **** * 
 327:Generated_Source\PSoC6\pdl\drivers\peripheral\dma/cy_dma.c **** * \param descriptor
 328:Generated_Source\PSoC6\pdl\drivers\peripheral\dma/cy_dma.c **** * The descriptor structure instance declared by the user/component.
 329:Generated_Source\PSoC6\pdl\drivers\peripheral\dma/cy_dma.c **** *
 330:Generated_Source\PSoC6\pdl\drivers\peripheral\dma/cy_dma.c **** * \param descriptorType 
 331:Generated_Source\PSoC6\pdl\drivers\peripheral\dma/cy_dma.c **** * The descriptor type \ref cy_en_dma_descriptor_type_t.
 332:Generated_Source\PSoC6\pdl\drivers\peripheral\dma/cy_dma.c **** *
 333:Generated_Source\PSoC6\pdl\drivers\peripheral\dma/cy_dma.c **** *******************************************************************************/
 334:Generated_Source\PSoC6\pdl\drivers\peripheral\dma/cy_dma.c **** void Cy_DMA_Descriptor_SetDescriptorType(cy_stc_dma_descriptor_t * descriptor, cy_en_dma_descriptor
 335:Generated_Source\PSoC6\pdl\drivers\peripheral\dma/cy_dma.c **** {
 875              		.loc 1 335 0
 876              		.cfi_startproc
 877              		@ args = 0, pretend = 0, frame = 0
 878              		@ frame_needed = 0, uses_anonymous_args = 0
 879              	.LVL73:
 880 0000 70B5     		push	{r4, r5, r6, lr}
 881              		.cfi_def_cfa_offset 16
 882              		.cfi_offset 4, -16
 883              		.cfi_offset 5, -12
 884              		.cfi_offset 6, -8
 885              		.cfi_offset 14, -4
 886 0002 0400     		movs	r4, r0
 887 0004 0D00     		movs	r5, r1
 336:Generated_Source\PSoC6\pdl\drivers\peripheral\dma/cy_dma.c ****     CY_ASSERT_L1(NULL != descriptor);
 888              		.loc 1 336 0
 889 0006 0028     		cmp	r0, #0
 890 0008 04D1     		bne	.L72
 891              		.loc 1 336 0 is_stmt 0 discriminator 1
 892 000a A821     		movs	r1, #168
 893              	.LVL74:
 894 000c 4900     		lsls	r1, r1, #1
 895 000e 1148     		ldr	r0, .L76
 896              	.LVL75:
 897 0010 FFF7FEFF 		bl	Cy_SysLib_AssertFailed
 898              	.LVL76:
 899              	.L72:
 337:Generated_Source\PSoC6\pdl\drivers\peripheral\dma/cy_dma.c ****     CY_ASSERT_L3(CY_DMA_IS_TYPE_VALID(descriptorType));
 900              		.loc 1 337 0 is_stmt 1
 901 0014 022D     		cmp	r5, #2
 902 0016 04D9     		bls	.L73
 903              		.loc 1 337 0 is_stmt 0 discriminator 1
 904 0018 5221     		movs	r1, #82
 905 001a FF31     		adds	r1, r1, #255
 906 001c 0D48     		ldr	r0, .L76
 907 001e FFF7FEFF 		bl	Cy_SysLib_AssertFailed
 908              	.LVL77:
 909              	.L73:
 910              	.LBB5:
 911              	.LBB6:
 912              		.file 2 "Generated_Source\\PSoC6\\pdl\\drivers\\peripheral\\dma\\cy_dma.h"
   1:Generated_Source\PSoC6\pdl\drivers\peripheral\dma/cy_dma.h **** /***************************************************************************//**
   2:Generated_Source\PSoC6\pdl\drivers\peripheral\dma/cy_dma.h **** * \file cy_dma.h
   3:Generated_Source\PSoC6\pdl\drivers\peripheral\dma/cy_dma.h **** * \version 2.0.1
   4:Generated_Source\PSoC6\pdl\drivers\peripheral\dma/cy_dma.h **** *
   5:Generated_Source\PSoC6\pdl\drivers\peripheral\dma/cy_dma.h **** * \brief
ARM GAS  C:\Users\cypress\AppData\Local\Temp\ccD9LaTb.s 			page 24


   6:Generated_Source\PSoC6\pdl\drivers\peripheral\dma/cy_dma.h **** * The header file of the DMA driver.
   7:Generated_Source\PSoC6\pdl\drivers\peripheral\dma/cy_dma.h **** *
   8:Generated_Source\PSoC6\pdl\drivers\peripheral\dma/cy_dma.h **** ********************************************************************************
   9:Generated_Source\PSoC6\pdl\drivers\peripheral\dma/cy_dma.h **** * \copyright
  10:Generated_Source\PSoC6\pdl\drivers\peripheral\dma/cy_dma.h **** * Copyright 2016-2018, Cypress Semiconductor Corporation. All rights reserved.
  11:Generated_Source\PSoC6\pdl\drivers\peripheral\dma/cy_dma.h **** * You may use this file only in accordance with the license, terms, conditions,
  12:Generated_Source\PSoC6\pdl\drivers\peripheral\dma/cy_dma.h **** * disclaimers, and limitations in the end user license agreement accompanying
  13:Generated_Source\PSoC6\pdl\drivers\peripheral\dma/cy_dma.h **** * the software package with which this file was provided.
  14:Generated_Source\PSoC6\pdl\drivers\peripheral\dma/cy_dma.h **** *******************************************************************************/
  15:Generated_Source\PSoC6\pdl\drivers\peripheral\dma/cy_dma.h **** 
  16:Generated_Source\PSoC6\pdl\drivers\peripheral\dma/cy_dma.h **** /**
  17:Generated_Source\PSoC6\pdl\drivers\peripheral\dma/cy_dma.h **** * \defgroup group_dma Direct Memory Access (DMA)
  18:Generated_Source\PSoC6\pdl\drivers\peripheral\dma/cy_dma.h **** * \{
  19:Generated_Source\PSoC6\pdl\drivers\peripheral\dma/cy_dma.h **** * Configures a DMA channel and its descriptor(s).
  20:Generated_Source\PSoC6\pdl\drivers\peripheral\dma/cy_dma.h **** *
  21:Generated_Source\PSoC6\pdl\drivers\peripheral\dma/cy_dma.h **** * The DMA channel can be used in any project to transfer data
  22:Generated_Source\PSoC6\pdl\drivers\peripheral\dma/cy_dma.h **** * without CPU intervention basing on a hardware trigger signal from another component.
  23:Generated_Source\PSoC6\pdl\drivers\peripheral\dma/cy_dma.h **** *
  24:Generated_Source\PSoC6\pdl\drivers\peripheral\dma/cy_dma.h **** * A device may support more than one DMA hardware block. Each block has a set of 
  25:Generated_Source\PSoC6\pdl\drivers\peripheral\dma/cy_dma.h **** * registers, a base hardware address, and supports multiple channels. 
  26:Generated_Source\PSoC6\pdl\drivers\peripheral\dma/cy_dma.h **** * Many API functions for the DMA driver require a base hardware address and  
  27:Generated_Source\PSoC6\pdl\drivers\peripheral\dma/cy_dma.h **** * channel number. Ensure that you use the correct hardware address for the DMA block in use.
  28:Generated_Source\PSoC6\pdl\drivers\peripheral\dma/cy_dma.h **** * 
  29:Generated_Source\PSoC6\pdl\drivers\peripheral\dma/cy_dma.h **** * Features:
  30:Generated_Source\PSoC6\pdl\drivers\peripheral\dma/cy_dma.h **** * * Devices support up to two DMA hardware blocks
  31:Generated_Source\PSoC6\pdl\drivers\peripheral\dma/cy_dma.h **** * * Each DMA block supports up to 16 DMA channels
  32:Generated_Source\PSoC6\pdl\drivers\peripheral\dma/cy_dma.h **** * * Supports channel descriptors in SRAM
  33:Generated_Source\PSoC6\pdl\drivers\peripheral\dma/cy_dma.h **** * * Four priority levels for each channel
  34:Generated_Source\PSoC6\pdl\drivers\peripheral\dma/cy_dma.h **** * * Byte, half-word (2-byte), and word (4-byte) transfers
  35:Generated_Source\PSoC6\pdl\drivers\peripheral\dma/cy_dma.h **** * * Configurable source and destination addresses
  36:Generated_Source\PSoC6\pdl\drivers\peripheral\dma/cy_dma.h **** *
  37:Generated_Source\PSoC6\pdl\drivers\peripheral\dma/cy_dma.h **** * \section group_dma_configuration Configuration Considerations
  38:Generated_Source\PSoC6\pdl\drivers\peripheral\dma/cy_dma.h **** *
  39:Generated_Source\PSoC6\pdl\drivers\peripheral\dma/cy_dma.h **** * To set up a DMA driver, initialize a descriptor,
  40:Generated_Source\PSoC6\pdl\drivers\peripheral\dma/cy_dma.h **** * intialize and enable a channel, and enable the DMA block.
  41:Generated_Source\PSoC6\pdl\drivers\peripheral\dma/cy_dma.h **** * 
  42:Generated_Source\PSoC6\pdl\drivers\peripheral\dma/cy_dma.h **** * To set up a descriptor, provide the configuration parameters for the 
  43:Generated_Source\PSoC6\pdl\drivers\peripheral\dma/cy_dma.h **** * descriptor in the \ref cy_stc_dma_descriptor_config_t structure. Then call the 
  44:Generated_Source\PSoC6\pdl\drivers\peripheral\dma/cy_dma.h **** * \ref Cy_DMA_Descriptor_Init function to initialize the descriptor in SRAM. You can 
  45:Generated_Source\PSoC6\pdl\drivers\peripheral\dma/cy_dma.h **** * modify the source and destination addresses dynamically by calling 
  46:Generated_Source\PSoC6\pdl\drivers\peripheral\dma/cy_dma.h **** * \ref Cy_DMA_Descriptor_SetSrcAddress and \ref Cy_DMA_Descriptor_SetDstAddress.
  47:Generated_Source\PSoC6\pdl\drivers\peripheral\dma/cy_dma.h **** * 
  48:Generated_Source\PSoC6\pdl\drivers\peripheral\dma/cy_dma.h **** * To set up a DMA channel, provide a filled \ref cy_stc_dma_channel_config_t 
  49:Generated_Source\PSoC6\pdl\drivers\peripheral\dma/cy_dma.h **** * structure. Call the \ref Cy_DMA_Channel_Init function, specifying the channel
  50:Generated_Source\PSoC6\pdl\drivers\peripheral\dma/cy_dma.h **** * number. Use \ref Cy_DMA_Channel_Enable to enable the configured DMA channel.
  51:Generated_Source\PSoC6\pdl\drivers\peripheral\dma/cy_dma.h **** *
  52:Generated_Source\PSoC6\pdl\drivers\peripheral\dma/cy_dma.h **** * Call \ref Cy_DMA_Channel_Enable for each DMA channel in use.
  53:Generated_Source\PSoC6\pdl\drivers\peripheral\dma/cy_dma.h **** *
  54:Generated_Source\PSoC6\pdl\drivers\peripheral\dma/cy_dma.h **** * When configured, another peripheral typically triggers the DMA. The trigger is
  55:Generated_Source\PSoC6\pdl\drivers\peripheral\dma/cy_dma.h **** * connected to the DMA using the trigger multiplexer. The trigger multiplexer
  56:Generated_Source\PSoC6\pdl\drivers\peripheral\dma/cy_dma.h **** * driver has a software trigger you can use in firmware to trigger the DMA. See the
  57:Generated_Source\PSoC6\pdl\drivers\peripheral\dma/cy_dma.h **** * <a href="group__group__trigmux.html">Trigger Multiplexer</a> documentation.
  58:Generated_Source\PSoC6\pdl\drivers\peripheral\dma/cy_dma.h **** *
  59:Generated_Source\PSoC6\pdl\drivers\peripheral\dma/cy_dma.h **** * The following is a simplified structure of the DMA driver API interdependencies
  60:Generated_Source\PSoC6\pdl\drivers\peripheral\dma/cy_dma.h **** * in a typical user application:
  61:Generated_Source\PSoC6\pdl\drivers\peripheral\dma/cy_dma.h **** * \image html dma.png
  62:Generated_Source\PSoC6\pdl\drivers\peripheral\dma/cy_dma.h **** *
ARM GAS  C:\Users\cypress\AppData\Local\Temp\ccD9LaTb.s 			page 25


  63:Generated_Source\PSoC6\pdl\drivers\peripheral\dma/cy_dma.h **** * <B>NOTE:</B> Even if a DMA channel is enabled, it is not operational until 
  64:Generated_Source\PSoC6\pdl\drivers\peripheral\dma/cy_dma.h **** * the DMA block is enabled using function \ref Cy_DMA_Enable.\n
  65:Generated_Source\PSoC6\pdl\drivers\peripheral\dma/cy_dma.h **** * <B>NOTE:</B> if the DMA descriptor is configured to generate an interrupt, 
  66:Generated_Source\PSoC6\pdl\drivers\peripheral\dma/cy_dma.h **** * the interrupt must be enabled using the \ref Cy_DMA_Channel_SetInterruptMask 
  67:Generated_Source\PSoC6\pdl\drivers\peripheral\dma/cy_dma.h **** * function for each DMA channel.
  68:Generated_Source\PSoC6\pdl\drivers\peripheral\dma/cy_dma.h **** *
  69:Generated_Source\PSoC6\pdl\drivers\peripheral\dma/cy_dma.h **** * For example:
  70:Generated_Source\PSoC6\pdl\drivers\peripheral\dma/cy_dma.h **** * \snippet dma/dma_v2_0_sut_00.cydsn/main_cm4.c Cy_DMA_Snippet
  71:Generated_Source\PSoC6\pdl\drivers\peripheral\dma/cy_dma.h **** * 
  72:Generated_Source\PSoC6\pdl\drivers\peripheral\dma/cy_dma.h **** * \section group_dma_more_information More Information.
  73:Generated_Source\PSoC6\pdl\drivers\peripheral\dma/cy_dma.h **** * See: the DMA chapter of the device technical reference manual (TRM);
  74:Generated_Source\PSoC6\pdl\drivers\peripheral\dma/cy_dma.h **** *      the DMA Component datasheet;
  75:Generated_Source\PSoC6\pdl\drivers\peripheral\dma/cy_dma.h **** *      CE219940 - PSoC 6 MCU Multiple DMA Concatenation.
  76:Generated_Source\PSoC6\pdl\drivers\peripheral\dma/cy_dma.h **** *
  77:Generated_Source\PSoC6\pdl\drivers\peripheral\dma/cy_dma.h **** * \section group_dma_MISRA MISRA-C Compliance
  78:Generated_Source\PSoC6\pdl\drivers\peripheral\dma/cy_dma.h **** * The DMA driver has the following specific deviations:
  79:Generated_Source\PSoC6\pdl\drivers\peripheral\dma/cy_dma.h **** *
  80:Generated_Source\PSoC6\pdl\drivers\peripheral\dma/cy_dma.h **** * <table class="doxtable">
  81:Generated_Source\PSoC6\pdl\drivers\peripheral\dma/cy_dma.h **** *   <tr>
  82:Generated_Source\PSoC6\pdl\drivers\peripheral\dma/cy_dma.h **** *     <th>MISRA Rule</th>
  83:Generated_Source\PSoC6\pdl\drivers\peripheral\dma/cy_dma.h **** *     <th>Rule Class (Required/Advisory)</th>
  84:Generated_Source\PSoC6\pdl\drivers\peripheral\dma/cy_dma.h **** *     <th>Rule Description</th>
  85:Generated_Source\PSoC6\pdl\drivers\peripheral\dma/cy_dma.h **** *     <th>Description of Deviation(s)</th>
  86:Generated_Source\PSoC6\pdl\drivers\peripheral\dma/cy_dma.h **** *   </tr>
  87:Generated_Source\PSoC6\pdl\drivers\peripheral\dma/cy_dma.h **** *   <tr>
  88:Generated_Source\PSoC6\pdl\drivers\peripheral\dma/cy_dma.h **** *     <td>10.3</td>
  89:Generated_Source\PSoC6\pdl\drivers\peripheral\dma/cy_dma.h **** *     <td>R</td>
  90:Generated_Source\PSoC6\pdl\drivers\peripheral\dma/cy_dma.h **** *     <td>A composite expression of the "essentially unsigned" type is being
  91:Generated_Source\PSoC6\pdl\drivers\peripheral\dma/cy_dma.h **** *         cast to a different type category.</td>
  92:Generated_Source\PSoC6\pdl\drivers\peripheral\dma/cy_dma.h **** *     <td>The value got from the bitfield physically cannot exceed the enumeration
  93:Generated_Source\PSoC6\pdl\drivers\peripheral\dma/cy_dma.h **** *         that describes this bitfield. So, the code is safe by design.</td>
  94:Generated_Source\PSoC6\pdl\drivers\peripheral\dma/cy_dma.h **** *   </tr>
  95:Generated_Source\PSoC6\pdl\drivers\peripheral\dma/cy_dma.h **** *   <tr>
  96:Generated_Source\PSoC6\pdl\drivers\peripheral\dma/cy_dma.h **** *     <td>14.2</td>
  97:Generated_Source\PSoC6\pdl\drivers\peripheral\dma/cy_dma.h **** *     <td>R</td>
  98:Generated_Source\PSoC6\pdl\drivers\peripheral\dma/cy_dma.h **** *     <td>All non-null statements will either:
  99:Generated_Source\PSoC6\pdl\drivers\peripheral\dma/cy_dma.h **** *       a) have at least one-side effect however executed;
 100:Generated_Source\PSoC6\pdl\drivers\peripheral\dma/cy_dma.h **** *       b) cause the control flow to change</td>
 101:Generated_Source\PSoC6\pdl\drivers\peripheral\dma/cy_dma.h **** *     <td>A Read operation result is ignored when this read is just intended
 102:Generated_Source\PSoC6\pdl\drivers\peripheral\dma/cy_dma.h **** *         to ensure the previous Write operation is flushed out to the hardware.</td>
 103:Generated_Source\PSoC6\pdl\drivers\peripheral\dma/cy_dma.h **** *   </tr>
 104:Generated_Source\PSoC6\pdl\drivers\peripheral\dma/cy_dma.h **** * </table>
 105:Generated_Source\PSoC6\pdl\drivers\peripheral\dma/cy_dma.h **** *
 106:Generated_Source\PSoC6\pdl\drivers\peripheral\dma/cy_dma.h **** * \section group_dma_changelog Changelog
 107:Generated_Source\PSoC6\pdl\drivers\peripheral\dma/cy_dma.h **** *
 108:Generated_Source\PSoC6\pdl\drivers\peripheral\dma/cy_dma.h **** * <table class="doxtable">
 109:Generated_Source\PSoC6\pdl\drivers\peripheral\dma/cy_dma.h **** *   <tr><th>Version</th><th>Changes</th><th>Reason for Change</th></tr>
 110:Generated_Source\PSoC6\pdl\drivers\peripheral\dma/cy_dma.h **** *   <tr>
 111:Generated_Source\PSoC6\pdl\drivers\peripheral\dma/cy_dma.h **** *     <td>2.0.1</td>
 112:Generated_Source\PSoC6\pdl\drivers\peripheral\dma/cy_dma.h **** *     <td>Changed \ref CY_DMA_BWC macro values from Boolean to numeric</td>
 113:Generated_Source\PSoC6\pdl\drivers\peripheral\dma/cy_dma.h **** *     <td>Improvements made based on usability feedback</td>
 114:Generated_Source\PSoC6\pdl\drivers\peripheral\dma/cy_dma.h **** *   </tr>
 115:Generated_Source\PSoC6\pdl\drivers\peripheral\dma/cy_dma.h **** *   <tr>
 116:Generated_Source\PSoC6\pdl\drivers\peripheral\dma/cy_dma.h **** *     <td>2.0</td>
 117:Generated_Source\PSoC6\pdl\drivers\peripheral\dma/cy_dma.h **** *     <td>* All the API is refactored to be consistent within itself and with the
 118:Generated_Source\PSoC6\pdl\drivers\peripheral\dma/cy_dma.h **** *           rest of the PDL content.
 119:Generated_Source\PSoC6\pdl\drivers\peripheral\dma/cy_dma.h **** *         * The descriptor API is updated as follows:
ARM GAS  C:\Users\cypress\AppData\Local\Temp\ccD9LaTb.s 			page 26


 120:Generated_Source\PSoC6\pdl\drivers\peripheral\dma/cy_dma.h **** *           The \ref Cy_DMA_Descriptor_Init function sets a full bunch of descriptor
 121:Generated_Source\PSoC6\pdl\drivers\peripheral\dma/cy_dma.h **** *           settings, and the rest of the descriptor API is a get/set interface
 122:Generated_Source\PSoC6\pdl\drivers\peripheral\dma/cy_dma.h **** *           to each of the descriptor settings.
 123:Generated_Source\PSoC6\pdl\drivers\peripheral\dma/cy_dma.h **** *         * There is a group of macros to support the backward compatibility with most 
 124:Generated_Source\PSoC6\pdl\drivers\peripheral\dma/cy_dma.h **** *           of the driver version 1.0 API. But, it is strongly recommended to use
 125:Generated_Source\PSoC6\pdl\drivers\peripheral\dma/cy_dma.h **** *           the new v2.0 interface in new designs (do not just copy-paste from old
 126:Generated_Source\PSoC6\pdl\drivers\peripheral\dma/cy_dma.h **** *           projects). To enable the backward compatibility support, the CY_DMA_BWC 
 127:Generated_Source\PSoC6\pdl\drivers\peripheral\dma/cy_dma.h **** *           definition should be changed to "1".</td>
 128:Generated_Source\PSoC6\pdl\drivers\peripheral\dma/cy_dma.h **** *     <td></td>
 129:Generated_Source\PSoC6\pdl\drivers\peripheral\dma/cy_dma.h **** *   </tr>
 130:Generated_Source\PSoC6\pdl\drivers\peripheral\dma/cy_dma.h **** *   <tr>
 131:Generated_Source\PSoC6\pdl\drivers\peripheral\dma/cy_dma.h **** *     <td>1.0</td>
 132:Generated_Source\PSoC6\pdl\drivers\peripheral\dma/cy_dma.h **** *     <td>Initial version</td>
 133:Generated_Source\PSoC6\pdl\drivers\peripheral\dma/cy_dma.h **** *     <td></td>
 134:Generated_Source\PSoC6\pdl\drivers\peripheral\dma/cy_dma.h **** *   </tr>
 135:Generated_Source\PSoC6\pdl\drivers\peripheral\dma/cy_dma.h **** * </table>
 136:Generated_Source\PSoC6\pdl\drivers\peripheral\dma/cy_dma.h **** *
 137:Generated_Source\PSoC6\pdl\drivers\peripheral\dma/cy_dma.h **** 
 138:Generated_Source\PSoC6\pdl\drivers\peripheral\dma/cy_dma.h **** * \defgroup group_dma_macros Macros
 139:Generated_Source\PSoC6\pdl\drivers\peripheral\dma/cy_dma.h **** * \defgroup group_dma_functions Functions
 140:Generated_Source\PSoC6\pdl\drivers\peripheral\dma/cy_dma.h **** * \{
 141:Generated_Source\PSoC6\pdl\drivers\peripheral\dma/cy_dma.h **** * \defgroup group_dma_block_functions Block Functions
 142:Generated_Source\PSoC6\pdl\drivers\peripheral\dma/cy_dma.h **** * \defgroup group_dma_descriptor_functions Descriptor Functions
 143:Generated_Source\PSoC6\pdl\drivers\peripheral\dma/cy_dma.h **** * \defgroup group_dma_channel_functions Channel Functions
 144:Generated_Source\PSoC6\pdl\drivers\peripheral\dma/cy_dma.h **** * \}
 145:Generated_Source\PSoC6\pdl\drivers\peripheral\dma/cy_dma.h **** * \defgroup group_dma_data_structures Data Structures
 146:Generated_Source\PSoC6\pdl\drivers\peripheral\dma/cy_dma.h **** * \defgroup group_dma_enums Enumerated Types
 147:Generated_Source\PSoC6\pdl\drivers\peripheral\dma/cy_dma.h **** */
 148:Generated_Source\PSoC6\pdl\drivers\peripheral\dma/cy_dma.h **** 
 149:Generated_Source\PSoC6\pdl\drivers\peripheral\dma/cy_dma.h **** #if !defined(CY_DMA_H)
 150:Generated_Source\PSoC6\pdl\drivers\peripheral\dma/cy_dma.h **** #define CY_DMA_H
 151:Generated_Source\PSoC6\pdl\drivers\peripheral\dma/cy_dma.h **** 
 152:Generated_Source\PSoC6\pdl\drivers\peripheral\dma/cy_dma.h **** #include <stdint.h>
 153:Generated_Source\PSoC6\pdl\drivers\peripheral\dma/cy_dma.h **** #include <stdbool.h>
 154:Generated_Source\PSoC6\pdl\drivers\peripheral\dma/cy_dma.h **** #include <stddef.h>
 155:Generated_Source\PSoC6\pdl\drivers\peripheral\dma/cy_dma.h **** #include "syslib/cy_syslib.h"
 156:Generated_Source\PSoC6\pdl\drivers\peripheral\dma/cy_dma.h **** #include "cy_device_headers.h"
 157:Generated_Source\PSoC6\pdl\drivers\peripheral\dma/cy_dma.h **** 
 158:Generated_Source\PSoC6\pdl\drivers\peripheral\dma/cy_dma.h **** #ifndef CY_IP_M4CPUSS_DMA
 159:Generated_Source\PSoC6\pdl\drivers\peripheral\dma/cy_dma.h ****     #error "The DMA driver is not supported on this device"
 160:Generated_Source\PSoC6\pdl\drivers\peripheral\dma/cy_dma.h **** #endif
 161:Generated_Source\PSoC6\pdl\drivers\peripheral\dma/cy_dma.h **** 
 162:Generated_Source\PSoC6\pdl\drivers\peripheral\dma/cy_dma.h **** #if defined(__cplusplus)
 163:Generated_Source\PSoC6\pdl\drivers\peripheral\dma/cy_dma.h **** extern "C" {
 164:Generated_Source\PSoC6\pdl\drivers\peripheral\dma/cy_dma.h **** #endif
 165:Generated_Source\PSoC6\pdl\drivers\peripheral\dma/cy_dma.h **** 
 166:Generated_Source\PSoC6\pdl\drivers\peripheral\dma/cy_dma.h **** /******************************************************************************
 167:Generated_Source\PSoC6\pdl\drivers\peripheral\dma/cy_dma.h ****  * Macro definitions                                                          *
 168:Generated_Source\PSoC6\pdl\drivers\peripheral\dma/cy_dma.h ****  ******************************************************************************/
 169:Generated_Source\PSoC6\pdl\drivers\peripheral\dma/cy_dma.h **** 
 170:Generated_Source\PSoC6\pdl\drivers\peripheral\dma/cy_dma.h **** /**
 171:Generated_Source\PSoC6\pdl\drivers\peripheral\dma/cy_dma.h **** * \addtogroup group_dma_macros
 172:Generated_Source\PSoC6\pdl\drivers\peripheral\dma/cy_dma.h **** * \{
 173:Generated_Source\PSoC6\pdl\drivers\peripheral\dma/cy_dma.h **** */
 174:Generated_Source\PSoC6\pdl\drivers\peripheral\dma/cy_dma.h **** 
 175:Generated_Source\PSoC6\pdl\drivers\peripheral\dma/cy_dma.h **** /** The driver major version */
 176:Generated_Source\PSoC6\pdl\drivers\peripheral\dma/cy_dma.h **** #define CY_DMA_DRV_VERSION_MAJOR       2
ARM GAS  C:\Users\cypress\AppData\Local\Temp\ccD9LaTb.s 			page 27


 177:Generated_Source\PSoC6\pdl\drivers\peripheral\dma/cy_dma.h **** 
 178:Generated_Source\PSoC6\pdl\drivers\peripheral\dma/cy_dma.h **** /** The driver minor version */
 179:Generated_Source\PSoC6\pdl\drivers\peripheral\dma/cy_dma.h **** #define CY_DMA_DRV_VERSION_MINOR       0
 180:Generated_Source\PSoC6\pdl\drivers\peripheral\dma/cy_dma.h **** 
 181:Generated_Source\PSoC6\pdl\drivers\peripheral\dma/cy_dma.h **** /** The DMA driver identifier */
 182:Generated_Source\PSoC6\pdl\drivers\peripheral\dma/cy_dma.h **** #define CY_DMA_ID                      (CY_PDL_DRV_ID(0x13U))
 183:Generated_Source\PSoC6\pdl\drivers\peripheral\dma/cy_dma.h ****  
 184:Generated_Source\PSoC6\pdl\drivers\peripheral\dma/cy_dma.h **** /** The DMA channel interrupt mask */
 185:Generated_Source\PSoC6\pdl\drivers\peripheral\dma/cy_dma.h **** #define CY_DMA_INTR_MASK               (0x01UL)
 186:Generated_Source\PSoC6\pdl\drivers\peripheral\dma/cy_dma.h **** 
 187:Generated_Source\PSoC6\pdl\drivers\peripheral\dma/cy_dma.h **** /** The backward compatibility flag. Enables a group of macros which provide 
 188:Generated_Source\PSoC6\pdl\drivers\peripheral\dma/cy_dma.h **** * the backward compatibility with most of the DMA driver version 1.0 interface. */
 189:Generated_Source\PSoC6\pdl\drivers\peripheral\dma/cy_dma.h **** #ifndef CY_DMA_BWC
 190:Generated_Source\PSoC6\pdl\drivers\peripheral\dma/cy_dma.h ****     #define CY_DMA_BWC                 (0U)
 191:Generated_Source\PSoC6\pdl\drivers\peripheral\dma/cy_dma.h **** #endif
 192:Generated_Source\PSoC6\pdl\drivers\peripheral\dma/cy_dma.h **** 
 193:Generated_Source\PSoC6\pdl\drivers\peripheral\dma/cy_dma.h **** /** \} group_dma_macros */
 194:Generated_Source\PSoC6\pdl\drivers\peripheral\dma/cy_dma.h **** 
 195:Generated_Source\PSoC6\pdl\drivers\peripheral\dma/cy_dma.h **** 
 196:Generated_Source\PSoC6\pdl\drivers\peripheral\dma/cy_dma.h **** /**
 197:Generated_Source\PSoC6\pdl\drivers\peripheral\dma/cy_dma.h **** * \addtogroup group_dma_enums
 198:Generated_Source\PSoC6\pdl\drivers\peripheral\dma/cy_dma.h **** * \{
 199:Generated_Source\PSoC6\pdl\drivers\peripheral\dma/cy_dma.h **** */
 200:Generated_Source\PSoC6\pdl\drivers\peripheral\dma/cy_dma.h **** 
 201:Generated_Source\PSoC6\pdl\drivers\peripheral\dma/cy_dma.h **** /** Contains the possible interrupt cause values */
 202:Generated_Source\PSoC6\pdl\drivers\peripheral\dma/cy_dma.h **** typedef enum
 203:Generated_Source\PSoC6\pdl\drivers\peripheral\dma/cy_dma.h **** {
 204:Generated_Source\PSoC6\pdl\drivers\peripheral\dma/cy_dma.h ****     CY_DMA_INTR_CAUSE_NO_INTR            = 0U, /**< No interrupt                         */
 205:Generated_Source\PSoC6\pdl\drivers\peripheral\dma/cy_dma.h ****     CY_DMA_INTR_CAUSE_COMPLETION         = 1U, /**< Completion                           */
 206:Generated_Source\PSoC6\pdl\drivers\peripheral\dma/cy_dma.h ****     CY_DMA_INTR_CAUSE_SRC_BUS_ERROR      = 2U, /**< Source bus error                     */
 207:Generated_Source\PSoC6\pdl\drivers\peripheral\dma/cy_dma.h ****     CY_DMA_INTR_CAUSE_DST_BUS_ERROR      = 3U, /**< Destination bus error                */
 208:Generated_Source\PSoC6\pdl\drivers\peripheral\dma/cy_dma.h ****     CY_DMA_INTR_CAUSE_SRC_MISAL          = 4U, /**< Source address is not aligned        */
 209:Generated_Source\PSoC6\pdl\drivers\peripheral\dma/cy_dma.h ****     CY_DMA_INTR_CAUSE_DST_MISAL          = 5U, /**< Destination address is not aligned   */
 210:Generated_Source\PSoC6\pdl\drivers\peripheral\dma/cy_dma.h ****     CY_DMA_INTR_CAUSE_CURR_PTR_NULL      = 6U, /**< Current descripror pointer is NULL   */
 211:Generated_Source\PSoC6\pdl\drivers\peripheral\dma/cy_dma.h ****     CY_DMA_INTR_CAUSE_ACTIVE_CH_DISABLED = 7U, /**< Active channel is disabled           */
 212:Generated_Source\PSoC6\pdl\drivers\peripheral\dma/cy_dma.h ****     CY_DMA_INTR_CAUSE_DESCR_BUS_ERROR    = 8U  /**< Descriptor bus error                 */
 213:Generated_Source\PSoC6\pdl\drivers\peripheral\dma/cy_dma.h **** } cy_en_dma_intr_cause_t;
 214:Generated_Source\PSoC6\pdl\drivers\peripheral\dma/cy_dma.h **** 
 215:Generated_Source\PSoC6\pdl\drivers\peripheral\dma/cy_dma.h **** /** Contains the options for the descriptor type */
 216:Generated_Source\PSoC6\pdl\drivers\peripheral\dma/cy_dma.h **** typedef enum
 217:Generated_Source\PSoC6\pdl\drivers\peripheral\dma/cy_dma.h **** {
 218:Generated_Source\PSoC6\pdl\drivers\peripheral\dma/cy_dma.h ****     CY_DMA_SINGLE_TRANSFER = 0UL,          /**< Single transfer. */
 219:Generated_Source\PSoC6\pdl\drivers\peripheral\dma/cy_dma.h ****     CY_DMA_1D_TRANSFER     = 1UL,          /**< 1D transfer.     */
 220:Generated_Source\PSoC6\pdl\drivers\peripheral\dma/cy_dma.h ****     CY_DMA_2D_TRANSFER     = 2UL           /**< 2D transfer.     */
 221:Generated_Source\PSoC6\pdl\drivers\peripheral\dma/cy_dma.h **** } cy_en_dma_descriptor_type_t;
 222:Generated_Source\PSoC6\pdl\drivers\peripheral\dma/cy_dma.h **** 
 223:Generated_Source\PSoC6\pdl\drivers\peripheral\dma/cy_dma.h **** /** Contains the options for the interrupt, trig-in and trig-out type parameters of the descriptor 
 224:Generated_Source\PSoC6\pdl\drivers\peripheral\dma/cy_dma.h **** typedef enum
 225:Generated_Source\PSoC6\pdl\drivers\peripheral\dma/cy_dma.h **** {
 226:Generated_Source\PSoC6\pdl\drivers\peripheral\dma/cy_dma.h ****     CY_DMA_1ELEMENT    = 0UL,               /**< One element transfer.             */
 227:Generated_Source\PSoC6\pdl\drivers\peripheral\dma/cy_dma.h ****     CY_DMA_X_LOOP      = 1UL,               /**< One X loop transfer.              */
 228:Generated_Source\PSoC6\pdl\drivers\peripheral\dma/cy_dma.h ****     CY_DMA_DESCR       = 2UL,               /**< One descriptor transfer.          */
 229:Generated_Source\PSoC6\pdl\drivers\peripheral\dma/cy_dma.h ****     CY_DMA_DESCR_CHAIN = 3UL                /**< Entire descriptor chain transfer. */
 230:Generated_Source\PSoC6\pdl\drivers\peripheral\dma/cy_dma.h **** } cy_en_dma_trigger_type_t;
 231:Generated_Source\PSoC6\pdl\drivers\peripheral\dma/cy_dma.h **** 
 232:Generated_Source\PSoC6\pdl\drivers\peripheral\dma/cy_dma.h **** /** This enum has the options for the data size */
 233:Generated_Source\PSoC6\pdl\drivers\peripheral\dma/cy_dma.h **** typedef enum
ARM GAS  C:\Users\cypress\AppData\Local\Temp\ccD9LaTb.s 			page 28


 234:Generated_Source\PSoC6\pdl\drivers\peripheral\dma/cy_dma.h **** {
 235:Generated_Source\PSoC6\pdl\drivers\peripheral\dma/cy_dma.h ****     CY_DMA_BYTE     = 0UL,                 /**< One byte               */
 236:Generated_Source\PSoC6\pdl\drivers\peripheral\dma/cy_dma.h ****     CY_DMA_HALFWORD = 1UL,                 /**< Half word (two bytes)  */
 237:Generated_Source\PSoC6\pdl\drivers\peripheral\dma/cy_dma.h ****     CY_DMA_WORD     = 2UL                  /**< Full word (four bytes) */
 238:Generated_Source\PSoC6\pdl\drivers\peripheral\dma/cy_dma.h **** } cy_en_dma_data_size_t;
 239:Generated_Source\PSoC6\pdl\drivers\peripheral\dma/cy_dma.h **** 
 240:Generated_Source\PSoC6\pdl\drivers\peripheral\dma/cy_dma.h **** /** This enum has the options for descriptor retriggering */
 241:Generated_Source\PSoC6\pdl\drivers\peripheral\dma/cy_dma.h **** typedef enum
 242:Generated_Source\PSoC6\pdl\drivers\peripheral\dma/cy_dma.h **** {
 243:Generated_Source\PSoC6\pdl\drivers\peripheral\dma/cy_dma.h ****     CY_DMA_RETRIG_IM    = 0UL,             /**< Retrigger immediatelly            */
 244:Generated_Source\PSoC6\pdl\drivers\peripheral\dma/cy_dma.h ****     CY_DMA_RETRIG_4CYC  = 1UL,             /**< Retrigger after 4 Clk_Slow cycles  */
 245:Generated_Source\PSoC6\pdl\drivers\peripheral\dma/cy_dma.h ****     CY_DMA_RETRIG_16CYC = 2UL,             /**< Retrigger after 16 Clk_Slow cycles */
 246:Generated_Source\PSoC6\pdl\drivers\peripheral\dma/cy_dma.h ****     CY_DMA_WAIT_FOR_REACT = 3UL            /**< Wait for trigger reactivation     */
 247:Generated_Source\PSoC6\pdl\drivers\peripheral\dma/cy_dma.h **** } cy_en_dma_retrigger_t;
 248:Generated_Source\PSoC6\pdl\drivers\peripheral\dma/cy_dma.h **** 
 249:Generated_Source\PSoC6\pdl\drivers\peripheral\dma/cy_dma.h **** /** This enum has the options for the transfer size */
 250:Generated_Source\PSoC6\pdl\drivers\peripheral\dma/cy_dma.h **** typedef enum
 251:Generated_Source\PSoC6\pdl\drivers\peripheral\dma/cy_dma.h **** {
 252:Generated_Source\PSoC6\pdl\drivers\peripheral\dma/cy_dma.h ****     CY_DMA_TRANSFER_SIZE_DATA = 0UL,           /**< As specified by dataSize. */
 253:Generated_Source\PSoC6\pdl\drivers\peripheral\dma/cy_dma.h ****     CY_DMA_TRANSFER_SIZE_WORD = 1UL,           /**< A full word (four bytes). */
 254:Generated_Source\PSoC6\pdl\drivers\peripheral\dma/cy_dma.h **** } cy_en_dma_transfer_size_t;
 255:Generated_Source\PSoC6\pdl\drivers\peripheral\dma/cy_dma.h **** 
 256:Generated_Source\PSoC6\pdl\drivers\peripheral\dma/cy_dma.h **** /** This enum has the options for the state of the channel when the descriptor is completed   */
 257:Generated_Source\PSoC6\pdl\drivers\peripheral\dma/cy_dma.h **** typedef enum
 258:Generated_Source\PSoC6\pdl\drivers\peripheral\dma/cy_dma.h **** {
 259:Generated_Source\PSoC6\pdl\drivers\peripheral\dma/cy_dma.h ****     CY_DMA_CHANNEL_ENABLED  = 0UL,         /**< Channel stays enabled  */
 260:Generated_Source\PSoC6\pdl\drivers\peripheral\dma/cy_dma.h ****     CY_DMA_CHANNEL_DISABLED = 1UL          /**< Channel is disabled */
 261:Generated_Source\PSoC6\pdl\drivers\peripheral\dma/cy_dma.h **** } cy_en_dma_channel_state_t;
 262:Generated_Source\PSoC6\pdl\drivers\peripheral\dma/cy_dma.h **** 
 263:Generated_Source\PSoC6\pdl\drivers\peripheral\dma/cy_dma.h **** /** This enum has the return values of the DMA driver */
 264:Generated_Source\PSoC6\pdl\drivers\peripheral\dma/cy_dma.h **** typedef enum 
 265:Generated_Source\PSoC6\pdl\drivers\peripheral\dma/cy_dma.h **** {
 266:Generated_Source\PSoC6\pdl\drivers\peripheral\dma/cy_dma.h ****     CY_DMA_SUCCESS          = 0x00UL, /**< Success. */
 267:Generated_Source\PSoC6\pdl\drivers\peripheral\dma/cy_dma.h ****     CY_DMA_BAD_PARAM        = CY_DMA_ID | CY_PDL_STATUS_ERROR | 0x01UL /**< The input parameters pa
 268:Generated_Source\PSoC6\pdl\drivers\peripheral\dma/cy_dma.h **** } cy_en_dma_status_t;
 269:Generated_Source\PSoC6\pdl\drivers\peripheral\dma/cy_dma.h **** 
 270:Generated_Source\PSoC6\pdl\drivers\peripheral\dma/cy_dma.h **** /** \} group_dma_enums */
 271:Generated_Source\PSoC6\pdl\drivers\peripheral\dma/cy_dma.h **** 
 272:Generated_Source\PSoC6\pdl\drivers\peripheral\dma/cy_dma.h **** 
 273:Generated_Source\PSoC6\pdl\drivers\peripheral\dma/cy_dma.h **** /** \cond Macros for the conditions used by CY_ASSERT calls */
 274:Generated_Source\PSoC6\pdl\drivers\peripheral\dma/cy_dma.h **** 
 275:Generated_Source\PSoC6\pdl\drivers\peripheral\dma/cy_dma.h **** #define CY_DMA_IS_COUNT_VALID(count)          (((count) >= 1UL) && ((count) <= 256UL))
 276:Generated_Source\PSoC6\pdl\drivers\peripheral\dma/cy_dma.h **** #define CY_DMA_IS_INCR_VALID(incr)            (((incr) >= -2048L) && ((incr) <= 2047L))
 277:Generated_Source\PSoC6\pdl\drivers\peripheral\dma/cy_dma.h **** #define CY_DMA_IS_PRIORITY_VALID(prio)        ((prio) <= 3UL)
 278:Generated_Source\PSoC6\pdl\drivers\peripheral\dma/cy_dma.h **** #define CY_DMA_IS_INTR_MASK_VALID(interrupt)  (0UL == ((interrupt) & ((uint32_t) ~CY_DMA_INTR_MASK)
 279:Generated_Source\PSoC6\pdl\drivers\peripheral\dma/cy_dma.h **** 
 280:Generated_Source\PSoC6\pdl\drivers\peripheral\dma/cy_dma.h **** #define CY_DMA_IS_RETRIGGER_VALID(retrigger)  ((CY_DMA_RETRIG_IM      == (retrigger)) || \
 281:Generated_Source\PSoC6\pdl\drivers\peripheral\dma/cy_dma.h ****                                                (CY_DMA_RETRIG_4CYC    == (retrigger)) || \
 282:Generated_Source\PSoC6\pdl\drivers\peripheral\dma/cy_dma.h ****                                                (CY_DMA_RETRIG_16CYC   == (retrigger)) || \
 283:Generated_Source\PSoC6\pdl\drivers\peripheral\dma/cy_dma.h ****                                                (CY_DMA_WAIT_FOR_REACT == (retrigger)))
 284:Generated_Source\PSoC6\pdl\drivers\peripheral\dma/cy_dma.h ****                                               
 285:Generated_Source\PSoC6\pdl\drivers\peripheral\dma/cy_dma.h **** #define CY_DMA_IS_TRIG_TYPE_VALID(trigType)   ((CY_DMA_1ELEMENT    == (trigType)) || \
 286:Generated_Source\PSoC6\pdl\drivers\peripheral\dma/cy_dma.h ****                                                (CY_DMA_X_LOOP      == (trigType)) || \
 287:Generated_Source\PSoC6\pdl\drivers\peripheral\dma/cy_dma.h ****                                                (CY_DMA_DESCR       == (trigType)) || \
 288:Generated_Source\PSoC6\pdl\drivers\peripheral\dma/cy_dma.h ****                                                (CY_DMA_DESCR_CHAIN == (trigType)))
 289:Generated_Source\PSoC6\pdl\drivers\peripheral\dma/cy_dma.h ****                                               
 290:Generated_Source\PSoC6\pdl\drivers\peripheral\dma/cy_dma.h **** #define CY_DMA_IS_XFER_SIZE_VALID(xferSize)   ((CY_DMA_TRANSFER_SIZE_DATA == (xferSize)) || \
ARM GAS  C:\Users\cypress\AppData\Local\Temp\ccD9LaTb.s 			page 29


 291:Generated_Source\PSoC6\pdl\drivers\peripheral\dma/cy_dma.h ****                                                (CY_DMA_TRANSFER_SIZE_WORD == (xferSize)))
 292:Generated_Source\PSoC6\pdl\drivers\peripheral\dma/cy_dma.h ****                                               
 293:Generated_Source\PSoC6\pdl\drivers\peripheral\dma/cy_dma.h **** #define CY_DMA_IS_CHANNEL_STATE_VALID(state)  ((CY_DMA_CHANNEL_ENABLED  == (state)) || \
 294:Generated_Source\PSoC6\pdl\drivers\peripheral\dma/cy_dma.h ****                                                (CY_DMA_CHANNEL_DISABLED == (state)))
 295:Generated_Source\PSoC6\pdl\drivers\peripheral\dma/cy_dma.h ****                                                
 296:Generated_Source\PSoC6\pdl\drivers\peripheral\dma/cy_dma.h **** #define CY_DMA_IS_DATA_SIZE_VALID(dataSize)   ((CY_DMA_BYTE     == (dataSize)) || \
 297:Generated_Source\PSoC6\pdl\drivers\peripheral\dma/cy_dma.h ****                                                (CY_DMA_HALFWORD == (dataSize)) || \
 298:Generated_Source\PSoC6\pdl\drivers\peripheral\dma/cy_dma.h ****                                                (CY_DMA_WORD     == (dataSize)))
 299:Generated_Source\PSoC6\pdl\drivers\peripheral\dma/cy_dma.h ****                                                
 300:Generated_Source\PSoC6\pdl\drivers\peripheral\dma/cy_dma.h **** #define CY_DMA_IS_TYPE_VALID(descrType)       ((CY_DMA_SINGLE_TRANSFER == (descrType)) || \
 301:Generated_Source\PSoC6\pdl\drivers\peripheral\dma/cy_dma.h ****                                                (CY_DMA_1D_TRANSFER     == (descrType)) || \
 302:Generated_Source\PSoC6\pdl\drivers\peripheral\dma/cy_dma.h ****                                                (CY_DMA_2D_TRANSFER     == (descrType)))
 303:Generated_Source\PSoC6\pdl\drivers\peripheral\dma/cy_dma.h ****                                                
 304:Generated_Source\PSoC6\pdl\drivers\peripheral\dma/cy_dma.h **** #define CY_DMA_IS_DW_CH_NR_VALID(dwNr, chNr)  (((0U != CPUSS_DW0_PRESENT) && (DW0 == (dwNr)) && ((c
 305:Generated_Source\PSoC6\pdl\drivers\peripheral\dma/cy_dma.h ****                                                ((0U != CPUSS_DW1_PRESENT) && (DW1 == (dwNr)) && ((c
 306:Generated_Source\PSoC6\pdl\drivers\peripheral\dma/cy_dma.h **** 
 307:Generated_Source\PSoC6\pdl\drivers\peripheral\dma/cy_dma.h **** /* The descriptor structure bit-filed definitions */
 308:Generated_Source\PSoC6\pdl\drivers\peripheral\dma/cy_dma.h **** #define CY_DMA_CTL_RETRIG_Pos      0UL
 309:Generated_Source\PSoC6\pdl\drivers\peripheral\dma/cy_dma.h **** #define CY_DMA_CTL_RETRIG_Msk      0x3UL
 310:Generated_Source\PSoC6\pdl\drivers\peripheral\dma/cy_dma.h **** #define CY_DMA_CTL_INTR_TYPE_Pos   2UL
 311:Generated_Source\PSoC6\pdl\drivers\peripheral\dma/cy_dma.h **** #define CY_DMA_CTL_INTR_TYPE_Msk   0xCUL
 312:Generated_Source\PSoC6\pdl\drivers\peripheral\dma/cy_dma.h **** #define CY_DMA_CTL_TR_OUT_TYPE_Pos 4UL
 313:Generated_Source\PSoC6\pdl\drivers\peripheral\dma/cy_dma.h **** #define CY_DMA_CTL_TR_OUT_TYPE_Msk 0x30UL
 314:Generated_Source\PSoC6\pdl\drivers\peripheral\dma/cy_dma.h **** #define CY_DMA_CTL_TR_IN_TYPE_Pos  6UL
 315:Generated_Source\PSoC6\pdl\drivers\peripheral\dma/cy_dma.h **** #define CY_DMA_CTL_TR_IN_TYPE_Msk  0xC0UL
 316:Generated_Source\PSoC6\pdl\drivers\peripheral\dma/cy_dma.h **** #define CY_DMA_CTL_CH_DISABLE_Pos  24UL
 317:Generated_Source\PSoC6\pdl\drivers\peripheral\dma/cy_dma.h **** #define CY_DMA_CTL_CH_DISABLE_Msk  0x1000000UL
 318:Generated_Source\PSoC6\pdl\drivers\peripheral\dma/cy_dma.h **** #define CY_DMA_CTL_SRC_SIZE_Pos    26UL
 319:Generated_Source\PSoC6\pdl\drivers\peripheral\dma/cy_dma.h **** #define CY_DMA_CTL_SRC_SIZE_Msk    0x4000000UL
 320:Generated_Source\PSoC6\pdl\drivers\peripheral\dma/cy_dma.h **** #define CY_DMA_CTL_DST_SIZE_Pos    27UL
 321:Generated_Source\PSoC6\pdl\drivers\peripheral\dma/cy_dma.h **** #define CY_DMA_CTL_DST_SIZE_Msk    0x8000000UL
 322:Generated_Source\PSoC6\pdl\drivers\peripheral\dma/cy_dma.h **** #define CY_DMA_CTL_DATA_SIZE_Pos   28UL
 323:Generated_Source\PSoC6\pdl\drivers\peripheral\dma/cy_dma.h **** #define CY_DMA_CTL_DATA_SIZE_Msk   0x30000000UL
 324:Generated_Source\PSoC6\pdl\drivers\peripheral\dma/cy_dma.h **** #define CY_DMA_CTL_TYPE_Pos        30UL
 325:Generated_Source\PSoC6\pdl\drivers\peripheral\dma/cy_dma.h **** #define CY_DMA_CTL_TYPE_Msk        0xC0000000UL
 326:Generated_Source\PSoC6\pdl\drivers\peripheral\dma/cy_dma.h **** 
 327:Generated_Source\PSoC6\pdl\drivers\peripheral\dma/cy_dma.h **** #define CY_DMA_CTL_SRC_INCR_Pos    0UL
 328:Generated_Source\PSoC6\pdl\drivers\peripheral\dma/cy_dma.h **** #define CY_DMA_CTL_SRC_INCR_Msk    0xFFFUL
 329:Generated_Source\PSoC6\pdl\drivers\peripheral\dma/cy_dma.h **** #define CY_DMA_CTL_DST_INCR_Pos    12UL
 330:Generated_Source\PSoC6\pdl\drivers\peripheral\dma/cy_dma.h **** #define CY_DMA_CTL_DST_INCR_Msk    0xFFF000UL
 331:Generated_Source\PSoC6\pdl\drivers\peripheral\dma/cy_dma.h **** #define CY_DMA_CTL_COUNT_Pos       24UL
 332:Generated_Source\PSoC6\pdl\drivers\peripheral\dma/cy_dma.h **** #define CY_DMA_CTL_COUNT_Msk       0xFF000000UL
 333:Generated_Source\PSoC6\pdl\drivers\peripheral\dma/cy_dma.h **** 
 334:Generated_Source\PSoC6\pdl\drivers\peripheral\dma/cy_dma.h **** /** \endcond */
 335:Generated_Source\PSoC6\pdl\drivers\peripheral\dma/cy_dma.h **** 
 336:Generated_Source\PSoC6\pdl\drivers\peripheral\dma/cy_dma.h **** 
 337:Generated_Source\PSoC6\pdl\drivers\peripheral\dma/cy_dma.h **** /**
 338:Generated_Source\PSoC6\pdl\drivers\peripheral\dma/cy_dma.h **** * \addtogroup group_dma_data_structures
 339:Generated_Source\PSoC6\pdl\drivers\peripheral\dma/cy_dma.h **** * \{
 340:Generated_Source\PSoC6\pdl\drivers\peripheral\dma/cy_dma.h **** */
 341:Generated_Source\PSoC6\pdl\drivers\peripheral\dma/cy_dma.h **** 
 342:Generated_Source\PSoC6\pdl\drivers\peripheral\dma/cy_dma.h **** /** 
 343:Generated_Source\PSoC6\pdl\drivers\peripheral\dma/cy_dma.h **** * DMA descriptor structure type. It is a user/component-declared structure 
 344:Generated_Source\PSoC6\pdl\drivers\peripheral\dma/cy_dma.h **** * allocated in RAM. The DMA HW requires a pointer to this structure to work with it.
 345:Generated_Source\PSoC6\pdl\drivers\peripheral\dma/cy_dma.h **** *
 346:Generated_Source\PSoC6\pdl\drivers\peripheral\dma/cy_dma.h **** * For advanced users: the descriptor can be allocated even in Flash, then the user
 347:Generated_Source\PSoC6\pdl\drivers\peripheral\dma/cy_dma.h **** * manually predefines all the structure items with constants, 
ARM GAS  C:\Users\cypress\AppData\Local\Temp\ccD9LaTb.s 			page 30


 348:Generated_Source\PSoC6\pdl\drivers\peripheral\dma/cy_dma.h **** * bacause most of the driver's API (especially functions modifying
 349:Generated_Source\PSoC6\pdl\drivers\peripheral\dma/cy_dma.h **** * descriptors, including \ref Cy_DMA_Descriptor_Init()) can't work with 
 350:Generated_Source\PSoC6\pdl\drivers\peripheral\dma/cy_dma.h **** * read-only descriptors.
 351:Generated_Source\PSoC6\pdl\drivers\peripheral\dma/cy_dma.h **** */
 352:Generated_Source\PSoC6\pdl\drivers\peripheral\dma/cy_dma.h **** typedef struct
 353:Generated_Source\PSoC6\pdl\drivers\peripheral\dma/cy_dma.h **** {
 354:Generated_Source\PSoC6\pdl\drivers\peripheral\dma/cy_dma.h ****     uint32_t ctl;                    /*!< 0x00000000 Descriptor control */
 355:Generated_Source\PSoC6\pdl\drivers\peripheral\dma/cy_dma.h ****     uint32_t src;                    /*!< 0x00000004 Descriptor source */
 356:Generated_Source\PSoC6\pdl\drivers\peripheral\dma/cy_dma.h ****     uint32_t dst;                    /*!< 0x00000008 Descriptor destination */
 357:Generated_Source\PSoC6\pdl\drivers\peripheral\dma/cy_dma.h ****     uint32_t xCtl;                   /*!< 0x0000000C Descriptor X loop control */
 358:Generated_Source\PSoC6\pdl\drivers\peripheral\dma/cy_dma.h ****     uint32_t yCtl;                   /*!< 0x00000010 Descriptor Y loop control */
 359:Generated_Source\PSoC6\pdl\drivers\peripheral\dma/cy_dma.h ****     uint32_t nextPtr;                /*!< 0x00000014 Descriptor next pointer */
 360:Generated_Source\PSoC6\pdl\drivers\peripheral\dma/cy_dma.h **** } cy_stc_dma_descriptor_t;
 361:Generated_Source\PSoC6\pdl\drivers\peripheral\dma/cy_dma.h **** 
 362:Generated_Source\PSoC6\pdl\drivers\peripheral\dma/cy_dma.h **** /**
 363:Generated_Source\PSoC6\pdl\drivers\peripheral\dma/cy_dma.h **** * This structure is a configuration structure pre-initialized by the user and
 364:Generated_Source\PSoC6\pdl\drivers\peripheral\dma/cy_dma.h **** * passed as a parameter to the \ref Cy_DMA_Descriptor_Init().
 365:Generated_Source\PSoC6\pdl\drivers\peripheral\dma/cy_dma.h **** * It can be allocated in RAM/Flash (on user's choice).
 366:Generated_Source\PSoC6\pdl\drivers\peripheral\dma/cy_dma.h **** * In case of Flash allocation there is a possibility to reinitialize the descriptor in runtime.
 367:Generated_Source\PSoC6\pdl\drivers\peripheral\dma/cy_dma.h **** * This structure has all the parameters of the descriptor as separate parameters.
 368:Generated_Source\PSoC6\pdl\drivers\peripheral\dma/cy_dma.h **** * Most of these parameters are represented in the \ref cy_stc_dma_descriptor_t structure as bit fie
 369:Generated_Source\PSoC6\pdl\drivers\peripheral\dma/cy_dma.h **** */
 370:Generated_Source\PSoC6\pdl\drivers\peripheral\dma/cy_dma.h **** typedef struct
 371:Generated_Source\PSoC6\pdl\drivers\peripheral\dma/cy_dma.h **** {
 372:Generated_Source\PSoC6\pdl\drivers\peripheral\dma/cy_dma.h ****     cy_en_dma_retrigger_t       retrigger;       /**< Specifies whether the DW controller should wa
 373:Generated_Source\PSoC6\pdl\drivers\peripheral\dma/cy_dma.h ****     cy_en_dma_trigger_type_t    interruptType;   /**< Sets the event that triggers an interrupt, se
 374:Generated_Source\PSoC6\pdl\drivers\peripheral\dma/cy_dma.h ****     cy_en_dma_trigger_type_t    triggerOutType;  /**< Sets the event that triggers an output,    se
 375:Generated_Source\PSoC6\pdl\drivers\peripheral\dma/cy_dma.h ****     cy_en_dma_channel_state_t   channelState;    /**< Specifies if the channel is enabled or disabl
 376:Generated_Source\PSoC6\pdl\drivers\peripheral\dma/cy_dma.h ****     cy_en_dma_trigger_type_t    triggerInType;   /**< Sets what type of transfer is triggered,   se
 377:Generated_Source\PSoC6\pdl\drivers\peripheral\dma/cy_dma.h ****     cy_en_dma_data_size_t       dataSize;        /**< The size of the data bus for transfer,     se
 378:Generated_Source\PSoC6\pdl\drivers\peripheral\dma/cy_dma.h ****     cy_en_dma_transfer_size_t   srcTransferSize; /**< The source transfer size. */
 379:Generated_Source\PSoC6\pdl\drivers\peripheral\dma/cy_dma.h ****     cy_en_dma_transfer_size_t   dstTransferSize; /**< The destination transfer size. */
 380:Generated_Source\PSoC6\pdl\drivers\peripheral\dma/cy_dma.h ****     cy_en_dma_descriptor_type_t descriptorType;  /**< The type of the descriptor                 se
 381:Generated_Source\PSoC6\pdl\drivers\peripheral\dma/cy_dma.h ****     void *                      srcAddress;      /**< The source address of the transfer. */
 382:Generated_Source\PSoC6\pdl\drivers\peripheral\dma/cy_dma.h ****     void *                      dstAddress;      /**< The destination address of the transfer. */
 383:Generated_Source\PSoC6\pdl\drivers\peripheral\dma/cy_dma.h ****     int32_t                     srcXincrement;   /**< The address increment of the source after eac
 384:Generated_Source\PSoC6\pdl\drivers\peripheral\dma/cy_dma.h ****     int32_t                     dstXincrement;   /**< The address increment of the destination afte
 385:Generated_Source\PSoC6\pdl\drivers\peripheral\dma/cy_dma.h ****     uint32_t                    xCount;          /**< The number of transfers in an X-loop. Valid r
 386:Generated_Source\PSoC6\pdl\drivers\peripheral\dma/cy_dma.h ****     int32_t                     srcYincrement;   /**< The address increment of the source after eac
 387:Generated_Source\PSoC6\pdl\drivers\peripheral\dma/cy_dma.h ****     int32_t                     dstYincrement;   /**< The address increment of the destination afte
 388:Generated_Source\PSoC6\pdl\drivers\peripheral\dma/cy_dma.h ****     uint32_t                    yCount;          /**< The number of X-loops in the Y-loop. Valid ra
 389:Generated_Source\PSoC6\pdl\drivers\peripheral\dma/cy_dma.h ****     cy_stc_dma_descriptor_t *   nextDescriptor;  /**< The next descriptor to chain after completion
 390:Generated_Source\PSoC6\pdl\drivers\peripheral\dma/cy_dma.h **** } cy_stc_dma_descriptor_config_t;
 391:Generated_Source\PSoC6\pdl\drivers\peripheral\dma/cy_dma.h **** 
 392:Generated_Source\PSoC6\pdl\drivers\peripheral\dma/cy_dma.h **** /** This structure holds the initialization values for the DMA channel */
 393:Generated_Source\PSoC6\pdl\drivers\peripheral\dma/cy_dma.h **** typedef struct
 394:Generated_Source\PSoC6\pdl\drivers\peripheral\dma/cy_dma.h **** {
 395:Generated_Source\PSoC6\pdl\drivers\peripheral\dma/cy_dma.h ****     cy_stc_dma_descriptor_t * descriptor;      /**< The DMA descriptor associated with the channel 
 396:Generated_Source\PSoC6\pdl\drivers\peripheral\dma/cy_dma.h ****     bool     preemptable;                      /**< Specifies if the channel is preemptable by anot
 397:Generated_Source\PSoC6\pdl\drivers\peripheral\dma/cy_dma.h ****     uint32_t priority;                         /**< This parameter specifies the channel's priority
 398:Generated_Source\PSoC6\pdl\drivers\peripheral\dma/cy_dma.h ****     bool     enable;                           /**< This parameter specifies if the channel is enab
 399:Generated_Source\PSoC6\pdl\drivers\peripheral\dma/cy_dma.h ****     bool     bufferable;                       /**< This parameter specifies whether a write transa
 400:Generated_Source\PSoC6\pdl\drivers\peripheral\dma/cy_dma.h ****                                                     without waiting for the destination to accept t
 401:Generated_Source\PSoC6\pdl\drivers\peripheral\dma/cy_dma.h **** } cy_stc_dma_channel_config_t;
 402:Generated_Source\PSoC6\pdl\drivers\peripheral\dma/cy_dma.h **** 
 403:Generated_Source\PSoC6\pdl\drivers\peripheral\dma/cy_dma.h **** /** \} group_dma_data_structures */
 404:Generated_Source\PSoC6\pdl\drivers\peripheral\dma/cy_dma.h **** 
ARM GAS  C:\Users\cypress\AppData\Local\Temp\ccD9LaTb.s 			page 31


 405:Generated_Source\PSoC6\pdl\drivers\peripheral\dma/cy_dma.h **** 
 406:Generated_Source\PSoC6\pdl\drivers\peripheral\dma/cy_dma.h **** /**
 407:Generated_Source\PSoC6\pdl\drivers\peripheral\dma/cy_dma.h **** * \addtogroup group_dma_functions
 408:Generated_Source\PSoC6\pdl\drivers\peripheral\dma/cy_dma.h **** * \{
 409:Generated_Source\PSoC6\pdl\drivers\peripheral\dma/cy_dma.h **** */
 410:Generated_Source\PSoC6\pdl\drivers\peripheral\dma/cy_dma.h **** 
 411:Generated_Source\PSoC6\pdl\drivers\peripheral\dma/cy_dma.h **** __STATIC_INLINE void     Cy_DMA_Enable             (DW_Type * base);
 412:Generated_Source\PSoC6\pdl\drivers\peripheral\dma/cy_dma.h **** __STATIC_INLINE void     Cy_DMA_Disable            (DW_Type * base);
 413:Generated_Source\PSoC6\pdl\drivers\peripheral\dma/cy_dma.h **** __STATIC_INLINE uint32_t Cy_DMA_GetActiveChannel   (DW_Type const * base);
 414:Generated_Source\PSoC6\pdl\drivers\peripheral\dma/cy_dma.h **** __STATIC_INLINE void *   Cy_DMA_GetActiveSrcAddress(DW_Type const * base);
 415:Generated_Source\PSoC6\pdl\drivers\peripheral\dma/cy_dma.h **** __STATIC_INLINE void *   Cy_DMA_GetActiveDstAddress(DW_Type const * base);
 416:Generated_Source\PSoC6\pdl\drivers\peripheral\dma/cy_dma.h **** 
 417:Generated_Source\PSoC6\pdl\drivers\peripheral\dma/cy_dma.h **** 
 418:Generated_Source\PSoC6\pdl\drivers\peripheral\dma/cy_dma.h **** /**
 419:Generated_Source\PSoC6\pdl\drivers\peripheral\dma/cy_dma.h **** * \addtogroup group_dma_descriptor_functions
 420:Generated_Source\PSoC6\pdl\drivers\peripheral\dma/cy_dma.h **** * \{
 421:Generated_Source\PSoC6\pdl\drivers\peripheral\dma/cy_dma.h **** */
 422:Generated_Source\PSoC6\pdl\drivers\peripheral\dma/cy_dma.h **** 
 423:Generated_Source\PSoC6\pdl\drivers\peripheral\dma/cy_dma.h ****   cy_en_dma_status_t Cy_DMA_Descriptor_Init  (cy_stc_dma_descriptor_t * descriptor, cy_stc_dma_desc
 424:Generated_Source\PSoC6\pdl\drivers\peripheral\dma/cy_dma.h ****                 void Cy_DMA_Descriptor_DeInit(cy_stc_dma_descriptor_t * descriptor);
 425:Generated_Source\PSoC6\pdl\drivers\peripheral\dma/cy_dma.h ****                 
 426:Generated_Source\PSoC6\pdl\drivers\peripheral\dma/cy_dma.h ****                 void Cy_DMA_Descriptor_SetNextDescriptor   (cy_stc_dma_descriptor_t * descriptor, c
 427:Generated_Source\PSoC6\pdl\drivers\peripheral\dma/cy_dma.h ****                 void Cy_DMA_Descriptor_SetDescriptorType   (cy_stc_dma_descriptor_t * descriptor, c
 428:Generated_Source\PSoC6\pdl\drivers\peripheral\dma/cy_dma.h **** __STATIC_INLINE void Cy_DMA_Descriptor_SetSrcAddress       (cy_stc_dma_descriptor_t * descriptor, v
 429:Generated_Source\PSoC6\pdl\drivers\peripheral\dma/cy_dma.h **** __STATIC_INLINE void Cy_DMA_Descriptor_SetDstAddress       (cy_stc_dma_descriptor_t * descriptor, v
 430:Generated_Source\PSoC6\pdl\drivers\peripheral\dma/cy_dma.h **** __STATIC_INLINE void Cy_DMA_Descriptor_SetXloopDataCount   (cy_stc_dma_descriptor_t * descriptor, u
 431:Generated_Source\PSoC6\pdl\drivers\peripheral\dma/cy_dma.h **** __STATIC_INLINE void Cy_DMA_Descriptor_SetYloopDataCount   (cy_stc_dma_descriptor_t * descriptor, u
 432:Generated_Source\PSoC6\pdl\drivers\peripheral\dma/cy_dma.h **** __STATIC_INLINE void Cy_DMA_Descriptor_SetXloopSrcIncrement(cy_stc_dma_descriptor_t * descriptor, i
 433:Generated_Source\PSoC6\pdl\drivers\peripheral\dma/cy_dma.h **** __STATIC_INLINE void Cy_DMA_Descriptor_SetXloopDstIncrement(cy_stc_dma_descriptor_t * descriptor, i
 434:Generated_Source\PSoC6\pdl\drivers\peripheral\dma/cy_dma.h **** __STATIC_INLINE void Cy_DMA_Descriptor_SetYloopSrcIncrement(cy_stc_dma_descriptor_t * descriptor, i
 435:Generated_Source\PSoC6\pdl\drivers\peripheral\dma/cy_dma.h **** __STATIC_INLINE void Cy_DMA_Descriptor_SetYloopDstIncrement(cy_stc_dma_descriptor_t * descriptor, i
 436:Generated_Source\PSoC6\pdl\drivers\peripheral\dma/cy_dma.h **** __STATIC_INLINE void Cy_DMA_Descriptor_SetInterruptType    (cy_stc_dma_descriptor_t * descriptor, c
 437:Generated_Source\PSoC6\pdl\drivers\peripheral\dma/cy_dma.h **** __STATIC_INLINE void Cy_DMA_Descriptor_SetTriggerInType    (cy_stc_dma_descriptor_t * descriptor, c
 438:Generated_Source\PSoC6\pdl\drivers\peripheral\dma/cy_dma.h **** __STATIC_INLINE void Cy_DMA_Descriptor_SetTriggerOutType   (cy_stc_dma_descriptor_t * descriptor, c
 439:Generated_Source\PSoC6\pdl\drivers\peripheral\dma/cy_dma.h **** __STATIC_INLINE void Cy_DMA_Descriptor_SetDataSize         (cy_stc_dma_descriptor_t * descriptor, c
 440:Generated_Source\PSoC6\pdl\drivers\peripheral\dma/cy_dma.h **** __STATIC_INLINE void Cy_DMA_Descriptor_SetSrcTransferSize  (cy_stc_dma_descriptor_t * descriptor, c
 441:Generated_Source\PSoC6\pdl\drivers\peripheral\dma/cy_dma.h **** __STATIC_INLINE void Cy_DMA_Descriptor_SetDstTransferSize  (cy_stc_dma_descriptor_t * descriptor, c
 442:Generated_Source\PSoC6\pdl\drivers\peripheral\dma/cy_dma.h **** __STATIC_INLINE void Cy_DMA_Descriptor_SetRetrigger        (cy_stc_dma_descriptor_t * descriptor, c
 443:Generated_Source\PSoC6\pdl\drivers\peripheral\dma/cy_dma.h **** __STATIC_INLINE void Cy_DMA_Descriptor_SetChannelState     (cy_stc_dma_descriptor_t * descriptor, c
 444:Generated_Source\PSoC6\pdl\drivers\peripheral\dma/cy_dma.h **** 
 445:Generated_Source\PSoC6\pdl\drivers\peripheral\dma/cy_dma.h ****                 cy_stc_dma_descriptor_t *   Cy_DMA_Descriptor_GetNextDescriptor   (cy_stc_dma_descr
 446:Generated_Source\PSoC6\pdl\drivers\peripheral\dma/cy_dma.h **** __STATIC_INLINE cy_en_dma_descriptor_type_t Cy_DMA_Descriptor_GetDescriptorType   (cy_stc_dma_descr
 447:Generated_Source\PSoC6\pdl\drivers\peripheral\dma/cy_dma.h **** __STATIC_INLINE void *                      Cy_DMA_Descriptor_GetSrcAddress       (cy_stc_dma_descr
 448:Generated_Source\PSoC6\pdl\drivers\peripheral\dma/cy_dma.h **** __STATIC_INLINE void *                      Cy_DMA_Descriptor_GetDstAddress       (cy_stc_dma_descr
 449:Generated_Source\PSoC6\pdl\drivers\peripheral\dma/cy_dma.h **** __STATIC_INLINE uint32_t                    Cy_DMA_Descriptor_GetXloopDataCount   (cy_stc_dma_descr
 450:Generated_Source\PSoC6\pdl\drivers\peripheral\dma/cy_dma.h **** __STATIC_INLINE uint32_t                    Cy_DMA_Descriptor_GetYloopDataCount   (cy_stc_dma_descr
 451:Generated_Source\PSoC6\pdl\drivers\peripheral\dma/cy_dma.h **** __STATIC_INLINE int32_t                     Cy_DMA_Descriptor_GetXloopSrcIncrement(cy_stc_dma_descr
 452:Generated_Source\PSoC6\pdl\drivers\peripheral\dma/cy_dma.h **** __STATIC_INLINE int32_t                     Cy_DMA_Descriptor_GetXloopDstIncrement(cy_stc_dma_descr
 453:Generated_Source\PSoC6\pdl\drivers\peripheral\dma/cy_dma.h **** __STATIC_INLINE int32_t                     Cy_DMA_Descriptor_GetYloopSrcIncrement(cy_stc_dma_descr
 454:Generated_Source\PSoC6\pdl\drivers\peripheral\dma/cy_dma.h **** __STATIC_INLINE int32_t                     Cy_DMA_Descriptor_GetYloopDstIncrement(cy_stc_dma_descr
 455:Generated_Source\PSoC6\pdl\drivers\peripheral\dma/cy_dma.h **** __STATIC_INLINE cy_en_dma_trigger_type_t    Cy_DMA_Descriptor_GetInterruptType    (cy_stc_dma_descr
 456:Generated_Source\PSoC6\pdl\drivers\peripheral\dma/cy_dma.h **** __STATIC_INLINE cy_en_dma_trigger_type_t    Cy_DMA_Descriptor_GetTriggerInType    (cy_stc_dma_descr
 457:Generated_Source\PSoC6\pdl\drivers\peripheral\dma/cy_dma.h **** __STATIC_INLINE cy_en_dma_trigger_type_t    Cy_DMA_Descriptor_GetTriggerOutType   (cy_stc_dma_descr
 458:Generated_Source\PSoC6\pdl\drivers\peripheral\dma/cy_dma.h **** __STATIC_INLINE cy_en_dma_data_size_t       Cy_DMA_Descriptor_GetDataSize         (cy_stc_dma_descr
 459:Generated_Source\PSoC6\pdl\drivers\peripheral\dma/cy_dma.h **** __STATIC_INLINE cy_en_dma_transfer_size_t   Cy_DMA_Descriptor_GetSrcTransferSize  (cy_stc_dma_descr
 460:Generated_Source\PSoC6\pdl\drivers\peripheral\dma/cy_dma.h **** __STATIC_INLINE cy_en_dma_transfer_size_t   Cy_DMA_Descriptor_GetDstTransferSize  (cy_stc_dma_descr
 461:Generated_Source\PSoC6\pdl\drivers\peripheral\dma/cy_dma.h **** __STATIC_INLINE cy_en_dma_retrigger_t       Cy_DMA_Descriptor_GetRetrigger        (cy_stc_dma_descr
ARM GAS  C:\Users\cypress\AppData\Local\Temp\ccD9LaTb.s 			page 32


 462:Generated_Source\PSoC6\pdl\drivers\peripheral\dma/cy_dma.h **** __STATIC_INLINE cy_en_dma_channel_state_t   Cy_DMA_Descriptor_GetChannelState     (cy_stc_dma_descr
 463:Generated_Source\PSoC6\pdl\drivers\peripheral\dma/cy_dma.h **** 
 464:Generated_Source\PSoC6\pdl\drivers\peripheral\dma/cy_dma.h **** /** \} group_dma_descriptor_functions */
 465:Generated_Source\PSoC6\pdl\drivers\peripheral\dma/cy_dma.h **** 
 466:Generated_Source\PSoC6\pdl\drivers\peripheral\dma/cy_dma.h **** 
 467:Generated_Source\PSoC6\pdl\drivers\peripheral\dma/cy_dma.h **** /**
 468:Generated_Source\PSoC6\pdl\drivers\peripheral\dma/cy_dma.h **** * \addtogroup group_dma_channel_functions
 469:Generated_Source\PSoC6\pdl\drivers\peripheral\dma/cy_dma.h **** * \{
 470:Generated_Source\PSoC6\pdl\drivers\peripheral\dma/cy_dma.h **** */
 471:Generated_Source\PSoC6\pdl\drivers\peripheral\dma/cy_dma.h **** 
 472:Generated_Source\PSoC6\pdl\drivers\peripheral\dma/cy_dma.h ****       cy_en_dma_status_t Cy_DMA_Channel_Init         (DW_Type * base, uint32_t channel, cy_stc_dma_
 473:Generated_Source\PSoC6\pdl\drivers\peripheral\dma/cy_dma.h ****                 void     Cy_DMA_Channel_DeInit       (DW_Type * base, uint32_t channel);
 474:Generated_Source\PSoC6\pdl\drivers\peripheral\dma/cy_dma.h **** __STATIC_INLINE void     Cy_DMA_Channel_SetDescriptor(DW_Type * base, uint32_t channel, cy_stc_dma_
 475:Generated_Source\PSoC6\pdl\drivers\peripheral\dma/cy_dma.h **** __STATIC_INLINE void     Cy_DMA_Channel_Enable       (DW_Type * base, uint32_t channel);
 476:Generated_Source\PSoC6\pdl\drivers\peripheral\dma/cy_dma.h **** __STATIC_INLINE void     Cy_DMA_Channel_Disable      (DW_Type * base, uint32_t channel);
 477:Generated_Source\PSoC6\pdl\drivers\peripheral\dma/cy_dma.h **** __STATIC_INLINE void     Cy_DMA_Channel_SetPriority  (DW_Type * base, uint32_t channel, uint32_t pr
 478:Generated_Source\PSoC6\pdl\drivers\peripheral\dma/cy_dma.h **** __STATIC_INLINE uint32_t Cy_DMA_Channel_GetPriority  (DW_Type const * base, uint32_t channel);
 479:Generated_Source\PSoC6\pdl\drivers\peripheral\dma/cy_dma.h **** __STATIC_INLINE cy_en_dma_intr_cause_t Cy_DMA_Channel_GetStatus(DW_Type const * base, uint32_t chan
 480:Generated_Source\PSoC6\pdl\drivers\peripheral\dma/cy_dma.h **** __STATIC_INLINE cy_stc_dma_descriptor_t * Cy_DMA_Channel_GetCurrentDescriptor(DW_Type const * base,
 481:Generated_Source\PSoC6\pdl\drivers\peripheral\dma/cy_dma.h **** 
 482:Generated_Source\PSoC6\pdl\drivers\peripheral\dma/cy_dma.h **** __STATIC_INLINE uint32_t Cy_DMA_Channel_GetInterruptStatus      (DW_Type const * base, uint32_t cha
 483:Generated_Source\PSoC6\pdl\drivers\peripheral\dma/cy_dma.h **** __STATIC_INLINE void     Cy_DMA_Channel_ClearInterrupt          (DW_Type       * base, uint32_t cha
 484:Generated_Source\PSoC6\pdl\drivers\peripheral\dma/cy_dma.h **** __STATIC_INLINE void     Cy_DMA_Channel_SetInterrupt            (DW_Type       * base, uint32_t cha
 485:Generated_Source\PSoC6\pdl\drivers\peripheral\dma/cy_dma.h **** __STATIC_INLINE uint32_t Cy_DMA_Channel_GetInterruptMask        (DW_Type const * base, uint32_t cha
 486:Generated_Source\PSoC6\pdl\drivers\peripheral\dma/cy_dma.h **** __STATIC_INLINE void     Cy_DMA_Channel_SetInterruptMask        (DW_Type       * base, uint32_t cha
 487:Generated_Source\PSoC6\pdl\drivers\peripheral\dma/cy_dma.h **** __STATIC_INLINE uint32_t Cy_DMA_Channel_GetInterruptStatusMasked(DW_Type const * base, uint32_t cha
 488:Generated_Source\PSoC6\pdl\drivers\peripheral\dma/cy_dma.h **** 
 489:Generated_Source\PSoC6\pdl\drivers\peripheral\dma/cy_dma.h **** /** \} group_dma_channel_functions */
 490:Generated_Source\PSoC6\pdl\drivers\peripheral\dma/cy_dma.h **** 
 491:Generated_Source\PSoC6\pdl\drivers\peripheral\dma/cy_dma.h **** 
 492:Generated_Source\PSoC6\pdl\drivers\peripheral\dma/cy_dma.h **** /***************************************
 493:Generated_Source\PSoC6\pdl\drivers\peripheral\dma/cy_dma.h **** *    In-line Function Implementation
 494:Generated_Source\PSoC6\pdl\drivers\peripheral\dma/cy_dma.h **** ***************************************/
 495:Generated_Source\PSoC6\pdl\drivers\peripheral\dma/cy_dma.h **** 
 496:Generated_Source\PSoC6\pdl\drivers\peripheral\dma/cy_dma.h **** 
 497:Generated_Source\PSoC6\pdl\drivers\peripheral\dma/cy_dma.h **** /**
 498:Generated_Source\PSoC6\pdl\drivers\peripheral\dma/cy_dma.h **** * \addtogroup group_dma_block_functions
 499:Generated_Source\PSoC6\pdl\drivers\peripheral\dma/cy_dma.h **** * \{
 500:Generated_Source\PSoC6\pdl\drivers\peripheral\dma/cy_dma.h **** */
 501:Generated_Source\PSoC6\pdl\drivers\peripheral\dma/cy_dma.h **** 
 502:Generated_Source\PSoC6\pdl\drivers\peripheral\dma/cy_dma.h **** 
 503:Generated_Source\PSoC6\pdl\drivers\peripheral\dma/cy_dma.h **** /*******************************************************************************
 504:Generated_Source\PSoC6\pdl\drivers\peripheral\dma/cy_dma.h **** * Function Name: Cy_DMA_Enable
 505:Generated_Source\PSoC6\pdl\drivers\peripheral\dma/cy_dma.h **** ****************************************************************************//**
 506:Generated_Source\PSoC6\pdl\drivers\peripheral\dma/cy_dma.h **** *
 507:Generated_Source\PSoC6\pdl\drivers\peripheral\dma/cy_dma.h **** * Enables the DMA block.
 508:Generated_Source\PSoC6\pdl\drivers\peripheral\dma/cy_dma.h **** *
 509:Generated_Source\PSoC6\pdl\drivers\peripheral\dma/cy_dma.h **** * \param base
 510:Generated_Source\PSoC6\pdl\drivers\peripheral\dma/cy_dma.h **** * The pointer to the hardware DMA block.
 511:Generated_Source\PSoC6\pdl\drivers\peripheral\dma/cy_dma.h **** *
 512:Generated_Source\PSoC6\pdl\drivers\peripheral\dma/cy_dma.h **** *******************************************************************************/
 513:Generated_Source\PSoC6\pdl\drivers\peripheral\dma/cy_dma.h **** __STATIC_INLINE void Cy_DMA_Enable(DW_Type * base)
 514:Generated_Source\PSoC6\pdl\drivers\peripheral\dma/cy_dma.h **** {
 515:Generated_Source\PSoC6\pdl\drivers\peripheral\dma/cy_dma.h ****     base->CTL |= DW_CTL_ENABLED_Msk;
 516:Generated_Source\PSoC6\pdl\drivers\peripheral\dma/cy_dma.h **** }
 517:Generated_Source\PSoC6\pdl\drivers\peripheral\dma/cy_dma.h **** 
 518:Generated_Source\PSoC6\pdl\drivers\peripheral\dma/cy_dma.h **** 
ARM GAS  C:\Users\cypress\AppData\Local\Temp\ccD9LaTb.s 			page 33


 519:Generated_Source\PSoC6\pdl\drivers\peripheral\dma/cy_dma.h **** /*******************************************************************************
 520:Generated_Source\PSoC6\pdl\drivers\peripheral\dma/cy_dma.h **** * Function Name: Cy_DMA_Disable
 521:Generated_Source\PSoC6\pdl\drivers\peripheral\dma/cy_dma.h **** ****************************************************************************//**
 522:Generated_Source\PSoC6\pdl\drivers\peripheral\dma/cy_dma.h **** *
 523:Generated_Source\PSoC6\pdl\drivers\peripheral\dma/cy_dma.h **** * Disables the DMA block.
 524:Generated_Source\PSoC6\pdl\drivers\peripheral\dma/cy_dma.h **** *
 525:Generated_Source\PSoC6\pdl\drivers\peripheral\dma/cy_dma.h **** * \param base
 526:Generated_Source\PSoC6\pdl\drivers\peripheral\dma/cy_dma.h **** * The pointer to the hardware DMA block.
 527:Generated_Source\PSoC6\pdl\drivers\peripheral\dma/cy_dma.h **** *
 528:Generated_Source\PSoC6\pdl\drivers\peripheral\dma/cy_dma.h **** *******************************************************************************/
 529:Generated_Source\PSoC6\pdl\drivers\peripheral\dma/cy_dma.h **** __STATIC_INLINE void Cy_DMA_Disable(DW_Type * base)
 530:Generated_Source\PSoC6\pdl\drivers\peripheral\dma/cy_dma.h **** {
 531:Generated_Source\PSoC6\pdl\drivers\peripheral\dma/cy_dma.h ****     base->CTL &= (uint32_t) ~DW_CTL_ENABLED_Msk;
 532:Generated_Source\PSoC6\pdl\drivers\peripheral\dma/cy_dma.h **** }
 533:Generated_Source\PSoC6\pdl\drivers\peripheral\dma/cy_dma.h **** 
 534:Generated_Source\PSoC6\pdl\drivers\peripheral\dma/cy_dma.h **** 
 535:Generated_Source\PSoC6\pdl\drivers\peripheral\dma/cy_dma.h **** /*******************************************************************************
 536:Generated_Source\PSoC6\pdl\drivers\peripheral\dma/cy_dma.h **** * Function Name: Cy_DMA_GetActiveChannel
 537:Generated_Source\PSoC6\pdl\drivers\peripheral\dma/cy_dma.h **** ****************************************************************************//**
 538:Generated_Source\PSoC6\pdl\drivers\peripheral\dma/cy_dma.h **** *
 539:Generated_Source\PSoC6\pdl\drivers\peripheral\dma/cy_dma.h **** * Returns the status of the active/pending channels.
 540:Generated_Source\PSoC6\pdl\drivers\peripheral\dma/cy_dma.h **** * the DMA block.
 541:Generated_Source\PSoC6\pdl\drivers\peripheral\dma/cy_dma.h **** *
 542:Generated_Source\PSoC6\pdl\drivers\peripheral\dma/cy_dma.h **** * \param base
 543:Generated_Source\PSoC6\pdl\drivers\peripheral\dma/cy_dma.h **** * The pointer to the hardware DMA block.
 544:Generated_Source\PSoC6\pdl\drivers\peripheral\dma/cy_dma.h **** *
 545:Generated_Source\PSoC6\pdl\drivers\peripheral\dma/cy_dma.h **** * \return
 546:Generated_Source\PSoC6\pdl\drivers\peripheral\dma/cy_dma.h **** * Returns a bit-field with all of the currently active/pending channels in the
 547:Generated_Source\PSoC6\pdl\drivers\peripheral\dma/cy_dma.h **** * DMA block.
 548:Generated_Source\PSoC6\pdl\drivers\peripheral\dma/cy_dma.h **** *
 549:Generated_Source\PSoC6\pdl\drivers\peripheral\dma/cy_dma.h **** *******************************************************************************/
 550:Generated_Source\PSoC6\pdl\drivers\peripheral\dma/cy_dma.h **** __STATIC_INLINE uint32_t Cy_DMA_GetActiveChannel(DW_Type const * base)
 551:Generated_Source\PSoC6\pdl\drivers\peripheral\dma/cy_dma.h **** {
 552:Generated_Source\PSoC6\pdl\drivers\peripheral\dma/cy_dma.h ****     return(_FLD2VAL(DW_STATUS_CH_IDX, base->STATUS));
 553:Generated_Source\PSoC6\pdl\drivers\peripheral\dma/cy_dma.h **** }
 554:Generated_Source\PSoC6\pdl\drivers\peripheral\dma/cy_dma.h **** 
 555:Generated_Source\PSoC6\pdl\drivers\peripheral\dma/cy_dma.h **** 
 556:Generated_Source\PSoC6\pdl\drivers\peripheral\dma/cy_dma.h **** /*******************************************************************************
 557:Generated_Source\PSoC6\pdl\drivers\peripheral\dma/cy_dma.h **** * Function Name: Cy_DMA_GetActiveSrcAddress
 558:Generated_Source\PSoC6\pdl\drivers\peripheral\dma/cy_dma.h **** ****************************************************************************//**
 559:Generated_Source\PSoC6\pdl\drivers\peripheral\dma/cy_dma.h **** *
 560:Generated_Source\PSoC6\pdl\drivers\peripheral\dma/cy_dma.h **** * Returns the source address being used for the current transfer.
 561:Generated_Source\PSoC6\pdl\drivers\peripheral\dma/cy_dma.h **** *
 562:Generated_Source\PSoC6\pdl\drivers\peripheral\dma/cy_dma.h **** * \param base
 563:Generated_Source\PSoC6\pdl\drivers\peripheral\dma/cy_dma.h **** * The pointer to the hardware DMA block.
 564:Generated_Source\PSoC6\pdl\drivers\peripheral\dma/cy_dma.h **** *
 565:Generated_Source\PSoC6\pdl\drivers\peripheral\dma/cy_dma.h **** * \return
 566:Generated_Source\PSoC6\pdl\drivers\peripheral\dma/cy_dma.h **** * Returns the pointer to the source of transfer.
 567:Generated_Source\PSoC6\pdl\drivers\peripheral\dma/cy_dma.h **** *
 568:Generated_Source\PSoC6\pdl\drivers\peripheral\dma/cy_dma.h **** *******************************************************************************/
 569:Generated_Source\PSoC6\pdl\drivers\peripheral\dma/cy_dma.h **** __STATIC_INLINE void * Cy_DMA_GetActiveSrcAddress(DW_Type const * base)
 570:Generated_Source\PSoC6\pdl\drivers\peripheral\dma/cy_dma.h **** {
 571:Generated_Source\PSoC6\pdl\drivers\peripheral\dma/cy_dma.h ****     return ((void *)base->ACT_DESCR_SRC);
 572:Generated_Source\PSoC6\pdl\drivers\peripheral\dma/cy_dma.h **** }
 573:Generated_Source\PSoC6\pdl\drivers\peripheral\dma/cy_dma.h **** 
 574:Generated_Source\PSoC6\pdl\drivers\peripheral\dma/cy_dma.h **** 
 575:Generated_Source\PSoC6\pdl\drivers\peripheral\dma/cy_dma.h **** /*******************************************************************************
ARM GAS  C:\Users\cypress\AppData\Local\Temp\ccD9LaTb.s 			page 34


 576:Generated_Source\PSoC6\pdl\drivers\peripheral\dma/cy_dma.h **** * Function Name: Cy_DMA_GetActiveDstAddress
 577:Generated_Source\PSoC6\pdl\drivers\peripheral\dma/cy_dma.h **** ****************************************************************************//**
 578:Generated_Source\PSoC6\pdl\drivers\peripheral\dma/cy_dma.h **** *
 579:Generated_Source\PSoC6\pdl\drivers\peripheral\dma/cy_dma.h **** * Returns the destination address being used for the current transfer.
 580:Generated_Source\PSoC6\pdl\drivers\peripheral\dma/cy_dma.h **** *
 581:Generated_Source\PSoC6\pdl\drivers\peripheral\dma/cy_dma.h **** * \param base
 582:Generated_Source\PSoC6\pdl\drivers\peripheral\dma/cy_dma.h **** * The pointer to the hardware DMA block.
 583:Generated_Source\PSoC6\pdl\drivers\peripheral\dma/cy_dma.h **** *
 584:Generated_Source\PSoC6\pdl\drivers\peripheral\dma/cy_dma.h **** * \return
 585:Generated_Source\PSoC6\pdl\drivers\peripheral\dma/cy_dma.h **** * Returns the pointer to the destination of transfer.
 586:Generated_Source\PSoC6\pdl\drivers\peripheral\dma/cy_dma.h **** *
 587:Generated_Source\PSoC6\pdl\drivers\peripheral\dma/cy_dma.h **** *******************************************************************************/
 588:Generated_Source\PSoC6\pdl\drivers\peripheral\dma/cy_dma.h **** __STATIC_INLINE void * Cy_DMA_GetActiveDstAddress(DW_Type const * base)
 589:Generated_Source\PSoC6\pdl\drivers\peripheral\dma/cy_dma.h **** {
 590:Generated_Source\PSoC6\pdl\drivers\peripheral\dma/cy_dma.h ****     return ((void *) base->ACT_DESCR_DST);
 591:Generated_Source\PSoC6\pdl\drivers\peripheral\dma/cy_dma.h **** }
 592:Generated_Source\PSoC6\pdl\drivers\peripheral\dma/cy_dma.h **** 
 593:Generated_Source\PSoC6\pdl\drivers\peripheral\dma/cy_dma.h **** /** \} group_dma_block_functions */
 594:Generated_Source\PSoC6\pdl\drivers\peripheral\dma/cy_dma.h **** 
 595:Generated_Source\PSoC6\pdl\drivers\peripheral\dma/cy_dma.h **** 
 596:Generated_Source\PSoC6\pdl\drivers\peripheral\dma/cy_dma.h **** /**
 597:Generated_Source\PSoC6\pdl\drivers\peripheral\dma/cy_dma.h **** * \addtogroup group_dma_descriptor_functions
 598:Generated_Source\PSoC6\pdl\drivers\peripheral\dma/cy_dma.h **** * \{
 599:Generated_Source\PSoC6\pdl\drivers\peripheral\dma/cy_dma.h **** */
 600:Generated_Source\PSoC6\pdl\drivers\peripheral\dma/cy_dma.h **** 
 601:Generated_Source\PSoC6\pdl\drivers\peripheral\dma/cy_dma.h **** 
 602:Generated_Source\PSoC6\pdl\drivers\peripheral\dma/cy_dma.h **** /*******************************************************************************
 603:Generated_Source\PSoC6\pdl\drivers\peripheral\dma/cy_dma.h **** * Function Name: Cy_DMA_Descriptor_SetSrcAddress
 604:Generated_Source\PSoC6\pdl\drivers\peripheral\dma/cy_dma.h **** ****************************************************************************//**
 605:Generated_Source\PSoC6\pdl\drivers\peripheral\dma/cy_dma.h **** *
 606:Generated_Source\PSoC6\pdl\drivers\peripheral\dma/cy_dma.h **** * Sets the source address parameter for the specified descriptor.
 607:Generated_Source\PSoC6\pdl\drivers\peripheral\dma/cy_dma.h **** *
 608:Generated_Source\PSoC6\pdl\drivers\peripheral\dma/cy_dma.h **** * \param descriptor
 609:Generated_Source\PSoC6\pdl\drivers\peripheral\dma/cy_dma.h **** * The descriptor structure instance declared by the user/component.
 610:Generated_Source\PSoC6\pdl\drivers\peripheral\dma/cy_dma.h **** *
 611:Generated_Source\PSoC6\pdl\drivers\peripheral\dma/cy_dma.h **** * \param srcAddress
 612:Generated_Source\PSoC6\pdl\drivers\peripheral\dma/cy_dma.h **** * The source address value for the descriptor.
 613:Generated_Source\PSoC6\pdl\drivers\peripheral\dma/cy_dma.h **** *
 614:Generated_Source\PSoC6\pdl\drivers\peripheral\dma/cy_dma.h **** *******************************************************************************/
 615:Generated_Source\PSoC6\pdl\drivers\peripheral\dma/cy_dma.h **** __STATIC_INLINE void Cy_DMA_Descriptor_SetSrcAddress(cy_stc_dma_descriptor_t * descriptor, void con
 616:Generated_Source\PSoC6\pdl\drivers\peripheral\dma/cy_dma.h **** {
 617:Generated_Source\PSoC6\pdl\drivers\peripheral\dma/cy_dma.h ****     descriptor->src = (uint32_t) srcAddress;
 618:Generated_Source\PSoC6\pdl\drivers\peripheral\dma/cy_dma.h **** }
 619:Generated_Source\PSoC6\pdl\drivers\peripheral\dma/cy_dma.h **** 
 620:Generated_Source\PSoC6\pdl\drivers\peripheral\dma/cy_dma.h **** 
 621:Generated_Source\PSoC6\pdl\drivers\peripheral\dma/cy_dma.h **** /*******************************************************************************
 622:Generated_Source\PSoC6\pdl\drivers\peripheral\dma/cy_dma.h **** * Function Name: Cy_DMA_Descriptor_GetSrcAddress
 623:Generated_Source\PSoC6\pdl\drivers\peripheral\dma/cy_dma.h **** ****************************************************************************//**
 624:Generated_Source\PSoC6\pdl\drivers\peripheral\dma/cy_dma.h **** *
 625:Generated_Source\PSoC6\pdl\drivers\peripheral\dma/cy_dma.h **** * Returns the source address parameter of the specified descriptor.
 626:Generated_Source\PSoC6\pdl\drivers\peripheral\dma/cy_dma.h **** * 
 627:Generated_Source\PSoC6\pdl\drivers\peripheral\dma/cy_dma.h **** * \param descriptor
 628:Generated_Source\PSoC6\pdl\drivers\peripheral\dma/cy_dma.h **** * The descriptor structure instance declared by the user/component.
 629:Generated_Source\PSoC6\pdl\drivers\peripheral\dma/cy_dma.h **** *
 630:Generated_Source\PSoC6\pdl\drivers\peripheral\dma/cy_dma.h **** * \return
 631:Generated_Source\PSoC6\pdl\drivers\peripheral\dma/cy_dma.h **** * The source address value of the descriptor.
 632:Generated_Source\PSoC6\pdl\drivers\peripheral\dma/cy_dma.h **** *
ARM GAS  C:\Users\cypress\AppData\Local\Temp\ccD9LaTb.s 			page 35


 633:Generated_Source\PSoC6\pdl\drivers\peripheral\dma/cy_dma.h **** *******************************************************************************/
 634:Generated_Source\PSoC6\pdl\drivers\peripheral\dma/cy_dma.h **** __STATIC_INLINE void * Cy_DMA_Descriptor_GetSrcAddress(cy_stc_dma_descriptor_t const * descriptor)
 635:Generated_Source\PSoC6\pdl\drivers\peripheral\dma/cy_dma.h **** {
 636:Generated_Source\PSoC6\pdl\drivers\peripheral\dma/cy_dma.h ****     return ((void *) descriptor->src);
 637:Generated_Source\PSoC6\pdl\drivers\peripheral\dma/cy_dma.h **** }
 638:Generated_Source\PSoC6\pdl\drivers\peripheral\dma/cy_dma.h **** 
 639:Generated_Source\PSoC6\pdl\drivers\peripheral\dma/cy_dma.h **** 
 640:Generated_Source\PSoC6\pdl\drivers\peripheral\dma/cy_dma.h **** /*******************************************************************************
 641:Generated_Source\PSoC6\pdl\drivers\peripheral\dma/cy_dma.h **** * Function Name: Cy_DMA_Descriptor_SetDstAddress
 642:Generated_Source\PSoC6\pdl\drivers\peripheral\dma/cy_dma.h **** ****************************************************************************//**
 643:Generated_Source\PSoC6\pdl\drivers\peripheral\dma/cy_dma.h **** *
 644:Generated_Source\PSoC6\pdl\drivers\peripheral\dma/cy_dma.h **** * Sets the destination address parameter for the specified descriptor.
 645:Generated_Source\PSoC6\pdl\drivers\peripheral\dma/cy_dma.h **** *
 646:Generated_Source\PSoC6\pdl\drivers\peripheral\dma/cy_dma.h **** * \param descriptor
 647:Generated_Source\PSoC6\pdl\drivers\peripheral\dma/cy_dma.h **** * The descriptor structure instance declared by the user/component.
 648:Generated_Source\PSoC6\pdl\drivers\peripheral\dma/cy_dma.h **** *
 649:Generated_Source\PSoC6\pdl\drivers\peripheral\dma/cy_dma.h **** * \param dstAddress
 650:Generated_Source\PSoC6\pdl\drivers\peripheral\dma/cy_dma.h **** * The destination address value for the descriptor.
 651:Generated_Source\PSoC6\pdl\drivers\peripheral\dma/cy_dma.h **** *
 652:Generated_Source\PSoC6\pdl\drivers\peripheral\dma/cy_dma.h **** *******************************************************************************/
 653:Generated_Source\PSoC6\pdl\drivers\peripheral\dma/cy_dma.h **** __STATIC_INLINE void Cy_DMA_Descriptor_SetDstAddress(cy_stc_dma_descriptor_t * descriptor, void con
 654:Generated_Source\PSoC6\pdl\drivers\peripheral\dma/cy_dma.h **** {
 655:Generated_Source\PSoC6\pdl\drivers\peripheral\dma/cy_dma.h ****     descriptor->dst = (uint32_t) dstAddress;
 656:Generated_Source\PSoC6\pdl\drivers\peripheral\dma/cy_dma.h **** }
 657:Generated_Source\PSoC6\pdl\drivers\peripheral\dma/cy_dma.h **** 
 658:Generated_Source\PSoC6\pdl\drivers\peripheral\dma/cy_dma.h **** 
 659:Generated_Source\PSoC6\pdl\drivers\peripheral\dma/cy_dma.h **** /*******************************************************************************
 660:Generated_Source\PSoC6\pdl\drivers\peripheral\dma/cy_dma.h **** * Function Name: Cy_DMA_Descriptor_GetDstAddress
 661:Generated_Source\PSoC6\pdl\drivers\peripheral\dma/cy_dma.h **** ****************************************************************************//**
 662:Generated_Source\PSoC6\pdl\drivers\peripheral\dma/cy_dma.h **** *
 663:Generated_Source\PSoC6\pdl\drivers\peripheral\dma/cy_dma.h **** * Returns the destination address parameter of the specified descriptor.
 664:Generated_Source\PSoC6\pdl\drivers\peripheral\dma/cy_dma.h **** * 
 665:Generated_Source\PSoC6\pdl\drivers\peripheral\dma/cy_dma.h **** * \param descriptor
 666:Generated_Source\PSoC6\pdl\drivers\peripheral\dma/cy_dma.h **** * The descriptor structure instance declared by the user/component.
 667:Generated_Source\PSoC6\pdl\drivers\peripheral\dma/cy_dma.h **** *
 668:Generated_Source\PSoC6\pdl\drivers\peripheral\dma/cy_dma.h **** * \return
 669:Generated_Source\PSoC6\pdl\drivers\peripheral\dma/cy_dma.h **** * The destination address value of the descriptor.
 670:Generated_Source\PSoC6\pdl\drivers\peripheral\dma/cy_dma.h **** *
 671:Generated_Source\PSoC6\pdl\drivers\peripheral\dma/cy_dma.h **** *******************************************************************************/
 672:Generated_Source\PSoC6\pdl\drivers\peripheral\dma/cy_dma.h **** __STATIC_INLINE void * Cy_DMA_Descriptor_GetDstAddress(cy_stc_dma_descriptor_t const * descriptor)
 673:Generated_Source\PSoC6\pdl\drivers\peripheral\dma/cy_dma.h **** {
 674:Generated_Source\PSoC6\pdl\drivers\peripheral\dma/cy_dma.h ****     return ((void *) descriptor->dst);
 675:Generated_Source\PSoC6\pdl\drivers\peripheral\dma/cy_dma.h **** }
 676:Generated_Source\PSoC6\pdl\drivers\peripheral\dma/cy_dma.h **** 
 677:Generated_Source\PSoC6\pdl\drivers\peripheral\dma/cy_dma.h **** 
 678:Generated_Source\PSoC6\pdl\drivers\peripheral\dma/cy_dma.h **** /*******************************************************************************
 679:Generated_Source\PSoC6\pdl\drivers\peripheral\dma/cy_dma.h **** * Function Name: Cy_DMA_Descriptor_SetInterruptType
 680:Generated_Source\PSoC6\pdl\drivers\peripheral\dma/cy_dma.h **** ****************************************************************************//**
 681:Generated_Source\PSoC6\pdl\drivers\peripheral\dma/cy_dma.h **** *
 682:Generated_Source\PSoC6\pdl\drivers\peripheral\dma/cy_dma.h **** * Sets the interrupt type parameter for the specified descriptor.
 683:Generated_Source\PSoC6\pdl\drivers\peripheral\dma/cy_dma.h **** *
 684:Generated_Source\PSoC6\pdl\drivers\peripheral\dma/cy_dma.h **** * \param descriptor
 685:Generated_Source\PSoC6\pdl\drivers\peripheral\dma/cy_dma.h **** * The descriptor structure instance declared by the user/component.
 686:Generated_Source\PSoC6\pdl\drivers\peripheral\dma/cy_dma.h **** *
 687:Generated_Source\PSoC6\pdl\drivers\peripheral\dma/cy_dma.h **** * \param interruptType
 688:Generated_Source\PSoC6\pdl\drivers\peripheral\dma/cy_dma.h **** * The interrupt type set for the descriptor. \ref cy_en_dma_trigger_type_t
 689:Generated_Source\PSoC6\pdl\drivers\peripheral\dma/cy_dma.h **** *
ARM GAS  C:\Users\cypress\AppData\Local\Temp\ccD9LaTb.s 			page 36


 690:Generated_Source\PSoC6\pdl\drivers\peripheral\dma/cy_dma.h **** *******************************************************************************/
 691:Generated_Source\PSoC6\pdl\drivers\peripheral\dma/cy_dma.h **** __STATIC_INLINE void Cy_DMA_Descriptor_SetInterruptType(cy_stc_dma_descriptor_t * descriptor, cy_en
 692:Generated_Source\PSoC6\pdl\drivers\peripheral\dma/cy_dma.h **** {
 693:Generated_Source\PSoC6\pdl\drivers\peripheral\dma/cy_dma.h ****     CY_ASSERT_L1(NULL != descriptor);
 694:Generated_Source\PSoC6\pdl\drivers\peripheral\dma/cy_dma.h ****     CY_ASSERT_L3(CY_DMA_IS_TRIG_TYPE_VALID(interruptType));
 695:Generated_Source\PSoC6\pdl\drivers\peripheral\dma/cy_dma.h ****     
 696:Generated_Source\PSoC6\pdl\drivers\peripheral\dma/cy_dma.h ****     descriptor->ctl = _CLR_SET_FLD32U(descriptor->ctl, CY_DMA_CTL_INTR_TYPE, interruptType);
 697:Generated_Source\PSoC6\pdl\drivers\peripheral\dma/cy_dma.h **** }
 698:Generated_Source\PSoC6\pdl\drivers\peripheral\dma/cy_dma.h **** 
 699:Generated_Source\PSoC6\pdl\drivers\peripheral\dma/cy_dma.h **** 
 700:Generated_Source\PSoC6\pdl\drivers\peripheral\dma/cy_dma.h **** /*******************************************************************************
 701:Generated_Source\PSoC6\pdl\drivers\peripheral\dma/cy_dma.h **** * Function Name: Cy_DMA_Descriptor_GetInterruptType
 702:Generated_Source\PSoC6\pdl\drivers\peripheral\dma/cy_dma.h **** ****************************************************************************//**
 703:Generated_Source\PSoC6\pdl\drivers\peripheral\dma/cy_dma.h **** *
 704:Generated_Source\PSoC6\pdl\drivers\peripheral\dma/cy_dma.h **** * Returns the Interrupt-Type of the specified descriptor.
 705:Generated_Source\PSoC6\pdl\drivers\peripheral\dma/cy_dma.h **** *
 706:Generated_Source\PSoC6\pdl\drivers\peripheral\dma/cy_dma.h **** * \param descriptor
 707:Generated_Source\PSoC6\pdl\drivers\peripheral\dma/cy_dma.h **** * The descriptor structure instance declared by the user/component.
 708:Generated_Source\PSoC6\pdl\drivers\peripheral\dma/cy_dma.h **** *
 709:Generated_Source\PSoC6\pdl\drivers\peripheral\dma/cy_dma.h **** * \return
 710:Generated_Source\PSoC6\pdl\drivers\peripheral\dma/cy_dma.h **** * The Interrupt-Type \ref cy_en_dma_trigger_type_t.
 711:Generated_Source\PSoC6\pdl\drivers\peripheral\dma/cy_dma.h **** *  
 712:Generated_Source\PSoC6\pdl\drivers\peripheral\dma/cy_dma.h **** *******************************************************************************/
 713:Generated_Source\PSoC6\pdl\drivers\peripheral\dma/cy_dma.h **** __STATIC_INLINE cy_en_dma_trigger_type_t Cy_DMA_Descriptor_GetInterruptType(cy_stc_dma_descriptor_t
 714:Generated_Source\PSoC6\pdl\drivers\peripheral\dma/cy_dma.h **** {
 715:Generated_Source\PSoC6\pdl\drivers\peripheral\dma/cy_dma.h ****     CY_ASSERT_L1(NULL != descriptor);
 716:Generated_Source\PSoC6\pdl\drivers\peripheral\dma/cy_dma.h ****     
 717:Generated_Source\PSoC6\pdl\drivers\peripheral\dma/cy_dma.h ****     return((cy_en_dma_trigger_type_t) _FLD2VAL(CY_DMA_CTL_INTR_TYPE, descriptor->ctl));
 718:Generated_Source\PSoC6\pdl\drivers\peripheral\dma/cy_dma.h **** }
 719:Generated_Source\PSoC6\pdl\drivers\peripheral\dma/cy_dma.h **** 
 720:Generated_Source\PSoC6\pdl\drivers\peripheral\dma/cy_dma.h **** 
 721:Generated_Source\PSoC6\pdl\drivers\peripheral\dma/cy_dma.h **** /*******************************************************************************
 722:Generated_Source\PSoC6\pdl\drivers\peripheral\dma/cy_dma.h **** * Function Name: Cy_DMA_Descriptor_SetTriggerInType
 723:Generated_Source\PSoC6\pdl\drivers\peripheral\dma/cy_dma.h **** ****************************************************************************//**
 724:Generated_Source\PSoC6\pdl\drivers\peripheral\dma/cy_dma.h **** *
 725:Generated_Source\PSoC6\pdl\drivers\peripheral\dma/cy_dma.h **** * Sets the Trigger-In-Type parameter for the specified descriptor.
 726:Generated_Source\PSoC6\pdl\drivers\peripheral\dma/cy_dma.h **** *
 727:Generated_Source\PSoC6\pdl\drivers\peripheral\dma/cy_dma.h **** * \param descriptor
 728:Generated_Source\PSoC6\pdl\drivers\peripheral\dma/cy_dma.h **** * The descriptor structure instance declared by the user/component.
 729:Generated_Source\PSoC6\pdl\drivers\peripheral\dma/cy_dma.h **** *
 730:Generated_Source\PSoC6\pdl\drivers\peripheral\dma/cy_dma.h **** * \param triggerInType
 731:Generated_Source\PSoC6\pdl\drivers\peripheral\dma/cy_dma.h **** * The Trigger In Type parameter \ref cy_en_dma_trigger_type_t
 732:Generated_Source\PSoC6\pdl\drivers\peripheral\dma/cy_dma.h **** *
 733:Generated_Source\PSoC6\pdl\drivers\peripheral\dma/cy_dma.h **** *******************************************************************************/
 734:Generated_Source\PSoC6\pdl\drivers\peripheral\dma/cy_dma.h **** __STATIC_INLINE void Cy_DMA_Descriptor_SetTriggerInType(cy_stc_dma_descriptor_t * descriptor, cy_en
 735:Generated_Source\PSoC6\pdl\drivers\peripheral\dma/cy_dma.h **** {
 736:Generated_Source\PSoC6\pdl\drivers\peripheral\dma/cy_dma.h ****     CY_ASSERT_L1(NULL != descriptor);
 737:Generated_Source\PSoC6\pdl\drivers\peripheral\dma/cy_dma.h ****     CY_ASSERT_L3(CY_DMA_IS_TRIG_TYPE_VALID(triggerInType));
 738:Generated_Source\PSoC6\pdl\drivers\peripheral\dma/cy_dma.h ****     
 739:Generated_Source\PSoC6\pdl\drivers\peripheral\dma/cy_dma.h ****     descriptor->ctl = _CLR_SET_FLD32U(descriptor->ctl, CY_DMA_CTL_TR_IN_TYPE, triggerInType);
 740:Generated_Source\PSoC6\pdl\drivers\peripheral\dma/cy_dma.h **** }
 741:Generated_Source\PSoC6\pdl\drivers\peripheral\dma/cy_dma.h **** 
 742:Generated_Source\PSoC6\pdl\drivers\peripheral\dma/cy_dma.h **** 
 743:Generated_Source\PSoC6\pdl\drivers\peripheral\dma/cy_dma.h **** /*******************************************************************************
 744:Generated_Source\PSoC6\pdl\drivers\peripheral\dma/cy_dma.h **** * Function Name: Cy_DMA_Descriptor_GetTriggerInType
 745:Generated_Source\PSoC6\pdl\drivers\peripheral\dma/cy_dma.h **** ****************************************************************************//**
 746:Generated_Source\PSoC6\pdl\drivers\peripheral\dma/cy_dma.h **** *
ARM GAS  C:\Users\cypress\AppData\Local\Temp\ccD9LaTb.s 			page 37


 747:Generated_Source\PSoC6\pdl\drivers\peripheral\dma/cy_dma.h **** * Returns the Trigger-In-Type parameter of the specified descriptor.
 748:Generated_Source\PSoC6\pdl\drivers\peripheral\dma/cy_dma.h **** *
 749:Generated_Source\PSoC6\pdl\drivers\peripheral\dma/cy_dma.h **** * \param descriptor
 750:Generated_Source\PSoC6\pdl\drivers\peripheral\dma/cy_dma.h **** * The descriptor structure instance declared by the user/component.
 751:Generated_Source\PSoC6\pdl\drivers\peripheral\dma/cy_dma.h **** *
 752:Generated_Source\PSoC6\pdl\drivers\peripheral\dma/cy_dma.h **** * \return
 753:Generated_Source\PSoC6\pdl\drivers\peripheral\dma/cy_dma.h **** * The Trigger-In-Type \ref cy_en_dma_trigger_type_t
 754:Generated_Source\PSoC6\pdl\drivers\peripheral\dma/cy_dma.h **** *  
 755:Generated_Source\PSoC6\pdl\drivers\peripheral\dma/cy_dma.h **** *******************************************************************************/
 756:Generated_Source\PSoC6\pdl\drivers\peripheral\dma/cy_dma.h **** __STATIC_INLINE cy_en_dma_trigger_type_t Cy_DMA_Descriptor_GetTriggerInType(cy_stc_dma_descriptor_t
 757:Generated_Source\PSoC6\pdl\drivers\peripheral\dma/cy_dma.h **** {
 758:Generated_Source\PSoC6\pdl\drivers\peripheral\dma/cy_dma.h ****     CY_ASSERT_L1(NULL != descriptor);
 759:Generated_Source\PSoC6\pdl\drivers\peripheral\dma/cy_dma.h ****     
 760:Generated_Source\PSoC6\pdl\drivers\peripheral\dma/cy_dma.h ****     return((cy_en_dma_trigger_type_t) _FLD2VAL(CY_DMA_CTL_TR_IN_TYPE, descriptor->ctl));
 761:Generated_Source\PSoC6\pdl\drivers\peripheral\dma/cy_dma.h **** }
 762:Generated_Source\PSoC6\pdl\drivers\peripheral\dma/cy_dma.h **** 
 763:Generated_Source\PSoC6\pdl\drivers\peripheral\dma/cy_dma.h **** 
 764:Generated_Source\PSoC6\pdl\drivers\peripheral\dma/cy_dma.h **** /*******************************************************************************
 765:Generated_Source\PSoC6\pdl\drivers\peripheral\dma/cy_dma.h **** * Function Name: Cy_DMA_Descriptor_SetTriggerOutType
 766:Generated_Source\PSoC6\pdl\drivers\peripheral\dma/cy_dma.h **** ****************************************************************************//**
 767:Generated_Source\PSoC6\pdl\drivers\peripheral\dma/cy_dma.h **** *
 768:Generated_Source\PSoC6\pdl\drivers\peripheral\dma/cy_dma.h **** * Sets the Trigger-Out-Type parameter for the specified descriptor.
 769:Generated_Source\PSoC6\pdl\drivers\peripheral\dma/cy_dma.h **** *
 770:Generated_Source\PSoC6\pdl\drivers\peripheral\dma/cy_dma.h **** * \param descriptor
 771:Generated_Source\PSoC6\pdl\drivers\peripheral\dma/cy_dma.h **** * The descriptor structure instance declared by the user/component.
 772:Generated_Source\PSoC6\pdl\drivers\peripheral\dma/cy_dma.h **** *
 773:Generated_Source\PSoC6\pdl\drivers\peripheral\dma/cy_dma.h **** * \param triggerOutType
 774:Generated_Source\PSoC6\pdl\drivers\peripheral\dma/cy_dma.h **** * The Trigger-Out-Type set for the descriptor. \ref cy_en_dma_trigger_type_t
 775:Generated_Source\PSoC6\pdl\drivers\peripheral\dma/cy_dma.h **** *
 776:Generated_Source\PSoC6\pdl\drivers\peripheral\dma/cy_dma.h **** *******************************************************************************/
 777:Generated_Source\PSoC6\pdl\drivers\peripheral\dma/cy_dma.h **** __STATIC_INLINE void Cy_DMA_Descriptor_SetTriggerOutType(cy_stc_dma_descriptor_t * descriptor, cy_e
 778:Generated_Source\PSoC6\pdl\drivers\peripheral\dma/cy_dma.h **** {
 779:Generated_Source\PSoC6\pdl\drivers\peripheral\dma/cy_dma.h ****     CY_ASSERT_L1(NULL != descriptor);
 780:Generated_Source\PSoC6\pdl\drivers\peripheral\dma/cy_dma.h ****     CY_ASSERT_L3(CY_DMA_IS_TRIG_TYPE_VALID(triggerOutType));
 781:Generated_Source\PSoC6\pdl\drivers\peripheral\dma/cy_dma.h ****     
 782:Generated_Source\PSoC6\pdl\drivers\peripheral\dma/cy_dma.h ****     descriptor->ctl = _CLR_SET_FLD32U(descriptor->ctl, CY_DMA_CTL_TR_OUT_TYPE, triggerOutType);
 783:Generated_Source\PSoC6\pdl\drivers\peripheral\dma/cy_dma.h **** }
 784:Generated_Source\PSoC6\pdl\drivers\peripheral\dma/cy_dma.h **** 
 785:Generated_Source\PSoC6\pdl\drivers\peripheral\dma/cy_dma.h **** 
 786:Generated_Source\PSoC6\pdl\drivers\peripheral\dma/cy_dma.h **** /*******************************************************************************
 787:Generated_Source\PSoC6\pdl\drivers\peripheral\dma/cy_dma.h **** * Function Name: Cy_DMA_Descriptor_GetTriggerOutType
 788:Generated_Source\PSoC6\pdl\drivers\peripheral\dma/cy_dma.h **** ****************************************************************************//**
 789:Generated_Source\PSoC6\pdl\drivers\peripheral\dma/cy_dma.h **** *
 790:Generated_Source\PSoC6\pdl\drivers\peripheral\dma/cy_dma.h **** * Returns the Trigger-Out-Type parameter of the specified descriptor.
 791:Generated_Source\PSoC6\pdl\drivers\peripheral\dma/cy_dma.h **** *
 792:Generated_Source\PSoC6\pdl\drivers\peripheral\dma/cy_dma.h **** * \param descriptor
 793:Generated_Source\PSoC6\pdl\drivers\peripheral\dma/cy_dma.h **** * The descriptor structure instance declared by the user/component.
 794:Generated_Source\PSoC6\pdl\drivers\peripheral\dma/cy_dma.h **** *
 795:Generated_Source\PSoC6\pdl\drivers\peripheral\dma/cy_dma.h **** * \return
 796:Generated_Source\PSoC6\pdl\drivers\peripheral\dma/cy_dma.h **** * The Trigger-Out-Type parameter \ref cy_en_dma_trigger_type_t.
 797:Generated_Source\PSoC6\pdl\drivers\peripheral\dma/cy_dma.h **** *  
 798:Generated_Source\PSoC6\pdl\drivers\peripheral\dma/cy_dma.h **** *******************************************************************************/
 799:Generated_Source\PSoC6\pdl\drivers\peripheral\dma/cy_dma.h **** __STATIC_INLINE cy_en_dma_trigger_type_t Cy_DMA_Descriptor_GetTriggerOutType(cy_stc_dma_descriptor_
 800:Generated_Source\PSoC6\pdl\drivers\peripheral\dma/cy_dma.h **** {
 801:Generated_Source\PSoC6\pdl\drivers\peripheral\dma/cy_dma.h ****     CY_ASSERT_L1(NULL != descriptor);
 802:Generated_Source\PSoC6\pdl\drivers\peripheral\dma/cy_dma.h ****     
 803:Generated_Source\PSoC6\pdl\drivers\peripheral\dma/cy_dma.h ****     return((cy_en_dma_trigger_type_t) _FLD2VAL(CY_DMA_CTL_TR_OUT_TYPE, descriptor->ctl));
ARM GAS  C:\Users\cypress\AppData\Local\Temp\ccD9LaTb.s 			page 38


 804:Generated_Source\PSoC6\pdl\drivers\peripheral\dma/cy_dma.h **** }
 805:Generated_Source\PSoC6\pdl\drivers\peripheral\dma/cy_dma.h **** 
 806:Generated_Source\PSoC6\pdl\drivers\peripheral\dma/cy_dma.h **** 
 807:Generated_Source\PSoC6\pdl\drivers\peripheral\dma/cy_dma.h **** /*******************************************************************************
 808:Generated_Source\PSoC6\pdl\drivers\peripheral\dma/cy_dma.h **** * Function Name: Cy_DMA_Descriptor_SetDataSize
 809:Generated_Source\PSoC6\pdl\drivers\peripheral\dma/cy_dma.h **** ****************************************************************************//**
 810:Generated_Source\PSoC6\pdl\drivers\peripheral\dma/cy_dma.h **** *
 811:Generated_Source\PSoC6\pdl\drivers\peripheral\dma/cy_dma.h **** * Sets the Data Element Size parameter for the specified descriptor.
 812:Generated_Source\PSoC6\pdl\drivers\peripheral\dma/cy_dma.h **** *
 813:Generated_Source\PSoC6\pdl\drivers\peripheral\dma/cy_dma.h **** * \param descriptor
 814:Generated_Source\PSoC6\pdl\drivers\peripheral\dma/cy_dma.h **** * The descriptor structure instance declared by the user/component.
 815:Generated_Source\PSoC6\pdl\drivers\peripheral\dma/cy_dma.h **** *
 816:Generated_Source\PSoC6\pdl\drivers\peripheral\dma/cy_dma.h **** * \param dataSize
 817:Generated_Source\PSoC6\pdl\drivers\peripheral\dma/cy_dma.h **** * The Data Element Size \ref cy_en_dma_data_size_t
 818:Generated_Source\PSoC6\pdl\drivers\peripheral\dma/cy_dma.h **** *  
 819:Generated_Source\PSoC6\pdl\drivers\peripheral\dma/cy_dma.h **** *******************************************************************************/
 820:Generated_Source\PSoC6\pdl\drivers\peripheral\dma/cy_dma.h **** __STATIC_INLINE void Cy_DMA_Descriptor_SetDataSize(cy_stc_dma_descriptor_t * descriptor, cy_en_dma_
 821:Generated_Source\PSoC6\pdl\drivers\peripheral\dma/cy_dma.h **** {
 822:Generated_Source\PSoC6\pdl\drivers\peripheral\dma/cy_dma.h ****     CY_ASSERT_L1(NULL != descriptor);
 823:Generated_Source\PSoC6\pdl\drivers\peripheral\dma/cy_dma.h ****     CY_ASSERT_L3(CY_DMA_IS_DATA_SIZE_VALID(dataSize));
 824:Generated_Source\PSoC6\pdl\drivers\peripheral\dma/cy_dma.h ****     
 825:Generated_Source\PSoC6\pdl\drivers\peripheral\dma/cy_dma.h ****     descriptor->ctl = _CLR_SET_FLD32U(descriptor->ctl, CY_DMA_CTL_DATA_SIZE, dataSize);
 826:Generated_Source\PSoC6\pdl\drivers\peripheral\dma/cy_dma.h **** }
 827:Generated_Source\PSoC6\pdl\drivers\peripheral\dma/cy_dma.h **** 
 828:Generated_Source\PSoC6\pdl\drivers\peripheral\dma/cy_dma.h **** 
 829:Generated_Source\PSoC6\pdl\drivers\peripheral\dma/cy_dma.h **** /*******************************************************************************
 830:Generated_Source\PSoC6\pdl\drivers\peripheral\dma/cy_dma.h **** * Function Name: Cy_DMA_Descriptor_GetDataSize
 831:Generated_Source\PSoC6\pdl\drivers\peripheral\dma/cy_dma.h **** ****************************************************************************//**
 832:Generated_Source\PSoC6\pdl\drivers\peripheral\dma/cy_dma.h **** *
 833:Generated_Source\PSoC6\pdl\drivers\peripheral\dma/cy_dma.h **** * Returns the Data Element Size parameter of the specified descriptor.
 834:Generated_Source\PSoC6\pdl\drivers\peripheral\dma/cy_dma.h **** *
 835:Generated_Source\PSoC6\pdl\drivers\peripheral\dma/cy_dma.h **** * \param descriptor
 836:Generated_Source\PSoC6\pdl\drivers\peripheral\dma/cy_dma.h **** * The descriptor structure instance declared by the user/component.
 837:Generated_Source\PSoC6\pdl\drivers\peripheral\dma/cy_dma.h **** *
 838:Generated_Source\PSoC6\pdl\drivers\peripheral\dma/cy_dma.h **** * \return
 839:Generated_Source\PSoC6\pdl\drivers\peripheral\dma/cy_dma.h **** * The Data Element Size \ref cy_en_dma_data_size_t.
 840:Generated_Source\PSoC6\pdl\drivers\peripheral\dma/cy_dma.h **** *  
 841:Generated_Source\PSoC6\pdl\drivers\peripheral\dma/cy_dma.h **** *******************************************************************************/
 842:Generated_Source\PSoC6\pdl\drivers\peripheral\dma/cy_dma.h **** __STATIC_INLINE cy_en_dma_data_size_t Cy_DMA_Descriptor_GetDataSize(cy_stc_dma_descriptor_t const *
 843:Generated_Source\PSoC6\pdl\drivers\peripheral\dma/cy_dma.h **** {
 844:Generated_Source\PSoC6\pdl\drivers\peripheral\dma/cy_dma.h ****     CY_ASSERT_L1(NULL != descriptor);
 845:Generated_Source\PSoC6\pdl\drivers\peripheral\dma/cy_dma.h ****     
 846:Generated_Source\PSoC6\pdl\drivers\peripheral\dma/cy_dma.h ****     return((cy_en_dma_data_size_t) _FLD2VAL(CY_DMA_CTL_DATA_SIZE, descriptor->ctl));
 847:Generated_Source\PSoC6\pdl\drivers\peripheral\dma/cy_dma.h **** }
 848:Generated_Source\PSoC6\pdl\drivers\peripheral\dma/cy_dma.h **** 
 849:Generated_Source\PSoC6\pdl\drivers\peripheral\dma/cy_dma.h **** 
 850:Generated_Source\PSoC6\pdl\drivers\peripheral\dma/cy_dma.h **** /*******************************************************************************
 851:Generated_Source\PSoC6\pdl\drivers\peripheral\dma/cy_dma.h **** * Function Name: Cy_DMA_Descriptor_SetSrcTransferSize
 852:Generated_Source\PSoC6\pdl\drivers\peripheral\dma/cy_dma.h **** ****************************************************************************//**
 853:Generated_Source\PSoC6\pdl\drivers\peripheral\dma/cy_dma.h **** *
 854:Generated_Source\PSoC6\pdl\drivers\peripheral\dma/cy_dma.h **** * Sets the Source Transfer Size parameter for the specified descriptor.
 855:Generated_Source\PSoC6\pdl\drivers\peripheral\dma/cy_dma.h **** *
 856:Generated_Source\PSoC6\pdl\drivers\peripheral\dma/cy_dma.h **** * \param descriptor
 857:Generated_Source\PSoC6\pdl\drivers\peripheral\dma/cy_dma.h **** * The descriptor structure instance declared by the user/component.
 858:Generated_Source\PSoC6\pdl\drivers\peripheral\dma/cy_dma.h **** *
 859:Generated_Source\PSoC6\pdl\drivers\peripheral\dma/cy_dma.h **** * \param srcTransferSize
 860:Generated_Source\PSoC6\pdl\drivers\peripheral\dma/cy_dma.h **** * The Source Transfer Size \ref cy_en_dma_transfer_size_t.
ARM GAS  C:\Users\cypress\AppData\Local\Temp\ccD9LaTb.s 			page 39


 861:Generated_Source\PSoC6\pdl\drivers\peripheral\dma/cy_dma.h **** *
 862:Generated_Source\PSoC6\pdl\drivers\peripheral\dma/cy_dma.h **** *******************************************************************************/
 863:Generated_Source\PSoC6\pdl\drivers\peripheral\dma/cy_dma.h **** __STATIC_INLINE void Cy_DMA_Descriptor_SetSrcTransferSize(cy_stc_dma_descriptor_t * descriptor, cy_
 864:Generated_Source\PSoC6\pdl\drivers\peripheral\dma/cy_dma.h **** {
 865:Generated_Source\PSoC6\pdl\drivers\peripheral\dma/cy_dma.h ****     CY_ASSERT_L1(NULL != descriptor);
 866:Generated_Source\PSoC6\pdl\drivers\peripheral\dma/cy_dma.h ****     CY_ASSERT_L3(CY_DMA_IS_XFER_SIZE_VALID(srcTransferSize));
 867:Generated_Source\PSoC6\pdl\drivers\peripheral\dma/cy_dma.h **** 
 868:Generated_Source\PSoC6\pdl\drivers\peripheral\dma/cy_dma.h ****     descriptor->ctl = _CLR_SET_FLD32U(descriptor->ctl, CY_DMA_CTL_SRC_SIZE, srcTransferSize);
 869:Generated_Source\PSoC6\pdl\drivers\peripheral\dma/cy_dma.h **** }
 870:Generated_Source\PSoC6\pdl\drivers\peripheral\dma/cy_dma.h **** 
 871:Generated_Source\PSoC6\pdl\drivers\peripheral\dma/cy_dma.h **** 
 872:Generated_Source\PSoC6\pdl\drivers\peripheral\dma/cy_dma.h **** /*******************************************************************************
 873:Generated_Source\PSoC6\pdl\drivers\peripheral\dma/cy_dma.h **** * Function Name: Cy_DMA_Descriptor_GetSrcTransferSize
 874:Generated_Source\PSoC6\pdl\drivers\peripheral\dma/cy_dma.h **** ****************************************************************************//**
 875:Generated_Source\PSoC6\pdl\drivers\peripheral\dma/cy_dma.h **** *
 876:Generated_Source\PSoC6\pdl\drivers\peripheral\dma/cy_dma.h **** * Returns the Source Transfer Size parameter of the specified descriptor.
 877:Generated_Source\PSoC6\pdl\drivers\peripheral\dma/cy_dma.h **** *
 878:Generated_Source\PSoC6\pdl\drivers\peripheral\dma/cy_dma.h **** * \param descriptor
 879:Generated_Source\PSoC6\pdl\drivers\peripheral\dma/cy_dma.h **** * The descriptor structure instance declared by the user/component.
 880:Generated_Source\PSoC6\pdl\drivers\peripheral\dma/cy_dma.h **** *
 881:Generated_Source\PSoC6\pdl\drivers\peripheral\dma/cy_dma.h **** * \return
 882:Generated_Source\PSoC6\pdl\drivers\peripheral\dma/cy_dma.h **** * The Source Transfer Size \ref cy_en_dma_transfer_size_t.
 883:Generated_Source\PSoC6\pdl\drivers\peripheral\dma/cy_dma.h **** *  
 884:Generated_Source\PSoC6\pdl\drivers\peripheral\dma/cy_dma.h **** *******************************************************************************/
 885:Generated_Source\PSoC6\pdl\drivers\peripheral\dma/cy_dma.h **** __STATIC_INLINE cy_en_dma_transfer_size_t Cy_DMA_Descriptor_GetSrcTransferSize(cy_stc_dma_descripto
 886:Generated_Source\PSoC6\pdl\drivers\peripheral\dma/cy_dma.h **** {
 887:Generated_Source\PSoC6\pdl\drivers\peripheral\dma/cy_dma.h ****     CY_ASSERT_L1(NULL != descriptor);
 888:Generated_Source\PSoC6\pdl\drivers\peripheral\dma/cy_dma.h ****     
 889:Generated_Source\PSoC6\pdl\drivers\peripheral\dma/cy_dma.h ****     return((cy_en_dma_transfer_size_t) _FLD2VAL(CY_DMA_CTL_SRC_SIZE, descriptor->ctl));
 890:Generated_Source\PSoC6\pdl\drivers\peripheral\dma/cy_dma.h **** }
 891:Generated_Source\PSoC6\pdl\drivers\peripheral\dma/cy_dma.h **** 
 892:Generated_Source\PSoC6\pdl\drivers\peripheral\dma/cy_dma.h **** 
 893:Generated_Source\PSoC6\pdl\drivers\peripheral\dma/cy_dma.h **** /*******************************************************************************
 894:Generated_Source\PSoC6\pdl\drivers\peripheral\dma/cy_dma.h **** * Function Name: Cy_DMA_Descriptor_SetDstTransferSize
 895:Generated_Source\PSoC6\pdl\drivers\peripheral\dma/cy_dma.h **** ****************************************************************************//**
 896:Generated_Source\PSoC6\pdl\drivers\peripheral\dma/cy_dma.h **** *
 897:Generated_Source\PSoC6\pdl\drivers\peripheral\dma/cy_dma.h **** * Sets the Destination Transfer Size parameter for the specified descriptor.
 898:Generated_Source\PSoC6\pdl\drivers\peripheral\dma/cy_dma.h **** *
 899:Generated_Source\PSoC6\pdl\drivers\peripheral\dma/cy_dma.h **** * \param descriptor
 900:Generated_Source\PSoC6\pdl\drivers\peripheral\dma/cy_dma.h **** * The descriptor structure instance declared by the user/component.
 901:Generated_Source\PSoC6\pdl\drivers\peripheral\dma/cy_dma.h **** *
 902:Generated_Source\PSoC6\pdl\drivers\peripheral\dma/cy_dma.h **** * \param dstTransferSize
 903:Generated_Source\PSoC6\pdl\drivers\peripheral\dma/cy_dma.h **** * The Destination Transfer Size \ref cy_en_dma_transfer_size_t.
 904:Generated_Source\PSoC6\pdl\drivers\peripheral\dma/cy_dma.h **** *
 905:Generated_Source\PSoC6\pdl\drivers\peripheral\dma/cy_dma.h **** *******************************************************************************/
 906:Generated_Source\PSoC6\pdl\drivers\peripheral\dma/cy_dma.h **** __STATIC_INLINE void Cy_DMA_Descriptor_SetDstTransferSize(cy_stc_dma_descriptor_t * descriptor, cy_
 907:Generated_Source\PSoC6\pdl\drivers\peripheral\dma/cy_dma.h **** {
 908:Generated_Source\PSoC6\pdl\drivers\peripheral\dma/cy_dma.h ****     CY_ASSERT_L1(NULL != descriptor);
 909:Generated_Source\PSoC6\pdl\drivers\peripheral\dma/cy_dma.h ****     CY_ASSERT_L3(CY_DMA_IS_XFER_SIZE_VALID(dstTransferSize));
 910:Generated_Source\PSoC6\pdl\drivers\peripheral\dma/cy_dma.h ****     
 911:Generated_Source\PSoC6\pdl\drivers\peripheral\dma/cy_dma.h ****     descriptor->ctl = _CLR_SET_FLD32U(descriptor->ctl, CY_DMA_CTL_DST_SIZE, dstTransferSize);
 912:Generated_Source\PSoC6\pdl\drivers\peripheral\dma/cy_dma.h **** }
 913:Generated_Source\PSoC6\pdl\drivers\peripheral\dma/cy_dma.h **** 
 914:Generated_Source\PSoC6\pdl\drivers\peripheral\dma/cy_dma.h **** 
 915:Generated_Source\PSoC6\pdl\drivers\peripheral\dma/cy_dma.h **** /*******************************************************************************
 916:Generated_Source\PSoC6\pdl\drivers\peripheral\dma/cy_dma.h **** * Function Name: Cy_DMA_Descriptor_GetDstTransferSize
 917:Generated_Source\PSoC6\pdl\drivers\peripheral\dma/cy_dma.h **** ****************************************************************************//**
ARM GAS  C:\Users\cypress\AppData\Local\Temp\ccD9LaTb.s 			page 40


 918:Generated_Source\PSoC6\pdl\drivers\peripheral\dma/cy_dma.h **** *
 919:Generated_Source\PSoC6\pdl\drivers\peripheral\dma/cy_dma.h **** * Returns the Destination Transfer Size parameter of the specified descriptor.
 920:Generated_Source\PSoC6\pdl\drivers\peripheral\dma/cy_dma.h **** *
 921:Generated_Source\PSoC6\pdl\drivers\peripheral\dma/cy_dma.h **** * \param descriptor
 922:Generated_Source\PSoC6\pdl\drivers\peripheral\dma/cy_dma.h **** * The descriptor structure instance declared by the user/component.
 923:Generated_Source\PSoC6\pdl\drivers\peripheral\dma/cy_dma.h **** *
 924:Generated_Source\PSoC6\pdl\drivers\peripheral\dma/cy_dma.h **** * \return
 925:Generated_Source\PSoC6\pdl\drivers\peripheral\dma/cy_dma.h **** * The Destination Transfer Size \ref cy_en_dma_transfer_size_t
 926:Generated_Source\PSoC6\pdl\drivers\peripheral\dma/cy_dma.h **** *  
 927:Generated_Source\PSoC6\pdl\drivers\peripheral\dma/cy_dma.h **** *******************************************************************************/
 928:Generated_Source\PSoC6\pdl\drivers\peripheral\dma/cy_dma.h **** __STATIC_INLINE cy_en_dma_transfer_size_t Cy_DMA_Descriptor_GetDstTransferSize(cy_stc_dma_descripto
 929:Generated_Source\PSoC6\pdl\drivers\peripheral\dma/cy_dma.h **** {
 930:Generated_Source\PSoC6\pdl\drivers\peripheral\dma/cy_dma.h ****     CY_ASSERT_L1(NULL != descriptor);
 931:Generated_Source\PSoC6\pdl\drivers\peripheral\dma/cy_dma.h ****     
 932:Generated_Source\PSoC6\pdl\drivers\peripheral\dma/cy_dma.h ****     return((cy_en_dma_transfer_size_t) _FLD2VAL(CY_DMA_CTL_DST_SIZE, descriptor->ctl));
 933:Generated_Source\PSoC6\pdl\drivers\peripheral\dma/cy_dma.h **** }
 934:Generated_Source\PSoC6\pdl\drivers\peripheral\dma/cy_dma.h **** 
 935:Generated_Source\PSoC6\pdl\drivers\peripheral\dma/cy_dma.h **** 
 936:Generated_Source\PSoC6\pdl\drivers\peripheral\dma/cy_dma.h **** /*******************************************************************************
 937:Generated_Source\PSoC6\pdl\drivers\peripheral\dma/cy_dma.h **** * Function Name: Cy_DMA_Descriptor_SetRetrigger
 938:Generated_Source\PSoC6\pdl\drivers\peripheral\dma/cy_dma.h **** ****************************************************************************//**
 939:Generated_Source\PSoC6\pdl\drivers\peripheral\dma/cy_dma.h **** *
 940:Generated_Source\PSoC6\pdl\drivers\peripheral\dma/cy_dma.h **** * Sets the retrigger value which specifies whether the controller should 
 941:Generated_Source\PSoC6\pdl\drivers\peripheral\dma/cy_dma.h **** * wait for the input trigger to be deactivated.
 942:Generated_Source\PSoC6\pdl\drivers\peripheral\dma/cy_dma.h **** *
 943:Generated_Source\PSoC6\pdl\drivers\peripheral\dma/cy_dma.h **** * \param descriptor
 944:Generated_Source\PSoC6\pdl\drivers\peripheral\dma/cy_dma.h **** * The descriptor structure instance declared by the user/component.
 945:Generated_Source\PSoC6\pdl\drivers\peripheral\dma/cy_dma.h **** *
 946:Generated_Source\PSoC6\pdl\drivers\peripheral\dma/cy_dma.h **** * \param retrigger 
 947:Generated_Source\PSoC6\pdl\drivers\peripheral\dma/cy_dma.h **** * The \ref cy_en_dma_retrigger_t parameter specifies whether the controller
 948:Generated_Source\PSoC6\pdl\drivers\peripheral\dma/cy_dma.h **** * should wait for the input trigger to be deactivated.
 949:Generated_Source\PSoC6\pdl\drivers\peripheral\dma/cy_dma.h **** *
 950:Generated_Source\PSoC6\pdl\drivers\peripheral\dma/cy_dma.h **** *******************************************************************************/
 951:Generated_Source\PSoC6\pdl\drivers\peripheral\dma/cy_dma.h **** __STATIC_INLINE void Cy_DMA_Descriptor_SetRetrigger(cy_stc_dma_descriptor_t * descriptor, cy_en_dma
 952:Generated_Source\PSoC6\pdl\drivers\peripheral\dma/cy_dma.h **** {
 953:Generated_Source\PSoC6\pdl\drivers\peripheral\dma/cy_dma.h ****     CY_ASSERT_L1(NULL != descriptor);
 954:Generated_Source\PSoC6\pdl\drivers\peripheral\dma/cy_dma.h ****     CY_ASSERT_L3(CY_DMA_IS_RETRIGGER_VALID(retrigger));
 955:Generated_Source\PSoC6\pdl\drivers\peripheral\dma/cy_dma.h ****     
 956:Generated_Source\PSoC6\pdl\drivers\peripheral\dma/cy_dma.h ****     descriptor->ctl = _CLR_SET_FLD32U(descriptor->ctl, CY_DMA_CTL_RETRIG, retrigger);
 957:Generated_Source\PSoC6\pdl\drivers\peripheral\dma/cy_dma.h **** }
 958:Generated_Source\PSoC6\pdl\drivers\peripheral\dma/cy_dma.h **** 
 959:Generated_Source\PSoC6\pdl\drivers\peripheral\dma/cy_dma.h **** 
 960:Generated_Source\PSoC6\pdl\drivers\peripheral\dma/cy_dma.h **** /*******************************************************************************
 961:Generated_Source\PSoC6\pdl\drivers\peripheral\dma/cy_dma.h **** * Function Name: Cy_DMA_Descriptor_GetRetrigger
 962:Generated_Source\PSoC6\pdl\drivers\peripheral\dma/cy_dma.h **** ****************************************************************************//**
 963:Generated_Source\PSoC6\pdl\drivers\peripheral\dma/cy_dma.h **** *
 964:Generated_Source\PSoC6\pdl\drivers\peripheral\dma/cy_dma.h **** * Returns a value which specifies whether the controller should 
 965:Generated_Source\PSoC6\pdl\drivers\peripheral\dma/cy_dma.h **** * wait for the input trigger to be deactivated.
 966:Generated_Source\PSoC6\pdl\drivers\peripheral\dma/cy_dma.h **** *
 967:Generated_Source\PSoC6\pdl\drivers\peripheral\dma/cy_dma.h **** * \param descriptor
 968:Generated_Source\PSoC6\pdl\drivers\peripheral\dma/cy_dma.h **** * The descriptor structure instance declared by the user/component.
 969:Generated_Source\PSoC6\pdl\drivers\peripheral\dma/cy_dma.h **** *
 970:Generated_Source\PSoC6\pdl\drivers\peripheral\dma/cy_dma.h **** * \return
 971:Generated_Source\PSoC6\pdl\drivers\peripheral\dma/cy_dma.h **** * The Retrigger setting \ref cy_en_dma_retrigger_t.
 972:Generated_Source\PSoC6\pdl\drivers\peripheral\dma/cy_dma.h **** *  
 973:Generated_Source\PSoC6\pdl\drivers\peripheral\dma/cy_dma.h **** *******************************************************************************/
 974:Generated_Source\PSoC6\pdl\drivers\peripheral\dma/cy_dma.h **** __STATIC_INLINE cy_en_dma_retrigger_t Cy_DMA_Descriptor_GetRetrigger(cy_stc_dma_descriptor_t const 
ARM GAS  C:\Users\cypress\AppData\Local\Temp\ccD9LaTb.s 			page 41


 975:Generated_Source\PSoC6\pdl\drivers\peripheral\dma/cy_dma.h **** {
 976:Generated_Source\PSoC6\pdl\drivers\peripheral\dma/cy_dma.h ****     CY_ASSERT_L1(NULL != descriptor);
 977:Generated_Source\PSoC6\pdl\drivers\peripheral\dma/cy_dma.h ****     
 978:Generated_Source\PSoC6\pdl\drivers\peripheral\dma/cy_dma.h ****     return((cy_en_dma_retrigger_t) _FLD2VAL(CY_DMA_CTL_RETRIG, descriptor->ctl));
 979:Generated_Source\PSoC6\pdl\drivers\peripheral\dma/cy_dma.h **** }
 980:Generated_Source\PSoC6\pdl\drivers\peripheral\dma/cy_dma.h **** 
 981:Generated_Source\PSoC6\pdl\drivers\peripheral\dma/cy_dma.h **** 
 982:Generated_Source\PSoC6\pdl\drivers\peripheral\dma/cy_dma.h **** /*******************************************************************************
 983:Generated_Source\PSoC6\pdl\drivers\peripheral\dma/cy_dma.h **** * Function Name: Cy_DMA_Descriptor_GetDescriptorType
 984:Generated_Source\PSoC6\pdl\drivers\peripheral\dma/cy_dma.h **** ****************************************************************************//**
 985:Generated_Source\PSoC6\pdl\drivers\peripheral\dma/cy_dma.h **** *
 986:Generated_Source\PSoC6\pdl\drivers\peripheral\dma/cy_dma.h **** * Returns the descriptor's type of the specified descriptor.
 987:Generated_Source\PSoC6\pdl\drivers\peripheral\dma/cy_dma.h **** *
 988:Generated_Source\PSoC6\pdl\drivers\peripheral\dma/cy_dma.h **** * \param descriptor
 989:Generated_Source\PSoC6\pdl\drivers\peripheral\dma/cy_dma.h **** * The descriptor structure instance declared by the user/component.
 990:Generated_Source\PSoC6\pdl\drivers\peripheral\dma/cy_dma.h **** *
 991:Generated_Source\PSoC6\pdl\drivers\peripheral\dma/cy_dma.h **** * \return
 992:Generated_Source\PSoC6\pdl\drivers\peripheral\dma/cy_dma.h **** * The descriptor type \ref cy_en_dma_descriptor_type_t
 993:Generated_Source\PSoC6\pdl\drivers\peripheral\dma/cy_dma.h **** *  
 994:Generated_Source\PSoC6\pdl\drivers\peripheral\dma/cy_dma.h **** *******************************************************************************/
 995:Generated_Source\PSoC6\pdl\drivers\peripheral\dma/cy_dma.h **** __STATIC_INLINE cy_en_dma_descriptor_type_t Cy_DMA_Descriptor_GetDescriptorType(cy_stc_dma_descript
 996:Generated_Source\PSoC6\pdl\drivers\peripheral\dma/cy_dma.h **** {
 997:Generated_Source\PSoC6\pdl\drivers\peripheral\dma/cy_dma.h ****     CY_ASSERT_L1(NULL != descriptor);
 913              		.loc 2 997 0 is_stmt 1
 914 0022 002C     		cmp	r4, #0
 915 0024 03D1     		bne	.L74
 916 0026 0C49     		ldr	r1, .L76+4
 917 0028 0C48     		ldr	r0, .L76+8
 918 002a FFF7FEFF 		bl	Cy_SysLib_AssertFailed
 919              	.LVL78:
 920              	.L74:
 998:Generated_Source\PSoC6\pdl\drivers\peripheral\dma/cy_dma.h ****     
 999:Generated_Source\PSoC6\pdl\drivers\peripheral\dma/cy_dma.h ****     return((cy_en_dma_descriptor_type_t) _FLD2VAL(CY_DMA_CTL_TYPE, descriptor->ctl));
 921              		.loc 2 999 0
 922 002e 2368     		ldr	r3, [r4]
 923 0030 9B0F     		lsrs	r3, r3, #30
 924              	.LVL79:
 925              	.LBE6:
 926              	.LBE5:
 338:Generated_Source\PSoC6\pdl\drivers\peripheral\dma/cy_dma.c ****     
 339:Generated_Source\PSoC6\pdl\drivers\peripheral\dma/cy_dma.c ****     if (descriptorType != Cy_DMA_Descriptor_GetDescriptorType(descriptor)) /* Don't perform if the 
 927              		.loc 1 339 0
 928 0032 9D42     		cmp	r5, r3
 929 0034 0CD0     		beq	.L71
 930              	.LBB7:
 340:Generated_Source\PSoC6\pdl\drivers\peripheral\dma/cy_dma.c ****     {
 341:Generated_Source\PSoC6\pdl\drivers\peripheral\dma/cy_dma.c ****         /* Store the current nextDescriptor pointer. */
 342:Generated_Source\PSoC6\pdl\drivers\peripheral\dma/cy_dma.c ****         cy_stc_dma_descriptor_t * locNextDescriptor = Cy_DMA_Descriptor_GetNextDescriptor(descripto
 931              		.loc 1 342 0
 932 0036 2000     		movs	r0, r4
 933 0038 FFF7FEFF 		bl	Cy_DMA_Descriptor_GetNextDescriptor
 934              	.LVL80:
 935 003c 0100     		movs	r1, r0
 936              	.LVL81:
 343:Generated_Source\PSoC6\pdl\drivers\peripheral\dma/cy_dma.c ****         /* Change the descriptor type. */
 344:Generated_Source\PSoC6\pdl\drivers\peripheral\dma/cy_dma.c ****         descriptor->ctl = _CLR_SET_FLD32U(descriptor->ctl, CY_DMA_CTL_TYPE, descriptorType);
 937              		.loc 1 344 0
ARM GAS  C:\Users\cypress\AppData\Local\Temp\ccD9LaTb.s 			page 42


 938 003e 2368     		ldr	r3, [r4]
 939 0040 9B00     		lsls	r3, r3, #2
 940 0042 9B08     		lsrs	r3, r3, #2
 941 0044 AD07     		lsls	r5, r5, #30
 942 0046 1D43     		orrs	r5, r3
 943 0048 2560     		str	r5, [r4]
 345:Generated_Source\PSoC6\pdl\drivers\peripheral\dma/cy_dma.c ****         /* Restore the nextDescriptor pointer into the proper place. */
 346:Generated_Source\PSoC6\pdl\drivers\peripheral\dma/cy_dma.c ****         Cy_DMA_Descriptor_SetNextDescriptor(descriptor, locNextDescriptor);
 944              		.loc 1 346 0
 945 004a 2000     		movs	r0, r4
 946              	.LVL82:
 947 004c FFF7FEFF 		bl	Cy_DMA_Descriptor_SetNextDescriptor
 948              	.LVL83:
 949              	.L71:
 950              	.LBE7:
 347:Generated_Source\PSoC6\pdl\drivers\peripheral\dma/cy_dma.c ****     }
 348:Generated_Source\PSoC6\pdl\drivers\peripheral\dma/cy_dma.c **** }
 951              		.loc 1 348 0
 952              		@ sp needed
 953              	.LVL84:
 954 0050 70BD     		pop	{r4, r5, r6, pc}
 955              	.L77:
 956 0052 C046     		.align	2
 957              	.L76:
 958 0054 00000000 		.word	.LC0
 959 0058 E5030000 		.word	997
 960 005c 3C000000 		.word	.LC7
 961              		.cfi_endproc
 962              	.LFE93:
 963              		.size	Cy_DMA_Descriptor_SetDescriptorType, .-Cy_DMA_Descriptor_SetDescriptorType
 964              		.section	.rodata.str1.4,"aMS",%progbits,1
 965              		.align	2
 966              	.LC0:
 967 0000 47656E65 		.ascii	"Generated_Source\\PSoC6\\pdl\\drivers\\peripheral\\"
 967      72617465 
 967      645F536F 
 967      75726365 
 967      5C50536F 
 968 002e 646D615C 		.ascii	"dma\\cy_dma.c\000"
 968      63795F64 
 968      6D612E63 
 968      00
 969 003b 00       		.space	1
 970              	.LC7:
 971 003c 47656E65 		.ascii	"Generated_Source\\PSoC6\\pdl\\drivers\\peripheral\\"
 971      72617465 
 971      645F536F 
 971      75726365 
 971      5C50536F 
 972 006a 646D615C 		.ascii	"dma\\cy_dma.h\000"
 972      63795F64 
 972      6D612E68 
 972      00
 973              		.text
 974              	.Letext0:
 975              		.file 3 "c:\\program files (x86)\\cypress\\psoc creator\\4.2\\psoc creator\\import\\gnu\\arm\\5.4.
 976              		.file 4 "c:\\program files (x86)\\cypress\\psoc creator\\4.2\\psoc creator\\import\\gnu\\arm\\5.4.
ARM GAS  C:\Users\cypress\AppData\Local\Temp\ccD9LaTb.s 			page 43


 977              		.file 5 "Generated_Source\\PSoC6\\pdl\\devices/psoc6/ip/cyip_dw.h"
 978              		.file 6 "Generated_Source\\PSoC6\\pdl\\drivers/peripheral/syslib/cy_syslib.h"