ARM GAS  C:\Users\cypress\AppData\Local\Temp\ccD9LaTb.s 			page 1


   1              		.syntax unified
   2              		.cpu cortex-m0plus
   3              		.fpu softvfp
   4              		.eabi_attribute 20, 1
   5              		.eabi_attribute 21, 1
   6              		.eabi_attribute 23, 3
   7              		.eabi_attribute 24, 1
   8              		.eabi_attribute 25, 1
   9              		.eabi_attribute 26, 1
  10              		.eabi_attribute 30, 1
  11              		.eabi_attribute 34, 0
  12              		.eabi_attribute 18, 4
  13              		.thumb
  14              		.syntax unified
  15              		.file	"cy_dma.c"
  16              		.text
  17              	.Ltext0:
  18              		.cfi_sections	.debug_frame
  19              		.section	.text.Cy_DMA_Descriptor_Init,"ax",%progbits
  20              		.align	2
  21              		.global	Cy_DMA_Descriptor_Init
  22              		.code	16
  23              		.thumb_func
  24              		.type	Cy_DMA_Descriptor_Init, %function
  25              	Cy_DMA_Descriptor_Init:
  26              	.LFB87:
  27              		.file 1 "Generated_Source\\PSoC6\\pdl\\drivers\\peripheral\\dma\\cy_dma.c"
   1:Generated_Source\PSoC6\pdl\drivers\peripheral\dma/cy_dma.c **** /***************************************************************************//**
   2:Generated_Source\PSoC6\pdl\drivers\peripheral\dma/cy_dma.c **** * \file cy_dma.c
   3:Generated_Source\PSoC6\pdl\drivers\peripheral\dma/cy_dma.c **** * \version 2.0.1
   4:Generated_Source\PSoC6\pdl\drivers\peripheral\dma/cy_dma.c **** *
   5:Generated_Source\PSoC6\pdl\drivers\peripheral\dma/cy_dma.c **** * \brief
   6:Generated_Source\PSoC6\pdl\drivers\peripheral\dma/cy_dma.c **** * The source code file for the DMA driver.
   7:Generated_Source\PSoC6\pdl\drivers\peripheral\dma/cy_dma.c **** *
   8:Generated_Source\PSoC6\pdl\drivers\peripheral\dma/cy_dma.c **** ********************************************************************************
   9:Generated_Source\PSoC6\pdl\drivers\peripheral\dma/cy_dma.c **** * \copyright
  10:Generated_Source\PSoC6\pdl\drivers\peripheral\dma/cy_dma.c **** * Copyright 2016-2018, Cypress Semiconductor Corporation. All rights reserved.
  11:Generated_Source\PSoC6\pdl\drivers\peripheral\dma/cy_dma.c **** * You may use this file only in accordance with the license, terms, conditions,
  12:Generated_Source\PSoC6\pdl\drivers\peripheral\dma/cy_dma.c **** * disclaimers, and limitations in the end user license agreement accompanying
  13:Generated_Source\PSoC6\pdl\drivers\peripheral\dma/cy_dma.c **** * the software package with which this file was provided.
  14:Generated_Source\PSoC6\pdl\drivers\peripheral\dma/cy_dma.c **** *******************************************************************************/
  15:Generated_Source\PSoC6\pdl\drivers\peripheral\dma/cy_dma.c **** 
  16:Generated_Source\PSoC6\pdl\drivers\peripheral\dma/cy_dma.c **** #include "cy_dma.h"
  17:Generated_Source\PSoC6\pdl\drivers\peripheral\dma/cy_dma.c **** 
  18:Generated_Source\PSoC6\pdl\drivers\peripheral\dma/cy_dma.c **** #if defined(__cplusplus)
  19:Generated_Source\PSoC6\pdl\drivers\peripheral\dma/cy_dma.c **** extern "C" {
  20:Generated_Source\PSoC6\pdl\drivers\peripheral\dma/cy_dma.c **** #endif
  21:Generated_Source\PSoC6\pdl\drivers\peripheral\dma/cy_dma.c **** 
  22:Generated_Source\PSoC6\pdl\drivers\peripheral\dma/cy_dma.c **** 
  23:Generated_Source\PSoC6\pdl\drivers\peripheral\dma/cy_dma.c **** /*******************************************************************************
  24:Generated_Source\PSoC6\pdl\drivers\peripheral\dma/cy_dma.c **** * Function Name: Cy_DMA_Descriptor_Init
  25:Generated_Source\PSoC6\pdl\drivers\peripheral\dma/cy_dma.c **** ****************************************************************************//**
  26:Generated_Source\PSoC6\pdl\drivers\peripheral\dma/cy_dma.c **** *
  27:Generated_Source\PSoC6\pdl\drivers\peripheral\dma/cy_dma.c **** * Initializes the descriptor structure in SRAM from a pre-initialized
  28:Generated_Source\PSoC6\pdl\drivers\peripheral\dma/cy_dma.c **** * configuration structure.
  29:Generated_Source\PSoC6\pdl\drivers\peripheral\dma/cy_dma.c **** * This function initializes only the descriptor and not the channel.
  30:Generated_Source\PSoC6\pdl\drivers\peripheral\dma/cy_dma.c **** *
ARM GAS  C:\Users\cypress\AppData\Local\Temp\ccD9LaTb.s 			page 2


  31:Generated_Source\PSoC6\pdl\drivers\peripheral\dma/cy_dma.c **** * \param descriptor
  32:Generated_Source\PSoC6\pdl\drivers\peripheral\dma/cy_dma.c **** * The descriptor structure instance declared by the user/component.
  33:Generated_Source\PSoC6\pdl\drivers\peripheral\dma/cy_dma.c **** *
  34:Generated_Source\PSoC6\pdl\drivers\peripheral\dma/cy_dma.c **** * \param config
  35:Generated_Source\PSoC6\pdl\drivers\peripheral\dma/cy_dma.c **** * This is a configuration structure that has all initialization information for
  36:Generated_Source\PSoC6\pdl\drivers\peripheral\dma/cy_dma.c **** * the descriptor.
  37:Generated_Source\PSoC6\pdl\drivers\peripheral\dma/cy_dma.c **** *
  38:Generated_Source\PSoC6\pdl\drivers\peripheral\dma/cy_dma.c **** * \return
  39:Generated_Source\PSoC6\pdl\drivers\peripheral\dma/cy_dma.c **** * The status /ref cy_en_dma_status_t.
  40:Generated_Source\PSoC6\pdl\drivers\peripheral\dma/cy_dma.c **** *
  41:Generated_Source\PSoC6\pdl\drivers\peripheral\dma/cy_dma.c **** *******************************************************************************/
  42:Generated_Source\PSoC6\pdl\drivers\peripheral\dma/cy_dma.c **** cy_en_dma_status_t Cy_DMA_Descriptor_Init(cy_stc_dma_descriptor_t * descriptor, const cy_stc_dma_de
  43:Generated_Source\PSoC6\pdl\drivers\peripheral\dma/cy_dma.c **** {
  28              		.loc 1 43 0
  29              		.cfi_startproc
  30              		@ args = 0, pretend = 0, frame = 0
  31              		@ frame_needed = 0, uses_anonymous_args = 0
  32              	.LVL0:
  33 0000 70B5     		push	{r4, r5, r6, lr}
  34              		.cfi_def_cfa_offset 16
  35              		.cfi_offset 4, -16
  36              		.cfi_offset 5, -12
  37              		.cfi_offset 6, -8
  38              		.cfi_offset 14, -4
  39 0002 0500     		movs	r5, r0
  40 0004 0C00     		movs	r4, r1
  41              	.LVL1:
  44:Generated_Source\PSoC6\pdl\drivers\peripheral\dma/cy_dma.c ****     cy_en_dma_status_t retVal = CY_DMA_BAD_PARAM;
  45:Generated_Source\PSoC6\pdl\drivers\peripheral\dma/cy_dma.c **** 
  46:Generated_Source\PSoC6\pdl\drivers\peripheral\dma/cy_dma.c ****     if ((NULL != descriptor) && (NULL != config))
  42              		.loc 1 46 0
  43 0006 0028     		cmp	r0, #0
  44 0008 00D1     		bne	.LCB16
  45 000a 0FE1     		b	.L24	@long jump
  46              	.LCB16:
  47              		.loc 1 46 0 is_stmt 0 discriminator 1
  48 000c 0029     		cmp	r1, #0
  49 000e 00D1     		bne	.LCB18
  50 0010 0EE1     		b	.L25	@long jump
  51              	.LCB18:
  47:Generated_Source\PSoC6\pdl\drivers\peripheral\dma/cy_dma.c ****     {
  48:Generated_Source\PSoC6\pdl\drivers\peripheral\dma/cy_dma.c ****         CY_ASSERT_L3(CY_DMA_IS_RETRIGGER_VALID(config->retrigger));
  52              		.loc 1 48 0 is_stmt 1
  53 0012 0B78     		ldrb	r3, [r1]
  54 0014 032B     		cmp	r3, #3
  55 0016 03D9     		bls	.L3
  56              		.loc 1 48 0 is_stmt 0 discriminator 1
  57 0018 3021     		movs	r1, #48
  58              	.LVL2:
  59 001a 8748     		ldr	r0, .L28
  60              	.LVL3:
  61 001c FFF7FEFF 		bl	Cy_SysLib_AssertFailed
  62              	.LVL4:
  63              	.L3:
  49:Generated_Source\PSoC6\pdl\drivers\peripheral\dma/cy_dma.c ****         CY_ASSERT_L3(CY_DMA_IS_TRIG_TYPE_VALID(config->interruptType));
  64              		.loc 1 49 0 is_stmt 1
  65 0020 6378     		ldrb	r3, [r4, #1]
ARM GAS  C:\Users\cypress\AppData\Local\Temp\ccD9LaTb.s 			page 3


  66 0022 032B     		cmp	r3, #3
  67 0024 03D9     		bls	.L4
  68              		.loc 1 49 0 is_stmt 0 discriminator 1
  69 0026 3121     		movs	r1, #49
  70 0028 8348     		ldr	r0, .L28
  71 002a FFF7FEFF 		bl	Cy_SysLib_AssertFailed
  72              	.LVL5:
  73              	.L4:
  50:Generated_Source\PSoC6\pdl\drivers\peripheral\dma/cy_dma.c ****         CY_ASSERT_L3(CY_DMA_IS_TRIG_TYPE_VALID(config->triggerOutType));
  74              		.loc 1 50 0 is_stmt 1
  75 002e A378     		ldrb	r3, [r4, #2]
  76 0030 032B     		cmp	r3, #3
  77 0032 03D9     		bls	.L5
  78              		.loc 1 50 0 is_stmt 0 discriminator 1
  79 0034 3221     		movs	r1, #50
  80 0036 8048     		ldr	r0, .L28
  81 0038 FFF7FEFF 		bl	Cy_SysLib_AssertFailed
  82              	.LVL6:
  83              	.L5:
  51:Generated_Source\PSoC6\pdl\drivers\peripheral\dma/cy_dma.c ****         CY_ASSERT_L3(CY_DMA_IS_TRIG_TYPE_VALID(config->triggerInType));
  84              		.loc 1 51 0 is_stmt 1
  85 003c 2379     		ldrb	r3, [r4, #4]
  86 003e 032B     		cmp	r3, #3
  87 0040 03D9     		bls	.L6
  88              		.loc 1 51 0 is_stmt 0 discriminator 1
  89 0042 3321     		movs	r1, #51
  90 0044 7C48     		ldr	r0, .L28
  91 0046 FFF7FEFF 		bl	Cy_SysLib_AssertFailed
  92              	.LVL7:
  93              	.L6:
  52:Generated_Source\PSoC6\pdl\drivers\peripheral\dma/cy_dma.c ****         CY_ASSERT_L3(CY_DMA_IS_XFER_SIZE_VALID(config->srcTransferSize));
  94              		.loc 1 52 0 is_stmt 1
  95 004a A379     		ldrb	r3, [r4, #6]
  96 004c 012B     		cmp	r3, #1
  97 004e 03D9     		bls	.L7
  98              		.loc 1 52 0 is_stmt 0 discriminator 1
  99 0050 3421     		movs	r1, #52
 100 0052 7948     		ldr	r0, .L28
 101 0054 FFF7FEFF 		bl	Cy_SysLib_AssertFailed
 102              	.LVL8:
 103              	.L7:
  53:Generated_Source\PSoC6\pdl\drivers\peripheral\dma/cy_dma.c ****         CY_ASSERT_L3(CY_DMA_IS_XFER_SIZE_VALID(config->dstTransferSize));
 104              		.loc 1 53 0 is_stmt 1
 105 0058 E379     		ldrb	r3, [r4, #7]
 106 005a 012B     		cmp	r3, #1
 107 005c 03D9     		bls	.L8
 108              		.loc 1 53 0 is_stmt 0 discriminator 1
 109 005e 3521     		movs	r1, #53
 110 0060 7548     		ldr	r0, .L28
 111 0062 FFF7FEFF 		bl	Cy_SysLib_AssertFailed
 112              	.LVL9:
 113              	.L8:
  54:Generated_Source\PSoC6\pdl\drivers\peripheral\dma/cy_dma.c ****         CY_ASSERT_L3(CY_DMA_IS_CHANNEL_STATE_VALID(config->channelState));
 114              		.loc 1 54 0 is_stmt 1
 115 0066 E378     		ldrb	r3, [r4, #3]
 116 0068 012B     		cmp	r3, #1
 117 006a 03D9     		bls	.L9
ARM GAS  C:\Users\cypress\AppData\Local\Temp\ccD9LaTb.s 			page 4


 118              		.loc 1 54 0 is_stmt 0 discriminator 1
 119 006c 3621     		movs	r1, #54
 120 006e 7248     		ldr	r0, .L28
 121 0070 FFF7FEFF 		bl	Cy_SysLib_AssertFailed
 122              	.LVL10:
 123              	.L9:
  55:Generated_Source\PSoC6\pdl\drivers\peripheral\dma/cy_dma.c ****         CY_ASSERT_L3(CY_DMA_IS_DATA_SIZE_VALID(config->dataSize));
 124              		.loc 1 55 0 is_stmt 1
 125 0074 6379     		ldrb	r3, [r4, #5]
 126 0076 022B     		cmp	r3, #2
 127 0078 03D9     		bls	.L10
 128              		.loc 1 55 0 is_stmt 0 discriminator 1
 129 007a 3721     		movs	r1, #55
 130 007c 6E48     		ldr	r0, .L28
 131 007e FFF7FEFF 		bl	Cy_SysLib_AssertFailed
 132              	.LVL11:
 133              	.L10:
  56:Generated_Source\PSoC6\pdl\drivers\peripheral\dma/cy_dma.c ****         CY_ASSERT_L3(CY_DMA_IS_TYPE_VALID(config->descriptorType));
 134              		.loc 1 56 0 is_stmt 1
 135 0082 237A     		ldrb	r3, [r4, #8]
 136 0084 022B     		cmp	r3, #2
 137 0086 03D9     		bls	.L11
 138              		.loc 1 56 0 is_stmt 0 discriminator 1
 139 0088 3821     		movs	r1, #56
 140 008a 6B48     		ldr	r0, .L28
 141 008c FFF7FEFF 		bl	Cy_SysLib_AssertFailed
 142              	.LVL12:
 143              	.L11:
  57:Generated_Source\PSoC6\pdl\drivers\peripheral\dma/cy_dma.c ****         
  58:Generated_Source\PSoC6\pdl\drivers\peripheral\dma/cy_dma.c ****         descriptor->ctl =
  59:Generated_Source\PSoC6\pdl\drivers\peripheral\dma/cy_dma.c ****             _VAL2FLD(CY_DMA_CTL_RETRIG, config->retrigger) |
 144              		.loc 1 59 0 is_stmt 1
 145 0090 2378     		ldrb	r3, [r4]
 146 0092 0321     		movs	r1, #3
 147 0094 1940     		ands	r1, r3
  60:Generated_Source\PSoC6\pdl\drivers\peripheral\dma/cy_dma.c ****             _VAL2FLD(CY_DMA_CTL_INTR_TYPE, config->interruptType) |
 148              		.loc 1 60 0
 149 0096 6278     		ldrb	r2, [r4, #1]
 150 0098 9200     		lsls	r2, r2, #2
 151 009a 0C23     		movs	r3, #12
 152 009c 1340     		ands	r3, r2
  59:Generated_Source\PSoC6\pdl\drivers\peripheral\dma/cy_dma.c ****             _VAL2FLD(CY_DMA_CTL_INTR_TYPE, config->interruptType) |
 153              		.loc 1 59 0
 154 009e 0B43     		orrs	r3, r1
  61:Generated_Source\PSoC6\pdl\drivers\peripheral\dma/cy_dma.c ****             _VAL2FLD(CY_DMA_CTL_TR_OUT_TYPE, config->triggerOutType) |
 155              		.loc 1 61 0
 156 00a0 A278     		ldrb	r2, [r4, #2]
 157 00a2 1201     		lsls	r2, r2, #4
 158 00a4 3021     		movs	r1, #48
 159 00a6 0A40     		ands	r2, r1
  60:Generated_Source\PSoC6\pdl\drivers\peripheral\dma/cy_dma.c ****             _VAL2FLD(CY_DMA_CTL_INTR_TYPE, config->interruptType) |
 160              		.loc 1 60 0
 161 00a8 1343     		orrs	r3, r2
 162 00aa 1900     		movs	r1, r3
  62:Generated_Source\PSoC6\pdl\drivers\peripheral\dma/cy_dma.c ****             _VAL2FLD(CY_DMA_CTL_TR_IN_TYPE, config->triggerInType) |
 163              		.loc 1 62 0
 164 00ac 2279     		ldrb	r2, [r4, #4]
ARM GAS  C:\Users\cypress\AppData\Local\Temp\ccD9LaTb.s 			page 5


 165 00ae 9201     		lsls	r2, r2, #6
 166 00b0 FF23     		movs	r3, #255
 167 00b2 1A40     		ands	r2, r3
  61:Generated_Source\PSoC6\pdl\drivers\peripheral\dma/cy_dma.c ****             _VAL2FLD(CY_DMA_CTL_TR_OUT_TYPE, config->triggerOutType) |
 168              		.loc 1 61 0
 169 00b4 0B00     		movs	r3, r1
 170 00b6 1343     		orrs	r3, r2
  63:Generated_Source\PSoC6\pdl\drivers\peripheral\dma/cy_dma.c ****             _VAL2FLD(CY_DMA_CTL_SRC_SIZE, config->srcTransferSize) |
 171              		.loc 1 63 0
 172 00b8 A279     		ldrb	r2, [r4, #6]
 173 00ba 9206     		lsls	r2, r2, #26
 174 00bc 8021     		movs	r1, #128
 175 00be C904     		lsls	r1, r1, #19
 176 00c0 0A40     		ands	r2, r1
  62:Generated_Source\PSoC6\pdl\drivers\peripheral\dma/cy_dma.c ****             _VAL2FLD(CY_DMA_CTL_TR_IN_TYPE, config->triggerInType) |
 177              		.loc 1 62 0
 178 00c2 1343     		orrs	r3, r2
  64:Generated_Source\PSoC6\pdl\drivers\peripheral\dma/cy_dma.c ****             _VAL2FLD(CY_DMA_CTL_DST_SIZE, config->dstTransferSize) |
 179              		.loc 1 64 0
 180 00c4 E279     		ldrb	r2, [r4, #7]
 181 00c6 D206     		lsls	r2, r2, #27
 182 00c8 8021     		movs	r1, #128
 183 00ca 0905     		lsls	r1, r1, #20
 184 00cc 0A40     		ands	r2, r1
  63:Generated_Source\PSoC6\pdl\drivers\peripheral\dma/cy_dma.c ****             _VAL2FLD(CY_DMA_CTL_SRC_SIZE, config->srcTransferSize) |
 185              		.loc 1 63 0
 186 00ce 1343     		orrs	r3, r2
  65:Generated_Source\PSoC6\pdl\drivers\peripheral\dma/cy_dma.c ****             _VAL2FLD(CY_DMA_CTL_CH_DISABLE, config->channelState) |
 187              		.loc 1 65 0
 188 00d0 E278     		ldrb	r2, [r4, #3]
 189 00d2 1206     		lsls	r2, r2, #24
 190 00d4 8021     		movs	r1, #128
 191 00d6 4904     		lsls	r1, r1, #17
 192 00d8 0A40     		ands	r2, r1
  64:Generated_Source\PSoC6\pdl\drivers\peripheral\dma/cy_dma.c ****             _VAL2FLD(CY_DMA_CTL_DST_SIZE, config->dstTransferSize) |
 193              		.loc 1 64 0
 194 00da 1343     		orrs	r3, r2
  66:Generated_Source\PSoC6\pdl\drivers\peripheral\dma/cy_dma.c ****             _VAL2FLD(CY_DMA_CTL_DATA_SIZE, config->dataSize) |
 195              		.loc 1 66 0
 196 00dc 6279     		ldrb	r2, [r4, #5]
 197 00de 1207     		lsls	r2, r2, #28
 198 00e0 C021     		movs	r1, #192
 199 00e2 8905     		lsls	r1, r1, #22
 200 00e4 0A40     		ands	r2, r1
  65:Generated_Source\PSoC6\pdl\drivers\peripheral\dma/cy_dma.c ****             _VAL2FLD(CY_DMA_CTL_CH_DISABLE, config->channelState) |
 201              		.loc 1 65 0
 202 00e6 1343     		orrs	r3, r2
  67:Generated_Source\PSoC6\pdl\drivers\peripheral\dma/cy_dma.c ****             _VAL2FLD(CY_DMA_CTL_TYPE, config->descriptorType);
 203              		.loc 1 67 0
 204 00e8 227A     		ldrb	r2, [r4, #8]
 205 00ea 9207     		lsls	r2, r2, #30
  66:Generated_Source\PSoC6\pdl\drivers\peripheral\dma/cy_dma.c ****             _VAL2FLD(CY_DMA_CTL_DATA_SIZE, config->dataSize) |
 206              		.loc 1 66 0
 207 00ec 1343     		orrs	r3, r2
  58:Generated_Source\PSoC6\pdl\drivers\peripheral\dma/cy_dma.c ****             _VAL2FLD(CY_DMA_CTL_RETRIG, config->retrigger) |
 208              		.loc 1 58 0
 209 00ee 2B60     		str	r3, [r5]
ARM GAS  C:\Users\cypress\AppData\Local\Temp\ccD9LaTb.s 			page 6


  68:Generated_Source\PSoC6\pdl\drivers\peripheral\dma/cy_dma.c **** 
  69:Generated_Source\PSoC6\pdl\drivers\peripheral\dma/cy_dma.c ****         descriptor->src = (uint32_t)config->srcAddress;
 210              		.loc 1 69 0
 211 00f0 E368     		ldr	r3, [r4, #12]
 212 00f2 6B60     		str	r3, [r5, #4]
  70:Generated_Source\PSoC6\pdl\drivers\peripheral\dma/cy_dma.c **** 
  71:Generated_Source\PSoC6\pdl\drivers\peripheral\dma/cy_dma.c ****         descriptor->dst = (uint32_t)config->dstAddress;
 213              		.loc 1 71 0
 214 00f4 2369     		ldr	r3, [r4, #16]
 215 00f6 AB60     		str	r3, [r5, #8]
  72:Generated_Source\PSoC6\pdl\drivers\peripheral\dma/cy_dma.c **** 
  73:Generated_Source\PSoC6\pdl\drivers\peripheral\dma/cy_dma.c ****         switch(config->descriptorType)
 216              		.loc 1 73 0
 217 00f8 237A     		ldrb	r3, [r4, #8]
 218 00fa 012B     		cmp	r3, #1
 219 00fc 08D0     		beq	.L12
 220 00fe 002B     		cmp	r3, #0
 221 0100 02D0     		beq	.L13
 222 0102 022B     		cmp	r3, #2
 223 0104 35D0     		beq	.L14
 224 0106 95E0     		b	.L27
 225              	.L13:
  74:Generated_Source\PSoC6\pdl\drivers\peripheral\dma/cy_dma.c ****         {
  75:Generated_Source\PSoC6\pdl\drivers\peripheral\dma/cy_dma.c ****             case CY_DMA_SINGLE_TRANSFER:
  76:Generated_Source\PSoC6\pdl\drivers\peripheral\dma/cy_dma.c ****             {
  77:Generated_Source\PSoC6\pdl\drivers\peripheral\dma/cy_dma.c ****                 descriptor->xCtl = (uint32_t)config->nextDescriptor;
 226              		.loc 1 77 0
 227 0108 E36A     		ldr	r3, [r4, #44]
 228 010a EB60     		str	r3, [r5, #12]
  78:Generated_Source\PSoC6\pdl\drivers\peripheral\dma/cy_dma.c ****                 break;
  79:Generated_Source\PSoC6\pdl\drivers\peripheral\dma/cy_dma.c ****             }
  80:Generated_Source\PSoC6\pdl\drivers\peripheral\dma/cy_dma.c ****             case CY_DMA_1D_TRANSFER:
  81:Generated_Source\PSoC6\pdl\drivers\peripheral\dma/cy_dma.c ****             {
  82:Generated_Source\PSoC6\pdl\drivers\peripheral\dma/cy_dma.c ****                 CY_ASSERT_L2(CY_DMA_IS_INCR_VALID(config->srcXincrement));
  83:Generated_Source\PSoC6\pdl\drivers\peripheral\dma/cy_dma.c ****                 CY_ASSERT_L2(CY_DMA_IS_INCR_VALID(config->dstXincrement));
  84:Generated_Source\PSoC6\pdl\drivers\peripheral\dma/cy_dma.c ****                 CY_ASSERT_L2(CY_DMA_IS_COUNT_VALID(config->xCount));
  85:Generated_Source\PSoC6\pdl\drivers\peripheral\dma/cy_dma.c ****                 
  86:Generated_Source\PSoC6\pdl\drivers\peripheral\dma/cy_dma.c ****                 descriptor->xCtl =
  87:Generated_Source\PSoC6\pdl\drivers\peripheral\dma/cy_dma.c ****                     _VAL2FLD(CY_DMA_CTL_SRC_INCR, config->srcXincrement) |
  88:Generated_Source\PSoC6\pdl\drivers\peripheral\dma/cy_dma.c ****                     _VAL2FLD(CY_DMA_CTL_DST_INCR, config->dstXincrement) |
  89:Generated_Source\PSoC6\pdl\drivers\peripheral\dma/cy_dma.c ****     /* Convert the data count from the user's range (1-256) into the machine range (0-255). */
  90:Generated_Source\PSoC6\pdl\drivers\peripheral\dma/cy_dma.c ****                     _VAL2FLD(CY_DMA_CTL_COUNT, config->xCount - 1UL);
  91:Generated_Source\PSoC6\pdl\drivers\peripheral\dma/cy_dma.c ****                     
  92:Generated_Source\PSoC6\pdl\drivers\peripheral\dma/cy_dma.c ****                 descriptor->yCtl = (uint32_t)config->nextDescriptor;
  93:Generated_Source\PSoC6\pdl\drivers\peripheral\dma/cy_dma.c ****                 break;
  94:Generated_Source\PSoC6\pdl\drivers\peripheral\dma/cy_dma.c ****             }
  95:Generated_Source\PSoC6\pdl\drivers\peripheral\dma/cy_dma.c ****             case CY_DMA_2D_TRANSFER:
  96:Generated_Source\PSoC6\pdl\drivers\peripheral\dma/cy_dma.c ****             {                
  97:Generated_Source\PSoC6\pdl\drivers\peripheral\dma/cy_dma.c ****                 CY_ASSERT_L2(CY_DMA_IS_INCR_VALID(config->srcXincrement));
  98:Generated_Source\PSoC6\pdl\drivers\peripheral\dma/cy_dma.c ****                 CY_ASSERT_L2(CY_DMA_IS_INCR_VALID(config->dstXincrement));
  99:Generated_Source\PSoC6\pdl\drivers\peripheral\dma/cy_dma.c ****                 CY_ASSERT_L2(CY_DMA_IS_COUNT_VALID(config->xCount));
 100:Generated_Source\PSoC6\pdl\drivers\peripheral\dma/cy_dma.c ****                 CY_ASSERT_L2(CY_DMA_IS_INCR_VALID(config->srcYincrement));
 101:Generated_Source\PSoC6\pdl\drivers\peripheral\dma/cy_dma.c ****                 CY_ASSERT_L2(CY_DMA_IS_INCR_VALID(config->dstYincrement));
 102:Generated_Source\PSoC6\pdl\drivers\peripheral\dma/cy_dma.c ****                 CY_ASSERT_L2(CY_DMA_IS_COUNT_VALID(config->yCount));
 103:Generated_Source\PSoC6\pdl\drivers\peripheral\dma/cy_dma.c ****                 
 104:Generated_Source\PSoC6\pdl\drivers\peripheral\dma/cy_dma.c ****                 descriptor->xCtl =
 105:Generated_Source\PSoC6\pdl\drivers\peripheral\dma/cy_dma.c ****                     _VAL2FLD(CY_DMA_CTL_SRC_INCR, config->srcXincrement) |
ARM GAS  C:\Users\cypress\AppData\Local\Temp\ccD9LaTb.s 			page 7


 106:Generated_Source\PSoC6\pdl\drivers\peripheral\dma/cy_dma.c ****                     _VAL2FLD(CY_DMA_CTL_DST_INCR, config->dstXincrement) |
 107:Generated_Source\PSoC6\pdl\drivers\peripheral\dma/cy_dma.c ****     /* Convert the data count from the user's range (1-256) into the machine range (0-255). */
 108:Generated_Source\PSoC6\pdl\drivers\peripheral\dma/cy_dma.c ****                     _VAL2FLD(CY_DMA_CTL_COUNT, config->xCount - 1UL);
 109:Generated_Source\PSoC6\pdl\drivers\peripheral\dma/cy_dma.c ****                     
 110:Generated_Source\PSoC6\pdl\drivers\peripheral\dma/cy_dma.c ****                 descriptor->yCtl =
 111:Generated_Source\PSoC6\pdl\drivers\peripheral\dma/cy_dma.c ****                     _VAL2FLD(CY_DMA_CTL_SRC_INCR, config->srcYincrement) |
 112:Generated_Source\PSoC6\pdl\drivers\peripheral\dma/cy_dma.c ****                     _VAL2FLD(CY_DMA_CTL_DST_INCR, config->dstYincrement) |
 113:Generated_Source\PSoC6\pdl\drivers\peripheral\dma/cy_dma.c ****     /* Convert the data count from the user's range (1-256) into the machine range (0-255). */
 114:Generated_Source\PSoC6\pdl\drivers\peripheral\dma/cy_dma.c ****                     _VAL2FLD(CY_DMA_CTL_COUNT, config->yCount - 1UL);
 115:Generated_Source\PSoC6\pdl\drivers\peripheral\dma/cy_dma.c ****                     
 116:Generated_Source\PSoC6\pdl\drivers\peripheral\dma/cy_dma.c ****                 descriptor->nextPtr = (uint32_t)config->nextDescriptor;
 117:Generated_Source\PSoC6\pdl\drivers\peripheral\dma/cy_dma.c ****                 break;
 118:Generated_Source\PSoC6\pdl\drivers\peripheral\dma/cy_dma.c ****             }
 119:Generated_Source\PSoC6\pdl\drivers\peripheral\dma/cy_dma.c ****             default:
 120:Generated_Source\PSoC6\pdl\drivers\peripheral\dma/cy_dma.c ****             {
 121:Generated_Source\PSoC6\pdl\drivers\peripheral\dma/cy_dma.c ****                 /* An unsupported type of a descriptor */
 122:Generated_Source\PSoC6\pdl\drivers\peripheral\dma/cy_dma.c ****                 break;
 123:Generated_Source\PSoC6\pdl\drivers\peripheral\dma/cy_dma.c ****             }
 124:Generated_Source\PSoC6\pdl\drivers\peripheral\dma/cy_dma.c ****         }
 125:Generated_Source\PSoC6\pdl\drivers\peripheral\dma/cy_dma.c **** 
 126:Generated_Source\PSoC6\pdl\drivers\peripheral\dma/cy_dma.c ****         retVal = CY_DMA_SUCCESS;
 229              		.loc 1 126 0
 230 010c 0020     		movs	r0, #0
  78:Generated_Source\PSoC6\pdl\drivers\peripheral\dma/cy_dma.c ****                 break;
 231              		.loc 1 78 0
 232 010e 92E0     		b	.L2
 233              	.L12:
  82:Generated_Source\PSoC6\pdl\drivers\peripheral\dma/cy_dma.c ****                 CY_ASSERT_L2(CY_DMA_IS_INCR_VALID(config->dstXincrement));
 234              		.loc 1 82 0
 235 0110 6369     		ldr	r3, [r4, #20]
 236 0112 8022     		movs	r2, #128
 237 0114 1201     		lsls	r2, r2, #4
 238 0116 9446     		mov	ip, r2
 239 0118 6344     		add	r3, r3, ip
 240 011a 484A     		ldr	r2, .L28+4
 241 011c 9342     		cmp	r3, r2
 242 011e 03D9     		bls	.L15
  82:Generated_Source\PSoC6\pdl\drivers\peripheral\dma/cy_dma.c ****                 CY_ASSERT_L2(CY_DMA_IS_INCR_VALID(config->dstXincrement));
 243              		.loc 1 82 0 is_stmt 0 discriminator 1
 244 0120 5221     		movs	r1, #82
 245 0122 4548     		ldr	r0, .L28
 246 0124 FFF7FEFF 		bl	Cy_SysLib_AssertFailed
 247              	.LVL13:
 248              	.L15:
  83:Generated_Source\PSoC6\pdl\drivers\peripheral\dma/cy_dma.c ****                 CY_ASSERT_L2(CY_DMA_IS_COUNT_VALID(config->xCount));
 249              		.loc 1 83 0 is_stmt 1
 250 0128 A369     		ldr	r3, [r4, #24]
 251 012a 8022     		movs	r2, #128
 252 012c 1201     		lsls	r2, r2, #4
 253 012e 9446     		mov	ip, r2
 254 0130 6344     		add	r3, r3, ip
 255 0132 424A     		ldr	r2, .L28+4
 256 0134 9342     		cmp	r3, r2
 257 0136 03D9     		bls	.L16
  83:Generated_Source\PSoC6\pdl\drivers\peripheral\dma/cy_dma.c ****                 CY_ASSERT_L2(CY_DMA_IS_COUNT_VALID(config->xCount));
 258              		.loc 1 83 0 is_stmt 0 discriminator 1
 259 0138 5321     		movs	r1, #83
ARM GAS  C:\Users\cypress\AppData\Local\Temp\ccD9LaTb.s 			page 8


 260 013a 3F48     		ldr	r0, .L28
 261 013c FFF7FEFF 		bl	Cy_SysLib_AssertFailed
 262              	.LVL14:
 263              	.L16:
  84:Generated_Source\PSoC6\pdl\drivers\peripheral\dma/cy_dma.c ****                 
 264              		.loc 1 84 0 is_stmt 1
 265 0140 E369     		ldr	r3, [r4, #28]
 266 0142 013B     		subs	r3, r3, #1
 267 0144 FF2B     		cmp	r3, #255
 268 0146 03D9     		bls	.L17
  84:Generated_Source\PSoC6\pdl\drivers\peripheral\dma/cy_dma.c ****                 
 269              		.loc 1 84 0 is_stmt 0 discriminator 1
 270 0148 5421     		movs	r1, #84
 271 014a 3B48     		ldr	r0, .L28
 272 014c FFF7FEFF 		bl	Cy_SysLib_AssertFailed
 273              	.LVL15:
 274              	.L17:
  87:Generated_Source\PSoC6\pdl\drivers\peripheral\dma/cy_dma.c ****                     _VAL2FLD(CY_DMA_CTL_DST_INCR, config->dstXincrement) |
 275              		.loc 1 87 0 is_stmt 1
 276 0150 6369     		ldr	r3, [r4, #20]
 277 0152 1B05     		lsls	r3, r3, #20
 278 0154 190D     		lsrs	r1, r3, #20
  88:Generated_Source\PSoC6\pdl\drivers\peripheral\dma/cy_dma.c ****     /* Convert the data count from the user's range (1-256) into the machine range (0-255). */
 279              		.loc 1 88 0
 280 0156 A369     		ldr	r3, [r4, #24]
 281 0158 1B03     		lsls	r3, r3, #12
 282 015a 394A     		ldr	r2, .L28+8
 283 015c 1340     		ands	r3, r2
  87:Generated_Source\PSoC6\pdl\drivers\peripheral\dma/cy_dma.c ****                     _VAL2FLD(CY_DMA_CTL_DST_INCR, config->dstXincrement) |
 284              		.loc 1 87 0
 285 015e 0B43     		orrs	r3, r1
  90:Generated_Source\PSoC6\pdl\drivers\peripheral\dma/cy_dma.c ****                     
 286              		.loc 1 90 0
 287 0160 E269     		ldr	r2, [r4, #28]
 288 0162 013A     		subs	r2, r2, #1
 289 0164 1206     		lsls	r2, r2, #24
  88:Generated_Source\PSoC6\pdl\drivers\peripheral\dma/cy_dma.c ****     /* Convert the data count from the user's range (1-256) into the machine range (0-255). */
 290              		.loc 1 88 0
 291 0166 1343     		orrs	r3, r2
  86:Generated_Source\PSoC6\pdl\drivers\peripheral\dma/cy_dma.c ****                     _VAL2FLD(CY_DMA_CTL_SRC_INCR, config->srcXincrement) |
 292              		.loc 1 86 0
 293 0168 EB60     		str	r3, [r5, #12]
  92:Generated_Source\PSoC6\pdl\drivers\peripheral\dma/cy_dma.c ****                 break;
 294              		.loc 1 92 0
 295 016a E36A     		ldr	r3, [r4, #44]
 296 016c 2B61     		str	r3, [r5, #16]
 297              		.loc 1 126 0
 298 016e 0020     		movs	r0, #0
  93:Generated_Source\PSoC6\pdl\drivers\peripheral\dma/cy_dma.c ****             }
 299              		.loc 1 93 0
 300 0170 61E0     		b	.L2
 301              	.L14:
  97:Generated_Source\PSoC6\pdl\drivers\peripheral\dma/cy_dma.c ****                 CY_ASSERT_L2(CY_DMA_IS_INCR_VALID(config->dstXincrement));
 302              		.loc 1 97 0
 303 0172 6369     		ldr	r3, [r4, #20]
 304 0174 8022     		movs	r2, #128
 305 0176 1201     		lsls	r2, r2, #4
ARM GAS  C:\Users\cypress\AppData\Local\Temp\ccD9LaTb.s 			page 9


 306 0178 9446     		mov	ip, r2
 307 017a 6344     		add	r3, r3, ip
 308 017c 2F4A     		ldr	r2, .L28+4
 309 017e 9342     		cmp	r3, r2
 310 0180 03D9     		bls	.L18
  97:Generated_Source\PSoC6\pdl\drivers\peripheral\dma/cy_dma.c ****                 CY_ASSERT_L2(CY_DMA_IS_INCR_VALID(config->dstXincrement));
 311              		.loc 1 97 0 is_stmt 0 discriminator 1
 312 0182 6121     		movs	r1, #97
 313 0184 2C48     		ldr	r0, .L28
 314 0186 FFF7FEFF 		bl	Cy_SysLib_AssertFailed
 315              	.LVL16:
 316              	.L18:
  98:Generated_Source\PSoC6\pdl\drivers\peripheral\dma/cy_dma.c ****                 CY_ASSERT_L2(CY_DMA_IS_COUNT_VALID(config->xCount));
 317              		.loc 1 98 0 is_stmt 1
 318 018a A369     		ldr	r3, [r4, #24]
 319 018c 8022     		movs	r2, #128
 320 018e 1201     		lsls	r2, r2, #4
 321 0190 9446     		mov	ip, r2
 322 0192 6344     		add	r3, r3, ip
 323 0194 294A     		ldr	r2, .L28+4
 324 0196 9342     		cmp	r3, r2
 325 0198 03D9     		bls	.L19
  98:Generated_Source\PSoC6\pdl\drivers\peripheral\dma/cy_dma.c ****                 CY_ASSERT_L2(CY_DMA_IS_COUNT_VALID(config->xCount));
 326              		.loc 1 98 0 is_stmt 0 discriminator 1
 327 019a 6221     		movs	r1, #98
 328 019c 2648     		ldr	r0, .L28
 329 019e FFF7FEFF 		bl	Cy_SysLib_AssertFailed
 330              	.LVL17:
 331              	.L19:
  99:Generated_Source\PSoC6\pdl\drivers\peripheral\dma/cy_dma.c ****                 CY_ASSERT_L2(CY_DMA_IS_INCR_VALID(config->srcYincrement));
 332              		.loc 1 99 0 is_stmt 1
 333 01a2 E369     		ldr	r3, [r4, #28]
 334 01a4 013B     		subs	r3, r3, #1
 335 01a6 FF2B     		cmp	r3, #255
 336 01a8 03D9     		bls	.L20
  99:Generated_Source\PSoC6\pdl\drivers\peripheral\dma/cy_dma.c ****                 CY_ASSERT_L2(CY_DMA_IS_INCR_VALID(config->srcYincrement));
 337              		.loc 1 99 0 is_stmt 0 discriminator 1
 338 01aa 6321     		movs	r1, #99
 339 01ac 2248     		ldr	r0, .L28
 340 01ae FFF7FEFF 		bl	Cy_SysLib_AssertFailed
 341              	.LVL18:
 342              	.L20:
 100:Generated_Source\PSoC6\pdl\drivers\peripheral\dma/cy_dma.c ****                 CY_ASSERT_L2(CY_DMA_IS_INCR_VALID(config->dstYincrement));
 343              		.loc 1 100 0 is_stmt 1
 344 01b2 236A     		ldr	r3, [r4, #32]
 345 01b4 8022     		movs	r2, #128
 346 01b6 1201     		lsls	r2, r2, #4
 347 01b8 9446     		mov	ip, r2
 348 01ba 6344     		add	r3, r3, ip
 349 01bc 1F4A     		ldr	r2, .L28+4
 350 01be 9342     		cmp	r3, r2
 351 01c0 03D9     		bls	.L21
 100:Generated_Source\PSoC6\pdl\drivers\peripheral\dma/cy_dma.c ****                 CY_ASSERT_L2(CY_DMA_IS_INCR_VALID(config->dstYincrement));
 352              		.loc 1 100 0 is_stmt 0 discriminator 1
 353 01c2 6421     		movs	r1, #100
 354 01c4 1C48     		ldr	r0, .L28
 355 01c6 FFF7FEFF 		bl	Cy_SysLib_AssertFailed
ARM GAS  C:\Users\cypress\AppData\Local\Temp\ccD9LaTb.s 			page 10


 356              	.LVL19:
 357              	.L21:
 101:Generated_Source\PSoC6\pdl\drivers\peripheral\dma/cy_dma.c ****                 CY_ASSERT_L2(CY_DMA_IS_COUNT_VALID(config->yCount));
 358              		.loc 1 101 0 is_stmt 1
 359 01ca 636A     		ldr	r3, [r4, #36]
 360 01cc 8022     		movs	r2, #128
 361 01ce 1201     		lsls	r2, r2, #4
 362 01d0 9446     		mov	ip, r2
 363 01d2 6344     		add	r3, r3, ip
 364 01d4 194A     		ldr	r2, .L28+4
 365 01d6 9342     		cmp	r3, r2
 366 01d8 03D9     		bls	.L22
 101:Generated_Source\PSoC6\pdl\drivers\peripheral\dma/cy_dma.c ****                 CY_ASSERT_L2(CY_DMA_IS_COUNT_VALID(config->yCount));
 367              		.loc 1 101 0 is_stmt 0 discriminator 1
 368 01da 6521     		movs	r1, #101
 369 01dc 1648     		ldr	r0, .L28
 370 01de FFF7FEFF 		bl	Cy_SysLib_AssertFailed
 371              	.LVL20:
 372              	.L22:
 102:Generated_Source\PSoC6\pdl\drivers\peripheral\dma/cy_dma.c ****                 
 373              		.loc 1 102 0 is_stmt 1
 374 01e2 A36A     		ldr	r3, [r4, #40]
 375 01e4 013B     		subs	r3, r3, #1
 376 01e6 FF2B     		cmp	r3, #255
 377 01e8 03D9     		bls	.L23
 102:Generated_Source\PSoC6\pdl\drivers\peripheral\dma/cy_dma.c ****                 
 378              		.loc 1 102 0 is_stmt 0 discriminator 1
 379 01ea 6621     		movs	r1, #102
 380 01ec 1248     		ldr	r0, .L28
 381 01ee FFF7FEFF 		bl	Cy_SysLib_AssertFailed
 382              	.LVL21:
 383              	.L23:
 105:Generated_Source\PSoC6\pdl\drivers\peripheral\dma/cy_dma.c ****                     _VAL2FLD(CY_DMA_CTL_DST_INCR, config->dstXincrement) |
 384              		.loc 1 105 0 is_stmt 1
 385 01f2 6369     		ldr	r3, [r4, #20]
 386 01f4 1A05     		lsls	r2, r3, #20
 387 01f6 130D     		lsrs	r3, r2, #20
 106:Generated_Source\PSoC6\pdl\drivers\peripheral\dma/cy_dma.c ****     /* Convert the data count from the user's range (1-256) into the machine range (0-255). */
 388              		.loc 1 106 0
 389 01f8 A269     		ldr	r2, [r4, #24]
 390 01fa 1203     		lsls	r2, r2, #12
 391 01fc 1048     		ldr	r0, .L28+8
 392 01fe 0240     		ands	r2, r0
 105:Generated_Source\PSoC6\pdl\drivers\peripheral\dma/cy_dma.c ****                     _VAL2FLD(CY_DMA_CTL_DST_INCR, config->dstXincrement) |
 393              		.loc 1 105 0
 394 0200 1A43     		orrs	r2, r3
 108:Generated_Source\PSoC6\pdl\drivers\peripheral\dma/cy_dma.c ****                     
 395              		.loc 1 108 0
 396 0202 E369     		ldr	r3, [r4, #28]
 397 0204 591E     		subs	r1, r3, #1
 398 0206 0906     		lsls	r1, r1, #24
 106:Generated_Source\PSoC6\pdl\drivers\peripheral\dma/cy_dma.c ****     /* Convert the data count from the user's range (1-256) into the machine range (0-255). */
 399              		.loc 1 106 0
 400 0208 0A43     		orrs	r2, r1
 104:Generated_Source\PSoC6\pdl\drivers\peripheral\dma/cy_dma.c ****                     _VAL2FLD(CY_DMA_CTL_SRC_INCR, config->srcXincrement) |
 401              		.loc 1 104 0
 402 020a EA60     		str	r2, [r5, #12]
ARM GAS  C:\Users\cypress\AppData\Local\Temp\ccD9LaTb.s 			page 11


 111:Generated_Source\PSoC6\pdl\drivers\peripheral\dma/cy_dma.c ****                     _VAL2FLD(CY_DMA_CTL_DST_INCR, config->dstYincrement) |
 403              		.loc 1 111 0
 404 020c 236A     		ldr	r3, [r4, #32]
 405 020e 1B05     		lsls	r3, r3, #20
 406 0210 1B0D     		lsrs	r3, r3, #20
 112:Generated_Source\PSoC6\pdl\drivers\peripheral\dma/cy_dma.c ****     /* Convert the data count from the user's range (1-256) into the machine range (0-255). */
 407              		.loc 1 112 0
 408 0212 626A     		ldr	r2, [r4, #36]
 409 0214 1203     		lsls	r2, r2, #12
 410 0216 1040     		ands	r0, r2
 111:Generated_Source\PSoC6\pdl\drivers\peripheral\dma/cy_dma.c ****                     _VAL2FLD(CY_DMA_CTL_DST_INCR, config->dstYincrement) |
 411              		.loc 1 111 0
 412 0218 0343     		orrs	r3, r0
 114:Generated_Source\PSoC6\pdl\drivers\peripheral\dma/cy_dma.c ****                     
 413              		.loc 1 114 0
 414 021a A26A     		ldr	r2, [r4, #40]
 415 021c 013A     		subs	r2, r2, #1
 416 021e 1206     		lsls	r2, r2, #24
 112:Generated_Source\PSoC6\pdl\drivers\peripheral\dma/cy_dma.c ****     /* Convert the data count from the user's range (1-256) into the machine range (0-255). */
 417              		.loc 1 112 0
 418 0220 1343     		orrs	r3, r2
 110:Generated_Source\PSoC6\pdl\drivers\peripheral\dma/cy_dma.c ****                     _VAL2FLD(CY_DMA_CTL_SRC_INCR, config->srcYincrement) |
 419              		.loc 1 110 0
 420 0222 2B61     		str	r3, [r5, #16]
 116:Generated_Source\PSoC6\pdl\drivers\peripheral\dma/cy_dma.c ****                 break;
 421              		.loc 1 116 0
 422 0224 E36A     		ldr	r3, [r4, #44]
 423 0226 6B61     		str	r3, [r5, #20]
 424              		.loc 1 126 0
 425 0228 0020     		movs	r0, #0
 117:Generated_Source\PSoC6\pdl\drivers\peripheral\dma/cy_dma.c ****             }
 426              		.loc 1 117 0
 427 022a 04E0     		b	.L2
 428              	.LVL22:
 429              	.L24:
  44:Generated_Source\PSoC6\pdl\drivers\peripheral\dma/cy_dma.c **** 
 430              		.loc 1 44 0
 431 022c 0548     		ldr	r0, .L28+12
 432              	.LVL23:
 433 022e 02E0     		b	.L2
 434              	.LVL24:
 435              	.L25:
 436 0230 0448     		ldr	r0, .L28+12
 437              	.LVL25:
 438 0232 00E0     		b	.L2
 439              	.LVL26:
 440              	.L27:
 441              		.loc 1 126 0
 442 0234 0020     		movs	r0, #0
 443              	.L2:
 444              	.LVL27:
 127:Generated_Source\PSoC6\pdl\drivers\peripheral\dma/cy_dma.c ****     }
 128:Generated_Source\PSoC6\pdl\drivers\peripheral\dma/cy_dma.c **** 
 129:Generated_Source\PSoC6\pdl\drivers\peripheral\dma/cy_dma.c ****     return retVal;
 130:Generated_Source\PSoC6\pdl\drivers\peripheral\dma/cy_dma.c **** }
 445              		.loc 1 130 0
 446              		@ sp needed
ARM GAS  C:\Users\cypress\AppData\Local\Temp\ccD9LaTb.s 			page 12


 447              	.LVL28:
 448              	.LVL29:
 449 0236 70BD     		pop	{r4, r5, r6, pc}
 450              	.L29:
 451              		.align	2
 452              	.L28:
 453 0238 00000000 		.word	.LC0
 454 023c FF0F0000 		.word	4095
 455 0240 00F0FF00 		.word	16773120
 456 0244 01004E00 		.word	5111809
 457              		.cfi_endproc
 458              	.LFE87:
 459              		.size	Cy_DMA_Descriptor_Init, .-Cy_DMA_Descriptor_Init
 460              		.section	.text.Cy_DMA_Descriptor_DeInit,"ax",%progbits
 461              		.align	2
 462              		.global	Cy_DMA_Descriptor_DeInit
 463              		.code	16
 464              		.thumb_func
 465              		.type	Cy_DMA_Descriptor_DeInit, %function
 466              	Cy_DMA_Descriptor_DeInit:
 467              	.LFB88:
 131:Generated_Source\PSoC6\pdl\drivers\peripheral\dma/cy_dma.c **** 
 132:Generated_Source\PSoC6\pdl\drivers\peripheral\dma/cy_dma.c **** 
 133:Generated_Source\PSoC6\pdl\drivers\peripheral\dma/cy_dma.c **** /*******************************************************************************
 134:Generated_Source\PSoC6\pdl\drivers\peripheral\dma/cy_dma.c **** * Function Name: Cy_DMA_Descriptor_DeInit
 135:Generated_Source\PSoC6\pdl\drivers\peripheral\dma/cy_dma.c **** ****************************************************************************//**
 136:Generated_Source\PSoC6\pdl\drivers\peripheral\dma/cy_dma.c **** *
 137:Generated_Source\PSoC6\pdl\drivers\peripheral\dma/cy_dma.c **** * Clears the content of the specified descriptor.
 138:Generated_Source\PSoC6\pdl\drivers\peripheral\dma/cy_dma.c **** *
 139:Generated_Source\PSoC6\pdl\drivers\peripheral\dma/cy_dma.c **** * \param descriptor
 140:Generated_Source\PSoC6\pdl\drivers\peripheral\dma/cy_dma.c **** * The descriptor structure instance declared by the user/component.
 141:Generated_Source\PSoC6\pdl\drivers\peripheral\dma/cy_dma.c **** *
 142:Generated_Source\PSoC6\pdl\drivers\peripheral\dma/cy_dma.c **** *******************************************************************************/
 143:Generated_Source\PSoC6\pdl\drivers\peripheral\dma/cy_dma.c **** void Cy_DMA_Descriptor_DeInit(cy_stc_dma_descriptor_t * descriptor)
 144:Generated_Source\PSoC6\pdl\drivers\peripheral\dma/cy_dma.c **** {
 468              		.loc 1 144 0
 469              		.cfi_startproc
 470              		@ args = 0, pretend = 0, frame = 0
 471              		@ frame_needed = 0, uses_anonymous_args = 0
 472              		@ link register save eliminated.
 473              	.LVL30:
 145:Generated_Source\PSoC6\pdl\drivers\peripheral\dma/cy_dma.c ****     descriptor->ctl = 0UL;
 474              		.loc 1 145 0
 475 0000 0023     		movs	r3, #0
 476 0002 0360     		str	r3, [r0]
 146:Generated_Source\PSoC6\pdl\drivers\peripheral\dma/cy_dma.c ****     descriptor->src = 0UL;
 477              		.loc 1 146 0
 478 0004 4360     		str	r3, [r0, #4]
 147:Generated_Source\PSoC6\pdl\drivers\peripheral\dma/cy_dma.c ****     descriptor->dst = 0UL;
 479              		.loc 1 147 0
 480 0006 8360     		str	r3, [r0, #8]
 148:Generated_Source\PSoC6\pdl\drivers\peripheral\dma/cy_dma.c ****     descriptor->xCtl = 0UL;
 481              		.loc 1 148 0
 482 0008 C360     		str	r3, [r0, #12]
 149:Generated_Source\PSoC6\pdl\drivers\peripheral\dma/cy_dma.c ****     descriptor->yCtl = 0UL;
 483              		.loc 1 149 0
 484 000a 0361     		str	r3, [r0, #16]
ARM GAS  C:\Users\cypress\AppData\Local\Temp\ccD9LaTb.s 			page 13


 150:Generated_Source\PSoC6\pdl\drivers\peripheral\dma/cy_dma.c ****     descriptor->nextPtr = 0UL;
 485              		.loc 1 150 0
 486 000c 4361     		str	r3, [r0, #20]
 151:Generated_Source\PSoC6\pdl\drivers\peripheral\dma/cy_dma.c **** }
 487              		.loc 1 151 0
 488              		@ sp needed
 489 000e 7047     		bx	lr
 490              		.cfi_endproc
 491              	.LFE88:
 492              		.size	Cy_DMA_Descriptor_DeInit, .-Cy_DMA_Descriptor_DeInit
 493              		.section	.text.Cy_DMA_Channel_Init,"ax",%progbits
 494              		.align	2
 495              		.global	Cy_DMA_Channel_Init
 496              		.code	16
 497              		.thumb_func
 498              		.type	Cy_DMA_Channel_Init, %function
 499              	Cy_DMA_Channel_Init:
 500              	.LFB89:
 152:Generated_Source\PSoC6\pdl\drivers\peripheral\dma/cy_dma.c **** 
 153:Generated_Source\PSoC6\pdl\drivers\peripheral\dma/cy_dma.c **** 
 154:Generated_Source\PSoC6\pdl\drivers\peripheral\dma/cy_dma.c **** /*******************************************************************************
 155:Generated_Source\PSoC6\pdl\drivers\peripheral\dma/cy_dma.c **** * Function Name: Cy_DMA_Channel_Init
 156:Generated_Source\PSoC6\pdl\drivers\peripheral\dma/cy_dma.c **** ****************************************************************************//**
 157:Generated_Source\PSoC6\pdl\drivers\peripheral\dma/cy_dma.c **** *
 158:Generated_Source\PSoC6\pdl\drivers\peripheral\dma/cy_dma.c **** * Initializes the DMA channel with a descriptor and other parameters.
 159:Generated_Source\PSoC6\pdl\drivers\peripheral\dma/cy_dma.c **** *
 160:Generated_Source\PSoC6\pdl\drivers\peripheral\dma/cy_dma.c **** * \param base
 161:Generated_Source\PSoC6\pdl\drivers\peripheral\dma/cy_dma.c **** * The pointer to the hardware DMA block.
 162:Generated_Source\PSoC6\pdl\drivers\peripheral\dma/cy_dma.c **** *
 163:Generated_Source\PSoC6\pdl\drivers\peripheral\dma/cy_dma.c **** * \param channel
 164:Generated_Source\PSoC6\pdl\drivers\peripheral\dma/cy_dma.c **** * A channel number.
 165:Generated_Source\PSoC6\pdl\drivers\peripheral\dma/cy_dma.c **** *
 166:Generated_Source\PSoC6\pdl\drivers\peripheral\dma/cy_dma.c **** * \param channelConfig
 167:Generated_Source\PSoC6\pdl\drivers\peripheral\dma/cy_dma.c **** * The structure that has the initialization information for the
 168:Generated_Source\PSoC6\pdl\drivers\peripheral\dma/cy_dma.c **** * channel.
 169:Generated_Source\PSoC6\pdl\drivers\peripheral\dma/cy_dma.c **** *
 170:Generated_Source\PSoC6\pdl\drivers\peripheral\dma/cy_dma.c **** * \return
 171:Generated_Source\PSoC6\pdl\drivers\peripheral\dma/cy_dma.c **** * The status /ref cy_en_dma_status_t.
 172:Generated_Source\PSoC6\pdl\drivers\peripheral\dma/cy_dma.c **** *
 173:Generated_Source\PSoC6\pdl\drivers\peripheral\dma/cy_dma.c **** *******************************************************************************/
 174:Generated_Source\PSoC6\pdl\drivers\peripheral\dma/cy_dma.c **** cy_en_dma_status_t Cy_DMA_Channel_Init(DW_Type * base, uint32_t channel, cy_stc_dma_channel_config_
 175:Generated_Source\PSoC6\pdl\drivers\peripheral\dma/cy_dma.c **** {
 501              		.loc 1 175 0
 502              		.cfi_startproc
 503              		@ args = 0, pretend = 0, frame = 0
 504              		@ frame_needed = 0, uses_anonymous_args = 0
 505              	.LVL31:
 506 0000 70B5     		push	{r4, r5, r6, lr}
 507              		.cfi_def_cfa_offset 16
 508              		.cfi_offset 4, -16
 509              		.cfi_offset 5, -12
 510              		.cfi_offset 6, -8
 511              		.cfi_offset 14, -4
 512 0002 0400     		movs	r4, r0
 513 0004 0D00     		movs	r5, r1
 514 0006 1600     		movs	r6, r2
 515              	.LVL32:
ARM GAS  C:\Users\cypress\AppData\Local\Temp\ccD9LaTb.s 			page 14


 176:Generated_Source\PSoC6\pdl\drivers\peripheral\dma/cy_dma.c ****     cy_en_dma_status_t retVal = CY_DMA_BAD_PARAM;
 177:Generated_Source\PSoC6\pdl\drivers\peripheral\dma/cy_dma.c **** 
 178:Generated_Source\PSoC6\pdl\drivers\peripheral\dma/cy_dma.c ****     if (((CY_DMA_IS_DW_CH_NR_VALID(base, channel)) && (NULL != channelConfig) && (NULL != channelCo
 516              		.loc 1 178 0
 517 0008 214B     		ldr	r3, .L45
 518 000a 9842     		cmp	r0, r3
 519 000c 02D0     		beq	.L32
 520              		.loc 1 178 0 is_stmt 0 discriminator 2
 521 000e 214B     		ldr	r3, .L45+4
 522 0010 9842     		cmp	r0, r3
 523 0012 35D1     		bne	.L38
 524              	.L32:
 525              		.loc 1 178 0 discriminator 3
 526 0014 0F2D     		cmp	r5, #15
 527 0016 35D8     		bhi	.L39
 528              		.loc 1 178 0 discriminator 4
 529 0018 002E     		cmp	r6, #0
 530 001a 35D0     		beq	.L40
 531              		.loc 1 178 0 discriminator 5
 532 001c 3368     		ldr	r3, [r6]
 533 001e 002B     		cmp	r3, #0
 534 0020 34D0     		beq	.L41
 179:Generated_Source\PSoC6\pdl\drivers\peripheral\dma/cy_dma.c ****     {
 180:Generated_Source\PSoC6\pdl\drivers\peripheral\dma/cy_dma.c ****         CY_ASSERT_L2(CY_DMA_IS_PRIORITY_VALID(channelConfig->priority));
 535              		.loc 1 180 0 is_stmt 1
 536 0022 B368     		ldr	r3, [r6, #8]
 537 0024 032B     		cmp	r3, #3
 538 0026 03D9     		bls	.L34
 539              		.loc 1 180 0 is_stmt 0 discriminator 1
 540 0028 B421     		movs	r1, #180
 541              	.LVL33:
 542 002a 1B48     		ldr	r0, .L45+8
 543              	.LVL34:
 544 002c FFF7FEFF 		bl	Cy_SysLib_AssertFailed
 545              	.LVL35:
 546              	.L34:
 181:Generated_Source\PSoC6\pdl\drivers\peripheral\dma/cy_dma.c ****         
 182:Generated_Source\PSoC6\pdl\drivers\peripheral\dma/cy_dma.c ****         /* Set the current descriptor */
 183:Generated_Source\PSoC6\pdl\drivers\peripheral\dma/cy_dma.c ****         base->CH_STRUCT[channel].CH_CURR_PTR = (uint32_t)channelConfig->descriptor;
 547              		.loc 1 183 0 is_stmt 1
 548 0030 6B01     		lsls	r3, r5, #5
 549 0032 E318     		adds	r3, r4, r3
 550 0034 194A     		ldr	r2, .L45+12
 551 0036 9446     		mov	ip, r2
 552 0038 6344     		add	r3, r3, ip
 553 003a 3268     		ldr	r2, [r6]
 554 003c 1A60     		str	r2, [r3]
 184:Generated_Source\PSoC6\pdl\drivers\peripheral\dma/cy_dma.c **** 
 185:Generated_Source\PSoC6\pdl\drivers\peripheral\dma/cy_dma.c ****         /* Set the channel configuration */
 186:Generated_Source\PSoC6\pdl\drivers\peripheral\dma/cy_dma.c ****         base->CH_STRUCT[channel].CH_CTL = _BOOL2FLD(DW_CH_STRUCT_CH_CTL_PREEMPTABLE, channelConfig-
 555              		.loc 1 186 0
 556 003e 3379     		ldrb	r3, [r6, #4]
 557 0040 002B     		cmp	r3, #0
 558 0042 02D0     		beq	.L42
 559 0044 8021     		movs	r1, #128
 560 0046 C902     		lsls	r1, r1, #11
 561 0048 00E0     		b	.L35
ARM GAS  C:\Users\cypress\AppData\Local\Temp\ccD9LaTb.s 			page 15


 562              	.L42:
 563 004a 0021     		movs	r1, #0
 564              	.L35:
 187:Generated_Source\PSoC6\pdl\drivers\peripheral\dma/cy_dma.c ****                                            _VAL2FLD(DW_CH_STRUCT_CH_CTL_PRIO,        channelConfig-
 565              		.loc 1 187 0
 566 004c B368     		ldr	r3, [r6, #8]
 567 004e 1B04     		lsls	r3, r3, #16
 568 0050 C022     		movs	r2, #192
 569 0052 9202     		lsls	r2, r2, #10
 570 0054 1340     		ands	r3, r2
 186:Generated_Source\PSoC6\pdl\drivers\peripheral\dma/cy_dma.c ****                                            _VAL2FLD(DW_CH_STRUCT_CH_CTL_PRIO,        channelConfig-
 571              		.loc 1 186 0
 572 0056 0B43     		orrs	r3, r1
 188:Generated_Source\PSoC6\pdl\drivers\peripheral\dma/cy_dma.c ****                                           _BOOL2FLD(DW_CH_STRUCT_CH_CTL_ENABLED,     channelConfig-
 573              		.loc 1 188 0
 574 0058 327B     		ldrb	r2, [r6, #12]
 575 005a 002A     		cmp	r2, #0
 576 005c 02D0     		beq	.L43
 577 005e 8022     		movs	r2, #128
 578 0060 1206     		lsls	r2, r2, #24
 579 0062 00E0     		b	.L36
 580              	.L43:
 581 0064 0022     		movs	r2, #0
 582              	.L36:
 187:Generated_Source\PSoC6\pdl\drivers\peripheral\dma/cy_dma.c ****                                            _VAL2FLD(DW_CH_STRUCT_CH_CTL_PRIO,        channelConfig-
 583              		.loc 1 187 0
 584 0066 1343     		orrs	r3, r2
 189:Generated_Source\PSoC6\pdl\drivers\peripheral\dma/cy_dma.c ****                                           _BOOL2FLD(DW_CH_STRUCT_CH_CTL_B,           channelConfig-
 585              		.loc 1 189 0
 586 0068 727B     		ldrb	r2, [r6, #13]
 587 006a 002A     		cmp	r2, #0
 588 006c 01D0     		beq	.L44
 589 006e 0422     		movs	r2, #4
 590 0070 00E0     		b	.L37
 591              	.L44:
 592 0072 0022     		movs	r2, #0
 593              	.L37:
 188:Generated_Source\PSoC6\pdl\drivers\peripheral\dma/cy_dma.c ****                                           _BOOL2FLD(DW_CH_STRUCT_CH_CTL_ENABLED,     channelConfig-
 594              		.loc 1 188 0
 595 0074 1343     		orrs	r3, r2
 186:Generated_Source\PSoC6\pdl\drivers\peripheral\dma/cy_dma.c ****                                            _VAL2FLD(DW_CH_STRUCT_CH_CTL_PRIO,        channelConfig-
 596              		.loc 1 186 0
 597 0076 4035     		adds	r5, r5, #64
 598              	.LVL36:
 599 0078 6D01     		lsls	r5, r5, #5
 600              	.LVL37:
 601 007a 2B51     		str	r3, [r5, r4]
 602              	.LVL38:
 190:Generated_Source\PSoC6\pdl\drivers\peripheral\dma/cy_dma.c ****         retVal = CY_DMA_SUCCESS;
 603              		.loc 1 190 0
 604 007c 0020     		movs	r0, #0
 605 007e 06E0     		b	.L33
 606              	.LVL39:
 607              	.L38:
 176:Generated_Source\PSoC6\pdl\drivers\peripheral\dma/cy_dma.c **** 
 608              		.loc 1 176 0
 609 0080 0748     		ldr	r0, .L45+16
ARM GAS  C:\Users\cypress\AppData\Local\Temp\ccD9LaTb.s 			page 16


 610              	.LVL40:
 611 0082 04E0     		b	.L33
 612              	.LVL41:
 613              	.L39:
 614 0084 0648     		ldr	r0, .L45+16
 615              	.LVL42:
 616 0086 02E0     		b	.L33
 617              	.LVL43:
 618              	.L40:
 619 0088 0548     		ldr	r0, .L45+16
 620              	.LVL44:
 621 008a 00E0     		b	.L33
 622              	.LVL45:
 623              	.L41:
 624 008c 0448     		ldr	r0, .L45+16
 625              	.LVL46:
 626              	.L33:
 191:Generated_Source\PSoC6\pdl\drivers\peripheral\dma/cy_dma.c ****     }
 192:Generated_Source\PSoC6\pdl\drivers\peripheral\dma/cy_dma.c **** 
 193:Generated_Source\PSoC6\pdl\drivers\peripheral\dma/cy_dma.c ****     return (retVal);
 194:Generated_Source\PSoC6\pdl\drivers\peripheral\dma/cy_dma.c **** }
 627              		.loc 1 194 0
 628              		@ sp needed
 629              	.LVL47:
 630              	.LVL48:
 631 008e 70BD     		pop	{r4, r5, r6, pc}
 632              	.L46:
 633              		.align	2
 634              	.L45:
 635 0090 00002840 		.word	1076363264
 636 0094 00102840 		.word	1076367360
 637 0098 00000000 		.word	.LC0
 638 009c 0C080000 		.word	2060
 639 00a0 01004E00 		.word	5111809
 640              		.cfi_endproc
 641              	.LFE89:
 642              		.size	Cy_DMA_Channel_Init, .-Cy_DMA_Channel_Init
 643              		.section	.text.Cy_DMA_Channel_DeInit,"ax",%progbits
 644              		.align	2
 645              		.global	Cy_DMA_Channel_DeInit
 646              		.code	16
 647              		.thumb_func
 648              		.type	Cy_DMA_Channel_DeInit, %function
 649              	Cy_DMA_Channel_DeInit:
 650              	.LFB90:
 195:Generated_Source\PSoC6\pdl\drivers\peripheral\dma/cy_dma.c **** 
 196:Generated_Source\PSoC6\pdl\drivers\peripheral\dma/cy_dma.c **** 
 197:Generated_Source\PSoC6\pdl\drivers\peripheral\dma/cy_dma.c **** /*******************************************************************************
 198:Generated_Source\PSoC6\pdl\drivers\peripheral\dma/cy_dma.c **** * Function Name: Cy_DMA_Channel_DeInit
 199:Generated_Source\PSoC6\pdl\drivers\peripheral\dma/cy_dma.c **** ****************************************************************************//**
 200:Generated_Source\PSoC6\pdl\drivers\peripheral\dma/cy_dma.c **** *
 201:Generated_Source\PSoC6\pdl\drivers\peripheral\dma/cy_dma.c **** * Clears the content of registers corresponding to the channel.
 202:Generated_Source\PSoC6\pdl\drivers\peripheral\dma/cy_dma.c **** *
 203:Generated_Source\PSoC6\pdl\drivers\peripheral\dma/cy_dma.c **** * \param base
 204:Generated_Source\PSoC6\pdl\drivers\peripheral\dma/cy_dma.c **** * The pointer to the hardware DMA block.
 205:Generated_Source\PSoC6\pdl\drivers\peripheral\dma/cy_dma.c **** *
 206:Generated_Source\PSoC6\pdl\drivers\peripheral\dma/cy_dma.c **** * \param channel
ARM GAS  C:\Users\cypress\AppData\Local\Temp\ccD9LaTb.s 			page 17


 207:Generated_Source\PSoC6\pdl\drivers\peripheral\dma/cy_dma.c **** * A channel number.
 208:Generated_Source\PSoC6\pdl\drivers\peripheral\dma/cy_dma.c **** *
 209:Generated_Source\PSoC6\pdl\drivers\peripheral\dma/cy_dma.c **** *******************************************************************************/
 210:Generated_Source\PSoC6\pdl\drivers\peripheral\dma/cy_dma.c **** void Cy_DMA_Channel_DeInit(DW_Type * base, uint32_t channel)
 211:Generated_Source\PSoC6\pdl\drivers\peripheral\dma/cy_dma.c **** {
 651              		.loc 1 211 0
 652              		.cfi_startproc
 653              		@ args = 0, pretend = 0, frame = 0
 654              		@ frame_needed = 0, uses_anonymous_args = 0
 655              	.LVL49:
 656 0000 70B5     		push	{r4, r5, r6, lr}
 657              		.cfi_def_cfa_offset 16
 658              		.cfi_offset 4, -16
 659              		.cfi_offset 5, -12
 660              		.cfi_offset 6, -8
 661              		.cfi_offset 14, -4
 662 0002 0500     		movs	r5, r0
 663 0004 0C00     		movs	r4, r1
 212:Generated_Source\PSoC6\pdl\drivers\peripheral\dma/cy_dma.c ****     CY_ASSERT_L1(CY_DMA_IS_DW_CH_NR_VALID(base, channel));
 664              		.loc 1 212 0
 665 0006 0F4B     		ldr	r3, .L51
 666 0008 9842     		cmp	r0, r3
 667 000a 02D0     		beq	.L48
 668              		.loc 1 212 0 is_stmt 0 discriminator 1
 669 000c 0E4B     		ldr	r3, .L51+4
 670 000e 9842     		cmp	r0, r3
 671 0010 01D1     		bne	.L49
 672              	.L48:
 673              		.loc 1 212 0 discriminator 4
 674 0012 0F2C     		cmp	r4, #15
 675 0014 03D9     		bls	.L50
 676              	.L49:
 677              		.loc 1 212 0 discriminator 5
 678 0016 D421     		movs	r1, #212
 679              	.LVL50:
 680 0018 0C48     		ldr	r0, .L51+8
 681              	.LVL51:
 682 001a FFF7FEFF 		bl	Cy_SysLib_AssertFailed
 683              	.LVL52:
 684              	.L50:
 213:Generated_Source\PSoC6\pdl\drivers\peripheral\dma/cy_dma.c ****     
 214:Generated_Source\PSoC6\pdl\drivers\peripheral\dma/cy_dma.c ****     base->CH_STRUCT[channel].CH_CTL = 0UL;
 685              		.loc 1 214 0 is_stmt 1
 686 001e 2200     		movs	r2, r4
 687 0020 4032     		adds	r2, r2, #64
 688 0022 5201     		lsls	r2, r2, #5
 689 0024 0023     		movs	r3, #0
 690 0026 5351     		str	r3, [r2, r5]
 215:Generated_Source\PSoC6\pdl\drivers\peripheral\dma/cy_dma.c ****     base->CH_STRUCT[channel].CH_IDX = 0UL;
 691              		.loc 1 215 0
 692 0028 6001     		lsls	r0, r4, #5
 693 002a 2818     		adds	r0, r5, r0
 694 002c 084A     		ldr	r2, .L51+12
 695 002e 8218     		adds	r2, r0, r2
 696 0030 1360     		str	r3, [r2]
 216:Generated_Source\PSoC6\pdl\drivers\peripheral\dma/cy_dma.c ****     base->CH_STRUCT[channel].CH_CURR_PTR = 0UL;
 697              		.loc 1 216 0
ARM GAS  C:\Users\cypress\AppData\Local\Temp\ccD9LaTb.s 			page 18


 698 0032 084A     		ldr	r2, .L51+16
 699 0034 8218     		adds	r2, r0, r2
 700 0036 1360     		str	r3, [r2]
 217:Generated_Source\PSoC6\pdl\drivers\peripheral\dma/cy_dma.c ****     base->CH_STRUCT[channel].INTR_MASK = 0UL;
 701              		.loc 1 217 0
 702 0038 074A     		ldr	r2, .L51+20
 703 003a 9446     		mov	ip, r2
 704 003c 6044     		add	r0, r0, ip
 705 003e 0360     		str	r3, [r0]
 218:Generated_Source\PSoC6\pdl\drivers\peripheral\dma/cy_dma.c **** }
 706              		.loc 1 218 0
 707              		@ sp needed
 708              	.LVL53:
 709              	.LVL54:
 710 0040 70BD     		pop	{r4, r5, r6, pc}
 711              	.L52:
 712 0042 C046     		.align	2
 713              	.L51:
 714 0044 00002840 		.word	1076363264
 715 0048 00102840 		.word	1076367360
 716 004c 00000000 		.word	.LC0
 717 0050 08080000 		.word	2056
 718 0054 0C080000 		.word	2060
 719 0058 18080000 		.word	2072
 720              		.cfi_endproc
 721              	.LFE90:
 722              		.size	Cy_DMA_Channel_DeInit, .-Cy_DMA_Channel_DeInit
 723              		.section	.text.Cy_DMA_Descriptor_SetNextDescriptor,"ax",%progbits
 724              		.align	2
 725              		.global	Cy_DMA_Descriptor_SetNextDescriptor
 726              		.code	16
 727              		.thumb_func
 728              		.type	Cy_DMA_Descriptor_SetNextDescriptor, %function
 729              	Cy_DMA_Descriptor_SetNextDescriptor:
 730              	.LFB91:
 219:Generated_Source\PSoC6\pdl\drivers\peripheral\dma/cy_dma.c **** 
 220:Generated_Source\PSoC6\pdl\drivers\peripheral\dma/cy_dma.c **** 
 221:Generated_Source\PSoC6\pdl\drivers\peripheral\dma/cy_dma.c **** /*******************************************************************************
 222:Generated_Source\PSoC6\pdl\drivers\peripheral\dma/cy_dma.c **** * Function Name: Cy_DMA_Descriptor_SetNextDescriptor
 223:Generated_Source\PSoC6\pdl\drivers\peripheral\dma/cy_dma.c **** ****************************************************************************//**
 224:Generated_Source\PSoC6\pdl\drivers\peripheral\dma/cy_dma.c **** *
 225:Generated_Source\PSoC6\pdl\drivers\peripheral\dma/cy_dma.c **** * Sets a Next Descriptor parameter for the specified descriptor.
 226:Generated_Source\PSoC6\pdl\drivers\peripheral\dma/cy_dma.c **** *
 227:Generated_Source\PSoC6\pdl\drivers\peripheral\dma/cy_dma.c **** * Based on the descriptor type, the offset of the address for the next descriptor may
 228:Generated_Source\PSoC6\pdl\drivers\peripheral\dma/cy_dma.c **** * vary. For the single-transfer descriptor type, this register is at offset 0x0c.
 229:Generated_Source\PSoC6\pdl\drivers\peripheral\dma/cy_dma.c **** * For the 1D-transfer descriptor type, this register is at offset 0x10. 
 230:Generated_Source\PSoC6\pdl\drivers\peripheral\dma/cy_dma.c **** * For the 2D-transfer descriptor type, this register is at offset 0x14.  
 231:Generated_Source\PSoC6\pdl\drivers\peripheral\dma/cy_dma.c **** *
 232:Generated_Source\PSoC6\pdl\drivers\peripheral\dma/cy_dma.c **** * \param descriptor
 233:Generated_Source\PSoC6\pdl\drivers\peripheral\dma/cy_dma.c **** * The descriptor structure instance declared by the user/component.
 234:Generated_Source\PSoC6\pdl\drivers\peripheral\dma/cy_dma.c **** *
 235:Generated_Source\PSoC6\pdl\drivers\peripheral\dma/cy_dma.c **** * \param nextDescriptor
 236:Generated_Source\PSoC6\pdl\drivers\peripheral\dma/cy_dma.c **** * The pointer to the next descriptor.
 237:Generated_Source\PSoC6\pdl\drivers\peripheral\dma/cy_dma.c **** *
 238:Generated_Source\PSoC6\pdl\drivers\peripheral\dma/cy_dma.c **** *******************************************************************************/
 239:Generated_Source\PSoC6\pdl\drivers\peripheral\dma/cy_dma.c **** void Cy_DMA_Descriptor_SetNextDescriptor(cy_stc_dma_descriptor_t * descriptor, cy_stc_dma_descripto
 240:Generated_Source\PSoC6\pdl\drivers\peripheral\dma/cy_dma.c **** {
ARM GAS  C:\Users\cypress\AppData\Local\Temp\ccD9LaTb.s 			page 19


 731              		.loc 1 240 0
 732              		.cfi_startproc
 733              		@ args = 0, pretend = 0, frame = 0
 734              		@ frame_needed = 0, uses_anonymous_args = 0
 735              	.LVL55:
 736 0000 70B5     		push	{r4, r5, r6, lr}
 737              		.cfi_def_cfa_offset 16
 738              		.cfi_offset 4, -16
 739              		.cfi_offset 5, -12
 740              		.cfi_offset 6, -8
 741              		.cfi_offset 14, -4
 742 0002 0400     		movs	r4, r0
 743 0004 0D00     		movs	r5, r1
 241:Generated_Source\PSoC6\pdl\drivers\peripheral\dma/cy_dma.c ****     CY_ASSERT_L1(NULL != descriptor);
 744              		.loc 1 241 0
 745 0006 0028     		cmp	r0, #0
 746 0008 03D1     		bne	.L54
 747              		.loc 1 241 0 is_stmt 0 discriminator 1
 748 000a F121     		movs	r1, #241
 749              	.LVL56:
 750 000c 0848     		ldr	r0, .L59
 751              	.LVL57:
 752 000e FFF7FEFF 		bl	Cy_SysLib_AssertFailed
 753              	.LVL58:
 754              	.L54:
 242:Generated_Source\PSoC6\pdl\drivers\peripheral\dma/cy_dma.c ****     
 243:Generated_Source\PSoC6\pdl\drivers\peripheral\dma/cy_dma.c ****     switch((cy_en_dma_descriptor_type_t) _FLD2VAL(CY_DMA_CTL_TYPE, descriptor->ctl))
 755              		.loc 1 243 0 is_stmt 1
 756 0012 2368     		ldr	r3, [r4]
 757 0014 9B0F     		lsrs	r3, r3, #30
 758 0016 012B     		cmp	r3, #1
 759 0018 06D0     		beq	.L56
 760 001a 002B     		cmp	r3, #0
 761 001c 02D0     		beq	.L57
 762 001e 022B     		cmp	r3, #2
 763 0020 04D0     		beq	.L58
 764 0022 04E0     		b	.L53
 765              	.L57:
 244:Generated_Source\PSoC6\pdl\drivers\peripheral\dma/cy_dma.c ****     {
 245:Generated_Source\PSoC6\pdl\drivers\peripheral\dma/cy_dma.c ****         case CY_DMA_SINGLE_TRANSFER:
 246:Generated_Source\PSoC6\pdl\drivers\peripheral\dma/cy_dma.c ****             descriptor->xCtl = (uint32_t)nextDescriptor;
 766              		.loc 1 246 0
 767 0024 E560     		str	r5, [r4, #12]
 247:Generated_Source\PSoC6\pdl\drivers\peripheral\dma/cy_dma.c ****             break;
 768              		.loc 1 247 0
 769 0026 02E0     		b	.L53
 770              	.L56:
 248:Generated_Source\PSoC6\pdl\drivers\peripheral\dma/cy_dma.c ****             
 249:Generated_Source\PSoC6\pdl\drivers\peripheral\dma/cy_dma.c ****         case CY_DMA_1D_TRANSFER:
 250:Generated_Source\PSoC6\pdl\drivers\peripheral\dma/cy_dma.c ****             descriptor->yCtl = (uint32_t)nextDescriptor;
 771              		.loc 1 250 0
 772 0028 2561     		str	r5, [r4, #16]
 251:Generated_Source\PSoC6\pdl\drivers\peripheral\dma/cy_dma.c ****             break;
 773              		.loc 1 251 0
 774 002a 00E0     		b	.L53
 775              	.L58:
 252:Generated_Source\PSoC6\pdl\drivers\peripheral\dma/cy_dma.c ****             
ARM GAS  C:\Users\cypress\AppData\Local\Temp\ccD9LaTb.s 			page 20


 253:Generated_Source\PSoC6\pdl\drivers\peripheral\dma/cy_dma.c ****         case CY_DMA_2D_TRANSFER:
 254:Generated_Source\PSoC6\pdl\drivers\peripheral\dma/cy_dma.c ****             descriptor->nextPtr = (uint32_t)nextDescriptor;
 776              		.loc 1 254 0
 777 002c 6561     		str	r5, [r4, #20]
 778              	.L53:
 255:Generated_Source\PSoC6\pdl\drivers\peripheral\dma/cy_dma.c ****             break;
 256:Generated_Source\PSoC6\pdl\drivers\peripheral\dma/cy_dma.c ****             
 257:Generated_Source\PSoC6\pdl\drivers\peripheral\dma/cy_dma.c ****         default:
 258:Generated_Source\PSoC6\pdl\drivers\peripheral\dma/cy_dma.c ****             /* Unsupported type of descriptor */
 259:Generated_Source\PSoC6\pdl\drivers\peripheral\dma/cy_dma.c ****             break;
 260:Generated_Source\PSoC6\pdl\drivers\peripheral\dma/cy_dma.c ****     }
 261:Generated_Source\PSoC6\pdl\drivers\peripheral\dma/cy_dma.c **** }
 779              		.loc 1 261 0
 780              		@ sp needed
 781              	.LVL59:
 782              	.LVL60:
 783 002e 70BD     		pop	{r4, r5, r6, pc}
 784              	.L60:
 785              		.align	2
 786              	.L59:
 787 0030 00000000 		.word	.LC0
 788              		.cfi_endproc
 789              	.LFE91:
 790              		.size	Cy_DMA_Descriptor_SetNextDescriptor, .-Cy_DMA_Descriptor_SetNextDescriptor
 791              		.section	.text.Cy_DMA_Descriptor_GetNextDescriptor,"ax",%progbits
 792              		.align	2
 793              		.global	Cy_DMA_Descriptor_GetNextDescriptor
 794              		.code	16
 795              		.thumb_func
 796              		.type	Cy_DMA_Descriptor_GetNextDescriptor, %function
 797              	Cy_DMA_Descriptor_GetNextDescriptor:
 798              	.LFB92:
 262:Generated_Source\PSoC6\pdl\drivers\peripheral\dma/cy_dma.c **** 
 263:Generated_Source\PSoC6\pdl\drivers\peripheral\dma/cy_dma.c **** 
 264:Generated_Source\PSoC6\pdl\drivers\peripheral\dma/cy_dma.c **** /*******************************************************************************
 265:Generated_Source\PSoC6\pdl\drivers\peripheral\dma/cy_dma.c **** * Function Name: Cy_DMA_Descriptor_GetNextDescriptor
 266:Generated_Source\PSoC6\pdl\drivers\peripheral\dma/cy_dma.c **** ****************************************************************************//**
 267:Generated_Source\PSoC6\pdl\drivers\peripheral\dma/cy_dma.c **** *
 268:Generated_Source\PSoC6\pdl\drivers\peripheral\dma/cy_dma.c **** * Returns a next descriptor address of the specified descriptor.
 269:Generated_Source\PSoC6\pdl\drivers\peripheral\dma/cy_dma.c **** *
 270:Generated_Source\PSoC6\pdl\drivers\peripheral\dma/cy_dma.c **** * Based on the descriptor type, the offset of the address for the next descriptor may
 271:Generated_Source\PSoC6\pdl\drivers\peripheral\dma/cy_dma.c **** * vary. For a single-transfer descriptor type, this register is at offset 0x0c.
 272:Generated_Source\PSoC6\pdl\drivers\peripheral\dma/cy_dma.c **** * For the 1D-transfer descriptor type, this register is at offset 0x10. 
 273:Generated_Source\PSoC6\pdl\drivers\peripheral\dma/cy_dma.c **** * For the 2D-transfer descriptor type, this register is at offset 0x14.  
 274:Generated_Source\PSoC6\pdl\drivers\peripheral\dma/cy_dma.c **** *
 275:Generated_Source\PSoC6\pdl\drivers\peripheral\dma/cy_dma.c **** * \param descriptor
 276:Generated_Source\PSoC6\pdl\drivers\peripheral\dma/cy_dma.c **** * The descriptor structure instance declared by the user/component.
 277:Generated_Source\PSoC6\pdl\drivers\peripheral\dma/cy_dma.c **** *
 278:Generated_Source\PSoC6\pdl\drivers\peripheral\dma/cy_dma.c **** * \return
 279:Generated_Source\PSoC6\pdl\drivers\peripheral\dma/cy_dma.c **** * The pointer to the next descriptor.
 280:Generated_Source\PSoC6\pdl\drivers\peripheral\dma/cy_dma.c **** *
 281:Generated_Source\PSoC6\pdl\drivers\peripheral\dma/cy_dma.c **** *******************************************************************************/
 282:Generated_Source\PSoC6\pdl\drivers\peripheral\dma/cy_dma.c **** cy_stc_dma_descriptor_t * Cy_DMA_Descriptor_GetNextDescriptor(cy_stc_dma_descriptor_t const * descr
 283:Generated_Source\PSoC6\pdl\drivers\peripheral\dma/cy_dma.c **** {
 799              		.loc 1 283 0
 800              		.cfi_startproc
 801              		@ args = 0, pretend = 0, frame = 0
ARM GAS  C:\Users\cypress\AppData\Local\Temp\ccD9LaTb.s 			page 21


 802              		@ frame_needed = 0, uses_anonymous_args = 0
 803              	.LVL61:
 804 0000 10B5     		push	{r4, lr}
 805              		.cfi_def_cfa_offset 8
 806              		.cfi_offset 4, -8
 807              		.cfi_offset 14, -4
 808 0002 041E     		subs	r4, r0, #0
 809              	.LVL62:
 284:Generated_Source\PSoC6\pdl\drivers\peripheral\dma/cy_dma.c ****     cy_stc_dma_descriptor_t * retVal = NULL;
 285:Generated_Source\PSoC6\pdl\drivers\peripheral\dma/cy_dma.c ****     
 286:Generated_Source\PSoC6\pdl\drivers\peripheral\dma/cy_dma.c ****     CY_ASSERT_L1(NULL != descriptor);
 810              		.loc 1 286 0
 811 0004 04D1     		bne	.L62
 812              		.loc 1 286 0 is_stmt 0 discriminator 1
 813 0006 8F21     		movs	r1, #143
 814 0008 4900     		lsls	r1, r1, #1
 815 000a 0A48     		ldr	r0, .L69
 816              	.LVL63:
 817 000c FFF7FEFF 		bl	Cy_SysLib_AssertFailed
 818              	.LVL64:
 819              	.L62:
 287:Generated_Source\PSoC6\pdl\drivers\peripheral\dma/cy_dma.c ****     
 288:Generated_Source\PSoC6\pdl\drivers\peripheral\dma/cy_dma.c ****     switch((cy_en_dma_descriptor_type_t) _FLD2VAL(CY_DMA_CTL_TYPE, descriptor->ctl))
 820              		.loc 1 288 0 is_stmt 1
 821 0010 2368     		ldr	r3, [r4]
 822 0012 9B0F     		lsrs	r3, r3, #30
 823 0014 012B     		cmp	r3, #1
 824 0016 06D0     		beq	.L64
 825 0018 002B     		cmp	r3, #0
 826 001a 02D0     		beq	.L65
 827 001c 022B     		cmp	r3, #2
 828 001e 04D0     		beq	.L66
 829 0020 05E0     		b	.L68
 830              	.L65:
 289:Generated_Source\PSoC6\pdl\drivers\peripheral\dma/cy_dma.c ****     {
 290:Generated_Source\PSoC6\pdl\drivers\peripheral\dma/cy_dma.c ****         case CY_DMA_SINGLE_TRANSFER:
 291:Generated_Source\PSoC6\pdl\drivers\peripheral\dma/cy_dma.c ****             retVal = (cy_stc_dma_descriptor_t*) descriptor->xCtl;
 831              		.loc 1 291 0
 832 0022 E068     		ldr	r0, [r4, #12]
 833              	.LVL65:
 292:Generated_Source\PSoC6\pdl\drivers\peripheral\dma/cy_dma.c ****             break;
 834              		.loc 1 292 0
 835 0024 04E0     		b	.L63
 836              	.LVL66:
 837              	.L64:
 293:Generated_Source\PSoC6\pdl\drivers\peripheral\dma/cy_dma.c ****             
 294:Generated_Source\PSoC6\pdl\drivers\peripheral\dma/cy_dma.c ****         case CY_DMA_1D_TRANSFER:
 295:Generated_Source\PSoC6\pdl\drivers\peripheral\dma/cy_dma.c ****             retVal = (cy_stc_dma_descriptor_t*) descriptor->yCtl;
 838              		.loc 1 295 0
 839 0026 2069     		ldr	r0, [r4, #16]
 840              	.LVL67:
 296:Generated_Source\PSoC6\pdl\drivers\peripheral\dma/cy_dma.c ****             break;
 841              		.loc 1 296 0
 842 0028 02E0     		b	.L63
 843              	.LVL68:
 844              	.L66:
 297:Generated_Source\PSoC6\pdl\drivers\peripheral\dma/cy_dma.c ****             
ARM GAS  C:\Users\cypress\AppData\Local\Temp\ccD9LaTb.s 			page 22


 298:Generated_Source\PSoC6\pdl\drivers\peripheral\dma/cy_dma.c ****         case CY_DMA_2D_TRANSFER:
 299:Generated_Source\PSoC6\pdl\drivers\peripheral\dma/cy_dma.c ****             retVal = (cy_stc_dma_descriptor_t*) descriptor->nextPtr;
 845              		.loc 1 299 0
 846 002a 6069     		ldr	r0, [r4, #20]
 847              	.LVL69:
 300:Generated_Source\PSoC6\pdl\drivers\peripheral\dma/cy_dma.c ****             break;
 848              		.loc 1 300 0
 849 002c 00E0     		b	.L63
 850              	.LVL70:
 851              	.L68:
 284:Generated_Source\PSoC6\pdl\drivers\peripheral\dma/cy_dma.c ****     
 852              		.loc 1 284 0
 853 002e 0020     		movs	r0, #0
 854              	.LVL71:
 855              	.L63:
 301:Generated_Source\PSoC6\pdl\drivers\peripheral\dma/cy_dma.c ****             
 302:Generated_Source\PSoC6\pdl\drivers\peripheral\dma/cy_dma.c ****         default:
 303:Generated_Source\PSoC6\pdl\drivers\peripheral\dma/cy_dma.c ****             /* An unsupported type of the descriptor */
 304:Generated_Source\PSoC6\pdl\drivers\peripheral\dma/cy_dma.c ****             break;
 305:Generated_Source\PSoC6\pdl\drivers\peripheral\dma/cy_dma.c ****     }
 306:Generated_Source\PSoC6\pdl\drivers\peripheral\dma/cy_dma.c ****     
 307:Generated_Source\PSoC6\pdl\drivers\peripheral\dma/cy_dma.c ****     return (retVal);
 308:Generated_Source\PSoC6\pdl\drivers\peripheral\dma/cy_dma.c **** }
 856              		.loc 1 308 0
 857              		@ sp needed
 858              	.LVL72:
 859 0030 10BD     		pop	{r4, pc}
 860              	.L70:
 861 0032 C046     		.align	2
 862              	.L69:
 863 0034 00000000 		.word	.LC0
 864              		.cfi_endproc
 865              	.LFE92:
 866              		.size	Cy_DMA_Descriptor_GetNextDescriptor, .-Cy_DMA_Descriptor_GetNextDescriptor
 867              		.section	.text.Cy_DMA_Descriptor_SetDescriptorType,"ax",%progbits
 868              		.align	2
 869              		.global	Cy_DMA_Descriptor_SetDescriptorType
 870              		.code	16
 871              		.thumb_func
 872              		.type	Cy_DMA_Descriptor_SetDescriptorType, %function
 873              	Cy_DMA_Descriptor_SetDescriptorType:
 874              	.LFB93:
 309:Generated_Source\PSoC6\pdl\drivers\peripheral\dma/cy_dma.c **** 
 310:Generated_Source\PSoC6\pdl\drivers\peripheral\dma/cy_dma.c **** 
 311:Generated_Source\PSoC6\pdl\drivers\peripheral\dma/cy_dma.c **** /*******************************************************************************
 312:Generated_Source\PSoC6\pdl\drivers\peripheral\dma/cy_dma.c **** * Function Name: Cy_DMA_Descriptor_SetDescriptorType
 313:Generated_Source\PSoC6\pdl\drivers\peripheral\dma/cy_dma.c **** ****************************************************************************//**
 314:Generated_Source\PSoC6\pdl\drivers\peripheral\dma/cy_dma.c **** *
 315:Generated_Source\PSoC6\pdl\drivers\peripheral\dma/cy_dma.c **** * Sets the descriptor's type for the specified descriptor.
 316:Generated_Source\PSoC6\pdl\drivers\peripheral\dma/cy_dma.c **** * Moves the next descriptor register value into the proper place in accordance
 317:Generated_Source\PSoC6\pdl\drivers\peripheral\dma/cy_dma.c **** * to the actual descriptor type.
 318:Generated_Source\PSoC6\pdl\drivers\peripheral\dma/cy_dma.c **** * During the descriptor's type changing, the Xloop and Yloop settings, such as 
 319:Generated_Source\PSoC6\pdl\drivers\peripheral\dma/cy_dma.c **** * data count and source/destination increment (i.e. the content of the 
 320:Generated_Source\PSoC6\pdl\drivers\peripheral\dma/cy_dma.c **** * xCtl and yCtl descriptor registers) might be lost (overriden by the 
 321:Generated_Source\PSoC6\pdl\drivers\peripheral\dma/cy_dma.c **** * next descriptor value) because of the different descriptor registers structures
 322:Generated_Source\PSoC6\pdl\drivers\peripheral\dma/cy_dma.c **** * for different descriptor types. Set up carefully the Xloop
 323:Generated_Source\PSoC6\pdl\drivers\peripheral\dma/cy_dma.c **** * (and Yloop, if used) data count and source/destination increment if the
ARM GAS  C:\Users\cypress\AppData\Local\Temp\ccD9LaTb.s 			page 23


 324:Generated_Source\PSoC6\pdl\drivers\peripheral\dma/cy_dma.c **** * descriptor type is changed from a simpler to a more complicated type 
 325:Generated_Source\PSoC6\pdl\drivers\peripheral\dma/cy_dma.c **** * ("single transfer" -> "1D", "1D" -> "2D", etc.).
 326:Generated_Source\PSoC6\pdl\drivers\peripheral\dma/cy_dma.c **** * 
 327:Generated_Source\PSoC6\pdl\drivers\peripheral\dma/cy_dma.c **** * \param descriptor
 328:Generated_Source\PSoC6\pdl\drivers\peripheral\dma/cy_dma.c **** * The descriptor structure instance declared by the user/component.
 329:Generated_Source\PSoC6\pdl\drivers\peripheral\dma/cy_dma.c **** *
 330:Generated_Source\PSoC6\pdl\drivers\peripheral\dma/cy_dma.c **** * \param descriptorType 
 331:Generated_Source\PSoC6\pdl\drivers\peripheral\dma/cy_dma.c **** * The descriptor type \ref cy_en_dma_descriptor_type_t.
 332:Generated_Source\PSoC6\pdl\drivers\peripheral\dma/cy_dma.c **** *
 333:Generated_Source\PSoC6\pdl\drivers\peripheral\dma/cy_dma.c **** *******************************************************************************/
 334:Generated_Source\PSoC6\pdl\drivers\peripheral\dma/cy_dma.c **** void Cy_DMA_Descriptor_SetDescriptorType(cy_stc_dma_descriptor_t * descriptor, cy_en_dma_descriptor
 335:Generated_Source\PSoC6\pdl\drivers\peripheral\dma/cy_dma.c **** {
 875              		.loc 1 335 0
 876              		.cfi_startproc
 877              		@ args = 0, pretend = 0, frame = 0
 878              		@ frame_needed = 0, uses_anonymous_args = 0
 879              	.LVL73:
 880 0000 70B5     		push	{r4, r5, r6, lr}
 881              		.cfi_def_cfa_offset 16
 882              		.cfi_offset 4, -16
 883              		.cfi_offset 5, -12
 884              		.cfi_offset 6, -8
 885              		.cfi_offset 14, -4
 886 0002 0400     		movs	r4, r0
 887 0004 0D00     		movs	r5, r1
 336:Generated_Source\PSoC6\pdl\drivers\peripheral\dma/cy_dma.c ****     CY_ASSERT_L1(NULL != descriptor);
 888              		.loc 1 336 0
 889 0006 0028     		cmp	r0, #0
 890 0008 04D1     		bne	.L72
 891              		.loc 1 336 0 is_stmt 0 discriminator 1
 892 000a A821     		movs	r1, #168
 893              	.LVL74:
 894 000c 4900     		lsls	r1, r1, #1
 895 000e 1148     		ldr	r0, .L76
 896              	.LVL75:
 897 0010 FFF7FEFF 		bl	Cy_SysLib_AssertFailed
 898              	.LVL76:
 899              	.L72:
 337:Generated_Source\PSoC6\pdl\drivers\peripheral\dma/cy_dma.c ****     CY_ASSERT_L3(CY_DMA_IS_TYPE_VALID(descriptorType));
 900              		.loc 1 337 0 is_stmt 1
 901 0014 022D     		cmp	r5, #2
 902 0016 04D9     		bls	.L73
 903              		.loc 1 337 0 is_stmt 0 discriminator 1
 904 0018 5221     		movs	r1, #82
 905 001a FF31     		adds	r1, r1, #255
 906 001c 0D48     		ldr	r0, .L76
 907 001e FFF7FEFF 		bl	Cy_SysLib_AssertFailed
 908              	.LVL77:
 909              	.L73:
 910              	.LBB5:
 911              	.LBB6:
 912              		.file 2 "Generated_Source\\PSoC6\\pdl\\drivers\\peripheral\\dma\\cy_dma.h"
   1:Generated_Source\PSoC6\pdl\drivers\peripheral\dma/cy_dma.h **** /***************************************************************************//**
   2:Generated_Source\PSoC6\pdl\drivers\peripheral\dma/cy_dma.h **** * \file cy_dma.h
   3:Generated_Source\PSoC6\pdl\drivers\peripheral\dma/cy_dma.h **** * \version 2.0.1
   4:Generated_Source\PSoC6\pdl\drivers\peripheral\dma/cy_dma.h **** *
   5:Generated_Source\PSoC6\pdl\drivers\peripheral\dma/cy_dma.h **** * \brief
ARM GAS  C:\Users\cypress\AppData\Local\Temp\ccD9LaTb.s 			page 24


   6:Generated_Source\PSoC6\pdl\drivers\peripheral\dma/cy_dma.h **** * The header file of the DMA driver.
   7:Generated_Source\PSoC6\pdl\drivers\peripheral\dma/cy_dma.h **** *
   8:Generated_Source\PSoC6\pdl\drivers\peripheral\dma/cy_dma.h **** ********************************************************************************
   9:Generated_Source\PSoC6\pdl\drivers\peripheral\dma/cy_dma.h **** * \copyright
  10:Generated_Source\PSoC6\pdl\drivers\peripheral\dma/cy_dma.h **** * Copyright 2016-2018, Cypress Semiconductor Corporation. All rights reserved.
  11:Generated_Source\PSoC6\pdl\drivers\peripheral\dma/cy_dma.h **** * You may use this file only in accordance with the license, terms, conditions,
  12:Generated_Source\PSoC6\pdl\drivers\peripheral\dma/cy_dma.h **** * disclaimers, and limitations in the end user license agreement accompanying
  13:Generated_Source\PSoC6\pdl\drivers\peripheral\dma/cy_dma.h **** * the software package with which this file was provided.
  14:Generated_Source\PSoC6\pdl\drivers\peripheral\dma/cy_dma.h **** *******************************************************************************/
  15:Generated_Source\PSoC6\pdl\drivers\peripheral\dma/cy_dma.h **** 
  16:Generated_Source\PSoC6\pdl\drivers\peripheral\dma/cy_dma.h **** /**
  17:Generated_Source\PSoC6\pdl\drivers\peripheral\dma/cy_dma.h **** * \defgroup group_dma Direct Memory Access (DMA)
  18:Generated_Source\PSoC6\pdl\drivers\peripheral\dma/cy_dma.h **** * \{
  19:Generated_Source\PSoC6\pdl\drivers\peripheral\dma/cy_dma.h **** * Configures a DMA channel and its descriptor(s).
  20:Generated_Source\PSoC6\pdl\drivers\peripheral\dma/cy_dma.h **** *
  21:Generated_Source\PSoC6\pdl\drivers\peripheral\dma/cy_dma.h **** * The DMA channel can be used in any project to transfer data
  22:Generated_Source\PSoC6\pdl\drivers\peripheral\dma/cy_dma.h **** * without CPU intervention basing on a hardware trigger signal from another component.
  23:Generated_Source\PSoC6\pdl\drivers\peripheral\dma/cy_dma.h **** *
  24:Generated_Source\PSoC6\pdl\drivers\peripheral\dma/cy_dma.h **** * A device may support more than one DMA hardware block. Each block has a set of 
  25:Generated_Source\PSoC6\pdl\drivers\peripheral\dma/cy_dma.h **** * registers, a base hardware address, and supports multiple channels. 
  26:Generated_Source\PSoC6\pdl\drivers\peripheral\dma/cy_dma.h **** * Many API functions for the DMA driver require a base hardware address and  
  27:Generated_Source\PSoC6\pdl\drivers\peripheral\dma/cy_dma.h **** * channel number. Ensure that you use the correct hardware address for the DMA block in use.
  28:Generated_Source\PSoC6\pdl\drivers\peripheral\dma/cy_dma.h **** * 
  29:Generated_Source\PSoC6\pdl\drivers\peripheral\dma/cy_dma.h **** * Features:
  30:Generated_Source\PSoC6\pdl\drivers\peripheral\dma/cy_dma.h **** * * Devices support up to two DMA hardware blocks
  31:Generated_Source\PSoC6\pdl\drivers\peripheral\dma/cy_dma.h **** * * Each DMA block supports up to 16 DMA channels
  32:Generated_Source\PSoC6\pdl\drivers\peripheral\dma/cy_dma.h **** * * Supports channel descriptors in SRAM
  33:Generated_Source\PSoC6\pdl\drivers\peripheral\dma/cy_dma.h **** * * Four priority levels for each channel
  34:Generated_Source\PSoC6\pdl\drivers\peripheral\dma/cy_dma.h **** * * Byte, half-word (2-byte), and word (4-byte) transfers
  35:Generated_Source\PSoC6\pdl\drivers\peripheral\dma/cy_dma.h **** * * Configurable source and destination addresses
  36:Generated_Source\PSoC6\pdl\drivers\peripheral\dma/cy_dma.h **** *
  37:Generated_Source\PSoC6\pdl\drivers\peripheral\dma/cy_dma.h **** * \section group_dma_configuration Configuration Considerations
  38:Generated_Source\PSoC6\pdl\drivers\peripheral\dma/cy_dma.h **** *
  39:Generated_Source\PSoC6\pdl\drivers\peripheral\dma/cy_dma.h **** * To set up a DMA driver, initialize a descriptor,
  40:Generated_Source\PSoC6\pdl\drivers\peripheral\dma/cy_dma.h **** * intialize and enable a channel, and enable the DMA block.
  41:Generated_Source\PSoC6\pdl\drivers\peripheral\dma/cy_dma.h **** * 
  42:Generated_Source\PSoC6\pdl\drivers\peripheral\dma/cy_dma.h **** * To set up a descriptor, provide the configuration parameters for the 
  43:Generated_Source\PSoC6\pdl\drivers\peripheral\dma/cy_dma.h **** * descriptor in the \ref cy_stc_dma_descriptor_config_t structure. Then call the 
  44:Generated_Source\PSoC6\pdl\drivers\peripheral\dma/cy_dma.h **** * \ref Cy_DMA_Descriptor_Init function to initialize the descriptor in SRAM. You can 
  45:Generated_Source\PSoC6\pdl\drivers\peripheral\dma/cy_dma.h **** * modify the source and destination addresses dynamically by calling 
  46:Generated_Source\PSoC6\pdl\drivers\peripheral\dma/cy_dma.h **** * \ref Cy_DMA_Descriptor_SetSrcAddress and \ref Cy_DMA_Descriptor_SetDstAddress.
  47:Generated_Source\PSoC6\pdl\drivers\peripheral\dma/cy_dma.h **** * 
  48:Generated_Source\PSoC6\pdl\drivers\peripheral\dma/cy_dma.h **** * To set up a DMA channel, provide a filled \ref cy_stc_dma_channel_config_t 
  49:Generated_Source\PSoC6\pdl\drivers\peripheral\dma/cy_dma.h **** * structure. Call the \ref Cy_DMA_Channel_Init function, specifying the channel
  50:Generated_Source\PSoC6\pdl\drivers\peripheral\dma/cy_dma.h **** * number. Use \ref Cy_DMA_Channel_Enable to enable the configured DMA channel.
  51:Generated_Source\PSoC6\pdl\drivers\peripheral\dma/cy_dma.h **** *
  52:Generated_Source\PSoC6\pdl\drivers\peripheral\dma/cy_dma.h **** * Call \ref Cy_DMA_Channel_Enable for each DMA channel in use.
  53:Generated_Source\PSoC6\pdl\drivers\peripheral\dma/cy_dma.h **** *
  54:Generated_Source\PSoC6\pdl\drivers\peripheral\dma/cy_dma.h **** * When configured, another peripheral typically triggers the DMA. The trigger is
  55:Generated_Source\PSoC6\pdl\drivers\peripheral\dma/cy_dma.h **** * connected to the DMA using the trigger multiplexer. The trigger multiplexer
  56:Generated_Source\PSoC6\pdl\drivers\peripheral\dma/cy_dma.h **** * driver has a software trigger you can use in firmware to trigger the DMA. See the
  57:Generated_Source\PSoC6\pdl\drivers\peripheral\dma/cy_dma.h **** * <a href="group__group__trigmux.html">Trigger Multiplexer</a> documentation.
  58:Generated_Source\PSoC6\pdl\drivers\peripheral\dma/cy_dma.h **** *
  59:Generated_Source\PSoC6\pdl\drivers\peripheral\dma/cy_dma.h **** * The following is a simplified structure of the DMA driver API interdependencies
  60:Generated_Source\PSoC6\pdl\drivers\peripheral\dma/cy_dma.h **** * in a typical user application:
  61:Generated_Source\PSoC6\pdl\drivers\peripheral\dma/cy_dma.h **** * \image html dma.png
  62:Generated_Source\PSoC6\pdl\drivers\peripheral\dma/cy_dma.h **** *
ARM GAS  C:\Users\cypress\AppData\Local\Temp\ccD9LaTb.s 			page 25


  63:Generated_Source\PSoC6\pdl\drivers\peripheral\dma/cy_dma.h **** * <B>NOTE:</B> Even if a DMA channel is enabled, it is not operational until 
  64:Generated_Source\PSoC6\pdl\drivers\peripheral\dma/cy_dma.h **** * the DMA block is enabled using function \ref Cy_DMA_Enable.\n
  65:Generated_Source\PSoC6\pdl\drivers\peripheral\dma/cy_dma.h **** * <B>NOTE:</B> if the DMA descriptor is configured to generate an interrupt, 
  66:Generated_Source\PSoC6\pdl\drivers\peripheral\dma/cy_dma.h **** * the interrupt must be enabled using the \ref Cy_DMA_Channel_SetInterruptMask 
  67:Generated_Source\PSoC6\pdl\drivers\peripheral\dma/cy_dma.h **** * function for each DMA channel.
  68:Generated_Source\PSoC6\pdl\drivers\peripheral\dma/cy_dma.h **** *
  69:Generated_Source\PSoC6\pdl\drivers\peripheral\dma/cy_dma.h **** * For example:
  70:Generated_Source\PSoC6\pdl\drivers\peripheral\dma/cy_dma.h **** * \snippet dma/dma_v2_0_sut_00.cydsn/main_cm4.c Cy_DMA_Snippet
  71:Generated_Source\PSoC6\pdl\drivers\peripheral\dma/cy_dma.h **** * 
  72:Generated_Source\PSoC6\pdl\drivers\peripheral\dma/cy_dma.h **** * \section group_dma_more_information More Information.
  73:Generated_Source\PSoC6\pdl\drivers\peripheral\dma/cy_dma.h **** * See: the DMA chapter of the device technical reference manual (TRM);
  74:Generated_Source\PSoC6\pdl\drivers\peripheral\dma/cy_dma.h **** *      the DMA Component datasheet;
  75:Generated_Source\PSoC6\pdl\drivers\peripheral\dma/cy_dma.h **** *      CE219940 - PSoC 6 MCU Multiple DMA Concatenation.
  76:Generated_Source\PSoC6\pdl\drivers\peripheral\dma/cy_dma.h **** *
  77:Generated_Source\PSoC6\pdl\drivers\peripheral\dma/cy_dma.h **** * \section group_dma_MISRA MISRA-C Compliance
  78:Generated_Source\PSoC6\pdl\drivers\peripheral\dma/cy_dma.h **** * The DMA driver has the following specific deviations:
  79:Generated_Source\PSoC6\pdl\drivers\peripheral\dma/cy_dma.h **** *
  80:Generated_Source\PSoC6\pdl\drivers\peripheral\dma/cy_dma.h **** * <table class="doxtable">
  81:Generated_Source\PSoC6\pdl\drivers\peripheral\dma/cy_dma.h **** *   <tr>
  82:Generated_Source\PSoC6\pdl\drivers\peripheral\dma/cy_dma.h **** *     <th>MISRA Rule</th>
  83:Generated_Source\PSoC6\pdl\drivers\peripheral\dma/cy_dma.h **** *     <th>Rule Class (Required/Advisory)</th>
  84:Generated_Source\PSoC6\pdl\drivers\peripheral\dma/cy_dma.h **** *     <th>Rule Description</th>
  85:Generated_Source\PSoC6\pdl\drivers\peripheral\dma/cy_dma.h **** *     <th>Description of Deviation(s)</th>
  86:Generated_Source\PSoC6\pdl\drivers\peripheral\dma/cy_dma.h **** *   </tr>
  87:Generated_Source\PSoC6\pdl\drivers\peripheral\dma/cy_dma.h **** *   <tr>
  88:Generated_Source\PSoC6\pdl\drivers\peripheral\dma/cy_dma.h **** *     <td>10.3</td>
  89:Generated_Source\PSoC6\pdl\drivers\peripheral\dma/cy_dma.h **** *     <td>R</td>
  90:Generated_Source\PSoC6\pdl\drivers\peripheral\dma/cy_dma.h **** *     <td>A composite expression of the "essentially unsigned" type is being
  91:Generated_Source\PSoC6\pdl\drivers\peripheral\dma/cy_dma.h **** *         cast to a different type category.</td>
  92:Generated_Source\PSoC6\pdl\drivers\peripheral\dma/cy_dma.h **** *     <td>The value got from the bitfield physically cannot exceed the enumeration
  93:Generated_Source\PSoC6\pdl\drivers\peripheral\dma/cy_dma.h **** *         that describes this bitfield. So, the code is safe by design.</td>
  94:Generated_Source\PSoC6\pdl\drivers\peripheral\dma/cy_dma.h **** *   </tr>
  95:Generated_Source\PSoC6\pdl\drivers\peripheral\dma/cy_dma.h **** *   <tr>
  96:Generated_Source\PSoC6\pdl\drivers\peripheral\dma/cy_dma.h **** *     <td>14.2</td>
  97:Generated_Source\PSoC6\pdl\drivers\peripheral\dma/cy_dma.h **** *     <td>R</td>
  98:Generated_Source\PSoC6\pdl\drivers\peripheral\dma/cy_dma.h **** *     <td>All non-null statements will either:
  99:Generated_Source\PSoC6\pdl\drivers\peripheral\dma/cy_dma.h **** *       a) have at least one-side effect however executed;
 100:Generated_Source\PSoC6\pdl\drivers\peripheral\dma/cy_dma.h **** *       b) cause the control flow to change</td>
 101:Generated_Source\PSoC6\pdl\drivers\peripheral\dma/cy_dma.h **** *     <td>A Read operation result is ignored when this read is just intended
 102:Generated_Source\PSoC6\pdl\drivers\peripheral\dma/cy_dma.h **** *         to ensure the previous Write operation is flushed out to the hardware.</td>
 103:Generated_Source\PSoC6\pdl\drivers\peripheral\dma/cy_dma.h **** *   </tr>
 104:Generated_Source\PSoC6\pdl\drivers\peripheral\dma/cy_dma.h **** * </table>
 105:Generated_Source\PSoC6\pdl\drivers\peripheral\dma/cy_dma.h **** *
 106:Generated_Source\PSoC6\pdl\drivers\peripheral\dma/cy_dma.h **** * \section group_dma_changelog Changelog
 107:Generated_Source\PSoC6\pdl\drivers\peripheral\dma/cy_dma.h **** *
 108:Generated_Source\PSoC6\pdl\drivers\peripheral\dma/cy_dma.h **** * <table class="doxtable">
 109:Generated_Source\PSoC6\pdl\drivers\peripheral\dma/cy_dma.h **** *   <tr><th>Version</th><th>Changes</th><th>Reason for Change</th></tr>
 110:Generated_Source\PSoC6\pdl\drivers\peripheral\dma/cy_dma.h **** *   <tr>
 111:Generated_Source\PSoC6\pdl\drivers\peripheral\dma/cy_dma.h **** *     <td>2.0.1</td>
 112:Generated_Source\PSoC6\pdl\drivers\peripheral\dma/cy_dma.h **** *     <td>Changed \ref CY_DMA_BWC macro values from Boolean to numeric</td>
 113:Generated_Source\PSoC6\pdl\drivers\peripheral\dma/cy_dma.h **** *     <td>Improvements made based on usability feedback</td>
 114:Generated_Source\PSoC6\pdl\drivers\peripheral\dma/cy_dma.h **** *   </tr>
 115:Generated_Source\PSoC6\pdl\drivers\peripheral\dma/cy_dma.h **** *   <tr>
 116:Generated_Source\PSoC6\pdl\drivers\peripheral\dma/cy_dma.h **** *     <td>2.0</td>
 117:Generated_Source\PSoC6\pdl\drivers\peripheral\dma/cy_dma.h **** *     <td>* All the API is refactored to be consistent within itself and with the
 118:Generated_Source\PSoC6\pdl\drivers\peripheral\dma/cy_dma.h **** *           rest of the PDL content.
 119:Generated_Source\PSoC6\pdl\drivers\peripheral\dma/cy_dma.h **** *         * The descriptor API is updated as follows:
ARM GAS  C:\Users\cypress\AppData\Local\Temp\ccD9LaTb.s 			page 26


 120:Generated_Source\PSoC6\pdl\drivers\peripheral\dma/cy_dma.h **** *           The \ref Cy_DMA_Descriptor_Init function sets a full bunch of descriptor
 121:Generated_Source\PSoC6\pdl\drivers\peripheral\dma/cy_dma.h **** *           settings, and the rest of the descriptor API is a get/set interface
 122:Generated_Source\PSoC6\pdl\drivers\peripheral\dma/cy_dma.h **** *           to each of the descriptor settings.
 123:Generated_Source\PSoC6\pdl\drivers\peripheral\dma/cy_dma.h **** *         * There is a group of macros to support the backward compatibility with most 
 124:Generated_Source\PSoC6\pdl\drivers\peripheral\dma/cy_dma.h **** *           of the driver version 1.0 API. But, it is strongly recommended to use
 125:Generated_Source\PSoC6\pdl\drivers\peripheral\dma/cy_dma.h **** *           the new v2.0 interface in new designs (do not just copy-paste from old
 126:Generated_Source\PSoC6\pdl\drivers\peripheral\dma/cy_dma.h **** *           projects). To enable the backward compatibility support, the CY_DMA_BWC 
 127:Generated_Source\PSoC6\pdl\drivers\peripheral\dma/cy_dma.h **** *           definition should be changed to "1".</td>
 128:Generated_Source\PSoC6\pdl\drivers\peripheral\dma/cy_dma.h **** *     <td></td>
 129:Generated_Source\PSoC6\pdl\drivers\peripheral\dma/cy_dma.h **** *   </tr>
 130:Generated_Source\PSoC6\pdl\drivers\peripheral\dma/cy_dma.h **** *   <tr>
 131:Generated_Source\PSoC6\pdl\drivers\peripheral\dma/cy_dma.h **** *     <td>1.0</td>
 132:Generated_Source\PSoC6\pdl\drivers\peripheral\dma/cy_dma.h **** *     <td>Initial version</td>
 133:Generated_Source\PSoC6\pdl\drivers\peripheral\dma/cy_dma.h **** *     <td></td>
 134:Generated_Source\PSoC6\pdl\drivers\peripheral\dma/cy_dma.h **** *   </tr>
 135:Generated_Source\PSoC6\pdl\drivers\peripheral\dma/cy_dma.h **** * </table>
 136:Generated_Source\PSoC6\pdl\drivers\peripheral\dma/cy_dma.h **** *
 137:Generated_Source\PSoC6\pdl\drivers\peripheral\dma/cy_dma.h **** 
 138:Generated_Source\PSoC6\pdl\drivers\peripheral\dma/cy_dma.h **** * \defgroup group_dma_macros Macros
 139:Generated_Source\PSoC6\pdl\drivers\peripheral\dma/cy_dma.h **** * \defgroup group_dma_functions Functions
 140:Generated_Source\PSoC6\pdl\drivers\peripheral\dma/cy_dma.h **** * \{
 141:Generated_Source\PSoC6\pdl\drivers\peripheral\dma/cy_dma.h **** * \defgroup group_dma_block_functions Block Functions
 142:Generated_Source\PSoC6\pdl\drivers\peripheral\dma/cy_dma.h **** * \defgroup group_dma_descriptor_functions Descriptor Functions
 143:Generated_Source\PSoC6\pdl\drivers\peripheral\dma/cy_dma.h **** * \defgroup group_dma_channel_functions Channel Functions
 144:Generated_Source\PSoC6\pdl\drivers\peripheral\dma/cy_dma.h **** * \}
 145:Generated_Source\PSoC6\pdl\drivers\peripheral\dma/cy_dma.h **** * \defgroup group_dma_data_structures Data Structures
 146:Generated_Source\PSoC6\pdl\drivers\peripheral\dma/cy_dma.h **** * \defgroup group_dma_enums Enumerated Types
 147:Generated_Source\PSoC6\pdl\drivers\peripheral\dma/cy_dma.h **** */
 148:Generated_Source\PSoC6\pdl\drivers\peripheral\dma/cy_dma.h **** 
 149:Generated_Source\PSoC6\pdl\drivers\peripheral\dma/cy_dma.h **** #if !defined(CY_DMA_H)
 150:Generated_Source\PSoC6\pdl\drivers\peripheral\dma/cy_dma.h **** #define CY_DMA_H
 151:Generated_Source\PSoC6\pdl\drivers\peripheral\dma/cy_dma.h **** 
 152:Generated_Source\PSoC6\pdl\drivers\peripheral\dma/cy_dma.h **** #include <stdint.h>
 153:Generated_Source\PSoC6\pdl\drivers\peripheral\dma/cy_dma.h **** #include <stdbool.h>
 154:Generated_Source\PSoC6\pdl\drivers\peripheral\dma/cy_dma.h **** #include <stddef.h>
 155:Generated_Source\PSoC6\pdl\drivers\peripheral\dma/cy_dma.h **** #include "syslib/cy_syslib.h"
 156:Generated_Source\PSoC6\pdl\drivers\peripheral\dma/cy_dma.h **** #include "cy_device_headers.h"
 157:Generated_Source\PSoC6\pdl\drivers\peripheral\dma/cy_dma.h **** 
 158:Generated_Source\PSoC6\pdl\drivers\peripheral\dma/cy_dma.h **** #ifndef CY_IP_M4CPUSS_DMA
 159:Generated_Source\PSoC6\pdl\drivers\peripheral\dma/cy_dma.h ****     #error "The DMA driver is not supported on this device"
 160:Generated_Source\PSoC6\pdl\drivers\peripheral\dma/cy_dma.h **** #endif
 161:Generated_Source\PSoC6\pdl\drivers\peripheral\dma/cy_dma.h **** 
 162:Generated_Source\PSoC6\pdl\drivers\peripheral\dma/cy_dma.h **** #if defined(__cplusplus)
 163:Generated_Source\PSoC6\pdl\drivers\peripheral\dma/cy_dma.h **** extern "C" {
 164:Generated_Source\PSoC6\pdl\drivers\peripheral\dma/cy_dma.h **** #endif
 165:Generated_Source\PSoC6\pdl\drivers\peripheral\dma/cy_dma.h **** 
 166:Generated_Source\PSoC6\pdl\drivers\peripheral\dma/cy_dma.h **** /******************************************************************************
 167:Generated_Source\PSoC6\pdl\drivers\peripheral\dma/cy_dma.h ****  * Macro definitions                                                          *
 168:Generated_Source\PSoC6\pdl\drivers\peripheral\dma/cy_dma.h ****  ******************************************************************************/
 169:Generated_Source\PSoC6\pdl\drivers\peripheral\dma/cy_dma.h **** 
 170:Generated_Source\PSoC6\pdl\drivers\peripheral\dma/cy_dma.h **** /**
 171:Generated_Source\PSoC6\pdl\drivers\peripheral\dma/cy_dma.h **** * \addtogroup group_dma_macros
 172:Generated_Source\PSoC6\pdl\drivers\peripheral\dma/cy_dma.h **** * \{
 173:Generated_Source\PSoC6\pdl\drivers\peripheral\dma/cy_dma.h **** */
 174:Generated_Source\PSoC6\pdl\drivers\peripheral\dma/cy_dma.h **** 
 175:Generated_Source\PSoC6\pdl\drivers\peripheral\dma/cy_dma.h **** /** The driver major version */
 176:Generated_Source\PSoC6\pdl\drivers\peripheral\dma/cy_dma.h **** #define CY_DMA_DRV_VERSION_MAJOR       2
ARM GAS  C:\Users\cypress\AppData\Local\Temp\ccD9LaTb.s 			page 27


 177:Generated_Source\PSoC6\pdl\drivers\peripheral\dma/cy_dma.h **** 
 178:Generated_Source\PSoC6\pdl\drivers\peripheral\dma/cy_dma.h **** /** The driver minor version */
 179:Generated_Source\PSoC6\pdl\drivers\peripheral\dma/cy_dma.h **** #define CY_DMA_DRV_VERSION_MINOR       0
 180:Generated_Source\PSoC6\pdl\drivers\peripheral\dma/cy_dma.h **** 
 181:Generated_Source\PSoC6\pdl\drivers\peripheral\dma/cy_dma.h **** /** The DMA driver identifier */
 182:Generated_Source\PSoC6\pdl\drivers\peripheral\dma/cy_dma.h **** #define CY_DMA_ID                      (CY_PDL_DRV_ID(0x13U))
 183:Generated_Source\PSoC6\pdl\drivers\peripheral\dma/cy_dma.h ****  
 184:Generated_Source\PSoC6\pdl\drivers\peripheral\dma/cy_dma.h **** /** The DMA channel interrupt mask */
 185:Generated_Source\PSoC6\pdl\drivers\peripheral\dma/cy_dma.h **** #define CY_DMA_INTR_MASK               (0x01UL)
 186:Generated_Source\PSoC6\pdl\drivers\peripheral\dma/cy_dma.h **** 
 187:Generated_Source\PSoC6\pdl\drivers\peripheral\dma/cy_dma.h **** /** The backward compatibility flag. Enables a group of macros which provide 
 188:Generated_Source\PSoC6\pdl\drivers\peripheral\dma/cy_dma.h **** * the backward compatibility with most of the DMA driver version 1.0 interface. */
 189:Generated_Source\PSoC6\pdl\drivers\peripheral\dma/cy_dma.h **** #ifndef CY_DMA_BWC
 190:Generated_Source\PSoC6\pdl\drivers\peripheral\dma/cy_dma.h ****     #define CY_DMA_BWC                 (0U)
 191:Generated_Source\PSoC6\pdl\drivers\peripheral\dma/cy_dma.h **** #endif
 192:Generated_Source\PSoC6\pdl\drivers\peripheral\dma/cy_dma.h **** 
 193:Generated_Source\PSoC6\pdl\drivers\peripheral\dma/cy_dma.h **** /** \} group_dma_macros */
 194:Generated_Source\PSoC6\pdl\drivers\peripheral\dma/cy_dma.h **** 
 195:Generated_Source\PSoC6\pdl\drivers\peripheral\dma/cy_dma.h **** 
 196:Generated_Source\PSoC6\pdl\drivers\peripheral\dma/cy_dma.h **** /**
 197:Generated_Source\PSoC6\pdl\drivers\peripheral\dma/cy_dma.h **** * \addtogroup group_dma_enums
 198:Generated_Source\PSoC6\pdl\drivers\peripheral\dma/cy_dma.h **** * \{
 199:Generated_Source\PSoC6\pdl\drivers\peripheral\dma/cy_dma.h **** */
 200:Generated_Source\PSoC6\pdl\drivers\peripheral\dma/cy_dma.h **** 
 201:Generated_Source\PSoC6\pdl\drivers\peripheral\dma/cy_dma.h **** /** Contains the possible interrupt cause values */
 202:Generated_Source\PSoC6\pdl\drivers\peripheral\dma/cy_dma.h **** typedef enum
 203:Generated_Source\PSoC6\pdl\drivers\peripheral\dma/cy_dma.h **** {
 204:Generated_Source\PSoC6\pdl\drivers\peripheral\dma/cy_dma.h ****     CY_DMA_INTR_CAUSE_NO_INTR            = 0U, /**< No interrupt                         */
 205:Generated_Source\PSoC6\pdl\drivers\peripheral\dma/cy_dma.h ****     CY_DMA_INTR_CAUSE_COMPLETION         = 1U, /**< Completion                           */
 206:Generated_Source\PSoC6\pdl\drivers\peripheral\dma/cy_dma.h ****     CY_DMA_INTR_CAUSE_SRC_BUS_ERROR      = 2U, /**< Source bus error                     */
 207:Generated_Source\PSoC6\pdl\drivers\peripheral\dma/cy_dma.h ****     CY_DMA_INTR_CAUSE_DST_BUS_ERROR      = 3U, /**< Destination bus error                */
 208:Generated_Source\PSoC6\pdl\drivers\peripheral\dma/cy_dma.h ****     CY_DMA_INTR_CAUSE_SRC_MISAL          = 4U, /**< Source address is not aligned        */
 209:Generated_Source\PSoC6\pdl\drivers\peripheral\dma/cy_dma.h ****     CY_DMA_INTR_CAUSE_DST_MISAL          = 5U, /**< Destination address is not aligned   */
 210:Generated_Source\PSoC6\pdl\drivers\peripheral\dma/cy_dma.h ****     CY_DMA_INTR_CAUSE_CURR_PTR_NULL      = 6U, /**< Current descripror pointer is NULL   */
 211:Generated_Source\PSoC6\pdl\drivers\peripheral\dma/cy_dma.h ****     CY_DMA_INTR_CAUSE_ACTIVE_CH_DISABLED = 7U, /**< Active channel is disabled           */
 212:Generated_Source\PSoC6\pdl\drivers\peripheral\dma/cy_dma.h ****     CY_DMA_INTR_CAUSE_DESCR_BUS_ERROR    = 8U  /**< Descriptor bus error                 */
 213:Generated_Source\PSoC6\pdl\drivers\peripheral\dma/cy_dma.h **** } cy_en_dma_intr_cause_t;
 214:Generated_Source\PSoC6\pdl\drivers\peripheral\dma/cy_dma.h **** 
 215:Generated_Source\PSoC6\pdl\drivers\peripheral\dma/cy_dma.h **** /** Contains the options for the descriptor type */
 216:Generated_Source\PSoC6\pdl\drivers\peripheral\dma/cy_dma.h **** typedef enum
 217:Generated_Source\PSoC6\pdl\drivers\peripheral\dma/cy_dma.h **** {
 218:Generated_Source\PSoC6\pdl\drivers\peripheral\dma/cy_dma.h ****     CY_DMA_SINGLE_TRANSFER = 0UL,          /**< Single transfer. */
 219:Generated_Source\PSoC6\pdl\drivers\peripheral\dma/cy_dma.h ****     CY_DMA_1D_TRANSFER     = 1UL,          /**< 1D transfer.     */
 220:Generated_Source\PSoC6\pdl\drivers\peripheral\dma/cy_dma.h ****     CY_DMA_2D_TRANSFER     = 2UL           /**< 2D transfer.     */
 221:Generated_Source\PSoC6\pdl\drivers\peripheral\dma/cy_dma.h **** } cy_en_dma_descriptor_type_t;
 222:Generated_Source\PSoC6\pdl\drivers\peripheral\dma/cy_dma.h **** 
 223:Generated_Source\PSoC6\pdl\drivers\peripheral\dma/cy_dma.h **** /** Contains the options for the interrupt, trig-in and trig-out type parameters of the descriptor 
 224:Generated_Source\PSoC6\pdl\drivers\peripheral\dma/cy_dma.h **** typedef enum
 225:Generated_Source\PSoC6\pdl\drivers\peripheral\dma/cy_dma.h **** {
 226:Generated_Source\PSoC6\pdl\drivers\peripheral\dma/cy_dma.h ****     CY_DMA_1ELEMENT    = 0UL,               /**< One element transfer.             */
 227:Generated_Source\PSoC6\pdl\drivers\peripheral\dma/cy_dma.h ****     CY_DMA_X_LOOP      = 1UL,               /**< One X loop transfer.              */
 228:Generated_Source\PSoC6\pdl\drivers\peripheral\dma/cy_dma.h ****     CY_DMA_DESCR       = 2UL,               /**< One descriptor transfer.          */
 229:Generated_Source\PSoC6\pdl\drivers\peripheral\dma/cy_dma.h ****     CY_DMA_DESCR_CHAIN = 3UL                /**< Entire descriptor chain transfer. */
 230:Generated_Source\PSoC6\pdl\drivers\peripheral\dma/cy_dma.h **** } cy_en_dma_trigger_type_t;
 231:Generated_Source\PSoC6\pdl\drivers\peripheral\dma/cy_dma.h **** 
 232:Generated_Source\PSoC6\pdl\drivers\peripheral\dma/cy_dma.h **** /** This enum has the options for the data size */
 233:Generated_Source\PSoC6\pdl\drivers\peripheral\dma/cy_dma.h **** typedef enum
ARM GAS  C:\Users\cypress\AppData\Local\Temp\ccD9LaTb.s 			page 28


 234:Generated_Source\PSoC6\pdl\drivers\peripheral\dma/cy_dma.h **** {
 235:Generated_Source\PSoC6\pdl\drivers\peripheral\dma/cy_dma.h ****     CY_DMA_BYTE     = 0UL,                 /**< One byte               */
 236:Generated_Source\PSoC6\pdl\drivers\peripheral\dma/cy_dma.h ****     CY_DMA_HALFWORD = 1UL,                 /**< Half word (two bytes)  */
 237:Generated_Source\PSoC6\pdl\drivers\peripheral\dma/cy_dma.h ****     CY_DMA_WORD     = 2UL                  /**< Full word (four bytes) */
 238:Generated_Source\PSoC6\pdl\drivers\peripheral\dma/cy_dma.h **** } cy_en_dma_data_size_t;
 239:Generated_Source\PSoC6\pdl\drivers\peripheral\dma/cy_dma.h **** 
 240:Generated_Source\PSoC6\pdl\drivers\peripheral\dma/cy_dma.h **** /** This enum has the options for descriptor retriggering */
 241:Generated_Source\PSoC6\pdl\drivers\peripheral\dma/cy_dma.h **** typedef enum
 242:Generated_Source\PSoC6\pdl\drivers\peripheral\dma/cy_dma.h **** {
 243:Generated_Source\PSoC6\pdl\drivers\peripheral\dma/cy_dma.h ****     CY_DMA_RETRIG_IM    = 0UL,             /**< Retrigger immediatelly            */
 244:Generated_Source\PSoC6\pdl\drivers\peripheral\dma/cy_dma.h ****     CY_DMA_RETRIG_4CYC  = 1UL,             /**< Retrigger after 4 Clk_Slow cycles  */
 245:Generated_Source\PSoC6\pdl\drivers\peripheral\dma/cy_dma.h ****     CY_DMA_RETRIG_16CYC = 2UL,             /**< Retrigger after 16 Clk_Slow cycles */
 246:Generated_Source\PSoC6\pdl\drivers\peripheral\dma/cy_dma.h ****     CY_DMA_WAIT_FOR_REACT = 3UL            /**< Wait for trigger reactivation     */
 247:Generated_Source\PSoC6\pdl\drivers\peripheral\dma/cy_dma.h **** } cy_en_dma_retrigger_t;
 248:Generated_Source\PSoC6\pdl\drivers\peripheral\dma/cy_dma.h **** 
 249:Generated_Source\PSoC6\pdl\drivers\peripheral\dma/cy_dma.h **** /** This enum has the options for the transfer size */
 250:Generated_Source\PSoC6\pdl\drivers\peripheral\dma/cy_dma.h **** typedef enum
 251:Generated_Source\PSoC6\pdl\drivers\peripheral\dma/cy_dma.h **** {
 252:Generated_Source\PSoC6\pdl\drivers\peripheral\dma/cy_dma.h ****     CY_DMA_TRANSFER_SIZE_DATA = 0UL,           /**< As specified by dataSize. */
 253:Generated_Source\PSoC6\pdl\drivers\peripheral\dma/cy_dma.h ****     CY_DMA_TRANSFER_SIZE_WORD = 1UL,           /**< A full word (four bytes). */
 254:Generated_Source\PSoC6\pdl\drivers\peripheral\dma/cy_dma.h **** } cy_en_dma_transfer_size_t;
 255:Generated_Source\PSoC6\pdl\drivers\peripheral\dma/cy_dma.h **** 
 256:Generated_Source\PSoC6\pdl\drivers\peripheral\dma/cy_dma.h **** /** This enum has the options for the state of the channel when the descriptor is completed   */
 257:Generated_Source\PSoC6\pdl\drivers\peripheral\dma/cy_dma.h **** typedef enum
 258:Generated_Source\PSoC6\pdl\drivers\peripheral\dma/cy_dma.h **** {
 259:Generated_Source\PSoC6\pdl\drivers\peripheral\dma/cy_dma.h ****     CY_DMA_CHANNEL_ENABLED  = 0UL,         /**< Channel stays enabled  */
 260:Generated_Source\PSoC6\pdl\drivers\peripheral\dma/cy_dma.h ****     CY_DMA_CHANNEL_DISABLED = 1UL          /**< Channel is disabled */
 261:Generated_Source\PSoC6\pdl\drivers\peripheral\dma/cy_dma.h **** } cy_en_dma_channel_state_t;
 262:Generated_Source\PSoC6\pdl\drivers\peripheral\dma/cy_dma.h **** 
 263:Generated_Source\PSoC6\pdl\drivers\peripheral\dma/cy_dma.h **** /** This enum has the return values of the DMA driver */
 264:Generated_Source\PSoC6\pdl\drivers\peripheral\dma/cy_dma.h **** typedef enum 
 265:Generated_Source\PSoC6\pdl\drivers\peripheral\dma/cy_dma.h **** {
 266:Generated_Source\PSoC6\pdl\drivers\peripheral\dma/cy_dma.h ****     CY_DMA_SUCCESS          = 0x00UL, /**< Success. */
 267:Generated_Source\PSoC6\pdl\drivers\peripheral\dma/cy_dma.h ****     CY_DMA_BAD_PARAM        = CY_DMA_ID | CY_PDL_STATUS_ERROR | 0x01UL /**< The input parameters pa
 268:Generated_Source\PSoC6\pdl\drivers\peripheral\dma/cy_dma.h **** } cy_en_dma_status_t;
 269:Generated_Source\PSoC6\pdl\drivers\peripheral\dma/cy_dma.h **** 
 270:Generated_Source\PSoC6\pdl\drivers\peripheral\dma/cy_dma.h **** /** \} group_dma_enums */
 271:Generated_Source\PSoC6\pdl\drivers\peripheral\dma/cy_dma.h **** 
 272:Generated_Source\PSoC6\pdl\drivers\peripheral\dma/cy_dma.h **** 
 273:Generated_Source\PSoC6\pdl\drivers\peripheral\dma/cy_dma.h **** /** \cond Macros for the conditions used by CY_ASSERT calls */
 274:Generated_Source\PSoC6\pdl\drivers\peripheral\dma/cy_dma.h **** 
 275:Generated_Source\PSoC6\pdl\drivers\peripheral\dma/cy_dma.h **** #define CY_DMA_IS_COUNT_VALID(count)          (((count) >= 1UL) && ((count) <= 256UL))
 276:Generated_Source\PSoC6\pdl\drivers\peripheral\dma/cy_dma.h **** #define CY_DMA_IS_INCR_VALID(incr)            (((incr) >= -2048L) && ((incr) <= 2047L))
 277:Generated_Source\PSoC6\pdl\drivers\peripheral\dma/cy_dma.h **** #define CY_DMA_IS_PRIORITY_VALID(prio)        ((prio) <= 3UL)
 278:Generated_Source\PSoC6\pdl\drivers\peripheral\dma/cy_dma.h **** #define CY_DMA_IS_INTR_MASK_VALID(interrupt)  (0UL == ((interrupt) & ((uint32_t) ~CY_DMA_INTR_MASK)
 279:Generated_Source\PSoC6\pdl\drivers\peripheral\dma/cy_dma.h **** 
 280:Generated_Source\PSoC6\pdl\drivers\peripheral\dma/cy_dma.h **** #define CY_DMA_IS_RETRIGGER_VALID(retrigger)  ((CY_DMA_RETRIG_IM      == (retrigger)) || \
 281:Generated_Source\PSoC6\pdl\drivers\peripheral\dma/cy_dma.h ****                                                (CY_DMA_RETRIG_4CYC    == (retrigger)) || \
 282:Generated_Source\PSoC6\pdl\drivers\peripheral\dma/cy_dma.h ****                                                (CY_DMA_RETRIG_16CYC   == (retrigger)) || \
 283:Generated_Source\PSoC6\pdl\drivers\peripheral\dma/cy_dma.h ****                                                (CY_DMA_WAIT_FOR_REACT == (retrigger)))
 284:Generated_Source\PSoC6\pdl\drivers\peripheral\dma/cy_dma.h ****                                               
 285:Generated_Source\PSoC6\pdl\drivers\peripheral\dma/cy_dma.h **** #define CY_DMA_IS_TRIG_TYPE_VALID(trigType)   ((CY_DMA_1ELEMENT    == (trigType)) || \
 286:Generated_Source\PSoC6\pdl\drivers\peripheral\dma/cy_dma.h ****                                                (CY_DMA_X_LOOP      == (trigType)) || \
 287:Generated_Source\PSoC6\pdl\drivers\peripheral\dma/cy_dma.h ****                                                (CY_DMA_DESCR       == (trigType)) || \
 288:Generated_Source\PSoC6\pdl\drivers\peripheral\dma/cy_dma.h ****                                                (CY_DMA_DESCR_CHAIN == (trigType)))
 289:Generated_Source\PSoC6\pdl\drivers\peripheral\dma/cy_dma.h ****                                               
 290:Generated_Source\PSoC6\pdl\drivers\peripheral\dma/cy_dma.h **** #define CY_DMA_IS_XFER_SIZE_VALID(xferSize)   ((CY_DMA_TRANSFER_SIZE_DATA == (xferSize)) || \
ARM GAS  C:\Users\cypress\AppData\Local\Temp\ccD9LaTb.s 			page 29


 291:Generated_Source\PSoC6\pdl\drivers\peripheral\dma/cy_dma.h ****                                                (CY_DMA_TRANSFER_SIZE_WORD == (xferSize)))
 292:Generated_Source\PSoC6\pdl\drivers\peripheral\dma/cy_dma.h ****                                               
 293:Generated_Source\PSoC6\pdl\drivers\peripheral\dma/cy_dma.h **** #define CY_DMA_IS_CHANNEL_STATE_VALID(state)  ((CY_DMA_CHANNEL_ENABLED  == (state)) || \
 294:Generated_Source\PSoC6\pdl\drivers\peripheral\dma/cy_dma.h ****                                                (CY_DMA_CHANNEL_DISABLED == (state)))
 295:Generated_Source\PSoC6\pdl\drivers\peripheral\dma/cy_dma.h ****                                                
 296:Generated_Source\PSoC6\pdl\drivers\peripheral\dma/cy_dma.h **** #define CY_DMA_IS_DATA_SIZE_VALID(dataSize)   ((CY_DMA_BYTE     == (dataSize)) || \
 297:Generated_Source\PSoC6\pdl\drivers\peripheral\dma/cy_dma.h ****                                                (CY_DMA_HALFWORD == (dataSize)) || \
 298:Generated_Source\PSoC6\pdl\drivers\peripheral\dma/cy_dma.h ****                                                (CY_DMA_WORD     == (dataSize)))
 299:Generated_Source\PSoC6\pdl\drivers\peripheral\dma/cy_dma.h ****                                                
 300:Generated_Source\PSoC6\pdl\drivers\peripheral\dma/cy_dma.h **** #define CY_DMA_IS_TYPE_VALID(descrType)       ((CY_DMA_SINGLE_TRANSFER == (descrType)) || \
 301:Generated_Source\PSoC6\pdl\drivers\peripheral\dma/cy_dma.h ****                                                (CY_DMA_1D_TRANSFER     == (descrType)) || \
 302:Generated_Source\PSoC6\pdl\drivers\peripheral\dma/cy_dma.h ****                                                (CY_DMA_2D_TRANSFER     == (descrType)))
 303:Generated_Source\PSoC6\pdl\drivers\peripheral\dma/cy_dma.h ****                                                
 304:Generated_Source\PSoC6\pdl\drivers\peripheral\dma/cy_dma.h **** #define CY_DMA_IS_DW_CH_NR_VALID(dwNr, chNr)  (((0U != CPUSS_DW0_PRESENT) && (DW0 == (dwNr)) && ((c
 305:Generated_Source\PSoC6\pdl\drivers\peripheral\dma/cy_dma.h ****                                                ((0U != CPUSS_DW1_PRESENT) && (DW1 == (dwNr)) && ((c
 306:Generated_Source\PSoC6\pdl\drivers\peripheral\dma/cy_dma.h **** 
 307:Generated_Source\PSoC6\pdl\drivers\peripheral\dma/cy_dma.h **** /* The descriptor structure bit-filed definitions */
 308:Generated_Source\PSoC6\pdl\drivers\peripheral\dma/cy_dma.h **** #define CY_DMA_CTL_RETRIG_Pos      0UL
 309:Generated_Source\PSoC6\pdl\drivers\peripheral\dma/cy_dma.h **** #define CY_DMA_CTL_RETRIG_Msk      0x3UL
 310:Generated_Source\PSoC6\pdl\drivers\peripheral\dma/cy_dma.h **** #define CY_DMA_CTL_INTR_TYPE_Pos   2UL
 311:Generated_Source\PSoC6\pdl\drivers\peripheral\dma/cy_dma.h **** #define CY_DMA_CTL_INTR_TYPE_Msk   0xCUL
 312:Generated_Source\PSoC6\pdl\drivers\peripheral\dma/cy_dma.h **** #define CY_DMA_CTL_TR_OUT_TYPE_Pos 4UL
 313:Generated_Source\PSoC6\pdl\drivers\peripheral\dma/cy_dma.h **** #define CY_DMA_CTL_TR_OUT_TYPE_Msk 0x30UL
 314:Generated_Source\PSoC6\pdl\drivers\peripheral\dma/cy_dma.h **** #define CY_DMA_CTL_TR_IN_TYPE_Pos  6UL
 315:Generated_Source\PSoC6\pdl\drivers\peripheral\dma/cy_dma.h **** #define CY_DMA_CTL_TR_IN_TYPE_Msk  0xC0UL
 316:Generated_Source\PSoC6\pdl\drivers\peripheral\dma/cy_dma.h **** #define CY_DMA_CTL_CH_DISABLE_Pos  24UL
 317:Generated_Source\PSoC6\pdl\drivers\peripheral\dma/cy_dma.h **** #define CY_DMA_CTL_CH_DISABLE_Msk  0x1000000UL
 318:Generated_Source\PSoC6\pdl\drivers\peripheral\dma/cy_dma.h **** #define CY_DMA_CTL_SRC_SIZE_Pos    26UL
 319:Generated_Source\PSoC6\pdl\drivers\peripheral\dma/cy_dma.h **** #define CY_DMA_CTL_SRC_SIZE_Msk    0x4000000UL
 320:Generated_Source\PSoC6\pdl\drivers\peripheral\dma/cy_dma.h **** #define CY_DMA_CTL_DST_SIZE_Pos    27UL
 321:Generated_Source\PSoC6\pdl\drivers\peripheral\dma/cy_dma.h **** #define CY_DMA_CTL_DST_SIZE_Msk    0x8000000UL
 322:Generated_Source\PSoC6\pdl\drivers\peripheral\dma/cy_dma.h **** #define CY_DMA_CTL_DATA_SIZE_Pos   28UL
 323:Generated_Source\PSoC6\pdl\drivers\peripheral\dma/cy_dma.h **** #define CY_DMA_CTL_DATA_SIZE_Msk   0x30000000UL
 324:Generated_Source\PSoC6\pdl\drivers\peripheral\dma/cy_dma.h **** #define CY_DMA_CTL_TYPE_Pos        30UL
 325:Generated_Source\PSoC6\pdl\drivers\peripheral\dma/cy_dma.h **** #define CY_DMA_CTL_TYPE_Msk        0xC0000000UL
 326:Generated_Source\PSoC6\pdl\drivers\peripheral\dma/cy_dma.h **** 
 327:Generated_Source\PSoC6\pdl\drivers\peripheral\dma/cy_dma.h **** #define CY_DMA_CTL_SRC_INCR_Pos    0UL
 328:Generated_Source\PSoC6\pdl\drivers\peripheral\dma/cy_dma.h **** #define CY_DMA_CTL_SRC_INCR_Msk    0xFFFUL
 329:Generated_Source\PSoC6\pdl\drivers\peripheral\dma/cy_dma.h **** #define CY_DMA_CTL_DST_INCR_Pos    12UL
 330:Generated_Source\PSoC6\pdl\drivers\peripheral\dma/cy_dma.h **** #define CY_DMA_CTL_DST_INCR_Msk    0xFFF000UL
 331:Generated_Source\PSoC6\pdl\drivers\peripheral\dma/cy_dma.h **** #define CY_DMA_CTL_COUNT_Pos       24UL
 332:Generated_Source\PSoC6\pdl\drivers\peripheral\dma/cy_dma.h **** #define CY_DMA_CTL_COUNT_Msk       0xFF000000UL
 333:Generated_Source\PSoC6\pdl\drivers\peripheral\dma/cy_dma.h **** 
 334:Generated_Source\PSoC6\pdl\drivers\peripheral\dma/cy_dma.h **** /** \endcond */
 335:Generated_Source\PSoC6\pdl\drivers\peripheral\dma/cy_dma.h **** 
 336:Generated_Source\PSoC6\pdl\drivers\peripheral\dma/cy_dma.h **** 
 337:Generated_Source\PSoC6\pdl\drivers\peripheral\dma/cy_dma.h **** /**
 338:Generated_Source\PSoC6\pdl\drivers\peripheral\dma/cy_dma.h **** * \addtogroup group_dma_data_structures
 339:Generated_Source\PSoC6\pdl\drivers\peripheral\dma/cy_dma.h **** * \{
 340:Generated_Source\PSoC6\pdl\drivers\peripheral\dma/cy_dma.h **** */
 341:Generated_Source\PSoC6\pdl\drivers\peripheral\dma/cy_dma.h **** 
 342:Generated_Source\PSoC6\pdl\drivers\peripheral\dma/cy_dma.h **** /** 
 343:Generated_Source\PSoC6\pdl\drivers\peripheral\dma/cy_dma.h **** * DMA descriptor structure type. It is a user/component-declared structure 
 344:Generated_Source\PSoC6\pdl\drivers\peripheral\dma/cy_dma.h **** * allocated in RAM. The DMA HW requires a pointer to this structure to work with it.
 345:Generated_Source\PSoC6\pdl\drivers\peripheral\dma/cy_dma.h **** *
 346:Generated_Source\PSoC6\pdl\drivers\peripheral\dma/cy_dma.h **** * For advanced users: the descriptor can be allocated even in Flash, then the user
 347:Generated_Source\PSoC6\pdl\drivers\peripheral\dma/cy_dma.h **** * manually predefines all the structure items with constants, 
ARM GAS  C:\Users\cypress\AppData\Local\Temp\ccD9LaTb.s 			page 30


 348:Generated_Source\PSoC6\pdl\drivers\peripheral\dma/cy_dma.h **** * bacause most of the driver's API (especially functions modifying
 349:Generated_Source\PSoC6\pdl\drivers\peripheral\dma/cy_dma.h **** * descriptors, including \ref Cy_DMA_Descriptor_Init()) can't work with 
 350:Generated_Source\PSoC6\pdl\drivers\peripheral\dma/cy_dma.h **** * read-only descriptors.
 351:Generated_Source\PSoC6\pdl\drivers\peripheral\dma/cy_dma.h **** */
 352:Generated_Source\PSoC6\pdl\drivers\peripheral\dma/cy_dma.h **** typedef struct
 353:Generated_Source\PSoC6\pdl\drivers\peripheral\dma/cy_dma.h **** {
 354:Generated_Source\PSoC6\pdl\drivers\peripheral\dma/cy_dma.h ****     uint32_t ctl;                    /*!< 0x00000000 Descriptor control */
 355:Generated_Source\PSoC6\pdl\drivers\peripheral\dma/cy_dma.h ****     uint32_t src;                    /*!< 0x00000004 Descriptor source */
 356:Generated_Source\PSoC6\pdl\drivers\peripheral\dma/cy_dma.h ****     uint32_t dst;                    /*!< 0x00000008 Descriptor destination */
 357:Generated_Source\PSoC6\pdl\drivers\peripheral\dma/cy_dma.h ****     uint32_t xCtl;                   /*!< 0x0000000C Descriptor X loop control */
 358:Generated_Source\PSoC6\pdl\drivers\peripheral\dma/cy_dma.h ****     uint32_t yCtl;                   /*!< 0x00000010 Descriptor Y loop control */
 359:Generated_Source\PSoC6\pdl\drivers\peripheral\dma/cy_dma.h ****     uint32_t nextPtr;                /*!< 0x00000014 Descriptor next pointer */
 360:Generated_Source\PSoC6\pdl\drivers\peripheral\dma/cy_dma.h **** } cy_stc_dma_descriptor_t;
 361:Generated_Source\PSoC6\pdl\drivers\peripheral\dma/cy_dma.h **** 
 362:Generated_Source\PSoC6\pdl\drivers\peripheral\dma/cy_dma.h **** /**
 363:Generated_Source\PSoC6\pdl\drivers\peripheral\dma/cy_dma.h **** * This structure is a configuration structure pre-initialized by the user and
 364:Generated_Source\PSoC6\pdl\drivers\peripheral\dma/cy_dma.h **** * passed as a parameter to the \ref Cy_DMA_Descriptor_Init().
 365:Generated_Source\PSoC6\pdl\drivers\peripheral\dma/cy_dma.h **** * It can be allocated in RAM/Flash (on user's choice).
 366:Generated_Source\PSoC6\pdl\drivers\peripheral\dma/cy_dma.h **** * In case of Flash allocation there is a possibility to reinitialize the descriptor in runtime.
 367:Generated_Source\PSoC6\pdl\drivers\peripheral\dma/cy_dma.h **** * This structure has all the parameters of the descriptor as separate parameters.
 368:Generated_Source\PSoC6\pdl\drivers\peripheral\dma/cy_dma.h **** * Most of these parameters are represented in the \ref cy_stc_dma_descriptor_t structure as bit fie
 369:Generated_Source\PSoC6\pdl\drivers\peripheral\dma/cy_dma.h **** */
 370:Generated_Source\PSoC6\pdl\drivers\peripheral\dma/cy_dma.h **** typedef struct
 371:Generated_Source\PSoC6\pdl\drivers\peripheral\dma/cy_dma.h **** {
 372:Generated_Source\PSoC6\pdl\drivers\peripheral\dma/cy_dma.h ****     cy_en_dma_retrigger_t       retrigger;       /**< Specifies whether the DW controller should wa
 373:Generated_Source\PSoC6\pdl\drivers\peripheral\dma/cy_dma.h ****     cy_en_dma_trigger_type_t    interruptType;   /**< Sets the event that triggers an interrupt, se
 374:Generated_Source\PSoC6\pdl\drivers\peripheral\dma/cy_dma.h ****     cy_en_dma_trigger_type_t    triggerOutType;  /**< Sets the event that triggers an output,    se
 375:Generated_Source\PSoC6\pdl\drivers\peripheral\dma/cy_dma.h ****     cy_en_dma_channel_state_t   channelState;    /**< Specifies if the channel is enabled or disabl
 376:Generated_Source\PSoC6\pdl\drivers\peripheral\dma/cy_dma.h ****     cy_en_dma_trigger_type_t    triggerInType;   /**< Sets what type of transfer is triggered,   se
 377:Generated_Source\PSoC6\pdl\drivers\peripheral\dma/cy_dma.h ****     cy_en_dma_data_size_t       dataSize;        /**< The size of the data bus for transfer,     se
 378:Generated_Source\PSoC6\pdl\drivers\peripheral\dma/cy_dma.h ****     cy_en_dma_transfer_size_t   srcTransferSize; /**< The source transfer size. */
 379:Generated_Source\PSoC6\pdl\drivers\peripheral\dma/cy_dma.h ****     cy_en_dma_transfer_size_t   dstTransferSize; /**< The destination transfer size. */
 380:Generated_Source\PSoC6\pdl\drivers\peripheral\dma/cy_dma.h ****     cy_en_dma_descriptor_type_t descriptorType;  /**< The type of the descriptor                 se
 381:Generated_Source\PSoC6\pdl\drivers\peripheral\dma/cy_dma.h ****     void *                      srcAddress;      /**< The source address of the transfer. */
 382:Generated_Source\PSoC6\pdl\drivers\peripheral\dma/cy_dma.h ****     void *                      dstAddress;      /**< The destination address of the transfer. */
 383:Generated_Source\PSoC6\pdl\drivers\peripheral\dma/cy_dma.h ****     int32_t                     srcXincrement;   /**< The address increment of the source after eac
 384:Generated_Source\PSoC6\pdl\drivers\peripheral\dma/cy_dma.h ****     int32_t                     dstXincrement;   /**< The address increment of the destination afte
 385:Generated_Source\PSoC6\pdl\drivers\peripheral\dma/cy_dma.h ****     uint32_t                    xCount;          /**< The number of transfers in an X-loop. Valid r
 386:Generated_Source\PSoC6\pdl\drivers\peripheral\dma/cy_dma.h ****     int32_t                     srcYincrement;   /**< The address increment of the source after eac
 387:Generated_Source\PSoC6\pdl\drivers\peripheral\dma/cy_dma.h ****     int32_t                     dstYincrement;   /**< The address increment of the destination afte
 388:Generated_Source\PSoC6\pdl\drivers\peripheral\dma/cy_dma.h ****     uint32_t                    yCount;          /**< The number of X-loops in the Y-loop. Valid ra
 389:Generated_Source\PSoC6\pdl\drivers\peripheral\dma/cy_dma.h ****     cy_stc_dma_descriptor_t *   nextDescriptor;  /**< The next descriptor to chain after completion
 390:Generated_Source\PSoC6\pdl\drivers\peripheral\dma/cy_dma.h **** } cy_stc_dma_descriptor_config_t;
 391:Generated_Source\PSoC6\pdl\drivers\peripheral\dma/cy_dma.h **** 
 392:Generated_Source\PSoC6\pdl\drivers\peripheral\dma/cy_dma.h **** /** This structure holds the initialization values for the DMA channel */
 393:Generated_Source\PSoC6\pdl\drivers\peripheral\dma/cy_dma.h **** typedef struct
 394:Generated_Source\PSoC6\pdl\drivers\peripheral\dma/cy_dma.h **** {
 395:Generated_Source\PSoC6\pdl\drivers\peripheral\dma/cy_dma.h ****     cy_stc_dma_descriptor_t * descriptor;      /**< The DMA descriptor associated with the channel 
 396:Generated_Source\PSoC6\pdl\drivers\peripheral\dma/cy_dma.h ****     bool     preemptable;                      /**< Specifies if the channel is preemptable by anot
 397:Generated_Source\PSoC6\pdl\drivers\peripheral\dma/cy_dma.h ****     uint32_t priority;                         /**< This parameter specifies the channel's priority
 398:Generated_Source\PSoC6\pdl\drivers\peripheral\dma/cy_dma.h ****     bool     enable;                           /**< This parameter specifies if the channel is enab
 399:Generated_Source\PSoC6\pdl\drivers\peripheral\dma/cy_dma.h ****     bool     bufferable;                       /**< This parameter specifies whether a write transa
 400:Generated_Source\PSoC6\pdl\drivers\peripheral\dma/cy_dma.h ****                                                     without waiting for the destination to accept t
 401:Generated_Source\PSoC6\pdl\drivers\peripheral\dma/cy_dma.h **** } cy_stc_dma_channel_config_t;
 402:Generated_Source\PSoC6\pdl\drivers\peripheral\dma/cy_dma.h **** 
 403:Generated_Source\PSoC6\pdl\drivers\peripheral\dma/cy_dma.h **** /** \} group_dma_data_structures */
 404:Generated_Source\PSoC6\pdl\drivers\peripheral\dma/cy_dma.h **** 
ARM GAS  C:\Users\cypress\AppData\Local\Temp\ccD9LaTb.s 			page 31


 405:Generated_Source\PSoC6\pdl\drivers\peripheral\dma/cy_dma.h **** 
 406:Generated_Source\PSoC6\pdl\drivers\peripheral\dma/cy_dma.h **** /**
 407:Generated_Source\PSoC6\pdl\drivers\peripheral\dma/cy_dma.h **** * \addtogroup group_dma_functions
 408:Generated_Source\PSoC6\pdl\drivers\peripheral\dma/cy_dma.h **** * \{
 409:Generated_Source\PSoC6\pdl\drivers\peripheral\dma/cy_dma.h **** */
 410:Generated_Source\PSoC6\pdl\drivers\peripheral\dma/cy_dma.h **** 
 411:Generated_Source\PSoC6\pdl\drivers\peripheral\dma/cy_dma.h **** __STATIC_INLINE void     Cy_DMA_Enable             (DW_Type * base);
 412:Generated_Source\PSoC6\pdl\drivers\peripheral\dma/cy_dma.h **** __STATIC_INLINE void     Cy_DMA_Disable            (DW_Type * base);
 413:Generated_Source\PSoC6\pdl\drivers\peripheral\dma/cy_dma.h **** __STATIC_INLINE uint32_t Cy_DMA_GetActiveChannel   (DW_Type const * base);
 414:Generated_Source\PSoC6\pdl\drivers\peripheral\dma/cy_dma.h **** __STATIC_INLINE void *   Cy_DMA_GetActiveSrcAddress(DW_Type const * base);
 415:Generated_Source\PSoC6\pdl\drivers\peripheral\dma/cy_dma.h **** __STATIC_INLINE void *   Cy_DMA_GetActiveDstAddress(DW_Type const * base);
 416:Generated_Source\PSoC6\pdl\drivers\peripheral\dma/cy_dma.h **** 
 417:Generated_Source\PSoC6\pdl\drivers\peripheral\dma/cy_dma.h **** 
 418:Generated_Source\PSoC6\pdl\drivers\peripheral\dma/cy_dma.h **** /**
 419:Generated_Source\PSoC6\pdl\drivers\peripheral\dma/cy_dma.h **** * \addtogroup group_dma_descriptor_functions
 420:Generated_Source\PSoC6\pdl\drivers\peripheral\dma/cy_dma.h **** * \{
 421:Generated_Source\PSoC6\pdl\drivers\peripheral\dma/cy_dma.h **** */
 422:Generated_Source\PSoC6\pdl\drivers\peripheral\dma/cy_dma.h **** 
 423:Generated_Source\PSoC6\pdl\drivers\peripheral\dma/cy_dma.h ****   cy_en_dma_status_t Cy_DMA_Descriptor_Init  (cy_stc_dma_descriptor_t * descriptor, cy_stc_dma_desc
 424:Generated_Source\PSoC6\pdl\drivers\peripheral\dma/cy_dma.h ****                 void Cy_DMA_Descriptor_DeInit(cy_stc_dma_descriptor_t * descriptor);
 425:Generated_Source\PSoC6\pdl\drivers\peripheral\dma/cy_dma.h ****                 
 426:Generated_Source\PSoC6\pdl\drivers\peripheral\dma/cy_dma.h ****                 void Cy_DMA_Descriptor_SetNextDescriptor   (cy_stc_dma_descriptor_t * descriptor, c
 427:Generated_Source\PSoC6\pdl\drivers\peripheral\dma/cy_dma.h ****                 void Cy_DMA_Descriptor_SetDescriptorType   (cy_stc_dma_descriptor_t * descriptor, c
 428:Generated_Source\PSoC6\pdl\drivers\peripheral\dma/cy_dma.h **** __STATIC_INLINE void Cy_DMA_Descriptor_SetSrcAddress       (cy_stc_dma_descriptor_t * descriptor, v
 429:Generated_Source\PSoC6\pdl\drivers\peripheral\dma/cy_dma.h **** __STATIC_INLINE void Cy_DMA_Descriptor_SetDstAddress       (cy_stc_dma_descriptor_t * descriptor, v
 430:Generated_Source\PSoC6\pdl\drivers\peripheral\dma/cy_dma.h **** __STATIC_INLINE void Cy_DMA_Descriptor_SetXloopDataCount   (cy_stc_dma_descriptor_t * descriptor, u
 431:Generated_Source\PSoC6\pdl\drivers\peripheral\dma/cy_dma.h **** __STATIC_INLINE void Cy_DMA_Descriptor_SetYloopDataCount   (cy_stc_dma_descriptor_t * descriptor, u
 432:Generated_Source\PSoC6\pdl\drivers\peripheral\dma/cy_dma.h **** __STATIC_INLINE void Cy_DMA_Descriptor_SetXloopSrcIncrement(cy_stc_dma_descriptor_t * descriptor, i
 433:Generated_Source\PSoC6\pdl\drivers\peripheral\dma/cy_dma.h **** __STATIC_INLINE void Cy_DMA_Descriptor_SetXloopDstIncrement(cy_stc_dma_descriptor_t * descriptor, i
 434:Generated_Source\PSoC6\pdl\drivers\peripheral\dma/cy_dma.h **** __STATIC_INLINE void Cy_DMA_Descriptor_SetYloopSrcIncrement(cy_stc_dma_descriptor_t * descriptor, i
 435:Generated_Source\PSoC6\pdl\drivers\peripheral\dma/cy_dma.h **** __STATIC_INLINE void Cy_DMA_Descriptor_SetYloopDstIncrement(cy_stc_dma_descriptor_t * descriptor, i
 436:Generated_Source\PSoC6\pdl\drivers\peripheral\dma/cy_dma.h **** __STATIC_INLINE void Cy_DMA_Descriptor_SetInterruptType    (cy_stc_dma_descriptor_t * descriptor, c
 437:Generated_Source\PSoC6\pdl\drivers\peripheral\dma/cy_dma.h **** __STATIC_INLINE void Cy_DMA_Descriptor_SetTriggerInType    (cy_stc_dma_descriptor_t * descriptor, c
 438:Generated_Source\PSoC6\pdl\drivers\peripheral\dma/cy_dma.h **** __STATIC_INLINE void Cy_DMA_Descriptor_SetTriggerOutType   (cy_stc_dma_descriptor_t * descriptor, c
 439:Generated_Source\PSoC6\pdl\drivers\peripheral\dma/cy_dma.h **** __STATIC_INLINE void Cy_DMA_Descriptor_SetDataSize         (cy_stc_dma_descriptor_t * descriptor, c
 440:Generated_Source\PSoC6\pdl\drivers\peripheral\dma/cy_dma.h **** __STATIC_INLINE void Cy_DMA_Descriptor_SetSrcTransferSize  (cy_stc_dma_descriptor_t * descriptor, c
 441:Generated_Source\PSoC6\pdl\drivers\peripheral\dma/cy_dma.h **** __STATIC_INLINE void Cy_DMA_Descriptor_SetDstTransferSize  (cy_stc_dma_descriptor_t * descriptor, c
 442:Generated_Source\PSoC6\pdl\drivers\peripheral\dma/cy_dma.h **** __STATIC_INLINE void Cy_DMA_Descriptor_SetRetrigger        (cy_stc_dma_descriptor_t * descriptor, c
 443:Generated_Source\PSoC6\pdl\drivers\peripheral\dma/cy_dma.h **** __STATIC_INLINE void Cy_DMA_Descriptor_SetChannelState     (cy_stc_dma_descriptor_t * descriptor, c
 444:Generated_Source\PSoC6\pdl\drivers\peripheral\dma/cy_dma.h **** 
 445:Generated_Source\PSoC6\pdl\drivers\peripheral\dma/cy_dma.h ****                 cy_stc_dma_descriptor_t *   Cy_DMA_Descriptor_GetNextDescriptor   (cy_stc_dma_descr
 446:Generated_Source\PSoC6\pdl\drivers\peripheral\dma/cy_dma.h **** __STATIC_INLINE cy_en_dma_descriptor_type_t Cy_DMA_Descriptor_GetDescriptorType   (cy_stc_dma_descr
 447:Generated_Source\PSoC6\pdl\drivers\peripheral\dma/cy_dma.h **** __STATIC_INLINE void *                      Cy_DMA_Descriptor_GetSrcAddress       (cy_stc_dma_descr
 448:Generated_Source\PSoC6\pdl\drivers\peripheral\dma/cy_dma.h **** __STATIC_INLINE void *                      Cy_DMA_Descriptor_GetDstAddress       (cy_stc_dma_descr
 449:Generated_Source\PSoC6\pdl\drivers\peripheral\dma/cy_dma.h **** __STATIC_INLINE uint32_t                    Cy_DMA_Descriptor_GetXloopDataCount   (cy_stc_dma_descr
 450:Generated_Source\PSoC6\pdl\drivers\peripheral\dma/cy_dma.h **** __STATIC_INLINE uint32_t                    Cy_DMA_Descriptor_GetYloopDataCount   (cy_stc_dma_descr
 451:Generated_Source\PSoC6\pdl\drivers\peripheral\dma/cy_dma.h **** __STATIC_INLINE int32_t                     Cy_DMA_Descriptor_GetXloopSrcIncrement(cy_stc_dma_descr
 452:Generated_Source\PSoC6\pdl\drivers\peripheral\dma/cy_dma.h **** __STATIC_INLINE int32_t                     Cy_DMA_Descriptor_GetXloopDstIncrement(cy_stc_dma_descr
 453:Generated_Source\PSoC6\pdl\drivers\peripheral\dma/cy_dma.h **** __STATIC_INLINE int32_t                     Cy_DMA_Descriptor_GetYloopSrcIncrement(cy_stc_dma_descr
 454:Generated_Source\PSoC6\pdl\drivers\peripheral\dma/cy_dma.h **** __STATIC_INLINE int32_t                     Cy_DMA_Descriptor_GetYloopDstIncrement(cy_stc_dma_descr
 455:Generated_Source\PSoC6\pdl\drivers\peripheral\dma/cy_dma.h **** __STATIC_INLINE cy_en_dma_trigger_type_t    Cy_DMA_Descriptor_GetInterruptType    (cy_stc_dma_descr
 456:Generated_Source\PSoC6\pdl\drivers\peripheral\dma/cy_dma.h **** __STATIC_INLINE cy_en_dma_trigger_type_t    Cy_DMA_Descriptor_GetTriggerInType    (cy_stc_dma_descr
 457:Generated_Source\PSoC6\pdl\drivers\peripheral\dma/cy_dma.h **** __STATIC_INLINE cy_en_dma_trigger_type_t    Cy_DMA_Descriptor_GetTriggerOutType   (cy_stc_dma_descr
 458:Generated_Source\PSoC6\pdl\drivers\peripheral\dma/cy_dma.h **** __STATIC_INLINE cy_en_dma_data_size_t       Cy_DMA_Descriptor_GetDataSize         (cy_stc_dma_descr
 459:Generated_Source\PSoC6\pdl\drivers\peripheral\dma/cy_dma.h **** __STATIC_INLINE cy_en_dma_transfer_size_t   Cy_DMA_Descriptor_GetSrcTransferSize  (cy_stc_dma_descr
 460:Generated_Source\PSoC6\pdl\drivers\peripheral\dma/cy_dma.h **** __STATIC_INLINE cy_en_dma_transfer_size_t   Cy_DMA_Descriptor_GetDstTransferSize  (cy_stc_dma_descr
 461:Generated_Source\PSoC6\pdl\drivers\peripheral\dma/cy_dma.h **** __STATIC_INLINE cy_en_dma_retrigger_t       Cy_DMA_Descriptor_GetRetrigger        (cy_stc_dma_descr
ARM GAS  C:\Users\cypress\AppData\Local\Temp\ccD9LaTb.s 			page 32


 462:Generated_Source\PSoC6\pdl\drivers\peripheral\dma/cy_dma.h **** __STATIC_INLINE cy_en_dma_channel_state_t   Cy_DMA_Descriptor_GetChannelState     (cy_stc_dma_descr
 463:Generated_Source\PSoC6\pdl\drivers\peripheral\dma/cy_dma.h **** 
 464:Generated_Source\PSoC6\pdl\drivers\peripheral\dma/cy_dma.h **** /** \} group_dma_descriptor_functions */
 465:Generated_Source\PSoC6\pdl\drivers\peripheral\dma/cy_dma.h **** 
 466:Generated_Source\PSoC6\pdl\drivers\peripheral\dma/cy_dma.h **** 
 467:Generated_Source\PSoC6\pdl\drivers\peripheral\dma/cy_dma.h **** /**
 468:Generated_Source\PSoC6\pdl\drivers\peripheral\dma/cy_dma.h **** * \addtogroup group_dma_channel_functions
 469:Generated_Source\PSoC6\pdl\drivers\peripheral\dma/cy_dma.h **** * \{
 470:Generated_Source\PSoC6\pdl\drivers\peripheral\dma/cy_dma.h **** */
 471:Generated_Source\PSoC6\pdl\drivers\peripheral\dma/cy_dma.h **** 
 472:Generated_Source\PSoC6\pdl\drivers\peripheral\dma/cy_dma.h ****       cy_en_dma_status_t Cy_DMA_Channel_Init         (DW_Type * base, uint32_t channel, cy_stc_dma_
 473:Generated_Source\PSoC6\pdl\drivers\peripheral\dma/cy_dma.h ****                 void     Cy_DMA_Channel_DeInit       (DW_Type * base, uint32_t channel);
 474:Generated_Source\PSoC6\pdl\drivers\peripheral\dma/cy_dma.h **** __STATIC_INLINE void     Cy_DMA_Channel_SetDescriptor(DW_Type * base, uint32_t channel, cy_stc_dma_
 475:Generated_Source\PSoC6\pdl\drivers\peripheral\dma/cy_dma.h **** __STATIC_INLINE void     Cy_DMA_Channel_Enable       (DW_Type * base, uint32_t channel);
 476:Generated_Source\PSoC6\pdl\drivers\peripheral\dma/cy_dma.h **** __STATIC_INLINE void     Cy_DMA_Channel_Disable      (DW_Type * base, uint32_t channel);
 477:Generated_Source\PSoC6\pdl\drivers\peripheral\dma/cy_dma.h **** __STATIC_INLINE void     Cy_DMA_Channel_SetPriority  (DW_Type * base, uint32_t channel, uint32_t pr
 478:Generated_Source\PSoC6\pdl\drivers\peripheral\dma/cy_dma.h **** __STATIC_INLINE uint32_t Cy_DMA_Channel_GetPriority  (DW_Type const * base, uint32_t channel);
 479:Generated_Source\PSoC6\pdl\drivers\peripheral\dma/cy_dma.h **** __STATIC_INLINE cy_en_dma_intr_cause_t Cy_DMA_Channel_GetStatus(DW_Type const * base, uint32_t chan
 480:Generated_Source\PSoC6\pdl\drivers\peripheral\dma/cy_dma.h **** __STATIC_INLINE cy_stc_dma_descriptor_t * Cy_DMA_Channel_GetCurrentDescriptor(DW_Type const * base,
 481:Generated_Source\PSoC6\pdl\drivers\peripheral\dma/cy_dma.h **** 
 482:Generated_Source\PSoC6\pdl\drivers\peripheral\dma/cy_dma.h **** __STATIC_INLINE uint32_t Cy_DMA_Channel_GetInterruptStatus      (DW_Type const * base, uint32_t cha
 483:Generated_Source\PSoC6\pdl\drivers\peripheral\dma/cy_dma.h **** __STATIC_INLINE void     Cy_DMA_Channel_ClearInterrupt          (DW_Type       * base, uint32_t cha
 484:Generated_Source\PSoC6\pdl\drivers\peripheral\dma/cy_dma.h **** __STATIC_INLINE void     Cy_DMA_Channel_SetInterrupt            (DW_Type       * base, uint32_t cha
 485:Generated_Source\PSoC6\pdl\drivers\peripheral\dma/cy_dma.h **** __STATIC_INLINE uint32_t Cy_DMA_Channel_GetInterruptMask        (DW_Type const * base, uint32_t cha
 486:Generated_Source\PSoC6\pdl\drivers\peripheral\dma/cy_dma.h **** __STATIC_INLINE void     Cy_DMA_Channel_SetInterruptMask        (DW_Type       * base, uint32_t cha
 487:Generated_Source\PSoC6\pdl\drivers\peripheral\dma/cy_dma.h **** __STATIC_INLINE uint32_t Cy_DMA_Channel_GetInterruptStatusMasked(DW_Type const * base, uint32_t cha
 488:Generated_Source\PSoC6\pdl\drivers\peripheral\dma/cy_dma.h **** 
 489:Generated_Source\PSoC6\pdl\drivers\peripheral\dma/cy_dma.h **** /** \} group_dma_channel_functions */
 490:Generated_Source\PSoC6\pdl\drivers\peripheral\dma/cy_dma.h **** 
 491:Generated_Source\PSoC6\pdl\drivers\peripheral\dma/cy_dma.h **** 
 492:Generated_Source\PSoC6\pdl\drivers\peripheral\dma/cy_dma.h **** /***************************************
 493:Generated_Source\PSoC6\pdl\drivers\peripheral\dma/cy_dma.h **** *    In-line Function Implementation
 494:Generated_Source\PSoC6\pdl\drivers\peripheral\dma/cy_dma.h **** ***************************************/
 495:Generated_Source\PSoC6\pdl\drivers\peripheral\dma/cy_dma.h **** 
 496:Generated_Source\PSoC6\pdl\drivers\peripheral\dma/cy_dma.h **** 
 497:Generated_Source\PSoC6\pdl\drivers\peripheral\dma/cy_dma.h **** /**
 498:Generated_Source\PSoC6\pdl\drivers\peripheral\dma/cy_dma.h **** * \addtogroup group_dma_block_functions
 499:Generated_Source\PSoC6\pdl\drivers\peripheral\dma/cy_dma.h **** * \{
 500:Generated_Source\PSoC6\pdl\drivers\peripheral\dma/cy_dma.h **** */
 501:Generated_Source\PSoC6\pdl\drivers\peripheral\dma/cy_dma.h **** 
 502:Generated_Source\PSoC6\pdl\drivers\peripheral\dma/cy_dma.h **** 
 503:Generated_Source\PSoC6\pdl\drivers\peripheral\dma/cy_dma.h **** /*******************************************************************************
 504:Generated_Source\PSoC6\pdl\drivers\peripheral\dma/cy_dma.h **** * Function Name: Cy_DMA_Enable
 505:Generated_Source\PSoC6\pdl\drivers\peripheral\dma/cy_dma.h **** ****************************************************************************//**
 506:Generated_Source\PSoC6\pdl\drivers\peripheral\dma/cy_dma.h **** *
 507:Generated_Source\PSoC6\pdl\drivers\peripheral\dma/cy_dma.h **** * Enables the DMA block.
 508:Generated_Source\PSoC6\pdl\drivers\peripheral\dma/cy_dma.h **** *
 509:Generated_Source\PSoC6\pdl\drivers\peripheral\dma/cy_dma.h **** * \param base
 510:Generated_Source\PSoC6\pdl\drivers\peripheral\dma/cy_dma.h **** * The pointer to the hardware DMA block.
 511:Generated_Source\PSoC6\pdl\drivers\peripheral\dma/cy_dma.h **** *
 512:Generated_Source\PSoC6\pdl\drivers\peripheral\dma/cy_dma.h **** *******************************************************************************/
 513:Generated_Source\PSoC6\pdl\drivers\peripheral\dma/cy_dma.h **** __STATIC_INLINE void Cy_DMA_Enable(DW_Type * base)
 514:Generated_Source\PSoC6\pdl\drivers\peripheral\dma/cy_dma.h **** {
 515:Generated_Source\PSoC6\pdl\drivers\peripheral\dma/cy_dma.h ****     base->CTL |= DW_CTL_ENABLED_Msk;
 516:Generated_Source\PSoC6\pdl\drivers\peripheral\dma/cy_dma.h **** }
 517:Generated_Source\PSoC6\pdl\drivers\peripheral\dma/cy_dma.h **** 
 518:Generated_Source\PSoC6\pdl\drivers\peripheral\dma/cy_dma.h **** 
ARM GAS  C:\Users\cypress\AppData\Local\Temp\ccD9LaTb.s 			page 33


 519:Generated_Source\PSoC6\pdl\drivers\peripheral\dma/cy_dma.h **** /*******************************************************************************
 520:Generated_Source\PSoC6\pdl\drivers\peripheral\dma/cy_dma.h **** * Function Name: Cy_DMA_Disable
 521:Generated_Source\PSoC6\pdl\drivers\peripheral\dma/cy_dma.h **** ****************************************************************************//**
 522:Generated_Source\PSoC6\pdl\drivers\peripheral\dma/cy_dma.h **** *
 523:Generated_Source\PSoC6\pdl\drivers\peripheral\dma/cy_dma.h **** * Disables the DMA block.
 524:Generated_Source\PSoC6\pdl\drivers\peripheral\dma/cy_dma.h **** *
 525:Generated_Source\PSoC6\pdl\drivers\peripheral\dma/cy_dma.h **** * \param base
 526:Generated_Source\PSoC6\pdl\drivers\peripheral\dma/cy_dma.h **** * The pointer to the hardware DMA block.
 527:Generated_Source\PSoC6\pdl\drivers\peripheral\dma/cy_dma.h **** *
 528:Generated_Source\PSoC6\pdl\drivers\peripheral\dma/cy_dma.h **** *******************************************************************************/
 529:Generated_Source\PSoC6\pdl\drivers\peripheral\dma/cy_dma.h **** __STATIC_INLINE void Cy_DMA_Disable(DW_Type * base)
 530:Generated_Source\PSoC6\pdl\drivers\peripheral\dma/cy_dma.h **** {
 531:Generated_Source\PSoC6\pdl\drivers\peripheral\dma/cy_dma.h ****     base->CTL &= (uint32_t) ~DW_CTL_ENABLED_Msk;
 532:Generated_Source\PSoC6\pdl\drivers\peripheral\dma/cy_dma.h **** }
 533:Generated_Source\PSoC6\pdl\drivers\peripheral\dma/cy_dma.h **** 
 534:Generated_Source\PSoC6\pdl\drivers\peripheral\dma/cy_dma.h **** 
 535:Generated_Source\PSoC6\pdl\drivers\peripheral\dma/cy_dma.h **** /*******************************************************************************
 536:Generated_Source\PSoC6\pdl\drivers\peripheral\dma/cy_dma.h **** * Function Name: Cy_DMA_GetActiveChannel
 537:Generated_Source\PSoC6\pdl\drivers\peripheral\dma/cy_dma.h **** ****************************************************************************//**
 538:Generated_Source\PSoC6\pdl\drivers\peripheral\dma/cy_dma.h **** *
 539:Generated_Source\PSoC6\pdl\drivers\peripheral\dma/cy_dma.h **** * Returns the status of the active/pending channels.
 540:Generated_Source\PSoC6\pdl\drivers\peripheral\dma/cy_dma.h **** * the DMA block.
 541:Generated_Source\PSoC6\pdl\drivers\peripheral\dma/cy_dma.h **** *
 542:Generated_Source\PSoC6\pdl\drivers\peripheral\dma/cy_dma.h **** * \param base
 543:Generated_Source\PSoC6\pdl\drivers\peripheral\dma/cy_dma.h **** * The pointer to the hardware DMA block.
 544:Generated_Source\PSoC6\pdl\drivers\peripheral\dma/cy_dma.h **** *
 545:Generated_Source\PSoC6\pdl\drivers\peripheral\dma/cy_dma.h **** * \return
 546:Generated_Source\PSoC6\pdl\drivers\peripheral\dma/cy_dma.h **** * Returns a bit-field with all of the currently active/pending channels in the
 547:Generated_Source\PSoC6\pdl\drivers\peripheral\dma/cy_dma.h **** * DMA block.
 548:Generated_Source\PSoC6\pdl\drivers\peripheral\dma/cy_dma.h **** *
 549:Generated_Source\PSoC6\pdl\drivers\peripheral\dma/cy_dma.h **** *******************************************************************************/
 550:Generated_Source\PSoC6\pdl\drivers\peripheral\dma/cy_dma.h **** __STATIC_INLINE uint32_t Cy_DMA_GetActiveChannel(DW_Type const * base)
 551:Generated_Source\PSoC6\pdl\drivers\peripheral\dma/cy_dma.h **** {
 552:Generated_Source\PSoC6\pdl\drivers\peripheral\dma/cy_dma.h ****     return(_FLD2VAL(DW_STATUS_CH_IDX, base->STATUS));
 553:Generated_Source\PSoC6\pdl\drivers\peripheral\dma/cy_dma.h **** }
 554:Generated_Source\PSoC6\pdl\drivers\peripheral\dma/cy_dma.h **** 
 555:Generated_Source\PSoC6\pdl\drivers\peripheral\dma/cy_dma.h **** 
 556:Generated_Source\PSoC6\pdl\drivers\peripheral\dma/cy_dma.h **** /*******************************************************************************
 557:Generated_Source\PSoC6\pdl\drivers\peripheral\dma/cy_dma.h **** * Function Name: Cy_DMA_GetActiveSrcAddress
 558:Generated_Source\PSoC6\pdl\drivers\peripheral\dma/cy_dma.h **** ****************************************************************************//**
 559:Generated_Source\PSoC6\pdl\drivers\peripheral\dma/cy_dma.h **** *
 560:Generated_Source\PSoC6\pdl\drivers\peripheral\dma/cy_dma.h **** * Returns the source address being used for the current transfer.
 561:Generated_Source\PSoC6\pdl\drivers\peripheral\dma/cy_dma.h **** *
 562:Generated_Source\PSoC6\pdl\drivers\peripheral\dma/cy_dma.h **** * \param base
 563:Generated_Source\PSoC6\pdl\drivers\peripheral\dma/cy_dma.h **** * The pointer to the hardware DMA block.
 564:Generated_Source\PSoC6\pdl\drivers\peripheral\dma/cy_dma.h **** *
 565:Generated_Source\PSoC6\pdl\drivers\peripheral\dma/cy_dma.h **** * \return
 566:Generated_Source\PSoC6\pdl\drivers\peripheral\dma/cy_dma.h **** * Returns the pointer to the source of transfer.
 567:Generated_Source\PSoC6\pdl\drivers\peripheral\dma/cy_dma.h **** *
 568:Generated_Source\PSoC6\pdl\drivers\peripheral\dma/cy_dma.h **** *******************************************************************************/
 569:Generated_Source\PSoC6\pdl\drivers\peripheral\dma/cy_dma.h **** __STATIC_INLINE void * Cy_DMA_GetActiveSrcAddress(DW_Type const * base)
 570:Generated_Source\PSoC6\pdl\drivers\peripheral\dma/cy_dma.h **** {
 571:Generated_Source\PSoC6\pdl\drivers\peripheral\dma/cy_dma.h ****     return ((void *)base->ACT_DESCR_SRC);
 572:Generated_Source\PSoC6\pdl\drivers\peripheral\dma/cy_dma.h **** }
 573:Generated_Source\PSoC6\pdl\drivers\peripheral\dma/cy_dma.h **** 
 574:Generated_Source\PSoC6\pdl\drivers\peripheral\dma/cy_dma.h **** 
 575:Generated_Source\PSoC6\pdl\drivers\peripheral\dma/cy_dma.h **** /*******************************************************************************
ARM GAS  C:\Users\cypress\AppData\Local\Temp\ccD9LaTb.s 			page 34


 576:Generated_Source\PSoC6\pdl\drivers\peripheral\dma/cy_dma.h **** * Function Name: Cy_DMA_GetActiveDstAddress
 577:Generated_Source\PSoC6\pdl\drivers\peripheral\dma/cy_dma.h **** ****************************************************************************//**
 578:Generated_Source\PSoC6\pdl\drivers\peripheral\dma/cy_dma.h **** *
 579:Generated_Source\PSoC6\pdl\drivers\peripheral\dma/cy_dma.h **** * Returns the destination address being used for the current transfer.
 580:Generated_Source\PSoC6\pdl\drivers\peripheral\dma/cy_dma.h **** *
 581:Generated_Source\PSoC6\pdl\drivers\peripheral\dma/cy_dma.h **** * \param base
 582:Generated_Source\PSoC6\pdl\drivers\peripheral\dma/cy_dma.h **** * The pointer to the hardware DMA block.
 583:Generated_Source\PSoC6\pdl\drivers\peripheral\dma/cy_dma.h **** *
 584:Generated_Source\PSoC6\pdl\drivers\peripheral\dma/cy_dma.h **** * \return
 585:Generated_Source\PSoC6\pdl\drivers\peripheral\dma/cy_dma.h **** * Returns the pointer to the destination of transfer.
 586:Generated_Source\PSoC6\pdl\drivers\peripheral\dma/cy_dma.h **** *
 587:Generated_Source\PSoC6\pdl\drivers\peripheral\dma/cy_dma.h **** *******************************************************************************/
 588:Generated_Source\PSoC6\pdl\drivers\peripheral\dma/cy_dma.h **** __STATIC_INLINE void * Cy_DMA_GetActiveDstAddress(DW_Type const * base)
 589:Generated_Source\PSoC6\pdl\drivers\peripheral\dma/cy_dma.h **** {
 590:Generated_Source\PSoC6\pdl\drivers\peripheral\dma/cy_dma.h ****     return ((void *) base->ACT_DESCR_DST);
 591:Generated_Source\PSoC6\pdl\drivers\peripheral\dma/cy_dma.h **** }
 592:Generated_Source\PSoC6\pdl\drivers\peripheral\dma/cy_dma.h **** 
 593:Generated_Source\PSoC6\pdl\drivers\peripheral\dma/cy_dma.h **** /** \} group_dma_block_functions */
 594:Generated_Source\PSoC6\pdl\drivers\peripheral\dma/cy_dma.h **** 
 595:Generated_Source\PSoC6\pdl\drivers\peripheral\dma/cy_dma.h **** 
 596:Generated_Source\PSoC6\pdl\drivers\peripheral\dma/cy_dma.h **** /**
 597:Generated_Source\PSoC6\pdl\drivers\peripheral\dma/cy_dma.h **** * \addtogroup group_dma_descriptor_functions
 598:Generated_Source\PSoC6\pdl\drivers\peripheral\dma/cy_dma.h **** * \{
 599:Generated_Source\PSoC6\pdl\drivers\peripheral\dma/cy_dma.h **** */
 600:Generated_Source\PSoC6\pdl\drivers\peripheral\dma/cy_dma.h **** 
 601:Generated_Source\PSoC6\pdl\drivers\peripheral\dma/cy_dma.h **** 
 602:Generated_Source\PSoC6\pdl\drivers\peripheral\dma/cy_dma.h **** /*******************************************************************************
 603:Generated_Source\PSoC6\pdl\drivers\peripheral\dma/cy_dma.h **** * Function Name: Cy_DMA_Descriptor_SetSrcAddress
 604:Generated_Source\PSoC6\pdl\drivers\peripheral\dma/cy_dma.h **** ****************************************************************************//**
 605:Generated_Source\PSoC6\pdl\drivers\peripheral\dma/cy_dma.h **** *
 606:Generated_Source\PSoC6\pdl\drivers\peripheral\dma/cy_dma.h **** * Sets the source address parameter for the specified descriptor.
 607:Generated_Source\PSoC6\pdl\drivers\peripheral\dma/cy_dma.h **** *
 608:Generated_Source\PSoC6\pdl\drivers\peripheral\dma/cy_dma.h **** * \param descriptor
 609:Generated_Source\PSoC6\pdl\drivers\peripheral\dma/cy_dma.h **** * The descriptor structure instance declared by the user/component.
 610:Generated_Source\PSoC6\pdl\drivers\peripheral\dma/cy_dma.h **** *
 611:Generated_Source\PSoC6\pdl\drivers\peripheral\dma/cy_dma.h **** * \param srcAddress
 612:Generated_Source\PSoC6\pdl\drivers\peripheral\dma/cy_dma.h **** * The source address value for the descriptor.
 613:Generated_Source\PSoC6\pdl\drivers\peripheral\dma/cy_dma.h **** *
 614:Generated_Source\PSoC6\pdl\drivers\peripheral\dma/cy_dma.h **** *******************************************************************************/
 615:Generated_Source\PSoC6\pdl\drivers\peripheral\dma/cy_dma.h **** __STATIC_INLINE void Cy_DMA_Descriptor_SetSrcAddress(cy_stc_dma_descriptor_t * descriptor, void con
 616:Generated_Source\PSoC6\pdl\drivers\peripheral\dma/cy_dma.h **** {
 617:Generated_Source\PSoC6\pdl\drivers\peripheral\dma/cy_dma.h ****     descriptor->src = (uint32_t) srcAddress;
 618:Generated_Source\PSoC6\pdl\drivers\peripheral\dma/cy_dma.h **** }
 619:Generated_Source\PSoC6\pdl\drivers\peripheral\dma/cy_dma.h **** 
 620:Generated_Source\PSoC6\pdl\drivers\peripheral\dma/cy_dma.h **** 
 621:Generated_Source\PSoC6\pdl\drivers\peripheral\dma/cy_dma.h **** /*******************************************************************************
 622:Generated_Source\PSoC6\pdl\drivers\peripheral\dma/cy_dma.h **** * Function Name: Cy_DMA_Descriptor_GetSrcAddress
 623:Generated_Source\PSoC6\pdl\drivers\peripheral\dma/cy_dma.h **** ****************************************************************************//**
 624:Generated_Source\PSoC6\pdl\drivers\peripheral\dma/cy_dma.h **** *
 625:Generated_Source\PSoC6\pdl\drivers\peripheral\dma/cy_dma.h **** * Returns the source address parameter of the specified descriptor.
 626:Generated_Source\PSoC6\pdl\drivers\peripheral\dma/cy_dma.h **** * 
 627:Generated_Source\PSoC6\pdl\drivers\peripheral\dma/cy_dma.h **** * \param descriptor
 628:Generated_Source\PSoC6\pdl\drivers\peripheral\dma/cy_dma.h **** * The descriptor structure instance declared by the user/component.
 629:Generated_Source\PSoC6\pdl\drivers\peripheral\dma/cy_dma.h **** *
 630:Generated_Source\PSoC6\pdl\drivers\peripheral\dma/cy_dma.h **** * \return
 631:Generated_Source\PSoC6\pdl\drivers\peripheral\dma/cy_dma.h **** * The source address value of the descriptor.
 632:Generated_Source\PSoC6\pdl\drivers\peripheral\dma/cy_dma.h **** *
ARM GAS  C:\Users\cypress\AppData\Local\Temp\ccD9LaTb.s 			page 35


 633:Generated_Source\PSoC6\pdl\drivers\peripheral\dma/cy_dma.h **** *******************************************************************************/
 634:Generated_Source\PSoC6\pdl\drivers\peripheral\dma/cy_dma.h **** __STATIC_INLINE void * Cy_DMA_Descriptor_GetSrcAddress(cy_stc_dma_descriptor_t const * descriptor)
 635:Generated_Source\PSoC6\pdl\drivers\peripheral\dma/cy_dma.h **** {
 636:Generated_Source\PSoC6\pdl\drivers\peripheral\dma/cy_dma.h ****     return ((void *) descriptor->src);
 637:Generated_Source\PSoC6\pdl\drivers\peripheral\dma/cy_dma.h **** }
 638:Generated_Source\PSoC6\pdl\drivers\peripheral\dma/cy_dma.h **** 
 639:Generated_Source\PSoC6\pdl\drivers\peripheral\dma/cy_dma.h **** 
 640:Generated_Source\PSoC6\pdl\drivers\peripheral\dma/cy_dma.h **** /*******************************************************************************
 641:Generated_Source\PSoC6\pdl\drivers\peripheral\dma/cy_dma.h **** * Function Name: Cy_DMA_Descriptor_SetDstAddress
 642:Generated_Source\PSoC6\pdl\drivers\peripheral\dma/cy_dma.h **** ****************************************************************************//**
 643:Generated_Source\PSoC6\pdl\drivers\peripheral\dma/cy_dma.h **** *
 644:Generated_Source\PSoC6\pdl\drivers\peripheral\dma/cy_dma.h **** * Sets the destination address parameter for the specified descriptor.
 645:Generated_Source\PSoC6\pdl\drivers\peripheral\dma/cy_dma.h **** *
 646:Generated_Source\PSoC6\pdl\drivers\peripheral\dma/cy_dma.h **** * \param descriptor
 647:Generated_Source\PSoC6\pdl\drivers\peripheral\dma/cy_dma.h **** * The descriptor structure instance declared by the user/component.
 648:Generated_Source\PSoC6\pdl\drivers\peripheral\dma/cy_dma.h **** *
 649:Generated_Source\PSoC6\pdl\drivers\peripheral\dma/cy_dma.h **** * \param dstAddress
 650:Generated_Source\PSoC6\pdl\drivers\peripheral\dma/cy_dma.h **** * The destination address value for the descriptor.
 651:Generated_Source\PSoC6\pdl\drivers\peripheral\dma/cy_dma.h **** *
 652:Generated_Source\PSoC6\pdl\drivers\peripheral\dma/cy_dma.h **** *******************************************************************************/
 653:Generated_Source\PSoC6\pdl\drivers\peripheral\dma/cy_dma.h **** __STATIC_INLINE void Cy_DMA_Descriptor_SetDstAddress(cy_stc_dma_descriptor_t * descriptor, void con
 654:Generated_Source\PSoC6\pdl\drivers\peripheral\dma/cy_dma.h **** {
 655:Generated_Source\PSoC6\pdl\drivers\peripheral\dma/cy_dma.h ****     descriptor->dst = (uint32_t) dstAddress;
 656:Generated_Source\PSoC6\pdl\drivers\peripheral\dma/cy_dma.h **** }
 657:Generated_Source\PSoC6\pdl\drivers\peripheral\dma/cy_dma.h **** 
 658:Generated_Source\PSoC6\pdl\drivers\peripheral\dma/cy_dma.h **** 
 659:Generated_Source\PSoC6\pdl\drivers\peripheral\dma/cy_dma.h **** /*******************************************************************************
 660:Generated_Source\PSoC6\pdl\drivers\peripheral\dma/cy_dma.h **** * Function Name: Cy_DMA_Descriptor_GetDstAddress
 661:Generated_Source\PSoC6\pdl\drivers\peripheral\dma/cy_dma.h **** ****************************************************************************//**
 662:Generated_Source\PSoC6\pdl\drivers\peripheral\dma/cy_dma.h **** *
 663:Generated_Source\PSoC6\pdl\drivers\peripheral\dma/cy_dma.h **** * Returns the destination address parameter of the specified descriptor.
 664:Generated_Source\PSoC6\pdl\drivers\peripheral\dma/cy_dma.h **** * 
 665:Generated_Source\PSoC6\pdl\drivers\peripheral\dma/cy_dma.h **** * \param descriptor
 666:Generated_Source\PSoC6\pdl\drivers\peripheral\dma/cy_dma.h **** * The descriptor structure instance declared by the user/component.
 667:Generated_Source\PSoC6\pdl\drivers\peripheral\dma/cy_dma.h **** *
 668:Generated_Source\PSoC6\pdl\drivers\peripheral\dma/cy_dma.h **** * \return
 669:Generated_Source\PSoC6\pdl\drivers\peripheral\dma/cy_dma.h **** * The destination address value of the descriptor.
 670:Generated_Source\PSoC6\pdl\drivers\peripheral\dma/cy_dma.h **** *
 671:Generated_Source\PSoC6\pdl\drivers\peripheral\dma/cy_dma.h **** *******************************************************************************/
 672:Generated_Source\PSoC6\pdl\drivers\peripheral\dma/cy_dma.h **** __STATIC_INLINE void * Cy_DMA_Descriptor_GetDstAddress(cy_stc_dma_descriptor_t const * descriptor)
 673:Generated_Source\PSoC6\pdl\drivers\peripheral\dma/cy_dma.h **** {
 674:Generated_Source\PSoC6\pdl\drivers\peripheral\dma/cy_dma.h ****     return ((void *) descriptor->dst);
 675:Generated_Source\PSoC6\pdl\drivers\peripheral\dma/cy_dma.h **** }
 676:Generated_Source\PSoC6\pdl\drivers\peripheral\dma/cy_dma.h **** 
 677:Generated_Source\PSoC6\pdl\drivers\peripheral\dma/cy_dma.h **** 
 678:Generated_Source\PSoC6\pdl\drivers\peripheral\dma/cy_dma.h **** /*******************************************************************************
 679:Generated_Source\PSoC6\pdl\drivers\peripheral\dma/cy_dma.h **** * Function Name: Cy_DMA_Descriptor_SetInterruptType
 680:Generated_Source\PSoC6\pdl\drivers\peripheral\dma/cy_dma.h **** ****************************************************************************//**
 681:Generated_Source\PSoC6\pdl\drivers\peripheral\dma/cy_dma.h **** *
 682:Generated_Source\PSoC6\pdl\drivers\peripheral\dma/cy_dma.h **** * Sets the interrupt type parameter for the specified descriptor.
 683:Generated_Source\PSoC6\pdl\drivers\peripheral\dma/cy_dma.h **** *
 684:Generated_Source\PSoC6\pdl\drivers\peripheral\dma/cy_dma.h **** * \param descriptor
 685:Generated_Source\PSoC6\pdl\drivers\peripheral\dma/cy_dma.h **** * The descriptor structure instance declared by the user/component.
 686:Generated_Source\PSoC6\pdl\drivers\peripheral\dma/cy_dma.h **** *
 687:Generated_Source\PSoC6\pdl\drivers\peripheral\dma/cy_dma.h **** * \param interruptType
 688:Generated_Source\PSoC6\pdl\drivers\peripheral\dma/cy_dma.h **** * The interrupt type set for the descriptor. \ref cy_en_dma_trigger_type_t
 689:Generated_Source\PSoC6\pdl\drivers\peripheral\dma/cy_dma.h **** *
ARM GAS  C:\Users\cypress\AppData\Local\Temp\ccD9LaTb.s 			page 36


 690:Generated_Source\PSoC6\pdl\drivers\peripheral\dma/cy_dma.h **** *******************************************************************************/
 691:Generated_Source\PSoC6\pdl\drivers\peripheral\dma/cy_dma.h **** __STATIC_INLINE void Cy_DMA_Descriptor_SetInterruptType(cy_stc_dma_descriptor_t * descriptor, cy_en
 692:Generated_Source\PSoC6\pdl\drivers\peripheral\dma/cy_dma.h **** {
 693:Generated_Source\PSoC6\pdl\drivers\peripheral\dma/cy_dma.h ****     CY_ASSERT_L1(NULL != descriptor);
 694:Generated_Source\PSoC6\pdl\drivers\peripheral\dma/cy_dma.h ****     CY_ASSERT_L3(CY_DMA_IS_TRIG_TYPE_VALID(interruptType));
 695:Generated_Source\PSoC6\pdl\drivers\peripheral\dma/cy_dma.h ****     
 696:Generated_Source\PSoC6\pdl\drivers\peripheral\dma/cy_dma.h ****     descriptor->ctl = _CLR_SET_FLD32U(descriptor->ctl, CY_DMA_CTL_INTR_TYPE, interruptType);
 697:Generated_Source\PSoC6\pdl\drivers\peripheral\dma/cy_dma.h **** }
 698:Generated_Source\PSoC6\pdl\drivers\peripheral\dma/cy_dma.h **** 
 699:Generated_Source\PSoC6\pdl\drivers\peripheral\dma/cy_dma.h **** 
 700:Generated_Source\PSoC6\pdl\drivers\peripheral\dma/cy_dma.h **** /*******************************************************************************
 701:Generated_Source\PSoC6\pdl\drivers\peripheral\dma/cy_dma.h **** * Function Name: Cy_DMA_Descriptor_GetInterruptType
 702:Generated_Source\PSoC6\pdl\drivers\peripheral\dma/cy_dma.h **** ****************************************************************************//**
 703:Generated_Source\PSoC6\pdl\drivers\peripheral\dma/cy_dma.h **** *
 704:Generated_Source\PSoC6\pdl\drivers\peripheral\dma/cy_dma.h **** * Returns the Interrupt-Type of the specified descriptor.
 705:Generated_Source\PSoC6\pdl\drivers\peripheral\dma/cy_dma.h **** *
 706:Generated_Source\PSoC6\pdl\drivers\peripheral\dma/cy_dma.h **** * \param descriptor
 707:Generated_Source\PSoC6\pdl\drivers\peripheral\dma/cy_dma.h **** * The descriptor structure instance declared by the user/component.
 708:Generated_Source\PSoC6\pdl\drivers\peripheral\dma/cy_dma.h **** *
 709:Generated_Source\PSoC6\pdl\drivers\peripheral\dma/cy_dma.h **** * \return
 710:Generated_Source\PSoC6\pdl\drivers\peripheral\dma/cy_dma.h **** * The Interrupt-Type \ref cy_en_dma_trigger_type_t.
 711:Generated_Source\PSoC6\pdl\drivers\peripheral\dma/cy_dma.h **** *  
 712:Generated_Source\PSoC6\pdl\drivers\peripheral\dma/cy_dma.h **** *******************************************************************************/
 713:Generated_Source\PSoC6\pdl\drivers\peripheral\dma/cy_dma.h **** __STATIC_INLINE cy_en_dma_trigger_type_t Cy_DMA_Descriptor_GetInterruptType(cy_stc_dma_descriptor_t
 714:Generated_Source\PSoC6\pdl\drivers\peripheral\dma/cy_dma.h **** {
 715:Generated_Source\PSoC6\pdl\drivers\peripheral\dma/cy_dma.h ****     CY_ASSERT_L1(NULL != descriptor);
 716:Generated_Source\PSoC6\pdl\drivers\peripheral\dma/cy_dma.h ****     
 717:Generated_Source\PSoC6\pdl\drivers\peripheral\dma/cy_dma.h ****     return((cy_en_dma_trigger_type_t) _FLD2VAL(CY_DMA_CTL_INTR_TYPE, descriptor->ctl));
 718:Generated_Source\PSoC6\pdl\drivers\peripheral\dma/cy_dma.h **** }
 719:Generated_Source\PSoC6\pdl\drivers\peripheral\dma/cy_dma.h **** 
 720:Generated_Source\PSoC6\pdl\drivers\peripheral\dma/cy_dma.h **** 
 721:Generated_Source\PSoC6\pdl\drivers\peripheral\dma/cy_dma.h **** /*******************************************************************************
 722:Generated_Source\PSoC6\pdl\drivers\peripheral\dma/cy_dma.h **** * Function Name: Cy_DMA_Descriptor_SetTriggerInType
 723:Generated_Source\PSoC6\pdl\drivers\peripheral\dma/cy_dma.h **** ****************************************************************************//**
 724:Generated_Source\PSoC6\pdl\drivers\peripheral\dma/cy_dma.h **** *
 725:Generated_Source\PSoC6\pdl\drivers\peripheral\dma/cy_dma.h **** * Sets the Trigger-In-Type parameter for the specified descriptor.
 726:Generated_Source\PSoC6\pdl\drivers\peripheral\dma/cy_dma.h **** *
 727:Generated_Source\PSoC6\pdl\drivers\peripheral\dma/cy_dma.h **** * \param descriptor
 728:Generated_Source\PSoC6\pdl\drivers\peripheral\dma/cy_dma.h **** * The descriptor structure instance declared by the user/component.
 729:Generated_Source\PSoC6\pdl\drivers\peripheral\dma/cy_dma.h **** *
 730:Generated_Source\PSoC6\pdl\drivers\peripheral\dma/cy_dma.h **** * \param triggerInType
 731:Generated_Source\PSoC6\pdl\drivers\peripheral\dma/cy_dma.h **** * The Trigger In Type parameter \ref cy_en_dma_trigger_type_t
 732:Generated_Source\PSoC6\pdl\drivers\peripheral\dma/cy_dma.h **** *
 733:Generated_Source\PSoC6\pdl\drivers\peripheral\dma/cy_dma.h **** *******************************************************************************/
 734:Generated_Source\PSoC6\pdl\drivers\peripheral\dma/cy_dma.h **** __STATIC_INLINE void Cy_DMA_Descriptor_SetTriggerInType(cy_stc_dma_descriptor_t * descriptor, cy_en
 735:Generated_Source\PSoC6\pdl\drivers\peripheral\dma/cy_dma.h **** {
 736:Generated_Source\PSoC6\pdl\drivers\peripheral\dma/cy_dma.h ****     CY_ASSERT_L1(NULL != descriptor);
 737:Generated_Source\PSoC6\pdl\drivers\peripheral\dma/cy_dma.h ****     CY_ASSERT_L3(CY_DMA_IS_TRIG_TYPE_VALID(triggerInType));
 738:Generated_Source\PSoC6\pdl\drivers\peripheral\dma/cy_dma.h ****     
 739:Generated_Source\PSoC6\pdl\drivers\peripheral\dma/cy_dma.h ****     descriptor->ctl = _CLR_SET_FLD32U(descriptor->ctl, CY_DMA_CTL_TR_IN_TYPE, triggerInType);
 740:Generated_Source\PSoC6\pdl\drivers\peripheral\dma/cy_dma.h **** }
 741:Generated_Source\PSoC6\pdl\drivers\peripheral\dma/cy_dma.h **** 
 742:Generated_Source\PSoC6\pdl\drivers\peripheral\dma/cy_dma.h **** 
 743:Generated_Source\PSoC6\pdl\drivers\peripheral\dma/cy_dma.h **** /*******************************************************************************
 744:Generated_Source\PSoC6\pdl\drivers\peripheral\dma/cy_dma.h **** * Function Name: Cy_DMA_Descriptor_GetTriggerInType
 745:Generated_Source\PSoC6\pdl\drivers\peripheral\dma/cy_dma.h **** ****************************************************************************//**
 746:Generated_Source\PSoC6\pdl\drivers\peripheral\dma/cy_dma.h **** *
ARM GAS  C:\Users\cypress\AppData\Local\Temp\ccD9LaTb.s 			page 37


 747:Generated_Source\PSoC6\pdl\drivers\peripheral\dma/cy_dma.h **** * Returns the Trigger-In-Type parameter of the specified descriptor.
 748:Generated_Source\PSoC6\pdl\drivers\peripheral\dma/cy_dma.h **** *
 749:Generated_Source\PSoC6\pdl\drivers\peripheral\dma/cy_dma.h **** * \param descriptor
 750:Generated_Source\PSoC6\pdl\drivers\peripheral\dma/cy_dma.h **** * The descriptor structure instance declared by the user/component.
 751:Generated_Source\PSoC6\pdl\drivers\peripheral\dma/cy_dma.h **** *
 752:Generated_Source\PSoC6\pdl\drivers\peripheral\dma/cy_dma.h **** * \return
 753:Generated_Source\PSoC6\pdl\drivers\peripheral\dma/cy_dma.h **** * The Trigger-In-Type \ref cy_en_dma_trigger_type_t
 754:Generated_Source\PSoC6\pdl\drivers\peripheral\dma/cy_dma.h **** *  
 755:Generated_Source\PSoC6\pdl\drivers\peripheral\dma/cy_dma.h **** *******************************************************************************/
 756:Generated_Source\PSoC6\pdl\drivers\peripheral\dma/cy_dma.h **** __STATIC_INLINE cy_en_dma_trigger_type_t Cy_DMA_Descriptor_GetTriggerInType(cy_stc_dma_descriptor_t
 757:Generated_Source\PSoC6\pdl\drivers\peripheral\dma/cy_dma.h **** {
 758:Generated_Source\PSoC6\pdl\drivers\peripheral\dma/cy_dma.h ****     CY_ASSERT_L1(NULL != descriptor);
 759:Generated_Source\PSoC6\pdl\drivers\peripheral\dma/cy_dma.h ****     
 760:Generated_Source\PSoC6\pdl\drivers\peripheral\dma/cy_dma.h ****     return((cy_en_dma_trigger_type_t) _FLD2VAL(CY_DMA_CTL_TR_IN_TYPE, descriptor->ctl));
 761:Generated_Source\PSoC6\pdl\drivers\peripheral\dma/cy_dma.h **** }
 762:Generated_Source\PSoC6\pdl\drivers\peripheral\dma/cy_dma.h **** 
 763:Generated_Source\PSoC6\pdl\drivers\peripheral\dma/cy_dma.h **** 
 764:Generated_Source\PSoC6\pdl\drivers\peripheral\dma/cy_dma.h **** /*******************************************************************************
 765:Generated_Source\PSoC6\pdl\drivers\peripheral\dma/cy_dma.h **** * Function Name: Cy_DMA_Descriptor_SetTriggerOutType
 766:Generated_Source\PSoC6\pdl\drivers\peripheral\dma/cy_dma.h **** ****************************************************************************//**
 767:Generated_Source\PSoC6\pdl\drivers\peripheral\dma/cy_dma.h **** *
 768:Generated_Source\PSoC6\pdl\drivers\peripheral\dma/cy_dma.h **** * Sets the Trigger-Out-Type parameter for the specified descriptor.
 769:Generated_Source\PSoC6\pdl\drivers\peripheral\dma/cy_dma.h **** *
 770:Generated_Source\PSoC6\pdl\drivers\peripheral\dma/cy_dma.h **** * \param descriptor
 771:Generated_Source\PSoC6\pdl\drivers\peripheral\dma/cy_dma.h **** * The descriptor structure instance declared by the user/component.
 772:Generated_Source\PSoC6\pdl\drivers\peripheral\dma/cy_dma.h **** *
 773:Generated_Source\PSoC6\pdl\drivers\peripheral\dma/cy_dma.h **** * \param triggerOutType
 774:Generated_Source\PSoC6\pdl\drivers\peripheral\dma/cy_dma.h **** * The Trigger-Out-Type set for the descriptor. \ref cy_en_dma_trigger_type_t
 775:Generated_Source\PSoC6\pdl\drivers\peripheral\dma/cy_dma.h **** *
 776:Generated_Source\PSoC6\pdl\drivers\peripheral\dma/cy_dma.h **** *******************************************************************************/
 777:Generated_Source\PSoC6\pdl\drivers\peripheral\dma/cy_dma.h **** __STATIC_INLINE void Cy_DMA_Descriptor_SetTriggerOutType(cy_stc_dma_descriptor_t * descriptor, cy_e
 778:Generated_Source\PSoC6\pdl\drivers\peripheral\dma/cy_dma.h **** {
 779:Generated_Source\PSoC6\pdl\drivers\peripheral\dma/cy_dma.h ****     CY_ASSERT_L1(NULL != descriptor);
 780:Generated_Source\PSoC6\pdl\drivers\peripheral\dma/cy_dma.h ****     CY_ASSERT_L3(CY_DMA_IS_TRIG_TYPE_VALID(triggerOutType));
 781:Generated_Source\PSoC6\pdl\drivers\peripheral\dma/cy_dma.h ****     
 782:Generated_Source\PSoC6\pdl\drivers\peripheral\dma/cy_dma.h ****     descriptor->ctl = _CLR_SET_FLD32U(descriptor->ctl, CY_DMA_CTL_TR_OUT_TYPE, triggerOutType);
 783:Generated_Source\PSoC6\pdl\drivers\peripheral\dma/cy_dma.h **** }
 784:Generated_Source\PSoC6\pdl\drivers\peripheral\dma/cy_dma.h **** 
 785:Generated_Source\PSoC6\pdl\drivers\peripheral\dma/cy_dma.h **** 
 786:Generated_Source\PSoC6\pdl\drivers\peripheral\dma/cy_dma.h **** /*******************************************************************************
 787:Generated_Source\PSoC6\pdl\drivers\peripheral\dma/cy_dma.h **** * Function Name: Cy_DMA_Descriptor_GetTriggerOutType
 788:Generated_Source\PSoC6\pdl\drivers\peripheral\dma/cy_dma.h **** ****************************************************************************//**
 789:Generated_Source\PSoC6\pdl\drivers\peripheral\dma/cy_dma.h **** *
 790:Generated_Source\PSoC6\pdl\drivers\peripheral\dma/cy_dma.h **** * Returns the Trigger-Out-Type parameter of the specified descriptor.
 791:Generated_Source\PSoC6\pdl\drivers\peripheral\dma/cy_dma.h **** *
 792:Generated_Source\PSoC6\pdl\drivers\peripheral\dma/cy_dma.h **** * \param descriptor
 793:Generated_Source\PSoC6\pdl\drivers\peripheral\dma/cy_dma.h **** * The descriptor structure instance declared by the user/component.
 794:Generated_Source\PSoC6\pdl\drivers\peripheral\dma/cy_dma.h **** *
 795:Generated_Source\PSoC6\pdl\drivers\peripheral\dma/cy_dma.h **** * \return
 796:Generated_Source\PSoC6\pdl\drivers\peripheral\dma/cy_dma.h **** * The Trigger-Out-Type parameter \ref cy_en_dma_trigger_type_t.
 797:Generated_Source\PSoC6\pdl\drivers\peripheral\dma/cy_dma.h **** *  
 798:Generated_Source\PSoC6\pdl\drivers\peripheral\dma/cy_dma.h **** *******************************************************************************/
 799:Generated_Source\PSoC6\pdl\drivers\peripheral\dma/cy_dma.h **** __STATIC_INLINE cy_en_dma_trigger_type_t Cy_DMA_Descriptor_GetTriggerOutType(cy_stc_dma_descriptor_
 800:Generated_Source\PSoC6\pdl\drivers\peripheral\dma/cy_dma.h **** {
 801:Generated_Source\PSoC6\pdl\drivers\peripheral\dma/cy_dma.h ****     CY_ASSERT_L1(NULL != descriptor);
 802:Generated_Source\PSoC6\pdl\drivers\peripheral\dma/cy_dma.h ****     
 803:Generated_Source\PSoC6\pdl\drivers\peripheral\dma/cy_dma.h ****     return((cy_en_dma_trigger_type_t) _FLD2VAL(CY_DMA_CTL_TR_OUT_TYPE, descriptor->ctl));
ARM GAS  C:\Users\cypress\AppData\Local\Temp\ccD9LaTb.s 			page 38


 804:Generated_Source\PSoC6\pdl\drivers\peripheral\dma/cy_dma.h **** }
 805:Generated_Source\PSoC6\pdl\drivers\peripheral\dma/cy_dma.h **** 
 806:Generated_Source\PSoC6\pdl\drivers\peripheral\dma/cy_dma.h **** 
 807:Generated_Source\PSoC6\pdl\drivers\peripheral\dma/cy_dma.h **** /*******************************************************************************
 808:Generated_Source\PSoC6\pdl\drivers\peripheral\dma/cy_dma.h **** * Function Name: Cy_DMA_Descriptor_SetDataSize
 809:Generated_Source\PSoC6\pdl\drivers\peripheral\dma/cy_dma.h **** ****************************************************************************//**
 810:Generated_Source\PSoC6\pdl\drivers\peripheral\dma/cy_dma.h **** *
 811:Generated_Source\PSoC6\pdl\drivers\peripheral\dma/cy_dma.h **** * Sets the Data Element Size parameter for the specified descriptor.
 812:Generated_Source\PSoC6\pdl\drivers\peripheral\dma/cy_dma.h **** *
 813:Generated_Source\PSoC6\pdl\drivers\peripheral\dma/cy_dma.h **** * \param descriptor
 814:Generated_Source\PSoC6\pdl\drivers\peripheral\dma/cy_dma.h **** * The descriptor structure instance declared by the user/component.
 815:Generated_Source\PSoC6\pdl\drivers\peripheral\dma/cy_dma.h **** *
 816:Generated_Source\PSoC6\pdl\drivers\peripheral\dma/cy_dma.h **** * \param dataSize
 817:Generated_Source\PSoC6\pdl\drivers\peripheral\dma/cy_dma.h **** * The Data Element Size \ref cy_en_dma_data_size_t
 818:Generated_Source\PSoC6\pdl\drivers\peripheral\dma/cy_dma.h **** *  
 819:Generated_Source\PSoC6\pdl\drivers\peripheral\dma/cy_dma.h **** *******************************************************************************/
 820:Generated_Source\PSoC6\pdl\drivers\peripheral\dma/cy_dma.h **** __STATIC_INLINE void Cy_DMA_Descriptor_SetDataSize(cy_stc_dma_descriptor_t * descriptor, cy_en_dma_
 821:Generated_Source\PSoC6\pdl\drivers\peripheral\dma/cy_dma.h **** {
 822:Generated_Source\PSoC6\pdl\drivers\peripheral\dma/cy_dma.h ****     CY_ASSERT_L1(NULL != descriptor);
 823:Generated_Source\PSoC6\pdl\drivers\peripheral\dma/cy_dma.h ****     CY_ASSERT_L3(CY_DMA_IS_DATA_SIZE_VALID(dataSize));
 824:Generated_Source\PSoC6\pdl\drivers\peripheral\dma/cy_dma.h ****     
 825:Generated_Source\PSoC6\pdl\drivers\peripheral\dma/cy_dma.h ****     descriptor->ctl = _CLR_SET_FLD32U(descriptor->ctl, CY_DMA_CTL_DATA_SIZE, dataSize);
 826:Generated_Source\PSoC6\pdl\drivers\peripheral\dma/cy_dma.h **** }
 827:Generated_Source\PSoC6\pdl\drivers\peripheral\dma/cy_dma.h **** 
 828:Generated_Source\PSoC6\pdl\drivers\peripheral\dma/cy_dma.h **** 
 829:Generated_Source\PSoC6\pdl\drivers\peripheral\dma/cy_dma.h **** /*******************************************************************************
 830:Generated_Source\PSoC6\pdl\drivers\peripheral\dma/cy_dma.h **** * Function Name: Cy_DMA_Descriptor_GetDataSize
 831:Generated_Source\PSoC6\pdl\drivers\peripheral\dma/cy_dma.h **** ****************************************************************************//**
 832:Generated_Source\PSoC6\pdl\drivers\peripheral\dma/cy_dma.h **** *
 833:Generated_Source\PSoC6\pdl\drivers\peripheral\dma/cy_dma.h **** * Returns the Data Element Size parameter of the specified descriptor.
 834:Generated_Source\PSoC6\pdl\drivers\peripheral\dma/cy_dma.h **** *
 835:Generated_Source\PSoC6\pdl\drivers\peripheral\dma/cy_dma.h **** * \param descriptor
 836:Generated_Source\PSoC6\pdl\drivers\peripheral\dma/cy_dma.h **** * The descriptor structure instance declared by the user/component.
 837:Generated_Source\PSoC6\pdl\drivers\peripheral\dma/cy_dma.h **** *
 838:Generated_Source\PSoC6\pdl\drivers\peripheral\dma/cy_dma.h **** * \return
 839:Generated_Source\PSoC6\pdl\drivers\peripheral\dma/cy_dma.h **** * The Data Element Size \ref cy_en_dma_data_size_t.
 840:Generated_Source\PSoC6\pdl\drivers\peripheral\dma/cy_dma.h **** *  
 841:Generated_Source\PSoC6\pdl\drivers\peripheral\dma/cy_dma.h **** *******************************************************************************/
 842:Generated_Source\PSoC6\pdl\drivers\peripheral\dma/cy_dma.h **** __STATIC_INLINE cy_en_dma_data_size_t Cy_DMA_Descriptor_GetDataSize(cy_stc_dma_descriptor_t const *
 843:Generated_Source\PSoC6\pdl\drivers\peripheral\dma/cy_dma.h **** {
 844:Generated_Source\PSoC6\pdl\drivers\peripheral\dma/cy_dma.h ****     CY_ASSERT_L1(NULL != descriptor);
 845:Generated_Source\PSoC6\pdl\drivers\peripheral\dma/cy_dma.h ****     
 846:Generated_Source\PSoC6\pdl\drivers\peripheral\dma/cy_dma.h ****     return((cy_en_dma_data_size_t) _FLD2VAL(CY_DMA_CTL_DATA_SIZE, descriptor->ctl));
 847:Generated_Source\PSoC6\pdl\drivers\peripheral\dma/cy_dma.h **** }
 848:Generated_Source\PSoC6\pdl\drivers\peripheral\dma/cy_dma.h **** 
 849:Generated_Source\PSoC6\pdl\drivers\peripheral\dma/cy_dma.h **** 
 850:Generated_Source\PSoC6\pdl\drivers\peripheral\dma/cy_dma.h **** /*******************************************************************************
 851:Generated_Source\PSoC6\pdl\drivers\peripheral\dma/cy_dma.h **** * Function Name: Cy_DMA_Descriptor_SetSrcTransferSize
 852:Generated_Source\PSoC6\pdl\drivers\peripheral\dma/cy_dma.h **** ****************************************************************************//**
 853:Generated_Source\PSoC6\pdl\drivers\peripheral\dma/cy_dma.h **** *
 854:Generated_Source\PSoC6\pdl\drivers\peripheral\dma/cy_dma.h **** * Sets the Source Transfer Size parameter for the specified descriptor.
 855:Generated_Source\PSoC6\pdl\drivers\peripheral\dma/cy_dma.h **** *
 856:Generated_Source\PSoC6\pdl\drivers\peripheral\dma/cy_dma.h **** * \param descriptor
 857:Generated_Source\PSoC6\pdl\drivers\peripheral\dma/cy_dma.h **** * The descriptor structure instance declared by the user/component.
 858:Generated_Source\PSoC6\pdl\drivers\peripheral\dma/cy_dma.h **** *
 859:Generated_Source\PSoC6\pdl\drivers\peripheral\dma/cy_dma.h **** * \param srcTransferSize
 860:Generated_Source\PSoC6\pdl\drivers\peripheral\dma/cy_dma.h **** * The Source Transfer Size \ref cy_en_dma_transfer_size_t.
ARM GAS  C:\Users\cypress\AppData\Local\Temp\ccD9LaTb.s 			page 39


 861:Generated_Source\PSoC6\pdl\drivers\peripheral\dma/cy_dma.h **** *
 862:Generated_Source\PSoC6\pdl\drivers\peripheral\dma/cy_dma.h **** *******************************************************************************/
 863:Generated_Source\PSoC6\pdl\drivers\peripheral\dma/cy_dma.h **** __STATIC_INLINE void Cy_DMA_Descriptor_SetSrcTransferSize(cy_stc_dma_descriptor_t * descriptor, cy_
 864:Generated_Source\PSoC6\pdl\drivers\peripheral\dma/cy_dma.h **** {
 865:Generated_Source\PSoC6\pdl\drivers\peripheral\dma/cy_dma.h ****     CY_ASSERT_L1(NULL != descriptor);
 866:Generated_Source\PSoC6\pdl\drivers\peripheral\dma/cy_dma.h ****     CY_ASSERT_L3(CY_DMA_IS_XFER_SIZE_VALID(srcTransferSize));
 867:Generated_Source\PSoC6\pdl\drivers\peripheral\dma/cy_dma.h **** 
 868:Generated_Source\PSoC6\pdl\drivers\peripheral\dma/cy_dma.h ****     descriptor->ctl = _CLR_SET_FLD32U(descriptor->ctl, CY_DMA_CTL_SRC_SIZE, srcTransferSize);
 869:Generated_Source\PSoC6\pdl\drivers\peripheral\dma/cy_dma.h **** }
 870:Generated_Source\PSoC6\pdl\drivers\peripheral\dma/cy_dma.h **** 
 871:Generated_Source\PSoC6\pdl\drivers\peripheral\dma/cy_dma.h **** 
 872:Generated_Source\PSoC6\pdl\drivers\peripheral\dma/cy_dma.h **** /*******************************************************************************
 873:Generated_Source\PSoC6\pdl\drivers\peripheral\dma/cy_dma.h **** * Function Name: Cy_DMA_Descriptor_GetSrcTransferSize
 874:Generated_Source\PSoC6\pdl\drivers\peripheral\dma/cy_dma.h **** ****************************************************************************//**
 875:Generated_Source\PSoC6\pdl\drivers\peripheral\dma/cy_dma.h **** *
 876:Generated_Source\PSoC6\pdl\drivers\peripheral\dma/cy_dma.h **** * Returns the Source Transfer Size parameter of the specified descriptor.
 877:Generated_Source\PSoC6\pdl\drivers\peripheral\dma/cy_dma.h **** *
 878:Generated_Source\PSoC6\pdl\drivers\peripheral\dma/cy_dma.h **** * \param descriptor
 879:Generated_Source\PSoC6\pdl\drivers\peripheral\dma/cy_dma.h **** * The descriptor structure instance declared by the user/component.
 880:Generated_Source\PSoC6\pdl\drivers\peripheral\dma/cy_dma.h **** *
 881:Generated_Source\PSoC6\pdl\drivers\peripheral\dma/cy_dma.h **** * \return
 882:Generated_Source\PSoC6\pdl\drivers\peripheral\dma/cy_dma.h **** * The Source Transfer Size \ref cy_en_dma_transfer_size_t.
 883:Generated_Source\PSoC6\pdl\drivers\peripheral\dma/cy_dma.h **** *  
 884:Generated_Source\PSoC6\pdl\drivers\peripheral\dma/cy_dma.h **** *******************************************************************************/
 885:Generated_Source\PSoC6\pdl\drivers\peripheral\dma/cy_dma.h **** __STATIC_INLINE cy_en_dma_transfer_size_t Cy_DMA_Descriptor_GetSrcTransferSize(cy_stc_dma_descripto
 886:Generated_Source\PSoC6\pdl\drivers\peripheral\dma/cy_dma.h **** {
 887:Generated_Source\PSoC6\pdl\drivers\peripheral\dma/cy_dma.h ****     CY_ASSERT_L1(NULL != descriptor);
 888:Generated_Source\PSoC6\pdl\drivers\peripheral\dma/cy_dma.h ****     
 889:Generated_Source\PSoC6\pdl\drivers\peripheral\dma/cy_dma.h ****     return((cy_en_dma_transfer_size_t) _FLD2VAL(CY_DMA_CTL_SRC_SIZE, descriptor->ctl));
 890:Generated_Source\PSoC6\pdl\drivers\peripheral\dma/cy_dma.h **** }
 891:Generated_Source\PSoC6\pdl\drivers\peripheral\dma/cy_dma.h **** 
 892:Generated_Source\PSoC6\pdl\drivers\peripheral\dma/cy_dma.h **** 
 893:Generated_Source\PSoC6\pdl\drivers\peripheral\dma/cy_dma.h **** /*******************************************************************************
 894:Generated_Source\PSoC6\pdl\drivers\peripheral\dma/cy_dma.h **** * Function Name: Cy_DMA_Descriptor_SetDstTransferSize
 895:Generated_Source\PSoC6\pdl\drivers\peripheral\dma/cy_dma.h **** ****************************************************************************//**
 896:Generated_Source\PSoC6\pdl\drivers\peripheral\dma/cy_dma.h **** *
 897:Generated_Source\PSoC6\pdl\drivers\peripheral\dma/cy_dma.h **** * Sets the Destination Transfer Size parameter for the specified descriptor.
 898:Generated_Source\PSoC6\pdl\drivers\peripheral\dma/cy_dma.h **** *
 899:Generated_Source\PSoC6\pdl\drivers\peripheral\dma/cy_dma.h **** * \param descriptor
 900:Generated_Source\PSoC6\pdl\drivers\peripheral\dma/cy_dma.h **** * The descriptor structure instance declared by the user/component.
 901:Generated_Source\PSoC6\pdl\drivers\peripheral\dma/cy_dma.h **** *
 902:Generated_Source\PSoC6\pdl\drivers\peripheral\dma/cy_dma.h **** * \param dstTransferSize
 903:Generated_Source\PSoC6\pdl\drivers\peripheral\dma/cy_dma.h **** * The Destination Transfer Size \ref cy_en_dma_transfer_size_t.
 904:Generated_Source\PSoC6\pdl\drivers\peripheral\dma/cy_dma.h **** *
 905:Generated_Source\PSoC6\pdl\drivers\peripheral\dma/cy_dma.h **** *******************************************************************************/
 906:Generated_Source\PSoC6\pdl\drivers\peripheral\dma/cy_dma.h **** __STATIC_INLINE void Cy_DMA_Descriptor_SetDstTransferSize(cy_stc_dma_descriptor_t * descriptor, cy_
 907:Generated_Source\PSoC6\pdl\drivers\peripheral\dma/cy_dma.h **** {
 908:Generated_Source\PSoC6\pdl\drivers\peripheral\dma/cy_dma.h ****     CY_ASSERT_L1(NULL != descriptor);
 909:Generated_Source\PSoC6\pdl\drivers\peripheral\dma/cy_dma.h ****     CY_ASSERT_L3(CY_DMA_IS_XFER_SIZE_VALID(dstTransferSize));
 910:Generated_Source\PSoC6\pdl\drivers\peripheral\dma/cy_dma.h ****     
 911:Generated_Source\PSoC6\pdl\drivers\peripheral\dma/cy_dma.h ****     descriptor->ctl = _CLR_SET_FLD32U(descriptor->ctl, CY_DMA_CTL_DST_SIZE, dstTransferSize);
 912:Generated_Source\PSoC6\pdl\drivers\peripheral\dma/cy_dma.h **** }
 913:Generated_Source\PSoC6\pdl\drivers\peripheral\dma/cy_dma.h **** 
 914:Generated_Source\PSoC6\pdl\drivers\peripheral\dma/cy_dma.h **** 
 915:Generated_Source\PSoC6\pdl\drivers\peripheral\dma/cy_dma.h **** /*******************************************************************************
 916:Generated_Source\PSoC6\pdl\drivers\peripheral\dma/cy_dma.h **** * Function Name: Cy_DMA_Descriptor_GetDstTransferSize
 917:Generated_Source\PSoC6\pdl\drivers\peripheral\dma/cy_dma.h **** ****************************************************************************//**
ARM GAS  C:\Users\cypress\AppData\Local\Temp\ccD9LaTb.s 			page 40


 918:Generated_Source\PSoC6\pdl\drivers\peripheral\dma/cy_dma.h **** *
 919:Generated_Source\PSoC6\pdl\drivers\peripheral\dma/cy_dma.h **** * Returns the Destination Transfer Size parameter of the specified descriptor.
 920:Generated_Source\PSoC6\pdl\drivers\peripheral\dma/cy_dma.h **** *
 921:Generated_Source\PSoC6\pdl\drivers\peripheral\dma/cy_dma.h **** * \param descriptor
 922:Generated_Source\PSoC6\pdl\drivers\peripheral\dma/cy_dma.h **** * The descriptor structure instance declared by the user/component.
 923:Generated_Source\PSoC6\pdl\drivers\peripheral\dma/cy_dma.h **** *
 924:Generated_Source\PSoC6\pdl\drivers\peripheral\dma/cy_dma.h **** * \return
 925:Generated_Source\PSoC6\pdl\drivers\peripheral\dma/cy_dma.h **** * The Destination Transfer Size \ref cy_en_dma_transfer_size_t
 926:Generated_Source\PSoC6\pdl\drivers\peripheral\dma/cy_dma.h **** *  
 927:Generated_Source\PSoC6\pdl\drivers\peripheral\dma/cy_dma.h **** *******************************************************************************/
 928:Generated_Source\PSoC6\pdl\drivers\peripheral\dma/cy_dma.h **** __STATIC_INLINE cy_en_dma_transfer_size_t Cy_DMA_Descriptor_GetDstTransferSize(cy_stc_dma_descripto
 929:Generated_Source\PSoC6\pdl\drivers\peripheral\dma/cy_dma.h **** {
 930:Generated_Source\PSoC6\pdl\drivers\peripheral\dma/cy_dma.h ****     CY_ASSERT_L1(NULL != descriptor);
 931:Generated_Source\PSoC6\pdl\drivers\peripheral\dma/cy_dma.h ****     
 932:Generated_Source\PSoC6\pdl\drivers\peripheral\dma/cy_dma.h ****     return((cy_en_dma_transfer_size_t) _FLD2VAL(CY_DMA_CTL_DST_SIZE, descriptor->ctl));
 933:Generated_Source\PSoC6\pdl\drivers\peripheral\dma/cy_dma.h **** }
 934:Generated_Source\PSoC6\pdl\drivers\peripheral\dma/cy_dma.h **** 
 935:Generated_Source\PSoC6\pdl\drivers\peripheral\dma/cy_dma.h **** 
 936:Generated_Source\PSoC6\pdl\drivers\peripheral\dma/cy_dma.h **** /*******************************************************************************
 937:Generated_Source\PSoC6\pdl\drivers\peripheral\dma/cy_dma.h **** * Function Name: Cy_DMA_Descriptor_SetRetrigger
 938:Generated_Source\PSoC6\pdl\drivers\peripheral\dma/cy_dma.h **** ****************************************************************************//**
 939:Generated_Source\PSoC6\pdl\drivers\peripheral\dma/cy_dma.h **** *
 940:Generated_Source\PSoC6\pdl\drivers\peripheral\dma/cy_dma.h **** * Sets the retrigger value which specifies whether the controller should 
 941:Generated_Source\PSoC6\pdl\drivers\peripheral\dma/cy_dma.h **** * wait for the input trigger to be deactivated.
 942:Generated_Source\PSoC6\pdl\drivers\peripheral\dma/cy_dma.h **** *
 943:Generated_Source\PSoC6\pdl\drivers\peripheral\dma/cy_dma.h **** * \param descriptor
 944:Generated_Source\PSoC6\pdl\drivers\peripheral\dma/cy_dma.h **** * The descriptor structure instance declared by the user/component.
 945:Generated_Source\PSoC6\pdl\drivers\peripheral\dma/cy_dma.h **** *
 946:Generated_Source\PSoC6\pdl\drivers\peripheral\dma/cy_dma.h **** * \param retrigger 
 947:Generated_Source\PSoC6\pdl\drivers\peripheral\dma/cy_dma.h **** * The \ref cy_en_dma_retrigger_t parameter specifies whether the controller
 948:Generated_Source\PSoC6\pdl\drivers\peripheral\dma/cy_dma.h **** * should wait for the input trigger to be deactivated.
 949:Generated_Source\PSoC6\pdl\drivers\peripheral\dma/cy_dma.h **** *
 950:Generated_Source\PSoC6\pdl\drivers\peripheral\dma/cy_dma.h **** *******************************************************************************/
 951:Generated_Source\PSoC6\pdl\drivers\peripheral\dma/cy_dma.h **** __STATIC_INLINE void Cy_DMA_Descriptor_SetRetrigger(cy_stc_dma_descriptor_t * descriptor, cy_en_dma
 952:Generated_Source\PSoC6\pdl\drivers\peripheral\dma/cy_dma.h **** {
 953:Generated_Source\PSoC6\pdl\drivers\peripheral\dma/cy_dma.h ****     CY_ASSERT_L1(NULL != descriptor);
 954:Generated_Source\PSoC6\pdl\drivers\peripheral\dma/cy_dma.h ****     CY_ASSERT_L3(CY_DMA_IS_RETRIGGER_VALID(retrigger));
 955:Generated_Source\PSoC6\pdl\drivers\peripheral\dma/cy_dma.h ****     
 956:Generated_Source\PSoC6\pdl\drivers\peripheral\dma/cy_dma.h ****     descriptor->ctl = _CLR_SET_FLD32U(descriptor->ctl, CY_DMA_CTL_RETRIG, retrigger);
 957:Generated_Source\PSoC6\pdl\drivers\peripheral\dma/cy_dma.h **** }
 958:Generated_Source\PSoC6\pdl\drivers\peripheral\dma/cy_dma.h **** 
 959:Generated_Source\PSoC6\pdl\drivers\peripheral\dma/cy_dma.h **** 
 960:Generated_Source\PSoC6\pdl\drivers\peripheral\dma/cy_dma.h **** /*******************************************************************************
 961:Generated_Source\PSoC6\pdl\drivers\peripheral\dma/cy_dma.h **** * Function Name: Cy_DMA_Descriptor_GetRetrigger
 962:Generated_Source\PSoC6\pdl\drivers\peripheral\dma/cy_dma.h **** ****************************************************************************//**
 963:Generated_Source\PSoC6\pdl\drivers\peripheral\dma/cy_dma.h **** *
 964:Generated_Source\PSoC6\pdl\drivers\peripheral\dma/cy_dma.h **** * Returns a value which specifies whether the controller should 
 965:Generated_Source\PSoC6\pdl\drivers\peripheral\dma/cy_dma.h **** * wait for the input trigger to be deactivated.
 966:Generated_Source\PSoC6\pdl\drivers\peripheral\dma/cy_dma.h **** *
 967:Generated_Source\PSoC6\pdl\drivers\peripheral\dma/cy_dma.h **** * \param descriptor
 968:Generated_Source\PSoC6\pdl\drivers\peripheral\dma/cy_dma.h **** * The descriptor structure instance declared by the user/component.
 969:Generated_Source\PSoC6\pdl\drivers\peripheral\dma/cy_dma.h **** *
 970:Generated_Source\PSoC6\pdl\drivers\peripheral\dma/cy_dma.h **** * \return
 971:Generated_Source\PSoC6\pdl\drivers\peripheral\dma/cy_dma.h **** * The Retrigger setting \ref cy_en_dma_retrigger_t.
 972:Generated_Source\PSoC6\pdl\drivers\peripheral\dma/cy_dma.h **** *  
 973:Generated_Source\PSoC6\pdl\drivers\peripheral\dma/cy_dma.h **** *******************************************************************************/
 974:Generated_Source\PSoC6\pdl\drivers\peripheral\dma/cy_dma.h **** __STATIC_INLINE cy_en_dma_retrigger_t Cy_DMA_Descriptor_GetRetrigger(cy_stc_dma_descriptor_t const 
ARM GAS  C:\Users\cypress\AppData\Local\Temp\ccD9LaTb.s 			page 41


 975:Generated_Source\PSoC6\pdl\drivers\peripheral\dma/cy_dma.h **** {
 976:Generated_Source\PSoC6\pdl\drivers\peripheral\dma/cy_dma.h ****     CY_ASSERT_L1(NULL != descriptor);
 977:Generated_Source\PSoC6\pdl\drivers\peripheral\dma/cy_dma.h ****     
 978:Generated_Source\PSoC6\pdl\drivers\peripheral\dma/cy_dma.h ****     return((cy_en_dma_retrigger_t) _FLD2VAL(CY_DMA_CTL_RETRIG, descriptor->ctl));
 979:Generated_Source\PSoC6\pdl\drivers\peripheral\dma/cy_dma.h **** }
 980:Generated_Source\PSoC6\pdl\drivers\peripheral\dma/cy_dma.h **** 
 981:Generated_Source\PSoC6\pdl\drivers\peripheral\dma/cy_dma.h **** 
 982:Generated_Source\PSoC6\pdl\drivers\peripheral\dma/cy_dma.h **** /*******************************************************************************
 983:Generated_Source\PSoC6\pdl\drivers\peripheral\dma/cy_dma.h **** * Function Name: Cy_DMA_Descriptor_GetDescriptorType
 984:Generated_Source\PSoC6\pdl\drivers\peripheral\dma/cy_dma.h **** ****************************************************************************//**
 985:Generated_Source\PSoC6\pdl\drivers\peripheral\dma/cy_dma.h **** *
 986:Generated_Source\PSoC6\pdl\drivers\peripheral\dma/cy_dma.h **** * Returns the descriptor's type of the specified descriptor.
 987:Generated_Source\PSoC6\pdl\drivers\peripheral\dma/cy_dma.h **** *
 988:Generated_Source\PSoC6\pdl\drivers\peripheral\dma/cy_dma.h **** * \param descriptor
 989:Generated_Source\PSoC6\pdl\drivers\peripheral\dma/cy_dma.h **** * The descriptor structure instance declared by the user/component.
 990:Generated_Source\PSoC6\pdl\drivers\peripheral\dma/cy_dma.h **** *
 991:Generated_Source\PSoC6\pdl\drivers\peripheral\dma/cy_dma.h **** * \return
 992:Generated_Source\PSoC6\pdl\drivers\peripheral\dma/cy_dma.h **** * The descriptor type \ref cy_en_dma_descriptor_type_t
 993:Generated_Source\PSoC6\pdl\drivers\peripheral\dma/cy_dma.h **** *  
 994:Generated_Source\PSoC6\pdl\drivers\peripheral\dma/cy_dma.h **** *******************************************************************************/
 995:Generated_Source\PSoC6\pdl\drivers\peripheral\dma/cy_dma.h **** __STATIC_INLINE cy_en_dma_descriptor_type_t Cy_DMA_Descriptor_GetDescriptorType(cy_stc_dma_descript
 996:Generated_Source\PSoC6\pdl\drivers\peripheral\dma/cy_dma.h **** {
 997:Generated_Source\PSoC6\pdl\drivers\peripheral\dma/cy_dma.h ****     CY_ASSERT_L1(NULL != descriptor);
 913              		.loc 2 997 0 is_stmt 1
 914 0022 002C     		cmp	r4, #0
 915 0024 03D1     		bne	.L74
 916 0026 0C49     		ldr	r1, .L76+4
 917 0028 0C48     		ldr	r0, .L76+8
 918 002a FFF7FEFF 		bl	Cy_SysLib_AssertFailed
 919              	.LVL78:
 920              	.L74:
 998:Generated_Source\PSoC6\pdl\drivers\peripheral\dma/cy_dma.h ****     
 999:Generated_Source\PSoC6\pdl\drivers\peripheral\dma/cy_dma.h ****     return((cy_en_dma_descriptor_type_t) _FLD2VAL(CY_DMA_CTL_TYPE, descriptor->ctl));
 921              		.loc 2 999 0
 922 002e 2368     		ldr	r3, [r4]
 923 0030 9B0F     		lsrs	r3, r3, #30
 924              	.LVL79:
 925              	.LBE6:
 926              	.LBE5:
 338:Generated_Source\PSoC6\pdl\drivers\peripheral\dma/cy_dma.c ****     
 339:Generated_Source\PSoC6\pdl\drivers\peripheral\dma/cy_dma.c ****     if (descriptorType != Cy_DMA_Descriptor_GetDescriptorType(descriptor)) /* Don't perform if the 
 927              		.loc 1 339 0
 928 0032 9D42     		cmp	r5, r3
 929 0034 0CD0     		beq	.L71
 930              	.LBB7:
 340:Generated_Source\PSoC6\pdl\drivers\peripheral\dma/cy_dma.c ****     {
 341:Generated_Source\PSoC6\pdl\drivers\peripheral\dma/cy_dma.c ****         /* Store the current nextDescriptor pointer. */
 342:Generated_Source\PSoC6\pdl\drivers\peripheral\dma/cy_dma.c ****         cy_stc_dma_descriptor_t * locNextDescriptor = Cy_DMA_Descriptor_GetNextDescriptor(descripto
 931              		.loc 1 342 0
 932 0036 2000     		movs	r0, r4
 933 0038 FFF7FEFF 		bl	Cy_DMA_Descriptor_GetNextDescriptor
 934              	.LVL80:
 935 003c 0100     		movs	r1, r0
 936              	.LVL81:
 343:Generated_Source\PSoC6\pdl\drivers\peripheral\dma/cy_dma.c ****         /* Change the descriptor type. */
 344:Generated_Source\PSoC6\pdl\drivers\peripheral\dma/cy_dma.c ****         descriptor->ctl = _CLR_SET_FLD32U(descriptor->ctl, CY_DMA_CTL_TYPE, descriptorType);
 937              		.loc 1 344 0
ARM GAS  C:\Users\cypress\AppData\Local\Temp\ccD9LaTb.s 			page 42


 938 003e 2368     		ldr	r3, [r4]
 939 0040 9B00     		lsls	r3, r3, #2
 940 0042 9B08     		lsrs	r3, r3, #2
 941 0044 AD07     		lsls	r5, r5, #30
 942 0046 1D43     		orrs	r5, r3
 943 0048 2560     		str	r5, [r4]
 345:Generated_Source\PSoC6\pdl\drivers\peripheral\dma/cy_dma.c ****         /* Restore the nextDescriptor pointer into the proper place. */
 346:Generated_Source\PSoC6\pdl\drivers\peripheral\dma/cy_dma.c ****         Cy_DMA_Descriptor_SetNextDescriptor(descriptor, locNextDescriptor);
 944              		.loc 1 346 0
 945 004a 2000     		movs	r0, r4
 946              	.LVL82:
 947 004c FFF7FEFF 		bl	Cy_DMA_Descriptor_SetNextDescriptor
 948              	.LVL83:
 949              	.L71:
 950              	.LBE7:
 347:Generated_Source\PSoC6\pdl\drivers\peripheral\dma/cy_dma.c ****     }
 348:Generated_Source\PSoC6\pdl\drivers\peripheral\dma/cy_dma.c **** }
 951              		.loc 1 348 0
 952              		@ sp needed
 953              	.LVL84:
 954 0050 70BD     		pop	{r4, r5, r6, pc}
 955              	.L77:
 956 0052 C046     		.align	2
 957              	.L76:
 958 0054 00000000 		.word	.LC0
 959 0058 E5030000 		.word	997
 960 005c 3C000000 		.word	.LC7
 961              		.cfi_endproc
 962              	.LFE93:
 963              		.size	Cy_DMA_Descriptor_SetDescriptorType, .-Cy_DMA_Descriptor_SetDescriptorType
 964              		.section	.rodata.str1.4,"aMS",%progbits,1
 965              		.align	2
 966              	.LC0:
 967 0000 47656E65 		.ascii	"Generated_Source\\PSoC6\\pdl\\drivers\\peripheral\\"
 967      72617465 
 967      645F536F 
 967      75726365 
 967      5C50536F 
 968 002e 646D615C 		.ascii	"dma\\cy_dma.c\000"
 968      63795F64 
 968      6D612E63 
 968      00
 969 003b 00       		.space	1
 970              	.LC7:
 971 003c 47656E65 		.ascii	"Generated_Source\\PSoC6\\pdl\\drivers\\peripheral\\"
 971      72617465 
 971      645F536F 
 971      75726365 
 971      5C50536F 
 972 006a 646D615C 		.ascii	"dma\\cy_dma.h\000"
 972      63795F64 
 972      6D612E68 
 972      00
 973              		.text
 974              	.Letext0:
 975              		.file 3 "c:\\program files (x86)\\cypress\\psoc creator\\4.2\\psoc creator\\import\\gnu\\arm\\5.4.
 976              		.file 4 "c:\\program files (x86)\\cypress\\psoc creator\\4.2\\psoc creator\\import\\gnu\\arm\\5.4.
ARM GAS  C:\Users\cypress\AppData\Local\Temp\ccD9LaTb.s 			page 43


 977              		.file 5 "Generated_Source\\PSoC6\\pdl\\devices/psoc6/ip/cyip_dw.h"
 978              		.file 6 "Generated_Source\\PSoC6\\pdl\\drivers/peripheral/syslib/cy_syslib.h"
 979              		.section	.debug_info,"",%progbits
 980              	.Ldebug_info0:
 981 0000 790A0000 		.4byte	0xa79
 982 0004 0400     		.2byte	0x4
 983 0006 00000000 		.4byte	.Ldebug_abbrev0
 984 000a 04       		.byte	0x4
 985 000b 01       		.uleb128 0x1
 986 000c CB050000 		.4byte	.LASF117
 987 0010 0C       		.byte	0xc
 988 0011 16050000 		.4byte	.LASF118
 989 0015 88030000 		.4byte	.LASF119
 990 0019 00000000 		.4byte	.Ldebug_ranges0+0
 991 001d 00000000 		.4byte	0
 992 0021 00000000 		.4byte	.Ldebug_line0
 993 0025 02       		.uleb128 0x2
 994 0026 01       		.byte	0x1
 995 0027 06       		.byte	0x6
 996 0028 C4000000 		.4byte	.LASF0
 997 002c 02       		.uleb128 0x2
 998 002d 01       		.byte	0x1
 999 002e 08       		.byte	0x8
 1000 002f C4040000 		.4byte	.LASF1
 1001 0033 02       		.uleb128 0x2
 1002 0034 02       		.byte	0x2
 1003 0035 05       		.byte	0x5
 1004 0036 DD040000 		.4byte	.LASF2
 1005 003a 02       		.uleb128 0x2
 1006 003b 02       		.byte	0x2
 1007 003c 07       		.byte	0x7
 1008 003d 92020000 		.4byte	.LASF3
 1009 0041 03       		.uleb128 0x3
 1010 0042 8F060000 		.4byte	.LASF5
 1011 0046 03       		.byte	0x3
 1012 0047 3F       		.byte	0x3f
 1013 0048 4C000000 		.4byte	0x4c
 1014 004c 02       		.uleb128 0x2
 1015 004d 04       		.byte	0x4
 1016 004e 05       		.byte	0x5
 1017 004f 10010000 		.4byte	.LASF4
 1018 0053 03       		.uleb128 0x3
 1019 0054 88010000 		.4byte	.LASF6
 1020 0058 03       		.byte	0x3
 1021 0059 41       		.byte	0x41
 1022 005a 5E000000 		.4byte	0x5e
 1023 005e 02       		.uleb128 0x2
 1024 005f 04       		.byte	0x4
 1025 0060 07       		.byte	0x7
 1026 0061 34020000 		.4byte	.LASF7
 1027 0065 02       		.uleb128 0x2
 1028 0066 08       		.byte	0x8
 1029 0067 05       		.byte	0x5
 1030 0068 B6000000 		.4byte	.LASF8
 1031 006c 02       		.uleb128 0x2
 1032 006d 08       		.byte	0x8
 1033 006e 07       		.byte	0x7
ARM GAS  C:\Users\cypress\AppData\Local\Temp\ccD9LaTb.s 			page 44


 1034 006f 6A000000 		.4byte	.LASF9
 1035 0073 04       		.uleb128 0x4
 1036 0074 04       		.byte	0x4
 1037 0075 05       		.byte	0x5
 1038 0076 696E7400 		.ascii	"int\000"
 1039 007a 02       		.uleb128 0x2
 1040 007b 04       		.byte	0x4
 1041 007c 07       		.byte	0x7
 1042 007d 19010000 		.4byte	.LASF10
 1043 0081 03       		.uleb128 0x3
 1044 0082 BC040000 		.4byte	.LASF11
 1045 0086 04       		.byte	0x4
 1046 0087 2C       		.byte	0x2c
 1047 0088 41000000 		.4byte	0x41
 1048 008c 03       		.uleb128 0x3
 1049 008d B7050000 		.4byte	.LASF12
 1050 0091 04       		.byte	0x4
 1051 0092 30       		.byte	0x30
 1052 0093 53000000 		.4byte	0x53
 1053 0097 02       		.uleb128 0x2
 1054 0098 08       		.byte	0x8
 1055 0099 04       		.byte	0x4
 1056 009a 5D060000 		.4byte	.LASF13
 1057 009e 02       		.uleb128 0x2
 1058 009f 04       		.byte	0x4
 1059 00a0 07       		.byte	0x7
 1060 00a1 6C030000 		.4byte	.LASF14
 1061 00a5 05       		.uleb128 0x5
 1062 00a6 8C000000 		.4byte	0x8c
 1063 00aa 06       		.uleb128 0x6
 1064 00ab A5000000 		.4byte	0xa5
 1065 00af 07       		.uleb128 0x7
 1066 00b0 AA000000 		.4byte	0xaa
 1067 00b4 BF000000 		.4byte	0xbf
 1068 00b8 08       		.uleb128 0x8
 1069 00b9 9E000000 		.4byte	0x9e
 1070 00bd 01       		.byte	0x1
 1071 00be 00       		.byte	0
 1072 00bf 09       		.uleb128 0x9
 1073 00c0 20       		.byte	0x20
 1074 00c1 05       		.byte	0x5
 1075 00c2 22       		.byte	0x22
 1076 00c3 28010000 		.4byte	0x128
 1077 00c7 0A       		.uleb128 0xa
 1078 00c8 99060000 		.4byte	.LASF15
 1079 00cc 05       		.byte	0x5
 1080 00cd 23       		.byte	0x23
 1081 00ce A5000000 		.4byte	0xa5
 1082 00d2 00       		.byte	0
 1083 00d3 0A       		.uleb128 0xa
 1084 00d4 E3010000 		.4byte	.LASF16
 1085 00d8 05       		.byte	0x5
 1086 00d9 24       		.byte	0x24
 1087 00da AA000000 		.4byte	0xaa
 1088 00de 04       		.byte	0x4
 1089 00df 0A       		.uleb128 0xa
 1090 00e0 DC010000 		.4byte	.LASF17
ARM GAS  C:\Users\cypress\AppData\Local\Temp\ccD9LaTb.s 			page 45


 1091 00e4 05       		.byte	0x5
 1092 00e5 25       		.byte	0x25
 1093 00e6 A5000000 		.4byte	0xa5
 1094 00ea 08       		.byte	0x8
 1095 00eb 0A       		.uleb128 0xa
 1096 00ec 61020000 		.4byte	.LASF18
 1097 00f0 05       		.byte	0x5
 1098 00f1 26       		.byte	0x26
 1099 00f2 A5000000 		.4byte	0xa5
 1100 00f6 0C       		.byte	0xc
 1101 00f7 0A       		.uleb128 0xa
 1102 00f8 07040000 		.4byte	.LASF19
 1103 00fc 05       		.byte	0x5
 1104 00fd 27       		.byte	0x27
 1105 00fe A5000000 		.4byte	0xa5
 1106 0102 10       		.byte	0x10
 1107 0103 0A       		.uleb128 0xa
 1108 0104 40030000 		.4byte	.LASF20
 1109 0108 05       		.byte	0x5
 1110 0109 28       		.byte	0x28
 1111 010a A5000000 		.4byte	0xa5
 1112 010e 14       		.byte	0x14
 1113 010f 0A       		.uleb128 0xa
 1114 0110 46020000 		.4byte	.LASF21
 1115 0114 05       		.byte	0x5
 1116 0115 29       		.byte	0x29
 1117 0116 A5000000 		.4byte	0xa5
 1118 011a 18       		.byte	0x18
 1119 011b 0A       		.uleb128 0xa
 1120 011c 62040000 		.4byte	.LASF22
 1121 0120 05       		.byte	0x5
 1122 0121 2A       		.byte	0x2a
 1123 0122 AA000000 		.4byte	0xaa
 1124 0126 1C       		.byte	0x1c
 1125 0127 00       		.byte	0
 1126 0128 03       		.uleb128 0x3
 1127 0129 82070000 		.4byte	.LASF23
 1128 012d 05       		.byte	0x5
 1129 012e 2B       		.byte	0x2b
 1130 012f BF000000 		.4byte	0xbf
 1131 0133 0B       		.uleb128 0xb
 1132 0134 000C     		.2byte	0xc00
 1133 0136 05       		.byte	0x5
 1134 0137 30       		.byte	0x30
 1135 0138 22020000 		.4byte	0x222
 1136 013c 0C       		.uleb128 0xc
 1137 013d 43544C00 		.ascii	"CTL\000"
 1138 0141 05       		.byte	0x5
 1139 0142 31       		.byte	0x31
 1140 0143 A5000000 		.4byte	0xa5
 1141 0147 00       		.byte	0
 1142 0148 0A       		.uleb128 0xa
 1143 0149 08070000 		.4byte	.LASF24
 1144 014d 05       		.byte	0x5
 1145 014e 32       		.byte	0x32
 1146 014f AA000000 		.4byte	0xaa
 1147 0153 04       		.byte	0x4
ARM GAS  C:\Users\cypress\AppData\Local\Temp\ccD9LaTb.s 			page 46


 1148 0154 0A       		.uleb128 0xa
 1149 0155 E0070000 		.4byte	.LASF25
 1150 0159 05       		.byte	0x5
 1151 015a 33       		.byte	0x33
 1152 015b AA000000 		.4byte	0xaa
 1153 015f 08       		.byte	0x8
 1154 0160 0A       		.uleb128 0xa
 1155 0161 F7040000 		.4byte	.LASF26
 1156 0165 05       		.byte	0x5
 1157 0166 34       		.byte	0x34
 1158 0167 AA000000 		.4byte	0xaa
 1159 016b 0C       		.byte	0xc
 1160 016c 0A       		.uleb128 0xa
 1161 016d FC060000 		.4byte	.LASF27
 1162 0171 05       		.byte	0x5
 1163 0172 35       		.byte	0x35
 1164 0173 AA000000 		.4byte	0xaa
 1165 0177 10       		.byte	0x10
 1166 0178 0A       		.uleb128 0xa
 1167 0179 A0060000 		.4byte	.LASF28
 1168 017d 05       		.byte	0x5
 1169 017e 36       		.byte	0x36
 1170 017f AA000000 		.4byte	0xaa
 1171 0183 14       		.byte	0x14
 1172 0184 0A       		.uleb128 0xa
 1173 0185 98040000 		.4byte	.LASF29
 1174 0189 05       		.byte	0x5
 1175 018a 37       		.byte	0x37
 1176 018b 27020000 		.4byte	0x227
 1177 018f 18       		.byte	0x18
 1178 0190 0A       		.uleb128 0xa
 1179 0191 45010000 		.4byte	.LASF30
 1180 0195 05       		.byte	0x5
 1181 0196 38       		.byte	0x38
 1182 0197 AA000000 		.4byte	0xaa
 1183 019b 20       		.byte	0x20
 1184 019c 0A       		.uleb128 0xa
 1185 019d 26020000 		.4byte	.LASF31
 1186 01a1 05       		.byte	0x5
 1187 01a2 39       		.byte	0x39
 1188 01a3 AA000000 		.4byte	0xaa
 1189 01a7 24       		.byte	0x24
 1190 01a8 0A       		.uleb128 0xa
 1191 01a9 A8000000 		.4byte	.LASF32
 1192 01ad 05       		.byte	0x5
 1193 01ae 3A       		.byte	0x3a
 1194 01af AA000000 		.4byte	0xaa
 1195 01b3 28       		.byte	0x28
 1196 01b4 0A       		.uleb128 0xa
 1197 01b5 99050000 		.4byte	.LASF33
 1198 01b9 05       		.byte	0x5
 1199 01ba 3B       		.byte	0x3b
 1200 01bb AA000000 		.4byte	0xaa
 1201 01bf 2C       		.byte	0x2c
 1202 01c0 0A       		.uleb128 0xa
 1203 01c1 E7040000 		.4byte	.LASF34
 1204 01c5 05       		.byte	0x5
ARM GAS  C:\Users\cypress\AppData\Local\Temp\ccD9LaTb.s 			page 47


 1205 01c6 3C       		.byte	0x3c
 1206 01c7 AA000000 		.4byte	0xaa
 1207 01cb 30       		.byte	0x30
 1208 01cc 0A       		.uleb128 0xa
 1209 01cd BB010000 		.4byte	.LASF35
 1210 01d1 05       		.byte	0x5
 1211 01d2 3D       		.byte	0x3d
 1212 01d3 AA000000 		.4byte	0xaa
 1213 01d7 34       		.byte	0x34
 1214 01d8 0A       		.uleb128 0xa
 1215 01d9 75030000 		.4byte	.LASF36
 1216 01dd 05       		.byte	0x5
 1217 01de 3E       		.byte	0x3e
 1218 01df AA000000 		.4byte	0xaa
 1219 01e3 38       		.byte	0x38
 1220 01e4 0A       		.uleb128 0xa
 1221 01e5 A2040000 		.4byte	.LASF37
 1222 01e9 05       		.byte	0x5
 1223 01ea 3F       		.byte	0x3f
 1224 01eb AA000000 		.4byte	0xaa
 1225 01ef 3C       		.byte	0x3c
 1226 01f0 0A       		.uleb128 0xa
 1227 01f1 5A010000 		.4byte	.LASF38
 1228 01f5 05       		.byte	0x5
 1229 01f6 40       		.byte	0x40
 1230 01f7 AA000000 		.4byte	0xaa
 1231 01fb 40       		.byte	0x40
 1232 01fc 0A       		.uleb128 0xa
 1233 01fd A0000000 		.4byte	.LASF39
 1234 0201 05       		.byte	0x5
 1235 0202 41       		.byte	0x41
 1236 0203 AA000000 		.4byte	0xaa
 1237 0207 44       		.byte	0x44
 1238 0208 0A       		.uleb128 0xa
 1239 0209 AC040000 		.4byte	.LASF40
 1240 020d 05       		.byte	0x5
 1241 020e 42       		.byte	0x42
 1242 020f 42020000 		.4byte	0x242
 1243 0213 48       		.byte	0x48
 1244 0214 0D       		.uleb128 0xd
 1245 0215 78070000 		.4byte	.LASF41
 1246 0219 05       		.byte	0x5
 1247 021a 43       		.byte	0x43
 1248 021b 47020000 		.4byte	0x247
 1249 021f 0008     		.2byte	0x800
 1250 0221 00       		.byte	0
 1251 0222 05       		.uleb128 0x5
 1252 0223 AF000000 		.4byte	0xaf
 1253 0227 06       		.uleb128 0x6
 1254 0228 22020000 		.4byte	0x222
 1255 022c 07       		.uleb128 0x7
 1256 022d AA000000 		.4byte	0xaa
 1257 0231 3D020000 		.4byte	0x23d
 1258 0235 0E       		.uleb128 0xe
 1259 0236 9E000000 		.4byte	0x9e
 1260 023a ED01     		.2byte	0x1ed
 1261 023c 00       		.byte	0
ARM GAS  C:\Users\cypress\AppData\Local\Temp\ccD9LaTb.s 			page 48


 1262 023d 05       		.uleb128 0x5
 1263 023e 2C020000 		.4byte	0x22c
 1264 0242 06       		.uleb128 0x6
 1265 0243 3D020000 		.4byte	0x23d
 1266 0247 07       		.uleb128 0x7
 1267 0248 28010000 		.4byte	0x128
 1268 024c 57020000 		.4byte	0x257
 1269 0250 08       		.uleb128 0x8
 1270 0251 9E000000 		.4byte	0x9e
 1271 0255 1F       		.byte	0x1f
 1272 0256 00       		.byte	0
 1273 0257 03       		.uleb128 0x3
 1274 0258 D4010000 		.4byte	.LASF42
 1275 025c 05       		.byte	0x5
 1276 025d 44       		.byte	0x44
 1277 025e 33010000 		.4byte	0x133
 1278 0262 0F       		.uleb128 0xf
 1279 0263 1F020000 		.4byte	.LASF43
 1280 0267 06       		.byte	0x6
 1281 0268 C401     		.2byte	0x1c4
 1282 026a 6E020000 		.4byte	0x26e
 1283 026e 02       		.uleb128 0x2
 1284 026f 01       		.byte	0x1
 1285 0270 08       		.byte	0x8
 1286 0271 69060000 		.4byte	.LASF44
 1287 0275 02       		.uleb128 0x2
 1288 0276 04       		.byte	0x4
 1289 0277 04       		.byte	0x4
 1290 0278 6E040000 		.4byte	.LASF45
 1291 027c 02       		.uleb128 0x2
 1292 027d 08       		.byte	0x8
 1293 027e 04       		.byte	0x4
 1294 027f 53010000 		.4byte	.LASF46
 1295 0283 10       		.uleb128 0x10
 1296 0284 01       		.byte	0x1
 1297 0285 2C000000 		.4byte	0x2c
 1298 0289 02       		.byte	0x2
 1299 028a D9       		.byte	0xd9
 1300 028b A2020000 		.4byte	0x2a2
 1301 028f 11       		.uleb128 0x11
 1302 0290 BF020000 		.4byte	.LASF47
 1303 0294 00       		.byte	0
 1304 0295 11       		.uleb128 0x11
 1305 0296 D3030000 		.4byte	.LASF48
 1306 029a 01       		.byte	0x1
 1307 029b 11       		.uleb128 0x11
 1308 029c 75010000 		.4byte	.LASF49
 1309 02a0 02       		.byte	0x2
 1310 02a1 00       		.byte	0
 1311 02a2 03       		.uleb128 0x3
 1312 02a3 30040000 		.4byte	.LASF50
 1313 02a7 02       		.byte	0x2
 1314 02a8 DD       		.byte	0xdd
 1315 02a9 83020000 		.4byte	0x283
 1316 02ad 10       		.uleb128 0x10
 1317 02ae 01       		.byte	0x1
 1318 02af 2C000000 		.4byte	0x2c
ARM GAS  C:\Users\cypress\AppData\Local\Temp\ccD9LaTb.s 			page 49


 1319 02b3 02       		.byte	0x2
 1320 02b4 E1       		.byte	0xe1
 1321 02b5 D2020000 		.4byte	0x2d2
 1322 02b9 11       		.uleb128 0x11
 1323 02ba AB010000 		.4byte	.LASF51
 1324 02be 00       		.byte	0
 1325 02bf 11       		.uleb128 0x11
 1326 02c0 11020000 		.4byte	.LASF52
 1327 02c4 01       		.byte	0x1
 1328 02c5 11       		.uleb128 0x11
 1329 02c6 33030000 		.4byte	.LASF53
 1330 02ca 02       		.byte	0x2
 1331 02cb 11       		.uleb128 0x11
 1332 02cc 6F050000 		.4byte	.LASF54
 1333 02d0 03       		.byte	0x3
 1334 02d1 00       		.byte	0
 1335 02d2 03       		.uleb128 0x3
 1336 02d3 35000000 		.4byte	.LASF55
 1337 02d7 02       		.byte	0x2
 1338 02d8 E6       		.byte	0xe6
 1339 02d9 AD020000 		.4byte	0x2ad
 1340 02dd 10       		.uleb128 0x10
 1341 02de 01       		.byte	0x1
 1342 02df 2C000000 		.4byte	0x2c
 1343 02e3 02       		.byte	0x2
 1344 02e4 EA       		.byte	0xea
 1345 02e5 FC020000 		.4byte	0x2fc
 1346 02e9 11       		.uleb128 0x11
 1347 02ea 0C040000 		.4byte	.LASF56
 1348 02ee 00       		.byte	0
 1349 02ef 11       		.uleb128 0x11
 1350 02f0 90000000 		.4byte	.LASF57
 1351 02f4 01       		.byte	0x1
 1352 02f5 11       		.uleb128 0x11
 1353 02f6 83060000 		.4byte	.LASF58
 1354 02fa 02       		.byte	0x2
 1355 02fb 00       		.byte	0
 1356 02fc 03       		.uleb128 0x3
 1357 02fd E6030000 		.4byte	.LASF59
 1358 0301 02       		.byte	0x2
 1359 0302 EE       		.byte	0xee
 1360 0303 DD020000 		.4byte	0x2dd
 1361 0307 10       		.uleb128 0x10
 1362 0308 01       		.byte	0x1
 1363 0309 2C000000 		.4byte	0x2c
 1364 030d 02       		.byte	0x2
 1365 030e F2       		.byte	0xf2
 1366 030f 2C030000 		.4byte	0x32c
 1367 0313 11       		.uleb128 0x11
 1368 0314 50020000 		.4byte	.LASF60
 1369 0318 00       		.byte	0
 1370 0319 11       		.uleb128 0x11
 1371 031a 62010000 		.4byte	.LASF61
 1372 031e 01       		.byte	0x1
 1373 031f 11       		.uleb128 0x11
 1374 0320 A3050000 		.4byte	.LASF62
 1375 0324 02       		.byte	0x2
ARM GAS  C:\Users\cypress\AppData\Local\Temp\ccD9LaTb.s 			page 50


 1376 0325 11       		.uleb128 0x11
 1377 0326 00050000 		.4byte	.LASF63
 1378 032a 03       		.byte	0x3
 1379 032b 00       		.byte	0
 1380 032c 03       		.uleb128 0x3
 1381 032d 4C040000 		.4byte	.LASF64
 1382 0331 02       		.byte	0x2
 1383 0332 F7       		.byte	0xf7
 1384 0333 07030000 		.4byte	0x307
 1385 0337 10       		.uleb128 0x10
 1386 0338 01       		.byte	0x1
 1387 0339 2C000000 		.4byte	0x2c
 1388 033d 02       		.byte	0x2
 1389 033e FB       		.byte	0xfb
 1390 033f 50030000 		.4byte	0x350
 1391 0343 11       		.uleb128 0x11
 1392 0344 A5020000 		.4byte	.LASF65
 1393 0348 00       		.byte	0
 1394 0349 11       		.uleb128 0x11
 1395 034a B9030000 		.4byte	.LASF66
 1396 034e 01       		.byte	0x1
 1397 034f 00       		.byte	0
 1398 0350 03       		.uleb128 0x3
 1399 0351 6D020000 		.4byte	.LASF67
 1400 0355 02       		.byte	0x2
 1401 0356 FE       		.byte	0xfe
 1402 0357 37030000 		.4byte	0x337
 1403 035b 12       		.uleb128 0x12
 1404 035c 01       		.byte	0x1
 1405 035d 2C000000 		.4byte	0x2c
 1406 0361 02       		.byte	0x2
 1407 0362 0201     		.2byte	0x102
 1408 0364 75030000 		.4byte	0x375
 1409 0368 11       		.uleb128 0x11
 1410 0369 1E000000 		.4byte	.LASF68
 1411 036d 00       		.byte	0
 1412 036e 11       		.uleb128 0x11
 1413 036f 93010000 		.4byte	.LASF69
 1414 0373 01       		.byte	0x1
 1415 0374 00       		.byte	0
 1416 0375 0F       		.uleb128 0xf
 1417 0376 BA070000 		.4byte	.LASF70
 1418 037a 02       		.byte	0x2
 1419 037b 0501     		.2byte	0x105
 1420 037d 5B030000 		.4byte	0x35b
 1421 0381 12       		.uleb128 0x12
 1422 0382 04       		.byte	0x4
 1423 0383 7A000000 		.4byte	0x7a
 1424 0387 02       		.byte	0x2
 1425 0388 0901     		.2byte	0x109
 1426 038a 9E030000 		.4byte	0x39e
 1427 038e 11       		.uleb128 0x11
 1428 038f 60050000 		.4byte	.LASF71
 1429 0393 00       		.byte	0
 1430 0394 13       		.uleb128 0x13
 1431 0395 0F070000 		.4byte	.LASF72
 1432 0399 01004E00 		.4byte	0x4e0001
ARM GAS  C:\Users\cypress\AppData\Local\Temp\ccD9LaTb.s 			page 51


 1433 039d 00       		.byte	0
 1434 039e 0F       		.uleb128 0xf
 1435 039f 18040000 		.4byte	.LASF73
 1436 03a3 02       		.byte	0x2
 1437 03a4 0C01     		.2byte	0x10c
 1438 03a6 81030000 		.4byte	0x381
 1439 03aa 14       		.uleb128 0x14
 1440 03ab 18       		.byte	0x18
 1441 03ac 02       		.byte	0x2
 1442 03ad 6001     		.2byte	0x160
 1443 03af 02040000 		.4byte	0x402
 1444 03b3 15       		.uleb128 0x15
 1445 03b4 63746C00 		.ascii	"ctl\000"
 1446 03b8 02       		.byte	0x2
 1447 03b9 6201     		.2byte	0x162
 1448 03bb 8C000000 		.4byte	0x8c
 1449 03bf 00       		.byte	0
 1450 03c0 15       		.uleb128 0x15
 1451 03c1 73726300 		.ascii	"src\000"
 1452 03c5 02       		.byte	0x2
 1453 03c6 6301     		.2byte	0x163
 1454 03c8 8C000000 		.4byte	0x8c
 1455 03cc 04       		.byte	0x4
 1456 03cd 15       		.uleb128 0x15
 1457 03ce 64737400 		.ascii	"dst\000"
 1458 03d2 02       		.byte	0x2
 1459 03d3 6401     		.2byte	0x164
 1460 03d5 8C000000 		.4byte	0x8c
 1461 03d9 08       		.byte	0x8
 1462 03da 16       		.uleb128 0x16
 1463 03db 2B040000 		.4byte	.LASF74
 1464 03df 02       		.byte	0x2
 1465 03e0 6501     		.2byte	0x165
 1466 03e2 8C000000 		.4byte	0x8c
 1467 03e6 0C       		.byte	0xc
 1468 03e7 16       		.uleb128 0x16
 1469 03e8 B3060000 		.4byte	.LASF75
 1470 03ec 02       		.byte	0x2
 1471 03ed 6601     		.2byte	0x166
 1472 03ef 8C000000 		.4byte	0x8c
 1473 03f3 10       		.byte	0x10
 1474 03f4 16       		.uleb128 0x16
 1475 03f5 26010000 		.4byte	.LASF76
 1476 03f9 02       		.byte	0x2
 1477 03fa 6701     		.2byte	0x167
 1478 03fc 8C000000 		.4byte	0x8c
 1479 0400 14       		.byte	0x14
 1480 0401 00       		.byte	0
 1481 0402 0F       		.uleb128 0xf
 1482 0403 60070000 		.4byte	.LASF77
 1483 0407 02       		.byte	0x2
 1484 0408 6801     		.2byte	0x168
 1485 040a AA030000 		.4byte	0x3aa
 1486 040e 14       		.uleb128 0x14
 1487 040f 30       		.byte	0x30
 1488 0410 02       		.byte	0x2
 1489 0411 7201     		.2byte	0x172
ARM GAS  C:\Users\cypress\AppData\Local\Temp\ccD9LaTb.s 			page 52


 1490 0413 02050000 		.4byte	0x502
 1491 0417 16       		.uleb128 0x16
 1492 0418 01030000 		.4byte	.LASF78
 1493 041c 02       		.byte	0x2
 1494 041d 7401     		.2byte	0x174
 1495 041f 2C030000 		.4byte	0x32c
 1496 0423 00       		.byte	0
 1497 0424 16       		.uleb128 0x16
 1498 0425 DE000000 		.4byte	.LASF79
 1499 0429 02       		.byte	0x2
 1500 042a 7501     		.2byte	0x175
 1501 042c D2020000 		.4byte	0x2d2
 1502 0430 01       		.byte	0x1
 1503 0431 16       		.uleb128 0x16
 1504 0432 81000000 		.4byte	.LASF80
 1505 0436 02       		.byte	0x2
 1506 0437 7601     		.2byte	0x176
 1507 0439 D2020000 		.4byte	0x2d2
 1508 043d 02       		.byte	0x2
 1509 043e 16       		.uleb128 0x16
 1510 043f 94070000 		.4byte	.LASF81
 1511 0443 02       		.byte	0x2
 1512 0444 7701     		.2byte	0x177
 1513 0446 75030000 		.4byte	0x375
 1514 044a 03       		.byte	0x3
 1515 044b 16       		.uleb128 0x16
 1516 044c DF020000 		.4byte	.LASF82
 1517 0450 02       		.byte	0x2
 1518 0451 7801     		.2byte	0x178
 1519 0453 D2020000 		.4byte	0x2d2
 1520 0457 04       		.byte	0x4
 1521 0458 16       		.uleb128 0x16
 1522 0459 CB010000 		.4byte	.LASF83
 1523 045d 02       		.byte	0x2
 1524 045e 7901     		.2byte	0x179
 1525 0460 FC020000 		.4byte	0x2fc
 1526 0464 05       		.byte	0x5
 1527 0465 16       		.uleb128 0x16
 1528 0466 2E010000 		.4byte	.LASF84
 1529 046a 02       		.byte	0x2
 1530 046b 7A01     		.2byte	0x17a
 1531 046d 50030000 		.4byte	0x350
 1532 0471 06       		.byte	0x6
 1533 0472 16       		.uleb128 0x16
 1534 0473 4E030000 		.4byte	.LASF85
 1535 0477 02       		.byte	0x2
 1536 0478 7B01     		.2byte	0x17b
 1537 047a 50030000 		.4byte	0x350
 1538 047e 07       		.byte	0x7
 1539 047f 16       		.uleb128 0x16
 1540 0480 51050000 		.4byte	.LASF86
 1541 0484 02       		.byte	0x2
 1542 0485 7C01     		.2byte	0x17c
 1543 0487 A2020000 		.4byte	0x2a2
 1544 048b 08       		.byte	0x8
 1545 048c 16       		.uleb128 0x16
 1546 048d FC030000 		.4byte	.LASF87
ARM GAS  C:\Users\cypress\AppData\Local\Temp\ccD9LaTb.s 			page 53


 1547 0491 02       		.byte	0x2
 1548 0492 7D01     		.2byte	0x17d
 1549 0494 02050000 		.4byte	0x502
 1550 0498 0C       		.byte	0xc
 1551 0499 16       		.uleb128 0x16
 1552 049a 87020000 		.4byte	.LASF88
 1553 049e 02       		.byte	0x2
 1554 049f 7E01     		.2byte	0x17e
 1555 04a1 02050000 		.4byte	0x502
 1556 04a5 10       		.byte	0x10
 1557 04a6 16       		.uleb128 0x16
 1558 04a7 20070000 		.4byte	.LASF89
 1559 04ab 02       		.byte	0x2
 1560 04ac 7F01     		.2byte	0x17f
 1561 04ae 81000000 		.4byte	0x81
 1562 04b2 14       		.byte	0x14
 1563 04b3 16       		.uleb128 0x16
 1564 04b4 D0000000 		.4byte	.LASF90
 1565 04b8 02       		.byte	0x2
 1566 04b9 8001     		.2byte	0x180
 1567 04bb 81000000 		.4byte	0x81
 1568 04bf 18       		.byte	0x18
 1569 04c0 16       		.uleb128 0x16
 1570 04c1 7C060000 		.4byte	.LASF91
 1571 04c5 02       		.byte	0x2
 1572 04c6 8101     		.2byte	0x181
 1573 04c8 8C000000 		.4byte	0x8c
 1574 04cc 1C       		.byte	0x1c
 1575 04cd 16       		.uleb128 0x16
 1576 04ce 52070000 		.4byte	.LASF92
 1577 04d2 02       		.byte	0x2
 1578 04d3 8201     		.2byte	0x182
 1579 04d5 81000000 		.4byte	0x81
 1580 04d9 20       		.byte	0x20
 1581 04da 16       		.uleb128 0x16
 1582 04db CF060000 		.4byte	.LASF93
 1583 04df 02       		.byte	0x2
 1584 04e0 8301     		.2byte	0x183
 1585 04e2 81000000 		.4byte	0x81
 1586 04e6 24       		.byte	0x24
 1587 04e7 16       		.uleb128 0x16
 1588 04e8 6E060000 		.4byte	.LASF94
 1589 04ec 02       		.byte	0x2
 1590 04ed 8401     		.2byte	0x184
 1591 04ef 8C000000 		.4byte	0x8c
 1592 04f3 28       		.byte	0x28
 1593 04f4 16       		.uleb128 0x16
 1594 04f5 82050000 		.4byte	.LASF95
 1595 04f9 02       		.byte	0x2
 1596 04fa 8501     		.2byte	0x185
 1597 04fc 04050000 		.4byte	0x504
 1598 0500 2C       		.byte	0x2c
 1599 0501 00       		.byte	0
 1600 0502 17       		.uleb128 0x17
 1601 0503 04       		.byte	0x4
 1602 0504 18       		.uleb128 0x18
 1603 0505 04       		.byte	0x4
ARM GAS  C:\Users\cypress\AppData\Local\Temp\ccD9LaTb.s 			page 54


 1604 0506 02040000 		.4byte	0x402
 1605 050a 0F       		.uleb128 0xf
 1606 050b DD060000 		.4byte	.LASF96
 1607 050f 02       		.byte	0x2
 1608 0510 8601     		.2byte	0x186
 1609 0512 0E040000 		.4byte	0x40e
 1610 0516 14       		.uleb128 0x14
 1611 0517 10       		.byte	0x10
 1612 0518 02       		.byte	0x2
 1613 0519 8901     		.2byte	0x189
 1614 051b 61050000 		.4byte	0x561
 1615 051f 16       		.uleb128 0x16
 1616 0520 C0050000 		.4byte	.LASF97
 1617 0524 02       		.byte	0x2
 1618 0525 8B01     		.2byte	0x18b
 1619 0527 04050000 		.4byte	0x504
 1620 052b 00       		.byte	0
 1621 052c 16       		.uleb128 0x16
 1622 052d D4070000 		.4byte	.LASF98
 1623 0531 02       		.byte	0x2
 1624 0532 8C01     		.2byte	0x18c
 1625 0534 61050000 		.4byte	0x561
 1626 0538 04       		.byte	0x4
 1627 0539 16       		.uleb128 0x16
 1628 053a D6020000 		.4byte	.LASF99
 1629 053e 02       		.byte	0x2
 1630 053f 8D01     		.2byte	0x18d
 1631 0541 8C000000 		.4byte	0x8c
 1632 0545 08       		.byte	0x8
 1633 0546 16       		.uleb128 0x16
 1634 0547 3E010000 		.4byte	.LASF100
 1635 054b 02       		.byte	0x2
 1636 054c 8E01     		.2byte	0x18e
 1637 054e 61050000 		.4byte	0x561
 1638 0552 0C       		.byte	0xc
 1639 0553 16       		.uleb128 0x16
 1640 0554 D2040000 		.4byte	.LASF101
 1641 0558 02       		.byte	0x2
 1642 0559 8F01     		.2byte	0x18f
 1643 055b 61050000 		.4byte	0x561
 1644 055f 0D       		.byte	0xd
 1645 0560 00       		.byte	0
 1646 0561 02       		.uleb128 0x2
 1647 0562 01       		.byte	0x1
 1648 0563 02       		.byte	0x2
 1649 0564 B6040000 		.4byte	.LASF102
 1650 0568 0F       		.uleb128 0xf
 1651 0569 4E000000 		.4byte	.LASF103
 1652 056d 02       		.byte	0x2
 1653 056e 9101     		.2byte	0x191
 1654 0570 16050000 		.4byte	0x516
 1655 0574 19       		.uleb128 0x19
 1656 0575 2E070000 		.4byte	.LASF120
 1657 0579 02       		.byte	0x2
 1658 057a E303     		.2byte	0x3e3
 1659 057c A2020000 		.4byte	0x2a2
 1660 0580 03       		.byte	0x3
ARM GAS  C:\Users\cypress\AppData\Local\Temp\ccD9LaTb.s 			page 55


 1661 0581 92050000 		.4byte	0x592
 1662 0585 1A       		.uleb128 0x1a
 1663 0586 C0050000 		.4byte	.LASF97
 1664 058a 02       		.byte	0x2
 1665 058b E303     		.2byte	0x3e3
 1666 058d 92050000 		.4byte	0x592
 1667 0591 00       		.byte	0
 1668 0592 18       		.uleb128 0x18
 1669 0593 04       		.byte	0x4
 1670 0594 98050000 		.4byte	0x598
 1671 0598 06       		.uleb128 0x6
 1672 0599 02040000 		.4byte	0x402
 1673 059d 1B       		.uleb128 0x1b
 1674 059e 07000000 		.4byte	.LASF105
 1675 05a2 01       		.byte	0x1
 1676 05a3 2A       		.byte	0x2a
 1677 05a4 9E030000 		.4byte	0x39e
 1678 05a8 00000000 		.4byte	.LFB87
 1679 05ac 48020000 		.4byte	.LFE87-.LFB87
 1680 05b0 01       		.uleb128 0x1
 1681 05b1 9C       		.byte	0x9c
 1682 05b2 EA070000 		.4byte	0x7ea
 1683 05b6 1C       		.uleb128 0x1c
 1684 05b7 C0050000 		.4byte	.LASF97
 1685 05bb 01       		.byte	0x1
 1686 05bc 2A       		.byte	0x2a
 1687 05bd 04050000 		.4byte	0x504
 1688 05c1 00000000 		.4byte	.LLST0
 1689 05c5 1C       		.uleb128 0x1c
 1690 05c6 75060000 		.4byte	.LASF104
 1691 05ca 01       		.byte	0x1
 1692 05cb 2A       		.byte	0x2a
 1693 05cc EA070000 		.4byte	0x7ea
 1694 05d0 58000000 		.4byte	.LLST1
 1695 05d4 1D       		.uleb128 0x1d
 1696 05d5 00000000 		.4byte	.LASF110
 1697 05d9 01       		.byte	0x1
 1698 05da 2C       		.byte	0x2c
 1699 05db 9E030000 		.4byte	0x39e
 1700 05df 9A000000 		.4byte	.LLST2
 1701 05e3 1E       		.uleb128 0x1e
 1702 05e4 20000000 		.4byte	.LVL4
 1703 05e8 700A0000 		.4byte	0xa70
 1704 05ec 00060000 		.4byte	0x600
 1705 05f0 1F       		.uleb128 0x1f
 1706 05f1 01       		.uleb128 0x1
 1707 05f2 50       		.byte	0x50
 1708 05f3 05       		.uleb128 0x5
 1709 05f4 03       		.byte	0x3
 1710 05f5 00000000 		.4byte	.LC0
 1711 05f9 1F       		.uleb128 0x1f
 1712 05fa 01       		.uleb128 0x1
 1713 05fb 51       		.byte	0x51
 1714 05fc 02       		.uleb128 0x2
 1715 05fd 08       		.byte	0x8
 1716 05fe 30       		.byte	0x30
 1717 05ff 00       		.byte	0
ARM GAS  C:\Users\cypress\AppData\Local\Temp\ccD9LaTb.s 			page 56


 1718 0600 1E       		.uleb128 0x1e
 1719 0601 2E000000 		.4byte	.LVL5
 1720 0605 700A0000 		.4byte	0xa70
 1721 0609 1D060000 		.4byte	0x61d
 1722 060d 1F       		.uleb128 0x1f
 1723 060e 01       		.uleb128 0x1
 1724 060f 50       		.byte	0x50
 1725 0610 05       		.uleb128 0x5
 1726 0611 03       		.byte	0x3
 1727 0612 00000000 		.4byte	.LC0
 1728 0616 1F       		.uleb128 0x1f
 1729 0617 01       		.uleb128 0x1
 1730 0618 51       		.byte	0x51
 1731 0619 02       		.uleb128 0x2
 1732 061a 08       		.byte	0x8
 1733 061b 31       		.byte	0x31
 1734 061c 00       		.byte	0
 1735 061d 1E       		.uleb128 0x1e
 1736 061e 3C000000 		.4byte	.LVL6
 1737 0622 700A0000 		.4byte	0xa70
 1738 0626 3A060000 		.4byte	0x63a
 1739 062a 1F       		.uleb128 0x1f
 1740 062b 01       		.uleb128 0x1
 1741 062c 50       		.byte	0x50
 1742 062d 05       		.uleb128 0x5
 1743 062e 03       		.byte	0x3
 1744 062f 00000000 		.4byte	.LC0
 1745 0633 1F       		.uleb128 0x1f
 1746 0634 01       		.uleb128 0x1
 1747 0635 51       		.byte	0x51
 1748 0636 02       		.uleb128 0x2
 1749 0637 08       		.byte	0x8
 1750 0638 32       		.byte	0x32
 1751 0639 00       		.byte	0
 1752 063a 1E       		.uleb128 0x1e
 1753 063b 4A000000 		.4byte	.LVL7
 1754 063f 700A0000 		.4byte	0xa70
 1755 0643 57060000 		.4byte	0x657
 1756 0647 1F       		.uleb128 0x1f
 1757 0648 01       		.uleb128 0x1
 1758 0649 50       		.byte	0x50
 1759 064a 05       		.uleb128 0x5
 1760 064b 03       		.byte	0x3
 1761 064c 00000000 		.4byte	.LC0
 1762 0650 1F       		.uleb128 0x1f
 1763 0651 01       		.uleb128 0x1
 1764 0652 51       		.byte	0x51
 1765 0653 02       		.uleb128 0x2
 1766 0654 08       		.byte	0x8
 1767 0655 33       		.byte	0x33
 1768 0656 00       		.byte	0
 1769 0657 1E       		.uleb128 0x1e
 1770 0658 58000000 		.4byte	.LVL8
 1771 065c 700A0000 		.4byte	0xa70
 1772 0660 74060000 		.4byte	0x674
 1773 0664 1F       		.uleb128 0x1f
 1774 0665 01       		.uleb128 0x1
ARM GAS  C:\Users\cypress\AppData\Local\Temp\ccD9LaTb.s 			page 57


 1775 0666 50       		.byte	0x50
 1776 0667 05       		.uleb128 0x5
 1777 0668 03       		.byte	0x3
 1778 0669 00000000 		.4byte	.LC0
 1779 066d 1F       		.uleb128 0x1f
 1780 066e 01       		.uleb128 0x1
 1781 066f 51       		.byte	0x51
 1782 0670 02       		.uleb128 0x2
 1783 0671 08       		.byte	0x8
 1784 0672 34       		.byte	0x34
 1785 0673 00       		.byte	0
 1786 0674 1E       		.uleb128 0x1e
 1787 0675 66000000 		.4byte	.LVL9
 1788 0679 700A0000 		.4byte	0xa70
 1789 067d 91060000 		.4byte	0x691
 1790 0681 1F       		.uleb128 0x1f
 1791 0682 01       		.uleb128 0x1
 1792 0683 50       		.byte	0x50
 1793 0684 05       		.uleb128 0x5
 1794 0685 03       		.byte	0x3
 1795 0686 00000000 		.4byte	.LC0
 1796 068a 1F       		.uleb128 0x1f
 1797 068b 01       		.uleb128 0x1
 1798 068c 51       		.byte	0x51
 1799 068d 02       		.uleb128 0x2
 1800 068e 08       		.byte	0x8
 1801 068f 35       		.byte	0x35
 1802 0690 00       		.byte	0
 1803 0691 1E       		.uleb128 0x1e
 1804 0692 74000000 		.4byte	.LVL10
 1805 0696 700A0000 		.4byte	0xa70
 1806 069a AE060000 		.4byte	0x6ae
 1807 069e 1F       		.uleb128 0x1f
 1808 069f 01       		.uleb128 0x1
 1809 06a0 50       		.byte	0x50
 1810 06a1 05       		.uleb128 0x5
 1811 06a2 03       		.byte	0x3
 1812 06a3 00000000 		.4byte	.LC0
 1813 06a7 1F       		.uleb128 0x1f
 1814 06a8 01       		.uleb128 0x1
 1815 06a9 51       		.byte	0x51
 1816 06aa 02       		.uleb128 0x2
 1817 06ab 08       		.byte	0x8
 1818 06ac 36       		.byte	0x36
 1819 06ad 00       		.byte	0
 1820 06ae 1E       		.uleb128 0x1e
 1821 06af 82000000 		.4byte	.LVL11
 1822 06b3 700A0000 		.4byte	0xa70
 1823 06b7 CB060000 		.4byte	0x6cb
 1824 06bb 1F       		.uleb128 0x1f
 1825 06bc 01       		.uleb128 0x1
 1826 06bd 50       		.byte	0x50
 1827 06be 05       		.uleb128 0x5
 1828 06bf 03       		.byte	0x3
 1829 06c0 00000000 		.4byte	.LC0
 1830 06c4 1F       		.uleb128 0x1f
 1831 06c5 01       		.uleb128 0x1
ARM GAS  C:\Users\cypress\AppData\Local\Temp\ccD9LaTb.s 			page 58


 1832 06c6 51       		.byte	0x51
 1833 06c7 02       		.uleb128 0x2
 1834 06c8 08       		.byte	0x8
 1835 06c9 37       		.byte	0x37
 1836 06ca 00       		.byte	0
 1837 06cb 1E       		.uleb128 0x1e
 1838 06cc 90000000 		.4byte	.LVL12
 1839 06d0 700A0000 		.4byte	0xa70
 1840 06d4 E8060000 		.4byte	0x6e8
 1841 06d8 1F       		.uleb128 0x1f
 1842 06d9 01       		.uleb128 0x1
 1843 06da 50       		.byte	0x50
 1844 06db 05       		.uleb128 0x5
 1845 06dc 03       		.byte	0x3
 1846 06dd 00000000 		.4byte	.LC0
 1847 06e1 1F       		.uleb128 0x1f
 1848 06e2 01       		.uleb128 0x1
 1849 06e3 51       		.byte	0x51
 1850 06e4 02       		.uleb128 0x2
 1851 06e5 08       		.byte	0x8
 1852 06e6 38       		.byte	0x38
 1853 06e7 00       		.byte	0
 1854 06e8 1E       		.uleb128 0x1e
 1855 06e9 28010000 		.4byte	.LVL13
 1856 06ed 700A0000 		.4byte	0xa70
 1857 06f1 05070000 		.4byte	0x705
 1858 06f5 1F       		.uleb128 0x1f
 1859 06f6 01       		.uleb128 0x1
 1860 06f7 50       		.byte	0x50
 1861 06f8 05       		.uleb128 0x5
 1862 06f9 03       		.byte	0x3
 1863 06fa 00000000 		.4byte	.LC0
 1864 06fe 1F       		.uleb128 0x1f
 1865 06ff 01       		.uleb128 0x1
 1866 0700 51       		.byte	0x51
 1867 0701 02       		.uleb128 0x2
 1868 0702 08       		.byte	0x8
 1869 0703 52       		.byte	0x52
 1870 0704 00       		.byte	0
 1871 0705 1E       		.uleb128 0x1e
 1872 0706 40010000 		.4byte	.LVL14
 1873 070a 700A0000 		.4byte	0xa70
 1874 070e 22070000 		.4byte	0x722
 1875 0712 1F       		.uleb128 0x1f
 1876 0713 01       		.uleb128 0x1
 1877 0714 50       		.byte	0x50
 1878 0715 05       		.uleb128 0x5
 1879 0716 03       		.byte	0x3
 1880 0717 00000000 		.4byte	.LC0
 1881 071b 1F       		.uleb128 0x1f
 1882 071c 01       		.uleb128 0x1
 1883 071d 51       		.byte	0x51
 1884 071e 02       		.uleb128 0x2
 1885 071f 08       		.byte	0x8
 1886 0720 53       		.byte	0x53
 1887 0721 00       		.byte	0
 1888 0722 1E       		.uleb128 0x1e
ARM GAS  C:\Users\cypress\AppData\Local\Temp\ccD9LaTb.s 			page 59


 1889 0723 50010000 		.4byte	.LVL15
 1890 0727 700A0000 		.4byte	0xa70
 1891 072b 3F070000 		.4byte	0x73f
 1892 072f 1F       		.uleb128 0x1f
 1893 0730 01       		.uleb128 0x1
 1894 0731 50       		.byte	0x50
 1895 0732 05       		.uleb128 0x5
 1896 0733 03       		.byte	0x3
 1897 0734 00000000 		.4byte	.LC0
 1898 0738 1F       		.uleb128 0x1f
 1899 0739 01       		.uleb128 0x1
 1900 073a 51       		.byte	0x51
 1901 073b 02       		.uleb128 0x2
 1902 073c 08       		.byte	0x8
 1903 073d 54       		.byte	0x54
 1904 073e 00       		.byte	0
 1905 073f 1E       		.uleb128 0x1e
 1906 0740 8A010000 		.4byte	.LVL16
 1907 0744 700A0000 		.4byte	0xa70
 1908 0748 5C070000 		.4byte	0x75c
 1909 074c 1F       		.uleb128 0x1f
 1910 074d 01       		.uleb128 0x1
 1911 074e 50       		.byte	0x50
 1912 074f 05       		.uleb128 0x5
 1913 0750 03       		.byte	0x3
 1914 0751 00000000 		.4byte	.LC0
 1915 0755 1F       		.uleb128 0x1f
 1916 0756 01       		.uleb128 0x1
 1917 0757 51       		.byte	0x51
 1918 0758 02       		.uleb128 0x2
 1919 0759 08       		.byte	0x8
 1920 075a 61       		.byte	0x61
 1921 075b 00       		.byte	0
 1922 075c 1E       		.uleb128 0x1e
 1923 075d A2010000 		.4byte	.LVL17
 1924 0761 700A0000 		.4byte	0xa70
 1925 0765 79070000 		.4byte	0x779
 1926 0769 1F       		.uleb128 0x1f
 1927 076a 01       		.uleb128 0x1
 1928 076b 50       		.byte	0x50
 1929 076c 05       		.uleb128 0x5
 1930 076d 03       		.byte	0x3
 1931 076e 00000000 		.4byte	.LC0
 1932 0772 1F       		.uleb128 0x1f
 1933 0773 01       		.uleb128 0x1
 1934 0774 51       		.byte	0x51
 1935 0775 02       		.uleb128 0x2
 1936 0776 08       		.byte	0x8
 1937 0777 62       		.byte	0x62
 1938 0778 00       		.byte	0
 1939 0779 1E       		.uleb128 0x1e
 1940 077a B2010000 		.4byte	.LVL18
 1941 077e 700A0000 		.4byte	0xa70
 1942 0782 96070000 		.4byte	0x796
 1943 0786 1F       		.uleb128 0x1f
 1944 0787 01       		.uleb128 0x1
 1945 0788 50       		.byte	0x50
ARM GAS  C:\Users\cypress\AppData\Local\Temp\ccD9LaTb.s 			page 60


 1946 0789 05       		.uleb128 0x5
 1947 078a 03       		.byte	0x3
 1948 078b 00000000 		.4byte	.LC0
 1949 078f 1F       		.uleb128 0x1f
 1950 0790 01       		.uleb128 0x1
 1951 0791 51       		.byte	0x51
 1952 0792 02       		.uleb128 0x2
 1953 0793 08       		.byte	0x8
 1954 0794 63       		.byte	0x63
 1955 0795 00       		.byte	0
 1956 0796 1E       		.uleb128 0x1e
 1957 0797 CA010000 		.4byte	.LVL19
 1958 079b 700A0000 		.4byte	0xa70
 1959 079f B3070000 		.4byte	0x7b3
 1960 07a3 1F       		.uleb128 0x1f
 1961 07a4 01       		.uleb128 0x1
 1962 07a5 50       		.byte	0x50
 1963 07a6 05       		.uleb128 0x5
 1964 07a7 03       		.byte	0x3
 1965 07a8 00000000 		.4byte	.LC0
 1966 07ac 1F       		.uleb128 0x1f
 1967 07ad 01       		.uleb128 0x1
 1968 07ae 51       		.byte	0x51
 1969 07af 02       		.uleb128 0x2
 1970 07b0 08       		.byte	0x8
 1971 07b1 64       		.byte	0x64
 1972 07b2 00       		.byte	0
 1973 07b3 1E       		.uleb128 0x1e
 1974 07b4 E2010000 		.4byte	.LVL20
 1975 07b8 700A0000 		.4byte	0xa70
 1976 07bc D0070000 		.4byte	0x7d0
 1977 07c0 1F       		.uleb128 0x1f
 1978 07c1 01       		.uleb128 0x1
 1979 07c2 50       		.byte	0x50
 1980 07c3 05       		.uleb128 0x5
 1981 07c4 03       		.byte	0x3
 1982 07c5 00000000 		.4byte	.LC0
 1983 07c9 1F       		.uleb128 0x1f
 1984 07ca 01       		.uleb128 0x1
 1985 07cb 51       		.byte	0x51
 1986 07cc 02       		.uleb128 0x2
 1987 07cd 08       		.byte	0x8
 1988 07ce 65       		.byte	0x65
 1989 07cf 00       		.byte	0
 1990 07d0 20       		.uleb128 0x20
 1991 07d1 F2010000 		.4byte	.LVL21
 1992 07d5 700A0000 		.4byte	0xa70
 1993 07d9 1F       		.uleb128 0x1f
 1994 07da 01       		.uleb128 0x1
 1995 07db 50       		.byte	0x50
 1996 07dc 05       		.uleb128 0x5
 1997 07dd 03       		.byte	0x3
 1998 07de 00000000 		.4byte	.LC0
 1999 07e2 1F       		.uleb128 0x1f
 2000 07e3 01       		.uleb128 0x1
 2001 07e4 51       		.byte	0x51
 2002 07e5 02       		.uleb128 0x2
ARM GAS  C:\Users\cypress\AppData\Local\Temp\ccD9LaTb.s 			page 61


 2003 07e6 08       		.byte	0x8
 2004 07e7 66       		.byte	0x66
 2005 07e8 00       		.byte	0
 2006 07e9 00       		.byte	0
 2007 07ea 18       		.uleb128 0x18
 2008 07eb 04       		.byte	0x4
 2009 07ec F0070000 		.4byte	0x7f0
 2010 07f0 06       		.uleb128 0x6
 2011 07f1 0A050000 		.4byte	0x50a
 2012 07f5 21       		.uleb128 0x21
 2013 07f6 A1070000 		.4byte	.LASF111
 2014 07fa 01       		.byte	0x1
 2015 07fb 8F       		.byte	0x8f
 2016 07fc 00000000 		.4byte	.LFB88
 2017 0800 10000000 		.4byte	.LFE88-.LFB88
 2018 0804 01       		.uleb128 0x1
 2019 0805 9C       		.byte	0x9c
 2020 0806 18080000 		.4byte	0x818
 2021 080a 22       		.uleb128 0x22
 2022 080b C0050000 		.4byte	.LASF97
 2023 080f 01       		.byte	0x1
 2024 0810 8F       		.byte	0x8f
 2025 0811 04050000 		.4byte	0x504
 2026 0815 01       		.uleb128 0x1
 2027 0816 50       		.byte	0x50
 2028 0817 00       		.byte	0
 2029 0818 1B       		.uleb128 0x1b
 2030 0819 ED020000 		.4byte	.LASF106
 2031 081d 01       		.byte	0x1
 2032 081e AE       		.byte	0xae
 2033 081f 9E030000 		.4byte	0x39e
 2034 0823 00000000 		.4byte	.LFB89
 2035 0827 A4000000 		.4byte	.LFE89-.LFB89
 2036 082b 01       		.uleb128 0x1
 2037 082c 9C       		.byte	0x9c
 2038 082d 87080000 		.4byte	0x887
 2039 0831 1C       		.uleb128 0x1c
 2040 0832 49030000 		.4byte	.LASF107
 2041 0836 01       		.byte	0x1
 2042 0837 AE       		.byte	0xae
 2043 0838 87080000 		.4byte	0x887
 2044 083c BD000000 		.4byte	.LLST3
 2045 0840 1C       		.uleb128 0x1c
 2046 0841 91050000 		.4byte	.LASF108
 2047 0845 01       		.byte	0x1
 2048 0846 AE       		.byte	0xae
 2049 0847 8C000000 		.4byte	0x8c
 2050 084b 41010000 		.4byte	.LLST4
 2051 084f 1C       		.uleb128 0x1c
 2052 0850 5E030000 		.4byte	.LASF109
 2053 0854 01       		.byte	0x1
 2054 0855 AE       		.byte	0xae
 2055 0856 8D080000 		.4byte	0x88d
 2056 085a 93010000 		.4byte	.LLST5
 2057 085e 1D       		.uleb128 0x1d
 2058 085f 00000000 		.4byte	.LASF110
 2059 0863 01       		.byte	0x1
ARM GAS  C:\Users\cypress\AppData\Local\Temp\ccD9LaTb.s 			page 62


 2060 0864 B0       		.byte	0xb0
 2061 0865 9E030000 		.4byte	0x39e
 2062 0869 D5010000 		.4byte	.LLST6
 2063 086d 20       		.uleb128 0x20
 2064 086e 30000000 		.4byte	.LVL35
 2065 0872 700A0000 		.4byte	0xa70
 2066 0876 1F       		.uleb128 0x1f
 2067 0877 01       		.uleb128 0x1
 2068 0878 50       		.byte	0x50
 2069 0879 05       		.uleb128 0x5
 2070 087a 03       		.byte	0x3
 2071 087b 00000000 		.4byte	.LC0
 2072 087f 1F       		.uleb128 0x1f
 2073 0880 01       		.uleb128 0x1
 2074 0881 51       		.byte	0x51
 2075 0882 02       		.uleb128 0x2
 2076 0883 08       		.byte	0x8
 2077 0884 B4       		.byte	0xb4
 2078 0885 00       		.byte	0
 2079 0886 00       		.byte	0
 2080 0887 18       		.uleb128 0x18
 2081 0888 04       		.byte	0x4
 2082 0889 57020000 		.4byte	0x257
 2083 088d 18       		.uleb128 0x18
 2084 088e 04       		.byte	0x4
 2085 088f 93080000 		.4byte	0x893
 2086 0893 06       		.uleb128 0x6
 2087 0894 68050000 		.4byte	0x568
 2088 0898 21       		.uleb128 0x21
 2089 0899 1D030000 		.4byte	.LASF112
 2090 089d 01       		.byte	0x1
 2091 089e D2       		.byte	0xd2
 2092 089f 00000000 		.4byte	.LFB90
 2093 08a3 5C000000 		.4byte	.LFE90-.LFB90
 2094 08a7 01       		.uleb128 0x1
 2095 08a8 9C       		.byte	0x9c
 2096 08a9 E5080000 		.4byte	0x8e5
 2097 08ad 1C       		.uleb128 0x1c
 2098 08ae 49030000 		.4byte	.LASF107
 2099 08b2 01       		.byte	0x1
 2100 08b3 D2       		.byte	0xd2
 2101 08b4 87080000 		.4byte	0x887
 2102 08b8 14020000 		.4byte	.LLST7
 2103 08bc 1C       		.uleb128 0x1c
 2104 08bd 91050000 		.4byte	.LASF108
 2105 08c1 01       		.byte	0x1
 2106 08c2 D2       		.byte	0xd2
 2107 08c3 8C000000 		.4byte	0x8c
 2108 08c7 40020000 		.4byte	.LLST8
 2109 08cb 20       		.uleb128 0x20
 2110 08cc 1E000000 		.4byte	.LVL52
 2111 08d0 700A0000 		.4byte	0xa70
 2112 08d4 1F       		.uleb128 0x1f
 2113 08d5 01       		.uleb128 0x1
 2114 08d6 50       		.byte	0x50
 2115 08d7 05       		.uleb128 0x5
 2116 08d8 03       		.byte	0x3
ARM GAS  C:\Users\cypress\AppData\Local\Temp\ccD9LaTb.s 			page 63


 2117 08d9 00000000 		.4byte	.LC0
 2118 08dd 1F       		.uleb128 0x1f
 2119 08de 01       		.uleb128 0x1
 2120 08df 51       		.byte	0x51
 2121 08e0 02       		.uleb128 0x2
 2122 08e1 08       		.byte	0x8
 2123 08e2 D4       		.byte	0xd4
 2124 08e3 00       		.byte	0
 2125 08e4 00       		.byte	0
 2126 08e5 21       		.uleb128 0x21
 2127 08e6 EC000000 		.4byte	.LASF113
 2128 08ea 01       		.byte	0x1
 2129 08eb EF       		.byte	0xef
 2130 08ec 00000000 		.4byte	.LFB91
 2131 08f0 34000000 		.4byte	.LFE91-.LFB91
 2132 08f4 01       		.uleb128 0x1
 2133 08f5 9C       		.byte	0x9c
 2134 08f6 32090000 		.4byte	0x932
 2135 08fa 1C       		.uleb128 0x1c
 2136 08fb C0050000 		.4byte	.LASF97
 2137 08ff 01       		.byte	0x1
 2138 0900 EF       		.byte	0xef
 2139 0901 04050000 		.4byte	0x504
 2140 0905 6C020000 		.4byte	.LLST9
 2141 0909 1C       		.uleb128 0x1c
 2142 090a 82050000 		.4byte	.LASF95
 2143 090e 01       		.byte	0x1
 2144 090f EF       		.byte	0xef
 2145 0910 92050000 		.4byte	0x592
 2146 0914 98020000 		.4byte	.LLST10
 2147 0918 20       		.uleb128 0x20
 2148 0919 12000000 		.4byte	.LVL58
 2149 091d 700A0000 		.4byte	0xa70
 2150 0921 1F       		.uleb128 0x1f
 2151 0922 01       		.uleb128 0x1
 2152 0923 50       		.byte	0x50
 2153 0924 05       		.uleb128 0x5
 2154 0925 03       		.byte	0x3
 2155 0926 00000000 		.4byte	.LC0
 2156 092a 1F       		.uleb128 0x1f
 2157 092b 01       		.uleb128 0x1
 2158 092c 51       		.byte	0x51
 2159 092d 02       		.uleb128 0x2
 2160 092e 08       		.byte	0x8
 2161 092f F1       		.byte	0xf1
 2162 0930 00       		.byte	0
 2163 0931 00       		.byte	0
 2164 0932 23       		.uleb128 0x23
 2165 0933 74040000 		.4byte	.LASF114
 2166 0937 01       		.byte	0x1
 2167 0938 1A01     		.2byte	0x11a
 2168 093a 04050000 		.4byte	0x504
 2169 093e 00000000 		.4byte	.LFB92
 2170 0942 38000000 		.4byte	.LFE92-.LFB92
 2171 0946 01       		.uleb128 0x1
 2172 0947 9C       		.byte	0x9c
 2173 0948 87090000 		.4byte	0x987
ARM GAS  C:\Users\cypress\AppData\Local\Temp\ccD9LaTb.s 			page 64


 2174 094c 24       		.uleb128 0x24
 2175 094d C0050000 		.4byte	.LASF97
 2176 0951 01       		.byte	0x1
 2177 0952 1A01     		.2byte	0x11a
 2178 0954 92050000 		.4byte	0x592
 2179 0958 C4020000 		.4byte	.LLST11
 2180 095c 25       		.uleb128 0x25
 2181 095d 00000000 		.4byte	.LASF110
 2182 0961 01       		.byte	0x1
 2183 0962 1C01     		.2byte	0x11c
 2184 0964 04050000 		.4byte	0x504
 2185 0968 F0020000 		.4byte	.LLST12
 2186 096c 20       		.uleb128 0x20
 2187 096d 10000000 		.4byte	.LVL64
 2188 0971 700A0000 		.4byte	0xa70
 2189 0975 1F       		.uleb128 0x1f
 2190 0976 01       		.uleb128 0x1
 2191 0977 50       		.byte	0x50
 2192 0978 05       		.uleb128 0x5
 2193 0979 03       		.byte	0x3
 2194 097a 00000000 		.4byte	.LC0
 2195 097e 1F       		.uleb128 0x1f
 2196 097f 01       		.uleb128 0x1
 2197 0980 51       		.byte	0x51
 2198 0981 03       		.uleb128 0x3
 2199 0982 0A       		.byte	0xa
 2200 0983 1E01     		.2byte	0x11e
 2201 0985 00       		.byte	0
 2202 0986 00       		.byte	0
 2203 0987 26       		.uleb128 0x26
 2204 0988 ED010000 		.4byte	.LASF115
 2205 098c 01       		.byte	0x1
 2206 098d 4E01     		.2byte	0x14e
 2207 098f 00000000 		.4byte	.LFB93
 2208 0993 60000000 		.4byte	.LFE93-.LFB93
 2209 0997 01       		.uleb128 0x1
 2210 0998 9C       		.byte	0x9c
 2211 0999 700A0000 		.4byte	0xa70
 2212 099d 24       		.uleb128 0x24
 2213 099e C0050000 		.4byte	.LASF97
 2214 09a2 01       		.byte	0x1
 2215 09a3 4E01     		.2byte	0x14e
 2216 09a5 04050000 		.4byte	0x504
 2217 09a9 54030000 		.4byte	.LLST13
 2218 09ad 24       		.uleb128 0x24
 2219 09ae 51050000 		.4byte	.LASF86
 2220 09b2 01       		.byte	0x1
 2221 09b3 4E01     		.2byte	0x14e
 2222 09b5 A2020000 		.4byte	0x2a2
 2223 09b9 80030000 		.4byte	.LLST14
 2224 09bd 27       		.uleb128 0x27
 2225 09be 74050000 		.4byte	0x574
 2226 09c2 22000000 		.4byte	.LBB5
 2227 09c6 10000000 		.4byte	.LBE5-.LBB5
 2228 09ca 01       		.byte	0x1
 2229 09cb 5301     		.2byte	0x153
 2230 09cd F5090000 		.4byte	0x9f5
ARM GAS  C:\Users\cypress\AppData\Local\Temp\ccD9LaTb.s 			page 65


 2231 09d1 28       		.uleb128 0x28
 2232 09d2 85050000 		.4byte	0x585
 2233 09d6 A1030000 		.4byte	.LLST15
 2234 09da 20       		.uleb128 0x20
 2235 09db 2E000000 		.4byte	.LVL78
 2236 09df 700A0000 		.4byte	0xa70
 2237 09e3 1F       		.uleb128 0x1f
 2238 09e4 01       		.uleb128 0x1
 2239 09e5 50       		.byte	0x50
 2240 09e6 05       		.uleb128 0x5
 2241 09e7 03       		.byte	0x3
 2242 09e8 3C000000 		.4byte	.LC7
 2243 09ec 1F       		.uleb128 0x1f
 2244 09ed 01       		.uleb128 0x1
 2245 09ee 51       		.byte	0x51
 2246 09ef 03       		.uleb128 0x3
 2247 09f0 0A       		.byte	0xa
 2248 09f1 E503     		.2byte	0x3e5
 2249 09f3 00       		.byte	0
 2250 09f4 00       		.byte	0
 2251 09f5 29       		.uleb128 0x29
 2252 09f6 36000000 		.4byte	.LBB7
 2253 09fa 1A000000 		.4byte	.LBE7-.LBB7
 2254 09fe 370A0000 		.4byte	0xa37
 2255 0a02 25       		.uleb128 0x25
 2256 0a03 0B030000 		.4byte	.LASF116
 2257 0a07 01       		.byte	0x1
 2258 0a08 5601     		.2byte	0x156
 2259 0a0a 04050000 		.4byte	0x504
 2260 0a0e B4030000 		.4byte	.LLST16
 2261 0a12 1E       		.uleb128 0x1e
 2262 0a13 3C000000 		.4byte	.LVL80
 2263 0a17 32090000 		.4byte	0x932
 2264 0a1b 260A0000 		.4byte	0xa26
 2265 0a1f 1F       		.uleb128 0x1f
 2266 0a20 01       		.uleb128 0x1
 2267 0a21 50       		.byte	0x50
 2268 0a22 02       		.uleb128 0x2
 2269 0a23 74       		.byte	0x74
 2270 0a24 00       		.sleb128 0
 2271 0a25 00       		.byte	0
 2272 0a26 20       		.uleb128 0x20
 2273 0a27 50000000 		.4byte	.LVL83
 2274 0a2b E5080000 		.4byte	0x8e5
 2275 0a2f 1F       		.uleb128 0x1f
 2276 0a30 01       		.uleb128 0x1
 2277 0a31 50       		.byte	0x50
 2278 0a32 02       		.uleb128 0x2
 2279 0a33 74       		.byte	0x74
 2280 0a34 00       		.sleb128 0
 2281 0a35 00       		.byte	0
 2282 0a36 00       		.byte	0
 2283 0a37 1E       		.uleb128 0x1e
 2284 0a38 14000000 		.4byte	.LVL76
 2285 0a3c 700A0000 		.4byte	0xa70
 2286 0a40 550A0000 		.4byte	0xa55
 2287 0a44 1F       		.uleb128 0x1f
ARM GAS  C:\Users\cypress\AppData\Local\Temp\ccD9LaTb.s 			page 66


 2288 0a45 01       		.uleb128 0x1
 2289 0a46 50       		.byte	0x50
 2290 0a47 05       		.uleb128 0x5
 2291 0a48 03       		.byte	0x3
 2292 0a49 00000000 		.4byte	.LC0
 2293 0a4d 1F       		.uleb128 0x1f
 2294 0a4e 01       		.uleb128 0x1
 2295 0a4f 51       		.byte	0x51
 2296 0a50 03       		.uleb128 0x3
 2297 0a51 0A       		.byte	0xa
 2298 0a52 5001     		.2byte	0x150
 2299 0a54 00       		.byte	0
 2300 0a55 20       		.uleb128 0x20
 2301 0a56 22000000 		.4byte	.LVL77
 2302 0a5a 700A0000 		.4byte	0xa70
 2303 0a5e 1F       		.uleb128 0x1f
 2304 0a5f 01       		.uleb128 0x1
 2305 0a60 50       		.byte	0x50
 2306 0a61 05       		.uleb128 0x5
 2307 0a62 03       		.byte	0x3
 2308 0a63 00000000 		.4byte	.LC0
 2309 0a67 1F       		.uleb128 0x1f
 2310 0a68 01       		.uleb128 0x1
 2311 0a69 51       		.byte	0x51
 2312 0a6a 03       		.uleb128 0x3
 2313 0a6b 0A       		.byte	0xa
 2314 0a6c 5101     		.2byte	0x151
 2315 0a6e 00       		.byte	0
 2316 0a6f 00       		.byte	0
 2317 0a70 2A       		.uleb128 0x2a
 2318 0a71 B8060000 		.4byte	.LASF121
 2319 0a75 B8060000 		.4byte	.LASF121
 2320 0a79 06       		.byte	0x6
 2321 0a7a 2A03     		.2byte	0x32a
 2322 0a7c 00       		.byte	0
 2323              		.section	.debug_abbrev,"",%progbits
 2324              	.Ldebug_abbrev0:
 2325 0000 01       		.uleb128 0x1
 2326 0001 11       		.uleb128 0x11
 2327 0002 01       		.byte	0x1
 2328 0003 25       		.uleb128 0x25
 2329 0004 0E       		.uleb128 0xe
 2330 0005 13       		.uleb128 0x13
 2331 0006 0B       		.uleb128 0xb
 2332 0007 03       		.uleb128 0x3
 2333 0008 0E       		.uleb128 0xe
 2334 0009 1B       		.uleb128 0x1b
 2335 000a 0E       		.uleb128 0xe
 2336 000b 55       		.uleb128 0x55
 2337 000c 17       		.uleb128 0x17
 2338 000d 11       		.uleb128 0x11
 2339 000e 01       		.uleb128 0x1
 2340 000f 10       		.uleb128 0x10
 2341 0010 17       		.uleb128 0x17
 2342 0011 00       		.byte	0
 2343 0012 00       		.byte	0
 2344 0013 02       		.uleb128 0x2
ARM GAS  C:\Users\cypress\AppData\Local\Temp\ccD9LaTb.s 			page 67


 2345 0014 24       		.uleb128 0x24
 2346 0015 00       		.byte	0
 2347 0016 0B       		.uleb128 0xb
 2348 0017 0B       		.uleb128 0xb
 2349 0018 3E       		.uleb128 0x3e
 2350 0019 0B       		.uleb128 0xb
 2351 001a 03       		.uleb128 0x3
 2352 001b 0E       		.uleb128 0xe
 2353 001c 00       		.byte	0
 2354 001d 00       		.byte	0
 2355 001e 03       		.uleb128 0x3
 2356 001f 16       		.uleb128 0x16
 2357 0020 00       		.byte	0
 2358 0021 03       		.uleb128 0x3
 2359 0022 0E       		.uleb128 0xe
 2360 0023 3A       		.uleb128 0x3a
 2361 0024 0B       		.uleb128 0xb
 2362 0025 3B       		.uleb128 0x3b
 2363 0026 0B       		.uleb128 0xb
 2364 0027 49       		.uleb128 0x49
 2365 0028 13       		.uleb128 0x13
 2366 0029 00       		.byte	0
 2367 002a 00       		.byte	0
 2368 002b 04       		.uleb128 0x4
 2369 002c 24       		.uleb128 0x24
 2370 002d 00       		.byte	0
 2371 002e 0B       		.uleb128 0xb
 2372 002f 0B       		.uleb128 0xb
 2373 0030 3E       		.uleb128 0x3e
 2374 0031 0B       		.uleb128 0xb
 2375 0032 03       		.uleb128 0x3
 2376 0033 08       		.uleb128 0x8
 2377 0034 00       		.byte	0
 2378 0035 00       		.byte	0
 2379 0036 05       		.uleb128 0x5
 2380 0037 35       		.uleb128 0x35
 2381 0038 00       		.byte	0
 2382 0039 49       		.uleb128 0x49
 2383 003a 13       		.uleb128 0x13
 2384 003b 00       		.byte	0
 2385 003c 00       		.byte	0
 2386 003d 06       		.uleb128 0x6
 2387 003e 26       		.uleb128 0x26
 2388 003f 00       		.byte	0
 2389 0040 49       		.uleb128 0x49
 2390 0041 13       		.uleb128 0x13
 2391 0042 00       		.byte	0
 2392 0043 00       		.byte	0
 2393 0044 07       		.uleb128 0x7
 2394 0045 01       		.uleb128 0x1
 2395 0046 01       		.byte	0x1
 2396 0047 49       		.uleb128 0x49
 2397 0048 13       		.uleb128 0x13
 2398 0049 01       		.uleb128 0x1
 2399 004a 13       		.uleb128 0x13
 2400 004b 00       		.byte	0
 2401 004c 00       		.byte	0
ARM GAS  C:\Users\cypress\AppData\Local\Temp\ccD9LaTb.s 			page 68


 2402 004d 08       		.uleb128 0x8
 2403 004e 21       		.uleb128 0x21
 2404 004f 00       		.byte	0
 2405 0050 49       		.uleb128 0x49
 2406 0051 13       		.uleb128 0x13
 2407 0052 2F       		.uleb128 0x2f
 2408 0053 0B       		.uleb128 0xb
 2409 0054 00       		.byte	0
 2410 0055 00       		.byte	0
 2411 0056 09       		.uleb128 0x9
 2412 0057 13       		.uleb128 0x13
 2413 0058 01       		.byte	0x1
 2414 0059 0B       		.uleb128 0xb
 2415 005a 0B       		.uleb128 0xb
 2416 005b 3A       		.uleb128 0x3a
 2417 005c 0B       		.uleb128 0xb
 2418 005d 3B       		.uleb128 0x3b
 2419 005e 0B       		.uleb128 0xb
 2420 005f 01       		.uleb128 0x1
 2421 0060 13       		.uleb128 0x13
 2422 0061 00       		.byte	0
 2423 0062 00       		.byte	0
 2424 0063 0A       		.uleb128 0xa
 2425 0064 0D       		.uleb128 0xd
 2426 0065 00       		.byte	0
 2427 0066 03       		.uleb128 0x3
 2428 0067 0E       		.uleb128 0xe
 2429 0068 3A       		.uleb128 0x3a
 2430 0069 0B       		.uleb128 0xb
 2431 006a 3B       		.uleb128 0x3b
 2432 006b 0B       		.uleb128 0xb
 2433 006c 49       		.uleb128 0x49
 2434 006d 13       		.uleb128 0x13
 2435 006e 38       		.uleb128 0x38
 2436 006f 0B       		.uleb128 0xb
 2437 0070 00       		.byte	0
 2438 0071 00       		.byte	0
 2439 0072 0B       		.uleb128 0xb
 2440 0073 13       		.uleb128 0x13
 2441 0074 01       		.byte	0x1
 2442 0075 0B       		.uleb128 0xb
 2443 0076 05       		.uleb128 0x5
 2444 0077 3A       		.uleb128 0x3a
 2445 0078 0B       		.uleb128 0xb
 2446 0079 3B       		.uleb128 0x3b
 2447 007a 0B       		.uleb128 0xb
 2448 007b 01       		.uleb128 0x1
 2449 007c 13       		.uleb128 0x13
 2450 007d 00       		.byte	0
 2451 007e 00       		.byte	0
 2452 007f 0C       		.uleb128 0xc
 2453 0080 0D       		.uleb128 0xd
 2454 0081 00       		.byte	0
 2455 0082 03       		.uleb128 0x3
 2456 0083 08       		.uleb128 0x8
 2457 0084 3A       		.uleb128 0x3a
 2458 0085 0B       		.uleb128 0xb
ARM GAS  C:\Users\cypress\AppData\Local\Temp\ccD9LaTb.s 			page 69


 2459 0086 3B       		.uleb128 0x3b
 2460 0087 0B       		.uleb128 0xb
 2461 0088 49       		.uleb128 0x49
 2462 0089 13       		.uleb128 0x13
 2463 008a 38       		.uleb128 0x38
 2464 008b 0B       		.uleb128 0xb
 2465 008c 00       		.byte	0
 2466 008d 00       		.byte	0
 2467 008e 0D       		.uleb128 0xd
 2468 008f 0D       		.uleb128 0xd
 2469 0090 00       		.byte	0
 2470 0091 03       		.uleb128 0x3
 2471 0092 0E       		.uleb128 0xe
 2472 0093 3A       		.uleb128 0x3a
 2473 0094 0B       		.uleb128 0xb
 2474 0095 3B       		.uleb128 0x3b
 2475 0096 0B       		.uleb128 0xb
 2476 0097 49       		.uleb128 0x49
 2477 0098 13       		.uleb128 0x13
 2478 0099 38       		.uleb128 0x38
 2479 009a 05       		.uleb128 0x5
 2480 009b 00       		.byte	0
 2481 009c 00       		.byte	0
 2482 009d 0E       		.uleb128 0xe
 2483 009e 21       		.uleb128 0x21
 2484 009f 00       		.byte	0
 2485 00a0 49       		.uleb128 0x49
 2486 00a1 13       		.uleb128 0x13
 2487 00a2 2F       		.uleb128 0x2f
 2488 00a3 05       		.uleb128 0x5
 2489 00a4 00       		.byte	0
 2490 00a5 00       		.byte	0
 2491 00a6 0F       		.uleb128 0xf
 2492 00a7 16       		.uleb128 0x16
 2493 00a8 00       		.byte	0
 2494 00a9 03       		.uleb128 0x3
 2495 00aa 0E       		.uleb128 0xe
 2496 00ab 3A       		.uleb128 0x3a
 2497 00ac 0B       		.uleb128 0xb
 2498 00ad 3B       		.uleb128 0x3b
 2499 00ae 05       		.uleb128 0x5
 2500 00af 49       		.uleb128 0x49
 2501 00b0 13       		.uleb128 0x13
 2502 00b1 00       		.byte	0
 2503 00b2 00       		.byte	0
 2504 00b3 10       		.uleb128 0x10
 2505 00b4 04       		.uleb128 0x4
 2506 00b5 01       		.byte	0x1
 2507 00b6 0B       		.uleb128 0xb
 2508 00b7 0B       		.uleb128 0xb
 2509 00b8 49       		.uleb128 0x49
 2510 00b9 13       		.uleb128 0x13
 2511 00ba 3A       		.uleb128 0x3a
 2512 00bb 0B       		.uleb128 0xb
 2513 00bc 3B       		.uleb128 0x3b
 2514 00bd 0B       		.uleb128 0xb
 2515 00be 01       		.uleb128 0x1
ARM GAS  C:\Users\cypress\AppData\Local\Temp\ccD9LaTb.s 			page 70


 2516 00bf 13       		.uleb128 0x13
 2517 00c0 00       		.byte	0
 2518 00c1 00       		.byte	0
 2519 00c2 11       		.uleb128 0x11
 2520 00c3 28       		.uleb128 0x28
 2521 00c4 00       		.byte	0
 2522 00c5 03       		.uleb128 0x3
 2523 00c6 0E       		.uleb128 0xe
 2524 00c7 1C       		.uleb128 0x1c
 2525 00c8 0B       		.uleb128 0xb
 2526 00c9 00       		.byte	0
 2527 00ca 00       		.byte	0
 2528 00cb 12       		.uleb128 0x12
 2529 00cc 04       		.uleb128 0x4
 2530 00cd 01       		.byte	0x1
 2531 00ce 0B       		.uleb128 0xb
 2532 00cf 0B       		.uleb128 0xb
 2533 00d0 49       		.uleb128 0x49
 2534 00d1 13       		.uleb128 0x13
 2535 00d2 3A       		.uleb128 0x3a
 2536 00d3 0B       		.uleb128 0xb
 2537 00d4 3B       		.uleb128 0x3b
 2538 00d5 05       		.uleb128 0x5
 2539 00d6 01       		.uleb128 0x1
 2540 00d7 13       		.uleb128 0x13
 2541 00d8 00       		.byte	0
 2542 00d9 00       		.byte	0
 2543 00da 13       		.uleb128 0x13
 2544 00db 28       		.uleb128 0x28
 2545 00dc 00       		.byte	0
 2546 00dd 03       		.uleb128 0x3
 2547 00de 0E       		.uleb128 0xe
 2548 00df 1C       		.uleb128 0x1c
 2549 00e0 06       		.uleb128 0x6
 2550 00e1 00       		.byte	0
 2551 00e2 00       		.byte	0
 2552 00e3 14       		.uleb128 0x14
 2553 00e4 13       		.uleb128 0x13
 2554 00e5 01       		.byte	0x1
 2555 00e6 0B       		.uleb128 0xb
 2556 00e7 0B       		.uleb128 0xb
 2557 00e8 3A       		.uleb128 0x3a
 2558 00e9 0B       		.uleb128 0xb
 2559 00ea 3B       		.uleb128 0x3b
 2560 00eb 05       		.uleb128 0x5
 2561 00ec 01       		.uleb128 0x1
 2562 00ed 13       		.uleb128 0x13
 2563 00ee 00       		.byte	0
 2564 00ef 00       		.byte	0
 2565 00f0 15       		.uleb128 0x15
 2566 00f1 0D       		.uleb128 0xd
 2567 00f2 00       		.byte	0
 2568 00f3 03       		.uleb128 0x3
 2569 00f4 08       		.uleb128 0x8
 2570 00f5 3A       		.uleb128 0x3a
 2571 00f6 0B       		.uleb128 0xb
 2572 00f7 3B       		.uleb128 0x3b
ARM GAS  C:\Users\cypress\AppData\Local\Temp\ccD9LaTb.s 			page 71


 2573 00f8 05       		.uleb128 0x5
 2574 00f9 49       		.uleb128 0x49
 2575 00fa 13       		.uleb128 0x13
 2576 00fb 38       		.uleb128 0x38
 2577 00fc 0B       		.uleb128 0xb
 2578 00fd 00       		.byte	0
 2579 00fe 00       		.byte	0
 2580 00ff 16       		.uleb128 0x16
 2581 0100 0D       		.uleb128 0xd
 2582 0101 00       		.byte	0
 2583 0102 03       		.uleb128 0x3
 2584 0103 0E       		.uleb128 0xe
 2585 0104 3A       		.uleb128 0x3a
 2586 0105 0B       		.uleb128 0xb
 2587 0106 3B       		.uleb128 0x3b
 2588 0107 05       		.uleb128 0x5
 2589 0108 49       		.uleb128 0x49
 2590 0109 13       		.uleb128 0x13
 2591 010a 38       		.uleb128 0x38
 2592 010b 0B       		.uleb128 0xb
 2593 010c 00       		.byte	0
 2594 010d 00       		.byte	0
 2595 010e 17       		.uleb128 0x17
 2596 010f 0F       		.uleb128 0xf
 2597 0110 00       		.byte	0
 2598 0111 0B       		.uleb128 0xb
 2599 0112 0B       		.uleb128 0xb
 2600 0113 00       		.byte	0
 2601 0114 00       		.byte	0
 2602 0115 18       		.uleb128 0x18
 2603 0116 0F       		.uleb128 0xf
 2604 0117 00       		.byte	0
 2605 0118 0B       		.uleb128 0xb
 2606 0119 0B       		.uleb128 0xb
 2607 011a 49       		.uleb128 0x49
 2608 011b 13       		.uleb128 0x13
 2609 011c 00       		.byte	0
 2610 011d 00       		.byte	0
 2611 011e 19       		.uleb128 0x19
 2612 011f 2E       		.uleb128 0x2e
 2613 0120 01       		.byte	0x1
 2614 0121 03       		.uleb128 0x3
 2615 0122 0E       		.uleb128 0xe
 2616 0123 3A       		.uleb128 0x3a
 2617 0124 0B       		.uleb128 0xb
 2618 0125 3B       		.uleb128 0x3b
 2619 0126 05       		.uleb128 0x5
 2620 0127 27       		.uleb128 0x27
 2621 0128 19       		.uleb128 0x19
 2622 0129 49       		.uleb128 0x49
 2623 012a 13       		.uleb128 0x13
 2624 012b 20       		.uleb128 0x20
 2625 012c 0B       		.uleb128 0xb
 2626 012d 01       		.uleb128 0x1
 2627 012e 13       		.uleb128 0x13
 2628 012f 00       		.byte	0
 2629 0130 00       		.byte	0
ARM GAS  C:\Users\cypress\AppData\Local\Temp\ccD9LaTb.s 			page 72


 2630 0131 1A       		.uleb128 0x1a
 2631 0132 05       		.uleb128 0x5
 2632 0133 00       		.byte	0
 2633 0134 03       		.uleb128 0x3
 2634 0135 0E       		.uleb128 0xe
 2635 0136 3A       		.uleb128 0x3a
 2636 0137 0B       		.uleb128 0xb
 2637 0138 3B       		.uleb128 0x3b
 2638 0139 05       		.uleb128 0x5
 2639 013a 49       		.uleb128 0x49
 2640 013b 13       		.uleb128 0x13
 2641 013c 00       		.byte	0
 2642 013d 00       		.byte	0
 2643 013e 1B       		.uleb128 0x1b
 2644 013f 2E       		.uleb128 0x2e
 2645 0140 01       		.byte	0x1
 2646 0141 3F       		.uleb128 0x3f
 2647 0142 19       		.uleb128 0x19
 2648 0143 03       		.uleb128 0x3
 2649 0144 0E       		.uleb128 0xe
 2650 0145 3A       		.uleb128 0x3a
 2651 0146 0B       		.uleb128 0xb
 2652 0147 3B       		.uleb128 0x3b
 2653 0148 0B       		.uleb128 0xb
 2654 0149 27       		.uleb128 0x27
 2655 014a 19       		.uleb128 0x19
 2656 014b 49       		.uleb128 0x49
 2657 014c 13       		.uleb128 0x13
 2658 014d 11       		.uleb128 0x11
 2659 014e 01       		.uleb128 0x1
 2660 014f 12       		.uleb128 0x12
 2661 0150 06       		.uleb128 0x6
 2662 0151 40       		.uleb128 0x40
 2663 0152 18       		.uleb128 0x18
 2664 0153 9742     		.uleb128 0x2117
 2665 0155 19       		.uleb128 0x19
 2666 0156 01       		.uleb128 0x1
 2667 0157 13       		.uleb128 0x13
 2668 0158 00       		.byte	0
 2669 0159 00       		.byte	0
 2670 015a 1C       		.uleb128 0x1c
 2671 015b 05       		.uleb128 0x5
 2672 015c 00       		.byte	0
 2673 015d 03       		.uleb128 0x3
 2674 015e 0E       		.uleb128 0xe
 2675 015f 3A       		.uleb128 0x3a
 2676 0160 0B       		.uleb128 0xb
 2677 0161 3B       		.uleb128 0x3b
 2678 0162 0B       		.uleb128 0xb
 2679 0163 49       		.uleb128 0x49
 2680 0164 13       		.uleb128 0x13
 2681 0165 02       		.uleb128 0x2
 2682 0166 17       		.uleb128 0x17
 2683 0167 00       		.byte	0
 2684 0168 00       		.byte	0
 2685 0169 1D       		.uleb128 0x1d
 2686 016a 34       		.uleb128 0x34
ARM GAS  C:\Users\cypress\AppData\Local\Temp\ccD9LaTb.s 			page 73


 2687 016b 00       		.byte	0
 2688 016c 03       		.uleb128 0x3
 2689 016d 0E       		.uleb128 0xe
 2690 016e 3A       		.uleb128 0x3a
 2691 016f 0B       		.uleb128 0xb
 2692 0170 3B       		.uleb128 0x3b
 2693 0171 0B       		.uleb128 0xb
 2694 0172 49       		.uleb128 0x49
 2695 0173 13       		.uleb128 0x13
 2696 0174 02       		.uleb128 0x2
 2697 0175 17       		.uleb128 0x17
 2698 0176 00       		.byte	0
 2699 0177 00       		.byte	0
 2700 0178 1E       		.uleb128 0x1e
 2701 0179 898201   		.uleb128 0x4109
 2702 017c 01       		.byte	0x1
 2703 017d 11       		.uleb128 0x11
 2704 017e 01       		.uleb128 0x1
 2705 017f 31       		.uleb128 0x31
 2706 0180 13       		.uleb128 0x13
 2707 0181 01       		.uleb128 0x1
 2708 0182 13       		.uleb128 0x13
 2709 0183 00       		.byte	0
 2710 0184 00       		.byte	0
 2711 0185 1F       		.uleb128 0x1f
 2712 0186 8A8201   		.uleb128 0x410a
 2713 0189 00       		.byte	0
 2714 018a 02       		.uleb128 0x2
 2715 018b 18       		.uleb128 0x18
 2716 018c 9142     		.uleb128 0x2111
 2717 018e 18       		.uleb128 0x18
 2718 018f 00       		.byte	0
 2719 0190 00       		.byte	0
 2720 0191 20       		.uleb128 0x20
 2721 0192 898201   		.uleb128 0x4109
 2722 0195 01       		.byte	0x1
 2723 0196 11       		.uleb128 0x11
 2724 0197 01       		.uleb128 0x1
 2725 0198 31       		.uleb128 0x31
 2726 0199 13       		.uleb128 0x13
 2727 019a 00       		.byte	0
 2728 019b 00       		.byte	0
 2729 019c 21       		.uleb128 0x21
 2730 019d 2E       		.uleb128 0x2e
 2731 019e 01       		.byte	0x1
 2732 019f 3F       		.uleb128 0x3f
 2733 01a0 19       		.uleb128 0x19
 2734 01a1 03       		.uleb128 0x3
 2735 01a2 0E       		.uleb128 0xe
 2736 01a3 3A       		.uleb128 0x3a
 2737 01a4 0B       		.uleb128 0xb
 2738 01a5 3B       		.uleb128 0x3b
 2739 01a6 0B       		.uleb128 0xb
 2740 01a7 27       		.uleb128 0x27
 2741 01a8 19       		.uleb128 0x19
 2742 01a9 11       		.uleb128 0x11
 2743 01aa 01       		.uleb128 0x1
ARM GAS  C:\Users\cypress\AppData\Local\Temp\ccD9LaTb.s 			page 74


 2744 01ab 12       		.uleb128 0x12
 2745 01ac 06       		.uleb128 0x6
 2746 01ad 40       		.uleb128 0x40
 2747 01ae 18       		.uleb128 0x18
 2748 01af 9742     		.uleb128 0x2117
 2749 01b1 19       		.uleb128 0x19
 2750 01b2 01       		.uleb128 0x1
 2751 01b3 13       		.uleb128 0x13
 2752 01b4 00       		.byte	0
 2753 01b5 00       		.byte	0
 2754 01b6 22       		.uleb128 0x22
 2755 01b7 05       		.uleb128 0x5
 2756 01b8 00       		.byte	0
 2757 01b9 03       		.uleb128 0x3
 2758 01ba 0E       		.uleb128 0xe
 2759 01bb 3A       		.uleb128 0x3a
 2760 01bc 0B       		.uleb128 0xb
 2761 01bd 3B       		.uleb128 0x3b
 2762 01be 0B       		.uleb128 0xb
 2763 01bf 49       		.uleb128 0x49
 2764 01c0 13       		.uleb128 0x13
 2765 01c1 02       		.uleb128 0x2
 2766 01c2 18       		.uleb128 0x18
 2767 01c3 00       		.byte	0
 2768 01c4 00       		.byte	0
 2769 01c5 23       		.uleb128 0x23
 2770 01c6 2E       		.uleb128 0x2e
 2771 01c7 01       		.byte	0x1
 2772 01c8 3F       		.uleb128 0x3f
 2773 01c9 19       		.uleb128 0x19
 2774 01ca 03       		.uleb128 0x3
 2775 01cb 0E       		.uleb128 0xe
 2776 01cc 3A       		.uleb128 0x3a
 2777 01cd 0B       		.uleb128 0xb
 2778 01ce 3B       		.uleb128 0x3b
 2779 01cf 05       		.uleb128 0x5
 2780 01d0 27       		.uleb128 0x27
 2781 01d1 19       		.uleb128 0x19
 2782 01d2 49       		.uleb128 0x49
 2783 01d3 13       		.uleb128 0x13
 2784 01d4 11       		.uleb128 0x11
 2785 01d5 01       		.uleb128 0x1
 2786 01d6 12       		.uleb128 0x12
 2787 01d7 06       		.uleb128 0x6
 2788 01d8 40       		.uleb128 0x40
 2789 01d9 18       		.uleb128 0x18
 2790 01da 9742     		.uleb128 0x2117
 2791 01dc 19       		.uleb128 0x19
 2792 01dd 01       		.uleb128 0x1
 2793 01de 13       		.uleb128 0x13
 2794 01df 00       		.byte	0
 2795 01e0 00       		.byte	0
 2796 01e1 24       		.uleb128 0x24
 2797 01e2 05       		.uleb128 0x5
 2798 01e3 00       		.byte	0
 2799 01e4 03       		.uleb128 0x3
 2800 01e5 0E       		.uleb128 0xe
ARM GAS  C:\Users\cypress\AppData\Local\Temp\ccD9LaTb.s 			page 75


 2801 01e6 3A       		.uleb128 0x3a
 2802 01e7 0B       		.uleb128 0xb
 2803 01e8 3B       		.uleb128 0x3b
 2804 01e9 05       		.uleb128 0x5
 2805 01ea 49       		.uleb128 0x49
 2806 01eb 13       		.uleb128 0x13
 2807 01ec 02       		.uleb128 0x2
 2808 01ed 17       		.uleb128 0x17
 2809 01ee 00       		.byte	0
 2810 01ef 00       		.byte	0
 2811 01f0 25       		.uleb128 0x25
 2812 01f1 34       		.uleb128 0x34
 2813 01f2 00       		.byte	0
 2814 01f3 03       		.uleb128 0x3
 2815 01f4 0E       		.uleb128 0xe
 2816 01f5 3A       		.uleb128 0x3a
 2817 01f6 0B       		.uleb128 0xb
 2818 01f7 3B       		.uleb128 0x3b
 2819 01f8 05       		.uleb128 0x5
 2820 01f9 49       		.uleb128 0x49
 2821 01fa 13       		.uleb128 0x13
 2822 01fb 02       		.uleb128 0x2
 2823 01fc 17       		.uleb128 0x17
 2824 01fd 00       		.byte	0
 2825 01fe 00       		.byte	0
 2826 01ff 26       		.uleb128 0x26
 2827 0200 2E       		.uleb128 0x2e
 2828 0201 01       		.byte	0x1
 2829 0202 3F       		.uleb128 0x3f
 2830 0203 19       		.uleb128 0x19
 2831 0204 03       		.uleb128 0x3
 2832 0205 0E       		.uleb128 0xe
 2833 0206 3A       		.uleb128 0x3a
 2834 0207 0B       		.uleb128 0xb
 2835 0208 3B       		.uleb128 0x3b
 2836 0209 05       		.uleb128 0x5
 2837 020a 27       		.uleb128 0x27
 2838 020b 19       		.uleb128 0x19
 2839 020c 11       		.uleb128 0x11
 2840 020d 01       		.uleb128 0x1
 2841 020e 12       		.uleb128 0x12
 2842 020f 06       		.uleb128 0x6
 2843 0210 40       		.uleb128 0x40
 2844 0211 18       		.uleb128 0x18
 2845 0212 9742     		.uleb128 0x2117
 2846 0214 19       		.uleb128 0x19
 2847 0215 01       		.uleb128 0x1
 2848 0216 13       		.uleb128 0x13
 2849 0217 00       		.byte	0
 2850 0218 00       		.byte	0
 2851 0219 27       		.uleb128 0x27
 2852 021a 1D       		.uleb128 0x1d
 2853 021b 01       		.byte	0x1
 2854 021c 31       		.uleb128 0x31
 2855 021d 13       		.uleb128 0x13
 2856 021e 11       		.uleb128 0x11
 2857 021f 01       		.uleb128 0x1
ARM GAS  C:\Users\cypress\AppData\Local\Temp\ccD9LaTb.s 			page 76


 2858 0220 12       		.uleb128 0x12
 2859 0221 06       		.uleb128 0x6
 2860 0222 58       		.uleb128 0x58
 2861 0223 0B       		.uleb128 0xb
 2862 0224 59       		.uleb128 0x59
 2863 0225 05       		.uleb128 0x5
 2864 0226 01       		.uleb128 0x1
 2865 0227 13       		.uleb128 0x13
 2866 0228 00       		.byte	0
 2867 0229 00       		.byte	0
 2868 022a 28       		.uleb128 0x28
 2869 022b 05       		.uleb128 0x5
 2870 022c 00       		.byte	0
 2871 022d 31       		.uleb128 0x31
 2872 022e 13       		.uleb128 0x13
 2873 022f 02       		.uleb128 0x2
 2874 0230 17       		.uleb128 0x17
 2875 0231 00       		.byte	0
 2876 0232 00       		.byte	0
 2877 0233 29       		.uleb128 0x29
 2878 0234 0B       		.uleb128 0xb
 2879 0235 01       		.byte	0x1
 2880 0236 11       		.uleb128 0x11
 2881 0237 01       		.uleb128 0x1
 2882 0238 12       		.uleb128 0x12
 2883 0239 06       		.uleb128 0x6
 2884 023a 01       		.uleb128 0x1
 2885 023b 13       		.uleb128 0x13
 2886 023c 00       		.byte	0
 2887 023d 00       		.byte	0
 2888 023e 2A       		.uleb128 0x2a
 2889 023f 2E       		.uleb128 0x2e
 2890 0240 00       		.byte	0
 2891 0241 3F       		.uleb128 0x3f
 2892 0242 19       		.uleb128 0x19
 2893 0243 3C       		.uleb128 0x3c
 2894 0244 19       		.uleb128 0x19
 2895 0245 6E       		.uleb128 0x6e
 2896 0246 0E       		.uleb128 0xe
 2897 0247 03       		.uleb128 0x3
 2898 0248 0E       		.uleb128 0xe
 2899 0249 3A       		.uleb128 0x3a
 2900 024a 0B       		.uleb128 0xb
 2901 024b 3B       		.uleb128 0x3b
 2902 024c 05       		.uleb128 0x5
 2903 024d 00       		.byte	0
 2904 024e 00       		.byte	0
 2905 024f 00       		.byte	0
 2906              		.section	.debug_loc,"",%progbits
 2907              	.Ldebug_loc0:
 2908              	.LLST0:
 2909 0000 00000000 		.4byte	.LVL0
 2910 0004 1C000000 		.4byte	.LVL3
 2911 0008 0100     		.2byte	0x1
 2912 000a 50       		.byte	0x50
 2913 000b 1C000000 		.4byte	.LVL3
 2914 000f 2C020000 		.4byte	.LVL22
ARM GAS  C:\Users\cypress\AppData\Local\Temp\ccD9LaTb.s 			page 77


 2915 0013 0100     		.2byte	0x1
 2916 0015 55       		.byte	0x55
 2917 0016 2C020000 		.4byte	.LVL22
 2918 001a 2E020000 		.4byte	.LVL23
 2919 001e 0100     		.2byte	0x1
 2920 0020 50       		.byte	0x50
 2921 0021 2E020000 		.4byte	.LVL23
 2922 0025 30020000 		.4byte	.LVL24
 2923 0029 0100     		.2byte	0x1
 2924 002b 55       		.byte	0x55
 2925 002c 30020000 		.4byte	.LVL24
 2926 0030 32020000 		.4byte	.LVL25
 2927 0034 0100     		.2byte	0x1
 2928 0036 50       		.byte	0x50
 2929 0037 32020000 		.4byte	.LVL25
 2930 003b 36020000 		.4byte	.LVL29
 2931 003f 0100     		.2byte	0x1
 2932 0041 55       		.byte	0x55
 2933 0042 36020000 		.4byte	.LVL29
 2934 0046 48020000 		.4byte	.LFE87
 2935 004a 0400     		.2byte	0x4
 2936 004c F3       		.byte	0xf3
 2937 004d 01       		.uleb128 0x1
 2938 004e 50       		.byte	0x50
 2939 004f 9F       		.byte	0x9f
 2940 0050 00000000 		.4byte	0
 2941 0054 00000000 		.4byte	0
 2942              	.LLST1:
 2943 0058 00000000 		.4byte	.LVL0
 2944 005c 1A000000 		.4byte	.LVL2
 2945 0060 0100     		.2byte	0x1
 2946 0062 51       		.byte	0x51
 2947 0063 1A000000 		.4byte	.LVL2
 2948 0067 2C020000 		.4byte	.LVL22
 2949 006b 0100     		.2byte	0x1
 2950 006d 54       		.byte	0x54
 2951 006e 2C020000 		.4byte	.LVL22
 2952 0072 34020000 		.4byte	.LVL26
 2953 0076 0100     		.2byte	0x1
 2954 0078 51       		.byte	0x51
 2955 0079 34020000 		.4byte	.LVL26
 2956 007d 36020000 		.4byte	.LVL28
 2957 0081 0100     		.2byte	0x1
 2958 0083 54       		.byte	0x54
 2959 0084 36020000 		.4byte	.LVL28
 2960 0088 48020000 		.4byte	.LFE87
 2961 008c 0400     		.2byte	0x4
 2962 008e F3       		.byte	0xf3
 2963 008f 01       		.uleb128 0x1
 2964 0090 51       		.byte	0x51
 2965 0091 9F       		.byte	0x9f
 2966 0092 00000000 		.4byte	0
 2967 0096 00000000 		.4byte	0
 2968              	.LLST2:
 2969 009a 06000000 		.4byte	.LVL1
 2970 009e 36020000 		.4byte	.LVL27
 2971 00a2 0600     		.2byte	0x6
ARM GAS  C:\Users\cypress\AppData\Local\Temp\ccD9LaTb.s 			page 78


 2972 00a4 0C       		.byte	0xc
 2973 00a5 01004E00 		.4byte	0x4e0001
 2974 00a9 9F       		.byte	0x9f
 2975 00aa 36020000 		.4byte	.LVL27
 2976 00ae 48020000 		.4byte	.LFE87
 2977 00b2 0100     		.2byte	0x1
 2978 00b4 50       		.byte	0x50
 2979 00b5 00000000 		.4byte	0
 2980 00b9 00000000 		.4byte	0
 2981              	.LLST3:
 2982 00bd 00000000 		.4byte	.LVL31
 2983 00c1 2C000000 		.4byte	.LVL34
 2984 00c5 0100     		.2byte	0x1
 2985 00c7 50       		.byte	0x50
 2986 00c8 2C000000 		.4byte	.LVL34
 2987 00cc 80000000 		.4byte	.LVL39
 2988 00d0 0100     		.2byte	0x1
 2989 00d2 54       		.byte	0x54
 2990 00d3 80000000 		.4byte	.LVL39
 2991 00d7 82000000 		.4byte	.LVL40
 2992 00db 0100     		.2byte	0x1
 2993 00dd 50       		.byte	0x50
 2994 00de 82000000 		.4byte	.LVL40
 2995 00e2 84000000 		.4byte	.LVL41
 2996 00e6 0100     		.2byte	0x1
 2997 00e8 54       		.byte	0x54
 2998 00e9 84000000 		.4byte	.LVL41
 2999 00ed 86000000 		.4byte	.LVL42
 3000 00f1 0100     		.2byte	0x1
 3001 00f3 50       		.byte	0x50
 3002 00f4 86000000 		.4byte	.LVL42
 3003 00f8 88000000 		.4byte	.LVL43
 3004 00fc 0100     		.2byte	0x1
 3005 00fe 54       		.byte	0x54
 3006 00ff 88000000 		.4byte	.LVL43
 3007 0103 8A000000 		.4byte	.LVL44
 3008 0107 0100     		.2byte	0x1
 3009 0109 50       		.byte	0x50
 3010 010a 8A000000 		.4byte	.LVL44
 3011 010e 8C000000 		.4byte	.LVL45
 3012 0112 0100     		.2byte	0x1
 3013 0114 54       		.byte	0x54
 3014 0115 8C000000 		.4byte	.LVL45
 3015 0119 8E000000 		.4byte	.LVL46
 3016 011d 0100     		.2byte	0x1
 3017 011f 50       		.byte	0x50
 3018 0120 8E000000 		.4byte	.LVL46
 3019 0124 8E000000 		.4byte	.LVL47
 3020 0128 0100     		.2byte	0x1
 3021 012a 54       		.byte	0x54
 3022 012b 8E000000 		.4byte	.LVL47
 3023 012f A4000000 		.4byte	.LFE89
 3024 0133 0400     		.2byte	0x4
 3025 0135 F3       		.byte	0xf3
 3026 0136 01       		.uleb128 0x1
 3027 0137 50       		.byte	0x50
 3028 0138 9F       		.byte	0x9f
ARM GAS  C:\Users\cypress\AppData\Local\Temp\ccD9LaTb.s 			page 79


 3029 0139 00000000 		.4byte	0
 3030 013d 00000000 		.4byte	0
 3031              	.LLST4:
 3032 0141 00000000 		.4byte	.LVL31
 3033 0145 2A000000 		.4byte	.LVL33
 3034 0149 0100     		.2byte	0x1
 3035 014b 51       		.byte	0x51
 3036 014c 2A000000 		.4byte	.LVL33
 3037 0150 78000000 		.4byte	.LVL36
 3038 0154 0100     		.2byte	0x1
 3039 0156 55       		.byte	0x55
 3040 0157 78000000 		.4byte	.LVL36
 3041 015b 7A000000 		.4byte	.LVL37
 3042 015f 0300     		.2byte	0x3
 3043 0161 75       		.byte	0x75
 3044 0162 40       		.sleb128 -64
 3045 0163 9F       		.byte	0x9f
 3046 0164 7A000000 		.4byte	.LVL37
 3047 0168 80000000 		.4byte	.LVL39
 3048 016c 0400     		.2byte	0x4
 3049 016e F3       		.byte	0xf3
 3050 016f 01       		.uleb128 0x1
 3051 0170 51       		.byte	0x51
 3052 0171 9F       		.byte	0x9f
 3053 0172 80000000 		.4byte	.LVL39
 3054 0176 8E000000 		.4byte	.LVL46
 3055 017a 0100     		.2byte	0x1
 3056 017c 51       		.byte	0x51
 3057 017d 8E000000 		.4byte	.LVL46
 3058 0181 A4000000 		.4byte	.LFE89
 3059 0185 0400     		.2byte	0x4
 3060 0187 F3       		.byte	0xf3
 3061 0188 01       		.uleb128 0x1
 3062 0189 51       		.byte	0x51
 3063 018a 9F       		.byte	0x9f
 3064 018b 00000000 		.4byte	0
 3065 018f 00000000 		.4byte	0
 3066              	.LLST5:
 3067 0193 00000000 		.4byte	.LVL31
 3068 0197 2F000000 		.4byte	.LVL35-1
 3069 019b 0100     		.2byte	0x1
 3070 019d 52       		.byte	0x52
 3071 019e 2F000000 		.4byte	.LVL35-1
 3072 01a2 80000000 		.4byte	.LVL39
 3073 01a6 0100     		.2byte	0x1
 3074 01a8 56       		.byte	0x56
 3075 01a9 80000000 		.4byte	.LVL39
 3076 01ad 8E000000 		.4byte	.LVL46
 3077 01b1 0100     		.2byte	0x1
 3078 01b3 52       		.byte	0x52
 3079 01b4 8E000000 		.4byte	.LVL46
 3080 01b8 8E000000 		.4byte	.LVL48
 3081 01bc 0100     		.2byte	0x1
 3082 01be 56       		.byte	0x56
 3083 01bf 8E000000 		.4byte	.LVL48
 3084 01c3 A4000000 		.4byte	.LFE89
 3085 01c7 0400     		.2byte	0x4
ARM GAS  C:\Users\cypress\AppData\Local\Temp\ccD9LaTb.s 			page 80


 3086 01c9 F3       		.byte	0xf3
 3087 01ca 01       		.uleb128 0x1
 3088 01cb 52       		.byte	0x52
 3089 01cc 9F       		.byte	0x9f
 3090 01cd 00000000 		.4byte	0
 3091 01d1 00000000 		.4byte	0
 3092              	.LLST6:
 3093 01d5 08000000 		.4byte	.LVL32
 3094 01d9 7C000000 		.4byte	.LVL38
 3095 01dd 0600     		.2byte	0x6
 3096 01df 0C       		.byte	0xc
 3097 01e0 01004E00 		.4byte	0x4e0001
 3098 01e4 9F       		.byte	0x9f
 3099 01e5 7C000000 		.4byte	.LVL38
 3100 01e9 80000000 		.4byte	.LVL39
 3101 01ed 0200     		.2byte	0x2
 3102 01ef 30       		.byte	0x30
 3103 01f0 9F       		.byte	0x9f
 3104 01f1 80000000 		.4byte	.LVL39
 3105 01f5 8E000000 		.4byte	.LVL46
 3106 01f9 0600     		.2byte	0x6
 3107 01fb 0C       		.byte	0xc
 3108 01fc 01004E00 		.4byte	0x4e0001
 3109 0200 9F       		.byte	0x9f
 3110 0201 8E000000 		.4byte	.LVL46
 3111 0205 A4000000 		.4byte	.LFE89
 3112 0209 0100     		.2byte	0x1
 3113 020b 50       		.byte	0x50
 3114 020c 00000000 		.4byte	0
 3115 0210 00000000 		.4byte	0
 3116              	.LLST7:
 3117 0214 00000000 		.4byte	.LVL49
 3118 0218 1A000000 		.4byte	.LVL51
 3119 021c 0100     		.2byte	0x1
 3120 021e 50       		.byte	0x50
 3121 021f 1A000000 		.4byte	.LVL51
 3122 0223 40000000 		.4byte	.LVL54
 3123 0227 0100     		.2byte	0x1
 3124 0229 55       		.byte	0x55
 3125 022a 40000000 		.4byte	.LVL54
 3126 022e 5C000000 		.4byte	.LFE90
 3127 0232 0400     		.2byte	0x4
 3128 0234 F3       		.byte	0xf3
 3129 0235 01       		.uleb128 0x1
 3130 0236 50       		.byte	0x50
 3131 0237 9F       		.byte	0x9f
 3132 0238 00000000 		.4byte	0
 3133 023c 00000000 		.4byte	0
 3134              	.LLST8:
 3135 0240 00000000 		.4byte	.LVL49
 3136 0244 18000000 		.4byte	.LVL50
 3137 0248 0100     		.2byte	0x1
 3138 024a 51       		.byte	0x51
 3139 024b 18000000 		.4byte	.LVL50
 3140 024f 40000000 		.4byte	.LVL53
 3141 0253 0100     		.2byte	0x1
 3142 0255 54       		.byte	0x54
ARM GAS  C:\Users\cypress\AppData\Local\Temp\ccD9LaTb.s 			page 81


 3143 0256 40000000 		.4byte	.LVL53
 3144 025a 5C000000 		.4byte	.LFE90
 3145 025e 0400     		.2byte	0x4
 3146 0260 F3       		.byte	0xf3
 3147 0261 01       		.uleb128 0x1
 3148 0262 51       		.byte	0x51
 3149 0263 9F       		.byte	0x9f
 3150 0264 00000000 		.4byte	0
 3151 0268 00000000 		.4byte	0
 3152              	.LLST9:
 3153 026c 00000000 		.4byte	.LVL55
 3154 0270 0E000000 		.4byte	.LVL57
 3155 0274 0100     		.2byte	0x1
 3156 0276 50       		.byte	0x50
 3157 0277 0E000000 		.4byte	.LVL57
 3158 027b 2E000000 		.4byte	.LVL59
 3159 027f 0100     		.2byte	0x1
 3160 0281 54       		.byte	0x54
 3161 0282 2E000000 		.4byte	.LVL59
 3162 0286 34000000 		.4byte	.LFE91
 3163 028a 0400     		.2byte	0x4
 3164 028c F3       		.byte	0xf3
 3165 028d 01       		.uleb128 0x1
 3166 028e 50       		.byte	0x50
 3167 028f 9F       		.byte	0x9f
 3168 0290 00000000 		.4byte	0
 3169 0294 00000000 		.4byte	0
 3170              	.LLST10:
 3171 0298 00000000 		.4byte	.LVL55
 3172 029c 0C000000 		.4byte	.LVL56
 3173 02a0 0100     		.2byte	0x1
 3174 02a2 51       		.byte	0x51
 3175 02a3 0C000000 		.4byte	.LVL56
 3176 02a7 2E000000 		.4byte	.LVL60
 3177 02ab 0100     		.2byte	0x1
 3178 02ad 55       		.byte	0x55
 3179 02ae 2E000000 		.4byte	.LVL60
 3180 02b2 34000000 		.4byte	.LFE91
 3181 02b6 0400     		.2byte	0x4
 3182 02b8 F3       		.byte	0xf3
 3183 02b9 01       		.uleb128 0x1
 3184 02ba 51       		.byte	0x51
 3185 02bb 9F       		.byte	0x9f
 3186 02bc 00000000 		.4byte	0
 3187 02c0 00000000 		.4byte	0
 3188              	.LLST11:
 3189 02c4 00000000 		.4byte	.LVL61
 3190 02c8 0C000000 		.4byte	.LVL63
 3191 02cc 0100     		.2byte	0x1
 3192 02ce 50       		.byte	0x50
 3193 02cf 0C000000 		.4byte	.LVL63
 3194 02d3 30000000 		.4byte	.LVL72
 3195 02d7 0100     		.2byte	0x1
 3196 02d9 54       		.byte	0x54
 3197 02da 30000000 		.4byte	.LVL72
 3198 02de 38000000 		.4byte	.LFE92
 3199 02e2 0400     		.2byte	0x4
ARM GAS  C:\Users\cypress\AppData\Local\Temp\ccD9LaTb.s 			page 82


 3200 02e4 F3       		.byte	0xf3
 3201 02e5 01       		.uleb128 0x1
 3202 02e6 50       		.byte	0x50
 3203 02e7 9F       		.byte	0x9f
 3204 02e8 00000000 		.4byte	0
 3205 02ec 00000000 		.4byte	0
 3206              	.LLST12:
 3207 02f0 04000000 		.4byte	.LVL62
 3208 02f4 24000000 		.4byte	.LVL65
 3209 02f8 0200     		.2byte	0x2
 3210 02fa 30       		.byte	0x30
 3211 02fb 9F       		.byte	0x9f
 3212 02fc 24000000 		.4byte	.LVL65
 3213 0300 26000000 		.4byte	.LVL66
 3214 0304 0100     		.2byte	0x1
 3215 0306 50       		.byte	0x50
 3216 0307 26000000 		.4byte	.LVL66
 3217 030b 28000000 		.4byte	.LVL67
 3218 030f 0200     		.2byte	0x2
 3219 0311 30       		.byte	0x30
 3220 0312 9F       		.byte	0x9f
 3221 0313 28000000 		.4byte	.LVL67
 3222 0317 2A000000 		.4byte	.LVL68
 3223 031b 0100     		.2byte	0x1
 3224 031d 50       		.byte	0x50
 3225 031e 2A000000 		.4byte	.LVL68
 3226 0322 2C000000 		.4byte	.LVL69
 3227 0326 0200     		.2byte	0x2
 3228 0328 30       		.byte	0x30
 3229 0329 9F       		.byte	0x9f
 3230 032a 2C000000 		.4byte	.LVL69
 3231 032e 2E000000 		.4byte	.LVL70
 3232 0332 0100     		.2byte	0x1
 3233 0334 50       		.byte	0x50
 3234 0335 2E000000 		.4byte	.LVL70
 3235 0339 30000000 		.4byte	.LVL71
 3236 033d 0200     		.2byte	0x2
 3237 033f 30       		.byte	0x30
 3238 0340 9F       		.byte	0x9f
 3239 0341 30000000 		.4byte	.LVL71
 3240 0345 38000000 		.4byte	.LFE92
 3241 0349 0100     		.2byte	0x1
 3242 034b 50       		.byte	0x50
 3243 034c 00000000 		.4byte	0
 3244 0350 00000000 		.4byte	0
 3245              	.LLST13:
 3246 0354 00000000 		.4byte	.LVL73
 3247 0358 10000000 		.4byte	.LVL75
 3248 035c 0100     		.2byte	0x1
 3249 035e 50       		.byte	0x50
 3250 035f 10000000 		.4byte	.LVL75
 3251 0363 50000000 		.4byte	.LVL84
 3252 0367 0100     		.2byte	0x1
 3253 0369 54       		.byte	0x54
 3254 036a 50000000 		.4byte	.LVL84
 3255 036e 60000000 		.4byte	.LFE93
 3256 0372 0400     		.2byte	0x4
ARM GAS  C:\Users\cypress\AppData\Local\Temp\ccD9LaTb.s 			page 83


 3257 0374 F3       		.byte	0xf3
 3258 0375 01       		.uleb128 0x1
 3259 0376 50       		.byte	0x50
 3260 0377 9F       		.byte	0x9f
 3261 0378 00000000 		.4byte	0
 3262 037c 00000000 		.4byte	0
 3263              	.LLST14:
 3264 0380 00000000 		.4byte	.LVL73
 3265 0384 0C000000 		.4byte	.LVL74
 3266 0388 0100     		.2byte	0x1
 3267 038a 51       		.byte	0x51
 3268 038b 0C000000 		.4byte	.LVL74
 3269 038f 60000000 		.4byte	.LFE93
 3270 0393 0400     		.2byte	0x4
 3271 0395 F3       		.byte	0xf3
 3272 0396 01       		.uleb128 0x1
 3273 0397 51       		.byte	0x51
 3274 0398 9F       		.byte	0x9f
 3275 0399 00000000 		.4byte	0
 3276 039d 00000000 		.4byte	0
 3277              	.LLST15:
 3278 03a1 22000000 		.4byte	.LVL77
 3279 03a5 32000000 		.4byte	.LVL79
 3280 03a9 0100     		.2byte	0x1
 3281 03ab 54       		.byte	0x54
 3282 03ac 00000000 		.4byte	0
 3283 03b0 00000000 		.4byte	0
 3284              	.LLST16:
 3285 03b4 3E000000 		.4byte	.LVL81
 3286 03b8 4C000000 		.4byte	.LVL82
 3287 03bc 0100     		.2byte	0x1
 3288 03be 50       		.byte	0x50
 3289 03bf 4C000000 		.4byte	.LVL82
 3290 03c3 4F000000 		.4byte	.LVL83-1
 3291 03c7 0100     		.2byte	0x1
 3292 03c9 51       		.byte	0x51
 3293 03ca 00000000 		.4byte	0
 3294 03ce 00000000 		.4byte	0
 3295              		.section	.debug_aranges,"",%progbits
 3296 0000 4C000000 		.4byte	0x4c
 3297 0004 0200     		.2byte	0x2
 3298 0006 00000000 		.4byte	.Ldebug_info0
 3299 000a 04       		.byte	0x4
 3300 000b 00       		.byte	0
 3301 000c 0000     		.2byte	0
 3302 000e 0000     		.2byte	0
 3303 0010 00000000 		.4byte	.LFB87
 3304 0014 48020000 		.4byte	.LFE87-.LFB87
 3305 0018 00000000 		.4byte	.LFB88
 3306 001c 10000000 		.4byte	.LFE88-.LFB88
 3307 0020 00000000 		.4byte	.LFB89
 3308 0024 A4000000 		.4byte	.LFE89-.LFB89
 3309 0028 00000000 		.4byte	.LFB90
 3310 002c 5C000000 		.4byte	.LFE90-.LFB90
 3311 0030 00000000 		.4byte	.LFB91
 3312 0034 34000000 		.4byte	.LFE91-.LFB91
 3313 0038 00000000 		.4byte	.LFB92
ARM GAS  C:\Users\cypress\AppData\Local\Temp\ccD9LaTb.s 			page 84


 3314 003c 38000000 		.4byte	.LFE92-.LFB92
 3315 0040 00000000 		.4byte	.LFB93
 3316 0044 60000000 		.4byte	.LFE93-.LFB93
 3317 0048 00000000 		.4byte	0
 3318 004c 00000000 		.4byte	0
 3319              		.section	.debug_ranges,"",%progbits
 3320              	.Ldebug_ranges0:
 3321 0000 00000000 		.4byte	.LFB87
 3322 0004 48020000 		.4byte	.LFE87
 3323 0008 00000000 		.4byte	.LFB88
 3324 000c 10000000 		.4byte	.LFE88
 3325 0010 00000000 		.4byte	.LFB89
 3326 0014 A4000000 		.4byte	.LFE89
 3327 0018 00000000 		.4byte	.LFB90
 3328 001c 5C000000 		.4byte	.LFE90
 3329 0020 00000000 		.4byte	.LFB91
 3330 0024 34000000 		.4byte	.LFE91
 3331 0028 00000000 		.4byte	.LFB92
 3332 002c 38000000 		.4byte	.LFE92
 3333 0030 00000000 		.4byte	.LFB93
 3334 0034 60000000 		.4byte	.LFE93
 3335 0038 00000000 		.4byte	0
 3336 003c 00000000 		.4byte	0
 3337              		.section	.debug_line,"",%progbits
 3338              	.Ldebug_line0:
 3339 0000 BF030000 		.section	.debug_str,"MS",%progbits,1
 3339      0200D701 
 3339      00000201 
 3339      FB0E0D00 
 3339      01010101 
 3340              	.LASF110:
 3341 0000 72657456 		.ascii	"retVal\000"
 3341      616C00
 3342              	.LASF105:
 3343 0007 43795F44 		.ascii	"Cy_DMA_Descriptor_Init\000"
 3343      4D415F44 
 3343      65736372 
 3343      6970746F 
 3343      725F496E 
 3344              	.LASF68:
 3345 001e 43595F44 		.ascii	"CY_DMA_CHANNEL_ENABLED\000"
 3345      4D415F43 
 3345      48414E4E 
 3345      454C5F45 
 3345      4E41424C 
 3346              	.LASF55:
 3347 0035 63795F65 		.ascii	"cy_en_dma_trigger_type_t\000"
 3347      6E5F646D 
 3347      615F7472 
 3347      69676765 
 3347      725F7479 
 3348              	.LASF103:
 3349 004e 63795F73 		.ascii	"cy_stc_dma_channel_config_t\000"
 3349      74635F64 
 3349      6D615F63 
 3349      68616E6E 
 3349      656C5F63 
ARM GAS  C:\Users\cypress\AppData\Local\Temp\ccD9LaTb.s 			page 85


 3350              	.LASF9:
 3351 006a 6C6F6E67 		.ascii	"long long unsigned int\000"
 3351      206C6F6E 
 3351      6720756E 
 3351      7369676E 
 3351      65642069 
 3352              	.LASF80:
 3353 0081 74726967 		.ascii	"triggerOutType\000"
 3353      6765724F 
 3353      75745479 
 3353      706500
 3354              	.LASF57:
 3355 0090 43595F44 		.ascii	"CY_DMA_HALFWORD\000"
 3355      4D415F48 
 3355      414C4657 
 3355      4F524400 
 3356              	.LASF39:
 3357 00a0 4143545F 		.ascii	"ACT_DST\000"
 3357      44535400 
 3358              	.LASF32:
 3359 00a8 4143545F 		.ascii	"ACT_DESCR_DST\000"
 3359      44455343 
 3359      525F4453 
 3359      5400
 3360              	.LASF8:
 3361 00b6 6C6F6E67 		.ascii	"long long int\000"
 3361      206C6F6E 
 3361      6720696E 
 3361      7400
 3362              	.LASF0:
 3363 00c4 7369676E 		.ascii	"signed char\000"
 3363      65642063 
 3363      68617200 
 3364              	.LASF90:
 3365 00d0 64737458 		.ascii	"dstXincrement\000"
 3365      696E6372 
 3365      656D656E 
 3365      7400
 3366              	.LASF79:
 3367 00de 696E7465 		.ascii	"interruptType\000"
 3367      72727570 
 3367      74547970 
 3367      6500
 3368              	.LASF113:
 3369 00ec 43795F44 		.ascii	"Cy_DMA_Descriptor_SetNextDescriptor\000"
 3369      4D415F44 
 3369      65736372 
 3369      6970746F 
 3369      725F5365 
 3370              	.LASF4:
 3371 0110 6C6F6E67 		.ascii	"long int\000"
 3371      20696E74 
 3371      00
 3372              	.LASF10:
 3373 0119 756E7369 		.ascii	"unsigned int\000"
 3373      676E6564 
 3373      20696E74 
ARM GAS  C:\Users\cypress\AppData\Local\Temp\ccD9LaTb.s 			page 86


 3373      00
 3374              	.LASF76:
 3375 0126 6E657874 		.ascii	"nextPtr\000"
 3375      50747200 
 3376              	.LASF84:
 3377 012e 73726354 		.ascii	"srcTransferSize\000"
 3377      72616E73 
 3377      66657253 
 3377      697A6500 
 3378              	.LASF100:
 3379 013e 656E6162 		.ascii	"enable\000"
 3379      6C6500
 3380              	.LASF30:
 3381 0145 4143545F 		.ascii	"ACT_DESCR_CTL\000"
 3381      44455343 
 3381      525F4354 
 3381      4C00
 3382              	.LASF46:
 3383 0153 646F7562 		.ascii	"double\000"
 3383      6C6500
 3384              	.LASF38:
 3385 015a 4143545F 		.ascii	"ACT_SRC\000"
 3385      53524300 
 3386              	.LASF61:
 3387 0162 43595F44 		.ascii	"CY_DMA_RETRIG_4CYC\000"
 3387      4D415F52 
 3387      45545249 
 3387      475F3443 
 3387      594300
 3388              	.LASF49:
 3389 0175 43595F44 		.ascii	"CY_DMA_2D_TRANSFER\000"
 3389      4D415F32 
 3389      445F5452 
 3389      414E5346 
 3389      455200
 3390              	.LASF6:
 3391 0188 5F5F7569 		.ascii	"__uint32_t\000"
 3391      6E743332 
 3391      5F7400
 3392              	.LASF69:
 3393 0193 43595F44 		.ascii	"CY_DMA_CHANNEL_DISABLED\000"
 3393      4D415F43 
 3393      48414E4E 
 3393      454C5F44 
 3393      49534142 
 3394              	.LASF51:
 3395 01ab 43595F44 		.ascii	"CY_DMA_1ELEMENT\000"
 3395      4D415F31 
 3395      454C454D 
 3395      454E5400 
 3396              	.LASF35:
 3397 01bb 4143545F 		.ascii	"ACT_DESCR_Y_CTL\000"
 3397      44455343 
 3397      525F595F 
 3397      43544C00 
 3398              	.LASF83:
 3399 01cb 64617461 		.ascii	"dataSize\000"
ARM GAS  C:\Users\cypress\AppData\Local\Temp\ccD9LaTb.s 			page 87


 3399      53697A65 
 3399      00
 3400              	.LASF42:
 3401 01d4 44575F54 		.ascii	"DW_Type\000"
 3401      79706500 
 3402              	.LASF17:
 3403 01dc 43485F49 		.ascii	"CH_IDX\000"
 3403      445800
 3404              	.LASF16:
 3405 01e3 43485F53 		.ascii	"CH_STATUS\000"
 3405      54415455 
 3405      5300
 3406              	.LASF115:
 3407 01ed 43795F44 		.ascii	"Cy_DMA_Descriptor_SetDescriptorType\000"
 3407      4D415F44 
 3407      65736372 
 3407      6970746F 
 3407      725F5365 
 3408              	.LASF52:
 3409 0211 43595F44 		.ascii	"CY_DMA_X_LOOP\000"
 3409      4D415F58 
 3409      5F4C4F4F 
 3409      5000
 3410              	.LASF43:
 3411 021f 63686172 		.ascii	"char_t\000"
 3411      5F7400
 3412              	.LASF31:
 3413 0226 4143545F 		.ascii	"ACT_DESCR_SRC\000"
 3413      44455343 
 3413      525F5352 
 3413      4300
 3414              	.LASF7:
 3415 0234 6C6F6E67 		.ascii	"long unsigned int\000"
 3415      20756E73 
 3415      69676E65 
 3415      6420696E 
 3415      7400
 3416              	.LASF21:
 3417 0246 494E5452 		.ascii	"INTR_MASK\000"
 3417      5F4D4153 
 3417      4B00
 3418              	.LASF60:
 3419 0250 43595F44 		.ascii	"CY_DMA_RETRIG_IM\000"
 3419      4D415F52 
 3419      45545249 
 3419      475F494D 
 3419      00
 3420              	.LASF18:
 3421 0261 43485F43 		.ascii	"CH_CURR_PTR\000"
 3421      5552525F 
 3421      50545200 
 3422              	.LASF67:
 3423 026d 63795F65 		.ascii	"cy_en_dma_transfer_size_t\000"
 3423      6E5F646D 
 3423      615F7472 
 3423      616E7366 
 3423      65725F73 
ARM GAS  C:\Users\cypress\AppData\Local\Temp\ccD9LaTb.s 			page 88


 3424              	.LASF88:
 3425 0287 64737441 		.ascii	"dstAddress\000"
 3425      64647265 
 3425      737300
 3426              	.LASF3:
 3427 0292 73686F72 		.ascii	"short unsigned int\000"
 3427      7420756E 
 3427      7369676E 
 3427      65642069 
 3427      6E7400
 3428              	.LASF65:
 3429 02a5 43595F44 		.ascii	"CY_DMA_TRANSFER_SIZE_DATA\000"
 3429      4D415F54 
 3429      52414E53 
 3429      4645525F 
 3429      53495A45 
 3430              	.LASF47:
 3431 02bf 43595F44 		.ascii	"CY_DMA_SINGLE_TRANSFER\000"
 3431      4D415F53 
 3431      494E474C 
 3431      455F5452 
 3431      414E5346 
 3432              	.LASF99:
 3433 02d6 7072696F 		.ascii	"priority\000"
 3433      72697479 
 3433      00
 3434              	.LASF82:
 3435 02df 74726967 		.ascii	"triggerInType\000"
 3435      67657249 
 3435      6E547970 
 3435      6500
 3436              	.LASF106:
 3437 02ed 43795F44 		.ascii	"Cy_DMA_Channel_Init\000"
 3437      4D415F43 
 3437      68616E6E 
 3437      656C5F49 
 3437      6E697400 
 3438              	.LASF78:
 3439 0301 72657472 		.ascii	"retrigger\000"
 3439      69676765 
 3439      7200
 3440              	.LASF116:
 3441 030b 6C6F634E 		.ascii	"locNextDescriptor\000"
 3441      65787444 
 3441      65736372 
 3441      6970746F 
 3441      7200
 3442              	.LASF112:
 3443 031d 43795F44 		.ascii	"Cy_DMA_Channel_DeInit\000"
 3443      4D415F43 
 3443      68616E6E 
 3443      656C5F44 
 3443      65496E69 
 3444              	.LASF53:
 3445 0333 43595F44 		.ascii	"CY_DMA_DESCR\000"
 3445      4D415F44 
 3445      45534352 
ARM GAS  C:\Users\cypress\AppData\Local\Temp\ccD9LaTb.s 			page 89


 3445      00
 3446              	.LASF20:
 3447 0340 494E5452 		.ascii	"INTR_SET\000"
 3447      5F534554 
 3447      00
 3448              	.LASF107:
 3449 0349 62617365 		.ascii	"base\000"
 3449      00
 3450              	.LASF85:
 3451 034e 64737454 		.ascii	"dstTransferSize\000"
 3451      72616E73 
 3451      66657253 
 3451      697A6500 
 3452              	.LASF109:
 3453 035e 6368616E 		.ascii	"channelConfig\000"
 3453      6E656C43 
 3453      6F6E6669 
 3453      6700
 3454              	.LASF14:
 3455 036c 73697A65 		.ascii	"sizetype\000"
 3455      74797065 
 3455      00
 3456              	.LASF36:
 3457 0375 4143545F 		.ascii	"ACT_DESCR_NEXT_PTR\000"
 3457      44455343 
 3457      525F4E45 
 3457      58545F50 
 3457      545200
 3458              	.LASF119:
 3459 0388 443A5C73 		.ascii	"D:\\student\\FeS-31\\Stepaniuk\\lab9\\lab9\\lab9.cy"
 3459      74756465 
 3459      6E745C46 
 3459      65532D33 
 3459      315C5374 
 3460 03b5 64736E00 		.ascii	"dsn\000"
 3461              	.LASF66:
 3462 03b9 43595F44 		.ascii	"CY_DMA_TRANSFER_SIZE_WORD\000"
 3462      4D415F54 
 3462      52414E53 
 3462      4645525F 
 3462      53495A45 
 3463              	.LASF48:
 3464 03d3 43595F44 		.ascii	"CY_DMA_1D_TRANSFER\000"
 3464      4D415F31 
 3464      445F5452 
 3464      414E5346 
 3464      455200
 3465              	.LASF59:
 3466 03e6 63795F65 		.ascii	"cy_en_dma_data_size_t\000"
 3466      6E5F646D 
 3466      615F6461 
 3466      74615F73 
 3466      697A655F 
 3467              	.LASF87:
 3468 03fc 73726341 		.ascii	"srcAddress\000"
 3468      64647265 
 3468      737300
ARM GAS  C:\Users\cypress\AppData\Local\Temp\ccD9LaTb.s 			page 90


 3469              	.LASF19:
 3470 0407 494E5452 		.ascii	"INTR\000"
 3470      00
 3471              	.LASF56:
 3472 040c 43595F44 		.ascii	"CY_DMA_BYTE\000"
 3472      4D415F42 
 3472      59544500 
 3473              	.LASF73:
 3474 0418 63795F65 		.ascii	"cy_en_dma_status_t\000"
 3474      6E5F646D 
 3474      615F7374 
 3474      61747573 
 3474      5F7400
 3475              	.LASF74:
 3476 042b 7843746C 		.ascii	"xCtl\000"
 3476      00
 3477              	.LASF50:
 3478 0430 63795F65 		.ascii	"cy_en_dma_descriptor_type_t\000"
 3478      6E5F646D 
 3478      615F6465 
 3478      73637269 
 3478      70746F72 
 3479              	.LASF64:
 3480 044c 63795F65 		.ascii	"cy_en_dma_retrigger_t\000"
 3480      6E5F646D 
 3480      615F7265 
 3480      74726967 
 3480      6765725F 
 3481              	.LASF22:
 3482 0462 494E5452 		.ascii	"INTR_MASKED\000"
 3482      5F4D4153 
 3482      4B454400 
 3483              	.LASF45:
 3484 046e 666C6F61 		.ascii	"float\000"
 3484      7400
 3485              	.LASF114:
 3486 0474 43795F44 		.ascii	"Cy_DMA_Descriptor_GetNextDescriptor\000"
 3486      4D415F44 
 3486      65736372 
 3486      6970746F 
 3486      725F4765 
 3487              	.LASF29:
 3488 0498 52455345 		.ascii	"RESERVED1\000"
 3488      52564544 
 3488      3100
 3489              	.LASF37:
 3490 04a2 52455345 		.ascii	"RESERVED3\000"
 3490      52564544 
 3490      3300
 3491              	.LASF40:
 3492 04ac 52455345 		.ascii	"RESERVED4\000"
 3492      52564544 
 3492      3400
 3493              	.LASF102:
 3494 04b6 5F426F6F 		.ascii	"_Bool\000"
 3494      6C00
 3495              	.LASF11:
ARM GAS  C:\Users\cypress\AppData\Local\Temp\ccD9LaTb.s 			page 91


 3496 04bc 696E7433 		.ascii	"int32_t\000"
 3496      325F7400 
 3497              	.LASF1:
 3498 04c4 756E7369 		.ascii	"unsigned char\000"
 3498      676E6564 
 3498      20636861 
 3498      7200
 3499              	.LASF101:
 3500 04d2 62756666 		.ascii	"bufferable\000"
 3500      65726162 
 3500      6C6500
 3501              	.LASF2:
 3502 04dd 73686F72 		.ascii	"short int\000"
 3502      7420696E 
 3502      7400
 3503              	.LASF34:
 3504 04e7 4143545F 		.ascii	"ACT_DESCR_X_CTL\000"
 3504      44455343 
 3504      525F585F 
 3504      43544C00 
 3505              	.LASF26:
 3506 04f7 52455345 		.ascii	"RESERVED\000"
 3506      52564544 
 3506      00
 3507              	.LASF63:
 3508 0500 43595F44 		.ascii	"CY_DMA_WAIT_FOR_REACT\000"
 3508      4D415F57 
 3508      4149545F 
 3508      464F525F 
 3508      52454143 
 3509              	.LASF118:
 3510 0516 47656E65 		.ascii	"Generated_Source\\PSoC6\\pdl\\drivers\\peripheral\\"
 3510      72617465 
 3510      645F536F 
 3510      75726365 
 3510      5C50536F 
 3511 0544 646D615C 		.ascii	"dma\\cy_dma.c\000"
 3511      63795F64 
 3511      6D612E63 
 3511      00
 3512              	.LASF86:
 3513 0551 64657363 		.ascii	"descriptorType\000"
 3513      72697074 
 3513      6F725479 
 3513      706500
 3514              	.LASF71:
 3515 0560 43595F44 		.ascii	"CY_DMA_SUCCESS\000"
 3515      4D415F53 
 3515      55434345 
 3515      535300
 3516              	.LASF54:
 3517 056f 43595F44 		.ascii	"CY_DMA_DESCR_CHAIN\000"
 3517      4D415F44 
 3517      45534352 
 3517      5F434841 
 3517      494E00
 3518              	.LASF95:
ARM GAS  C:\Users\cypress\AppData\Local\Temp\ccD9LaTb.s 			page 92


 3519 0582 6E657874 		.ascii	"nextDescriptor\000"
 3519      44657363 
 3519      72697074 
 3519      6F7200
 3520              	.LASF108:
 3521 0591 6368616E 		.ascii	"channel\000"
 3521      6E656C00 
 3522              	.LASF33:
 3523 0599 52455345 		.ascii	"RESERVED2\000"
 3523      52564544 
 3523      3200
 3524              	.LASF62:
 3525 05a3 43595F44 		.ascii	"CY_DMA_RETRIG_16CYC\000"
 3525      4D415F52 
 3525      45545249 
 3525      475F3136 
 3525      43594300 
 3526              	.LASF12:
 3527 05b7 75696E74 		.ascii	"uint32_t\000"
 3527      33325F74 
 3527      00
 3528              	.LASF97:
 3529 05c0 64657363 		.ascii	"descriptor\000"
 3529      72697074 
 3529      6F7200
 3530              	.LASF117:
 3531 05cb 474E5520 		.ascii	"GNU C11 5.4.1 20160609 (release) [ARM/embedded-5-br"
 3531      43313120 
 3531      352E342E 
 3531      31203230 
 3531      31363036 
 3532 05fe 616E6368 		.ascii	"anch revision 237715] -mcpu=cortex-m0plus -mthumb -"
 3532      20726576 
 3532      6973696F 
 3532      6E203233 
 3532      37373135 
 3533 0631 67202D4F 		.ascii	"g -Og -ffunction-sections -ffat-lto-objects\000"
 3533      67202D66 
 3533      66756E63 
 3533      74696F6E 
 3533      2D736563 
 3534              	.LASF13:
 3535 065d 6C6F6E67 		.ascii	"long double\000"
 3535      20646F75 
 3535      626C6500 
 3536              	.LASF44:
 3537 0669 63686172 		.ascii	"char\000"
 3537      00
 3538              	.LASF94:
 3539 066e 79436F75 		.ascii	"yCount\000"
 3539      6E7400
 3540              	.LASF104:
 3541 0675 636F6E66 		.ascii	"config\000"
 3541      696700
 3542              	.LASF91:
 3543 067c 78436F75 		.ascii	"xCount\000"
 3543      6E7400
ARM GAS  C:\Users\cypress\AppData\Local\Temp\ccD9LaTb.s 			page 93


 3544              	.LASF58:
 3545 0683 43595F44 		.ascii	"CY_DMA_WORD\000"
 3545      4D415F57 
 3545      4F524400 
 3546              	.LASF5:
 3547 068f 5F5F696E 		.ascii	"__int32_t\000"
 3547      7433325F 
 3547      7400
 3548              	.LASF15:
 3549 0699 43485F43 		.ascii	"CH_CTL\000"
 3549      544C00
 3550              	.LASF28:
 3551 06a0 53544154 		.ascii	"STATUS_INTR_MASKED\000"
 3551      55535F49 
 3551      4E54525F 
 3551      4D41534B 
 3551      454400
 3552              	.LASF75:
 3553 06b3 7943746C 		.ascii	"yCtl\000"
 3553      00
 3554              	.LASF121:
 3555 06b8 43795F53 		.ascii	"Cy_SysLib_AssertFailed\000"
 3555      79734C69 
 3555      625F4173 
 3555      73657274 
 3555      4661696C 
 3556              	.LASF93:
 3557 06cf 64737459 		.ascii	"dstYincrement\000"
 3557      696E6372 
 3557      656D656E 
 3557      7400
 3558              	.LASF96:
 3559 06dd 63795F73 		.ascii	"cy_stc_dma_descriptor_config_t\000"
 3559      74635F64 
 3559      6D615F64 
 3559      65736372 
 3559      6970746F 
 3560              	.LASF27:
 3561 06fc 53544154 		.ascii	"STATUS_INTR\000"
 3561      55535F49 
 3561      4E545200 
 3562              	.LASF24:
 3563 0708 53544154 		.ascii	"STATUS\000"
 3563      555300
 3564              	.LASF72:
 3565 070f 43595F44 		.ascii	"CY_DMA_BAD_PARAM\000"
 3565      4D415F42 
 3565      41445F50 
 3565      4152414D 
 3565      00
 3566              	.LASF89:
 3567 0720 73726358 		.ascii	"srcXincrement\000"
 3567      696E6372 
 3567      656D656E 
 3567      7400
 3568              	.LASF120:
 3569 072e 43795F44 		.ascii	"Cy_DMA_Descriptor_GetDescriptorType\000"
ARM GAS  C:\Users\cypress\AppData\Local\Temp\ccD9LaTb.s 			page 94


 3569      4D415F44 
 3569      65736372 
 3569      6970746F 
 3569      725F4765 
 3570              	.LASF92:
 3571 0752 73726359 		.ascii	"srcYincrement\000"
 3571      696E6372 
 3571      656D656E 
 3571      7400
 3572              	.LASF77:
 3573 0760 63795F73 		.ascii	"cy_stc_dma_descriptor_t\000"
 3573      74635F64 
 3573      6D615F64 
 3573      65736372 
 3573      6970746F 
 3574              	.LASF41:
 3575 0778 43485F53 		.ascii	"CH_STRUCT\000"
 3575      54525543 
 3575      5400
 3576              	.LASF23:
 3577 0782 44575F43 		.ascii	"DW_CH_STRUCT_Type\000"
 3577      485F5354 
 3577      52554354 
 3577      5F547970 
 3577      6500
 3578              	.LASF81:
 3579 0794 6368616E 		.ascii	"channelState\000"
 3579      6E656C53 
 3579      74617465 
 3579      00
 3580              	.LASF111:
 3581 07a1 43795F44 		.ascii	"Cy_DMA_Descriptor_DeInit\000"
 3581      4D415F44 
 3581      65736372 
 3581      6970746F 
 3581      725F4465 
 3582              	.LASF70:
 3583 07ba 63795F65 		.ascii	"cy_en_dma_channel_state_t\000"
 3583      6E5F646D 
 3583      615F6368 
 3583      616E6E65 
 3583      6C5F7374 
 3584              	.LASF98:
 3585 07d4 70726565 		.ascii	"preemptable\000"
 3585      6D707461 
 3585      626C6500 
 3586              	.LASF25:
 3587 07e0 50454E44 		.ascii	"PENDING\000"
 3587      494E4700 
 3588              		.ident	"GCC: (GNU Tools for ARM Embedded Processors) 5.4.1 20160609 (release) [ARM/embedded-5-bran
