ARM GAS  C:\Users\Agentos\AppData\Local\Temp\cclJw0mT.s 			page 1


   1              		.syntax unified
   2              		.cpu cortex-m4
   3              		.eabi_attribute 27, 1
   4              		.fpu fpv4-sp-d16
   5              		.eabi_attribute 20, 1
   6              		.eabi_attribute 21, 1
   7              		.eabi_attribute 23, 3
   8              		.eabi_attribute 24, 1
   9              		.eabi_attribute 25, 1
  10              		.eabi_attribute 26, 1
  11              		.eabi_attribute 30, 1
  12              		.eabi_attribute 34, 1
  13              		.eabi_attribute 18, 4
  14              		.thumb
  15              		.syntax unified
  16              		.file	"CapSense_Gesture.c"
  17              		.text
  18              	.Ltext0:
  19              		.cfi_sections	.debug_frame
  20              		.section	.text.CapSense_GetTouchParams,"ax",%progbits
  21              		.align	2
  22              		.global	CapSense_GetTouchParams
  23              		.thumb
  24              		.thumb_func
  25              		.type	CapSense_GetTouchParams, %function
  26              	CapSense_GetTouchParams:
  27              	.LFB132:
  28              		.file 1 "Generated_Source\\PSoC6\\CapSense_Gesture.c"
   1:Generated_Source\PSoC6/CapSense_Gesture.c **** /***************************************************************************//**
   2:Generated_Source\PSoC6/CapSense_Gesture.c **** * \file CapSense_Gesture.c
   3:Generated_Source\PSoC6/CapSense_Gesture.c **** * \version 2.0
   4:Generated_Source\PSoC6/CapSense_Gesture.c **** *
   5:Generated_Source\PSoC6/CapSense_Gesture.c **** * \brief
   6:Generated_Source\PSoC6/CapSense_Gesture.c **** *   This file provides the source code for the centroid calculation methods
   7:Generated_Source\PSoC6/CapSense_Gesture.c **** *   of the Component.
   8:Generated_Source\PSoC6/CapSense_Gesture.c **** *
   9:Generated_Source\PSoC6/CapSense_Gesture.c **** * \see CapSense v2.0 Datasheet
  10:Generated_Source\PSoC6/CapSense_Gesture.c **** *
  11:Generated_Source\PSoC6/CapSense_Gesture.c **** *//*****************************************************************************
  12:Generated_Source\PSoC6/CapSense_Gesture.c **** * Copyright (2016-2017), Cypress Semiconductor Corporation.
  13:Generated_Source\PSoC6/CapSense_Gesture.c **** ********************************************************************************
  14:Generated_Source\PSoC6/CapSense_Gesture.c **** * This software is owned by Cypress Semiconductor Corporation (Cypress) and is
  15:Generated_Source\PSoC6/CapSense_Gesture.c **** * protected by and subject to worldwide patent protection (United States and
  16:Generated_Source\PSoC6/CapSense_Gesture.c **** * foreign), United States copyright laws and international treaty provisions.
  17:Generated_Source\PSoC6/CapSense_Gesture.c **** * Cypress hereby grants to licensee a personal, non-exclusive, non-transferable
  18:Generated_Source\PSoC6/CapSense_Gesture.c **** * license to copy, use, modify, create derivative works of, and compile the
  19:Generated_Source\PSoC6/CapSense_Gesture.c **** * Cypress Source Code and derivative works for the sole purpose of creating
  20:Generated_Source\PSoC6/CapSense_Gesture.c **** * custom software in support of licensee product to be used only in conjunction
  21:Generated_Source\PSoC6/CapSense_Gesture.c **** * with a Cypress integrated circuit as specified in the applicable agreement.
  22:Generated_Source\PSoC6/CapSense_Gesture.c **** * Any reproduction, modification, translation, compilation, or representation of
  23:Generated_Source\PSoC6/CapSense_Gesture.c **** * this software except as specified above is prohibited without the express
  24:Generated_Source\PSoC6/CapSense_Gesture.c **** * written permission of Cypress.
  25:Generated_Source\PSoC6/CapSense_Gesture.c **** *
  26:Generated_Source\PSoC6/CapSense_Gesture.c **** * Disclaimer: CYPRESS MAKES NO WARRANTY OF ANY KIND, EXPRESS OR IMPLIED, WITH
  27:Generated_Source\PSoC6/CapSense_Gesture.c **** * REGARD TO THIS MATERIAL, INCLUDING, BUT NOT LIMITED TO, THE IMPLIED
  28:Generated_Source\PSoC6/CapSense_Gesture.c **** * WARRANTIES OF MERCHANTABILITY AND FITNESS FOR A PARTICULAR PURPOSE.
  29:Generated_Source\PSoC6/CapSense_Gesture.c **** * Cypress reserves the right to make changes without further notice to the
ARM GAS  C:\Users\Agentos\AppData\Local\Temp\cclJw0mT.s 			page 2


  30:Generated_Source\PSoC6/CapSense_Gesture.c **** * materials described herein. Cypress does not assume any liability arising out
  31:Generated_Source\PSoC6/CapSense_Gesture.c **** * of the application or use of any product or circuit described herein. Cypress
  32:Generated_Source\PSoC6/CapSense_Gesture.c **** * does not authorize its products for use as critical components in life-support
  33:Generated_Source\PSoC6/CapSense_Gesture.c **** * systems where a malfunction or failure may reasonably be expected to result in
  34:Generated_Source\PSoC6/CapSense_Gesture.c **** * significant injury to the user. The inclusion of Cypress' product in a life-
  35:Generated_Source\PSoC6/CapSense_Gesture.c **** * support systems application implies that the manufacturer assumes all risk of
  36:Generated_Source\PSoC6/CapSense_Gesture.c **** * such use and in doing so indemnifies Cypress against all charges. Use may be
  37:Generated_Source\PSoC6/CapSense_Gesture.c **** * limited by and subject to the applicable Cypress software license agreement.
  38:Generated_Source\PSoC6/CapSense_Gesture.c **** *******************************************************************************/
  39:Generated_Source\PSoC6/CapSense_Gesture.c **** 
  40:Generated_Source\PSoC6/CapSense_Gesture.c **** #include "syslib/cy_syslib.h"
  41:Generated_Source\PSoC6/CapSense_Gesture.c **** #include <stddef.h>
  42:Generated_Source\PSoC6/CapSense_Gesture.c **** #include "systick/cy_systick.h"
  43:Generated_Source\PSoC6/CapSense_Gesture.c **** #include "CapSense_Gesture.h"
  44:Generated_Source\PSoC6/CapSense_Gesture.c **** 
  45:Generated_Source\PSoC6/CapSense_Gesture.c **** #define CapSense_CSX_ERROR_TOUCH_NUMBER     (3u)
  46:Generated_Source\PSoC6/CapSense_Gesture.c **** 
  47:Generated_Source\PSoC6/CapSense_Gesture.c **** 
  48:Generated_Source\PSoC6/CapSense_Gesture.c **** /**************************************************************************************************
  49:Generated_Source\PSoC6/CapSense_Gesture.c **** * Static Function Prototypes
  50:Generated_Source\PSoC6/CapSense_Gesture.c **** ***************************************************************************************************
  51:Generated_Source\PSoC6/CapSense_Gesture.c **** /**
  52:Generated_Source\PSoC6/CapSense_Gesture.c **** * \cond SECTION_CYSENSE_INTERNAL
  53:Generated_Source\PSoC6/CapSense_Gesture.c **** * \addtogroup group_cysense_internal
  54:Generated_Source\PSoC6/CapSense_Gesture.c **** * \{
  55:Generated_Source\PSoC6/CapSense_Gesture.c **** */
  56:Generated_Source\PSoC6/CapSense_Gesture.c **** 
  57:Generated_Source\PSoC6/CapSense_Gesture.c **** #if (CapSense_ENABLE == CapSense_GES_GLOBAL_EN)
  58:Generated_Source\PSoC6/CapSense_Gesture.c ****     #if(CapSense_ENABLE == CapSense_SLIDER_WIDGET_EN)
  59:Generated_Source\PSoC6/CapSense_Gesture.c ****     __STATIC_INLINE void CapSense_GetCsdSldTouches(uint32 wdgtIndex, CapSense_TOUCH_PARAM_STRUCT *t
  60:Generated_Source\PSoC6/CapSense_Gesture.c ****     #endif /* (CapSense_ENABLE == CapSense_SLIDER_WIDGET_EN) */
  61:Generated_Source\PSoC6/CapSense_Gesture.c **** 
  62:Generated_Source\PSoC6/CapSense_Gesture.c ****     #if(CapSense_ENABLE == CapSense_CSD_TOUCHPAD_WIDGET_EN)
  63:Generated_Source\PSoC6/CapSense_Gesture.c ****     __STATIC_INLINE void CapSense_GetCsdTpTouches(uint32 wdgtIndex, CapSense_TOUCH_PARAM_STRUCT *to
  64:Generated_Source\PSoC6/CapSense_Gesture.c ****     #endif /* (CapSense_ENABLE == CapSense_CSD_TOUCHPAD_WIDGET_EN) */
  65:Generated_Source\PSoC6/CapSense_Gesture.c **** 
  66:Generated_Source\PSoC6/CapSense_Gesture.c ****     #if(CapSense_ENABLE == CapSense_CSX_TOUCHPAD_WIDGET_EN)
  67:Generated_Source\PSoC6/CapSense_Gesture.c ****     __STATIC_INLINE void CapSense_GetCsxTpTouches(uint32 wdgtIndex, CapSense_TOUCH_PARAM_STRUCT *to
  68:Generated_Source\PSoC6/CapSense_Gesture.c ****     #endif /* (CapSense_ENABLE == CapSense_CSX_TOUCHPAD_WIDGET_EN) */
  69:Generated_Source\PSoC6/CapSense_Gesture.c **** #endif /* (CapSense_ENABLE == CapSense_GES_GLOBAL_EN) */
  70:Generated_Source\PSoC6/CapSense_Gesture.c **** 
  71:Generated_Source\PSoC6/CapSense_Gesture.c **** #if (CapSense_ENABLE == CapSense_BALLISTIC_MULTIPLIER_EN)
  72:Generated_Source\PSoC6/CapSense_Gesture.c ****     static uint8  CapSense_bmPrevFingerNum;
  73:Generated_Source\PSoC6/CapSense_Gesture.c ****     static CapSense_TMG_POSITION_STRUCT CapSense_bmPrevFingerPos;
  74:Generated_Source\PSoC6/CapSense_Gesture.c **** #endif /* (CapSense_ENABLE == CapSense_BALLISTIC_MULTIPLIER_EN) */
  75:Generated_Source\PSoC6/CapSense_Gesture.c **** 
  76:Generated_Source\PSoC6/CapSense_Gesture.c **** #if(CapSense_ENABLE == CapSense_GES_GLOBAL_EN)
  77:Generated_Source\PSoC6/CapSense_Gesture.c ****     static CapSense_TOUCH_PARAM_STRUCT CapSense_touchParams;
  78:Generated_Source\PSoC6/CapSense_Gesture.c **** #endif /* (CapSense_ENABLE == CapSense_GES_GLOBAL_EN) */
  79:Generated_Source\PSoC6/CapSense_Gesture.c **** 
  80:Generated_Source\PSoC6/CapSense_Gesture.c **** 
  81:Generated_Source\PSoC6/CapSense_Gesture.c **** /** \}
  82:Generated_Source\PSoC6/CapSense_Gesture.c **** * \endcond */
  83:Generated_Source\PSoC6/CapSense_Gesture.c **** 
  84:Generated_Source\PSoC6/CapSense_Gesture.c **** 
  85:Generated_Source\PSoC6/CapSense_Gesture.c **** #if (CapSense_ENABLE == CapSense_GES_GLOBAL_EN)
  86:Generated_Source\PSoC6/CapSense_Gesture.c ****     /*******************************************************************************
ARM GAS  C:\Users\Agentos\AppData\Local\Temp\cclJw0mT.s 			page 3


  87:Generated_Source\PSoC6/CapSense_Gesture.c ****     * Function Name: CapSense_GetTouchParams
  88:Generated_Source\PSoC6/CapSense_Gesture.c ****     ****************************************************************************//**
  89:Generated_Source\PSoC6/CapSense_Gesture.c ****     *
  90:Generated_Source\PSoC6/CapSense_Gesture.c ****     * \brief
  91:Generated_Source\PSoC6/CapSense_Gesture.c ****     *  This function is intended to get the number of touches on touchpar or slider,
  92:Generated_Source\PSoC6/CapSense_Gesture.c ****     *  position of each touch and the max number of touches which can be processed
  93:Generated_Source\PSoC6/CapSense_Gesture.c ****     *  to recognize gestures.
  94:Generated_Source\PSoC6/CapSense_Gesture.c ****     *
  95:Generated_Source\PSoC6/CapSense_Gesture.c ****     * \details
  96:Generated_Source\PSoC6/CapSense_Gesture.c ****     *  This function implements call of appropriate API to get the touch parameters
  97:Generated_Source\PSoC6/CapSense_Gesture.c ****     *  depending on the type of widget, that is passed through the wdgtId nparameter.
  98:Generated_Source\PSoC6/CapSense_Gesture.c ****     *  For the CSD touchpad and the CSX touchpad, function returns X and Y coordinates
  99:Generated_Source\PSoC6/CapSense_Gesture.c ****     *  of each touch.
 100:Generated_Source\PSoC6/CapSense_Gesture.c ****     *  For the CSD slider, functions returns the position as the X coordinate.
 101:Generated_Source\PSoC6/CapSense_Gesture.c ****     *  Y coordinate for CSD sliders is always "0".
 102:Generated_Source\PSoC6/CapSense_Gesture.c ****     *  This is an internal function. Calling this function from application layer is
 103:Generated_Source\PSoC6/CapSense_Gesture.c ****     *  not recommended.
 104:Generated_Source\PSoC6/CapSense_Gesture.c ****     *
 105:Generated_Source\PSoC6/CapSense_Gesture.c ****     * \param wdgtIndex
 106:Generated_Source\PSoC6/CapSense_Gesture.c ****     *  Specifies the ID number of the widget, the touch parameters needs to be
 107:Generated_Source\PSoC6/CapSense_Gesture.c ****     *  returned for.
 108:Generated_Source\PSoC6/CapSense_Gesture.c ****     *
 109:Generated_Source\PSoC6/CapSense_Gesture.c ****     * \param touchParams
 110:Generated_Source\PSoC6/CapSense_Gesture.c ****     *  Pointer to the structure which is intended to store the number of touches,
 111:Generated_Source\PSoC6/CapSense_Gesture.c ****     *  position of each touch and the max number of touches which can be processed
 112:Generated_Source\PSoC6/CapSense_Gesture.c ****     *  to recognize gestures for widget, that is passed through the wdgtId nparameter.
 113:Generated_Source\PSoC6/CapSense_Gesture.c ****     *
 114:Generated_Source\PSoC6/CapSense_Gesture.c ****     *******************************************************************************/
 115:Generated_Source\PSoC6/CapSense_Gesture.c ****     void  CapSense_GetTouchParams(uint32 wdgtIndex, CapSense_TOUCH_PARAM_STRUCT *touchParams)
 116:Generated_Source\PSoC6/CapSense_Gesture.c ****     {
  29              		.loc 1 116 0
  30              		.cfi_startproc
  31              		@ args = 0, pretend = 0, frame = 0
  32              		@ frame_needed = 0, uses_anonymous_args = 0
  33              	.LVL0:
  34 0000 10B5     		push	{r4, lr}
  35              		.cfi_def_cfa_offset 8
  36              		.cfi_offset 4, -8
  37              		.cfi_offset 14, -4
  38              	.LVL1:
 117:Generated_Source\PSoC6/CapSense_Gesture.c ****         CapSense_WD_TYPE_ENUM widgetType;
 118:Generated_Source\PSoC6/CapSense_Gesture.c ****         CapSense_FLASH_WD_STRUCT const *ptrFlashWdgt;
 119:Generated_Source\PSoC6/CapSense_Gesture.c **** 
 120:Generated_Source\PSoC6/CapSense_Gesture.c ****         ptrFlashWdgt = &CapSense_dsFlash.wdgtArray[wdgtIndex];
 121:Generated_Source\PSoC6/CapSense_Gesture.c ****         widgetType = CapSense_GET_WIDGET_TYPE(ptrFlashWdgt);
  39              		.loc 1 121 0
  40 0002 00EB4002 		add	r2, r0, r0, lsl #1
  41 0006 1301     		lsls	r3, r2, #4
  42 0008 164A     		ldr	r2, .L9
  43 000a 1344     		add	r3, r3, r2
  44 000c 9B7E     		ldrb	r3, [r3, #26]	@ zero_extendqisi2
  45              	.LVL2:
 122:Generated_Source\PSoC6/CapSense_Gesture.c **** 
 123:Generated_Source\PSoC6/CapSense_Gesture.c ****         switch(widgetType)
  46              		.loc 1 123 0
  47 000e 023B     		subs	r3, r3, #2
  48              	.LVL3:
ARM GAS  C:\Users\Agentos\AppData\Local\Temp\cclJw0mT.s 			page 4


  49 0010 012B     		cmp	r3, #1
  50 0012 21D8     		bhi	.L2
  51              	.LVL4:
  52              	.LBB4:
  53              	.LBB5:
 124:Generated_Source\PSoC6/CapSense_Gesture.c ****         {
 125:Generated_Source\PSoC6/CapSense_Gesture.c **** 
 126:Generated_Source\PSoC6/CapSense_Gesture.c ****         #if(CapSense_ENABLE == CapSense_SLIDER_WIDGET_EN)
 127:Generated_Source\PSoC6/CapSense_Gesture.c ****             case CapSense_WD_LINEAR_SLIDER_E:
 128:Generated_Source\PSoC6/CapSense_Gesture.c ****             case CapSense_WD_RADIAL_SLIDER_E:
 129:Generated_Source\PSoC6/CapSense_Gesture.c ****                 CapSense_GetCsdSldTouches(wdgtIndex, touchParams);
 130:Generated_Source\PSoC6/CapSense_Gesture.c ****                 break;
 131:Generated_Source\PSoC6/CapSense_Gesture.c ****         #endif /* (CapSense_ENABLE == CapSense_SLIDER_WIDGET_EN) */
 132:Generated_Source\PSoC6/CapSense_Gesture.c **** 
 133:Generated_Source\PSoC6/CapSense_Gesture.c ****         #if(CapSense_ENABLE == CapSense_TOUCHPAD_WIDGET_EN)
 134:Generated_Source\PSoC6/CapSense_Gesture.c ****             case CapSense_WD_TOUCHPAD_E:
 135:Generated_Source\PSoC6/CapSense_Gesture.c ****                 #if (0u != CapSense_CSD_TOUCHPAD_WIDGET_EN)
 136:Generated_Source\PSoC6/CapSense_Gesture.c ****                     if (CapSense_SENSE_METHOD_CSD_E == CapSense_GET_SENSE_METHOD(ptrFlashWdgt))
 137:Generated_Source\PSoC6/CapSense_Gesture.c ****                     {
 138:Generated_Source\PSoC6/CapSense_Gesture.c ****                         CapSense_GetCsdTpTouches(wdgtIndex, touchParams);
 139:Generated_Source\PSoC6/CapSense_Gesture.c ****                     }
 140:Generated_Source\PSoC6/CapSense_Gesture.c ****                 #endif /* #if (0u != CapSense_CSD_TOUCHPAD_WIDGET_EN) */
 141:Generated_Source\PSoC6/CapSense_Gesture.c ****                 #if (0u != CapSense_CSX_TOUCHPAD_WIDGET_EN)
 142:Generated_Source\PSoC6/CapSense_Gesture.c ****                     if (CapSense_SENSE_METHOD_CSX_E == CapSense_GET_SENSE_METHOD(ptrFlashWdgt))
 143:Generated_Source\PSoC6/CapSense_Gesture.c ****                     {
 144:Generated_Source\PSoC6/CapSense_Gesture.c ****                        CapSense_GetCsxTpTouches(wdgtIndex, touchParams);
 145:Generated_Source\PSoC6/CapSense_Gesture.c ****                     }
 146:Generated_Source\PSoC6/CapSense_Gesture.c ****                 #endif /* #if (0u != CapSense_CSX_TOUCHPAD_WIDGET_EN) */
 147:Generated_Source\PSoC6/CapSense_Gesture.c ****                 break;
 148:Generated_Source\PSoC6/CapSense_Gesture.c ****         #endif /* (CapSense_ENABLE == CapSense_TOUCHPAD_WIDGET_EN) */
 149:Generated_Source\PSoC6/CapSense_Gesture.c **** 
 150:Generated_Source\PSoC6/CapSense_Gesture.c ****         default:
 151:Generated_Source\PSoC6/CapSense_Gesture.c ****             CY_ASSERT(0 != 0);
 152:Generated_Source\PSoC6/CapSense_Gesture.c ****             break;
 153:Generated_Source\PSoC6/CapSense_Gesture.c ****         }
 154:Generated_Source\PSoC6/CapSense_Gesture.c ****     }
 155:Generated_Source\PSoC6/CapSense_Gesture.c **** 
 156:Generated_Source\PSoC6/CapSense_Gesture.c **** 
 157:Generated_Source\PSoC6/CapSense_Gesture.c ****     #if(CapSense_ENABLE == CapSense_SLIDER_WIDGET_EN)
 158:Generated_Source\PSoC6/CapSense_Gesture.c ****         /*******************************************************************************
 159:Generated_Source\PSoC6/CapSense_Gesture.c ****         * Function Name: CapSense_GetCsdSldTouches
 160:Generated_Source\PSoC6/CapSense_Gesture.c ****         ****************************************************************************//**
 161:Generated_Source\PSoC6/CapSense_Gesture.c ****         *
 162:Generated_Source\PSoC6/CapSense_Gesture.c ****         * \brief
 163:Generated_Source\PSoC6/CapSense_Gesture.c ****         *  This function is intended to get the number of touches on CSD slider, the
 164:Generated_Source\PSoC6/CapSense_Gesture.c ****         *  position of each touch and the max number of touches which can be processed
 165:Generated_Source\PSoC6/CapSense_Gesture.c ****         *  to recognize gestures.
 166:Generated_Source\PSoC6/CapSense_Gesture.c ****         *
 167:Generated_Source\PSoC6/CapSense_Gesture.c ****         * \details
 168:Generated_Source\PSoC6/CapSense_Gesture.c ****         *  This function implements calculation of the number of touches on CSD slider,
 169:Generated_Source\PSoC6/CapSense_Gesture.c ****         *  getting coordinates of each touch and the max number of touches which can be
 170:Generated_Source\PSoC6/CapSense_Gesture.c ****         *  processed to recognize gestures for the current CSD slider configuration.
 171:Generated_Source\PSoC6/CapSense_Gesture.c ****         *  Functions returns the slider touch position as the X coordinate. Y coordinate
 172:Generated_Source\PSoC6/CapSense_Gesture.c ****         *  for CSD sliders is always "0".
 173:Generated_Source\PSoC6/CapSense_Gesture.c ****         *  This is an internal function. Calling this function from application layer is
 174:Generated_Source\PSoC6/CapSense_Gesture.c ****         *  not recommended.
 175:Generated_Source\PSoC6/CapSense_Gesture.c ****         *
ARM GAS  C:\Users\Agentos\AppData\Local\Temp\cclJw0mT.s 			page 5


 176:Generated_Source\PSoC6/CapSense_Gesture.c ****         * \param wdgtIndex
 177:Generated_Source\PSoC6/CapSense_Gesture.c ****         *  Specifies the ID number of the widget, the touch parameters needs to be
 178:Generated_Source\PSoC6/CapSense_Gesture.c ****         *  returned for.
 179:Generated_Source\PSoC6/CapSense_Gesture.c ****         *
 180:Generated_Source\PSoC6/CapSense_Gesture.c ****         * \param touchParams
 181:Generated_Source\PSoC6/CapSense_Gesture.c ****         *  Pointer to the structure which is intended to store the number of touches,
 182:Generated_Source\PSoC6/CapSense_Gesture.c ****         *  position of each touch and the max number of touches which can be processed
 183:Generated_Source\PSoC6/CapSense_Gesture.c ****         *  to recognize gestures for widget, that is passed through the wdgtId nparameter.
 184:Generated_Source\PSoC6/CapSense_Gesture.c ****         *
 185:Generated_Source\PSoC6/CapSense_Gesture.c ****         *******************************************************************************/
 186:Generated_Source\PSoC6/CapSense_Gesture.c ****         __STATIC_INLINE void CapSense_GetCsdSldTouches(uint32 wdgtIndex, CapSense_TOUCH_PARAM_STRUC
 187:Generated_Source\PSoC6/CapSense_Gesture.c ****         {
 188:Generated_Source\PSoC6/CapSense_Gesture.c ****             uint32 tmpVal;
 189:Generated_Source\PSoC6/CapSense_Gesture.c ****             CapSense_FLASH_WD_STRUCT const *ptrFlashWdgt;
 190:Generated_Source\PSoC6/CapSense_Gesture.c ****             CapSense_RAM_WD_SLIDER_STRUCT *ptrRamWdgtSld;
 191:Generated_Source\PSoC6/CapSense_Gesture.c **** 
 192:Generated_Source\PSoC6/CapSense_Gesture.c ****             ptrFlashWdgt = &CapSense_dsFlash.wdgtArray[wdgtIndex];
 193:Generated_Source\PSoC6/CapSense_Gesture.c ****             ptrRamWdgtSld = (CapSense_RAM_WD_SLIDER_STRUCT*)ptrFlashWdgt->ptr2WdgtRam;
  54              		.loc 1 193 0
  55 0014 00EB4000 		add	r0, r0, r0, lsl #1
  56              	.LVL5:
  57 0018 0301     		lsls	r3, r0, #4
  58              	.LVL6:
  59 001a 1344     		add	r3, r3, r2
  60              	.LVL7:
  61 001c 5868     		ldr	r0, [r3, #4]
  62              	.LVL8:
 194:Generated_Source\PSoC6/CapSense_Gesture.c **** 
 195:Generated_Source\PSoC6/CapSense_Gesture.c ****             touchParams->touchNumber = 0uL;
  63              		.loc 1 195 0
  64 001e 0023     		movs	r3, #0
  65              	.LVL9:
  66 0020 4B72     		strb	r3, [r1, #9]
  67              	.LVL10:
  68 0022 0CE0     		b	.L4
  69              	.LVL11:
  70              	.L6:
 196:Generated_Source\PSoC6/CapSense_Gesture.c ****             for(tmpVal = 0uL; tmpVal < CapSense_NUM_CENTROIDS; tmpVal++)
 197:Generated_Source\PSoC6/CapSense_Gesture.c ****             {
 198:Generated_Source\PSoC6/CapSense_Gesture.c ****                 if(ptrRamWdgtSld->position[tmpVal] != CapSense_SLIDER_POS_NONE)
  71              		.loc 1 198 0
  72 0024 03F10802 		add	r2, r3, #8
  73 0028 00EB4202 		add	r2, r0, r2, lsl #1
  74 002c 9488     		ldrh	r4, [r2, #4]
  75 002e 4FF6FF72 		movw	r2, #65535
  76 0032 9442     		cmp	r4, r2
  77 0034 02D0     		beq	.L5
 199:Generated_Source\PSoC6/CapSense_Gesture.c ****                 {
 200:Generated_Source\PSoC6/CapSense_Gesture.c ****                     touchParams->touchNumber += 1uL;
  78              		.loc 1 200 0
  79 0036 4A7A     		ldrb	r2, [r1, #9]	@ zero_extendqisi2
  80 0038 0132     		adds	r2, r2, #1
  81 003a 4A72     		strb	r2, [r1, #9]
  82              	.L5:
 196:Generated_Source\PSoC6/CapSense_Gesture.c ****             for(tmpVal = 0uL; tmpVal < CapSense_NUM_CENTROIDS; tmpVal++)
  83              		.loc 1 196 0
  84 003c 0133     		adds	r3, r3, #1
ARM GAS  C:\Users\Agentos\AppData\Local\Temp\cclJw0mT.s 			page 6


  85              	.LVL12:
  86              	.L4:
  87 003e 002B     		cmp	r3, #0
  88 0040 F0D0     		beq	.L6
 201:Generated_Source\PSoC6/CapSense_Gesture.c ****                 }
 202:Generated_Source\PSoC6/CapSense_Gesture.c ****             }
 203:Generated_Source\PSoC6/CapSense_Gesture.c **** 
 204:Generated_Source\PSoC6/CapSense_Gesture.c ****             touchParams->currentPosition[CapSense_FIRST_FINGER_ID].x = ptrRamWdgtSld->position[CapS
  89              		.loc 1 204 0
  90 0042 838A     		ldrh	r3, [r0, #20]
  91              	.LVL13:
  92 0044 0B80     		strh	r3, [r1]	@ movhi
 205:Generated_Source\PSoC6/CapSense_Gesture.c ****             touchParams->currentPosition[CapSense_FIRST_FINGER_ID].y = 0u;
  93              		.loc 1 205 0
  94 0046 0023     		movs	r3, #0
  95 0048 4B80     		strh	r3, [r1, #2]	@ movhi
 206:Generated_Source\PSoC6/CapSense_Gesture.c **** 
 207:Generated_Source\PSoC6/CapSense_Gesture.c ****             #if(CapSense_NUM_CENTROIDS > 1u)
 208:Generated_Source\PSoC6/CapSense_Gesture.c ****                 touchParams->maxTouchNumber = 2u;
 209:Generated_Source\PSoC6/CapSense_Gesture.c ****                 touchParams->currentPosition[CapSense_SECOND_FINGER_ID].x = ptrRamWdgtSld->position
 210:Generated_Source\PSoC6/CapSense_Gesture.c ****                 touchParams->currentPosition[CapSense_SECOND_FINGER_ID].y = 0u;
 211:Generated_Source\PSoC6/CapSense_Gesture.c ****             #else
 212:Generated_Source\PSoC6/CapSense_Gesture.c ****                 touchParams->maxTouchNumber = 1u;
  96              		.loc 1 212 0
  97 004a 0123     		movs	r3, #1
  98 004c 8B72     		strb	r3, [r1, #10]
 213:Generated_Source\PSoC6/CapSense_Gesture.c ****                 touchParams->currentPosition[CapSense_SECOND_FINGER_ID].x = CapSense_SLIDER_POS_NON
  99              		.loc 1 213 0
 100 004e 4FF6FF73 		movw	r3, #65535
 101 0052 8B80     		strh	r3, [r1, #4]	@ movhi
 214:Generated_Source\PSoC6/CapSense_Gesture.c ****                 touchParams->currentPosition[CapSense_SECOND_FINGER_ID].y = CapSense_SLIDER_POS_NON
 102              		.loc 1 214 0
 103 0054 CB80     		strh	r3, [r1, #6]	@ movhi
 104 0056 10BD     		pop	{r4, pc}
 105              	.LVL14:
 106              	.L2:
 107              	.LBE5:
 108              	.LBE4:
 151:Generated_Source\PSoC6/CapSense_Gesture.c ****             break;
 109              		.loc 1 151 0 discriminator 1
 110 0058 9721     		movs	r1, #151
 111              	.LVL15:
 112 005a 0348     		ldr	r0, .L9+4
 113              	.LVL16:
 114 005c FFF7FEFF 		bl	Cy_SysLib_AssertFailed
 115              	.LVL17:
 116 0060 10BD     		pop	{r4, pc}
 117              	.L10:
 118 0062 00BF     		.align	2
 119              	.L9:
 120 0064 00000000 		.word	CapSense_dsFlash
 121 0068 00000000 		.word	.LC0
 122              		.cfi_endproc
 123              	.LFE132:
 124              		.size	CapSense_GetTouchParams, .-CapSense_GetTouchParams
 125              		.section	.text.CapSense_InitializeGestures,"ax",%progbits
 126              		.align	2
ARM GAS  C:\Users\Agentos\AppData\Local\Temp\cclJw0mT.s 			page 7


 127              		.global	CapSense_InitializeGestures
 128              		.thumb
 129              		.thumb_func
 130              		.type	CapSense_InitializeGestures, %function
 131              	CapSense_InitializeGestures:
 132              	.LFB134:
 215:Generated_Source\PSoC6/CapSense_Gesture.c ****             #endif /* (2u == CapSense_NUM_CENTROIDS) */
 216:Generated_Source\PSoC6/CapSense_Gesture.c ****         }
 217:Generated_Source\PSoC6/CapSense_Gesture.c ****     #endif /* (CapSense_ENABLE == CapSense_SLIDER_WIDGET_EN) */
 218:Generated_Source\PSoC6/CapSense_Gesture.c **** 
 219:Generated_Source\PSoC6/CapSense_Gesture.c **** 
 220:Generated_Source\PSoC6/CapSense_Gesture.c ****     #if(CapSense_ENABLE == CapSense_CSD_TOUCHPAD_WIDGET_EN)
 221:Generated_Source\PSoC6/CapSense_Gesture.c ****         /*******************************************************************************
 222:Generated_Source\PSoC6/CapSense_Gesture.c ****         * Function Name: CapSense_GetCsdTpTouches
 223:Generated_Source\PSoC6/CapSense_Gesture.c ****         ****************************************************************************//**
 224:Generated_Source\PSoC6/CapSense_Gesture.c ****         *
 225:Generated_Source\PSoC6/CapSense_Gesture.c ****         * \brief
 226:Generated_Source\PSoC6/CapSense_Gesture.c ****         *  This function is intended to get the number of touches on CSD touchpad, the
 227:Generated_Source\PSoC6/CapSense_Gesture.c ****         *  position of each touch and the max number of touches which can be processed
 228:Generated_Source\PSoC6/CapSense_Gesture.c ****         *  to recognize gestures.
 229:Generated_Source\PSoC6/CapSense_Gesture.c ****         *
 230:Generated_Source\PSoC6/CapSense_Gesture.c ****         * \details
 231:Generated_Source\PSoC6/CapSense_Gesture.c ****         *  This function implements calculation of the number of touches on CSD touchpad,
 232:Generated_Source\PSoC6/CapSense_Gesture.c ****         *  getting coordinates of each touch and the max number of touches which can be
 233:Generated_Source\PSoC6/CapSense_Gesture.c ****         *  processed to recognize gestures for the current CSD touchpad configuration.
 234:Generated_Source\PSoC6/CapSense_Gesture.c ****         *  Functions returns the X and Y coordinates of each touch.
 235:Generated_Source\PSoC6/CapSense_Gesture.c ****         *  This is an internal function. Calling this function from application layer is
 236:Generated_Source\PSoC6/CapSense_Gesture.c ****         *  not recommended.
 237:Generated_Source\PSoC6/CapSense_Gesture.c ****         *
 238:Generated_Source\PSoC6/CapSense_Gesture.c ****         * \param wdgtIndex
 239:Generated_Source\PSoC6/CapSense_Gesture.c ****         *  Specifies the ID number of the widget, the touch parameters needs to be
 240:Generated_Source\PSoC6/CapSense_Gesture.c ****         *  returned for.
 241:Generated_Source\PSoC6/CapSense_Gesture.c ****         *
 242:Generated_Source\PSoC6/CapSense_Gesture.c ****         * \param touchParams
 243:Generated_Source\PSoC6/CapSense_Gesture.c ****         *  Pointer to the structure which is intended to store the number of touches,
 244:Generated_Source\PSoC6/CapSense_Gesture.c ****         *  position of each touch and the max number of touches which can be processed
 245:Generated_Source\PSoC6/CapSense_Gesture.c ****         *  to recognize gestures for widget, that is passed through the wdgtId nparameter.
 246:Generated_Source\PSoC6/CapSense_Gesture.c ****         *
 247:Generated_Source\PSoC6/CapSense_Gesture.c ****         *******************************************************************************/
 248:Generated_Source\PSoC6/CapSense_Gesture.c ****         __STATIC_INLINE void CapSense_GetCsdTpTouches(uint32 wdgtIndex, CapSense_TOUCH_PARAM_STRUCT
 249:Generated_Source\PSoC6/CapSense_Gesture.c ****         {
 250:Generated_Source\PSoC6/CapSense_Gesture.c ****             uint16 tmpPosX;
 251:Generated_Source\PSoC6/CapSense_Gesture.c ****             uint16 tmpPosY;
 252:Generated_Source\PSoC6/CapSense_Gesture.c **** 
 253:Generated_Source\PSoC6/CapSense_Gesture.c ****             CapSense_FLASH_WD_STRUCT const *ptrFlashWdgt;
 254:Generated_Source\PSoC6/CapSense_Gesture.c ****             CapSense_RAM_WD_CSD_TOUCHPAD_STRUCT *ptrRamWdgtTp;
 255:Generated_Source\PSoC6/CapSense_Gesture.c **** 
 256:Generated_Source\PSoC6/CapSense_Gesture.c ****             ptrFlashWdgt = &CapSense_dsFlash.wdgtArray[wdgtIndex];
 257:Generated_Source\PSoC6/CapSense_Gesture.c ****             ptrRamWdgtTp = (CapSense_RAM_WD_CSD_TOUCHPAD_STRUCT*)ptrFlashWdgt->ptr2WdgtRam;
 258:Generated_Source\PSoC6/CapSense_Gesture.c **** 
 259:Generated_Source\PSoC6/CapSense_Gesture.c ****             #if (CapSense_ENABLE == CapSense_CENTROID_5X5_CSD_EN)
 260:Generated_Source\PSoC6/CapSense_Gesture.c ****                 if (0 != (ptrFlashWdgt->staticConfig & CapSense_CENTROID_5X5_MASK))
 261:Generated_Source\PSoC6/CapSense_Gesture.c ****                 {
 262:Generated_Source\PSoC6/CapSense_Gesture.c ****                     touchParams->maxTouchNumber = 2u;
 263:Generated_Source\PSoC6/CapSense_Gesture.c ****                     touchParams->touchNumber = ptrRamWdgtTp->position.touchNum;
 264:Generated_Source\PSoC6/CapSense_Gesture.c **** 
 265:Generated_Source\PSoC6/CapSense_Gesture.c ****                     tmpPosX = ptrRamWdgtTp->position.pos[CapSense_FIRST_FINGER_ID].x;
ARM GAS  C:\Users\Agentos\AppData\Local\Temp\cclJw0mT.s 			page 8


 266:Generated_Source\PSoC6/CapSense_Gesture.c ****                     touchParams->currentPosition[CapSense_FIRST_FINGER_ID].x = tmpPosX;
 267:Generated_Source\PSoC6/CapSense_Gesture.c **** 
 268:Generated_Source\PSoC6/CapSense_Gesture.c ****                     /* Cypress ID: #233241 */
 269:Generated_Source\PSoC6/CapSense_Gesture.c ****                     tmpPosY = ptrRamWdgtTp->position.pos[CapSense_FIRST_FINGER_ID].y;
 270:Generated_Source\PSoC6/CapSense_Gesture.c ****                     tmpPosY = (tmpPosY != CapSense_TOUCHPAD_POS_NONE) ? (ptrFlashWdgt->yResolution 
 271:Generated_Source\PSoC6/CapSense_Gesture.c ****                     touchParams->currentPosition[CapSense_FIRST_FINGER_ID].y = tmpPosY;
 272:Generated_Source\PSoC6/CapSense_Gesture.c **** 
 273:Generated_Source\PSoC6/CapSense_Gesture.c ****                     tmpPosX = ptrRamWdgtTp->position.pos[CapSense_SECOND_FINGER_ID].x;
 274:Generated_Source\PSoC6/CapSense_Gesture.c ****                     touchParams->currentPosition[CapSense_SECOND_FINGER_ID].x = tmpPosX;
 275:Generated_Source\PSoC6/CapSense_Gesture.c **** 
 276:Generated_Source\PSoC6/CapSense_Gesture.c ****                     tmpPosY = ptrRamWdgtTp->position.pos[CapSense_SECOND_FINGER_ID].y;
 277:Generated_Source\PSoC6/CapSense_Gesture.c ****                     tmpPosY = (tmpPosY != CapSense_TOUCHPAD_POS_NONE) ? (ptrFlashWdgt->yResolution 
 278:Generated_Source\PSoC6/CapSense_Gesture.c ****                     touchParams->currentPosition[CapSense_SECOND_FINGER_ID].y = tmpPosY;
 279:Generated_Source\PSoC6/CapSense_Gesture.c ****                 }
 280:Generated_Source\PSoC6/CapSense_Gesture.c ****             #endif /* (CapSense_ENABLE == CapSense_CENTROID_5X5_CSD_EN) */
 281:Generated_Source\PSoC6/CapSense_Gesture.c **** 
 282:Generated_Source\PSoC6/CapSense_Gesture.c ****             #if (CapSense_ENABLE == CapSense_CENTROID_3X3_CSD_EN)
 283:Generated_Source\PSoC6/CapSense_Gesture.c ****                 if (0u != (ptrFlashWdgt->staticConfig & CapSense_CENTROID_3X3_MASK))
 284:Generated_Source\PSoC6/CapSense_Gesture.c ****                 {
 285:Generated_Source\PSoC6/CapSense_Gesture.c ****                     if((CapSense_TOUCHPAD_POS_NONE != ptrRamWdgtTp->posX) && (CapSense_TOUCHPAD_POS
 286:Generated_Source\PSoC6/CapSense_Gesture.c ****                     {
 287:Generated_Source\PSoC6/CapSense_Gesture.c ****                         touchParams->touchNumber = 1u;
 288:Generated_Source\PSoC6/CapSense_Gesture.c ****                     }
 289:Generated_Source\PSoC6/CapSense_Gesture.c ****                     else
 290:Generated_Source\PSoC6/CapSense_Gesture.c ****                     {
 291:Generated_Source\PSoC6/CapSense_Gesture.c ****                         touchParams->touchNumber = 0u;
 292:Generated_Source\PSoC6/CapSense_Gesture.c ****                     }
 293:Generated_Source\PSoC6/CapSense_Gesture.c **** 
 294:Generated_Source\PSoC6/CapSense_Gesture.c ****                     touchParams->maxTouchNumber = 1u;
 295:Generated_Source\PSoC6/CapSense_Gesture.c ****                     tmpPosX = ptrRamWdgtTp->posX;
 296:Generated_Source\PSoC6/CapSense_Gesture.c ****                     touchParams->currentPosition[CapSense_FIRST_FINGER_ID].x = tmpPosX;
 297:Generated_Source\PSoC6/CapSense_Gesture.c **** 
 298:Generated_Source\PSoC6/CapSense_Gesture.c ****                     /* Cypress ID: #233241 */
 299:Generated_Source\PSoC6/CapSense_Gesture.c ****                     tmpPosY = ptrRamWdgtTp->posY;
 300:Generated_Source\PSoC6/CapSense_Gesture.c ****                     tmpPosY = (tmpPosY != CapSense_TOUCHPAD_POS_NONE) ? (ptrFlashWdgt->yResolution 
 301:Generated_Source\PSoC6/CapSense_Gesture.c ****                     touchParams->currentPosition[CapSense_FIRST_FINGER_ID].y = tmpPosY;
 302:Generated_Source\PSoC6/CapSense_Gesture.c **** 
 303:Generated_Source\PSoC6/CapSense_Gesture.c ****                     touchParams->currentPosition[CapSense_SECOND_FINGER_ID].x = CapSense_TOUCHPAD_P
 304:Generated_Source\PSoC6/CapSense_Gesture.c ****                     touchParams->currentPosition[CapSense_SECOND_FINGER_ID].y = CapSense_TOUCHPAD_P
 305:Generated_Source\PSoC6/CapSense_Gesture.c ****                 }
 306:Generated_Source\PSoC6/CapSense_Gesture.c ****             #endif /* (CapSense_ENABLE == CapSense_CENTROID_3X3_CSD_EN) */
 307:Generated_Source\PSoC6/CapSense_Gesture.c ****         }
 308:Generated_Source\PSoC6/CapSense_Gesture.c ****     #endif /* (CapSense_ENABLE == CapSense_CSD_TOUCHPAD_WIDGET_EN) */
 309:Generated_Source\PSoC6/CapSense_Gesture.c **** 
 310:Generated_Source\PSoC6/CapSense_Gesture.c **** 
 311:Generated_Source\PSoC6/CapSense_Gesture.c ****     #if(CapSense_ENABLE == CapSense_CSX_TOUCHPAD_WIDGET_EN)
 312:Generated_Source\PSoC6/CapSense_Gesture.c ****         /*******************************************************************************
 313:Generated_Source\PSoC6/CapSense_Gesture.c ****         * Function Name: CapSense_GetCsxTpTouches
 314:Generated_Source\PSoC6/CapSense_Gesture.c ****         ****************************************************************************//**
 315:Generated_Source\PSoC6/CapSense_Gesture.c ****         *
 316:Generated_Source\PSoC6/CapSense_Gesture.c ****         * \brief
 317:Generated_Source\PSoC6/CapSense_Gesture.c ****         *  This function is intended to get the number of touches on CSX touchpad, the
 318:Generated_Source\PSoC6/CapSense_Gesture.c ****         *  position of each touch and the max number of touches which can be processed
 319:Generated_Source\PSoC6/CapSense_Gesture.c ****         *  to recognize gestures.
 320:Generated_Source\PSoC6/CapSense_Gesture.c ****         *
 321:Generated_Source\PSoC6/CapSense_Gesture.c ****         * \details
 322:Generated_Source\PSoC6/CapSense_Gesture.c ****         *  This function implements calculation of the number of touches on CSX touchpad,
ARM GAS  C:\Users\Agentos\AppData\Local\Temp\cclJw0mT.s 			page 9


 323:Generated_Source\PSoC6/CapSense_Gesture.c ****         *  getting coordinates of each touch and the max number of touches which can be
 324:Generated_Source\PSoC6/CapSense_Gesture.c ****         *  processed to recognize gestures for the current CSX touchpad configuration.
 325:Generated_Source\PSoC6/CapSense_Gesture.c ****         *  Functions returns the X and Y coordinates of each touch.
 326:Generated_Source\PSoC6/CapSense_Gesture.c ****         *  This is an internal function. Calling this function from application layer is
 327:Generated_Source\PSoC6/CapSense_Gesture.c ****         *  not recommended.
 328:Generated_Source\PSoC6/CapSense_Gesture.c ****         *
 329:Generated_Source\PSoC6/CapSense_Gesture.c ****         * \param wdgtIndex
 330:Generated_Source\PSoC6/CapSense_Gesture.c ****         *  Specifies the ID number of the widget, the touch parameters needs to be
 331:Generated_Source\PSoC6/CapSense_Gesture.c ****         *  returned for.
 332:Generated_Source\PSoC6/CapSense_Gesture.c ****         *
 333:Generated_Source\PSoC6/CapSense_Gesture.c ****         * \param touchParams
 334:Generated_Source\PSoC6/CapSense_Gesture.c ****         *  Pointer to the structure which is intended to store the number of touches,
 335:Generated_Source\PSoC6/CapSense_Gesture.c ****         *  position of each touch and the max number of touches which can be processed
 336:Generated_Source\PSoC6/CapSense_Gesture.c ****         *  to recognize gestures for widget, that is passed through the wdgtId nparameter.
 337:Generated_Source\PSoC6/CapSense_Gesture.c ****         *
 338:Generated_Source\PSoC6/CapSense_Gesture.c ****         *******************************************************************************/
 339:Generated_Source\PSoC6/CapSense_Gesture.c ****         __STATIC_INLINE void CapSense_GetCsxTpTouches(uint32 wdgtIndex, CapSense_TOUCH_PARAM_STRUCT
 340:Generated_Source\PSoC6/CapSense_Gesture.c ****         {
 341:Generated_Source\PSoC6/CapSense_Gesture.c ****             uint8 error;
 342:Generated_Source\PSoC6/CapSense_Gesture.c ****             uint8 index;
 343:Generated_Source\PSoC6/CapSense_Gesture.c **** 
 344:Generated_Source\PSoC6/CapSense_Gesture.c ****             uint16 tmpPosX;
 345:Generated_Source\PSoC6/CapSense_Gesture.c ****             uint16 tmpPosY;
 346:Generated_Source\PSoC6/CapSense_Gesture.c **** 
 347:Generated_Source\PSoC6/CapSense_Gesture.c ****             static uint8 prevTouchNumber = 0u;
 348:Generated_Source\PSoC6/CapSense_Gesture.c ****             static uint8 prevTouchId[CapSense_CSX_MAX_FINGERS];
 349:Generated_Source\PSoC6/CapSense_Gesture.c **** 
 350:Generated_Source\PSoC6/CapSense_Gesture.c ****             CapSense_FLASH_WD_STRUCT const *ptrFlashWdgt;
 351:Generated_Source\PSoC6/CapSense_Gesture.c ****             CapSense_RAM_WD_CSX_TOUCHPAD_STRUCT *ptrRamWdgtTp;
 352:Generated_Source\PSoC6/CapSense_Gesture.c **** 
 353:Generated_Source\PSoC6/CapSense_Gesture.c ****             ptrFlashWdgt = &CapSense_dsFlash.wdgtArray[wdgtIndex];
 354:Generated_Source\PSoC6/CapSense_Gesture.c ****             ptrRamWdgtTp = (CapSense_RAM_WD_CSX_TOUCHPAD_STRUCT*)ptrFlashWdgt->ptr2WdgtRam;
 355:Generated_Source\PSoC6/CapSense_Gesture.c **** 
 356:Generated_Source\PSoC6/CapSense_Gesture.c ****             touchParams->touchNumber = CapSense_dsRam.snsStatus[wdgtIndex];
 357:Generated_Source\PSoC6/CapSense_Gesture.c **** 
 358:Generated_Source\PSoC6/CapSense_Gesture.c ****             tmpPosX = ptrRamWdgtTp->touch[CapSense_FIRST_FINGER_ID].x;
 359:Generated_Source\PSoC6/CapSense_Gesture.c ****             touchParams->currentPosition[CapSense_FIRST_FINGER_ID].x = tmpPosX;
 360:Generated_Source\PSoC6/CapSense_Gesture.c **** 
 361:Generated_Source\PSoC6/CapSense_Gesture.c ****             /* Cypress ID: #233241 */
 362:Generated_Source\PSoC6/CapSense_Gesture.c ****             tmpPosY = ptrRamWdgtTp->touch[CapSense_FIRST_FINGER_ID].y;
 363:Generated_Source\PSoC6/CapSense_Gesture.c ****             tmpPosY = (tmpPosY != CapSense_TOUCHPAD_POS_NONE) ? (ptrFlashWdgt->yResolution - tmpPos
 364:Generated_Source\PSoC6/CapSense_Gesture.c ****             touchParams->currentPosition[CapSense_FIRST_FINGER_ID].y = tmpPosY;
 365:Generated_Source\PSoC6/CapSense_Gesture.c **** 
 366:Generated_Source\PSoC6/CapSense_Gesture.c ****             #if(CapSense_CSX_MAX_FINGERS > 1u)
 367:Generated_Source\PSoC6/CapSense_Gesture.c ****                 touchParams->maxTouchNumber = 2u;
 368:Generated_Source\PSoC6/CapSense_Gesture.c ****                 tmpPosX = ptrRamWdgtTp->touch[CapSense_SECOND_FINGER_ID].x;
 369:Generated_Source\PSoC6/CapSense_Gesture.c ****                 touchParams->currentPosition[CapSense_SECOND_FINGER_ID].x = tmpPosX;
 370:Generated_Source\PSoC6/CapSense_Gesture.c **** 
 371:Generated_Source\PSoC6/CapSense_Gesture.c ****                 /* Cypress ID: #233241 */
 372:Generated_Source\PSoC6/CapSense_Gesture.c ****                 tmpPosY = ptrRamWdgtTp->touch[CapSense_SECOND_FINGER_ID].y;
 373:Generated_Source\PSoC6/CapSense_Gesture.c ****                 tmpPosY = (tmpPosY != CapSense_TOUCHPAD_POS_NONE) ? (ptrFlashWdgt->yResolution - tm
 374:Generated_Source\PSoC6/CapSense_Gesture.c ****                 touchParams->currentPosition[CapSense_SECOND_FINGER_ID].y = tmpPosY;
 375:Generated_Source\PSoC6/CapSense_Gesture.c ****             #else
 376:Generated_Source\PSoC6/CapSense_Gesture.c ****                 touchParams->maxTouchNumber = 1u;
 377:Generated_Source\PSoC6/CapSense_Gesture.c ****                 touchParams->currentPosition[CapSense_SECOND_FINGER_ID].x = CapSense_TOUCHPAD_POS_N
 378:Generated_Source\PSoC6/CapSense_Gesture.c ****                 touchParams->currentPosition[CapSense_SECOND_FINGER_ID].y = CapSense_TOUCHPAD_POS_N
 379:Generated_Source\PSoC6/CapSense_Gesture.c ****             #endif /* (CapSense_CSX_MAX_FINGERS > 1u) */
ARM GAS  C:\Users\Agentos\AppData\Local\Temp\cclJw0mT.s 			page 10


 380:Generated_Source\PSoC6/CapSense_Gesture.c **** 
 381:Generated_Source\PSoC6/CapSense_Gesture.c ****             error = 0u;
 382:Generated_Source\PSoC6/CapSense_Gesture.c ****             #if (CapSense_CSX_MAX_FINGERS == 1u)
 383:Generated_Source\PSoC6/CapSense_Gesture.c ****                 if((touchParams->touchNumber == 1u) && (prevTouchNumber == 1u))
 384:Generated_Source\PSoC6/CapSense_Gesture.c ****                 {
 385:Generated_Source\PSoC6/CapSense_Gesture.c ****                     if(prevTouchId[0u] != ptrRamWdgtTp->touch[0u].id)
 386:Generated_Source\PSoC6/CapSense_Gesture.c ****                     {
 387:Generated_Source\PSoC6/CapSense_Gesture.c ****                         error++;
 388:Generated_Source\PSoC6/CapSense_Gesture.c ****                     }
 389:Generated_Source\PSoC6/CapSense_Gesture.c ****                 }
 390:Generated_Source\PSoC6/CapSense_Gesture.c ****             #else
 391:Generated_Source\PSoC6/CapSense_Gesture.c ****                 if (touchParams->touchNumber == 1u)
 392:Generated_Source\PSoC6/CapSense_Gesture.c ****                 {
 393:Generated_Source\PSoC6/CapSense_Gesture.c ****                     if (prevTouchNumber == 1u)
 394:Generated_Source\PSoC6/CapSense_Gesture.c ****                     {
 395:Generated_Source\PSoC6/CapSense_Gesture.c ****                         if (prevTouchId[0u] != ptrRamWdgtTp->touch[0u].id)
 396:Generated_Source\PSoC6/CapSense_Gesture.c ****                         {
 397:Generated_Source\PSoC6/CapSense_Gesture.c ****                             error++;
 398:Generated_Source\PSoC6/CapSense_Gesture.c ****                         }
 399:Generated_Source\PSoC6/CapSense_Gesture.c ****                     }
 400:Generated_Source\PSoC6/CapSense_Gesture.c ****                     else if (prevTouchNumber > 1u)
 401:Generated_Source\PSoC6/CapSense_Gesture.c ****                     {
 402:Generated_Source\PSoC6/CapSense_Gesture.c ****                         if ((prevTouchId[0u] != ptrRamWdgtTp->touch[0u].id) &&
 403:Generated_Source\PSoC6/CapSense_Gesture.c ****                             (prevTouchId[1u] != ptrRamWdgtTp->touch[0u].id))
 404:Generated_Source\PSoC6/CapSense_Gesture.c ****                         {
 405:Generated_Source\PSoC6/CapSense_Gesture.c ****                             error++;
 406:Generated_Source\PSoC6/CapSense_Gesture.c ****                         }
 407:Generated_Source\PSoC6/CapSense_Gesture.c ****                     }
 408:Generated_Source\PSoC6/CapSense_Gesture.c ****                 }
 409:Generated_Source\PSoC6/CapSense_Gesture.c ****                 else if (touchParams->touchNumber == 2u)
 410:Generated_Source\PSoC6/CapSense_Gesture.c ****                 {
 411:Generated_Source\PSoC6/CapSense_Gesture.c ****                     if (prevTouchNumber > 0u)
 412:Generated_Source\PSoC6/CapSense_Gesture.c ****                     {
 413:Generated_Source\PSoC6/CapSense_Gesture.c ****                         if (prevTouchId[0u] != ptrRamWdgtTp->touch[0u].id)
 414:Generated_Source\PSoC6/CapSense_Gesture.c ****                         {
 415:Generated_Source\PSoC6/CapSense_Gesture.c ****                             error++;
 416:Generated_Source\PSoC6/CapSense_Gesture.c ****                         }
 417:Generated_Source\PSoC6/CapSense_Gesture.c ****                         else if (prevTouchNumber > 1u)
 418:Generated_Source\PSoC6/CapSense_Gesture.c ****                         {
 419:Generated_Source\PSoC6/CapSense_Gesture.c ****                             if (prevTouchId[1u] != ptrRamWdgtTp->touch[1u].id)
 420:Generated_Source\PSoC6/CapSense_Gesture.c ****                             {
 421:Generated_Source\PSoC6/CapSense_Gesture.c ****                                 error++;
 422:Generated_Source\PSoC6/CapSense_Gesture.c ****                             }
 423:Generated_Source\PSoC6/CapSense_Gesture.c ****                         }
 424:Generated_Source\PSoC6/CapSense_Gesture.c ****                     }
 425:Generated_Source\PSoC6/CapSense_Gesture.c ****                 }
 426:Generated_Source\PSoC6/CapSense_Gesture.c ****             #endif
 427:Generated_Source\PSoC6/CapSense_Gesture.c **** 
 428:Generated_Source\PSoC6/CapSense_Gesture.c ****             prevTouchNumber = touchParams->touchNumber;
 429:Generated_Source\PSoC6/CapSense_Gesture.c ****             for (index = 0u; index < CapSense_CSX_MAX_FINGERS; index++)
 430:Generated_Source\PSoC6/CapSense_Gesture.c ****             {
 431:Generated_Source\PSoC6/CapSense_Gesture.c ****                 prevTouchId[index] = ptrRamWdgtTp->touch[index].id;
 432:Generated_Source\PSoC6/CapSense_Gesture.c ****             }
 433:Generated_Source\PSoC6/CapSense_Gesture.c **** 
 434:Generated_Source\PSoC6/CapSense_Gesture.c ****             if (error != 0u)
 435:Generated_Source\PSoC6/CapSense_Gesture.c ****             {
 436:Generated_Source\PSoC6/CapSense_Gesture.c ****                 touchParams->touchNumber = CapSense_CSX_ERROR_TOUCH_NUMBER;
ARM GAS  C:\Users\Agentos\AppData\Local\Temp\cclJw0mT.s 			page 11


 437:Generated_Source\PSoC6/CapSense_Gesture.c ****             }
 438:Generated_Source\PSoC6/CapSense_Gesture.c ****         }
 439:Generated_Source\PSoC6/CapSense_Gesture.c ****     #endif /* (CapSense_ENABLE == CapSense_CSX_TOUCHPAD_WIDGET_EN) */
 440:Generated_Source\PSoC6/CapSense_Gesture.c **** #endif /* (CapSense_ENABLE == CapSense_GES_GLOBAL_EN) */
 441:Generated_Source\PSoC6/CapSense_Gesture.c **** 
 442:Generated_Source\PSoC6/CapSense_Gesture.c **** 
 443:Generated_Source\PSoC6/CapSense_Gesture.c **** /*******************************************************************************
 444:Generated_Source\PSoC6/CapSense_Gesture.c **** * Function Name: CapSense_InitializeGestures
 445:Generated_Source\PSoC6/CapSense_Gesture.c **** ****************************************************************************//**
 446:Generated_Source\PSoC6/CapSense_Gesture.c **** *
 447:Generated_Source\PSoC6/CapSense_Gesture.c **** * \brief
 448:Generated_Source\PSoC6/CapSense_Gesture.c **** *  This function is intended to initialize the internal parameters of the
 449:Generated_Source\PSoC6/CapSense_Gesture.c **** *  Gestures IP.
 450:Generated_Source\PSoC6/CapSense_Gesture.c **** *
 451:Generated_Source\PSoC6/CapSense_Gesture.c **** * \details
 452:Generated_Source\PSoC6/CapSense_Gesture.c **** *  This routine initializes gesture parameters internal to the gesture
 453:Generated_Source\PSoC6/CapSense_Gesture.c **** *  algorithm. It has to be called once prior to call any API or macro which
 454:Generated_Source\PSoC6/CapSense_Gesture.c **** *  decodes gestures.
 455:Generated_Source\PSoC6/CapSense_Gesture.c **** *  This is an internal function. Calling this function from application layer is
 456:Generated_Source\PSoC6/CapSense_Gesture.c **** *  not recommended.
 457:Generated_Source\PSoC6/CapSense_Gesture.c **** *
 458:Generated_Source\PSoC6/CapSense_Gesture.c **** *******************************************************************************/
 459:Generated_Source\PSoC6/CapSense_Gesture.c **** void CapSense_InitializeGestures(void)
 460:Generated_Source\PSoC6/CapSense_Gesture.c **** {
 133              		.loc 1 460 0
 134              		.cfi_startproc
 135              		@ args = 0, pretend = 0, frame = 0
 136              		@ frame_needed = 0, uses_anonymous_args = 0
 137 0000 08B5     		push	{r3, lr}
 138              		.cfi_def_cfa_offset 8
 139              		.cfi_offset 3, -8
 140              		.cfi_offset 14, -4
 461:Generated_Source\PSoC6/CapSense_Gesture.c ****     CapSense_dsRam.timestamp = 0uL;
 141              		.loc 1 461 0
 142 0002 0948     		ldr	r0, .L13
 143 0004 0022     		movs	r2, #0
 144 0006 C0F80021 		str	r2, [r0, #256]
 462:Generated_Source\PSoC6/CapSense_Gesture.c **** 
 463:Generated_Source\PSoC6/CapSense_Gesture.c ****     #if(0u != CapSense_ENABLE == CapSense_GES_GLOBAL_EN)
 464:Generated_Source\PSoC6/CapSense_Gesture.c ****         CapSense_touchParams.touchNumber = 0u;
 145              		.loc 1 464 0
 146 000a 084B     		ldr	r3, .L13+4
 147 000c 5A72     		strb	r2, [r3, #9]
 465:Generated_Source\PSoC6/CapSense_Gesture.c ****         CapSense_touchParams.maxTouchNumber = 0u;
 148              		.loc 1 465 0
 149 000e 9A72     		strb	r2, [r3, #10]
 466:Generated_Source\PSoC6/CapSense_Gesture.c ****         CapSense_touchParams.touchState = CapSense_TOUCH_VALID;
 150              		.loc 1 466 0
 151 0010 1A72     		strb	r2, [r3, #8]
 467:Generated_Source\PSoC6/CapSense_Gesture.c **** 
 468:Generated_Source\PSoC6/CapSense_Gesture.c ****         CapSense_touchParams.currentPosition[CapSense_FIRST_FINGER_ID].x = CapSense_TMG_INVALID_COO
 152              		.loc 1 468 0
 153 0012 4FF6FF72 		movw	r2, #65535
 154 0016 1A80     		strh	r2, [r3]	@ movhi
 469:Generated_Source\PSoC6/CapSense_Gesture.c ****         CapSense_touchParams.currentPosition[CapSense_FIRST_FINGER_ID].y = CapSense_TMG_INVALID_COO
 155              		.loc 1 469 0
 156 0018 5A80     		strh	r2, [r3, #2]	@ movhi
ARM GAS  C:\Users\Agentos\AppData\Local\Temp\cclJw0mT.s 			page 12


 470:Generated_Source\PSoC6/CapSense_Gesture.c **** 
 471:Generated_Source\PSoC6/CapSense_Gesture.c ****         CapSense_touchParams.currentPosition[CapSense_SECOND_FINGER_ID].x = CapSense_TMG_INVALID_CO
 157              		.loc 1 471 0
 158 001a 9A80     		strh	r2, [r3, #4]	@ movhi
 472:Generated_Source\PSoC6/CapSense_Gesture.c ****         CapSense_touchParams.currentPosition[CapSense_SECOND_FINGER_ID].y = CapSense_TMG_INVALID_CO
 159              		.loc 1 472 0
 160 001c DA80     		strh	r2, [r3, #6]	@ movhi
 473:Generated_Source\PSoC6/CapSense_Gesture.c **** 
 474:Generated_Source\PSoC6/CapSense_Gesture.c ****         CapSense_TMG_InitGestures(&CapSense_dsRam.gestures);
 161              		.loc 1 474 0
 162 001e A430     		adds	r0, r0, #164
 163 0020 FFF7FEFF 		bl	Gesture_Init
 164              	.LVL18:
 165 0024 08BD     		pop	{r3, pc}
 166              	.L14:
 167 0026 00BF     		.align	2
 168              	.L13:
 169 0028 00000000 		.word	CapSense_dsRam
 170 002c 00000000 		.word	.LANCHOR0
 171              		.cfi_endproc
 172              	.LFE134:
 173              		.size	CapSense_InitializeGestures, .-CapSense_InitializeGestures
 174              		.section	.text.CapSense_DecodeWidgetGestures,"ax",%progbits
 175              		.align	2
 176              		.global	CapSense_DecodeWidgetGestures
 177              		.thumb
 178              		.thumb_func
 179              		.type	CapSense_DecodeWidgetGestures, %function
 180              	CapSense_DecodeWidgetGestures:
 181              	.LFB135:
 475:Generated_Source\PSoC6/CapSense_Gesture.c ****     #endif
 476:Generated_Source\PSoC6/CapSense_Gesture.c **** }
 477:Generated_Source\PSoC6/CapSense_Gesture.c **** 
 478:Generated_Source\PSoC6/CapSense_Gesture.c **** 
 479:Generated_Source\PSoC6/CapSense_Gesture.c **** #if (CapSense_ENABLE == CapSense_GES_GLOBAL_EN)
 480:Generated_Source\PSoC6/CapSense_Gesture.c ****     /*******************************************************************************
 481:Generated_Source\PSoC6/CapSense_Gesture.c ****     * Function Name: CapSense_DecodeWidgetGestures
 482:Generated_Source\PSoC6/CapSense_Gesture.c ****     ****************************************************************************//**
 483:Generated_Source\PSoC6/CapSense_Gesture.c ****     *
 484:Generated_Source\PSoC6/CapSense_Gesture.c ****     * \brief
 485:Generated_Source\PSoC6/CapSense_Gesture.c ****     *  Decodes all enabled gestures for the specified widget and returns the
 486:Generated_Source\PSoC6/CapSense_Gesture.c ****     *  gesture code.
 487:Generated_Source\PSoC6/CapSense_Gesture.c ****     *
 488:Generated_Source\PSoC6/CapSense_Gesture.c ****     * \details
 489:Generated_Source\PSoC6/CapSense_Gesture.c ****     *  This function decodes all the enabled gestures on a specific widget and
 490:Generated_Source\PSoC6/CapSense_Gesture.c ****     *  returns a code for the detected gesture. Refer to the Gesture tab section
 491:Generated_Source\PSoC6/CapSense_Gesture.c ****     *  for more details on supported Gestures.
 492:Generated_Source\PSoC6/CapSense_Gesture.c ****     *
 493:Generated_Source\PSoC6/CapSense_Gesture.c ****     *  This function is called only after scan and data processing are completed
 494:Generated_Source\PSoC6/CapSense_Gesture.c ****     *  for the specified widget.
 495:Generated_Source\PSoC6/CapSense_Gesture.c ****     *
 496:Generated_Source\PSoC6/CapSense_Gesture.c ****     *  The Timestamp must be updated before calling this function using the
 497:Generated_Source\PSoC6/CapSense_Gesture.c ****     *  CapSense_IncrementGestureTimestamp() function.
 498:Generated_Source\PSoC6/CapSense_Gesture.c ****     *
 499:Generated_Source\PSoC6/CapSense_Gesture.c ****     * \param wdgtIndex
 500:Generated_Source\PSoC6/CapSense_Gesture.c ****     *  Specifies the ID number of the widget to decode the gesture. A macro for the
 501:Generated_Source\PSoC6/CapSense_Gesture.c ****     *  widget ID can be found in the CapSense Configuration header file
ARM GAS  C:\Users\Agentos\AppData\Local\Temp\cclJw0mT.s 			page 13


 502:Generated_Source\PSoC6/CapSense_Gesture.c ****     *  defined as CapSense_<WidgetName>_WDGT_ID.
 503:Generated_Source\PSoC6/CapSense_Gesture.c ****     *
 504:Generated_Source\PSoC6/CapSense_Gesture.c ****     * \return
 505:Generated_Source\PSoC6/CapSense_Gesture.c ****     *  Returns the status of the gesture detection or the detected gesture code:
 506:Generated_Source\PSoC6/CapSense_Gesture.c ****     *    - CapSense_NON_VALID_PARAMETER
 507:Generated_Source\PSoC6/CapSense_Gesture.c ****     *    - CapSense_NO_GESTURE
 508:Generated_Source\PSoC6/CapSense_Gesture.c ****     *    - CapSense_UNRECOGNIZED_GESTURE
 509:Generated_Source\PSoC6/CapSense_Gesture.c ****     *    - CapSense_ONE_FINGER_TOUCHDOWN
 510:Generated_Source\PSoC6/CapSense_Gesture.c ****     *    - CapSense_ONE_FINGER_LIFT_OFF
 511:Generated_Source\PSoC6/CapSense_Gesture.c ****     *    - CapSense_ONE_FINGER_SINGLE_CLICK
 512:Generated_Source\PSoC6/CapSense_Gesture.c ****     *    - CapSense_ONE_FINGER_DOUBLE_CLICK
 513:Generated_Source\PSoC6/CapSense_Gesture.c ****     *    - CapSense_ONE_FINGER_CLICK_AND_DRAG
 514:Generated_Source\PSoC6/CapSense_Gesture.c ****     *    - CapSense_ONE_FINGER_SCROLL_UP
 515:Generated_Source\PSoC6/CapSense_Gesture.c ****     *    - CapSense_ONE_FINGER_SCROLL_DOWN
 516:Generated_Source\PSoC6/CapSense_Gesture.c ****     *    - CapSense_ONE_FINGER_SCROLL_RIGHT
 517:Generated_Source\PSoC6/CapSense_Gesture.c ****     *    - CapSense_ONE_FINGER_SCROLL_LEFT
 518:Generated_Source\PSoC6/CapSense_Gesture.c ****     *    - CapSense_ONE_FINGER_SCROLL_INERTIAL_UP
 519:Generated_Source\PSoC6/CapSense_Gesture.c ****     *    - CapSense_ONE_FINGER_SCROLL_INERTIAL_DOWN
 520:Generated_Source\PSoC6/CapSense_Gesture.c ****     *    - CapSense_ONE_FINGER_SCROLL_INERTIAL_RIGHT
 521:Generated_Source\PSoC6/CapSense_Gesture.c ****     *    - CapSense_ONE_FINGER_SCROLL_INERTIAL_LEFT
 522:Generated_Source\PSoC6/CapSense_Gesture.c ****     *    - CapSense_ONE_FINGER_FLICK_UP
 523:Generated_Source\PSoC6/CapSense_Gesture.c ****     *    - CapSense_ONE_FINGER_FLICK_DOWN
 524:Generated_Source\PSoC6/CapSense_Gesture.c ****     *    - CapSense_ONE_FINGER_FLICK_RIGHT
 525:Generated_Source\PSoC6/CapSense_Gesture.c ****     *    - CapSense_ONE_FINGER_FLICK_LEFT
 526:Generated_Source\PSoC6/CapSense_Gesture.c ****     *    - CapSense_ONE_FINGER_FLICK_UP_RIGHT
 527:Generated_Source\PSoC6/CapSense_Gesture.c ****     *    - CapSense_ONE_FINGER_FLICK_DOWN_RIGHT
 528:Generated_Source\PSoC6/CapSense_Gesture.c ****     *    - CapSense_ONE_FINGER_FLICK_DOWN_LEFT
 529:Generated_Source\PSoC6/CapSense_Gesture.c ****     *    - CapSense_ONE_FINGER_FLICK_UP_LEFT
 530:Generated_Source\PSoC6/CapSense_Gesture.c ****     *    - CapSense_ONE_FINGER_EDGE_SWIPE_UP
 531:Generated_Source\PSoC6/CapSense_Gesture.c ****     *    - CapSense_ONE_FINGER_EDGE_SWIPE_DOWN
 532:Generated_Source\PSoC6/CapSense_Gesture.c ****     *    - CapSense_ONE_FINGER_EDGE_SWIPE_RIGTH
 533:Generated_Source\PSoC6/CapSense_Gesture.c ****     *    - CapSense_ONE_FINGER_EDGE_SWIPE_LEFT
 534:Generated_Source\PSoC6/CapSense_Gesture.c ****     *    - CapSense_ONE_FINGER_ROTATE_CW
 535:Generated_Source\PSoC6/CapSense_Gesture.c ****     *    - CapSense_ONE_FINGER_ROTATE_CCW
 536:Generated_Source\PSoC6/CapSense_Gesture.c ****     *    - CapSense_TWO_FINGER_SINGLE_CLICK
 537:Generated_Source\PSoC6/CapSense_Gesture.c ****     *    - CapSense_TWO_FINGER_SCROLL_UP
 538:Generated_Source\PSoC6/CapSense_Gesture.c ****     *    - CapSense_TWO_FINGER_SCROLL_DOWN
 539:Generated_Source\PSoC6/CapSense_Gesture.c ****     *    - CapSense_TWO_FINGER_SCROLL_RIGHT
 540:Generated_Source\PSoC6/CapSense_Gesture.c ****     *    - CapSense_TWO_FINGER_SCROLL_LEFT
 541:Generated_Source\PSoC6/CapSense_Gesture.c ****     *    - CapSense_TWO_FINGER_SCROLL_INERTIAL_UP
 542:Generated_Source\PSoC6/CapSense_Gesture.c ****     *    - CapSense_TWO_FINGER_SCROLL_INERTIAL_DOWN
 543:Generated_Source\PSoC6/CapSense_Gesture.c ****     *    - CapSense_TWO_FINGER_SCROLL_INERTIAL_RIGHT
 544:Generated_Source\PSoC6/CapSense_Gesture.c ****     *    - CapSense_TWO_FINGER_SCROLL_INERTIAL_LEFT
 545:Generated_Source\PSoC6/CapSense_Gesture.c ****     *    - CapSense_TWO_FINGER_ZOOM_IN
 546:Generated_Source\PSoC6/CapSense_Gesture.c ****     *    - CapSense_TWO_FINGER_ZOOM_OUT
 547:Generated_Source\PSoC6/CapSense_Gesture.c ****     *
 548:Generated_Source\PSoC6/CapSense_Gesture.c ****     *******************************************************************************/
 549:Generated_Source\PSoC6/CapSense_Gesture.c ****     uint32 CapSense_DecodeWidgetGestures(uint32 widgetId)
 550:Generated_Source\PSoC6/CapSense_Gesture.c ****     {
 182              		.loc 1 550 0
 183              		.cfi_startproc
 184              		@ args = 0, pretend = 0, frame = 0
 185              		@ frame_needed = 0, uses_anonymous_args = 0
 186              	.LVL19:
 187 0000 38B5     		push	{r3, r4, r5, lr}
 188              		.cfi_def_cfa_offset 16
 189              		.cfi_offset 3, -16
ARM GAS  C:\Users\Agentos\AppData\Local\Temp\cclJw0mT.s 			page 14


 190              		.cfi_offset 4, -12
 191              		.cfi_offset 5, -8
 192              		.cfi_offset 14, -4
 193 0002 0446     		mov	r4, r0
 551:Generated_Source\PSoC6/CapSense_Gesture.c ****         uint32 tmpValue;
 552:Generated_Source\PSoC6/CapSense_Gesture.c **** 
 553:Generated_Source\PSoC6/CapSense_Gesture.c ****         #if (0u != CapSense_ONE_FINGER_EDGE_SWIPE_EN)
 554:Generated_Source\PSoC6/CapSense_Gesture.c ****             static uint32 gestureCounter = 0u;
 555:Generated_Source\PSoC6/CapSense_Gesture.c ****         #endif
 556:Generated_Source\PSoC6/CapSense_Gesture.c **** 
 557:Generated_Source\PSoC6/CapSense_Gesture.c ****         if(widgetId != CapSense_GESTURE_EN_WIDGET_ID)
 194              		.loc 1 557 0
 195 0004 0228     		cmp	r0, #2
 196 0006 27D1     		bne	.L21
 558:Generated_Source\PSoC6/CapSense_Gesture.c ****         {
 559:Generated_Source\PSoC6/CapSense_Gesture.c ****             tmpValue = CapSense_NON_VALID_PARAMETER;
 560:Generated_Source\PSoC6/CapSense_Gesture.c ****         }
 561:Generated_Source\PSoC6/CapSense_Gesture.c ****         else
 562:Generated_Source\PSoC6/CapSense_Gesture.c ****         {
 563:Generated_Source\PSoC6/CapSense_Gesture.c ****             CapSense_GetTouchParams(widgetId, &CapSense_touchParams);
 197              		.loc 1 563 0
 198 0008 194D     		ldr	r5, .L25
 199 000a 2946     		mov	r1, r5
 200 000c FFF7FEFF 		bl	CapSense_GetTouchParams
 201              	.LVL20:
 564:Generated_Source\PSoC6/CapSense_Gesture.c **** 
 565:Generated_Source\PSoC6/CapSense_Gesture.c ****             switch (CapSense_touchParams.touchState)
 202              		.loc 1 565 0
 203 0010 2B7A     		ldrb	r3, [r5, #8]	@ zero_extendqisi2
 204 0012 5BB1     		cbz	r3, .L18
 205 0014 012B     		cmp	r3, #1
 206 0016 1AD1     		bne	.L23
 566:Generated_Source\PSoC6/CapSense_Gesture.c ****             {
 567:Generated_Source\PSoC6/CapSense_Gesture.c ****             case CapSense_TOUCH_UNRECOGNIZED:
 568:Generated_Source\PSoC6/CapSense_Gesture.c ****                 if (CapSense_touchParams.touchNumber == 0u)
 207              		.loc 1 568 0
 208 0018 6B7A     		ldrb	r3, [r5, #9]	@ zero_extendqisi2
 209 001a FBB9     		cbnz	r3, .L22
 569:Generated_Source\PSoC6/CapSense_Gesture.c ****                 {
 570:Generated_Source\PSoC6/CapSense_Gesture.c ****                     CapSense_touchParams.touchState = CapSense_TOUCH_VALID;
 210              		.loc 1 570 0
 211 001c 0025     		movs	r5, #0
 212 001e 144B     		ldr	r3, .L25
 213 0020 1D72     		strb	r5, [r3, #8]
 571:Generated_Source\PSoC6/CapSense_Gesture.c ****                     CapSense_TMG_InitGestures(&CapSense_dsRam.gestures);
 214              		.loc 1 571 0
 215 0022 1448     		ldr	r0, .L25+4
 216 0024 FFF7FEFF 		bl	Gesture_Init
 217              	.LVL21:
 572:Generated_Source\PSoC6/CapSense_Gesture.c ****                     tmpValue = CapSense_NO_GESTURE;
 218              		.loc 1 572 0
 219 0028 2846     		mov	r0, r5
 220 002a 18E0     		b	.L16
 221              	.LVL22:
 222              	.L18:
 573:Generated_Source\PSoC6/CapSense_Gesture.c ****                 }
 574:Generated_Source\PSoC6/CapSense_Gesture.c ****                 else
ARM GAS  C:\Users\Agentos\AppData\Local\Temp\cclJw0mT.s 			page 15


 575:Generated_Source\PSoC6/CapSense_Gesture.c ****                 {
 576:Generated_Source\PSoC6/CapSense_Gesture.c ****                     tmpValue = CapSense_UNRECOGNIZED_GESTURE;
 577:Generated_Source\PSoC6/CapSense_Gesture.c ****                 }
 578:Generated_Source\PSoC6/CapSense_Gesture.c ****                 break;
 579:Generated_Source\PSoC6/CapSense_Gesture.c **** 
 580:Generated_Source\PSoC6/CapSense_Gesture.c ****             case CapSense_TOUCH_VALID:
 581:Generated_Source\PSoC6/CapSense_Gesture.c ****                 if (CapSense_touchParams.touchNumber > CapSense_touchParams.maxTouchNumber)
 223              		.loc 1 581 0
 224 002c 104B     		ldr	r3, .L25
 225 002e 587A     		ldrb	r0, [r3, #9]	@ zero_extendqisi2
 226 0030 9B7A     		ldrb	r3, [r3, #10]	@ zero_extendqisi2
 227 0032 9842     		cmp	r0, r3
 228 0034 04D9     		bls	.L20
 582:Generated_Source\PSoC6/CapSense_Gesture.c ****                 {
 583:Generated_Source\PSoC6/CapSense_Gesture.c ****                     CapSense_touchParams.touchState = CapSense_TOUCH_UNRECOGNIZED;
 229              		.loc 1 583 0
 230 0036 0122     		movs	r2, #1
 231 0038 0D4B     		ldr	r3, .L25
 232 003a 1A72     		strb	r2, [r3, #8]
 233              	.LVL23:
 584:Generated_Source\PSoC6/CapSense_Gesture.c ****                     tmpValue = CapSense_UNRECOGNIZED_GESTURE;
 234              		.loc 1 584 0
 235 003c FE20     		movs	r0, #254
 236 003e 0EE0     		b	.L16
 237              	.LVL24:
 238              	.L20:
 585:Generated_Source\PSoC6/CapSense_Gesture.c ****                 }
 586:Generated_Source\PSoC6/CapSense_Gesture.c ****                 else
 587:Generated_Source\PSoC6/CapSense_Gesture.c ****                 {
 588:Generated_Source\PSoC6/CapSense_Gesture.c ****                     tmpValue = CapSense_TMG_DecodeAllGestures((uint32)CapSense_touchParams.touchNum
 239              		.loc 1 588 0
 240 0040 0B4A     		ldr	r2, .L25
 241 0042 0D4B     		ldr	r3, .L25+8
 242 0044 D3F80011 		ldr	r1, [r3, #256]
 243 0048 FFF7FEFF 		bl	CapSense_TMG_DecodeAllGestures
 244              	.LVL25:
 245 004c 07E0     		b	.L16
 246              	.LVL26:
 247              	.L23:
 589:Generated_Source\PSoC6/CapSense_Gesture.c ****                                                                       CapSense_dsRam.timestamp, Cap
 590:Generated_Source\PSoC6/CapSense_Gesture.c **** 
 591:Generated_Source\PSoC6/CapSense_Gesture.c ****                     #if (0u != CapSense_ONE_FINGER_EDGE_SWIPE_EN)
 592:Generated_Source\PSoC6/CapSense_Gesture.c ****                         /* Checks if the gesture is EGDE SWIPE */
 593:Generated_Source\PSoC6/CapSense_Gesture.c ****                         if (CapSense_ONE_FINGER_EDGE_SWIPE_GROUP == (tmpValue & CapSense_GESTURE_GR
 594:Generated_Source\PSoC6/CapSense_Gesture.c ****                         {
 595:Generated_Source\PSoC6/CapSense_Gesture.c ****                             /* Set flag that the gesture is EGDE SWIPE */
 596:Generated_Source\PSoC6/CapSense_Gesture.c ****                             gestureCounter = CapSense_ONE_FINGER_EDGE_SWIPE_GESTURE;
 597:Generated_Source\PSoC6/CapSense_Gesture.c ****                         }
 598:Generated_Source\PSoC6/CapSense_Gesture.c ****                         else if((gestureCounter == CapSense_ONE_FINGER_EDGE_SWIPE_GESTURE) && (tmpV
 599:Generated_Source\PSoC6/CapSense_Gesture.c ****                         {
 600:Generated_Source\PSoC6/CapSense_Gesture.c ****                             /* Set flag that the gesture is EGDE SWIPE after the TOUCHDOWN event on
 601:Generated_Source\PSoC6/CapSense_Gesture.c ****                             gestureCounter = 0u;
 602:Generated_Source\PSoC6/CapSense_Gesture.c ****                         }
 603:Generated_Source\PSoC6/CapSense_Gesture.c ****                         else
 604:Generated_Source\PSoC6/CapSense_Gesture.c ****                         {
 605:Generated_Source\PSoC6/CapSense_Gesture.c ****                             /* There was not EDGE SWIPE gestures */
 606:Generated_Source\PSoC6/CapSense_Gesture.c ****                         }
ARM GAS  C:\Users\Agentos\AppData\Local\Temp\cclJw0mT.s 			page 16


 607:Generated_Source\PSoC6/CapSense_Gesture.c **** 
 608:Generated_Source\PSoC6/CapSense_Gesture.c ****                         /* Checks if the gesture is INERTIAL_SCROLL and the TOUCHDOWN event has not
 609:Generated_Source\PSoC6/CapSense_Gesture.c ****                         if((tmpValue >= CapSense_ONE_FINGER_SCROLL_INERTIAL_UP) &&
 610:Generated_Source\PSoC6/CapSense_Gesture.c ****                            (tmpValue <= CapSense_ONE_FINGER_SCROLL_INERTIAL_RIGHT) &&
 611:Generated_Source\PSoC6/CapSense_Gesture.c ****                            (gestureCounter > 0u))
 612:Generated_Source\PSoC6/CapSense_Gesture.c ****                         {
 613:Generated_Source\PSoC6/CapSense_Gesture.c ****                             /* Block INERTIAL_SCROLL detecting */
 614:Generated_Source\PSoC6/CapSense_Gesture.c ****                             tmpValue = CapSense_NO_GESTURE;
 615:Generated_Source\PSoC6/CapSense_Gesture.c ****                         }
 616:Generated_Source\PSoC6/CapSense_Gesture.c ****                     #endif /* (0u != CapSense_ONE_FINGER_EDGE_SWIPE_EN) */
 617:Generated_Source\PSoC6/CapSense_Gesture.c ****                 }
 618:Generated_Source\PSoC6/CapSense_Gesture.c ****                 break;
 619:Generated_Source\PSoC6/CapSense_Gesture.c ****             default:
 620:Generated_Source\PSoC6/CapSense_Gesture.c ****                 CapSense_touchParams.touchState = CapSense_TOUCH_UNRECOGNIZED;
 248              		.loc 1 620 0
 249 004e 0122     		movs	r2, #1
 250 0050 074B     		ldr	r3, .L25
 251 0052 1A72     		strb	r2, [r3, #8]
 252              	.LVL27:
 621:Generated_Source\PSoC6/CapSense_Gesture.c ****                 tmpValue = CapSense_UNRECOGNIZED_GESTURE;
 253              		.loc 1 621 0
 254 0054 FE20     		movs	r0, #254
 622:Generated_Source\PSoC6/CapSense_Gesture.c ****                 break;
 255              		.loc 1 622 0
 256 0056 02E0     		b	.L16
 257              	.LVL28:
 258              	.L21:
 559:Generated_Source\PSoC6/CapSense_Gesture.c ****         }
 259              		.loc 1 559 0
 260 0058 FF20     		movs	r0, #255
 261              	.LVL29:
 262 005a 00E0     		b	.L16
 263              	.L22:
 576:Generated_Source\PSoC6/CapSense_Gesture.c ****                 }
 264              		.loc 1 576 0
 265 005c FE20     		movs	r0, #254
 266              	.L16:
 267              	.LVL30:
 623:Generated_Source\PSoC6/CapSense_Gesture.c ****             }
 624:Generated_Source\PSoC6/CapSense_Gesture.c ****         }
 625:Generated_Source\PSoC6/CapSense_Gesture.c **** 
 626:Generated_Source\PSoC6/CapSense_Gesture.c ****         ((CapSense_RAM_WD_BASE_STRUCT *)(CapSense_dsFlash.wdgtArray[widgetId].ptr2WdgtRam))->gestur
 268              		.loc 1 626 0
 269 005e 04EB4404 		add	r4, r4, r4, lsl #1
 270              	.LVL31:
 271 0062 2301     		lsls	r3, r4, #4
 272 0064 054A     		ldr	r2, .L25+12
 273 0066 1344     		add	r3, r3, r2
 274 0068 5B68     		ldr	r3, [r3, #4]
 275 006a 9874     		strb	r0, [r3, #18]
 627:Generated_Source\PSoC6/CapSense_Gesture.c **** 
 628:Generated_Source\PSoC6/CapSense_Gesture.c ****         #if ((CapSense_ENABLE == CapSense_ONE_FINGER_SCROLL_EN) || \
 629:Generated_Source\PSoC6/CapSense_Gesture.c ****              (CapSense_ENABLE == CapSense_TWO_FINGER_SCROLL_EN))
 630:Generated_Source\PSoC6/CapSense_Gesture.c **** 
 631:Generated_Source\PSoC6/CapSense_Gesture.c ****             if((tmpValue >= CapSense_ONE_FINGER_SCROLL_UP) &&
 632:Generated_Source\PSoC6/CapSense_Gesture.c ****                (tmpValue <= CapSense_TWO_FINGER_SCROLL_RIGHT))
 633:Generated_Source\PSoC6/CapSense_Gesture.c ****             {
ARM GAS  C:\Users\Agentos\AppData\Local\Temp\cclJw0mT.s 			page 17


 634:Generated_Source\PSoC6/CapSense_Gesture.c ****                 ((CapSense_RAM_WD_BASE_STRUCT *)(CapSense_dsFlash.wdgtArray[widgetId].ptr2WdgtRam))
 635:Generated_Source\PSoC6/CapSense_Gesture.c ****             }
 636:Generated_Source\PSoC6/CapSense_Gesture.c ****             if((tmpValue >= CapSense_ONE_FINGER_SCROLL_INERTIAL_UP) &&
 637:Generated_Source\PSoC6/CapSense_Gesture.c ****                (tmpValue <= CapSense_TWO_FINGER_SCROLL_INERTIAL_RIGHT))
 638:Generated_Source\PSoC6/CapSense_Gesture.c ****             {
 639:Generated_Source\PSoC6/CapSense_Gesture.c ****                 ((CapSense_RAM_WD_BASE_STRUCT *)(CapSense_dsFlash.wdgtArray[widgetId].ptr2WdgtRam))
 640:Generated_Source\PSoC6/CapSense_Gesture.c ****             }
 641:Generated_Source\PSoC6/CapSense_Gesture.c ****         #endif /* ((CapSense_ENABLE == CapSense_ONE_FINGER_SCROLL_EN) || \
 642:Generated_Source\PSoC6/CapSense_Gesture.c ****                    (CapSense_ENABLE == CapSense_TWO_FINGER_SCROLL_EN)) */
 643:Generated_Source\PSoC6/CapSense_Gesture.c **** 
 644:Generated_Source\PSoC6/CapSense_Gesture.c ****         return (tmpValue);
 645:Generated_Source\PSoC6/CapSense_Gesture.c ****     }
 276              		.loc 1 645 0
 277 006c 38BD     		pop	{r3, r4, r5, pc}
 278              	.L26:
 279 006e 00BF     		.align	2
 280              	.L25:
 281 0070 00000000 		.word	.LANCHOR0
 282 0074 A4000000 		.word	CapSense_dsRam+164
 283 0078 00000000 		.word	CapSense_dsRam
 284 007c 00000000 		.word	CapSense_dsFlash
 285              		.cfi_endproc
 286              	.LFE135:
 287              		.size	CapSense_DecodeWidgetGestures, .-CapSense_DecodeWidgetGestures
 288              		.section	.text.CapSense_IncrementGestureTimestamp,"ax",%progbits
 289              		.align	2
 290              		.global	CapSense_IncrementGestureTimestamp
 291              		.thumb
 292              		.thumb_func
 293              		.type	CapSense_IncrementGestureTimestamp, %function
 294              	CapSense_IncrementGestureTimestamp:
 295              	.LFB136:
 646:Generated_Source\PSoC6/CapSense_Gesture.c **** #endif /* (CapSense_ENABLE == CapSense_GES_GLOBAL_EN) */
 647:Generated_Source\PSoC6/CapSense_Gesture.c **** 
 648:Generated_Source\PSoC6/CapSense_Gesture.c **** 
 649:Generated_Source\PSoC6/CapSense_Gesture.c **** #if (CapSense_ENABLE == CapSense_BALLISTIC_MULTIPLIER_EN)
 650:Generated_Source\PSoC6/CapSense_Gesture.c ****     /*******************************************************************************
 651:Generated_Source\PSoC6/CapSense_Gesture.c ****     * Function Name: CapSense_InitializeBallisticMultiplier
 652:Generated_Source\PSoC6/CapSense_Gesture.c ****     ****************************************************************************//**
 653:Generated_Source\PSoC6/CapSense_Gesture.c ****     *
 654:Generated_Source\PSoC6/CapSense_Gesture.c ****     * \brief
 655:Generated_Source\PSoC6/CapSense_Gesture.c ****     *  This function is intended to initialize the internal parameters of the
 656:Generated_Source\PSoC6/CapSense_Gesture.c ****     *  ballistic multiplier filter.
 657:Generated_Source\PSoC6/CapSense_Gesture.c ****     *
 658:Generated_Source\PSoC6/CapSense_Gesture.c ****     * \details
 659:Generated_Source\PSoC6/CapSense_Gesture.c ****     *  This routine initializes the parameters internal to the ballistic multiplier
 660:Generated_Source\PSoC6/CapSense_Gesture.c ****     *  algorithm. It has to be called once prior to call the
 661:Generated_Source\PSoC6/CapSense_Gesture.c ****     *  CapSense_RunBallisticMultiplier() function.
 662:Generated_Source\PSoC6/CapSense_Gesture.c ****     *  This is an internal function. Calling this function from application layer is
 663:Generated_Source\PSoC6/CapSense_Gesture.c ****     *  not recommended.
 664:Generated_Source\PSoC6/CapSense_Gesture.c ****     *
 665:Generated_Source\PSoC6/CapSense_Gesture.c ****     *******************************************************************************/
 666:Generated_Source\PSoC6/CapSense_Gesture.c ****     void CapSense_InitializeBallisticMultiplier(void)
 667:Generated_Source\PSoC6/CapSense_Gesture.c ****     {
 668:Generated_Source\PSoC6/CapSense_Gesture.c ****         int16 diffPosInit[CapSense_BALLISTIC_DIMENSIONS_NUM] = {0, 0};
 669:Generated_Source\PSoC6/CapSense_Gesture.c **** 
 670:Generated_Source\PSoC6/CapSense_Gesture.c ****         CapSense_bmPrevFingerNum   = 0u;
ARM GAS  C:\Users\Agentos\AppData\Local\Temp\cclJw0mT.s 			page 18


 671:Generated_Source\PSoC6/CapSense_Gesture.c ****         CapSense_dsRam.ballisticConfig.touchNumber = 0u;
 672:Generated_Source\PSoC6/CapSense_Gesture.c ****         CapSense_bmPrevFingerPos.x = CapSense_TOUCHPAD_POS_NONE;
 673:Generated_Source\PSoC6/CapSense_Gesture.c ****         CapSense_bmPrevFingerPos.y = CapSense_TOUCHPAD_POS_NONE;
 674:Generated_Source\PSoC6/CapSense_Gesture.c **** 
 675:Generated_Source\PSoC6/CapSense_Gesture.c ****         CapSense_TMG_BallisticsMultiplier(&CapSense_dsRam.ballisticConfig, CapSense_dsRam.timestamp
 676:Generated_Source\PSoC6/CapSense_Gesture.c ****     }
 677:Generated_Source\PSoC6/CapSense_Gesture.c **** 
 678:Generated_Source\PSoC6/CapSense_Gesture.c **** 
 679:Generated_Source\PSoC6/CapSense_Gesture.c ****     /*******************************************************************************
 680:Generated_Source\PSoC6/CapSense_Gesture.c ****     * Function Name: CapSense_RunBallisticMultiplier
 681:Generated_Source\PSoC6/CapSense_Gesture.c ****     ****************************************************************************//**
 682:Generated_Source\PSoC6/CapSense_Gesture.c ****     *
 683:Generated_Source\PSoC6/CapSense_Gesture.c ****     * \brief
 684:Generated_Source\PSoC6/CapSense_Gesture.c ****     *  This function runs the Ballistic multiplier algorithm fo the widget specified
 685:Generated_Source\PSoC6/CapSense_Gesture.c ****     *  by the wdgtIndex parameter.
 686:Generated_Source\PSoC6/CapSense_Gesture.c ****     *
 687:Generated_Source\PSoC6/CapSense_Gesture.c ****     * \details
 688:Generated_Source\PSoC6/CapSense_Gesture.c ****     *  The CapSense_RunBallisticMultiplier() routine implements the following functionality:
 689:Generated_Source\PSoC6/CapSense_Gesture.c ****     *   - Gets the type of the widget passed through the wdgtIndex
 690:Generated_Source\PSoC6/CapSense_Gesture.c ****     *     parameter.
 691:Generated_Source\PSoC6/CapSense_Gesture.c ****     *   - initializes the CapSense_ballisticMultiplier based on the type of
 692:Generated_Source\PSoC6/CapSense_Gesture.c ****     *     the widget passed through the wdgtIndex parameter.
 693:Generated_Source\PSoC6/CapSense_Gesture.c ****     *   - Runs the Ballistic multiplier algorithm for the specified widget.
 694:Generated_Source\PSoC6/CapSense_Gesture.c ****     *   - Writes a processed position to the posXDelta and posYDelta registers in the
 695:Generated_Source\PSoC6/CapSense_Gesture.c ****     *     CapSense_RAM_WD_CSD_TOUCHPAD_STRUCT structure.
 696:Generated_Source\PSoC6/CapSense_Gesture.c ****     *   This is an internal function. Calling this function from application layer is
 697:Generated_Source\PSoC6/CapSense_Gesture.c ****     *   not recommended.
 698:Generated_Source\PSoC6/CapSense_Gesture.c ****     *
 699:Generated_Source\PSoC6/CapSense_Gesture.c ****     * \param wdgtIndex
 700:Generated_Source\PSoC6/CapSense_Gesture.c ****     *  Specifies the ID number of the widget, the position, processed by Ballistic multiplier
 701:Generated_Source\PSoC6/CapSense_Gesture.c ****     *  needs to be returned for.
 702:Generated_Source\PSoC6/CapSense_Gesture.c ****     *
 703:Generated_Source\PSoC6/CapSense_Gesture.c ****     *******************************************************************************/
 704:Generated_Source\PSoC6/CapSense_Gesture.c ****     void CapSense_RunBallisticMultiplier(uint32 wdgtIndex)
 705:Generated_Source\PSoC6/CapSense_Gesture.c ****     {
 706:Generated_Source\PSoC6/CapSense_Gesture.c ****         CapSense_FLASH_WD_STRUCT const *ptrFlashWdgt;
 707:Generated_Source\PSoC6/CapSense_Gesture.c ****         CapSense_RAM_WD_CSD_TOUCHPAD_STRUCT *ptrRamWdgtTp;
 708:Generated_Source\PSoC6/CapSense_Gesture.c **** 
 709:Generated_Source\PSoC6/CapSense_Gesture.c ****         uint8 fingerNum = 0u;
 710:Generated_Source\PSoC6/CapSense_Gesture.c ****         int16 diffPosition[CapSense_BALLISTIC_DIMENSIONS_NUM];
 711:Generated_Source\PSoC6/CapSense_Gesture.c ****         CapSense_TMG_POSITION_STRUCT curPos = {CapSense_TOUCHPAD_POS_NONE, CapSense_TOUCHPAD_POS_NO
 712:Generated_Source\PSoC6/CapSense_Gesture.c **** 
 713:Generated_Source\PSoC6/CapSense_Gesture.c ****         ptrFlashWdgt = &CapSense_dsFlash.wdgtArray[wdgtIndex];
 714:Generated_Source\PSoC6/CapSense_Gesture.c ****         ptrRamWdgtTp = (CapSense_RAM_WD_CSD_TOUCHPAD_STRUCT*)ptrFlashWdgt->ptr2WdgtRam;
 715:Generated_Source\PSoC6/CapSense_Gesture.c **** 
 716:Generated_Source\PSoC6/CapSense_Gesture.c ****         if(CapSense_BALLISTIC_EN_WIDGET_ID == wdgtIndex)
 717:Generated_Source\PSoC6/CapSense_Gesture.c ****         {
 718:Generated_Source\PSoC6/CapSense_Gesture.c ****             /* Get centroid position data for 5x5 CSD touchpad */
 719:Generated_Source\PSoC6/CapSense_Gesture.c ****             #if (CapSense_ENABLE == CapSense_CENTROID_5X5_CSD_EN)
 720:Generated_Source\PSoC6/CapSense_Gesture.c ****                 if (0u != (ptrFlashWdgt->staticConfig & CapSense_CENTROID_5X5_MASK))
 721:Generated_Source\PSoC6/CapSense_Gesture.c ****                 {
 722:Generated_Source\PSoC6/CapSense_Gesture.c ****                     curPos.x = ptrRamWdgtTp->position.pos[CapSense_FIRST_FINGER_ID].x;
 723:Generated_Source\PSoC6/CapSense_Gesture.c ****                     curPos.y = ptrRamWdgtTp->position.pos[CapSense_FIRST_FINGER_ID].y;
 724:Generated_Source\PSoC6/CapSense_Gesture.c ****                     fingerNum = ((CapSense_TOUCHPAD_POS_NONE != curPos.x) &&
 725:Generated_Source\PSoC6/CapSense_Gesture.c ****                                  (CapSense_TOUCHPAD_POS_NONE != curPos.y)) ? ptrRamWdgtTp->position
 726:Generated_Source\PSoC6/CapSense_Gesture.c ****                 }
 727:Generated_Source\PSoC6/CapSense_Gesture.c ****             #endif
ARM GAS  C:\Users\Agentos\AppData\Local\Temp\cclJw0mT.s 			page 19


 728:Generated_Source\PSoC6/CapSense_Gesture.c **** 
 729:Generated_Source\PSoC6/CapSense_Gesture.c ****             /* Get centroid position data for 3x3 CSD touchpad */
 730:Generated_Source\PSoC6/CapSense_Gesture.c ****             #if (CapSense_ENABLE == CapSense_CENTROID_3X3_CSD_EN)
 731:Generated_Source\PSoC6/CapSense_Gesture.c ****                 if (0u != (ptrFlashWdgt->staticConfig & CapSense_CENTROID_3X3_MASK))
 732:Generated_Source\PSoC6/CapSense_Gesture.c ****                 {
 733:Generated_Source\PSoC6/CapSense_Gesture.c ****                     curPos.x = ptrRamWdgtTp->posX;
 734:Generated_Source\PSoC6/CapSense_Gesture.c ****                     curPos.y = ptrRamWdgtTp->posY;
 735:Generated_Source\PSoC6/CapSense_Gesture.c ****                     fingerNum = ((CapSense_TOUCHPAD_POS_NONE != curPos.x) &&
 736:Generated_Source\PSoC6/CapSense_Gesture.c ****                                  (CapSense_TOUCHPAD_POS_NONE != curPos.y)) ? 1u : 0u;
 737:Generated_Source\PSoC6/CapSense_Gesture.c ****                 }
 738:Generated_Source\PSoC6/CapSense_Gesture.c ****             #endif
 739:Generated_Source\PSoC6/CapSense_Gesture.c **** 
 740:Generated_Source\PSoC6/CapSense_Gesture.c ****             /* Reset the Ballistic multiplier algorithm to initial state in case if another finger 
 741:Generated_Source\PSoC6/CapSense_Gesture.c ****              * as first.
 742:Generated_Source\PSoC6/CapSense_Gesture.c ****             */
 743:Generated_Source\PSoC6/CapSense_Gesture.c ****             if((0u != fingerNum) && (CapSense_bmPrevFingerNum > fingerNum))
 744:Generated_Source\PSoC6/CapSense_Gesture.c ****             {
 745:Generated_Source\PSoC6/CapSense_Gesture.c ****                 CapSense_InitializeBallisticMultiplier();
 746:Generated_Source\PSoC6/CapSense_Gesture.c ****             }
 747:Generated_Source\PSoC6/CapSense_Gesture.c **** 
 748:Generated_Source\PSoC6/CapSense_Gesture.c ****             if(0u != fingerNum)
 749:Generated_Source\PSoC6/CapSense_Gesture.c ****             {
 750:Generated_Source\PSoC6/CapSense_Gesture.c ****                 /* Reset the internal variables to the current values if the finger is pressing the
 751:Generated_Source\PSoC6/CapSense_Gesture.c ****                 if((CapSense_TOUCHPAD_POS_NONE == CapSense_bmPrevFingerPos.x) ||
 752:Generated_Source\PSoC6/CapSense_Gesture.c ****                    (CapSense_TOUCHPAD_POS_NONE == CapSense_bmPrevFingerPos.y))
 753:Generated_Source\PSoC6/CapSense_Gesture.c ****                 {
 754:Generated_Source\PSoC6/CapSense_Gesture.c ****                     CapSense_bmPrevFingerNum   = fingerNum;
 755:Generated_Source\PSoC6/CapSense_Gesture.c ****                     CapSense_bmPrevFingerPos.x = curPos.x;
 756:Generated_Source\PSoC6/CapSense_Gesture.c ****                     CapSense_bmPrevFingerPos.y = curPos.y;
 757:Generated_Source\PSoC6/CapSense_Gesture.c ****                 }
 758:Generated_Source\PSoC6/CapSense_Gesture.c **** 
 759:Generated_Source\PSoC6/CapSense_Gesture.c ****                 /* Calculates the difference between current and previous XY of the first finger. *
 760:Generated_Source\PSoC6/CapSense_Gesture.c ****                 diffPosition[CapSense_X_COORDINATE_INDEX] = (int16)curPos.x - (int16)CapSense_bmPre
 761:Generated_Source\PSoC6/CapSense_Gesture.c ****                 diffPosition[CapSense_Y_COORDINATE_INDEX] = (int16)curPos.y - (int16)CapSense_bmPre
 762:Generated_Source\PSoC6/CapSense_Gesture.c ****             }
 763:Generated_Source\PSoC6/CapSense_Gesture.c ****             else
 764:Generated_Source\PSoC6/CapSense_Gesture.c ****             {
 765:Generated_Source\PSoC6/CapSense_Gesture.c ****                 /* Set the difference between current and previous XY and current number of fingers
 766:Generated_Source\PSoC6/CapSense_Gesture.c ****                  * to "0" if there are no touches detected.
 767:Generated_Source\PSoC6/CapSense_Gesture.c ****                 */
 768:Generated_Source\PSoC6/CapSense_Gesture.c ****                 fingerNum = 0u;
 769:Generated_Source\PSoC6/CapSense_Gesture.c ****                 diffPosition[CapSense_X_COORDINATE_INDEX] = 0;
 770:Generated_Source\PSoC6/CapSense_Gesture.c ****                 diffPosition[CapSense_Y_COORDINATE_INDEX] = 0;
 771:Generated_Source\PSoC6/CapSense_Gesture.c ****             }
 772:Generated_Source\PSoC6/CapSense_Gesture.c **** 
 773:Generated_Source\PSoC6/CapSense_Gesture.c ****             /* Initialize the touchNumber field of the ballisticConfig structure with the actual nu
 774:Generated_Source\PSoC6/CapSense_Gesture.c ****              * on the touchpad surface.
 775:Generated_Source\PSoC6/CapSense_Gesture.c ****             */
 776:Generated_Source\PSoC6/CapSense_Gesture.c ****             CapSense_dsRam.ballisticConfig.touchNumber = fingerNum;
 777:Generated_Source\PSoC6/CapSense_Gesture.c **** 
 778:Generated_Source\PSoC6/CapSense_Gesture.c ****             /* Run the Ballistic multiplier algorithm. */
 779:Generated_Source\PSoC6/CapSense_Gesture.c ****             CapSense_TMG_BallisticsMultiplier(&CapSense_dsRam.ballisticConfig, CapSense_dsRam.times
 780:Generated_Source\PSoC6/CapSense_Gesture.c **** 
 781:Generated_Source\PSoC6/CapSense_Gesture.c ****             /* Save the processed difference to the target registers. */
 782:Generated_Source\PSoC6/CapSense_Gesture.c ****             ptrRamWdgtTp->posXDelta = diffPosition[CapSense_X_COORDINATE_INDEX];
 783:Generated_Source\PSoC6/CapSense_Gesture.c ****             ptrRamWdgtTp->posYDelta = diffPosition[CapSense_Y_COORDINATE_INDEX];
 784:Generated_Source\PSoC6/CapSense_Gesture.c **** 
ARM GAS  C:\Users\Agentos\AppData\Local\Temp\cclJw0mT.s 			page 20


 785:Generated_Source\PSoC6/CapSense_Gesture.c ****             /* Store the cuttent XY position of the first finger and the number of fingers on the t
 786:Generated_Source\PSoC6/CapSense_Gesture.c ****              * the next call of the CapSense_RunBallisticMultiplier() function.
 787:Generated_Source\PSoC6/CapSense_Gesture.c ****             */
 788:Generated_Source\PSoC6/CapSense_Gesture.c ****             CapSense_bmPrevFingerNum   = fingerNum;
 789:Generated_Source\PSoC6/CapSense_Gesture.c ****             CapSense_bmPrevFingerPos.x = curPos.x;
 790:Generated_Source\PSoC6/CapSense_Gesture.c ****             CapSense_bmPrevFingerPos.y = curPos.y;
 791:Generated_Source\PSoC6/CapSense_Gesture.c ****         }
 792:Generated_Source\PSoC6/CapSense_Gesture.c ****         else
 793:Generated_Source\PSoC6/CapSense_Gesture.c ****         {
 794:Generated_Source\PSoC6/CapSense_Gesture.c ****             /* Set the posXDelta and posYDelta registers to "0" in case of call this function for w
 795:Generated_Source\PSoC6/CapSense_Gesture.c ****             ptrRamWdgtTp->posXDelta = 0;
 796:Generated_Source\PSoC6/CapSense_Gesture.c ****             ptrRamWdgtTp->posYDelta = 0;
 797:Generated_Source\PSoC6/CapSense_Gesture.c ****         }
 798:Generated_Source\PSoC6/CapSense_Gesture.c ****     }
 799:Generated_Source\PSoC6/CapSense_Gesture.c **** #endif /* (CapSense_ENABLE == CapSense_BALLISTIC_MULTIPLIER_EN) */
 800:Generated_Source\PSoC6/CapSense_Gesture.c **** 
 801:Generated_Source\PSoC6/CapSense_Gesture.c **** 
 802:Generated_Source\PSoC6/CapSense_Gesture.c **** /*******************************************************************************
 803:Generated_Source\PSoC6/CapSense_Gesture.c **** * Function Name: CapSense_IncrementGestureTimestamp
 804:Generated_Source\PSoC6/CapSense_Gesture.c **** ****************************************************************************//**
 805:Generated_Source\PSoC6/CapSense_Gesture.c **** *
 806:Generated_Source\PSoC6/CapSense_Gesture.c **** * \brief
 807:Generated_Source\PSoC6/CapSense_Gesture.c **** *  Increases the timestamp register for the predefined timestamp interval.
 808:Generated_Source\PSoC6/CapSense_Gesture.c **** *
 809:Generated_Source\PSoC6/CapSense_Gesture.c **** * \details
 810:Generated_Source\PSoC6/CapSense_Gesture.c **** *  This function increments the Component timestamp
 811:Generated_Source\PSoC6/CapSense_Gesture.c **** *  (CapSense_TIMESTAMP_VALUE register) by the interval specified
 812:Generated_Source\PSoC6/CapSense_Gesture.c **** *  in the CapSense_TIMESTAMP_INTERVAL_VALUE register. The unit for
 813:Generated_Source\PSoC6/CapSense_Gesture.c **** *  both registers is millisecond and default value of
 814:Generated_Source\PSoC6/CapSense_Gesture.c **** *  CapSense_TIMESTAMP_INTERVAL_VALUE is 1.
 815:Generated_Source\PSoC6/CapSense_Gesture.c **** *
 816:Generated_Source\PSoC6/CapSense_Gesture.c **** *  It is the application layer responsibility to periodically call this
 817:Generated_Source\PSoC6/CapSense_Gesture.c **** *  function or register a periodic callback to this function to keep the
 818:Generated_Source\PSoC6/CapSense_Gesture.c **** *  Component timestamp updated and operational, which is vital for the
 819:Generated_Source\PSoC6/CapSense_Gesture.c **** *  operation of Gesture and Ballistic multiplier features.
 820:Generated_Source\PSoC6/CapSense_Gesture.c **** *
 821:Generated_Source\PSoC6/CapSense_Gesture.c **** *  The Component timestamp can be updated in one of the three methods:
 822:Generated_Source\PSoC6/CapSense_Gesture.c **** *  - Register a periodic callback for the
 823:Generated_Source\PSoC6/CapSense_Gesture.c **** *    CapSense_IncrementGestureTimestamp() function.
 824:Generated_Source\PSoC6/CapSense_Gesture.c **** *  - Periodically call the CapSense_IncrementGestureTimestamp() function
 825:Generated_Source\PSoC6/CapSense_Gesture.c **** *    by application layer.
 826:Generated_Source\PSoC6/CapSense_Gesture.c **** *  - Directly modify the timestamp using the
 827:Generated_Source\PSoC6/CapSense_Gesture.c **** *    CapSense_SetGestureTimestamp() function.
 828:Generated_Source\PSoC6/CapSense_Gesture.c **** *
 829:Generated_Source\PSoC6/CapSense_Gesture.c **** *  The interval at which this function is called should match with interval
 830:Generated_Source\PSoC6/CapSense_Gesture.c **** *  defined in CapSense_TIMESTAMP_INTERVAL_VALUE register. Either the
 831:Generated_Source\PSoC6/CapSense_Gesture.c **** *  register value can be updated to match the callback interval or the callback
 832:Generated_Source\PSoC6/CapSense_Gesture.c **** *  can be made at interval set in the register.
 833:Generated_Source\PSoC6/CapSense_Gesture.c **** *
 834:Generated_Source\PSoC6/CapSense_Gesture.c **** *  If a timestamp is available from another source or from host controller,
 835:Generated_Source\PSoC6/CapSense_Gesture.c **** *  application layer may choose to periodically update the Component timestamp
 836:Generated_Source\PSoC6/CapSense_Gesture.c **** *  by using CapSense_SetGestureTimestamp() function instead of
 837:Generated_Source\PSoC6/CapSense_Gesture.c **** *  registering a callback.
 838:Generated_Source\PSoC6/CapSense_Gesture.c **** *
 839:Generated_Source\PSoC6/CapSense_Gesture.c **** *******************************************************************************/
 840:Generated_Source\PSoC6/CapSense_Gesture.c **** void CapSense_IncrementGestureTimestamp(void)
 841:Generated_Source\PSoC6/CapSense_Gesture.c **** {
ARM GAS  C:\Users\Agentos\AppData\Local\Temp\cclJw0mT.s 			page 21


 296              		.loc 1 841 0
 297              		.cfi_startproc
 298              		@ args = 0, pretend = 0, frame = 0
 299              		@ frame_needed = 0, uses_anonymous_args = 0
 300              		@ link register save eliminated.
 842:Generated_Source\PSoC6/CapSense_Gesture.c ****     CapSense_dsRam.timestamp += CapSense_dsRam.timestampInterval;
 301              		.loc 1 842 0
 302 0000 044B     		ldr	r3, .L28
 303 0002 D3F8FC20 		ldr	r2, [r3, #252]
 304 0006 D3F80011 		ldr	r1, [r3, #256]
 305 000a 0A44     		add	r2, r2, r1
 306 000c C3F80021 		str	r2, [r3, #256]
 307 0010 7047     		bx	lr
 308              	.L29:
 309 0012 00BF     		.align	2
 310              	.L28:
 311 0014 00000000 		.word	CapSense_dsRam
 312              		.cfi_endproc
 313              	.LFE136:
 314              		.size	CapSense_IncrementGestureTimestamp, .-CapSense_IncrementGestureTimestamp
 315              		.section	.text.CapSense_SetGestureTimestamp,"ax",%progbits
 316              		.align	2
 317              		.global	CapSense_SetGestureTimestamp
 318              		.thumb
 319              		.thumb_func
 320              		.type	CapSense_SetGestureTimestamp, %function
 321              	CapSense_SetGestureTimestamp:
 322              	.LFB137:
 843:Generated_Source\PSoC6/CapSense_Gesture.c **** }
 844:Generated_Source\PSoC6/CapSense_Gesture.c **** 
 845:Generated_Source\PSoC6/CapSense_Gesture.c **** 
 846:Generated_Source\PSoC6/CapSense_Gesture.c **** /*******************************************************************************
 847:Generated_Source\PSoC6/CapSense_Gesture.c **** * Function Name: CapSense_SetGestureTimestamp
 848:Generated_Source\PSoC6/CapSense_Gesture.c **** ****************************************************************************//**
 849:Generated_Source\PSoC6/CapSense_Gesture.c **** *
 850:Generated_Source\PSoC6/CapSense_Gesture.c **** * \brief
 851:Generated_Source\PSoC6/CapSense_Gesture.c **** *  Rewrites the timestamp register by the specified value.
 852:Generated_Source\PSoC6/CapSense_Gesture.c **** *
 853:Generated_Source\PSoC6/CapSense_Gesture.c **** * \details
 854:Generated_Source\PSoC6/CapSense_Gesture.c **** *  This function writes the specified value into the Component timestamp
 855:Generated_Source\PSoC6/CapSense_Gesture.c **** *  (i.e. CapSense_TIMESTAMP_VALUE register).
 856:Generated_Source\PSoC6/CapSense_Gesture.c **** *
 857:Generated_Source\PSoC6/CapSense_Gesture.c **** *  If a timestamp is available from another source or from host controller,
 858:Generated_Source\PSoC6/CapSense_Gesture.c **** *  application layer may choose to periodically update the Component timestamp
 859:Generated_Source\PSoC6/CapSense_Gesture.c **** *  by using this function instead of registering a callback.
 860:Generated_Source\PSoC6/CapSense_Gesture.c **** *
 861:Generated_Source\PSoC6/CapSense_Gesture.c **** *  It is not recommended to modify the Component timestamp arbitrarily or
 862:Generated_Source\PSoC6/CapSense_Gesture.c **** *  simultaneously use with the CapSense_IncrementGestureTimestamp()
 863:Generated_Source\PSoC6/CapSense_Gesture.c **** *  function.
 864:Generated_Source\PSoC6/CapSense_Gesture.c **** *
 865:Generated_Source\PSoC6/CapSense_Gesture.c **** * \param timestampValue
 866:Generated_Source\PSoC6/CapSense_Gesture.c **** *  Specifies the timestamp value (in ms).
 867:Generated_Source\PSoC6/CapSense_Gesture.c **** *
 868:Generated_Source\PSoC6/CapSense_Gesture.c **** *******************************************************************************/
 869:Generated_Source\PSoC6/CapSense_Gesture.c **** void CapSense_SetGestureTimestamp(uint32 timestampValue)
 870:Generated_Source\PSoC6/CapSense_Gesture.c **** {
 323              		.loc 1 870 0
ARM GAS  C:\Users\Agentos\AppData\Local\Temp\cclJw0mT.s 			page 22


 324              		.cfi_startproc
 325              		@ args = 0, pretend = 0, frame = 0
 326              		@ frame_needed = 0, uses_anonymous_args = 0
 327              		@ link register save eliminated.
 328              	.LVL32:
 871:Generated_Source\PSoC6/CapSense_Gesture.c ****     CapSense_dsRam.timestamp = timestampValue;
 329              		.loc 1 871 0
 330 0000 014B     		ldr	r3, .L31
 331 0002 C3F80001 		str	r0, [r3, #256]
 332 0006 7047     		bx	lr
 333              	.L32:
 334              		.align	2
 335              	.L31:
 336 0008 00000000 		.word	CapSense_dsRam
 337              		.cfi_endproc
 338              	.LFE137:
 339              		.size	CapSense_SetGestureTimestamp, .-CapSense_SetGestureTimestamp
 340              		.section	.rodata.str1.4,"aMS",%progbits,1
 341              		.align	2
 342              	.LC0:
 343 0000 47656E65 		.ascii	"Generated_Source\\PSoC6\\CapSense_Gesture.c\000"
 343      72617465 
 343      645F536F 
 343      75726365 
 343      5C50536F 
 344              		.bss
 345              		.align	2
 346              		.set	.LANCHOR0,. + 0
 347              		.type	CapSense_touchParams, %object
 348              		.size	CapSense_touchParams, 12
 349              	CapSense_touchParams:
 350 0000 00000000 		.space	12
 350      00000000 
 350      00000000 
 351              		.text
 352              	.Letext0:
 353              		.file 2 "c:\\program files (x86)\\cypress\\psoc creator\\4.2\\psoc creator\\import\\gnu\\arm\\5.4.
 354              		.file 3 "c:\\program files (x86)\\cypress\\psoc creator\\4.2\\psoc creator\\import\\gnu\\arm\\5.4.
 355              		.file 4 "Generated_Source\\PSoC6\\pdl\\drivers/peripheral/syslib/cy_syslib.h"
 356              		.file 5 "Generated_Source\\PSoC6\\CapSense_TMG.h"
 357              		.file 6 "Generated_Source\\PSoC6\\CapSense_Configuration.h"
 358              		.file 7 "Generated_Source\\PSoC6\\CapSense_SmartSense_LL.h"
 359              		.file 8 "Generated_Source\\PSoC6\\CapSense_Structure.h"
 360              		.file 9 "Generated_Source\\PSoC6\\CapSense_Gesture.h"
 361              		.file 10 "Generated_Source\\PSoC6\\pdl\\cmsis/include/core_cm4.h"