ARM GAS  C:\Users\Agentos\AppData\Local\Temp\ccHiDLED.s 			page 1


   1              		.syntax unified
   2              		.cpu cortex-m4
   3              		.eabi_attribute 27, 1
   4              		.fpu fpv4-sp-d16
   5              		.eabi_attribute 20, 1
   6              		.eabi_attribute 21, 1
   7              		.eabi_attribute 23, 3
   8              		.eabi_attribute 24, 1
   9              		.eabi_attribute 25, 1
  10              		.eabi_attribute 26, 1
  11              		.eabi_attribute 30, 1
  12              		.eabi_attribute 34, 1
  13              		.eabi_attribute 18, 4
  14              		.thumb
  15              		.syntax unified
  16              		.file	"display_task.c"
  17              		.text
  18              	.Ltext0:
  19              		.cfi_sections	.debug_frame
  20              		.section	.text.NoScreenChange,"ax",%progbits
  21              		.align	2
  22              		.thumb
  23              		.thumb_func
  24              		.type	NoScreenChange, %function
  25              	NoScreenChange:
  26              	.LFB520:
  27              		.file 1 "display_task.c"
   1:display_task.c **** /******************************************************************************
   2:display_task.c **** * File Name: display_task.c
   3:display_task.c **** *
   4:display_task.c **** * Version: 1.00
   5:display_task.c **** *
   6:display_task.c **** * Description: This file contains the task that shows an interactive menu and
   7:display_task.c **** *              text pages based on the commands recieved
   8:display_task.c **** *
   9:display_task.c **** * Related Document: CE218136_EINK_CapSense_RTOS.pdf
  10:display_task.c **** *
  11:display_task.c **** * Hardware Dependency: CY8CKIT-062-BLE PSoC 6 BLE Pioneer Kit
  12:display_task.c **** *                      CY8CKIT-028-EPD E-INK Display Shield
  13:display_task.c **** *
  14:display_task.c **** ******************************************************************************
  15:display_task.c **** * Copyright (2017), Cypress Semiconductor Corporation.
  16:display_task.c **** ******************************************************************************
  17:display_task.c **** * This software, including source code, documentation and related materials
  18:display_task.c **** * ("Software") is owned by Cypress Semiconductor Corporation (Cypress) and is
  19:display_task.c **** * protected by and subject to worldwide patent protection (United States and 
  20:display_task.c **** * foreign), United States copyright laws and international treaty provisions. 
  21:display_task.c **** * Cypress hereby grants to licensee a personal, non-exclusive, non-transferable
  22:display_task.c **** * license to copy, use, modify, create derivative works of, and compile the 
  23:display_task.c **** * Cypress source code and derivative works for the sole purpose of creating 
  24:display_task.c **** * custom software in support of licensee product, such licensee product to be
  25:display_task.c **** * used only in conjunction with Cypress's integrated circuit as specified in the
  26:display_task.c **** * applicable agreement. Any reproduction, modification, translation, compilation,
  27:display_task.c **** * or representation of this Software except as specified above is prohibited 
  28:display_task.c **** * without the express written permission of Cypress.
  29:display_task.c **** * 
  30:display_task.c **** * Disclaimer: THIS SOFTWARE IS PROVIDED AS-IS, WITH NO WARRANTY OF ANY KIND, 
ARM GAS  C:\Users\Agentos\AppData\Local\Temp\ccHiDLED.s 			page 2


  31:display_task.c **** * EXPRESS OR IMPLIED, INCLUDING, BUT NOT LIMITED TO, NONINFRINGEMENT, IMPLIED 
  32:display_task.c **** * WARRANTIES OF MERCHANTABILITY AND FITNESS FOR A PARTICULAR PURPOSE.
  33:display_task.c **** * Cypress reserves the right to make changes to the Software without notice. 
  34:display_task.c **** * Cypress does not assume any liability arising out of the application or use
  35:display_task.c **** * of Software or any product or circuit described in the Software. Cypress does
  36:display_task.c **** * not authorize its products for use as critical components in any products 
  37:display_task.c **** * where a malfunction or failure may reasonably be expected to result in 
  38:display_task.c **** * significant injury or death ("ACTIVE Risk Product"). By including Cypress's 
  39:display_task.c **** * product in a ACTIVE Risk Product, the manufacturer of such system or application
  40:display_task.c **** * assumes all risk of such use and in doing so indemnifies Cypress against all
  41:display_task.c **** * liability. Use of this Software may be limited by and subject to the applicable
  42:display_task.c **** * Cypress software license agreement.
  43:display_task.c **** *****************************************************************************/
  44:display_task.c **** /*******************************************************************************
  45:display_task.c **** * This file contains the task that shows an interactive menu and text pages 
  46:display_task.c **** * based on the commands recieved
  47:display_task.c **** *
  48:display_task.c **** * For the details of the E-INK display and library functions, see the code 
  49:display_task.c **** * example CE218133 - PSoC 6 MCU E-INK Display with CapSense
  50:display_task.c **** *******************************************************************************/
  51:display_task.c **** 
  52:display_task.c **** /* Header file includes */
  53:display_task.c **** #include "cy_eink_library.h"
  54:display_task.c **** #include "display_task.h"
  55:display_task.c **** #include "screen_contents.h"
  56:display_task.c **** #include "menu_configuration.h"
  57:display_task.c **** #include "touch_task.h"
  58:display_task.c **** #include "temperature_eink.h"
  59:display_task.c **** #include "uart_debug.h"
  60:display_task.c **** #include "FreeRTOS.h"
  61:display_task.c **** #include "task.h"
  62:display_task.c **** #include "queue.h"
  63:display_task.c **** 
  64:display_task.c **** /* Two frame buffers are used in this project since the E-INK display requires
  65:display_task.c ****    the storage of the previous as well as the current frame. See Appendix A
  66:display_task.c ****    of the code example document for the details of frame buffers */
  67:display_task.c **** #define NUMBER_OF_FRAME_BUFFERS     (uint8_t) (2u)
  68:display_task.c **** 
  69:display_task.c **** /* Enumerated data type used to identify the frame buffers */
  70:display_task.c **** typedef enum
  71:display_task.c **** {
  72:display_task.c ****     BUFFER0 = 0x00,
  73:display_task.c ****     BUFFER1 = 0x01
  74:display_task.c **** }   frame_buffers_t;
  75:display_task.c **** 
  76:display_task.c **** /* Variable that stores the current screen content being displayed */
  77:display_task.c **** screen_content_t    currentScreenContent = STARTUP_CONTENT;
  78:display_task.c **** 
  79:display_task.c **** /* Variable that stores the current frame buffer being used */
  80:display_task.c **** frame_buffers_t     currentFrameBuffer   = BUFFER0;
  81:display_task.c **** 
  82:display_task.c **** /* Frame buffers used by the display update functions. See Appendix A of the 
  83:display_task.c ****    code example document for details of frame buffers */
  84:display_task.c **** cy_eink_frame_t     frameBuffer[NUMBER_OF_FRAME_BUFFERS][CY_EINK_FRAME_SIZE];
  85:display_task.c **** 
  86:display_task.c **** /* Variable that stores the pointer to the current frame being displayed */
  87:display_task.c **** cy_eink_frame_t*    currentFrame = CY_EINK_WHITE_FRAME;
ARM GAS  C:\Users\Agentos\AppData\Local\Temp\ccHiDLED.s 			page 3


  88:display_task.c **** 
  89:display_task.c **** /* Variable that stores the details of the current screen */
  90:display_task.c **** screen_t  currentScreen =
  91:display_task.c **** {
  92:display_task.c ****     .screen     = MAIN_MENU,
  93:display_task.c ****     .menuItem   = MAIN_MENU_INDEX_START,
  94:display_task.c ****     .textPage   = TEXT_PAGE_INDEX_START
  95:display_task.c **** };
  96:display_task.c **** 
  97:display_task.c **** /*  These static functions are not available outside this file. 
  98:display_task.c ****     See the respective function definitions for more details */
  99:display_task.c **** void static NoScreenChange(void);
 100:display_task.c **** void static MoveArrowUp(void);
 101:display_task.c **** void static MoveArrowDown(void);
 102:display_task.c **** void static GoToTextPage(void);
 103:display_task.c **** void static BackToMainMenu(void);
 104:display_task.c **** void static PreviousTextPage(void);
 105:display_task.c **** void static NextTextPage(void);
 106:display_task.c **** void static InitializeFrameBuffers(cy_eink_image_t* imagePointer);
 107:display_task.c **** void static DisplayImage(cy_eink_image_t* imagePointer);
 108:display_task.c **** void static DisplayImageAndText(char* text, cy_eink_image_t* backgroundImage);
 109:display_task.c **** 
 110:display_task.c **** /* Function used to register the E-INK delay call back */
 111:display_task.c **** void static DelayMs(uint32_t delayInMs)  {vTaskDelay(pdMS_TO_TICKS(delayInMs));}
 112:display_task.c **** 
 113:display_task.c **** /*******************************************************************************
 114:display_task.c **** * Function Name: void Task_Display (void *pvParameters)
 115:display_task.c **** ********************************************************************************
 116:display_task.c **** * Summary:
 117:display_task.c **** *  Task that processes the touch command recieved and the updates the display 
 118:display_task.c **** *  with the corresponding menu / text page
 119:display_task.c **** *
 120:display_task.c **** * Parameters:
 121:display_task.c **** *  void *pvParameters : Task parameter defined during task creation (unused)                       
 122:display_task.c **** *
 123:display_task.c **** * Return:
 124:display_task.c **** *  void
 125:display_task.c **** *
 126:display_task.c **** *******************************************************************************/
 127:display_task.c **** void Task_Display (void *pvParameters)
 128:display_task.c **** {  
 129:display_task.c ****     /* Flag that indicates if the E-INK display has been detected */
 130:display_task.c ****     cy_eink_api_result displayDetected = CY_EINK_FAILURE;
 131:display_task.c ****     
 132:display_task.c ****     /* Variable used to store the return values of RTOS APIs */
 133:display_task.c ****     BaseType_t rtosApiResult;
 134:display_task.c ****     
 135:display_task.c ****     /* Local variable that stores the value of ambient temperature */
 136:display_task.c ****     int8_t ambientTemperature;
 137:display_task.c ****     
 138:display_task.c ****     touch_data_t touchInput;
 139:display_task.c **** 
 140:display_task.c ****     /* Remove warning for unused parameter */
 141:display_task.c ****     (void)pvParameters ;
 142:display_task.c ****     
 143:display_task.c ****     /* Initialize the components used for temperature sensing */
 144:display_task.c ****     InitTemperature();
ARM GAS  C:\Users\Agentos\AppData\Local\Temp\ccHiDLED.s 			page 4


 145:display_task.c ****     
 146:display_task.c ****     /* Read the value of ambient temperature */
 147:display_task.c ****     ambientTemperature = (int8_t)GetTemperature();
 148:display_task.c ****     
 149:display_task.c ****     /* Initialize the E-INK display hardware with the ambient temperature 
 150:display_task.c ****        value and the delay function pointer */
 151:display_task.c ****     if(Cy_EINK_Start(ambientTemperature,DelayMs) == CY_EINK_SUCCESS)
 152:display_task.c ****     {
 153:display_task.c ****         Task_DebugPrintf("Success  : Display - Cy_EINK_Start API", 0u);
 154:display_task.c **** 
 155:display_task.c ****         /* Power on the display and check if the operation was successful */
 156:display_task.c ****         displayDetected = Cy_EINK_Power(CY_EINK_ON);
 157:display_task.c **** 
 158:display_task.c ****         if(displayDetected == CY_EINK_SUCCESS)
 159:display_task.c ****         {
 160:display_task.c ****             Task_DebugPrintf("Success  : Display - E-INK display power on", 0u);   
 161:display_task.c ****         } 
 162:display_task.c ****         else
 163:display_task.c ****         {
 164:display_task.c ****             Task_DebugPrintf("Failure! : Display - E-INK display power on ", 0u); 
 165:display_task.c ****             
 166:display_task.c ****             /* Turn the red LED on to indicate that the E-INK display is not 
 167:display_task.c ****             detected. Check the connection between the E-INK shield and the 
 168:display_task.c ****             Pioneer Baseboard if this happens, and then reset the PSoC 6 BLE */
 169:display_task.c ****             Cy_GPIO_Write(Pin_LED_Red_0_PORT, Pin_LED_Red_0_NUM, 0u);
 170:display_task.c ****         }
 171:display_task.c ****     }
 172:display_task.c ****     else
 173:display_task.c ****     {
 174:display_task.c ****         Task_DebugPrintf("Failure! : Display - Cy_EINK_Start API", 0u);
 175:display_task.c ****     }
 176:display_task.c **** 
 177:display_task.c ****     /* Clear the display to white background */
 178:display_task.c ****     Cy_EINK_Clear(CY_EINK_WHITE_BACKGROUND, CY_EINK_POWER_MANUAL);
 179:display_task.c ****             
 180:display_task.c ****     /* Show the logo */
 181:display_task.c ****     DisplayImage((cy_eink_image_t*) logo);
 182:display_task.c **** 
 183:display_task.c ****     /* Keep the logo on for a specific time*/
 184:display_task.c ****     vTaskDelay(STARTUP_SCREEN_DELAY);
 185:display_task.c **** 
 186:display_task.c ****     /* Show the default main menu image*/
 187:display_task.c ****     DisplayImage((cy_eink_image_t*) mainMenuImage[MAIN_MENU_INDEX_START]);
 188:display_task.c ****     
 189:display_task.c ****     /* Repeatedly running part of the task */
 190:display_task.c ****     for(;;)
 191:display_task.c ****     {
 192:display_task.c ****         /* Block until a touch input has been received over touchDataQ */
 193:display_task.c ****         rtosApiResult = xQueueReceive(touchDataQ, &touchInput,
 194:display_task.c ****                          portMAX_DELAY);
 195:display_task.c ****         
 196:display_task.c ****         /* Touch input has been received over touchDataQ */
 197:display_task.c ****         if(rtosApiResult == pdTRUE)
 198:display_task.c ****         {
 199:display_task.c ****        
 200:display_task.c ****         /* Function pointer that selects a screen update function based on the 
 201:display_task.c ****           current screen type and the touch input:
ARM GAS  C:\Users\Agentos\AppData\Local\Temp\ccHiDLED.s 			page 5


 202:display_task.c ****         _______________________________________________________________
 203:display_task.c ****         |                                     |                       |
 204:display_task.c ****         |          Parameters                 |   Selected Function   |
 205:display_task.c ****         |_____________________________________|_______________________|
 206:display_task.c ****         |                                     |                       |
 207:display_task.c ****         |   [MAIN_MENU][BUTTON0_TOUCHED])     |   GoToTextPage        |
 208:display_task.c ****         |   [MAIN_MENU][BUTTON1_TOUCHED])     |   NoScreenChange      |
 209:display_task.c ****         |   [MAIN_MENU][SLIDER_FLICK_LEFT])   |   MoveArrowUp         |
 210:display_task.c ****         |   [MAIN_MENU][SLIDER_FLICK_RIGHT])  |   MoveArrowDown       |
 211:display_task.c ****         |                                     |                       |
 212:display_task.c ****         |   [TEXT_PAGE][BUTTON0_TOUCHED])     |   NoScreenChange      |
 213:display_task.c ****         |   [TEXT_PAGE][BUTTON1_TOUCHED])     |   BackToMainMenu      |
 214:display_task.c ****         |   [TEXT_PAGE][SLIDER_FLICK_LEFT])   |   PreviousTextPage    |
 215:display_task.c ****         |   [TEXT_PAGE][SLIDER_FLICK_RIGHT])  |   NextTextPage        |
 216:display_task.c ****         |_____________________________________|_______________________|*/
 217:display_task.c ****             
 218:display_task.c ****         static void (*ScreenUpdatePointer[NUMBER_OF_SCREEN_TYPES]
 219:display_task.c ****                                          [NUMBER_OF_INPUT_TYPES]) (void) =
 220:display_task.c ****         {
 221:display_task.c ****             { GoToTextPage, NoScreenChange, MoveArrowUp, MoveArrowDown },
 222:display_task.c ****             { NoScreenChange, BackToMainMenu, PreviousTextPage,NextTextPage }
 223:display_task.c ****         };
 224:display_task.c **** 
 225:display_task.c ****             /* Call the function pointer that selects a screen update function
 226:display_task.c ****             according to the touch input */     
 227:display_task.c ****             (*ScreenUpdatePointer[currentScreen.screen][touchInput])();
 228:display_task.c **** 
 229:display_task.c ****         }
 230:display_task.c ****         /* Task has timed out and received no inputs during an interval of 
 231:display_task.c ****            portMAXDELAY ticks */
 232:display_task.c ****         else
 233:display_task.c ****         {
 234:display_task.c ****             Task_DebugPrintf("Warning! : Display - Task Timed out ", 0u);   
 235:display_task.c ****         }
 236:display_task.c ****     }
 237:display_task.c **** }
 238:display_task.c **** 
 239:display_task.c **** /*******************************************************************************
 240:display_task.c **** ********************************************************************************
 241:display_task.c **** *  Following are the static functions used for display updates. These          *
 242:display_task.c **** *  functions are not available outside this file.                                        *
 243:display_task.c **** ********************************************************************************
 244:display_task.c **** *******************************************************************************/
 245:display_task.c **** 
 246:display_task.c **** /*******************************************************************************
 247:display_task.c **** * Function Name: void static NoScreenChange(void)
 248:display_task.c **** ********************************************************************************
 249:display_task.c **** *
 250:display_task.c **** * Summary:
 251:display_task.c **** *  Null function that is called by the "ScreenUpdatePointer" function pointer  
 252:display_task.c **** *  when no screen change is required
 253:display_task.c **** *
 254:display_task.c **** * Parameters:
 255:display_task.c **** *  None
 256:display_task.c **** *
 257:display_task.c **** * Return:
 258:display_task.c **** *  None
ARM GAS  C:\Users\Agentos\AppData\Local\Temp\ccHiDLED.s 			page 6


 259:display_task.c **** *
 260:display_task.c **** * Side Effects:
 261:display_task.c **** *  None
 262:display_task.c **** *
 263:display_task.c **** *******************************************************************************/
 264:display_task.c **** void static NoScreenChange(void)
 265:display_task.c **** {
  28              		.loc 1 265 0
  29              		.cfi_startproc
  30              		@ args = 0, pretend = 0, frame = 0
  31              		@ frame_needed = 0, uses_anonymous_args = 0
  32              		@ link register save eliminated.
  33 0000 7047     		bx	lr
  34              		.cfi_endproc
  35              	.LFE520:
  36              		.size	NoScreenChange, .-NoScreenChange
  37 0002 00BF     		.section	.text.DelayMs,"ax",%progbits
  38              		.align	2
  39              		.thumb
  40              		.thumb_func
  41              		.type	DelayMs, %function
  42              	DelayMs:
  43              	.LFB518:
 111:display_task.c **** 
  44              		.loc 1 111 0
  45              		.cfi_startproc
  46              		@ args = 0, pretend = 0, frame = 0
  47              		@ frame_needed = 0, uses_anonymous_args = 0
  48              	.LVL0:
 111:display_task.c **** 
  49              		.loc 1 111 0
  50 0000 08B5     		push	{r3, lr}
  51              		.cfi_def_cfa_offset 8
  52              		.cfi_offset 3, -8
  53              		.cfi_offset 14, -4
 111:display_task.c **** 
  54              		.loc 1 111 0
  55 0002 4FF47A73 		mov	r3, #1000
  56 0006 03FB00F0 		mul	r0, r3, r0
  57              	.LVL1:
  58 000a 034B     		ldr	r3, .L4
  59 000c A3FB0030 		umull	r3, r0, r3, r0
  60 0010 8009     		lsrs	r0, r0, #6
  61 0012 FFF7FEFF 		bl	vTaskDelay
  62              	.LVL2:
  63 0016 08BD     		pop	{r3, pc}
  64              	.L5:
  65              		.align	2
  66              	.L4:
  67 0018 D34D6210 		.word	274877907
  68              		.cfi_endproc
  69              	.LFE518:
  70              		.size	DelayMs, .-DelayMs
  71              		.section	.text.DisplayImage,"ax",%progbits
  72              		.align	2
  73              		.thumb
  74              		.thumb_func
ARM GAS  C:\Users\Agentos\AppData\Local\Temp\ccHiDLED.s 			page 7


  75              		.type	DisplayImage, %function
  76              	DisplayImage:
  77              	.LFB528:
 266:display_task.c **** }
 267:display_task.c **** 
 268:display_task.c **** /*******************************************************************************
 269:display_task.c **** * Function Name: void static GoToTextPage(void)
 270:display_task.c **** ********************************************************************************
 271:display_task.c **** *
 272:display_task.c **** * Summary:
 273:display_task.c **** *  Performs transition from the main menu to the text page
 274:display_task.c **** *
 275:display_task.c **** * Parameters:
 276:display_task.c **** *  None
 277:display_task.c **** *
 278:display_task.c **** * Return:
 279:display_task.c **** *  None
 280:display_task.c **** *
 281:display_task.c **** * Side Effects:
 282:display_task.c **** *  None
 283:display_task.c **** *
 284:display_task.c **** *******************************************************************************/
 285:display_task.c **** void static GoToTextPage(void)
 286:display_task.c **** {
 287:display_task.c ****     /* Variable that stores the index of the character array, which in turn 
 288:display_task.c ****        stores the current text page as a string */
 289:display_task.c ****     uint8_t currentPageIndex;
 290:display_task.c ****     
 291:display_task.c ****     /* Change the current screen type to text page */
 292:display_task.c ****     currentScreen.screen = TEXT_PAGE;
 293:display_task.c **** 
 294:display_task.c ****     /* Re-initialize the text page index to point to the start page */
 295:display_task.c ****     currentScreen.textPage = TEXT_PAGE_INDEX_START;
 296:display_task.c ****     
 297:display_task.c ****     /* Access the index array and fetch the index of the character array that 
 298:display_task.c ****       stores the current text page as a string */
 299:display_task.c ****     currentPageIndex = textPageIndex[currentScreen.menuItem]
 300:display_task.c ****                                     [currentScreen.textPage];
 301:display_task.c ****     
 302:display_task.c ****     /* Check if the fetched index is valid */
 303:display_task.c ****     if (currentPageIndex != INVALID_PAGE_INDEX)
 304:display_task.c ****     {
 305:display_task.c ****         /* Display the text page with background image */
 306:display_task.c ****         DisplayImageAndText((char*) textPage[currentPageIndex],
 307:display_task.c ****                             (cy_eink_image_t*) textPageBackground);
 308:display_task.c ****     }
 309:display_task.c **** }
 310:display_task.c **** 
 311:display_task.c **** /*******************************************************************************
 312:display_task.c **** * Function Name: void static BackToMainMenu(void)
 313:display_task.c **** ********************************************************************************
 314:display_task.c **** *
 315:display_task.c **** * Summary:
 316:display_task.c **** *  Returns to the main menu from a text page
 317:display_task.c **** *
 318:display_task.c **** * Parameters:
 319:display_task.c **** *  None
ARM GAS  C:\Users\Agentos\AppData\Local\Temp\ccHiDLED.s 			page 8


 320:display_task.c **** *
 321:display_task.c **** * Return:
 322:display_task.c **** *  None
 323:display_task.c **** *
 324:display_task.c **** * Side Effects:
 325:display_task.c **** *  None
 326:display_task.c **** *
 327:display_task.c **** *******************************************************************************/
 328:display_task.c **** void static BackToMainMenu(void)
 329:display_task.c **** {
 330:display_task.c ****     /* Change the current screen type to main menu */
 331:display_task.c ****     currentScreen.screen = MAIN_MENU;
 332:display_task.c ****     
 333:display_task.c ****     /* Display the current main menu image */
 334:display_task.c ****     DisplayImage((cy_eink_image_t*) mainMenuImage[currentScreen.menuItem]);
 335:display_task.c **** }
 336:display_task.c **** 
 337:display_task.c **** /*******************************************************************************
 338:display_task.c **** * Function Name: void static MoveArrowUp(void)
 339:display_task.c **** ********************************************************************************
 340:display_task.c **** *
 341:display_task.c **** * Summary:
 342:display_task.c **** *  Moves the selection arrow of the main menu upwards
 343:display_task.c **** *
 344:display_task.c **** * Parameters:
 345:display_task.c **** *  None
 346:display_task.c **** *
 347:display_task.c **** * Return:
 348:display_task.c **** *  None
 349:display_task.c **** *
 350:display_task.c **** * Side Effects:
 351:display_task.c **** *  None
 352:display_task.c **** *
 353:display_task.c **** *******************************************************************************/
 354:display_task.c **** void static MoveArrowUp(void)
 355:display_task.c **** {
 356:display_task.c ****     
 357:display_task.c ****     /* If the beginning of the main menu is reached, then move the arrow to the
 358:display_task.c ****        final item of the main menu by selecting the maximum index */
 359:display_task.c ****     if (currentScreen.menuItem == MAIN_MENU_INDEX_START)
 360:display_task.c ****     {
 361:display_task.c ****         currentScreen.menuItem = MAIN_MENU_MAX_INDEX;
 362:display_task.c ****     }
 363:display_task.c ****     /* Otherwise, decrement the index to move the arrow up */
 364:display_task.c ****     else
 365:display_task.c ****     {
 366:display_task.c ****         currentScreen.menuItem--;
 367:display_task.c ****     }
 368:display_task.c ****     
 369:display_task.c ****     /* Display the current main menu image */
 370:display_task.c ****     DisplayImage((cy_eink_image_t*) mainMenuImage[currentScreen.menuItem]);
 371:display_task.c **** }
 372:display_task.c **** 
 373:display_task.c **** /*******************************************************************************
 374:display_task.c **** * Function Name: void static MoveArrowDown(void)
 375:display_task.c **** ********************************************************************************
 376:display_task.c **** *
ARM GAS  C:\Users\Agentos\AppData\Local\Temp\ccHiDLED.s 			page 9


 377:display_task.c **** * Summary:
 378:display_task.c **** *  Moves the selection arrow of the main menu downwards
 379:display_task.c **** *
 380:display_task.c **** * Parameters:
 381:display_task.c **** *  None
 382:display_task.c **** *
 383:display_task.c **** * Return:
 384:display_task.c **** *  None
 385:display_task.c **** *
 386:display_task.c **** * Side Effects:
 387:display_task.c **** *  None
 388:display_task.c **** *
 389:display_task.c **** *******************************************************************************/
 390:display_task.c **** void static MoveArrowDown(void)
 391:display_task.c **** { 
 392:display_task.c ****     /* If the final item of the main menu is reached, then move the arrow to the
 393:display_task.c ****        beginning of the main menu by selecting the starting index */
 394:display_task.c ****     if (currentScreen.menuItem >= MAIN_MENU_MAX_INDEX)
 395:display_task.c ****     {
 396:display_task.c ****         currentScreen.menuItem = MAIN_MENU_INDEX_START;
 397:display_task.c ****     }
 398:display_task.c ****     /* Otherwise, increment the index to move the arrow down */
 399:display_task.c ****     else
 400:display_task.c ****     {
 401:display_task.c ****         currentScreen.menuItem++;
 402:display_task.c ****     }
 403:display_task.c ****     
 404:display_task.c ****     /* Display the current main menu image */
 405:display_task.c ****     DisplayImage((cy_eink_image_t*) mainMenuImage[currentScreen.menuItem]);
 406:display_task.c **** }
 407:display_task.c **** 
 408:display_task.c **** /*******************************************************************************
 409:display_task.c **** * Function Name: void static PreviousTextPage(void)
 410:display_task.c **** ********************************************************************************
 411:display_task.c **** *
 412:display_task.c **** * Summary:
 413:display_task.c **** *  Performs the transition to the previous text page
 414:display_task.c **** *
 415:display_task.c **** * Parameters:
 416:display_task.c **** *  None
 417:display_task.c **** *
 418:display_task.c **** * Return:
 419:display_task.c **** *  None
 420:display_task.c **** *
 421:display_task.c **** * Side Effects:
 422:display_task.c **** *  None
 423:display_task.c **** *
 424:display_task.c **** *******************************************************************************/
 425:display_task.c **** void static PreviousTextPage(void)
 426:display_task.c **** {
 427:display_task.c ****     
 428:display_task.c ****     /* Variable that stores the index of the character array, which in turn 
 429:display_task.c ****        stores the current text page as a string */
 430:display_task.c ****     uint8_t currentPageIndex;
 431:display_task.c ****     
 432:display_task.c ****     /* If the start page is reached, then go to the final page by selecting the 
 433:display_task.c ****        maximum index of the text pages */
ARM GAS  C:\Users\Agentos\AppData\Local\Temp\ccHiDLED.s 			page 10


 434:display_task.c ****     if (currentScreen.textPage == TEXT_PAGE_INDEX_START)
 435:display_task.c ****     {
 436:display_task.c ****         currentScreen.textPage = maxTextPageIndexes[currentScreen.menuItem];
 437:display_task.c ****     }
 438:display_task.c ****     /* Otherwise, select the previous page by decrementing the index */
 439:display_task.c ****     else
 440:display_task.c ****     {
 441:display_task.c ****         currentScreen.textPage--;
 442:display_task.c ****     }
 443:display_task.c **** 
 444:display_task.c ****     /* Access the index array and fetch the index of the character array that
 445:display_task.c ****         stores the current text page as a string */
 446:display_task.c ****     currentPageIndex = textPageIndex[currentScreen.menuItem]
 447:display_task.c ****                                     [currentScreen.textPage];
 448:display_task.c ****     
 449:display_task.c ****     /* Check if the fetched index is valid */
 450:display_task.c ****     if (currentPageIndex != INVALID_PAGE_INDEX)
 451:display_task.c ****     {
 452:display_task.c ****         /* Display the text page with background image */
 453:display_task.c ****         DisplayImageAndText((char*) textPage[currentPageIndex],
 454:display_task.c ****                             (cy_eink_image_t*) textPageBackground);
 455:display_task.c ****     }
 456:display_task.c **** }
 457:display_task.c **** 
 458:display_task.c **** /*******************************************************************************
 459:display_task.c **** * Function Name: void static NextTextPage(void)
 460:display_task.c **** ********************************************************************************
 461:display_task.c **** *
 462:display_task.c **** * Summary:
 463:display_task.c **** *  Performs the transition to the next text page
 464:display_task.c **** *
 465:display_task.c **** * Parameters:
 466:display_task.c **** *  None
 467:display_task.c **** *
 468:display_task.c **** * Return:
 469:display_task.c **** *  None
 470:display_task.c **** *
 471:display_task.c **** * Side Effects:
 472:display_task.c **** *  None
 473:display_task.c **** *
 474:display_task.c **** *******************************************************************************/
 475:display_task.c **** void static NextTextPage(void)
 476:display_task.c **** {
 477:display_task.c ****     /* Variable that stores the index of the character array, which in turn 
 478:display_task.c ****        stores the current text page as a string */
 479:display_task.c ****     uint8_t currentPageIndex;
 480:display_task.c ****     
 481:display_task.c ****     /* If the final page is reached, then go to the start page by selecting 
 482:display_task.c ****        the starting index of the text pages */
 483:display_task.c ****     if (currentScreen.textPage >= maxTextPageIndexes[currentScreen.menuItem])
 484:display_task.c ****     {
 485:display_task.c ****         currentScreen.textPage = TEXT_PAGE_INDEX_START;
 486:display_task.c ****     }
 487:display_task.c ****      /* Otherwise, select the next page by incrementing the index */
 488:display_task.c ****     else
 489:display_task.c ****     {
 490:display_task.c ****         currentScreen.textPage++;
ARM GAS  C:\Users\Agentos\AppData\Local\Temp\ccHiDLED.s 			page 11


 491:display_task.c ****     }
 492:display_task.c **** 
 493:display_task.c ****     /* Access the index array and fetch the index of the character array that
 494:display_task.c ****         stores the current text page as a string */
 495:display_task.c ****     currentPageIndex = textPageIndex[currentScreen.menuItem]
 496:display_task.c ****                                     [currentScreen.textPage];
 497:display_task.c ****     
 498:display_task.c ****     /* Check if the fetched index is valid */
 499:display_task.c ****     if (currentPageIndex != INVALID_PAGE_INDEX)
 500:display_task.c ****     {
 501:display_task.c ****         /* Display the text page with background image */
 502:display_task.c ****         DisplayImageAndText((char*) textPage[currentPageIndex],
 503:display_task.c ****                             (cy_eink_image_t*) textPageBackground);
 504:display_task.c ****     }
 505:display_task.c **** }
 506:display_task.c **** 
 507:display_task.c **** 
 508:display_task.c **** /*******************************************************************************
 509:display_task.c **** * Function Name: void static InitializeFrameBuffers(cy_eink_image_t* 
 510:display_task.c **** *                                                   imagePointer)
 511:display_task.c **** ********************************************************************************
 512:display_task.c **** *
 513:display_task.c **** * Summary:
 514:display_task.c **** *  Initialize the frame buffers with a background image
 515:display_task.c **** *
 516:display_task.c **** * Parameters:
 517:display_task.c **** *  cy_eink_image_t* imagePointer : pointer to the image
 518:display_task.c **** *
 519:display_task.c **** * Return:
 520:display_task.c **** *  None
 521:display_task.c **** *
 522:display_task.c **** * Side Effects:
 523:display_task.c **** *  This function is hard-coded to work with the images and text used in this 
 524:display_task.c **** *  code example. The background image is loaded only once to the frame buffer
 525:display_task.c **** *  since only one type of background is used in this project. Similarly, the 
 526:display_task.c **** *  images are cropped at predesignated coordinates before loading to the frame 
 527:display_task.c **** *  buffers. This cropping speeds up the initialization of frame buffers by not 
 528:display_task.c **** *  initializing the area to which the text is written. Since this is NOT A 
 529:display_task.c **** *  GENERIC FUNCTION, it NOT RECOMMENDED to copy/paste this function into a 
 530:display_task.c **** *  different project to initialize the frame buffer with an image. It is 
 531:display_task.c **** *  recommended to use the E-INK library functions for such use cases. See 
 532:display_task.c **** *  Appendix A of the code example document for the details of E-INK library 
 533:display_task.c **** *  functions.
 534:display_task.c **** *
 535:display_task.c **** *******************************************************************************/
 536:display_task.c **** void static InitializeFrameBuffers(cy_eink_image_t* imagePointer)
 537:display_task.c **** {
 538:display_task.c ****     /* Coordinates at which the text menu images cropped before loading to the
 539:display_task.c ****        frame buffers. This cropping speeds up the initialization of the frame 
 540:display_task.c ****        buffers by not initializing the area to which the text is written */
 541:display_task.c ****     const uint8_t   cropTop[]    = CROP_BACKGROUND_TOP;
 542:display_task.c ****     const uint8_t   cropBottom[] = CROP_BACKGROUND_BOTTOM;
 543:display_task.c ****     
 544:display_task.c ****     /* Flag used to determine when this function is called for the first time */
 545:display_task.c ****     bool static     firstTime = true;
 546:display_task.c ****     
 547:display_task.c ****     /* The background image is loaded only once to the frame buffer since only
ARM GAS  C:\Users\Agentos\AppData\Local\Temp\ccHiDLED.s 			page 12


 548:display_task.c ****        one type of background is used in this project. */
 549:display_task.c ****     if (firstTime)
 550:display_task.c ****     {
 551:display_task.c ****         /* Crop the background image at the predesignated coordinates and  then 
 552:display_task.c ****            load to the frame buffers. This cropping speeds up the initialization 
 553:display_task.c ****            of the frame buffers by not initializing the area to which the text 
 554:display_task.c ****            is written. */
 555:display_task.c ****         Cy_EINK_ImageToFrameBuffer(frameBuffer[BUFFER0], imagePointer,
 556:display_task.c ****                                    (uint8_t*) cropTop);
 557:display_task.c ****         Cy_EINK_ImageToFrameBuffer(frameBuffer[BUFFER0], imagePointer,
 558:display_task.c ****                                    (uint8_t*) cropBottom);
 559:display_task.c ****         Cy_EINK_ImageToFrameBuffer(frameBuffer[BUFFER1], imagePointer,
 560:display_task.c ****                                    (uint8_t*) cropTop);
 561:display_task.c ****         Cy_EINK_ImageToFrameBuffer(frameBuffer[BUFFER1], imagePointer,
 562:display_task.c ****                                    (uint8_t*) cropBottom);
 563:display_task.c ****                                 
 564:display_task.c ****         /* Clear the first time flag */
 565:display_task.c ****         firstTime = false;
 566:display_task.c ****     }
 567:display_task.c **** }
 568:display_task.c **** 
 569:display_task.c **** /*******************************************************************************
 570:display_task.c **** * Function Name: void static DisplayImage(cy_eink_image_t* imagePointer)
 571:display_task.c **** ********************************************************************************
 572:display_task.c **** *
 573:display_task.c **** * Summary:
 574:display_task.c **** *  Displays an image on the E-INK display.
 575:display_task.c **** *
 576:display_task.c **** * Parameters:
 577:display_task.c **** *  image* cy_eink_image_t : pointer to the image to be displayed
 578:display_task.c **** *
 579:display_task.c **** * Return:
 580:display_task.c **** *  None
 581:display_task.c **** *
 582:display_task.c **** * Side Effects:
 583:display_task.c **** *  This function selects an update type (partial/full) based on the current
 584:display_task.c **** *  screen type. This function also stores the pointer to the previous frame,
 585:display_task.c **** *  which is used for subsequent updates. This function is hard-coded to work 
 586:display_task.c **** *  with the menu types and image types used in this code example. Since this is 
 587:display_task.c **** *  NOT A GENERIC FUNCTION, it NOT RECOMMENDED to copy/paste this function into a 
 588:display_task.c **** *  different project to display an image on the E-INK display. It is recommended 
 589:display_task.c **** *  to use the Cy_EINK_ShowFrame() library function for such use cases. See 
 590:display_task.c **** *  Appendix A of the code example document for the details of E-INK library 
 591:display_task.c **** *  functions.
 592:display_task.c **** *
 593:display_task.c **** *******************************************************************************/
 594:display_task.c **** void static DisplayImage(cy_eink_image_t* imagePointer)
 595:display_task.c **** {
  78              		.loc 1 595 0
  79              		.cfi_startproc
  80              		@ args = 0, pretend = 0, frame = 0
  81              		@ frame_needed = 0, uses_anonymous_args = 0
  82              	.LVL3:
  83 0000 38B5     		push	{r3, r4, r5, lr}
  84              		.cfi_def_cfa_offset 16
  85              		.cfi_offset 3, -16
  86              		.cfi_offset 4, -12
ARM GAS  C:\Users\Agentos\AppData\Local\Temp\ccHiDLED.s 			page 13


  87              		.cfi_offset 5, -8
  88              		.cfi_offset 14, -4
  89 0002 0446     		mov	r4, r0
  90              	.LVL4:
  91              	.LBB13:
  92              	.LBB14:
  93              		.file 2 "Generated_Source\\PSoC6\\pdl\\drivers/peripheral/gpio/cy_gpio.h"
   1:Generated_Source\PSoC6\pdl\drivers/peripheral/gpio/cy_gpio.h **** /***************************************************************************//**
   2:Generated_Source\PSoC6\pdl\drivers/peripheral/gpio/cy_gpio.h **** * \file cy_gpio.h
   3:Generated_Source\PSoC6\pdl\drivers/peripheral/gpio/cy_gpio.h **** * \version 1.10.1
   4:Generated_Source\PSoC6\pdl\drivers/peripheral/gpio/cy_gpio.h **** *
   5:Generated_Source\PSoC6\pdl\drivers/peripheral/gpio/cy_gpio.h **** * \brief
   6:Generated_Source\PSoC6\pdl\drivers/peripheral/gpio/cy_gpio.h **** * Provides an API declaration of the GPIO driver
   7:Generated_Source\PSoC6\pdl\drivers/peripheral/gpio/cy_gpio.h **** *
   8:Generated_Source\PSoC6\pdl\drivers/peripheral/gpio/cy_gpio.h **** ********************************************************************************
   9:Generated_Source\PSoC6\pdl\drivers/peripheral/gpio/cy_gpio.h **** * \copyright
  10:Generated_Source\PSoC6\pdl\drivers/peripheral/gpio/cy_gpio.h **** * Copyright 2016-2018, Cypress Semiconductor Corporation. All rights reserved.
  11:Generated_Source\PSoC6\pdl\drivers/peripheral/gpio/cy_gpio.h **** * You may use this file only in accordance with the license, terms, conditions,
  12:Generated_Source\PSoC6\pdl\drivers/peripheral/gpio/cy_gpio.h **** * disclaimers, and limitations in the end user license agreement accompanying
  13:Generated_Source\PSoC6\pdl\drivers/peripheral/gpio/cy_gpio.h **** * the software package with which this file was provided.
  14:Generated_Source\PSoC6\pdl\drivers/peripheral/gpio/cy_gpio.h **** *******************************************************************************/
  15:Generated_Source\PSoC6\pdl\drivers/peripheral/gpio/cy_gpio.h **** 
  16:Generated_Source\PSoC6\pdl\drivers/peripheral/gpio/cy_gpio.h **** /**
  17:Generated_Source\PSoC6\pdl\drivers/peripheral/gpio/cy_gpio.h **** * \defgroup group_gpio General Purpose Input Output (GPIO)
  18:Generated_Source\PSoC6\pdl\drivers/peripheral/gpio/cy_gpio.h **** * \{
  19:Generated_Source\PSoC6\pdl\drivers/peripheral/gpio/cy_gpio.h **** * The GPIO driver provides an API to configure and access device Input/Output pins.
  20:Generated_Source\PSoC6\pdl\drivers/peripheral/gpio/cy_gpio.h **** * IO pins include all general purpose types such as GPIO, SIO, HSIO, AUXIO, and
  21:Generated_Source\PSoC6\pdl\drivers/peripheral/gpio/cy_gpio.h **** * their variants.
  22:Generated_Source\PSoC6\pdl\drivers/peripheral/gpio/cy_gpio.h **** *
  23:Generated_Source\PSoC6\pdl\drivers/peripheral/gpio/cy_gpio.h **** * Initialization can be performed either at the port level or by configuring the
  24:Generated_Source\PSoC6\pdl\drivers/peripheral/gpio/cy_gpio.h **** * individual pins. For efficient use of code space, port
  25:Generated_Source\PSoC6\pdl\drivers/peripheral/gpio/cy_gpio.h **** * configuration should be used in the field. Refer to the product device header files 
  26:Generated_Source\PSoC6\pdl\drivers/peripheral/gpio/cy_gpio.h **** * for the list of supported ports and pins.
  27:Generated_Source\PSoC6\pdl\drivers/peripheral/gpio/cy_gpio.h **** * 
  28:Generated_Source\PSoC6\pdl\drivers/peripheral/gpio/cy_gpio.h **** * - Single pin configuration is performed by using \ref Cy_GPIO_Pin_FastInit 
  29:Generated_Source\PSoC6\pdl\drivers/peripheral/gpio/cy_gpio.h **** *   (provide specific values) or \ref Cy_GPIO_Pin_Init (provide a filled
  30:Generated_Source\PSoC6\pdl\drivers/peripheral/gpio/cy_gpio.h **** *   cy_stc_gpio_pin_config_t structure).
  31:Generated_Source\PSoC6\pdl\drivers/peripheral/gpio/cy_gpio.h **** * - An entire port can be configured using \ref Cy_GPIO_Port_Init. Provide a filled 
  32:Generated_Source\PSoC6\pdl\drivers/peripheral/gpio/cy_gpio.h **** *   cy_stc_gpio_prt_config_t structure. The values in the structure are 
  33:Generated_Source\PSoC6\pdl\drivers/peripheral/gpio/cy_gpio.h **** *   bitfields representing the desired value for each pin in the port.
  34:Generated_Source\PSoC6\pdl\drivers/peripheral/gpio/cy_gpio.h **** * - Pin configuration and management is based on the port address and pin number.
  35:Generated_Source\PSoC6\pdl\drivers/peripheral/gpio/cy_gpio.h **** *   \ref Cy_GPIO_PortToAddr function can optionally be used to calculate the port
  36:Generated_Source\PSoC6\pdl\drivers/peripheral/gpio/cy_gpio.h **** *   address from the port number at run-time.
  37:Generated_Source\PSoC6\pdl\drivers/peripheral/gpio/cy_gpio.h **** *
  38:Generated_Source\PSoC6\pdl\drivers/peripheral/gpio/cy_gpio.h **** * Once the pin/port initialization is complete, each pin can be accessed by 
  39:Generated_Source\PSoC6\pdl\drivers/peripheral/gpio/cy_gpio.h **** * specifying the port (GPIO_PRT_Type) and the pin (0-7) in the provided API 
  40:Generated_Source\PSoC6\pdl\drivers/peripheral/gpio/cy_gpio.h **** * functions.
  41:Generated_Source\PSoC6\pdl\drivers/peripheral/gpio/cy_gpio.h **** *
  42:Generated_Source\PSoC6\pdl\drivers/peripheral/gpio/cy_gpio.h **** * \section group_gpio_configuration Configuration Considerations
  43:Generated_Source\PSoC6\pdl\drivers/peripheral/gpio/cy_gpio.h **** *
  44:Generated_Source\PSoC6\pdl\drivers/peripheral/gpio/cy_gpio.h **** * 1. Pin multiplexing is controlled through the High-Speed IO Matrix (HSIOM) selection.
  45:Generated_Source\PSoC6\pdl\drivers/peripheral/gpio/cy_gpio.h **** *    This allows the pin to connect to signal sources/sinks throughout the device,
  46:Generated_Source\PSoC6\pdl\drivers/peripheral/gpio/cy_gpio.h **** *    as defined by the pin HSIOM selection options (en_hsiom_sel_t).
  47:Generated_Source\PSoC6\pdl\drivers/peripheral/gpio/cy_gpio.h **** * 2. All pins are initialized to High-Z drive mode with HSIOM connected to CPU (SW
  48:Generated_Source\PSoC6\pdl\drivers/peripheral/gpio/cy_gpio.h **** *    control digital pin only) at Power-On-Reset(POR).
  49:Generated_Source\PSoC6\pdl\drivers/peripheral/gpio/cy_gpio.h **** * 3. Some API functions perform read-modify-write operations on shared port
  50:Generated_Source\PSoC6\pdl\drivers/peripheral/gpio/cy_gpio.h **** *    registers. These functions are not thread safe and care must be taken when
ARM GAS  C:\Users\Agentos\AppData\Local\Temp\ccHiDLED.s 			page 14


  51:Generated_Source\PSoC6\pdl\drivers/peripheral/gpio/cy_gpio.h **** *    called by the application.
  52:Generated_Source\PSoC6\pdl\drivers/peripheral/gpio/cy_gpio.h **** *
  53:Generated_Source\PSoC6\pdl\drivers/peripheral/gpio/cy_gpio.h **** * Multiple pins on a port can be updated using direct port register writes with an
  54:Generated_Source\PSoC6\pdl\drivers/peripheral/gpio/cy_gpio.h **** * appropriate port mask. An example is shown below, highlighting the different ways of 
  55:Generated_Source\PSoC6\pdl\drivers/peripheral/gpio/cy_gpio.h **** * configuring Port 1 pins using,
  56:Generated_Source\PSoC6\pdl\drivers/peripheral/gpio/cy_gpio.h **** * 
  57:Generated_Source\PSoC6\pdl\drivers/peripheral/gpio/cy_gpio.h **** * - Port output data register
  58:Generated_Source\PSoC6\pdl\drivers/peripheral/gpio/cy_gpio.h **** * - Port output data set register
  59:Generated_Source\PSoC6\pdl\drivers/peripheral/gpio/cy_gpio.h **** * - Port output data clear register
  60:Generated_Source\PSoC6\pdl\drivers/peripheral/gpio/cy_gpio.h **** *
  61:Generated_Source\PSoC6\pdl\drivers/peripheral/gpio/cy_gpio.h **** * \snippet gpio/gpio_v1_10_sut_01.cydsn/main_cm4.c Cy_GPIO_Snippet
  62:Generated_Source\PSoC6\pdl\drivers/peripheral/gpio/cy_gpio.h **** *
  63:Generated_Source\PSoC6\pdl\drivers/peripheral/gpio/cy_gpio.h **** * \section group_gpio_more_information More Information
  64:Generated_Source\PSoC6\pdl\drivers/peripheral/gpio/cy_gpio.h **** *
  65:Generated_Source\PSoC6\pdl\drivers/peripheral/gpio/cy_gpio.h **** * Refer to the technical reference manual (TRM) and the device datasheet.
  66:Generated_Source\PSoC6\pdl\drivers/peripheral/gpio/cy_gpio.h **** *
  67:Generated_Source\PSoC6\pdl\drivers/peripheral/gpio/cy_gpio.h **** * \section group_gpio_MISRA MISRA-C Compliance]
  68:Generated_Source\PSoC6\pdl\drivers/peripheral/gpio/cy_gpio.h **** * <table class="doxtable">
  69:Generated_Source\PSoC6\pdl\drivers/peripheral/gpio/cy_gpio.h **** *   <tr>
  70:Generated_Source\PSoC6\pdl\drivers/peripheral/gpio/cy_gpio.h **** *     <th>MISRA Rule</th>
  71:Generated_Source\PSoC6\pdl\drivers/peripheral/gpio/cy_gpio.h **** *     <th>Rule Class (Required/Advisory)</th>
  72:Generated_Source\PSoC6\pdl\drivers/peripheral/gpio/cy_gpio.h **** *     <th>Rule Description</th>
  73:Generated_Source\PSoC6\pdl\drivers/peripheral/gpio/cy_gpio.h **** *     <th>Description of Deviation(s)</th>
  74:Generated_Source\PSoC6\pdl\drivers/peripheral/gpio/cy_gpio.h **** *   </tr>
  75:Generated_Source\PSoC6\pdl\drivers/peripheral/gpio/cy_gpio.h **** *   <tr>
  76:Generated_Source\PSoC6\pdl\drivers/peripheral/gpio/cy_gpio.h **** *     <td>16.7</td>
  77:Generated_Source\PSoC6\pdl\drivers/peripheral/gpio/cy_gpio.h **** *     <td>A</td>
  78:Generated_Source\PSoC6\pdl\drivers/peripheral/gpio/cy_gpio.h **** *     <td>A pointer parameter in a function prototype should be declared as pointer 
  79:Generated_Source\PSoC6\pdl\drivers/peripheral/gpio/cy_gpio.h **** *         to const if the pointer is not used to modify the addressed object.</td>
  80:Generated_Source\PSoC6\pdl\drivers/peripheral/gpio/cy_gpio.h **** *     <td>The objects pointed to by the base addresses of the GPIO port are not always modified.
  81:Generated_Source\PSoC6\pdl\drivers/peripheral/gpio/cy_gpio.h **** *         While a const qualifier can be used in select scenarios, it brings little benefit
  82:Generated_Source\PSoC6\pdl\drivers/peripheral/gpio/cy_gpio.h **** *         in adding this to the affected functions. </td>
  83:Generated_Source\PSoC6\pdl\drivers/peripheral/gpio/cy_gpio.h **** *   </tr>
  84:Generated_Source\PSoC6\pdl\drivers/peripheral/gpio/cy_gpio.h **** * </table>
  85:Generated_Source\PSoC6\pdl\drivers/peripheral/gpio/cy_gpio.h **** *
  86:Generated_Source\PSoC6\pdl\drivers/peripheral/gpio/cy_gpio.h **** * \section group_gpio_changelog Changelog
  87:Generated_Source\PSoC6\pdl\drivers/peripheral/gpio/cy_gpio.h **** * <table class="doxtable">
  88:Generated_Source\PSoC6\pdl\drivers/peripheral/gpio/cy_gpio.h **** *   <tr><th>Version</th><th>Changes</th><th>Reason for Change</th></tr>
  89:Generated_Source\PSoC6\pdl\drivers/peripheral/gpio/cy_gpio.h **** *   <tr>
  90:Generated_Source\PSoC6\pdl\drivers/peripheral/gpio/cy_gpio.h **** *     <td>1.10.1</td>
  91:Generated_Source\PSoC6\pdl\drivers/peripheral/gpio/cy_gpio.h **** *     <td>Updated description for the functions: \ref Cy_GPIO_GetInterruptStatus, 
  92:Generated_Source\PSoC6\pdl\drivers/peripheral/gpio/cy_gpio.h **** *         \ref Cy_GPIO_GetInterruptMask, \ref Cy_GPIO_GetInterruptStatusMasked.
  93:Generated_Source\PSoC6\pdl\drivers/peripheral/gpio/cy_gpio.h **** *         Minor documentation edits.
  94:Generated_Source\PSoC6\pdl\drivers/peripheral/gpio/cy_gpio.h **** *     </td>
  95:Generated_Source\PSoC6\pdl\drivers/peripheral/gpio/cy_gpio.h **** *     <td>Documentation update and clarification</td>
  96:Generated_Source\PSoC6\pdl\drivers/peripheral/gpio/cy_gpio.h **** *   </tr>
  97:Generated_Source\PSoC6\pdl\drivers/peripheral/gpio/cy_gpio.h **** *   <tr>
  98:Generated_Source\PSoC6\pdl\drivers/peripheral/gpio/cy_gpio.h **** *     <td>1.10</td>
  99:Generated_Source\PSoC6\pdl\drivers/peripheral/gpio/cy_gpio.h **** *     <td>Added input parameter validation to the API functions</td>
 100:Generated_Source\PSoC6\pdl\drivers/peripheral/gpio/cy_gpio.h **** *     <td></td>
 101:Generated_Source\PSoC6\pdl\drivers/peripheral/gpio/cy_gpio.h **** *   </tr>
 102:Generated_Source\PSoC6\pdl\drivers/peripheral/gpio/cy_gpio.h **** *   <tr>
 103:Generated_Source\PSoC6\pdl\drivers/peripheral/gpio/cy_gpio.h **** *     <td>1.0</td>
 104:Generated_Source\PSoC6\pdl\drivers/peripheral/gpio/cy_gpio.h **** *     <td>Initial version</td>
 105:Generated_Source\PSoC6\pdl\drivers/peripheral/gpio/cy_gpio.h **** *     <td></td>
 106:Generated_Source\PSoC6\pdl\drivers/peripheral/gpio/cy_gpio.h **** *   </tr>
 107:Generated_Source\PSoC6\pdl\drivers/peripheral/gpio/cy_gpio.h **** * </table>
ARM GAS  C:\Users\Agentos\AppData\Local\Temp\ccHiDLED.s 			page 15


 108:Generated_Source\PSoC6\pdl\drivers/peripheral/gpio/cy_gpio.h **** *
 109:Generated_Source\PSoC6\pdl\drivers/peripheral/gpio/cy_gpio.h **** * \defgroup group_gpio_macros Macros
 110:Generated_Source\PSoC6\pdl\drivers/peripheral/gpio/cy_gpio.h **** * \defgroup group_gpio_functions Functions
 111:Generated_Source\PSoC6\pdl\drivers/peripheral/gpio/cy_gpio.h **** * \{
 112:Generated_Source\PSoC6\pdl\drivers/peripheral/gpio/cy_gpio.h **** *   \defgroup group_gpio_functions_init       Initialization Functions
 113:Generated_Source\PSoC6\pdl\drivers/peripheral/gpio/cy_gpio.h **** *   \defgroup group_gpio_functions_gpio       GPIO Functions
 114:Generated_Source\PSoC6\pdl\drivers/peripheral/gpio/cy_gpio.h **** *   \defgroup group_gpio_functions_sio        SIO Functions
 115:Generated_Source\PSoC6\pdl\drivers/peripheral/gpio/cy_gpio.h **** *   \defgroup group_gpio_functions_interrupt  Port Interrupt Functions
 116:Generated_Source\PSoC6\pdl\drivers/peripheral/gpio/cy_gpio.h **** * \}
 117:Generated_Source\PSoC6\pdl\drivers/peripheral/gpio/cy_gpio.h **** * \defgroup group_gpio_data_structures Data Structures
 118:Generated_Source\PSoC6\pdl\drivers/peripheral/gpio/cy_gpio.h **** * \defgroup group_gpio_enums Enumerated Types
 119:Generated_Source\PSoC6\pdl\drivers/peripheral/gpio/cy_gpio.h **** */
 120:Generated_Source\PSoC6\pdl\drivers/peripheral/gpio/cy_gpio.h **** 
 121:Generated_Source\PSoC6\pdl\drivers/peripheral/gpio/cy_gpio.h **** #if !defined(CY_GPIO_H)
 122:Generated_Source\PSoC6\pdl\drivers/peripheral/gpio/cy_gpio.h **** #define CY_GPIO_H
 123:Generated_Source\PSoC6\pdl\drivers/peripheral/gpio/cy_gpio.h **** 
 124:Generated_Source\PSoC6\pdl\drivers/peripheral/gpio/cy_gpio.h **** #include <stddef.h>
 125:Generated_Source\PSoC6\pdl\drivers/peripheral/gpio/cy_gpio.h **** #include "syslib/cy_syslib.h"
 126:Generated_Source\PSoC6\pdl\drivers/peripheral/gpio/cy_gpio.h **** #include "cy_device_headers.h"
 127:Generated_Source\PSoC6\pdl\drivers/peripheral/gpio/cy_gpio.h **** 
 128:Generated_Source\PSoC6\pdl\drivers/peripheral/gpio/cy_gpio.h **** #if defined(__cplusplus)
 129:Generated_Source\PSoC6\pdl\drivers/peripheral/gpio/cy_gpio.h **** extern "C" {
 130:Generated_Source\PSoC6\pdl\drivers/peripheral/gpio/cy_gpio.h **** #endif
 131:Generated_Source\PSoC6\pdl\drivers/peripheral/gpio/cy_gpio.h **** 
 132:Generated_Source\PSoC6\pdl\drivers/peripheral/gpio/cy_gpio.h **** /** \addtogroup group_gpio_macros
 133:Generated_Source\PSoC6\pdl\drivers/peripheral/gpio/cy_gpio.h **** * \{
 134:Generated_Source\PSoC6\pdl\drivers/peripheral/gpio/cy_gpio.h **** */
 135:Generated_Source\PSoC6\pdl\drivers/peripheral/gpio/cy_gpio.h **** 
 136:Generated_Source\PSoC6\pdl\drivers/peripheral/gpio/cy_gpio.h **** /** Driver major version */
 137:Generated_Source\PSoC6\pdl\drivers/peripheral/gpio/cy_gpio.h **** #define CY_GPIO_DRV_VERSION_MAJOR       1
 138:Generated_Source\PSoC6\pdl\drivers/peripheral/gpio/cy_gpio.h **** 
 139:Generated_Source\PSoC6\pdl\drivers/peripheral/gpio/cy_gpio.h **** /** Driver minor version */
 140:Generated_Source\PSoC6\pdl\drivers/peripheral/gpio/cy_gpio.h **** #define CY_GPIO_DRV_VERSION_MINOR       10
 141:Generated_Source\PSoC6\pdl\drivers/peripheral/gpio/cy_gpio.h **** 
 142:Generated_Source\PSoC6\pdl\drivers/peripheral/gpio/cy_gpio.h **** /** GPIO driver ID */
 143:Generated_Source\PSoC6\pdl\drivers/peripheral/gpio/cy_gpio.h **** #define CY_GPIO_ID CY_PDL_DRV_ID(0x16u)
 144:Generated_Source\PSoC6\pdl\drivers/peripheral/gpio/cy_gpio.h **** 
 145:Generated_Source\PSoC6\pdl\drivers/peripheral/gpio/cy_gpio.h **** /** \} group_gpio_macros */
 146:Generated_Source\PSoC6\pdl\drivers/peripheral/gpio/cy_gpio.h **** 
 147:Generated_Source\PSoC6\pdl\drivers/peripheral/gpio/cy_gpio.h **** 
 148:Generated_Source\PSoC6\pdl\drivers/peripheral/gpio/cy_gpio.h **** /***************************************
 149:Generated_Source\PSoC6\pdl\drivers/peripheral/gpio/cy_gpio.h **** *       Enumerations
 150:Generated_Source\PSoC6\pdl\drivers/peripheral/gpio/cy_gpio.h **** ***************************************/
 151:Generated_Source\PSoC6\pdl\drivers/peripheral/gpio/cy_gpio.h **** /**
 152:Generated_Source\PSoC6\pdl\drivers/peripheral/gpio/cy_gpio.h **** * \addtogroup group_gpio_enums
 153:Generated_Source\PSoC6\pdl\drivers/peripheral/gpio/cy_gpio.h **** * \{
 154:Generated_Source\PSoC6\pdl\drivers/peripheral/gpio/cy_gpio.h **** */
 155:Generated_Source\PSoC6\pdl\drivers/peripheral/gpio/cy_gpio.h **** 
 156:Generated_Source\PSoC6\pdl\drivers/peripheral/gpio/cy_gpio.h **** /**
 157:Generated_Source\PSoC6\pdl\drivers/peripheral/gpio/cy_gpio.h **** * GPIO Driver error codes
 158:Generated_Source\PSoC6\pdl\drivers/peripheral/gpio/cy_gpio.h **** */
 159:Generated_Source\PSoC6\pdl\drivers/peripheral/gpio/cy_gpio.h **** typedef enum 
 160:Generated_Source\PSoC6\pdl\drivers/peripheral/gpio/cy_gpio.h **** {
 161:Generated_Source\PSoC6\pdl\drivers/peripheral/gpio/cy_gpio.h ****     CY_GPIO_SUCCESS   = 0x00u,                                    /**< Returned successful */
 162:Generated_Source\PSoC6\pdl\drivers/peripheral/gpio/cy_gpio.h ****     CY_GPIO_BAD_PARAM = CY_GPIO_ID | CY_PDL_STATUS_ERROR | 0x01u, /**< Bad parameter was passed */
 163:Generated_Source\PSoC6\pdl\drivers/peripheral/gpio/cy_gpio.h **** } cy_en_gpio_status_t;
 164:Generated_Source\PSoC6\pdl\drivers/peripheral/gpio/cy_gpio.h **** 
ARM GAS  C:\Users\Agentos\AppData\Local\Temp\ccHiDLED.s 			page 16


 165:Generated_Source\PSoC6\pdl\drivers/peripheral/gpio/cy_gpio.h **** /** \} group_gpio_enums */
 166:Generated_Source\PSoC6\pdl\drivers/peripheral/gpio/cy_gpio.h **** 
 167:Generated_Source\PSoC6\pdl\drivers/peripheral/gpio/cy_gpio.h **** 
 168:Generated_Source\PSoC6\pdl\drivers/peripheral/gpio/cy_gpio.h **** /***************************************
 169:Generated_Source\PSoC6\pdl\drivers/peripheral/gpio/cy_gpio.h **** *       Configuration Structures
 170:Generated_Source\PSoC6\pdl\drivers/peripheral/gpio/cy_gpio.h **** ***************************************/
 171:Generated_Source\PSoC6\pdl\drivers/peripheral/gpio/cy_gpio.h **** 
 172:Generated_Source\PSoC6\pdl\drivers/peripheral/gpio/cy_gpio.h **** /**
 173:Generated_Source\PSoC6\pdl\drivers/peripheral/gpio/cy_gpio.h **** * \addtogroup group_gpio_data_structures
 174:Generated_Source\PSoC6\pdl\drivers/peripheral/gpio/cy_gpio.h **** * \{
 175:Generated_Source\PSoC6\pdl\drivers/peripheral/gpio/cy_gpio.h **** */
 176:Generated_Source\PSoC6\pdl\drivers/peripheral/gpio/cy_gpio.h **** 
 177:Generated_Source\PSoC6\pdl\drivers/peripheral/gpio/cy_gpio.h **** /** This structure is used to initialize a port of GPIO pins */
 178:Generated_Source\PSoC6\pdl\drivers/peripheral/gpio/cy_gpio.h **** typedef struct {
 179:Generated_Source\PSoC6\pdl\drivers/peripheral/gpio/cy_gpio.h ****     uint32_t out;           /**< Initial output data for the IO pins in the port */
 180:Generated_Source\PSoC6\pdl\drivers/peripheral/gpio/cy_gpio.h ****     uint32_t intrMask;      /**< Interrupt enable mask for the port interrupt */
 181:Generated_Source\PSoC6\pdl\drivers/peripheral/gpio/cy_gpio.h ****     uint32_t intrCfg;       /**< Port pin interrupt edge detection configuration */
 182:Generated_Source\PSoC6\pdl\drivers/peripheral/gpio/cy_gpio.h ****     uint32_t cfg;           /**< Port pin drive modes and input buffer enable configuration */
 183:Generated_Source\PSoC6\pdl\drivers/peripheral/gpio/cy_gpio.h ****     uint32_t cfgIn;         /**< Port pin input buffer configuration */
 184:Generated_Source\PSoC6\pdl\drivers/peripheral/gpio/cy_gpio.h ****     uint32_t cfgOut;        /**< Port pin output buffer configuration */
 185:Generated_Source\PSoC6\pdl\drivers/peripheral/gpio/cy_gpio.h ****     uint32_t cfgSIO;        /**< Port SIO pins configuration */
 186:Generated_Source\PSoC6\pdl\drivers/peripheral/gpio/cy_gpio.h ****     uint32_t sel0Active;    /**< HSIOM selection for port pins 0,1,2,3 */
 187:Generated_Source\PSoC6\pdl\drivers/peripheral/gpio/cy_gpio.h ****     uint32_t sel1Active;    /**< HSIOM selection for port pins 4,5,6,7 */
 188:Generated_Source\PSoC6\pdl\drivers/peripheral/gpio/cy_gpio.h **** } cy_stc_gpio_prt_config_t;
 189:Generated_Source\PSoC6\pdl\drivers/peripheral/gpio/cy_gpio.h **** 
 190:Generated_Source\PSoC6\pdl\drivers/peripheral/gpio/cy_gpio.h **** /** This structure is used to initialize a single GPIO pin */
 191:Generated_Source\PSoC6\pdl\drivers/peripheral/gpio/cy_gpio.h **** typedef struct {
 192:Generated_Source\PSoC6\pdl\drivers/peripheral/gpio/cy_gpio.h ****     uint32_t outVal;         /**< Pin output state */
 193:Generated_Source\PSoC6\pdl\drivers/peripheral/gpio/cy_gpio.h ****     uint32_t driveMode;      /**< Drive mode */
 194:Generated_Source\PSoC6\pdl\drivers/peripheral/gpio/cy_gpio.h ****     en_hsiom_sel_t hsiom;   /**< HSIOM selection */
 195:Generated_Source\PSoC6\pdl\drivers/peripheral/gpio/cy_gpio.h ****     uint32_t intEdge;        /**< Interrupt Edge type */
 196:Generated_Source\PSoC6\pdl\drivers/peripheral/gpio/cy_gpio.h ****     uint32_t intMask;        /**< Interrupt enable mask */
 197:Generated_Source\PSoC6\pdl\drivers/peripheral/gpio/cy_gpio.h ****     uint32_t vtrip;          /**< Input buffer voltage trip type */
 198:Generated_Source\PSoC6\pdl\drivers/peripheral/gpio/cy_gpio.h ****     uint32_t slewRate;       /**< Output buffer slew rate */
 199:Generated_Source\PSoC6\pdl\drivers/peripheral/gpio/cy_gpio.h ****     uint32_t driveSel;       /**< Drive strength */
 200:Generated_Source\PSoC6\pdl\drivers/peripheral/gpio/cy_gpio.h ****     uint32_t vregEn;         /**< SIO pair output buffer mode */
 201:Generated_Source\PSoC6\pdl\drivers/peripheral/gpio/cy_gpio.h ****     uint32_t ibufMode;       /**< SIO pair input buffer mode */
 202:Generated_Source\PSoC6\pdl\drivers/peripheral/gpio/cy_gpio.h ****     uint32_t vtripSel;       /**< SIO pair input buffer trip point */
 203:Generated_Source\PSoC6\pdl\drivers/peripheral/gpio/cy_gpio.h ****     uint32_t vrefSel;        /**< SIO pair reference voltage for input buffer trip point */
 204:Generated_Source\PSoC6\pdl\drivers/peripheral/gpio/cy_gpio.h ****     uint32_t vohSel;         /**< SIO pair regulated voltage output level */
 205:Generated_Source\PSoC6\pdl\drivers/peripheral/gpio/cy_gpio.h **** } cy_stc_gpio_pin_config_t;
 206:Generated_Source\PSoC6\pdl\drivers/peripheral/gpio/cy_gpio.h **** 
 207:Generated_Source\PSoC6\pdl\drivers/peripheral/gpio/cy_gpio.h **** /** \} group_gpio_data_structures */
 208:Generated_Source\PSoC6\pdl\drivers/peripheral/gpio/cy_gpio.h **** 
 209:Generated_Source\PSoC6\pdl\drivers/peripheral/gpio/cy_gpio.h **** /***************************************
 210:Generated_Source\PSoC6\pdl\drivers/peripheral/gpio/cy_gpio.h **** *        Constants
 211:Generated_Source\PSoC6\pdl\drivers/peripheral/gpio/cy_gpio.h **** ***************************************/
 212:Generated_Source\PSoC6\pdl\drivers/peripheral/gpio/cy_gpio.h **** 
 213:Generated_Source\PSoC6\pdl\drivers/peripheral/gpio/cy_gpio.h **** /** \cond INTERNAL */
 214:Generated_Source\PSoC6\pdl\drivers/peripheral/gpio/cy_gpio.h **** 
 215:Generated_Source\PSoC6\pdl\drivers/peripheral/gpio/cy_gpio.h **** /* General Constants */
 216:Generated_Source\PSoC6\pdl\drivers/peripheral/gpio/cy_gpio.h **** #define CY_GPIO_PRT_HALF                       (4UL)      /**< Half-way point of a GPIO port */
 217:Generated_Source\PSoC6\pdl\drivers/peripheral/gpio/cy_gpio.h **** #define CY_GPIO_PRT_DEINIT                     (0UL)      /**< De-init value for port registers */
 218:Generated_Source\PSoC6\pdl\drivers/peripheral/gpio/cy_gpio.h **** 
 219:Generated_Source\PSoC6\pdl\drivers/peripheral/gpio/cy_gpio.h **** /* GPIO Masks */
 220:Generated_Source\PSoC6\pdl\drivers/peripheral/gpio/cy_gpio.h **** #define CY_GPIO_HSIOM_MASK                     (0x1FUL)   /**< HSIOM selection mask */
 221:Generated_Source\PSoC6\pdl\drivers/peripheral/gpio/cy_gpio.h **** #define CY_GPIO_OUT_MASK                       (0x01UL)   /**< Single pin mask for OUT register */
ARM GAS  C:\Users\Agentos\AppData\Local\Temp\ccHiDLED.s 			page 17


 222:Generated_Source\PSoC6\pdl\drivers/peripheral/gpio/cy_gpio.h **** #define CY_GPIO_IN_MASK                        (0x01UL)   /**< Single pin mask for IN register */
 223:Generated_Source\PSoC6\pdl\drivers/peripheral/gpio/cy_gpio.h **** #define CY_GPIO_CFG_DM_MASK                    (0x0FUL)   /**< Single pin mask for drive mode in CF
 224:Generated_Source\PSoC6\pdl\drivers/peripheral/gpio/cy_gpio.h **** #define CY_GPIO_CFG_IN_VTRIP_SEL_MASK          (0x01UL)   /**< Single pin mask for VTRIP selection 
 225:Generated_Source\PSoC6\pdl\drivers/peripheral/gpio/cy_gpio.h **** #define CY_GPIO_CFG_OUT_SLOW_MASK              (0x01UL)   /**< Single pin mask for slew rate in CFG
 226:Generated_Source\PSoC6\pdl\drivers/peripheral/gpio/cy_gpio.h **** #define CY_GPIO_CFG_OUT_DRIVE_SEL_MASK         (0x03UL)   /**< Single pin mask for drive strength i
 227:Generated_Source\PSoC6\pdl\drivers/peripheral/gpio/cy_gpio.h **** #define CY_GPIO_INTR_STATUS_MASK               (0x01UL)   /**< Single pin mask for interrupt status
 228:Generated_Source\PSoC6\pdl\drivers/peripheral/gpio/cy_gpio.h **** #define CY_GPIO_INTR_EN_MASK                   (0x01UL)   /**< Single pin mask for interrupt status
 229:Generated_Source\PSoC6\pdl\drivers/peripheral/gpio/cy_gpio.h **** #define CY_GPIO_INTR_MASKED_MASK               (0x01UL)   /**< Single pin mask for masked interrupt
 230:Generated_Source\PSoC6\pdl\drivers/peripheral/gpio/cy_gpio.h **** #define CY_GPIO_INTR_SET_MASK                  (0x01UL)   /**< Single pin mask for setting the inte
 231:Generated_Source\PSoC6\pdl\drivers/peripheral/gpio/cy_gpio.h **** #define CY_GPIO_INTR_EDGE_MASK                 (0x03UL)   /**< Single pin mask for interrupt edge t
 232:Generated_Source\PSoC6\pdl\drivers/peripheral/gpio/cy_gpio.h **** #define CY_GPIO_INTR_FLT_EDGE_MASK             (0x07UL)   /**< Single pin mask for setting filtered
 233:Generated_Source\PSoC6\pdl\drivers/peripheral/gpio/cy_gpio.h **** 
 234:Generated_Source\PSoC6\pdl\drivers/peripheral/gpio/cy_gpio.h **** /* SIO Masks */
 235:Generated_Source\PSoC6\pdl\drivers/peripheral/gpio/cy_gpio.h **** #define CY_GPIO_VREG_EN_MASK                   (0x01UL)   /**< Single SIO pin mask for voltage regu
 236:Generated_Source\PSoC6\pdl\drivers/peripheral/gpio/cy_gpio.h **** #define CY_GPIO_IBUF_MASK                      (0x01UL)   /**< Single SIO pin mask for input buffer
 237:Generated_Source\PSoC6\pdl\drivers/peripheral/gpio/cy_gpio.h **** #define CY_GPIO_IBUF_SHIFT                     (0x01UL)   /**< Single SIO pin shift for input buffe
 238:Generated_Source\PSoC6\pdl\drivers/peripheral/gpio/cy_gpio.h **** #define CY_GPIO_VTRIP_SEL_MASK                 (0x01UL)   /**< Single SIO pin mask for the input bu
 239:Generated_Source\PSoC6\pdl\drivers/peripheral/gpio/cy_gpio.h **** #define CY_GPIO_VTRIP_SEL_SHIFT                (0x02UL)   /**< Single SIO pin shift for the input b
 240:Generated_Source\PSoC6\pdl\drivers/peripheral/gpio/cy_gpio.h **** #define CY_GPIO_VREF_SEL_MASK                  (0x03UL)   /**< Single SIO pin mask for voltage refe
 241:Generated_Source\PSoC6\pdl\drivers/peripheral/gpio/cy_gpio.h **** #define CY_GPIO_VREF_SEL_SHIFT                 (0x03UL)   /**< Single SIO pin shift for voltage ref
 242:Generated_Source\PSoC6\pdl\drivers/peripheral/gpio/cy_gpio.h **** #define CY_GPIO_VOH_SEL_MASK                   (0x07UL)   /**< Single SIO pin mask for VOH */
 243:Generated_Source\PSoC6\pdl\drivers/peripheral/gpio/cy_gpio.h **** #define CY_GPIO_VOH_SEL_SHIFT                  (0x05UL)   /**< Single SIO pin shift for VOH */
 244:Generated_Source\PSoC6\pdl\drivers/peripheral/gpio/cy_gpio.h **** 
 245:Generated_Source\PSoC6\pdl\drivers/peripheral/gpio/cy_gpio.h **** /* Special mask for SIO pin pair setting */
 246:Generated_Source\PSoC6\pdl\drivers/peripheral/gpio/cy_gpio.h **** #define CY_GPIO_SIO_ODD_PIN_MASK               (0x00FEUL) /**< SIO pin pair selection mask */
 247:Generated_Source\PSoC6\pdl\drivers/peripheral/gpio/cy_gpio.h **** #define CY_GPIO_SIO_PIN_MASK                   (0x00FFUL) /**< SIO pin pair mask */
 248:Generated_Source\PSoC6\pdl\drivers/peripheral/gpio/cy_gpio.h **** 
 249:Generated_Source\PSoC6\pdl\drivers/peripheral/gpio/cy_gpio.h **** /* Offsets */
 250:Generated_Source\PSoC6\pdl\drivers/peripheral/gpio/cy_gpio.h **** #define CY_GPIO_HSIOM_OFFSET                   (3UL)      /**< Offset for HSIOM */
 251:Generated_Source\PSoC6\pdl\drivers/peripheral/gpio/cy_gpio.h **** #define CY_GPIO_DRIVE_MODE_OFFSET              (2UL)      /**< Offset for Drive mode */
 252:Generated_Source\PSoC6\pdl\drivers/peripheral/gpio/cy_gpio.h **** #define CY_GPIO_INBUF_OFFSET                   (3UL)      /**< Offset for input buffer */
 253:Generated_Source\PSoC6\pdl\drivers/peripheral/gpio/cy_gpio.h **** #define CY_GPIO_CFG_OUT_DRIVE_OFFSET           (16UL)     /**< Offset for drive strength */
 254:Generated_Source\PSoC6\pdl\drivers/peripheral/gpio/cy_gpio.h **** #define CY_GPIO_INTR_CFG_OFFSET                (1UL)      /**< Offset for interrupt config */
 255:Generated_Source\PSoC6\pdl\drivers/peripheral/gpio/cy_gpio.h **** #define CY_GPIO_INTR_FILT_OFFSET               (18UL)     /**< Offset for filtered interrupt config
 256:Generated_Source\PSoC6\pdl\drivers/peripheral/gpio/cy_gpio.h **** #define CY_GPIO_CFG_SIO_OFFSET                 (2UL)      /**< Offset for SIO config */
 257:Generated_Source\PSoC6\pdl\drivers/peripheral/gpio/cy_gpio.h **** 
 258:Generated_Source\PSoC6\pdl\drivers/peripheral/gpio/cy_gpio.h **** /* Parameter validation constants */
 259:Generated_Source\PSoC6\pdl\drivers/peripheral/gpio/cy_gpio.h **** #define CY_GPIO_PINS_MAX                       (8UL)      /**< Number of pins in the port */
 260:Generated_Source\PSoC6\pdl\drivers/peripheral/gpio/cy_gpio.h **** #define CY_GPIO_PRT_PINS_MASK                  (0x0000000FFUL)
 261:Generated_Source\PSoC6\pdl\drivers/peripheral/gpio/cy_gpio.h **** #define CY_GPIO_PRT_INTR_CFG_EDGE_SEL_MASK     (GPIO_PRT_INTR_CFG_EDGE0_SEL_Msk | \
 262:Generated_Source\PSoC6\pdl\drivers/peripheral/gpio/cy_gpio.h ****                                                 GPIO_PRT_INTR_CFG_EDGE1_SEL_Msk | \
 263:Generated_Source\PSoC6\pdl\drivers/peripheral/gpio/cy_gpio.h ****                                                 GPIO_PRT_INTR_CFG_EDGE2_SEL_Msk | \
 264:Generated_Source\PSoC6\pdl\drivers/peripheral/gpio/cy_gpio.h ****                                                 GPIO_PRT_INTR_CFG_EDGE3_SEL_Msk | \
 265:Generated_Source\PSoC6\pdl\drivers/peripheral/gpio/cy_gpio.h ****                                                 GPIO_PRT_INTR_CFG_EDGE4_SEL_Msk | \
 266:Generated_Source\PSoC6\pdl\drivers/peripheral/gpio/cy_gpio.h ****                                                 GPIO_PRT_INTR_CFG_EDGE5_SEL_Msk | \
 267:Generated_Source\PSoC6\pdl\drivers/peripheral/gpio/cy_gpio.h ****                                                 GPIO_PRT_INTR_CFG_EDGE6_SEL_Msk | \
 268:Generated_Source\PSoC6\pdl\drivers/peripheral/gpio/cy_gpio.h ****                                                 GPIO_PRT_INTR_CFG_EDGE7_SEL_Msk)            
 269:Generated_Source\PSoC6\pdl\drivers/peripheral/gpio/cy_gpio.h **** #define CY_GPIO_PRT_INTR_CFG_RANGE_MASK        (CY_GPIO_PRT_INTR_CFG_EDGE_SEL_MASK | \
 270:Generated_Source\PSoC6\pdl\drivers/peripheral/gpio/cy_gpio.h ****                                                 GPIO_PRT_INTR_CFG_FLT_EDGE_SEL_Msk | \
 271:Generated_Source\PSoC6\pdl\drivers/peripheral/gpio/cy_gpio.h ****                                                 GPIO_PRT_INTR_CFG_FLT_SEL_Msk)
 272:Generated_Source\PSoC6\pdl\drivers/peripheral/gpio/cy_gpio.h **** #define CY_GPIO_PRT_INT_MASK_MASK              (0x0000001FFUL)
 273:Generated_Source\PSoC6\pdl\drivers/peripheral/gpio/cy_gpio.h **** #define CY_GPIO_PRT_SEL_ACTIVE_MASK            (0x1FFFFFFFUL)
 274:Generated_Source\PSoC6\pdl\drivers/peripheral/gpio/cy_gpio.h **** 
 275:Generated_Source\PSoC6\pdl\drivers/peripheral/gpio/cy_gpio.h **** /* Parameter validation macros */
 276:Generated_Source\PSoC6\pdl\drivers/peripheral/gpio/cy_gpio.h **** #define CY_GPIO_IS_PIN_VALID(pinNum)           (CY_GPIO_PINS_MAX > (pinNum))
 277:Generated_Source\PSoC6\pdl\drivers/peripheral/gpio/cy_gpio.h **** #define CY_GPIO_IS_FILTER_PIN_VALID(pinNum)    (CY_GPIO_PINS_MAX >= (pinNum))
 278:Generated_Source\PSoC6\pdl\drivers/peripheral/gpio/cy_gpio.h **** #define CY_GPIO_IS_VALUE_VALID(outVal)         (1UL >= (outVal))
ARM GAS  C:\Users\Agentos\AppData\Local\Temp\ccHiDLED.s 			page 18


 279:Generated_Source\PSoC6\pdl\drivers/peripheral/gpio/cy_gpio.h **** #define CY_GPIO_IS_DM_VALID(driveMode)         (0U == ((driveMode) & (uint32_t)~CY_GPIO_CFG_DM_MASK
 280:Generated_Source\PSoC6\pdl\drivers/peripheral/gpio/cy_gpio.h **** 
 281:Generated_Source\PSoC6\pdl\drivers/peripheral/gpio/cy_gpio.h **** #define CY_GPIO_IS_HSIOM_VALID(hsiom)          (0U == ((hsiom) & (uint32_t)~CY_GPIO_HSIOM_MASK))
 282:Generated_Source\PSoC6\pdl\drivers/peripheral/gpio/cy_gpio.h **** 
 283:Generated_Source\PSoC6\pdl\drivers/peripheral/gpio/cy_gpio.h **** #define CY_GPIO_IS_INT_EDGE_VALID(intEdge)     ((CY_GPIO_INTR_DISABLE  == (intEdge)) || \
 284:Generated_Source\PSoC6\pdl\drivers/peripheral/gpio/cy_gpio.h ****                                                 (CY_GPIO_INTR_RISING   == (intEdge)) || \
 285:Generated_Source\PSoC6\pdl\drivers/peripheral/gpio/cy_gpio.h ****                                                 (CY_GPIO_INTR_FALLING  == (intEdge)) || \
 286:Generated_Source\PSoC6\pdl\drivers/peripheral/gpio/cy_gpio.h ****                                                 (CY_GPIO_INTR_BOTH     == (intEdge)))
 287:Generated_Source\PSoC6\pdl\drivers/peripheral/gpio/cy_gpio.h **** 
 288:Generated_Source\PSoC6\pdl\drivers/peripheral/gpio/cy_gpio.h **** #define CY_GPIO_IS_DRIVE_SEL_VALID(driveSel)   ((CY_GPIO_DRIVE_FULL    == (driveSel)) || \
 289:Generated_Source\PSoC6\pdl\drivers/peripheral/gpio/cy_gpio.h ****                                                 (CY_GPIO_DRIVE_1_2     == (driveSel)) || \
 290:Generated_Source\PSoC6\pdl\drivers/peripheral/gpio/cy_gpio.h ****                                                 (CY_GPIO_DRIVE_1_4     == (driveSel)) || \
 291:Generated_Source\PSoC6\pdl\drivers/peripheral/gpio/cy_gpio.h ****                                                 (CY_GPIO_DRIVE_1_8     == (driveSel)))
 292:Generated_Source\PSoC6\pdl\drivers/peripheral/gpio/cy_gpio.h **** 
 293:Generated_Source\PSoC6\pdl\drivers/peripheral/gpio/cy_gpio.h **** #define CY_GPIO_IS_VREF_SEL_VALID(vrefSel)     ((CY_SIO_VREF_PINREF    == (vrefSel)) || \
 294:Generated_Source\PSoC6\pdl\drivers/peripheral/gpio/cy_gpio.h ****                                                 (CY_SIO_VREF_1_2V      == (vrefSel)) || \
 295:Generated_Source\PSoC6\pdl\drivers/peripheral/gpio/cy_gpio.h ****                                                 (CY_SIO_VREF_AMUX_A    == (vrefSel)) || \
 296:Generated_Source\PSoC6\pdl\drivers/peripheral/gpio/cy_gpio.h ****                                                 (CY_SIO_VREF_AMUX_B    == (vrefSel)))
 297:Generated_Source\PSoC6\pdl\drivers/peripheral/gpio/cy_gpio.h **** 
 298:Generated_Source\PSoC6\pdl\drivers/peripheral/gpio/cy_gpio.h **** #define CY_GPIO_IS_VOH_SEL_VALID(vrefSel)      ((CY_SIO_VOH_1_00       == (vrefSel)) || \
 299:Generated_Source\PSoC6\pdl\drivers/peripheral/gpio/cy_gpio.h ****                                                 (CY_SIO_VOH_1_25       == (vrefSel)) || \
 300:Generated_Source\PSoC6\pdl\drivers/peripheral/gpio/cy_gpio.h ****                                                 (CY_SIO_VOH_1_49       == (vrefSel)) || \
 301:Generated_Source\PSoC6\pdl\drivers/peripheral/gpio/cy_gpio.h ****                                                 (CY_SIO_VOH_1_67       == (vrefSel)) || \
 302:Generated_Source\PSoC6\pdl\drivers/peripheral/gpio/cy_gpio.h ****                                                 (CY_SIO_VOH_2_08       == (vrefSel)) || \
 303:Generated_Source\PSoC6\pdl\drivers/peripheral/gpio/cy_gpio.h ****                                                 (CY_SIO_VOH_2_50       == (vrefSel)) || \
 304:Generated_Source\PSoC6\pdl\drivers/peripheral/gpio/cy_gpio.h ****                                                 (CY_SIO_VOH_2_78       == (vrefSel)) || \
 305:Generated_Source\PSoC6\pdl\drivers/peripheral/gpio/cy_gpio.h ****                                                 (CY_SIO_VOH_4_16       == (vrefSel)))
 306:Generated_Source\PSoC6\pdl\drivers/peripheral/gpio/cy_gpio.h ****                    
 307:Generated_Source\PSoC6\pdl\drivers/peripheral/gpio/cy_gpio.h **** #define CY_GPIO_IS_PIN_BIT_VALID(pinBit)       (0U == ((pinBit) & (uint32_t)~CY_GPIO_PRT_PINS_MASK)
 308:Generated_Source\PSoC6\pdl\drivers/peripheral/gpio/cy_gpio.h **** #define CY_GPIO_IS_INTR_CFG_VALID(intrCfg)     (0U == ((intrCfg) & (uint32_t)~CY_GPIO_PRT_INTR_CFG_
 309:Generated_Source\PSoC6\pdl\drivers/peripheral/gpio/cy_gpio.h **** #define CY_GPIO_IS_INTR_MASK_VALID(intrMask)   (0U == ((intrMask) & (uint32_t)~CY_GPIO_PRT_INT_MASK
 310:Generated_Source\PSoC6\pdl\drivers/peripheral/gpio/cy_gpio.h **** #define CY_GPIO_IS_SEL_ACT_VALID(selActive)    (0U == ((selActive) & (uint32_t)~CY_GPIO_PRT_SEL_ACT
 311:Generated_Source\PSoC6\pdl\drivers/peripheral/gpio/cy_gpio.h **** 
 312:Generated_Source\PSoC6\pdl\drivers/peripheral/gpio/cy_gpio.h **** /** \endcond */
 313:Generated_Source\PSoC6\pdl\drivers/peripheral/gpio/cy_gpio.h **** 
 314:Generated_Source\PSoC6\pdl\drivers/peripheral/gpio/cy_gpio.h **** 
 315:Generated_Source\PSoC6\pdl\drivers/peripheral/gpio/cy_gpio.h **** /***************************************
 316:Generated_Source\PSoC6\pdl\drivers/peripheral/gpio/cy_gpio.h **** *        Function Constants
 317:Generated_Source\PSoC6\pdl\drivers/peripheral/gpio/cy_gpio.h **** ***************************************/
 318:Generated_Source\PSoC6\pdl\drivers/peripheral/gpio/cy_gpio.h **** 
 319:Generated_Source\PSoC6\pdl\drivers/peripheral/gpio/cy_gpio.h **** /**
 320:Generated_Source\PSoC6\pdl\drivers/peripheral/gpio/cy_gpio.h **** * \addtogroup group_gpio_macros
 321:Generated_Source\PSoC6\pdl\drivers/peripheral/gpio/cy_gpio.h **** * \{
 322:Generated_Source\PSoC6\pdl\drivers/peripheral/gpio/cy_gpio.h **** */
 323:Generated_Source\PSoC6\pdl\drivers/peripheral/gpio/cy_gpio.h **** 
 324:Generated_Source\PSoC6\pdl\drivers/peripheral/gpio/cy_gpio.h **** /**
 325:Generated_Source\PSoC6\pdl\drivers/peripheral/gpio/cy_gpio.h **** * \defgroup group_gpio_driveModes Pin drive mode
 326:Generated_Source\PSoC6\pdl\drivers/peripheral/gpio/cy_gpio.h **** * \{
 327:Generated_Source\PSoC6\pdl\drivers/peripheral/gpio/cy_gpio.h **** * Constants to be used for setting the drive mode of the pin.
 328:Generated_Source\PSoC6\pdl\drivers/peripheral/gpio/cy_gpio.h **** */
 329:Generated_Source\PSoC6\pdl\drivers/peripheral/gpio/cy_gpio.h **** #define CY_GPIO_DM_ANALOG                      (0x00UL) /**< \brief Analog High-Z. Input buffer off
 330:Generated_Source\PSoC6\pdl\drivers/peripheral/gpio/cy_gpio.h **** #define CY_GPIO_DM_PULLUP_IN_OFF               (0x02UL) /**< \brief Resistive Pull-Up. Input buffer
 331:Generated_Source\PSoC6\pdl\drivers/peripheral/gpio/cy_gpio.h **** #define CY_GPIO_DM_PULLDOWN_IN_OFF             (0x03UL) /**< \brief Resistive Pull-Down. Input buff
 332:Generated_Source\PSoC6\pdl\drivers/peripheral/gpio/cy_gpio.h **** #define CY_GPIO_DM_OD_DRIVESLOW_IN_OFF         (0x04UL) /**< \brief Open Drain, Drives Low. Input b
 333:Generated_Source\PSoC6\pdl\drivers/peripheral/gpio/cy_gpio.h **** #define CY_GPIO_DM_OD_DRIVESHIGH_IN_OFF        (0x05UL) /**< \brief Open Drain, Drives High. Input 
 334:Generated_Source\PSoC6\pdl\drivers/peripheral/gpio/cy_gpio.h **** #define CY_GPIO_DM_STRONG_IN_OFF               (0x06UL) /**< \brief Strong Drive. Input buffer off 
 335:Generated_Source\PSoC6\pdl\drivers/peripheral/gpio/cy_gpio.h **** #define CY_GPIO_DM_PULLUP_DOWN_IN_OFF          (0x07UL) /**< \brief Resistive Pull-Up/Down. Input b
ARM GAS  C:\Users\Agentos\AppData\Local\Temp\ccHiDLED.s 			page 19


 336:Generated_Source\PSoC6\pdl\drivers/peripheral/gpio/cy_gpio.h **** #define CY_GPIO_DM_HIGHZ                       (0x08UL) /**< \brief Digital High-Z. Input buffer on
 337:Generated_Source\PSoC6\pdl\drivers/peripheral/gpio/cy_gpio.h **** #define CY_GPIO_DM_PULLUP                      (0x0AUL) /**< \brief Resistive Pull-Up. Input buffer
 338:Generated_Source\PSoC6\pdl\drivers/peripheral/gpio/cy_gpio.h **** #define CY_GPIO_DM_PULLDOWN                    (0x0BUL) /**< \brief Resistive Pull-Down. Input buff
 339:Generated_Source\PSoC6\pdl\drivers/peripheral/gpio/cy_gpio.h **** #define CY_GPIO_DM_OD_DRIVESLOW                (0x0CUL) /**< \brief Open Drain, Drives Low. Input b
 340:Generated_Source\PSoC6\pdl\drivers/peripheral/gpio/cy_gpio.h **** #define CY_GPIO_DM_OD_DRIVESHIGH               (0x0DUL) /**< \brief Open Drain, Drives High. Input 
 341:Generated_Source\PSoC6\pdl\drivers/peripheral/gpio/cy_gpio.h **** #define CY_GPIO_DM_STRONG                      (0x0EUL) /**< \brief Strong Drive. Input buffer on *
 342:Generated_Source\PSoC6\pdl\drivers/peripheral/gpio/cy_gpio.h **** #define CY_GPIO_DM_PULLUP_DOWN                 (0x0FUL) /**< \brief Resistive Pull-Up/Down. Input b
 343:Generated_Source\PSoC6\pdl\drivers/peripheral/gpio/cy_gpio.h **** /** \} */
 344:Generated_Source\PSoC6\pdl\drivers/peripheral/gpio/cy_gpio.h **** 
 345:Generated_Source\PSoC6\pdl\drivers/peripheral/gpio/cy_gpio.h **** /**
 346:Generated_Source\PSoC6\pdl\drivers/peripheral/gpio/cy_gpio.h **** * \defgroup group_gpio_vtrip Voltage trip mode
 347:Generated_Source\PSoC6\pdl\drivers/peripheral/gpio/cy_gpio.h **** * \{
 348:Generated_Source\PSoC6\pdl\drivers/peripheral/gpio/cy_gpio.h **** * Constants to be used for setting the voltage trip type on the pin.
 349:Generated_Source\PSoC6\pdl\drivers/peripheral/gpio/cy_gpio.h **** */
 350:Generated_Source\PSoC6\pdl\drivers/peripheral/gpio/cy_gpio.h **** #define CY_GPIO_VTRIP_CMOS                     (0x00UL) /**< \brief Input buffer compatible with CM
 351:Generated_Source\PSoC6\pdl\drivers/peripheral/gpio/cy_gpio.h **** #define CY_GPIO_VTRIP_TTL                      (0x01UL) /**< \brief Input buffer compatible with TT
 352:Generated_Source\PSoC6\pdl\drivers/peripheral/gpio/cy_gpio.h **** /** \} */
 353:Generated_Source\PSoC6\pdl\drivers/peripheral/gpio/cy_gpio.h **** 
 354:Generated_Source\PSoC6\pdl\drivers/peripheral/gpio/cy_gpio.h **** /**
 355:Generated_Source\PSoC6\pdl\drivers/peripheral/gpio/cy_gpio.h **** * \defgroup group_gpio_slewRate Slew Rate Mode
 356:Generated_Source\PSoC6\pdl\drivers/peripheral/gpio/cy_gpio.h **** * \{
 357:Generated_Source\PSoC6\pdl\drivers/peripheral/gpio/cy_gpio.h **** * Constants to be used for setting the slew rate of the pin.
 358:Generated_Source\PSoC6\pdl\drivers/peripheral/gpio/cy_gpio.h **** */
 359:Generated_Source\PSoC6\pdl\drivers/peripheral/gpio/cy_gpio.h **** #define CY_GPIO_SLEW_FAST                      (0x00UL) /**< \brief Fast slew rate */
 360:Generated_Source\PSoC6\pdl\drivers/peripheral/gpio/cy_gpio.h **** #define CY_GPIO_SLEW_SLOW                      (0x01UL) /**< \brief Slow slew rate */
 361:Generated_Source\PSoC6\pdl\drivers/peripheral/gpio/cy_gpio.h **** /** \} */
 362:Generated_Source\PSoC6\pdl\drivers/peripheral/gpio/cy_gpio.h **** 
 363:Generated_Source\PSoC6\pdl\drivers/peripheral/gpio/cy_gpio.h **** /**
 364:Generated_Source\PSoC6\pdl\drivers/peripheral/gpio/cy_gpio.h **** * \defgroup group_gpio_driveStrength Pin drive strength
 365:Generated_Source\PSoC6\pdl\drivers/peripheral/gpio/cy_gpio.h **** * \{
 366:Generated_Source\PSoC6\pdl\drivers/peripheral/gpio/cy_gpio.h **** * Constants to be used for setting the drive strength of the pin.
 367:Generated_Source\PSoC6\pdl\drivers/peripheral/gpio/cy_gpio.h **** */
 368:Generated_Source\PSoC6\pdl\drivers/peripheral/gpio/cy_gpio.h **** #define CY_GPIO_DRIVE_FULL                     (0x00UL) /**< \brief Full drive strength: Max drive 
 369:Generated_Source\PSoC6\pdl\drivers/peripheral/gpio/cy_gpio.h **** #define CY_GPIO_DRIVE_1_2                      (0x01UL) /**< \brief 1/2 drive strength: 1/2 drive c
 370:Generated_Source\PSoC6\pdl\drivers/peripheral/gpio/cy_gpio.h **** #define CY_GPIO_DRIVE_1_4                      (0x02UL) /**< \brief 1/4 drive strength: 1/4 drive c
 371:Generated_Source\PSoC6\pdl\drivers/peripheral/gpio/cy_gpio.h **** #define CY_GPIO_DRIVE_1_8                      (0x03UL) /**< \brief 1/8 drive strength: 1/8 drive c
 372:Generated_Source\PSoC6\pdl\drivers/peripheral/gpio/cy_gpio.h **** /** \} */
 373:Generated_Source\PSoC6\pdl\drivers/peripheral/gpio/cy_gpio.h **** 
 374:Generated_Source\PSoC6\pdl\drivers/peripheral/gpio/cy_gpio.h **** /**
 375:Generated_Source\PSoC6\pdl\drivers/peripheral/gpio/cy_gpio.h **** * \defgroup group_gpio_interruptTrigger Interrupt trigger type
 376:Generated_Source\PSoC6\pdl\drivers/peripheral/gpio/cy_gpio.h **** * \{
 377:Generated_Source\PSoC6\pdl\drivers/peripheral/gpio/cy_gpio.h **** * Constants to be used for setting the interrupt trigger type on the pin.
 378:Generated_Source\PSoC6\pdl\drivers/peripheral/gpio/cy_gpio.h **** */
 379:Generated_Source\PSoC6\pdl\drivers/peripheral/gpio/cy_gpio.h **** #define CY_GPIO_INTR_DISABLE                   (0x00UL) /**< \brief Disable the pin interrupt gener
 380:Generated_Source\PSoC6\pdl\drivers/peripheral/gpio/cy_gpio.h **** #define CY_GPIO_INTR_RISING                    (0x01UL) /**< \brief Rising-Edge interrupt */
 381:Generated_Source\PSoC6\pdl\drivers/peripheral/gpio/cy_gpio.h **** #define CY_GPIO_INTR_FALLING                   (0x02UL) /**< \brief Falling-Edge interrupt */
 382:Generated_Source\PSoC6\pdl\drivers/peripheral/gpio/cy_gpio.h **** #define CY_GPIO_INTR_BOTH                      (0x03UL) /**< \brief Both-Edge interrupt */
 383:Generated_Source\PSoC6\pdl\drivers/peripheral/gpio/cy_gpio.h **** /** \} */
 384:Generated_Source\PSoC6\pdl\drivers/peripheral/gpio/cy_gpio.h **** 
 385:Generated_Source\PSoC6\pdl\drivers/peripheral/gpio/cy_gpio.h **** /**
 386:Generated_Source\PSoC6\pdl\drivers/peripheral/gpio/cy_gpio.h **** * \defgroup group_gpio_sioVreg SIO output buffer mode
 387:Generated_Source\PSoC6\pdl\drivers/peripheral/gpio/cy_gpio.h **** * \{
 388:Generated_Source\PSoC6\pdl\drivers/peripheral/gpio/cy_gpio.h **** * Constants to be used for setting the SIO output buffer mode on the pin.
 389:Generated_Source\PSoC6\pdl\drivers/peripheral/gpio/cy_gpio.h **** */
 390:Generated_Source\PSoC6\pdl\drivers/peripheral/gpio/cy_gpio.h **** #define CY_SIO_VREG_UNREGULATED                (0x00UL) /**< \brief Unregulated output buffer */
 391:Generated_Source\PSoC6\pdl\drivers/peripheral/gpio/cy_gpio.h **** #define CY_SIO_VREG_REGULATED                  (0x01UL) /**< \brief Regulated output buffer */
 392:Generated_Source\PSoC6\pdl\drivers/peripheral/gpio/cy_gpio.h **** /** \} */
ARM GAS  C:\Users\Agentos\AppData\Local\Temp\ccHiDLED.s 			page 20


 393:Generated_Source\PSoC6\pdl\drivers/peripheral/gpio/cy_gpio.h **** 
 394:Generated_Source\PSoC6\pdl\drivers/peripheral/gpio/cy_gpio.h **** /**
 395:Generated_Source\PSoC6\pdl\drivers/peripheral/gpio/cy_gpio.h **** * \defgroup group_gpio_sioIbuf SIO input buffer mode
 396:Generated_Source\PSoC6\pdl\drivers/peripheral/gpio/cy_gpio.h **** * \{
 397:Generated_Source\PSoC6\pdl\drivers/peripheral/gpio/cy_gpio.h **** * Constants to be used for setting the SIO input buffer mode on the pin.
 398:Generated_Source\PSoC6\pdl\drivers/peripheral/gpio/cy_gpio.h **** */
 399:Generated_Source\PSoC6\pdl\drivers/peripheral/gpio/cy_gpio.h **** #define CY_SIO_IBUF_SINGLEENDED                (0x00UL) /**< \brief Single ended input buffer */
 400:Generated_Source\PSoC6\pdl\drivers/peripheral/gpio/cy_gpio.h **** #define CY_SIO_IBUF_DIFFERENTIAL               (0x01UL) /**< \brief Differential input buffer */
 401:Generated_Source\PSoC6\pdl\drivers/peripheral/gpio/cy_gpio.h **** /** \} */
 402:Generated_Source\PSoC6\pdl\drivers/peripheral/gpio/cy_gpio.h **** 
 403:Generated_Source\PSoC6\pdl\drivers/peripheral/gpio/cy_gpio.h **** /**
 404:Generated_Source\PSoC6\pdl\drivers/peripheral/gpio/cy_gpio.h **** * \defgroup group_gpio_sioVtrip SIO input buffer trip-point
 405:Generated_Source\PSoC6\pdl\drivers/peripheral/gpio/cy_gpio.h **** * \{
 406:Generated_Source\PSoC6\pdl\drivers/peripheral/gpio/cy_gpio.h **** * Constants to be used for setting the SIO input buffer trip-point of the pin.
 407:Generated_Source\PSoC6\pdl\drivers/peripheral/gpio/cy_gpio.h **** */
 408:Generated_Source\PSoC6\pdl\drivers/peripheral/gpio/cy_gpio.h **** #define CY_SIO_VTRIP_CMOS                      (0x00UL) /**< \brief CMOS input buffer (single-ended
 409:Generated_Source\PSoC6\pdl\drivers/peripheral/gpio/cy_gpio.h **** #define CY_SIO_VTRIP_TTL                       (0x01UL) /**< \brief TTL input buffer (single-ended)
 410:Generated_Source\PSoC6\pdl\drivers/peripheral/gpio/cy_gpio.h **** #define CY_SIO_VTRIP_0_5VDDIO_0_5VOH           (0x00UL) /**< \brief 0.5xVddio or 0.5xVoh (different
 411:Generated_Source\PSoC6\pdl\drivers/peripheral/gpio/cy_gpio.h **** #define CY_SIO_VTRIP_0_4VDDIO_1_0VREF          (0x01UL) /**< \brief 0.4xVddio or 0.4xVoh (different
 412:Generated_Source\PSoC6\pdl\drivers/peripheral/gpio/cy_gpio.h **** /** \} */
 413:Generated_Source\PSoC6\pdl\drivers/peripheral/gpio/cy_gpio.h **** 
 414:Generated_Source\PSoC6\pdl\drivers/peripheral/gpio/cy_gpio.h **** /**
 415:Generated_Source\PSoC6\pdl\drivers/peripheral/gpio/cy_gpio.h **** * \defgroup group_gpio_sioVref SIO reference voltage for input buffer trip-point
 416:Generated_Source\PSoC6\pdl\drivers/peripheral/gpio/cy_gpio.h **** * \{
 417:Generated_Source\PSoC6\pdl\drivers/peripheral/gpio/cy_gpio.h **** * Constants to be used for setting the reference voltage of SIO input buffer trip-point.
 418:Generated_Source\PSoC6\pdl\drivers/peripheral/gpio/cy_gpio.h **** */
 419:Generated_Source\PSoC6\pdl\drivers/peripheral/gpio/cy_gpio.h **** #define CY_SIO_VREF_PINREF                     (0x00UL) /**< \brief Vref from analog pin */
 420:Generated_Source\PSoC6\pdl\drivers/peripheral/gpio/cy_gpio.h **** #define CY_SIO_VREF_1_2V                       (0x01UL) /**< \brief Vref from internal 1.2V referen
 421:Generated_Source\PSoC6\pdl\drivers/peripheral/gpio/cy_gpio.h **** #define CY_SIO_VREF_AMUX_A                     (0x02UL) /**< \brief Vref from AMUXBUS_A */
 422:Generated_Source\PSoC6\pdl\drivers/peripheral/gpio/cy_gpio.h **** #define CY_SIO_VREF_AMUX_B                     (0x03UL) /**< \brief Vref from AMUXBUS_B */
 423:Generated_Source\PSoC6\pdl\drivers/peripheral/gpio/cy_gpio.h **** /** \} */
 424:Generated_Source\PSoC6\pdl\drivers/peripheral/gpio/cy_gpio.h **** 
 425:Generated_Source\PSoC6\pdl\drivers/peripheral/gpio/cy_gpio.h **** /**
 426:Generated_Source\PSoC6\pdl\drivers/peripheral/gpio/cy_gpio.h **** * \defgroup group_gpio_sioVoh Regulated output voltage level (Voh) and input buffer trip-point of a
 427:Generated_Source\PSoC6\pdl\drivers/peripheral/gpio/cy_gpio.h **** * \{
 428:Generated_Source\PSoC6\pdl\drivers/peripheral/gpio/cy_gpio.h **** * Constants to be used for setting the Voh and input buffer trip-point of an SIO pair
 429:Generated_Source\PSoC6\pdl\drivers/peripheral/gpio/cy_gpio.h **** */
 430:Generated_Source\PSoC6\pdl\drivers/peripheral/gpio/cy_gpio.h **** #define CY_SIO_VOH_1_00                        (0x00UL) /**< \brief Voh = 1 x Reference */
 431:Generated_Source\PSoC6\pdl\drivers/peripheral/gpio/cy_gpio.h **** #define CY_SIO_VOH_1_25                        (0x01UL) /**< \brief Voh = 1.25 x Reference */
 432:Generated_Source\PSoC6\pdl\drivers/peripheral/gpio/cy_gpio.h **** #define CY_SIO_VOH_1_49                        (0x02UL) /**< \brief Voh = 1.49 x Reference */
 433:Generated_Source\PSoC6\pdl\drivers/peripheral/gpio/cy_gpio.h **** #define CY_SIO_VOH_1_67                        (0x03UL) /**< \brief Voh = 1.67 x Reference */
 434:Generated_Source\PSoC6\pdl\drivers/peripheral/gpio/cy_gpio.h **** #define CY_SIO_VOH_2_08                        (0x04UL) /**< \brief Voh = 2.08 x Reference */
 435:Generated_Source\PSoC6\pdl\drivers/peripheral/gpio/cy_gpio.h **** #define CY_SIO_VOH_2_50                        (0x05UL) /**< \brief Voh = 2.50 x Reference */
 436:Generated_Source\PSoC6\pdl\drivers/peripheral/gpio/cy_gpio.h **** #define CY_SIO_VOH_2_78                        (0x06UL) /**< \brief Voh = 2.78 x Reference */
 437:Generated_Source\PSoC6\pdl\drivers/peripheral/gpio/cy_gpio.h **** #define CY_SIO_VOH_4_16                        (0x07UL) /**< \brief Voh = 4.16 x Reference */
 438:Generated_Source\PSoC6\pdl\drivers/peripheral/gpio/cy_gpio.h **** /** \} */
 439:Generated_Source\PSoC6\pdl\drivers/peripheral/gpio/cy_gpio.h **** 
 440:Generated_Source\PSoC6\pdl\drivers/peripheral/gpio/cy_gpio.h **** /** \} group_gpio_macros */
 441:Generated_Source\PSoC6\pdl\drivers/peripheral/gpio/cy_gpio.h **** 
 442:Generated_Source\PSoC6\pdl\drivers/peripheral/gpio/cy_gpio.h **** /***************************************
 443:Generated_Source\PSoC6\pdl\drivers/peripheral/gpio/cy_gpio.h **** *        Function Prototypes
 444:Generated_Source\PSoC6\pdl\drivers/peripheral/gpio/cy_gpio.h **** ***************************************/
 445:Generated_Source\PSoC6\pdl\drivers/peripheral/gpio/cy_gpio.h **** 
 446:Generated_Source\PSoC6\pdl\drivers/peripheral/gpio/cy_gpio.h **** /**
 447:Generated_Source\PSoC6\pdl\drivers/peripheral/gpio/cy_gpio.h **** * \addtogroup group_gpio_functions
 448:Generated_Source\PSoC6\pdl\drivers/peripheral/gpio/cy_gpio.h **** * \{
 449:Generated_Source\PSoC6\pdl\drivers/peripheral/gpio/cy_gpio.h **** */
ARM GAS  C:\Users\Agentos\AppData\Local\Temp\ccHiDLED.s 			page 21


 450:Generated_Source\PSoC6\pdl\drivers/peripheral/gpio/cy_gpio.h **** 
 451:Generated_Source\PSoC6\pdl\drivers/peripheral/gpio/cy_gpio.h **** /**
 452:Generated_Source\PSoC6\pdl\drivers/peripheral/gpio/cy_gpio.h **** * \addtogroup group_gpio_functions_init
 453:Generated_Source\PSoC6\pdl\drivers/peripheral/gpio/cy_gpio.h **** * \{
 454:Generated_Source\PSoC6\pdl\drivers/peripheral/gpio/cy_gpio.h **** */
 455:Generated_Source\PSoC6\pdl\drivers/peripheral/gpio/cy_gpio.h **** 
 456:Generated_Source\PSoC6\pdl\drivers/peripheral/gpio/cy_gpio.h **** cy_en_gpio_status_t Cy_GPIO_Pin_Init(GPIO_PRT_Type* base, uint32_t pinNum, const cy_stc_gpio_pin_co
 457:Generated_Source\PSoC6\pdl\drivers/peripheral/gpio/cy_gpio.h **** cy_en_gpio_status_t Cy_GPIO_Port_Init(GPIO_PRT_Type* base, const cy_stc_gpio_prt_config_t *config);
 458:Generated_Source\PSoC6\pdl\drivers/peripheral/gpio/cy_gpio.h **** void Cy_GPIO_Pin_FastInit(GPIO_PRT_Type* base, uint32_t pinNum, uint32_t driveMode, uint32_t outVal
 459:Generated_Source\PSoC6\pdl\drivers/peripheral/gpio/cy_gpio.h **** void Cy_GPIO_Port_Deinit(GPIO_PRT_Type* base);
 460:Generated_Source\PSoC6\pdl\drivers/peripheral/gpio/cy_gpio.h **** __STATIC_INLINE void Cy_GPIO_SetHSIOM(GPIO_PRT_Type* base, uint32_t pinNum, en_hsiom_sel_t value);
 461:Generated_Source\PSoC6\pdl\drivers/peripheral/gpio/cy_gpio.h **** __STATIC_INLINE en_hsiom_sel_t Cy_GPIO_GetHSIOM(GPIO_PRT_Type* base, uint32_t pinNum);
 462:Generated_Source\PSoC6\pdl\drivers/peripheral/gpio/cy_gpio.h **** __STATIC_INLINE GPIO_PRT_Type* Cy_GPIO_PortToAddr(uint32_t portNum);
 463:Generated_Source\PSoC6\pdl\drivers/peripheral/gpio/cy_gpio.h **** 
 464:Generated_Source\PSoC6\pdl\drivers/peripheral/gpio/cy_gpio.h **** /** \} group_gpio_functions_init */
 465:Generated_Source\PSoC6\pdl\drivers/peripheral/gpio/cy_gpio.h **** 
 466:Generated_Source\PSoC6\pdl\drivers/peripheral/gpio/cy_gpio.h **** /**
 467:Generated_Source\PSoC6\pdl\drivers/peripheral/gpio/cy_gpio.h **** * \addtogroup group_gpio_functions_gpio
 468:Generated_Source\PSoC6\pdl\drivers/peripheral/gpio/cy_gpio.h **** * \{
 469:Generated_Source\PSoC6\pdl\drivers/peripheral/gpio/cy_gpio.h **** */
 470:Generated_Source\PSoC6\pdl\drivers/peripheral/gpio/cy_gpio.h **** 
 471:Generated_Source\PSoC6\pdl\drivers/peripheral/gpio/cy_gpio.h **** __STATIC_INLINE uint32_t Cy_GPIO_Read(GPIO_PRT_Type* base, uint32_t pinNum);
 472:Generated_Source\PSoC6\pdl\drivers/peripheral/gpio/cy_gpio.h **** __STATIC_INLINE void Cy_GPIO_Write(GPIO_PRT_Type* base, uint32_t pinNum, uint32_t value);
 473:Generated_Source\PSoC6\pdl\drivers/peripheral/gpio/cy_gpio.h **** __STATIC_INLINE uint32_t Cy_GPIO_ReadOut(GPIO_PRT_Type* base, uint32_t pinNum);
 474:Generated_Source\PSoC6\pdl\drivers/peripheral/gpio/cy_gpio.h **** __STATIC_INLINE void Cy_GPIO_Set(GPIO_PRT_Type* base, uint32_t pinNum);
 475:Generated_Source\PSoC6\pdl\drivers/peripheral/gpio/cy_gpio.h **** __STATIC_INLINE void Cy_GPIO_Clr(GPIO_PRT_Type* base, uint32_t pinNum);
 476:Generated_Source\PSoC6\pdl\drivers/peripheral/gpio/cy_gpio.h **** __STATIC_INLINE void Cy_GPIO_Inv(GPIO_PRT_Type* base, uint32_t pinNum);
 477:Generated_Source\PSoC6\pdl\drivers/peripheral/gpio/cy_gpio.h **** __STATIC_INLINE void Cy_GPIO_SetDrivemode(GPIO_PRT_Type* base, uint32_t pinNum, uint32_t value);
 478:Generated_Source\PSoC6\pdl\drivers/peripheral/gpio/cy_gpio.h **** __STATIC_INLINE uint32_t Cy_GPIO_GetDrivemode(GPIO_PRT_Type* base, uint32_t pinNum);
 479:Generated_Source\PSoC6\pdl\drivers/peripheral/gpio/cy_gpio.h **** __STATIC_INLINE void Cy_GPIO_SetVtrip(GPIO_PRT_Type* base, uint32_t pinNum, uint32_t value);
 480:Generated_Source\PSoC6\pdl\drivers/peripheral/gpio/cy_gpio.h **** __STATIC_INLINE uint32_t Cy_GPIO_GetVtrip(GPIO_PRT_Type* base, uint32_t pinNum);
 481:Generated_Source\PSoC6\pdl\drivers/peripheral/gpio/cy_gpio.h **** __STATIC_INLINE void Cy_GPIO_SetSlewRate(GPIO_PRT_Type* base, uint32_t pinNum, uint32_t value);
 482:Generated_Source\PSoC6\pdl\drivers/peripheral/gpio/cy_gpio.h **** __STATIC_INLINE uint32_t Cy_GPIO_GetSlewRate(GPIO_PRT_Type* base, uint32_t pinNum);
 483:Generated_Source\PSoC6\pdl\drivers/peripheral/gpio/cy_gpio.h **** __STATIC_INLINE void Cy_GPIO_SetDriveSel(GPIO_PRT_Type* base, uint32_t pinNum, uint32_t value);
 484:Generated_Source\PSoC6\pdl\drivers/peripheral/gpio/cy_gpio.h **** __STATIC_INLINE uint32_t Cy_GPIO_GetDriveSel(GPIO_PRT_Type* base, uint32_t pinNum);
 485:Generated_Source\PSoC6\pdl\drivers/peripheral/gpio/cy_gpio.h **** 
 486:Generated_Source\PSoC6\pdl\drivers/peripheral/gpio/cy_gpio.h **** /** \} group_gpio_functions_gpio */
 487:Generated_Source\PSoC6\pdl\drivers/peripheral/gpio/cy_gpio.h **** 
 488:Generated_Source\PSoC6\pdl\drivers/peripheral/gpio/cy_gpio.h **** /**
 489:Generated_Source\PSoC6\pdl\drivers/peripheral/gpio/cy_gpio.h **** * \addtogroup group_gpio_functions_sio
 490:Generated_Source\PSoC6\pdl\drivers/peripheral/gpio/cy_gpio.h **** * \{
 491:Generated_Source\PSoC6\pdl\drivers/peripheral/gpio/cy_gpio.h **** */
 492:Generated_Source\PSoC6\pdl\drivers/peripheral/gpio/cy_gpio.h **** 
 493:Generated_Source\PSoC6\pdl\drivers/peripheral/gpio/cy_gpio.h **** __STATIC_INLINE void Cy_GPIO_SetVregEn(GPIO_PRT_Type* base, uint32_t pinNum, uint32_t value);
 494:Generated_Source\PSoC6\pdl\drivers/peripheral/gpio/cy_gpio.h **** __STATIC_INLINE uint32_t Cy_GPIO_GetVregEn(GPIO_PRT_Type* base, uint32_t pinNum);
 495:Generated_Source\PSoC6\pdl\drivers/peripheral/gpio/cy_gpio.h **** __STATIC_INLINE void Cy_GPIO_SetIbufMode(GPIO_PRT_Type* base, uint32_t pinNum, uint32_t value);
 496:Generated_Source\PSoC6\pdl\drivers/peripheral/gpio/cy_gpio.h **** __STATIC_INLINE uint32_t Cy_GPIO_GetIbufMode(GPIO_PRT_Type* base, uint32_t pinNum);
 497:Generated_Source\PSoC6\pdl\drivers/peripheral/gpio/cy_gpio.h **** __STATIC_INLINE void Cy_GPIO_SetVtripSel(GPIO_PRT_Type* base, uint32_t pinNum, uint32_t value);
 498:Generated_Source\PSoC6\pdl\drivers/peripheral/gpio/cy_gpio.h **** __STATIC_INLINE uint32_t Cy_GPIO_GetVtripSel(GPIO_PRT_Type* base, uint32_t pinNum);
 499:Generated_Source\PSoC6\pdl\drivers/peripheral/gpio/cy_gpio.h **** __STATIC_INLINE void Cy_GPIO_SetVrefSel(GPIO_PRT_Type* base, uint32_t pinNum, uint32_t value);
 500:Generated_Source\PSoC6\pdl\drivers/peripheral/gpio/cy_gpio.h **** __STATIC_INLINE uint32_t Cy_GPIO_GetVrefSel(GPIO_PRT_Type* base, uint32_t pinNum);
 501:Generated_Source\PSoC6\pdl\drivers/peripheral/gpio/cy_gpio.h **** __STATIC_INLINE void Cy_GPIO_SetVohSel(GPIO_PRT_Type* base, uint32_t pinNum, uint32_t value);
 502:Generated_Source\PSoC6\pdl\drivers/peripheral/gpio/cy_gpio.h **** __STATIC_INLINE uint32_t Cy_GPIO_GetVohSel(GPIO_PRT_Type* base, uint32_t pinNum);
 503:Generated_Source\PSoC6\pdl\drivers/peripheral/gpio/cy_gpio.h **** 
 504:Generated_Source\PSoC6\pdl\drivers/peripheral/gpio/cy_gpio.h **** /** \} group_gpio_functions_sio */
 505:Generated_Source\PSoC6\pdl\drivers/peripheral/gpio/cy_gpio.h **** 
 506:Generated_Source\PSoC6\pdl\drivers/peripheral/gpio/cy_gpio.h **** /**
ARM GAS  C:\Users\Agentos\AppData\Local\Temp\ccHiDLED.s 			page 22


 507:Generated_Source\PSoC6\pdl\drivers/peripheral/gpio/cy_gpio.h **** * \addtogroup group_gpio_functions_interrupt
 508:Generated_Source\PSoC6\pdl\drivers/peripheral/gpio/cy_gpio.h **** * \{
 509:Generated_Source\PSoC6\pdl\drivers/peripheral/gpio/cy_gpio.h **** */
 510:Generated_Source\PSoC6\pdl\drivers/peripheral/gpio/cy_gpio.h **** 
 511:Generated_Source\PSoC6\pdl\drivers/peripheral/gpio/cy_gpio.h **** __STATIC_INLINE uint32_t Cy_GPIO_GetInterruptStatus(GPIO_PRT_Type* base, uint32_t pinNum);
 512:Generated_Source\PSoC6\pdl\drivers/peripheral/gpio/cy_gpio.h **** __STATIC_INLINE void Cy_GPIO_ClearInterrupt(GPIO_PRT_Type* base, uint32_t pinNum);
 513:Generated_Source\PSoC6\pdl\drivers/peripheral/gpio/cy_gpio.h **** __STATIC_INLINE void Cy_GPIO_SetInterruptMask(GPIO_PRT_Type* base, uint32_t pinNum, uint32_t value)
 514:Generated_Source\PSoC6\pdl\drivers/peripheral/gpio/cy_gpio.h **** __STATIC_INLINE uint32_t Cy_GPIO_GetInterruptMask(GPIO_PRT_Type* base, uint32_t pinNum);
 515:Generated_Source\PSoC6\pdl\drivers/peripheral/gpio/cy_gpio.h **** __STATIC_INLINE uint32_t Cy_GPIO_GetInterruptStatusMasked(GPIO_PRT_Type* base, uint32_t pinNum);
 516:Generated_Source\PSoC6\pdl\drivers/peripheral/gpio/cy_gpio.h **** __STATIC_INLINE void Cy_GPIO_SetSwInterrupt(GPIO_PRT_Type* base, uint32_t pinNum);
 517:Generated_Source\PSoC6\pdl\drivers/peripheral/gpio/cy_gpio.h **** __STATIC_INLINE void Cy_GPIO_SetInterruptEdge(GPIO_PRT_Type* base, uint32_t pinNum, uint32_t value)
 518:Generated_Source\PSoC6\pdl\drivers/peripheral/gpio/cy_gpio.h **** __STATIC_INLINE uint32_t Cy_GPIO_GetInterruptEdge(GPIO_PRT_Type* base, uint32_t pinNum);
 519:Generated_Source\PSoC6\pdl\drivers/peripheral/gpio/cy_gpio.h **** __STATIC_INLINE void Cy_GPIO_SetFilter(GPIO_PRT_Type* base, uint32_t value);
 520:Generated_Source\PSoC6\pdl\drivers/peripheral/gpio/cy_gpio.h **** __STATIC_INLINE uint32_t Cy_GPIO_GetFilter(GPIO_PRT_Type* base);
 521:Generated_Source\PSoC6\pdl\drivers/peripheral/gpio/cy_gpio.h **** 
 522:Generated_Source\PSoC6\pdl\drivers/peripheral/gpio/cy_gpio.h **** #if (IOSS_GPIO_GPIO_PORT_NR_0_31 != 0) || defined (CY_DOXYGEN)
 523:Generated_Source\PSoC6\pdl\drivers/peripheral/gpio/cy_gpio.h **** __STATIC_INLINE uint32_t Cy_GPIO_GetInterruptCause0(void);
 524:Generated_Source\PSoC6\pdl\drivers/peripheral/gpio/cy_gpio.h **** #endif /* (IOSS_GPIO_GPIO_PORT_NR_0_31 != 0) */
 525:Generated_Source\PSoC6\pdl\drivers/peripheral/gpio/cy_gpio.h **** 
 526:Generated_Source\PSoC6\pdl\drivers/peripheral/gpio/cy_gpio.h **** #if (IOSS_GPIO_GPIO_PORT_NR_32_63 != 0) || defined (CY_DOXYGEN)
 527:Generated_Source\PSoC6\pdl\drivers/peripheral/gpio/cy_gpio.h **** __STATIC_INLINE uint32_t Cy_GPIO_GetInterruptCause1(void);
 528:Generated_Source\PSoC6\pdl\drivers/peripheral/gpio/cy_gpio.h **** #endif /* (IOSS_GPIO_GPIO_PORT_NR_32_63 != 0) */
 529:Generated_Source\PSoC6\pdl\drivers/peripheral/gpio/cy_gpio.h **** 
 530:Generated_Source\PSoC6\pdl\drivers/peripheral/gpio/cy_gpio.h **** #if (IOSS_GPIO_GPIO_PORT_NR_64_95 != 0) || defined (CY_DOXYGEN)
 531:Generated_Source\PSoC6\pdl\drivers/peripheral/gpio/cy_gpio.h **** __STATIC_INLINE uint32_t Cy_GPIO_GetInterruptCause2(void);
 532:Generated_Source\PSoC6\pdl\drivers/peripheral/gpio/cy_gpio.h **** #endif /* (IOSS_GPIO_GPIO_PORT_NR_64_95 != 0) */
 533:Generated_Source\PSoC6\pdl\drivers/peripheral/gpio/cy_gpio.h **** 
 534:Generated_Source\PSoC6\pdl\drivers/peripheral/gpio/cy_gpio.h **** #if (IOSS_GPIO_GPIO_PORT_NR_96_127 != 0) || defined (CY_DOXYGEN)
 535:Generated_Source\PSoC6\pdl\drivers/peripheral/gpio/cy_gpio.h **** __STATIC_INLINE uint32_t Cy_GPIO_GetInterruptCause3(void);
 536:Generated_Source\PSoC6\pdl\drivers/peripheral/gpio/cy_gpio.h **** #endif /* (IOSS_GPIO_GPIO_PORT_NR_96_127 != 0) */
 537:Generated_Source\PSoC6\pdl\drivers/peripheral/gpio/cy_gpio.h **** 
 538:Generated_Source\PSoC6\pdl\drivers/peripheral/gpio/cy_gpio.h **** /** \} group_gpio_functions_interrupt */
 539:Generated_Source\PSoC6\pdl\drivers/peripheral/gpio/cy_gpio.h **** 
 540:Generated_Source\PSoC6\pdl\drivers/peripheral/gpio/cy_gpio.h **** 
 541:Generated_Source\PSoC6\pdl\drivers/peripheral/gpio/cy_gpio.h **** /**
 542:Generated_Source\PSoC6\pdl\drivers/peripheral/gpio/cy_gpio.h **** * \addtogroup group_gpio_functions_init
 543:Generated_Source\PSoC6\pdl\drivers/peripheral/gpio/cy_gpio.h **** * \{
 544:Generated_Source\PSoC6\pdl\drivers/peripheral/gpio/cy_gpio.h **** */
 545:Generated_Source\PSoC6\pdl\drivers/peripheral/gpio/cy_gpio.h **** 
 546:Generated_Source\PSoC6\pdl\drivers/peripheral/gpio/cy_gpio.h **** /*******************************************************************************
 547:Generated_Source\PSoC6\pdl\drivers/peripheral/gpio/cy_gpio.h **** * Function Name: Cy_GPIO_SetHSIOM
 548:Generated_Source\PSoC6\pdl\drivers/peripheral/gpio/cy_gpio.h **** ****************************************************************************//**
 549:Generated_Source\PSoC6\pdl\drivers/peripheral/gpio/cy_gpio.h **** *
 550:Generated_Source\PSoC6\pdl\drivers/peripheral/gpio/cy_gpio.h **** * \brief Configures the HSIOM connection to the pin.
 551:Generated_Source\PSoC6\pdl\drivers/peripheral/gpio/cy_gpio.h **** *
 552:Generated_Source\PSoC6\pdl\drivers/peripheral/gpio/cy_gpio.h **** * Connects the specified High-Speed Input Output Multiplexer (HSIOM) selection
 553:Generated_Source\PSoC6\pdl\drivers/peripheral/gpio/cy_gpio.h **** * to the pin.
 554:Generated_Source\PSoC6\pdl\drivers/peripheral/gpio/cy_gpio.h **** *
 555:Generated_Source\PSoC6\pdl\drivers/peripheral/gpio/cy_gpio.h **** * \param base
 556:Generated_Source\PSoC6\pdl\drivers/peripheral/gpio/cy_gpio.h **** * Pointer to the pin's port register base address
 557:Generated_Source\PSoC6\pdl\drivers/peripheral/gpio/cy_gpio.h **** *
 558:Generated_Source\PSoC6\pdl\drivers/peripheral/gpio/cy_gpio.h **** * \param pinNum
 559:Generated_Source\PSoC6\pdl\drivers/peripheral/gpio/cy_gpio.h **** * Position of the pin bit-field within the port register
 560:Generated_Source\PSoC6\pdl\drivers/peripheral/gpio/cy_gpio.h **** *
 561:Generated_Source\PSoC6\pdl\drivers/peripheral/gpio/cy_gpio.h **** * \param value
 562:Generated_Source\PSoC6\pdl\drivers/peripheral/gpio/cy_gpio.h **** * HSIOM input selection
 563:Generated_Source\PSoC6\pdl\drivers/peripheral/gpio/cy_gpio.h **** *
ARM GAS  C:\Users\Agentos\AppData\Local\Temp\ccHiDLED.s 			page 23


 564:Generated_Source\PSoC6\pdl\drivers/peripheral/gpio/cy_gpio.h **** * \return
 565:Generated_Source\PSoC6\pdl\drivers/peripheral/gpio/cy_gpio.h **** * void
 566:Generated_Source\PSoC6\pdl\drivers/peripheral/gpio/cy_gpio.h **** *
 567:Generated_Source\PSoC6\pdl\drivers/peripheral/gpio/cy_gpio.h **** * \note 
 568:Generated_Source\PSoC6\pdl\drivers/peripheral/gpio/cy_gpio.h **** * This function modifies a port register in a read-modify-write operation. It is
 569:Generated_Source\PSoC6\pdl\drivers/peripheral/gpio/cy_gpio.h **** * not thread safe as the resource is shared among multiple pins on a port.
 570:Generated_Source\PSoC6\pdl\drivers/peripheral/gpio/cy_gpio.h **** *
 571:Generated_Source\PSoC6\pdl\drivers/peripheral/gpio/cy_gpio.h **** * \funcusage
 572:Generated_Source\PSoC6\pdl\drivers/peripheral/gpio/cy_gpio.h **** * \snippet gpio/gpio_v1_10_sut_01.cydsn/main_cm4.c snippet_Cy_GPIO_SetHSIOM
 573:Generated_Source\PSoC6\pdl\drivers/peripheral/gpio/cy_gpio.h **** *
 574:Generated_Source\PSoC6\pdl\drivers/peripheral/gpio/cy_gpio.h **** *******************************************************************************/
 575:Generated_Source\PSoC6\pdl\drivers/peripheral/gpio/cy_gpio.h **** __STATIC_INLINE void Cy_GPIO_SetHSIOM(GPIO_PRT_Type* base, uint32_t pinNum, en_hsiom_sel_t value)
 576:Generated_Source\PSoC6\pdl\drivers/peripheral/gpio/cy_gpio.h **** {
 577:Generated_Source\PSoC6\pdl\drivers/peripheral/gpio/cy_gpio.h ****     uint32_t portNum;
 578:Generated_Source\PSoC6\pdl\drivers/peripheral/gpio/cy_gpio.h ****     uint32_t tempReg;
 579:Generated_Source\PSoC6\pdl\drivers/peripheral/gpio/cy_gpio.h ****     HSIOM_PRT_Type* portAddrHSIOM;
 580:Generated_Source\PSoC6\pdl\drivers/peripheral/gpio/cy_gpio.h **** 
 581:Generated_Source\PSoC6\pdl\drivers/peripheral/gpio/cy_gpio.h ****     CY_ASSERT_L2(CY_GPIO_IS_PIN_VALID(pinNum));
 582:Generated_Source\PSoC6\pdl\drivers/peripheral/gpio/cy_gpio.h ****     CY_ASSERT_L2(CY_GPIO_IS_HSIOM_VALID(value));
 583:Generated_Source\PSoC6\pdl\drivers/peripheral/gpio/cy_gpio.h **** 
 584:Generated_Source\PSoC6\pdl\drivers/peripheral/gpio/cy_gpio.h ****     portNum = ((uint32_t)(base) - GPIO_BASE) / GPIO_PRT_SECTION_SIZE;
 585:Generated_Source\PSoC6\pdl\drivers/peripheral/gpio/cy_gpio.h ****     portAddrHSIOM = (HSIOM_PRT_Type*)(HSIOM_BASE + (HSIOM_PRT_SECTION_SIZE * portNum));
 586:Generated_Source\PSoC6\pdl\drivers/peripheral/gpio/cy_gpio.h **** 
 587:Generated_Source\PSoC6\pdl\drivers/peripheral/gpio/cy_gpio.h ****     if(pinNum < CY_GPIO_PRT_HALF)
 588:Generated_Source\PSoC6\pdl\drivers/peripheral/gpio/cy_gpio.h ****     {
 589:Generated_Source\PSoC6\pdl\drivers/peripheral/gpio/cy_gpio.h ****         tempReg = portAddrHSIOM->PORT_SEL0 & ~(CY_GPIO_HSIOM_MASK << (pinNum << CY_GPIO_HSIOM_OFFSE
 590:Generated_Source\PSoC6\pdl\drivers/peripheral/gpio/cy_gpio.h ****         portAddrHSIOM->PORT_SEL0 = tempReg | ((value & CY_GPIO_HSIOM_MASK) << (pinNum << CY_GPIO_HS
 591:Generated_Source\PSoC6\pdl\drivers/peripheral/gpio/cy_gpio.h ****     }
 592:Generated_Source\PSoC6\pdl\drivers/peripheral/gpio/cy_gpio.h ****     else
 593:Generated_Source\PSoC6\pdl\drivers/peripheral/gpio/cy_gpio.h ****     {
 594:Generated_Source\PSoC6\pdl\drivers/peripheral/gpio/cy_gpio.h ****         pinNum -= CY_GPIO_PRT_HALF;
 595:Generated_Source\PSoC6\pdl\drivers/peripheral/gpio/cy_gpio.h ****         tempReg = portAddrHSIOM->PORT_SEL1 & ~(CY_GPIO_HSIOM_MASK << (pinNum << CY_GPIO_HSIOM_OFFSE
 596:Generated_Source\PSoC6\pdl\drivers/peripheral/gpio/cy_gpio.h ****         portAddrHSIOM->PORT_SEL1 = tempReg | ((value & CY_GPIO_HSIOM_MASK) << (pinNum << CY_GPIO_HS
 597:Generated_Source\PSoC6\pdl\drivers/peripheral/gpio/cy_gpio.h ****     }
 598:Generated_Source\PSoC6\pdl\drivers/peripheral/gpio/cy_gpio.h **** }
 599:Generated_Source\PSoC6\pdl\drivers/peripheral/gpio/cy_gpio.h **** 
 600:Generated_Source\PSoC6\pdl\drivers/peripheral/gpio/cy_gpio.h **** 
 601:Generated_Source\PSoC6\pdl\drivers/peripheral/gpio/cy_gpio.h **** /*******************************************************************************
 602:Generated_Source\PSoC6\pdl\drivers/peripheral/gpio/cy_gpio.h **** * Function Name: Cy_GPIO_GetHSIOM
 603:Generated_Source\PSoC6\pdl\drivers/peripheral/gpio/cy_gpio.h **** ****************************************************************************//**
 604:Generated_Source\PSoC6\pdl\drivers/peripheral/gpio/cy_gpio.h **** *
 605:Generated_Source\PSoC6\pdl\drivers/peripheral/gpio/cy_gpio.h **** * \brief Returns the current HSIOM multiplexer connection to the pin.
 606:Generated_Source\PSoC6\pdl\drivers/peripheral/gpio/cy_gpio.h **** *
 607:Generated_Source\PSoC6\pdl\drivers/peripheral/gpio/cy_gpio.h **** * \param base
 608:Generated_Source\PSoC6\pdl\drivers/peripheral/gpio/cy_gpio.h **** * Pointer to the pin's port register base address
 609:Generated_Source\PSoC6\pdl\drivers/peripheral/gpio/cy_gpio.h **** *
 610:Generated_Source\PSoC6\pdl\drivers/peripheral/gpio/cy_gpio.h **** * \param pinNum
 611:Generated_Source\PSoC6\pdl\drivers/peripheral/gpio/cy_gpio.h **** * Position of the pin bit-field within the port register
 612:Generated_Source\PSoC6\pdl\drivers/peripheral/gpio/cy_gpio.h **** *
 613:Generated_Source\PSoC6\pdl\drivers/peripheral/gpio/cy_gpio.h **** * \return
 614:Generated_Source\PSoC6\pdl\drivers/peripheral/gpio/cy_gpio.h **** * HSIOM input selection
 615:Generated_Source\PSoC6\pdl\drivers/peripheral/gpio/cy_gpio.h **** *
 616:Generated_Source\PSoC6\pdl\drivers/peripheral/gpio/cy_gpio.h **** * \funcusage
 617:Generated_Source\PSoC6\pdl\drivers/peripheral/gpio/cy_gpio.h **** * \snippet gpio/gpio_v1_10_sut_01.cydsn/main_cm4.c snippet_Cy_GPIO_SetHSIOM
 618:Generated_Source\PSoC6\pdl\drivers/peripheral/gpio/cy_gpio.h **** *
 619:Generated_Source\PSoC6\pdl\drivers/peripheral/gpio/cy_gpio.h **** *******************************************************************************/
 620:Generated_Source\PSoC6\pdl\drivers/peripheral/gpio/cy_gpio.h **** __STATIC_INLINE en_hsiom_sel_t Cy_GPIO_GetHSIOM(GPIO_PRT_Type* base, uint32_t pinNum)
ARM GAS  C:\Users\Agentos\AppData\Local\Temp\ccHiDLED.s 			page 24


 621:Generated_Source\PSoC6\pdl\drivers/peripheral/gpio/cy_gpio.h **** {
 622:Generated_Source\PSoC6\pdl\drivers/peripheral/gpio/cy_gpio.h ****     uint32_t returnValue;
 623:Generated_Source\PSoC6\pdl\drivers/peripheral/gpio/cy_gpio.h ****     uint32_t portNum;
 624:Generated_Source\PSoC6\pdl\drivers/peripheral/gpio/cy_gpio.h ****     HSIOM_PRT_Type* portAddrHSIOM;
 625:Generated_Source\PSoC6\pdl\drivers/peripheral/gpio/cy_gpio.h ****     
 626:Generated_Source\PSoC6\pdl\drivers/peripheral/gpio/cy_gpio.h ****     CY_ASSERT_L2(CY_GPIO_IS_PIN_VALID(pinNum));
 627:Generated_Source\PSoC6\pdl\drivers/peripheral/gpio/cy_gpio.h **** 
 628:Generated_Source\PSoC6\pdl\drivers/peripheral/gpio/cy_gpio.h ****     portNum = ((uint32_t)(base) - GPIO_BASE) / GPIO_PRT_SECTION_SIZE;
 629:Generated_Source\PSoC6\pdl\drivers/peripheral/gpio/cy_gpio.h ****     portAddrHSIOM = (HSIOM_PRT_Type*)(HSIOM_BASE + (HSIOM_PRT_SECTION_SIZE * portNum));
 630:Generated_Source\PSoC6\pdl\drivers/peripheral/gpio/cy_gpio.h **** 
 631:Generated_Source\PSoC6\pdl\drivers/peripheral/gpio/cy_gpio.h ****     if(pinNum < CY_GPIO_PRT_HALF)
 632:Generated_Source\PSoC6\pdl\drivers/peripheral/gpio/cy_gpio.h ****     {
 633:Generated_Source\PSoC6\pdl\drivers/peripheral/gpio/cy_gpio.h ****         returnValue = (portAddrHSIOM->PORT_SEL0 >> (pinNum << CY_GPIO_HSIOM_OFFSET)) & CY_GPIO_HSIO
 634:Generated_Source\PSoC6\pdl\drivers/peripheral/gpio/cy_gpio.h ****     }
 635:Generated_Source\PSoC6\pdl\drivers/peripheral/gpio/cy_gpio.h ****     else
 636:Generated_Source\PSoC6\pdl\drivers/peripheral/gpio/cy_gpio.h ****     {
 637:Generated_Source\PSoC6\pdl\drivers/peripheral/gpio/cy_gpio.h ****         pinNum -= CY_GPIO_PRT_HALF;
 638:Generated_Source\PSoC6\pdl\drivers/peripheral/gpio/cy_gpio.h ****         returnValue = (portAddrHSIOM->PORT_SEL1 >> (pinNum << CY_GPIO_HSIOM_OFFSET)) & CY_GPIO_HSIO
 639:Generated_Source\PSoC6\pdl\drivers/peripheral/gpio/cy_gpio.h ****     }
 640:Generated_Source\PSoC6\pdl\drivers/peripheral/gpio/cy_gpio.h **** 
 641:Generated_Source\PSoC6\pdl\drivers/peripheral/gpio/cy_gpio.h ****     return (en_hsiom_sel_t)returnValue;
 642:Generated_Source\PSoC6\pdl\drivers/peripheral/gpio/cy_gpio.h **** }
 643:Generated_Source\PSoC6\pdl\drivers/peripheral/gpio/cy_gpio.h **** 
 644:Generated_Source\PSoC6\pdl\drivers/peripheral/gpio/cy_gpio.h **** 
 645:Generated_Source\PSoC6\pdl\drivers/peripheral/gpio/cy_gpio.h **** /*******************************************************************************
 646:Generated_Source\PSoC6\pdl\drivers/peripheral/gpio/cy_gpio.h **** * Function Name: Cy_GPIO_PortToAddr
 647:Generated_Source\PSoC6\pdl\drivers/peripheral/gpio/cy_gpio.h **** ****************************************************************************//**
 648:Generated_Source\PSoC6\pdl\drivers/peripheral/gpio/cy_gpio.h **** *
 649:Generated_Source\PSoC6\pdl\drivers/peripheral/gpio/cy_gpio.h **** * \brief Retrieves the port address based on the given port number.
 650:Generated_Source\PSoC6\pdl\drivers/peripheral/gpio/cy_gpio.h **** *
 651:Generated_Source\PSoC6\pdl\drivers/peripheral/gpio/cy_gpio.h **** * This is a helper function to calculate the port base address when given a port
 652:Generated_Source\PSoC6\pdl\drivers/peripheral/gpio/cy_gpio.h **** * number. It is to be used when pin access needs to be calculated at runtime.
 653:Generated_Source\PSoC6\pdl\drivers/peripheral/gpio/cy_gpio.h **** *
 654:Generated_Source\PSoC6\pdl\drivers/peripheral/gpio/cy_gpio.h **** * \param portNum
 655:Generated_Source\PSoC6\pdl\drivers/peripheral/gpio/cy_gpio.h **** * Port number
 656:Generated_Source\PSoC6\pdl\drivers/peripheral/gpio/cy_gpio.h **** *
 657:Generated_Source\PSoC6\pdl\drivers/peripheral/gpio/cy_gpio.h **** * \return
 658:Generated_Source\PSoC6\pdl\drivers/peripheral/gpio/cy_gpio.h **** * Base address of the port register structure
 659:Generated_Source\PSoC6\pdl\drivers/peripheral/gpio/cy_gpio.h **** *
 660:Generated_Source\PSoC6\pdl\drivers/peripheral/gpio/cy_gpio.h **** * \funcusage
 661:Generated_Source\PSoC6\pdl\drivers/peripheral/gpio/cy_gpio.h **** * \snippet gpio/gpio_v1_10_sut_01.cydsn/main_cm4.c snippet_Cy_GPIO_PortToAddr
 662:Generated_Source\PSoC6\pdl\drivers/peripheral/gpio/cy_gpio.h **** *
 663:Generated_Source\PSoC6\pdl\drivers/peripheral/gpio/cy_gpio.h **** *******************************************************************************/
 664:Generated_Source\PSoC6\pdl\drivers/peripheral/gpio/cy_gpio.h **** __STATIC_INLINE GPIO_PRT_Type* Cy_GPIO_PortToAddr(uint32_t portNum)
 665:Generated_Source\PSoC6\pdl\drivers/peripheral/gpio/cy_gpio.h **** {
 666:Generated_Source\PSoC6\pdl\drivers/peripheral/gpio/cy_gpio.h ****     GPIO_PRT_Type* base;
 667:Generated_Source\PSoC6\pdl\drivers/peripheral/gpio/cy_gpio.h ****     
 668:Generated_Source\PSoC6\pdl\drivers/peripheral/gpio/cy_gpio.h ****     if(portNum < (uint32_t)IOSS_GPIO_GPIO_PORT_NR)
 669:Generated_Source\PSoC6\pdl\drivers/peripheral/gpio/cy_gpio.h ****     {
 670:Generated_Source\PSoC6\pdl\drivers/peripheral/gpio/cy_gpio.h ****          base = (GPIO_PRT_Type *)(GPIO_BASE + (GPIO_PRT_SECTION_SIZE * portNum));
 671:Generated_Source\PSoC6\pdl\drivers/peripheral/gpio/cy_gpio.h ****     }
 672:Generated_Source\PSoC6\pdl\drivers/peripheral/gpio/cy_gpio.h ****     else
 673:Generated_Source\PSoC6\pdl\drivers/peripheral/gpio/cy_gpio.h ****     {
 674:Generated_Source\PSoC6\pdl\drivers/peripheral/gpio/cy_gpio.h ****         /* Error: Return default base address */
 675:Generated_Source\PSoC6\pdl\drivers/peripheral/gpio/cy_gpio.h ****         base = (GPIO_PRT_Type *)(GPIO_BASE);
 676:Generated_Source\PSoC6\pdl\drivers/peripheral/gpio/cy_gpio.h ****     }
 677:Generated_Source\PSoC6\pdl\drivers/peripheral/gpio/cy_gpio.h **** 
ARM GAS  C:\Users\Agentos\AppData\Local\Temp\ccHiDLED.s 			page 25


 678:Generated_Source\PSoC6\pdl\drivers/peripheral/gpio/cy_gpio.h ****     return (base);
 679:Generated_Source\PSoC6\pdl\drivers/peripheral/gpio/cy_gpio.h **** }
 680:Generated_Source\PSoC6\pdl\drivers/peripheral/gpio/cy_gpio.h **** 
 681:Generated_Source\PSoC6\pdl\drivers/peripheral/gpio/cy_gpio.h **** /** \} group_gpio_functions_init */
 682:Generated_Source\PSoC6\pdl\drivers/peripheral/gpio/cy_gpio.h **** 
 683:Generated_Source\PSoC6\pdl\drivers/peripheral/gpio/cy_gpio.h **** /**
 684:Generated_Source\PSoC6\pdl\drivers/peripheral/gpio/cy_gpio.h **** * \addtogroup group_gpio_functions_gpio
 685:Generated_Source\PSoC6\pdl\drivers/peripheral/gpio/cy_gpio.h **** * \{
 686:Generated_Source\PSoC6\pdl\drivers/peripheral/gpio/cy_gpio.h **** */
 687:Generated_Source\PSoC6\pdl\drivers/peripheral/gpio/cy_gpio.h **** 
 688:Generated_Source\PSoC6\pdl\drivers/peripheral/gpio/cy_gpio.h **** /*******************************************************************************
 689:Generated_Source\PSoC6\pdl\drivers/peripheral/gpio/cy_gpio.h **** * Function Name: Cy_GPIO_Read
 690:Generated_Source\PSoC6\pdl\drivers/peripheral/gpio/cy_gpio.h **** ****************************************************************************//**
 691:Generated_Source\PSoC6\pdl\drivers/peripheral/gpio/cy_gpio.h **** *
 692:Generated_Source\PSoC6\pdl\drivers/peripheral/gpio/cy_gpio.h **** * \brief Reads the current logic level on the input buffer of the pin.
 693:Generated_Source\PSoC6\pdl\drivers/peripheral/gpio/cy_gpio.h **** *
 694:Generated_Source\PSoC6\pdl\drivers/peripheral/gpio/cy_gpio.h **** * \param base
 695:Generated_Source\PSoC6\pdl\drivers/peripheral/gpio/cy_gpio.h **** * Pointer to the pin's port register base address
 696:Generated_Source\PSoC6\pdl\drivers/peripheral/gpio/cy_gpio.h **** *
 697:Generated_Source\PSoC6\pdl\drivers/peripheral/gpio/cy_gpio.h **** * \param pinNum
 698:Generated_Source\PSoC6\pdl\drivers/peripheral/gpio/cy_gpio.h **** * Position of the pin bit-field within the port register.
 699:Generated_Source\PSoC6\pdl\drivers/peripheral/gpio/cy_gpio.h **** * Bit position 8 is the routed pin through the port glitch filter.
 700:Generated_Source\PSoC6\pdl\drivers/peripheral/gpio/cy_gpio.h **** *
 701:Generated_Source\PSoC6\pdl\drivers/peripheral/gpio/cy_gpio.h **** * \return
 702:Generated_Source\PSoC6\pdl\drivers/peripheral/gpio/cy_gpio.h **** * Logic level present on the pin
 703:Generated_Source\PSoC6\pdl\drivers/peripheral/gpio/cy_gpio.h **** *
 704:Generated_Source\PSoC6\pdl\drivers/peripheral/gpio/cy_gpio.h **** * \funcusage
 705:Generated_Source\PSoC6\pdl\drivers/peripheral/gpio/cy_gpio.h **** * \snippet gpio/gpio_v1_10_sut_01.cydsn/main_cm4.c snippet_Cy_GPIO_Read
 706:Generated_Source\PSoC6\pdl\drivers/peripheral/gpio/cy_gpio.h **** *
 707:Generated_Source\PSoC6\pdl\drivers/peripheral/gpio/cy_gpio.h **** *******************************************************************************/
 708:Generated_Source\PSoC6\pdl\drivers/peripheral/gpio/cy_gpio.h **** __STATIC_INLINE uint32_t Cy_GPIO_Read(GPIO_PRT_Type* base, uint32_t pinNum)
 709:Generated_Source\PSoC6\pdl\drivers/peripheral/gpio/cy_gpio.h **** {
 710:Generated_Source\PSoC6\pdl\drivers/peripheral/gpio/cy_gpio.h ****     CY_ASSERT_L2(CY_GPIO_IS_FILTER_PIN_VALID(pinNum));
 711:Generated_Source\PSoC6\pdl\drivers/peripheral/gpio/cy_gpio.h ****     
 712:Generated_Source\PSoC6\pdl\drivers/peripheral/gpio/cy_gpio.h ****     return (base->IN >> (pinNum)) & CY_GPIO_IN_MASK;
 713:Generated_Source\PSoC6\pdl\drivers/peripheral/gpio/cy_gpio.h **** }
 714:Generated_Source\PSoC6\pdl\drivers/peripheral/gpio/cy_gpio.h **** 
 715:Generated_Source\PSoC6\pdl\drivers/peripheral/gpio/cy_gpio.h **** 
 716:Generated_Source\PSoC6\pdl\drivers/peripheral/gpio/cy_gpio.h **** /*******************************************************************************
 717:Generated_Source\PSoC6\pdl\drivers/peripheral/gpio/cy_gpio.h **** * Function Name: Cy_GPIO_Write
 718:Generated_Source\PSoC6\pdl\drivers/peripheral/gpio/cy_gpio.h **** ****************************************************************************//**
 719:Generated_Source\PSoC6\pdl\drivers/peripheral/gpio/cy_gpio.h **** *
 720:Generated_Source\PSoC6\pdl\drivers/peripheral/gpio/cy_gpio.h **** * \brief Write a logic 0 or logic 1 state to the output driver.
 721:Generated_Source\PSoC6\pdl\drivers/peripheral/gpio/cy_gpio.h **** *
 722:Generated_Source\PSoC6\pdl\drivers/peripheral/gpio/cy_gpio.h **** * This function should be used only for software driven pins. It does not have
 723:Generated_Source\PSoC6\pdl\drivers/peripheral/gpio/cy_gpio.h **** * any effect on peripheral driven pins.
 724:Generated_Source\PSoC6\pdl\drivers/peripheral/gpio/cy_gpio.h **** *
 725:Generated_Source\PSoC6\pdl\drivers/peripheral/gpio/cy_gpio.h **** * \param base
 726:Generated_Source\PSoC6\pdl\drivers/peripheral/gpio/cy_gpio.h **** * Pointer to the pin's port register base address
 727:Generated_Source\PSoC6\pdl\drivers/peripheral/gpio/cy_gpio.h **** *
 728:Generated_Source\PSoC6\pdl\drivers/peripheral/gpio/cy_gpio.h **** * \param pinNum
 729:Generated_Source\PSoC6\pdl\drivers/peripheral/gpio/cy_gpio.h **** * Position of the pin bit-field within the port register
 730:Generated_Source\PSoC6\pdl\drivers/peripheral/gpio/cy_gpio.h **** *
 731:Generated_Source\PSoC6\pdl\drivers/peripheral/gpio/cy_gpio.h **** * \param value
 732:Generated_Source\PSoC6\pdl\drivers/peripheral/gpio/cy_gpio.h **** * Logic level to drive out on the pin
 733:Generated_Source\PSoC6\pdl\drivers/peripheral/gpio/cy_gpio.h **** *
 734:Generated_Source\PSoC6\pdl\drivers/peripheral/gpio/cy_gpio.h **** * \return
ARM GAS  C:\Users\Agentos\AppData\Local\Temp\ccHiDLED.s 			page 26


 735:Generated_Source\PSoC6\pdl\drivers/peripheral/gpio/cy_gpio.h **** * void
 736:Generated_Source\PSoC6\pdl\drivers/peripheral/gpio/cy_gpio.h **** *
 737:Generated_Source\PSoC6\pdl\drivers/peripheral/gpio/cy_gpio.h **** * \funcusage
 738:Generated_Source\PSoC6\pdl\drivers/peripheral/gpio/cy_gpio.h **** * \snippet gpio/gpio_v1_10_sut_01.cydsn/main_cm4.c snippet_Cy_GPIO_Write
 739:Generated_Source\PSoC6\pdl\drivers/peripheral/gpio/cy_gpio.h **** *
 740:Generated_Source\PSoC6\pdl\drivers/peripheral/gpio/cy_gpio.h **** *******************************************************************************/
 741:Generated_Source\PSoC6\pdl\drivers/peripheral/gpio/cy_gpio.h **** __STATIC_INLINE void Cy_GPIO_Write(GPIO_PRT_Type* base, uint32_t pinNum, uint32_t value)
 742:Generated_Source\PSoC6\pdl\drivers/peripheral/gpio/cy_gpio.h **** {
 743:Generated_Source\PSoC6\pdl\drivers/peripheral/gpio/cy_gpio.h ****     CY_ASSERT_L2(CY_GPIO_IS_PIN_VALID(pinNum));
 744:Generated_Source\PSoC6\pdl\drivers/peripheral/gpio/cy_gpio.h ****     CY_ASSERT_L2(CY_GPIO_IS_VALUE_VALID(value));
 745:Generated_Source\PSoC6\pdl\drivers/peripheral/gpio/cy_gpio.h **** 
 746:Generated_Source\PSoC6\pdl\drivers/peripheral/gpio/cy_gpio.h ****     /* Thread-safe: Directly access the pin registers instead of base->OUT */
 747:Generated_Source\PSoC6\pdl\drivers/peripheral/gpio/cy_gpio.h ****     if(0UL == value)
 748:Generated_Source\PSoC6\pdl\drivers/peripheral/gpio/cy_gpio.h ****     {
 749:Generated_Source\PSoC6\pdl\drivers/peripheral/gpio/cy_gpio.h ****         base->OUT_CLR = CY_GPIO_OUT_MASK << pinNum;
  94              		.loc 2 749 0
  95 0004 2022     		movs	r2, #32
  96 0006 194B     		ldr	r3, .L12
  97 0008 5A60     		str	r2, [r3, #4]
  98              	.LVL5:
  99              	.LBE14:
 100              	.LBE13:
 596:display_task.c ****     /* Counter variable for the startup screen */
 597:display_task.c ****     uint8_t static  startupScreenCounter = 0u;
 598:display_task.c ****     
 599:display_task.c ****     /* Turn on the Orange LED to indicate a display update in progress */
 600:display_task.c ****     Cy_GPIO_Write(Pin_LED_Orange_0_PORT, Pin_LED_Orange_0_NUM, 0u);
 601:display_task.c ****     
 602:display_task.c ****     /* If the existing image on the display belong to the startup type */
 603:display_task.c ****     if (currentScreenContent == STARTUP_CONTENT)
 101              		.loc 1 603 0
 102 000a 194B     		ldr	r3, .L12+4
 103 000c 1B78     		ldrb	r3, [r3]	@ zero_extendqisi2
 104 000e 022B     		cmp	r3, #2
 105 0010 10D1     		bne	.L7
 604:display_task.c ****     {
 605:display_task.c ****         /* Perform a full update to avoid ghosting as the startup images differ
 606:display_task.c ****            significantly from one another */
 607:display_task.c ****         Cy_EINK_ShowFrame(currentFrame, imagePointer, CY_EINK_FULL_2STAGE,
 106              		.loc 1 607 0
 107 0012 184D     		ldr	r5, .L12+8
 108 0014 0123     		movs	r3, #1
 109 0016 0222     		movs	r2, #2
 110 0018 0146     		mov	r1, r0
 111 001a 2868     		ldr	r0, [r5]
 112              	.LVL6:
 113 001c FFF7FEFF 		bl	Cy_EINK_ShowFrame
 114              	.LVL7:
 608:display_task.c ****                           CY_EINK_POWER_AUTO);
 609:display_task.c ****         
 610:display_task.c ****         /* Check if the end of startup screen is reached */
 611:display_task.c ****         if (startupScreenCounter >= NUMBER_OF_STARTUP_SCREENS)
 115              		.loc 1 611 0
 116 0020 2B79     		ldrb	r3, [r5, #4]	@ zero_extendqisi2
 117 0022 1BB1     		cbz	r3, .L8
 612:display_task.c ****         {
 613:display_task.c ****             /* Change the current screen content to main menu type */
ARM GAS  C:\Users\Agentos\AppData\Local\Temp\ccHiDLED.s 			page 27


 614:display_task.c ****             currentScreenContent = MAIN_MENU_CONTENT;
 118              		.loc 1 614 0
 119 0024 0022     		movs	r2, #0
 120 0026 124B     		ldr	r3, .L12+4
 121 0028 1A70     		strb	r2, [r3]
 122 002a 19E0     		b	.L9
 123              	.L8:
 615:display_task.c ****         }
 616:display_task.c ****         else
 617:display_task.c ****         {
 618:display_task.c ****             /* Increment the startup counter */
 619:display_task.c ****             startupScreenCounter++;
 124              		.loc 1 619 0
 125 002c 0133     		adds	r3, r3, #1
 126 002e 114A     		ldr	r2, .L12+8
 127 0030 1371     		strb	r3, [r2, #4]
 128 0032 15E0     		b	.L9
 129              	.LVL8:
 130              	.L7:
 620:display_task.c ****         }
 621:display_task.c ****     }
 622:display_task.c ****     /* If the existing image on the display belong to the startup type */
 623:display_task.c ****     else if (currentScreenContent == TEXT_PAGE_CONTENT)
 131              		.loc 1 623 0
 132 0034 012B     		cmp	r3, #1
 133 0036 09D1     		bne	.L10
 624:display_task.c ****     {
 625:display_task.c ****         /* Perform a full update to avoid ghosting as the text pages differ
 626:display_task.c ****            significantly from the main menu images */
 627:display_task.c ****         Cy_EINK_ShowFrame(currentFrame, imagePointer, CY_EINK_FULL_2STAGE,
 134              		.loc 1 627 0
 135 0038 0222     		movs	r2, #2
 136 003a 0146     		mov	r1, r0
 137 003c 0D48     		ldr	r0, .L12+8
 138              	.LVL9:
 139 003e 0068     		ldr	r0, [r0]
 140 0040 FFF7FEFF 		bl	Cy_EINK_ShowFrame
 141              	.LVL10:
 628:display_task.c ****                           CY_EINK_POWER_AUTO);
 629:display_task.c ****         
 630:display_task.c ****         /* Change the current screen content to main menu type */
 631:display_task.c ****         currentScreenContent = MAIN_MENU_CONTENT;
 142              		.loc 1 631 0
 143 0044 0022     		movs	r2, #0
 144 0046 0A4B     		ldr	r3, .L12+4
 145 0048 1A70     		strb	r2, [r3]
 146 004a 09E0     		b	.L9
 147              	.LVL11:
 148              	.L10:
 632:display_task.c ****     }
 633:display_task.c ****     /* If the existing image on the display belong to the main menu type */
 634:display_task.c ****     else
 635:display_task.c ****     {
 636:display_task.c ****         /* Perform a partial update for a fast refresh as the main menu images 
 637:display_task.c ****            are similar */
 638:display_task.c ****         Cy_EINK_ShowFrame(currentFrame, imagePointer, CY_EINK_PARTIAL, 
 149              		.loc 1 638 0
ARM GAS  C:\Users\Agentos\AppData\Local\Temp\ccHiDLED.s 			page 28


 150 004c 0123     		movs	r3, #1
 151 004e 0022     		movs	r2, #0
 152 0050 0146     		mov	r1, r0
 153 0052 0848     		ldr	r0, .L12+8
 154              	.LVL12:
 155 0054 0068     		ldr	r0, [r0]
 156 0056 FFF7FEFF 		bl	Cy_EINK_ShowFrame
 157              	.LVL13:
 639:display_task.c ****                           CY_EINK_POWER_AUTO);
 640:display_task.c ****         
 641:display_task.c ****         /* Change the current screen content to main menu type */
 642:display_task.c ****         currentScreenContent = MAIN_MENU_CONTENT;
 158              		.loc 1 642 0
 159 005a 0022     		movs	r2, #0
 160 005c 044B     		ldr	r3, .L12+4
 161 005e 1A70     		strb	r2, [r3]
 162              	.L9:
 643:display_task.c ****     }
 644:display_task.c ****     /* Store the pointer to the current image, which is required for subsequent 
 645:display_task.c ****        updates */
 646:display_task.c ****     currentFrame = imagePointer;
 163              		.loc 1 646 0
 164 0060 044B     		ldr	r3, .L12+8
 165 0062 1C60     		str	r4, [r3]
 166              	.LVL14:
 167              	.LBB15:
 168              	.LBB16:
 750:Generated_Source\PSoC6\pdl\drivers/peripheral/gpio/cy_gpio.h ****     }
 751:Generated_Source\PSoC6\pdl\drivers/peripheral/gpio/cy_gpio.h ****     else
 752:Generated_Source\PSoC6\pdl\drivers/peripheral/gpio/cy_gpio.h ****     {
 753:Generated_Source\PSoC6\pdl\drivers/peripheral/gpio/cy_gpio.h ****         base->OUT_SET = CY_GPIO_OUT_MASK << pinNum;
 169              		.loc 2 753 0
 170 0064 2022     		movs	r2, #32
 171 0066 014B     		ldr	r3, .L12
 172 0068 9A60     		str	r2, [r3, #8]
 173              	.LVL15:
 174 006a 38BD     		pop	{r3, r4, r5, pc}
 175              	.LVL16:
 176              	.L13:
 177              		.align	2
 178              	.L12:
 179 006c 80003240 		.word	1077018752
 180 0070 00000000 		.word	.LANCHOR0
 181 0074 00000000 		.word	.LANCHOR1
 182              	.LBE16:
 183              	.LBE15:
 184              		.cfi_endproc
 185              	.LFE528:
 186              		.size	DisplayImage, .-DisplayImage
 187              		.section	.text.BackToMainMenu,"ax",%progbits
 188              		.align	2
 189              		.thumb
 190              		.thumb_func
 191              		.type	BackToMainMenu, %function
 192              	BackToMainMenu:
 193              	.LFB522:
 329:display_task.c ****     /* Change the current screen type to main menu */
ARM GAS  C:\Users\Agentos\AppData\Local\Temp\ccHiDLED.s 			page 29


 194              		.loc 1 329 0
 195              		.cfi_startproc
 196              		@ args = 0, pretend = 0, frame = 0
 197              		@ frame_needed = 0, uses_anonymous_args = 0
 198 0000 08B5     		push	{r3, lr}
 199              		.cfi_def_cfa_offset 8
 200              		.cfi_offset 3, -8
 201              		.cfi_offset 14, -4
 331:display_task.c ****     
 202              		.loc 1 331 0
 203 0002 064B     		ldr	r3, .L16
 204 0004 0022     		movs	r2, #0
 205 0006 1A72     		strb	r2, [r3, #8]
 334:display_task.c **** }
 206              		.loc 1 334 0
 207 0008 5A7A     		ldrb	r2, [r3, #9]	@ zero_extendqisi2
 208 000a 054B     		ldr	r3, .L16+4
 209 000c 41F2B060 		movw	r0, #5808
 210 0010 00FB0230 		mla	r0, r0, r2, r3
 211 0014 FFF7FEFF 		bl	DisplayImage
 212              	.LVL17:
 213 0018 08BD     		pop	{r3, pc}
 214              	.L17:
 215 001a 00BF     		.align	2
 216              	.L16:
 217 001c 00000000 		.word	.LANCHOR1
 218 0020 00000000 		.word	mainMenuImage
 219              		.cfi_endproc
 220              	.LFE522:
 221              		.size	BackToMainMenu, .-BackToMainMenu
 222              		.section	.text.MoveArrowDown,"ax",%progbits
 223              		.align	2
 224              		.thumb
 225              		.thumb_func
 226              		.type	MoveArrowDown, %function
 227              	MoveArrowDown:
 228              	.LFB524:
 391:display_task.c ****     /* If the final item of the main menu is reached, then move the arrow to the
 229              		.loc 1 391 0
 230              		.cfi_startproc
 231              		@ args = 0, pretend = 0, frame = 0
 232              		@ frame_needed = 0, uses_anonymous_args = 0
 233 0000 08B5     		push	{r3, lr}
 234              		.cfi_def_cfa_offset 8
 235              		.cfi_offset 3, -8
 236              		.cfi_offset 14, -4
 394:display_task.c ****     {
 237              		.loc 1 394 0
 238 0002 0A4B     		ldr	r3, .L22
 239 0004 5B7A     		ldrb	r3, [r3, #9]	@ zero_extendqisi2
 240 0006 022B     		cmp	r3, #2
 241 0008 03D9     		bls	.L19
 396:display_task.c ****     }
 242              		.loc 1 396 0
 243 000a 0022     		movs	r2, #0
 244 000c 074B     		ldr	r3, .L22
 245 000e 5A72     		strb	r2, [r3, #9]
ARM GAS  C:\Users\Agentos\AppData\Local\Temp\ccHiDLED.s 			page 30


 246 0010 02E0     		b	.L20
 247              	.L19:
 401:display_task.c ****     }
 248              		.loc 1 401 0
 249 0012 0133     		adds	r3, r3, #1
 250 0014 054A     		ldr	r2, .L22
 251 0016 5372     		strb	r3, [r2, #9]
 252              	.L20:
 405:display_task.c **** }
 253              		.loc 1 405 0
 254 0018 044B     		ldr	r3, .L22
 255 001a 5A7A     		ldrb	r2, [r3, #9]	@ zero_extendqisi2
 256 001c 044B     		ldr	r3, .L22+4
 257 001e 41F2B060 		movw	r0, #5808
 258 0022 00FB0230 		mla	r0, r0, r2, r3
 259 0026 FFF7FEFF 		bl	DisplayImage
 260              	.LVL18:
 261 002a 08BD     		pop	{r3, pc}
 262              	.L23:
 263              		.align	2
 264              	.L22:
 265 002c 00000000 		.word	.LANCHOR1
 266 0030 00000000 		.word	mainMenuImage
 267              		.cfi_endproc
 268              	.LFE524:
 269              		.size	MoveArrowDown, .-MoveArrowDown
 270              		.section	.text.MoveArrowUp,"ax",%progbits
 271              		.align	2
 272              		.thumb
 273              		.thumb_func
 274              		.type	MoveArrowUp, %function
 275              	MoveArrowUp:
 276              	.LFB523:
 355:display_task.c ****     
 277              		.loc 1 355 0
 278              		.cfi_startproc
 279              		@ args = 0, pretend = 0, frame = 0
 280              		@ frame_needed = 0, uses_anonymous_args = 0
 281 0000 08B5     		push	{r3, lr}
 282              		.cfi_def_cfa_offset 8
 283              		.cfi_offset 3, -8
 284              		.cfi_offset 14, -4
 359:display_task.c ****     {
 285              		.loc 1 359 0
 286 0002 0A4B     		ldr	r3, .L28
 287 0004 5B7A     		ldrb	r3, [r3, #9]	@ zero_extendqisi2
 288 0006 1BB9     		cbnz	r3, .L25
 361:display_task.c ****     }
 289              		.loc 1 361 0
 290 0008 0322     		movs	r2, #3
 291 000a 084B     		ldr	r3, .L28
 292 000c 5A72     		strb	r2, [r3, #9]
 293 000e 02E0     		b	.L26
 294              	.L25:
 366:display_task.c ****     }
 295              		.loc 1 366 0
 296 0010 013B     		subs	r3, r3, #1
ARM GAS  C:\Users\Agentos\AppData\Local\Temp\ccHiDLED.s 			page 31


 297 0012 064A     		ldr	r2, .L28
 298 0014 5372     		strb	r3, [r2, #9]
 299              	.L26:
 370:display_task.c **** }
 300              		.loc 1 370 0
 301 0016 054B     		ldr	r3, .L28
 302 0018 5A7A     		ldrb	r2, [r3, #9]	@ zero_extendqisi2
 303 001a 054B     		ldr	r3, .L28+4
 304 001c 41F2B060 		movw	r0, #5808
 305 0020 00FB0230 		mla	r0, r0, r2, r3
 306 0024 FFF7FEFF 		bl	DisplayImage
 307              	.LVL19:
 308 0028 08BD     		pop	{r3, pc}
 309              	.L29:
 310 002a 00BF     		.align	2
 311              	.L28:
 312 002c 00000000 		.word	.LANCHOR1
 313 0030 00000000 		.word	mainMenuImage
 314              		.cfi_endproc
 315              	.LFE523:
 316              		.size	MoveArrowUp, .-MoveArrowUp
 317              		.section	.text.InitializeFrameBuffers,"ax",%progbits
 318              		.align	2
 319              		.thumb
 320              		.thumb_func
 321              		.type	InitializeFrameBuffers, %function
 322              	InitializeFrameBuffers:
 323              	.LFB527:
 537:display_task.c ****     /* Coordinates at which the text menu images cropped before loading to the
 324              		.loc 1 537 0
 325              		.cfi_startproc
 326              		@ args = 0, pretend = 0, frame = 8
 327              		@ frame_needed = 0, uses_anonymous_args = 0
 328              	.LVL20:
 329 0000 30B5     		push	{r4, r5, lr}
 330              		.cfi_def_cfa_offset 12
 331              		.cfi_offset 4, -12
 332              		.cfi_offset 5, -8
 333              		.cfi_offset 14, -4
 334 0002 83B0     		sub	sp, sp, #12
 335              		.cfi_def_cfa_offset 24
 336 0004 0446     		mov	r4, r0
 541:display_task.c ****     const uint8_t   cropBottom[] = CROP_BACKGROUND_BOTTOM;
 337              		.loc 1 541 0
 338 0006 124B     		ldr	r3, .L33
 339 0008 53F8040B 		ldr	r0, [r3], #4	@ unaligned
 340              	.LVL21:
 341 000c 0190     		str	r0, [sp, #4]	@ unaligned
 542:display_task.c ****     
 342              		.loc 1 542 0
 343 000e 1868     		ldr	r0, [r3]	@ unaligned
 344 0010 0090     		str	r0, [sp]	@ unaligned
 549:display_task.c ****     {
 345              		.loc 1 549 0
 346 0012 104B     		ldr	r3, .L33+4
 347 0014 5B78     		ldrb	r3, [r3, #1]	@ zero_extendqisi2
 348 0016 C3B1     		cbz	r3, .L30
ARM GAS  C:\Users\Agentos\AppData\Local\Temp\ccHiDLED.s 			page 32


 555:display_task.c ****                                    (uint8_t*) cropTop);
 349              		.loc 1 555 0
 350 0018 0F4D     		ldr	r5, .L33+8
 351 001a 01AA     		add	r2, sp, #4
 352 001c 2146     		mov	r1, r4
 353 001e 2846     		mov	r0, r5
 354 0020 FFF7FEFF 		bl	Cy_EINK_ImageToFrameBuffer
 355              	.LVL22:
 557:display_task.c ****                                    (uint8_t*) cropBottom);
 356              		.loc 1 557 0
 357 0024 6A46     		mov	r2, sp
 358 0026 2146     		mov	r1, r4
 359 0028 2846     		mov	r0, r5
 360 002a FFF7FEFF 		bl	Cy_EINK_ImageToFrameBuffer
 361              	.LVL23:
 559:display_task.c ****                                    (uint8_t*) cropTop);
 362              		.loc 1 559 0
 363 002e 0B4D     		ldr	r5, .L33+12
 364 0030 01AA     		add	r2, sp, #4
 365 0032 2146     		mov	r1, r4
 366 0034 2846     		mov	r0, r5
 367 0036 FFF7FEFF 		bl	Cy_EINK_ImageToFrameBuffer
 368              	.LVL24:
 561:display_task.c ****                                    (uint8_t*) cropBottom);
 369              		.loc 1 561 0
 370 003a 6A46     		mov	r2, sp
 371 003c 2146     		mov	r1, r4
 372 003e 2846     		mov	r0, r5
 373 0040 FFF7FEFF 		bl	Cy_EINK_ImageToFrameBuffer
 374              	.LVL25:
 565:display_task.c ****     }
 375              		.loc 1 565 0
 376 0044 0022     		movs	r2, #0
 377 0046 034B     		ldr	r3, .L33+4
 378 0048 5A70     		strb	r2, [r3, #1]
 379              	.L30:
 567:display_task.c **** 
 380              		.loc 1 567 0
 381 004a 03B0     		add	sp, sp, #12
 382              		.cfi_def_cfa_offset 12
 383              		@ sp needed
 384 004c 30BD     		pop	{r4, r5, pc}
 385              	.LVL26:
 386              	.L34:
 387 004e 00BF     		.align	2
 388              	.L33:
 389 0050 00000000 		.word	.LANCHOR2
 390 0054 00000000 		.word	.LANCHOR0
 391 0058 00000000 		.word	frameBuffer
 392 005c B0160000 		.word	frameBuffer+5808
 393              		.cfi_endproc
 394              	.LFE527:
 395              		.size	InitializeFrameBuffers, .-InitializeFrameBuffers
 396              		.section	.text.DisplayImageAndText,"ax",%progbits
 397              		.align	2
 398              		.thumb
 399              		.thumb_func
ARM GAS  C:\Users\Agentos\AppData\Local\Temp\ccHiDLED.s 			page 33


 400              		.type	DisplayImageAndText, %function
 401              	DisplayImageAndText:
 402              	.LFB529:
 647:display_task.c ****     
 648:display_task.c ****     /* Turn off the Orange LED to indicate that display update is finished */
 649:display_task.c ****     Cy_GPIO_Write(Pin_LED_Orange_0_PORT, Pin_LED_Orange_0_NUM, 1u);
 650:display_task.c **** }
 651:display_task.c **** 
 652:display_task.c **** /*******************************************************************************
 653:display_task.c **** * Function Name: void static DisplayImageAndText(char* text, cy_eink_image_t* 
 654:display_task.c **** *                                                            backgroundImage)
 655:display_task.c **** ********************************************************************************
 656:display_task.c **** *
 657:display_task.c **** * Summary:
 658:display_task.c **** *  Displays a string of text with a background image on the E-INK display
 659:display_task.c **** *
 660:display_task.c **** * Parameters:
 661:display_task.c **** *  char* text                             : pointer to the character string
 662:display_task.c **** *  cy_eink_image_t* backgroundImage       : pointer to the background image
 663:display_task.c **** *
 664:display_task.c **** * Return:
 665:display_task.c **** *  None
 666:display_task.c **** *
 667:display_task.c **** * Side Effects:
 668:display_task.c **** *  This function is hard-coded to work with the images, text, and font used in 
 669:display_task.c **** *  this code example. Since this is NOT A GENERIC FUNCTION, it NOT RECOMMENDED 
 670:display_task.c **** *  to copy/paste this function into a different project to display text on the 
 671:display_task.c **** *  E-INK display. It is recommended to use the E-INK library functions for such 
 672:display_task.c **** *  use cases. See Appendix A of the code example document for the details of 
 673:display_task.c **** *  E-INK library functions.
 674:display_task.c **** *
 675:display_task.c **** *******************************************************************************/
 676:display_task.c **** void static DisplayImageAndText(char* text, cy_eink_image_t* backgroundImage)
 677:display_task.c **** {
 403              		.loc 1 677 0
 404              		.cfi_startproc
 405              		@ args = 0, pretend = 0, frame = 8
 406              		@ frame_needed = 0, uses_anonymous_args = 0
 407              	.LVL27:
 408 0000 F0B5     		push	{r4, r5, r6, r7, lr}
 409              		.cfi_def_cfa_offset 20
 410              		.cfi_offset 4, -20
 411              		.cfi_offset 5, -16
 412              		.cfi_offset 6, -12
 413              		.cfi_offset 7, -8
 414              		.cfi_offset 14, -4
 415 0002 83B0     		sub	sp, sp, #12
 416              		.cfi_def_cfa_offset 32
 417 0004 0746     		mov	r7, r0
 678:display_task.c ****     /* Text pages used in this project start printing from these coordinates.
 679:display_task.c ****        See Appendix A of the code example document for the details of text and 
 680:display_task.c ****        font */
 681:display_task.c ****     const uint8_t   textOrigin[] = TEXT_PAGE_ORIGIN;
 418              		.loc 1 681 0
 419 0006 0023     		movs	r3, #0
 420 0008 8DF80430 		strb	r3, [sp, #4]
 421 000c 8DF80530 		strb	r3, [sp, #5]
ARM GAS  C:\Users\Agentos\AppData\Local\Temp\ccHiDLED.s 			page 34


 422              	.LVL28:
 423              	.LBB17:
 424              	.LBB18:
 749:Generated_Source\PSoC6\pdl\drivers/peripheral/gpio/cy_gpio.h ****     }
 425              		.loc 2 749 0
 426 0010 2022     		movs	r2, #32
 427 0012 174B     		ldr	r3, .L39
 428 0014 5A60     		str	r2, [r3, #4]
 429              	.LVL29:
 430              	.LBE18:
 431              	.LBE17:
 682:display_task.c ****     
 683:display_task.c ****     /* Turn on the Orange LED to indicate a display update in progress */
 684:display_task.c ****     Cy_GPIO_Write(Pin_LED_Orange_0_PORT, Pin_LED_Orange_0_NUM, 0u);
 685:display_task.c ****     
 686:display_task.c ****     /* Initialize the frame buffers with the background image. See the function
 687:display_task.c ****        definition for more details */
 688:display_task.c ****     InitializeFrameBuffers(backgroundImage);
 432              		.loc 1 688 0
 433 0016 0846     		mov	r0, r1
 434              	.LVL30:
 435 0018 FFF7FEFF 		bl	InitializeFrameBuffers
 436              	.LVL31:
 689:display_task.c ****     
 690:display_task.c ****     /* Two frame buffers are used in this project since the E-INK display 
 691:display_task.c ****        requires the retention of the previous as well as the current frame. The 
 692:display_task.c ****        code below finds the frame buffer used in the previous update and selects
 693:display_task.c ****        the other frame buffer to be overwritten by the current operation */
 694:display_task.c ****     if (currentFrameBuffer == BUFFER0)
 437              		.loc 1 694 0
 438 001c 154B     		ldr	r3, .L39+4
 439 001e DB7A     		ldrb	r3, [r3, #11]	@ zero_extendqisi2
 440 0020 1BB9     		cbnz	r3, .L36
 695:display_task.c ****     {
 696:display_task.c ****         currentFrameBuffer = BUFFER1;
 441              		.loc 1 696 0
 442 0022 0122     		movs	r2, #1
 443 0024 134B     		ldr	r3, .L39+4
 444 0026 DA72     		strb	r2, [r3, #11]
 445 0028 02E0     		b	.L37
 446              	.L36:
 697:display_task.c ****     }
 698:display_task.c ****     else
 699:display_task.c ****     {
 700:display_task.c ****         currentFrameBuffer = BUFFER0;
 447              		.loc 1 700 0
 448 002a 0022     		movs	r2, #0
 449 002c 114B     		ldr	r3, .L39+4
 450 002e DA72     		strb	r2, [r3, #11]
 451              	.L37:
 701:display_task.c ****     }
 702:display_task.c ****     /* Load the frame buffer with the current text Page content */
 703:display_task.c ****     Cy_EINK_TextToFrameBuffer(frameBuffer[currentFrameBuffer], text,
 452              		.loc 1 703 0
 453 0030 104C     		ldr	r4, .L39+4
 454 0032 E07A     		ldrb	r0, [r4, #11]	@ zero_extendqisi2
 455 0034 41F2B066 		movw	r6, #5808
ARM GAS  C:\Users\Agentos\AppData\Local\Temp\ccHiDLED.s 			page 35


 456 0038 0F4D     		ldr	r5, .L39+8
 457 003a 01AB     		add	r3, sp, #4
 458 003c 0F4A     		ldr	r2, .L39+12
 459 003e 3946     		mov	r1, r7
 460 0040 06FB0050 		mla	r0, r6, r0, r5
 461 0044 FFF7FEFF 		bl	Cy_EINK_TextToFrameBuffer
 462              	.LVL32:
 704:display_task.c ****                               CY_EINK_FONT_8X12BLACK, (uint8_t*) textOrigin);
 705:display_task.c ****     
 706:display_task.c ****     /* Perform a full update to avoid ghosting as the text pages differ
 707:display_task.c ****        significantly from one another and also from the main menu images */
 708:display_task.c ****     Cy_EINK_ShowFrame(currentFrame, frameBuffer[currentFrameBuffer],
 463              		.loc 1 708 0
 464 0048 E17A     		ldrb	r1, [r4, #11]	@ zero_extendqisi2
 465 004a 0123     		movs	r3, #1
 466 004c 0222     		movs	r2, #2
 467 004e 06FB0151 		mla	r1, r6, r1, r5
 468 0052 2068     		ldr	r0, [r4]
 469 0054 FFF7FEFF 		bl	Cy_EINK_ShowFrame
 470              	.LVL33:
 709:display_task.c ****                       CY_EINK_FULL_2STAGE, CY_EINK_POWER_AUTO);
 710:display_task.c ****     
 711:display_task.c ****     /* Store the pointer to the current frame, which is required for subsequent 
 712:display_task.c ****        updates */
 713:display_task.c ****     currentFrame = frameBuffer[currentFrameBuffer];
 471              		.loc 1 713 0
 472 0058 E37A     		ldrb	r3, [r4, #11]	@ zero_extendqisi2
 473 005a 06FB0353 		mla	r3, r6, r3, r5
 474 005e 2360     		str	r3, [r4]
 714:display_task.c ****     
 715:display_task.c ****     /* Change the current screen content to text page type */
 716:display_task.c ****     currentScreenContent = TEXT_PAGE_CONTENT;
 475              		.loc 1 716 0
 476 0060 0122     		movs	r2, #1
 477 0062 074B     		ldr	r3, .L39+16
 478 0064 1A70     		strb	r2, [r3]
 479              	.LVL34:
 480              	.LBB19:
 481              	.LBB20:
 482              		.loc 2 753 0
 483 0066 2022     		movs	r2, #32
 484 0068 014B     		ldr	r3, .L39
 485 006a 9A60     		str	r2, [r3, #8]
 486              	.LVL35:
 487              	.LBE20:
 488              	.LBE19:
 717:display_task.c ****     
 718:display_task.c ****     /* Turn off the Orange LED to indicate that display update is finished */
 719:display_task.c ****     Cy_GPIO_Write(Pin_LED_Orange_0_PORT, Pin_LED_Orange_0_NUM, 1u);
 720:display_task.c **** }
 489              		.loc 1 720 0
 490 006c 03B0     		add	sp, sp, #12
 491              		.cfi_def_cfa_offset 20
 492              		@ sp needed
 493 006e F0BD     		pop	{r4, r5, r6, r7, pc}
 494              	.LVL36:
 495              	.L40:
ARM GAS  C:\Users\Agentos\AppData\Local\Temp\ccHiDLED.s 			page 36


 496              		.align	2
 497              	.L39:
 498 0070 80003240 		.word	1077018752
 499 0074 00000000 		.word	.LANCHOR1
 500 0078 00000000 		.word	frameBuffer
 501 007c 00000000 		.word	cy_eink_font8By12_blackInWhite
 502 0080 00000000 		.word	.LANCHOR0
 503              		.cfi_endproc
 504              	.LFE529:
 505              		.size	DisplayImageAndText, .-DisplayImageAndText
 506              		.section	.text.NextTextPage,"ax",%progbits
 507              		.align	2
 508              		.thumb
 509              		.thumb_func
 510              		.type	NextTextPage, %function
 511              	NextTextPage:
 512              	.LFB526:
 476:display_task.c ****     /* Variable that stores the index of the character array, which in turn 
 513              		.loc 1 476 0
 514              		.cfi_startproc
 515              		@ args = 0, pretend = 0, frame = 0
 516              		@ frame_needed = 0, uses_anonymous_args = 0
 517 0000 08B5     		push	{r3, lr}
 518              		.cfi_def_cfa_offset 8
 519              		.cfi_offset 3, -8
 520              		.cfi_offset 14, -4
 483:display_task.c ****     {
 521              		.loc 1 483 0
 522 0002 104B     		ldr	r3, .L46
 523 0004 9A7A     		ldrb	r2, [r3, #10]	@ zero_extendqisi2
 524 0006 5B7A     		ldrb	r3, [r3, #9]	@ zero_extendqisi2
 525 0008 0F49     		ldr	r1, .L46+4
 526 000a C95C     		ldrb	r1, [r1, r3]	@ zero_extendqisi2
 527 000c 8A42     		cmp	r2, r1
 528 000e 03D3     		bcc	.L42
 485:display_task.c ****     }
 529              		.loc 1 485 0
 530 0010 0021     		movs	r1, #0
 531 0012 0C4A     		ldr	r2, .L46
 532 0014 9172     		strb	r1, [r2, #10]
 533 0016 02E0     		b	.L43
 534              	.L42:
 490:display_task.c ****     }
 535              		.loc 1 490 0
 536 0018 0132     		adds	r2, r2, #1
 537 001a 0A49     		ldr	r1, .L46
 538 001c 8A72     		strb	r2, [r1, #10]
 539              	.L43:
 496:display_task.c ****     
 540              		.loc 1 496 0
 541 001e 094A     		ldr	r2, .L46
 542 0020 917A     		ldrb	r1, [r2, #10]	@ zero_extendqisi2
 495:display_task.c ****                                     [currentScreen.textPage];
 543              		.loc 1 495 0
 544 0022 03EB8303 		add	r3, r3, r3, lsl #2
 545 0026 5A00     		lsls	r2, r3, #1
 546 0028 084B     		ldr	r3, .L46+8
ARM GAS  C:\Users\Agentos\AppData\Local\Temp\ccHiDLED.s 			page 37


 547 002a 1A44     		add	r2, r2, r3
 548 002c 535C     		ldrb	r3, [r2, r1]	@ zero_extendqisi2
 549              	.LVL37:
 499:display_task.c ****     {
 550              		.loc 1 499 0
 551 002e FF2B     		cmp	r3, #255
 552 0030 07D0     		beq	.L41
 502:display_task.c ****                             (cy_eink_image_t*) textPageBackground);
 553              		.loc 1 502 0
 554 0032 0749     		ldr	r1, .L46+12
 555 0034 074A     		ldr	r2, .L46+16
 556 0036 40F28D10 		movw	r0, #397
 557 003a 00FB0320 		mla	r0, r0, r3, r2
 558 003e FFF7FEFF 		bl	DisplayImageAndText
 559              	.LVL38:
 560              	.L41:
 561 0042 08BD     		pop	{r3, pc}
 562              	.L47:
 563              		.align	2
 564              	.L46:
 565 0044 00000000 		.word	.LANCHOR1
 566 0048 00000000 		.word	maxTextPageIndexes
 567 004c 00000000 		.word	textPageIndex
 568 0050 00000000 		.word	textPageBackground
 569 0054 00000000 		.word	textPage
 570              		.cfi_endproc
 571              	.LFE526:
 572              		.size	NextTextPage, .-NextTextPage
 573              		.section	.text.PreviousTextPage,"ax",%progbits
 574              		.align	2
 575              		.thumb
 576              		.thumb_func
 577              		.type	PreviousTextPage, %function
 578              	PreviousTextPage:
 579              	.LFB525:
 426:display_task.c ****     
 580              		.loc 1 426 0
 581              		.cfi_startproc
 582              		@ args = 0, pretend = 0, frame = 0
 583              		@ frame_needed = 0, uses_anonymous_args = 0
 584 0000 08B5     		push	{r3, lr}
 585              		.cfi_def_cfa_offset 8
 586              		.cfi_offset 3, -8
 587              		.cfi_offset 14, -4
 434:display_task.c ****     {
 588              		.loc 1 434 0
 589 0002 104B     		ldr	r3, .L53
 590 0004 9B7A     		ldrb	r3, [r3, #10]	@ zero_extendqisi2
 591 0006 2BB9     		cbnz	r3, .L49
 436:display_task.c ****     }
 592              		.loc 1 436 0
 593 0008 0E4B     		ldr	r3, .L53
 594 000a 5A7A     		ldrb	r2, [r3, #9]	@ zero_extendqisi2
 595 000c 0E49     		ldr	r1, .L53+4
 596 000e 8A5C     		ldrb	r2, [r1, r2]	@ zero_extendqisi2
 597 0010 9A72     		strb	r2, [r3, #10]
 598 0012 02E0     		b	.L50
ARM GAS  C:\Users\Agentos\AppData\Local\Temp\ccHiDLED.s 			page 38


 599              	.L49:
 441:display_task.c ****     }
 600              		.loc 1 441 0
 601 0014 013B     		subs	r3, r3, #1
 602 0016 0B4A     		ldr	r2, .L53
 603 0018 9372     		strb	r3, [r2, #10]
 604              	.L50:
 446:display_task.c ****                                     [currentScreen.textPage];
 605              		.loc 1 446 0
 606 001a 0A4A     		ldr	r2, .L53
 607 001c 537A     		ldrb	r3, [r2, #9]	@ zero_extendqisi2
 447:display_task.c ****     
 608              		.loc 1 447 0
 609 001e 917A     		ldrb	r1, [r2, #10]	@ zero_extendqisi2
 446:display_task.c ****                                     [currentScreen.textPage];
 610              		.loc 1 446 0
 611 0020 03EB8303 		add	r3, r3, r3, lsl #2
 612 0024 5A00     		lsls	r2, r3, #1
 613 0026 094B     		ldr	r3, .L53+8
 614 0028 1A44     		add	r2, r2, r3
 615 002a 535C     		ldrb	r3, [r2, r1]	@ zero_extendqisi2
 616              	.LVL39:
 450:display_task.c ****     {
 617              		.loc 1 450 0
 618 002c FF2B     		cmp	r3, #255
 619 002e 07D0     		beq	.L48
 453:display_task.c ****                             (cy_eink_image_t*) textPageBackground);
 620              		.loc 1 453 0
 621 0030 0749     		ldr	r1, .L53+12
 622 0032 084A     		ldr	r2, .L53+16
 623 0034 40F28D10 		movw	r0, #397
 624 0038 00FB0320 		mla	r0, r0, r3, r2
 625 003c FFF7FEFF 		bl	DisplayImageAndText
 626              	.LVL40:
 627              	.L48:
 628 0040 08BD     		pop	{r3, pc}
 629              	.L54:
 630 0042 00BF     		.align	2
 631              	.L53:
 632 0044 00000000 		.word	.LANCHOR1
 633 0048 00000000 		.word	maxTextPageIndexes
 634 004c 00000000 		.word	textPageIndex
 635 0050 00000000 		.word	textPageBackground
 636 0054 00000000 		.word	textPage
 637              		.cfi_endproc
 638              	.LFE525:
 639              		.size	PreviousTextPage, .-PreviousTextPage
 640              		.section	.text.GoToTextPage,"ax",%progbits
 641              		.align	2
 642              		.thumb
 643              		.thumb_func
 644              		.type	GoToTextPage, %function
 645              	GoToTextPage:
 646              	.LFB521:
 286:display_task.c ****     /* Variable that stores the index of the character array, which in turn 
 647              		.loc 1 286 0
 648              		.cfi_startproc
ARM GAS  C:\Users\Agentos\AppData\Local\Temp\ccHiDLED.s 			page 39


 649              		@ args = 0, pretend = 0, frame = 0
 650              		@ frame_needed = 0, uses_anonymous_args = 0
 651 0000 08B5     		push	{r3, lr}
 652              		.cfi_def_cfa_offset 8
 653              		.cfi_offset 3, -8
 654              		.cfi_offset 14, -4
 292:display_task.c **** 
 655              		.loc 1 292 0
 656 0002 0B4B     		ldr	r3, .L58
 657 0004 0122     		movs	r2, #1
 658 0006 1A72     		strb	r2, [r3, #8]
 295:display_task.c ****     
 659              		.loc 1 295 0
 660 0008 0022     		movs	r2, #0
 661 000a 9A72     		strb	r2, [r3, #10]
 299:display_task.c ****                                     [currentScreen.textPage];
 662              		.loc 1 299 0
 663 000c 5B7A     		ldrb	r3, [r3, #9]	@ zero_extendqisi2
 664 000e 03EB8303 		add	r3, r3, r3, lsl #2
 665 0012 5A00     		lsls	r2, r3, #1
 666 0014 074B     		ldr	r3, .L58+4
 667 0016 9B5C     		ldrb	r3, [r3, r2]	@ zero_extendqisi2
 668              	.LVL41:
 303:display_task.c ****     {
 669              		.loc 1 303 0
 670 0018 FF2B     		cmp	r3, #255
 671 001a 07D0     		beq	.L55
 306:display_task.c ****                             (cy_eink_image_t*) textPageBackground);
 672              		.loc 1 306 0
 673 001c 0649     		ldr	r1, .L58+8
 674 001e 074A     		ldr	r2, .L58+12
 675 0020 40F28D10 		movw	r0, #397
 676 0024 00FB0320 		mla	r0, r0, r3, r2
 677 0028 FFF7FEFF 		bl	DisplayImageAndText
 678              	.LVL42:
 679              	.L55:
 680 002c 08BD     		pop	{r3, pc}
 681              	.L59:
 682 002e 00BF     		.align	2
 683              	.L58:
 684 0030 00000000 		.word	.LANCHOR1
 685 0034 00000000 		.word	textPageIndex
 686 0038 00000000 		.word	textPageBackground
 687 003c 00000000 		.word	textPage
 688              		.cfi_endproc
 689              	.LFE521:
 690              		.size	GoToTextPage, .-GoToTextPage
 691              		.section	.text.Task_Display,"ax",%progbits
 692              		.align	2
 693              		.global	Task_Display
 694              		.thumb
 695              		.thumb_func
 696              		.type	Task_Display, %function
 697              	Task_Display:
 698              	.LFB519:
 128:display_task.c ****     /* Flag that indicates if the E-INK display has been detected */
 699              		.loc 1 128 0
ARM GAS  C:\Users\Agentos\AppData\Local\Temp\ccHiDLED.s 			page 40


 700              		.cfi_startproc
 701              		@ args = 0, pretend = 0, frame = 16
 702              		@ frame_needed = 0, uses_anonymous_args = 0
 703              	.LVL43:
 704 0000 00B5     		push	{lr}
 705              		.cfi_def_cfa_offset 4
 706              		.cfi_offset 14, -4
 707 0002 85B0     		sub	sp, sp, #20
 708              		.cfi_def_cfa_offset 24
 709              	.LVL44:
 144:display_task.c ****     
 710              		.loc 1 144 0
 711 0004 FFF7FEFF 		bl	InitTemperature
 712              	.LVL45:
 147:display_task.c ****     
 713              		.loc 1 147 0
 714 0008 FFF7FEFF 		bl	GetTemperature
 715              	.LVL46:
 716 000c 07EE900A 		vmov	s15, r0
 717 0010 FDEEE77A 		vcvt.s32.f32	s15, s15
 718 0014 CDED017A 		vstr.32	s15, [sp, #4]	@ int
 719              	.LVL47:
 151:display_task.c ****     {
 720              		.loc 1 151 0
 721 0018 1849     		ldr	r1, .L65
 722 001a 9DF90400 		ldrsb	r0, [sp, #4]
 723 001e FFF7FEFF 		bl	Cy_EINK_Start
 724              	.LVL48:
 725 0022 30B9     		cbnz	r0, .L61
 156:display_task.c **** 
 726              		.loc 1 156 0
 727 0024 0120     		movs	r0, #1
 728 0026 FFF7FEFF 		bl	Cy_EINK_Power
 729              	.LVL49:
 158:display_task.c ****         {
 730              		.loc 1 158 0
 731 002a 10B1     		cbz	r0, .L61
 732              	.LVL50:
 733              	.LBB21:
 734              	.LBB22:
 749:Generated_Source\PSoC6\pdl\drivers/peripheral/gpio/cy_gpio.h ****     }
 735              		.loc 2 749 0
 736 002c 8022     		movs	r2, #128
 737 002e 144B     		ldr	r3, .L65+4
 738 0030 5A60     		str	r2, [r3, #4]
 739              	.LVL51:
 740              	.L61:
 741              	.LBE22:
 742              	.LBE21:
 178:display_task.c ****             
 743              		.loc 1 178 0
 744 0032 0021     		movs	r1, #0
 745 0034 0120     		movs	r0, #1
 746 0036 FFF7FEFF 		bl	Cy_EINK_Clear
 747              	.LVL52:
 181:display_task.c **** 
 748              		.loc 1 181 0
ARM GAS  C:\Users\Agentos\AppData\Local\Temp\ccHiDLED.s 			page 41


 749 003a 1248     		ldr	r0, .L65+8
 750 003c FFF7FEFF 		bl	DisplayImage
 751              	.LVL53:
 184:display_task.c **** 
 752              		.loc 1 184 0
 753 0040 40F6B830 		movw	r0, #3000
 754 0044 FFF7FEFF 		bl	vTaskDelay
 755              	.LVL54:
 187:display_task.c ****     
 756              		.loc 1 187 0
 757 0048 0F48     		ldr	r0, .L65+12
 758 004a FFF7FEFF 		bl	DisplayImage
 759              	.LVL55:
 760              	.L62:
 193:display_task.c ****                          portMAX_DELAY);
 761              		.loc 1 193 0
 762 004e 0023     		movs	r3, #0
 763 0050 4FF0FF32 		mov	r2, #-1
 764 0054 0DF10F01 		add	r1, sp, #15
 765 0058 0C48     		ldr	r0, .L65+16
 766 005a 0068     		ldr	r0, [r0]
 767 005c FFF7FEFF 		bl	xQueueGenericReceive
 768              	.LVL56:
 197:display_task.c ****         {
 769              		.loc 1 197 0
 770 0060 0128     		cmp	r0, #1
 771 0062 F4D1     		bne	.L62
 772              	.LBB23:
 227:display_task.c **** 
 773              		.loc 1 227 0
 774 0064 0A4B     		ldr	r3, .L65+20
 775 0066 1A7A     		ldrb	r2, [r3, #8]	@ zero_extendqisi2
 776 0068 9DF80F30 		ldrb	r3, [sp, #15]	@ zero_extendqisi2
 777 006c 03EB8202 		add	r2, r3, r2, lsl #2
 778 0070 084B     		ldr	r3, .L65+24
 779 0072 03EB8203 		add	r3, r3, r2, lsl #2
 780 0076 9B68     		ldr	r3, [r3, #8]
 781 0078 9847     		blx	r3
 782              	.LVL57:
 783              	.LBE23:
 784 007a E8E7     		b	.L62
 785              	.L66:
 786              		.align	2
 787              	.L65:
 788 007c 00000000 		.word	DelayMs
 789 0080 80063240 		.word	1077020288
 790 0084 00000000 		.word	logo
 791 0088 00000000 		.word	mainMenuImage
 792 008c 00000000 		.word	touchDataQ
 793 0090 00000000 		.word	.LANCHOR1
 794 0094 00000000 		.word	.LANCHOR2
 795              		.cfi_endproc
 796              	.LFE519:
 797              		.size	Task_Display, .-Task_Display
 798              		.global	currentScreen
 799              		.global	currentFrame
 800              		.comm	frameBuffer,11616,4
ARM GAS  C:\Users\Agentos\AppData\Local\Temp\ccHiDLED.s 			page 42


 801              		.global	currentFrameBuffer
 802              		.global	currentScreenContent
 803              		.section	.rodata
 804              		.align	2
 805              		.set	.LANCHOR2,. + 0
 806              	.LC0:
 807 0000 00       		.byte	0
 808 0001 21       		.byte	33
 809 0002 00       		.byte	0
 810 0003 04       		.byte	4
 811              	.LC1:
 812 0004 00       		.byte	0
 813 0005 21       		.byte	33
 814 0006 94       		.byte	-108
 815 0007 AF       		.byte	-81
 816              		.type	ScreenUpdatePointer.17154, %object
 817              		.size	ScreenUpdatePointer.17154, 32
 818              	ScreenUpdatePointer.17154:
 819 0008 00000000 		.word	GoToTextPage
 820 000c 00000000 		.word	NoScreenChange
 821 0010 00000000 		.word	MoveArrowUp
 822 0014 00000000 		.word	MoveArrowDown
 823 0018 00000000 		.word	NoScreenChange
 824 001c 00000000 		.word	BackToMainMenu
 825 0020 00000000 		.word	PreviousTextPage
 826 0024 00000000 		.word	NextTextPage
 827              		.data
 828              		.set	.LANCHOR0,. + 0
 829              		.type	currentScreenContent, %object
 830              		.size	currentScreenContent, 1
 831              	currentScreenContent:
 832 0000 02       		.byte	2
 833              		.type	firstTime.17185, %object
 834              		.size	firstTime.17185, 1
 835              	firstTime.17185:
 836 0001 01       		.byte	1
 837              		.bss
 838              		.align	2
 839              		.set	.LANCHOR1,. + 0
 840              		.type	currentFrame, %object
 841              		.size	currentFrame, 4
 842              	currentFrame:
 843 0000 00000000 		.space	4
 844              		.type	startupScreenCounter.17189, %object
 845              		.size	startupScreenCounter.17189, 1
 846              	startupScreenCounter.17189:
 847 0004 00       		.space	1
 848 0005 000000   		.space	3
 849              		.type	currentScreen, %object
 850              		.size	currentScreen, 3
 851              	currentScreen:
 852 0008 000000   		.space	3
 853              		.type	currentFrameBuffer, %object
 854              		.size	currentFrameBuffer, 1
 855              	currentFrameBuffer:
 856 000b 00       		.space	1
 857              		.text
ARM GAS  C:\Users\Agentos\AppData\Local\Temp\ccHiDLED.s 			page 43


 858              	.Letext0:
 859              		.file 3 "c:\\program files (x86)\\cypress\\psoc creator\\4.2\\psoc creator\\import\\gnu\\arm\\5.4.
 860              		.file 4 "c:\\program files (x86)\\cypress\\psoc creator\\4.2\\psoc creator\\import\\gnu\\arm\\5.4.
 861              		.file 5 "Generated_Source\\PSoC6\\pdl\\devices/psoc6/ip/cyip_gpio.h"
 862              		.file 6 "Generated_Source\\PSoC6\\pdl\\drivers/peripheral/syslib/cy_syslib.h"
 863              		.file 7 "Generated_Source\\PSoC6\\pdl\\drivers/peripheral/scb/cy_scb_spi.h"
 864              		.file 8 "Generated_Source\\PSoC6\\pdl\\drivers/peripheral/sar/cy_sar.h"
 865              		.file 9 "Generated_Source\\PSoC6/ADC.h"
 866              		.file 10 ".\\cy_eink_library/cy_eink_fonts.h"
 867              		.file 11 ".\\cy_eink_library/pervasive_eink_hardware_driver.h"
 868              		.file 12 ".\\cy_eink_library/cy_eink_library.h"
 869              		.file 13 "menu_configuration.h"
 870              		.file 14 "Generated_Source\\PSoC6\\pdl\\rtos/FreeRTOS/9.0.0/Source/portable/GCC/CM4F/portmacro.h"
 871              		.file 15 "Generated_Source\\PSoC6\\pdl\\rtos/FreeRTOS/9.0.0/Source/include/queue.h"
 872              		.file 16 "touch_task.h"
 873              		.file 17 "Generated_Source\\PSoC6\\pdl\\cmsis/include/core_cm4.h"
 874              		.file 18 "Generated_Source\\PSoC6/CY_EINK_SPIM.h"
 875              		.file 19 "screen_contents.h"
 876              		.file 20 "Generated_Source\\PSoC6\\pdl\\rtos/FreeRTOS/9.0.0/Source/include/task.h"
 877              		.file 21 "temperature_eink.h"
 878              		.section	.debug_info,"",%progbits
 879              	.Ldebug_info0:
 880 0000 A60E0000 		.4byte	0xea6
 881 0004 0400     		.2byte	0x4
 882 0006 00000000 		.4byte	.Ldebug_abbrev0
 883 000a 04       		.byte	0x4
 884 000b 01       		.uleb128 0x1
 885 000c 3D060000 		.4byte	.LASF186
 886 0010 0C       		.byte	0xc
 887 0011 990A0000 		.4byte	.LASF187
 888 0015 90000000 		.4byte	.LASF188
 889 0019 00000000 		.4byte	.Ldebug_ranges0+0
 890 001d 00000000 		.4byte	0
 891 0021 00000000 		.4byte	.Ldebug_line0
 892 0025 02       		.uleb128 0x2
 893 0026 08       		.byte	0x8
 894 0027 07       		.byte	0x7
 895 0028 17010000 		.4byte	.LASF0
 896 002c 02       		.uleb128 0x2
 897 002d 04       		.byte	0x4
 898 002e 07       		.byte	0x7
 899 002f BA030000 		.4byte	.LASF1
 900 0033 03       		.uleb128 0x3
 901 0034 51070000 		.4byte	.LASF3
 902 0038 03       		.byte	0x3
 903 0039 1B       		.byte	0x1b
 904 003a 3E000000 		.4byte	0x3e
 905 003e 02       		.uleb128 0x2
 906 003f 01       		.byte	0x1
 907 0040 06       		.byte	0x6
 908 0041 A3010000 		.4byte	.LASF2
 909 0045 03       		.uleb128 0x3
 910 0046 86000000 		.4byte	.LASF4
 911 004a 03       		.byte	0x3
 912 004b 1D       		.byte	0x1d
 913 004c 50000000 		.4byte	0x50
 914 0050 02       		.uleb128 0x2
ARM GAS  C:\Users\Agentos\AppData\Local\Temp\ccHiDLED.s 			page 44


 915 0051 01       		.byte	0x1
 916 0052 08       		.byte	0x8
 917 0053 5A070000 		.4byte	.LASF5
 918 0057 02       		.uleb128 0x2
 919 0058 02       		.byte	0x2
 920 0059 05       		.byte	0x5
 921 005a 84070000 		.4byte	.LASF6
 922 005e 03       		.uleb128 0x3
 923 005f 08030000 		.4byte	.LASF7
 924 0063 03       		.byte	0x3
 925 0064 2B       		.byte	0x2b
 926 0065 69000000 		.4byte	0x69
 927 0069 02       		.uleb128 0x2
 928 006a 02       		.byte	0x2
 929 006b 07       		.byte	0x7
 930 006c 6E040000 		.4byte	.LASF8
 931 0070 03       		.uleb128 0x3
 932 0071 2C050000 		.4byte	.LASF9
 933 0075 03       		.byte	0x3
 934 0076 3F       		.byte	0x3f
 935 0077 7B000000 		.4byte	0x7b
 936 007b 02       		.uleb128 0x2
 937 007c 04       		.byte	0x4
 938 007d 05       		.byte	0x5
 939 007e 60020000 		.4byte	.LASF10
 940 0082 03       		.uleb128 0x3
 941 0083 2F030000 		.4byte	.LASF11
 942 0087 03       		.byte	0x3
 943 0088 41       		.byte	0x41
 944 0089 8D000000 		.4byte	0x8d
 945 008d 02       		.uleb128 0x2
 946 008e 04       		.byte	0x4
 947 008f 07       		.byte	0x7
 948 0090 FE030000 		.4byte	.LASF12
 949 0094 02       		.uleb128 0x2
 950 0095 08       		.byte	0x8
 951 0096 05       		.byte	0x5
 952 0097 95010000 		.4byte	.LASF13
 953 009b 04       		.uleb128 0x4
 954 009c 04       		.byte	0x4
 955 009d 05       		.byte	0x5
 956 009e 696E7400 		.ascii	"int\000"
 957 00a2 02       		.uleb128 0x2
 958 00a3 08       		.byte	0x8
 959 00a4 04       		.byte	0x4
 960 00a5 50080000 		.4byte	.LASF14
 961 00a9 05       		.uleb128 0x5
 962 00aa 04       		.byte	0x4
 963 00ab 02       		.uleb128 0x2
 964 00ac 04       		.byte	0x4
 965 00ad 07       		.byte	0x7
 966 00ae AB050000 		.4byte	.LASF15
 967 00b2 06       		.uleb128 0x6
 968 00b3 04       		.byte	0x4
 969 00b4 B8000000 		.4byte	0xb8
 970 00b8 07       		.uleb128 0x7
 971 00b9 06       		.uleb128 0x6
ARM GAS  C:\Users\Agentos\AppData\Local\Temp\ccHiDLED.s 			page 45


 972 00ba 04       		.byte	0x4
 973 00bb BF000000 		.4byte	0xbf
 974 00bf 02       		.uleb128 0x2
 975 00c0 01       		.byte	0x1
 976 00c1 08       		.byte	0x8
 977 00c2 5C080000 		.4byte	.LASF16
 978 00c6 08       		.uleb128 0x8
 979 00c7 BF000000 		.4byte	0xbf
 980 00cb 03       		.uleb128 0x3
 981 00cc 54090000 		.4byte	.LASF17
 982 00d0 04       		.byte	0x4
 983 00d1 14       		.byte	0x14
 984 00d2 33000000 		.4byte	0x33
 985 00d6 03       		.uleb128 0x3
 986 00d7 D1090000 		.4byte	.LASF18
 987 00db 04       		.byte	0x4
 988 00dc 18       		.byte	0x18
 989 00dd 45000000 		.4byte	0x45
 990 00e1 03       		.uleb128 0x3
 991 00e2 C8020000 		.4byte	.LASF19
 992 00e6 04       		.byte	0x4
 993 00e7 24       		.byte	0x24
 994 00e8 5E000000 		.4byte	0x5e
 995 00ec 03       		.uleb128 0x3
 996 00ed A3050000 		.4byte	.LASF20
 997 00f1 04       		.byte	0x4
 998 00f2 2C       		.byte	0x2c
 999 00f3 70000000 		.4byte	0x70
 1000 00f7 03       		.uleb128 0x3
 1001 00f8 1D080000 		.4byte	.LASF21
 1002 00fc 04       		.byte	0x4
 1003 00fd 30       		.byte	0x30
 1004 00fe 82000000 		.4byte	0x82
 1005 0102 09       		.uleb128 0x9
 1006 0103 F7000000 		.4byte	0xf7
 1007 0107 08       		.uleb128 0x8
 1008 0108 02010000 		.4byte	0x102
 1009 010c 0A       		.uleb128 0xa
 1010 010d 07010000 		.4byte	0x107
 1011 0111 1C010000 		.4byte	0x11c
 1012 0115 0B       		.uleb128 0xb
 1013 0116 AB000000 		.4byte	0xab
 1014 011a 0F       		.byte	0xf
 1015 011b 00       		.byte	0
 1016 011c 0C       		.uleb128 0xc
 1017 011d 80       		.byte	0x80
 1018 011e 05       		.byte	0x5
 1019 011f 22       		.byte	0x22
 1020 0120 F0010000 		.4byte	0x1f0
 1021 0124 0D       		.uleb128 0xd
 1022 0125 4F555400 		.ascii	"OUT\000"
 1023 0129 05       		.byte	0x5
 1024 012a 23       		.byte	0x23
 1025 012b 02010000 		.4byte	0x102
 1026 012f 00       		.byte	0
 1027 0130 0E       		.uleb128 0xe
 1028 0131 F0060000 		.4byte	.LASF22
ARM GAS  C:\Users\Agentos\AppData\Local\Temp\ccHiDLED.s 			page 46


 1029 0135 05       		.byte	0x5
 1030 0136 24       		.byte	0x24
 1031 0137 02010000 		.4byte	0x102
 1032 013b 04       		.byte	0x4
 1033 013c 0E       		.uleb128 0xe
 1034 013d C1080000 		.4byte	.LASF23
 1035 0141 05       		.byte	0x5
 1036 0142 25       		.byte	0x25
 1037 0143 02010000 		.4byte	0x102
 1038 0147 08       		.byte	0x8
 1039 0148 0E       		.uleb128 0xe
 1040 0149 B9080000 		.4byte	.LASF24
 1041 014d 05       		.byte	0x5
 1042 014e 26       		.byte	0x26
 1043 014f 02010000 		.4byte	0x102
 1044 0153 0C       		.byte	0xc
 1045 0154 0D       		.uleb128 0xd
 1046 0155 494E00   		.ascii	"IN\000"
 1047 0158 05       		.byte	0x5
 1048 0159 27       		.byte	0x27
 1049 015a 07010000 		.4byte	0x107
 1050 015e 10       		.byte	0x10
 1051 015f 0E       		.uleb128 0xe
 1052 0160 F1050000 		.4byte	.LASF25
 1053 0164 05       		.byte	0x5
 1054 0165 28       		.byte	0x28
 1055 0166 02010000 		.4byte	0x102
 1056 016a 14       		.byte	0x14
 1057 016b 0E       		.uleb128 0xe
 1058 016c 2B040000 		.4byte	.LASF26
 1059 0170 05       		.byte	0x5
 1060 0171 29       		.byte	0x29
 1061 0172 02010000 		.4byte	0x102
 1062 0176 18       		.byte	0x18
 1063 0177 0E       		.uleb128 0xe
 1064 0178 81040000 		.4byte	.LASF27
 1065 017c 05       		.byte	0x5
 1066 017d 2A       		.byte	0x2a
 1067 017e 07010000 		.4byte	0x107
 1068 0182 1C       		.byte	0x1c
 1069 0183 0E       		.uleb128 0xe
 1070 0184 6F050000 		.4byte	.LASF28
 1071 0188 05       		.byte	0x5
 1072 0189 2B       		.byte	0x2b
 1073 018a 02010000 		.4byte	0x102
 1074 018e 20       		.byte	0x20
 1075 018f 0E       		.uleb128 0xe
 1076 0190 66050000 		.4byte	.LASF29
 1077 0194 05       		.byte	0x5
 1078 0195 2C       		.byte	0x2c
 1079 0196 02010000 		.4byte	0x102
 1080 019a 24       		.byte	0x24
 1081 019b 0D       		.uleb128 0xd
 1082 019c 43464700 		.ascii	"CFG\000"
 1083 01a0 05       		.byte	0x5
 1084 01a1 2D       		.byte	0x2d
 1085 01a2 02010000 		.4byte	0x102
ARM GAS  C:\Users\Agentos\AppData\Local\Temp\ccHiDLED.s 			page 47


 1086 01a6 28       		.byte	0x28
 1087 01a7 0E       		.uleb128 0xe
 1088 01a8 2E010000 		.4byte	.LASF30
 1089 01ac 05       		.byte	0x5
 1090 01ad 2E       		.byte	0x2e
 1091 01ae 02010000 		.4byte	0x102
 1092 01b2 2C       		.byte	0x2c
 1093 01b3 0E       		.uleb128 0xe
 1094 01b4 EF090000 		.4byte	.LASF31
 1095 01b8 05       		.byte	0x5
 1096 01b9 2F       		.byte	0x2f
 1097 01ba 02010000 		.4byte	0x102
 1098 01be 30       		.byte	0x30
 1099 01bf 0E       		.uleb128 0xe
 1100 01c0 0C070000 		.4byte	.LASF32
 1101 01c4 05       		.byte	0x5
 1102 01c5 30       		.byte	0x30
 1103 01c6 02010000 		.4byte	0x102
 1104 01ca 34       		.byte	0x34
 1105 01cb 0E       		.uleb128 0xe
 1106 01cc A1070000 		.4byte	.LASF33
 1107 01d0 05       		.byte	0x5
 1108 01d1 31       		.byte	0x31
 1109 01d2 07010000 		.4byte	0x107
 1110 01d6 38       		.byte	0x38
 1111 01d7 0E       		.uleb128 0xe
 1112 01d8 FE060000 		.4byte	.LASF34
 1113 01dc 05       		.byte	0x5
 1114 01dd 32       		.byte	0x32
 1115 01de 02010000 		.4byte	0x102
 1116 01e2 3C       		.byte	0x3c
 1117 01e3 0E       		.uleb128 0xe
 1118 01e4 14070000 		.4byte	.LASF35
 1119 01e8 05       		.byte	0x5
 1120 01e9 33       		.byte	0x33
 1121 01ea F5010000 		.4byte	0x1f5
 1122 01ee 40       		.byte	0x40
 1123 01ef 00       		.byte	0
 1124 01f0 09       		.uleb128 0x9
 1125 01f1 0C010000 		.4byte	0x10c
 1126 01f5 08       		.uleb128 0x8
 1127 01f6 F0010000 		.4byte	0x1f0
 1128 01fa 03       		.uleb128 0x3
 1129 01fb AB080000 		.4byte	.LASF36
 1130 01ff 05       		.byte	0x5
 1131 0200 34       		.byte	0x34
 1132 0201 1C010000 		.4byte	0x11c
 1133 0205 0F       		.uleb128 0xf
 1134 0206 2440     		.2byte	0x4024
 1135 0208 05       		.byte	0x5
 1136 0209 39       		.byte	0x39
 1137 020a 90020000 		.4byte	0x290
 1138 020e 0D       		.uleb128 0xd
 1139 020f 50525400 		.ascii	"PRT\000"
 1140 0213 05       		.byte	0x5
 1141 0214 3A       		.byte	0x3a
 1142 0215 90020000 		.4byte	0x290
ARM GAS  C:\Users\Agentos\AppData\Local\Temp\ccHiDLED.s 			page 48


 1143 0219 00       		.byte	0
 1144 021a 10       		.uleb128 0x10
 1145 021b 61080000 		.4byte	.LASF37
 1146 021f 05       		.byte	0x5
 1147 0220 3B       		.byte	0x3b
 1148 0221 07010000 		.4byte	0x107
 1149 0225 0040     		.2byte	0x4000
 1150 0227 10       		.uleb128 0x10
 1151 0228 6D080000 		.4byte	.LASF38
 1152 022c 05       		.byte	0x5
 1153 022d 3C       		.byte	0x3c
 1154 022e 07010000 		.4byte	0x107
 1155 0232 0440     		.2byte	0x4004
 1156 0234 10       		.uleb128 0x10
 1157 0235 79080000 		.4byte	.LASF39
 1158 0239 05       		.byte	0x5
 1159 023a 3D       		.byte	0x3d
 1160 023b 07010000 		.4byte	0x107
 1161 023f 0840     		.2byte	0x4008
 1162 0241 10       		.uleb128 0x10
 1163 0242 85080000 		.4byte	.LASF40
 1164 0246 05       		.byte	0x5
 1165 0247 3E       		.byte	0x3e
 1166 0248 07010000 		.4byte	0x107
 1167 024c 0C40     		.2byte	0x400c
 1168 024e 10       		.uleb128 0x10
 1169 024f 7D050000 		.4byte	.LASF41
 1170 0253 05       		.byte	0x5
 1171 0254 3F       		.byte	0x3f
 1172 0255 07010000 		.4byte	0x107
 1173 0259 1040     		.2byte	0x4010
 1174 025b 10       		.uleb128 0x10
 1175 025c CE070000 		.4byte	.LASF42
 1176 0260 05       		.byte	0x5
 1177 0261 40       		.byte	0x40
 1178 0262 02010000 		.4byte	0x102
 1179 0266 1440     		.2byte	0x4014
 1180 0268 10       		.uleb128 0x10
 1181 0269 E5080000 		.4byte	.LASF43
 1182 026d 05       		.byte	0x5
 1183 026e 41       		.byte	0x41
 1184 026f 02010000 		.4byte	0x102
 1185 0273 1840     		.2byte	0x4018
 1186 0275 10       		.uleb128 0x10
 1187 0276 44040000 		.4byte	.LASF44
 1188 027a 05       		.byte	0x5
 1189 027b 42       		.byte	0x42
 1190 027c 07010000 		.4byte	0x107
 1191 0280 1C40     		.2byte	0x401c
 1192 0282 10       		.uleb128 0x10
 1193 0283 54040000 		.4byte	.LASF45
 1194 0287 05       		.byte	0x5
 1195 0288 43       		.byte	0x43
 1196 0289 02010000 		.4byte	0x102
 1197 028d 2040     		.2byte	0x4020
 1198 028f 00       		.byte	0
 1199 0290 0A       		.uleb128 0xa
ARM GAS  C:\Users\Agentos\AppData\Local\Temp\ccHiDLED.s 			page 49


 1200 0291 FA010000 		.4byte	0x1fa
 1201 0295 A0020000 		.4byte	0x2a0
 1202 0299 0B       		.uleb128 0xb
 1203 029a AB000000 		.4byte	0xab
 1204 029e 7F       		.byte	0x7f
 1205 029f 00       		.byte	0
 1206 02a0 03       		.uleb128 0x3
 1207 02a1 DB080000 		.4byte	.LASF46
 1208 02a5 05       		.byte	0x5
 1209 02a6 44       		.byte	0x44
 1210 02a7 05020000 		.4byte	0x205
 1211 02ab 11       		.uleb128 0x11
 1212 02ac E2030000 		.4byte	.LASF47
 1213 02b0 06       		.byte	0x6
 1214 02b1 C401     		.2byte	0x1c4
 1215 02b3 BF000000 		.4byte	0xbf
 1216 02b7 02       		.uleb128 0x2
 1217 02b8 04       		.byte	0x4
 1218 02b9 04       		.byte	0x4
 1219 02ba F8060000 		.4byte	.LASF48
 1220 02be 02       		.uleb128 0x2
 1221 02bf 08       		.byte	0x8
 1222 02c0 04       		.byte	0x4
 1223 02c1 D1020000 		.4byte	.LASF49
 1224 02c5 11       		.uleb128 0x11
 1225 02c6 AA020000 		.4byte	.LASF50
 1226 02ca 06       		.byte	0x6
 1227 02cb 8503     		.2byte	0x385
 1228 02cd D6000000 		.4byte	0xd6
 1229 02d1 02       		.uleb128 0x2
 1230 02d2 01       		.byte	0x1
 1231 02d3 02       		.byte	0x2
 1232 02d4 4B070000 		.4byte	.LASF51
 1233 02d8 06       		.uleb128 0x6
 1234 02d9 04       		.byte	0x4
 1235 02da DE020000 		.4byte	0x2de
 1236 02de 12       		.uleb128 0x12
 1237 02df E9020000 		.4byte	0x2e9
 1238 02e3 13       		.uleb128 0x13
 1239 02e4 F7000000 		.4byte	0xf7
 1240 02e8 00       		.byte	0
 1241 02e9 06       		.uleb128 0x6
 1242 02ea 04       		.byte	0x4
 1243 02eb D6000000 		.4byte	0xd6
 1244 02ef 11       		.uleb128 0x11
 1245 02f0 10020000 		.4byte	.LASF52
 1246 02f4 07       		.byte	0x7
 1247 02f5 BF01     		.2byte	0x1bf
 1248 02f7 D8020000 		.4byte	0x2d8
 1249 02fb 14       		.uleb128 0x14
 1250 02fc AF010000 		.4byte	.LASF189
 1251 0300 24       		.byte	0x24
 1252 0301 07       		.byte	0x7
 1253 0302 4102     		.2byte	0x241
 1254 0304 7E030000 		.4byte	0x37e
 1255 0308 15       		.uleb128 0x15
 1256 0309 AA070000 		.4byte	.LASF53
ARM GAS  C:\Users\Agentos\AppData\Local\Temp\ccHiDLED.s 			page 50


 1257 030d 07       		.byte	0x7
 1258 030e 4402     		.2byte	0x244
 1259 0310 02010000 		.4byte	0x102
 1260 0314 00       		.byte	0
 1261 0315 15       		.uleb128 0x15
 1262 0316 63090000 		.4byte	.LASF54
 1263 031a 07       		.byte	0x7
 1264 031b 4602     		.2byte	0x246
 1265 031d A9000000 		.4byte	0xa9
 1266 0321 04       		.byte	0x4
 1267 0322 15       		.uleb128 0x15
 1268 0323 27000000 		.4byte	.LASF55
 1269 0327 07       		.byte	0x7
 1270 0328 4702     		.2byte	0x247
 1271 032a F7000000 		.4byte	0xf7
 1272 032e 08       		.byte	0x8
 1273 032f 15       		.uleb128 0x15
 1274 0330 0E090000 		.4byte	.LASF56
 1275 0334 07       		.byte	0x7
 1276 0335 4802     		.2byte	0x248
 1277 0337 02010000 		.4byte	0x102
 1278 033b 0C       		.byte	0xc
 1279 033c 15       		.uleb128 0x15
 1280 033d 43010000 		.4byte	.LASF57
 1281 0341 07       		.byte	0x7
 1282 0342 4A02     		.2byte	0x24a
 1283 0344 A9000000 		.4byte	0xa9
 1284 0348 10       		.byte	0x10
 1285 0349 15       		.uleb128 0x15
 1286 034a B0030000 		.4byte	.LASF58
 1287 034e 07       		.byte	0x7
 1288 034f 4B02     		.2byte	0x24b
 1289 0351 F7000000 		.4byte	0xf7
 1290 0355 14       		.byte	0x14
 1291 0356 15       		.uleb128 0x15
 1292 0357 E0070000 		.4byte	.LASF59
 1293 035b 07       		.byte	0x7
 1294 035c 4C02     		.2byte	0x24c
 1295 035e 02010000 		.4byte	0x102
 1296 0362 18       		.byte	0x18
 1297 0363 15       		.uleb128 0x15
 1298 0364 AF040000 		.4byte	.LASF60
 1299 0368 07       		.byte	0x7
 1300 0369 5202     		.2byte	0x252
 1301 036b EF020000 		.4byte	0x2ef
 1302 036f 1C       		.byte	0x1c
 1303 0370 15       		.uleb128 0x15
 1304 0371 5B090000 		.4byte	.LASF61
 1305 0375 07       		.byte	0x7
 1306 0376 5502     		.2byte	0x255
 1307 0378 F7000000 		.4byte	0xf7
 1308 037c 20       		.byte	0x20
 1309 037d 00       		.byte	0
 1310 037e 11       		.uleb128 0x11
 1311 037f 13050000 		.4byte	.LASF62
 1312 0383 07       		.byte	0x7
 1313 0384 5802     		.2byte	0x258
ARM GAS  C:\Users\Agentos\AppData\Local\Temp\ccHiDLED.s 			page 51


 1314 0386 FB020000 		.4byte	0x2fb
 1315 038a 16       		.uleb128 0x16
 1316 038b 01       		.byte	0x1
 1317 038c 50000000 		.4byte	0x50
 1318 0390 08       		.byte	0x8
 1319 0391 0504     		.2byte	0x405
 1320 0393 B0030000 		.4byte	0x3b0
 1321 0397 17       		.uleb128 0x17
 1322 0398 38020000 		.4byte	.LASF63
 1323 039c 00       		.byte	0
 1324 039d 17       		.uleb128 0x17
 1325 039e 32070000 		.4byte	.LASF64
 1326 03a2 01       		.byte	0x1
 1327 03a3 17       		.uleb128 0x17
 1328 03a4 B0020000 		.4byte	.LASF65
 1329 03a8 02       		.byte	0x2
 1330 03a9 17       		.uleb128 0x17
 1331 03aa 050A0000 		.4byte	.LASF66
 1332 03ae 03       		.byte	0x3
 1333 03af 00       		.byte	0
 1334 03b0 11       		.uleb128 0x11
 1335 03b1 D4010000 		.4byte	.LASF67
 1336 03b5 08       		.byte	0x8
 1337 03b6 0A04     		.2byte	0x40a
 1338 03b8 8A030000 		.4byte	0x38a
 1339 03bc 18       		.uleb128 0x18
 1340 03bd 78       		.byte	0x78
 1341 03be 08       		.byte	0x8
 1342 03bf F404     		.2byte	0x4f4
 1343 03c1 89040000 		.4byte	0x489
 1344 03c5 15       		.uleb128 0x15
 1345 03c6 F3080000 		.4byte	.LASF68
 1346 03ca 08       		.byte	0x8
 1347 03cb F604     		.2byte	0x4f6
 1348 03cd F7000000 		.4byte	0xf7
 1349 03d1 00       		.byte	0
 1350 03d2 15       		.uleb128 0x15
 1351 03d3 C6090000 		.4byte	.LASF69
 1352 03d7 08       		.byte	0x8
 1353 03d8 F704     		.2byte	0x4f7
 1354 03da F7000000 		.4byte	0xf7
 1355 03de 04       		.byte	0x4
 1356 03df 15       		.uleb128 0x15
 1357 03e0 13030000 		.4byte	.LASF70
 1358 03e4 08       		.byte	0x8
 1359 03e5 F804     		.2byte	0x4f8
 1360 03e7 F7000000 		.4byte	0xf7
 1361 03eb 08       		.byte	0x8
 1362 03ec 15       		.uleb128 0x15
 1363 03ed B4050000 		.4byte	.LASF71
 1364 03f1 08       		.byte	0x8
 1365 03f2 F904     		.2byte	0x4f9
 1366 03f4 F7000000 		.4byte	0xf7
 1367 03f8 0C       		.byte	0xc
 1368 03f9 15       		.uleb128 0x15
 1369 03fa A4040000 		.4byte	.LASF72
 1370 03fe 08       		.byte	0x8
ARM GAS  C:\Users\Agentos\AppData\Local\Temp\ccHiDLED.s 			page 52


 1371 03ff FA04     		.2byte	0x4fa
 1372 0401 F7000000 		.4byte	0xf7
 1373 0405 10       		.byte	0x10
 1374 0406 15       		.uleb128 0x15
 1375 0407 76090000 		.4byte	.LASF73
 1376 040b 08       		.byte	0x8
 1377 040c FB04     		.2byte	0x4fb
 1378 040e B0030000 		.4byte	0x3b0
 1379 0412 14       		.byte	0x14
 1380 0413 15       		.uleb128 0x15
 1381 0414 2B070000 		.4byte	.LASF74
 1382 0418 08       		.byte	0x8
 1383 0419 FC04     		.2byte	0x4fc
 1384 041b F7000000 		.4byte	0xf7
 1385 041f 18       		.byte	0x18
 1386 0420 15       		.uleb128 0x15
 1387 0421 5B050000 		.4byte	.LASF75
 1388 0425 08       		.byte	0x8
 1389 0426 FD04     		.2byte	0x4fd
 1390 0428 89040000 		.4byte	0x489
 1391 042c 1C       		.byte	0x1c
 1392 042d 15       		.uleb128 0x15
 1393 042e 98070000 		.4byte	.LASF76
 1394 0432 08       		.byte	0x8
 1395 0433 FE04     		.2byte	0x4fe
 1396 0435 F7000000 		.4byte	0xf7
 1397 0439 5C       		.byte	0x5c
 1398 043a 15       		.uleb128 0x15
 1399 043b 4B000000 		.4byte	.LASF77
 1400 043f 08       		.byte	0x8
 1401 0440 FF04     		.2byte	0x4ff
 1402 0442 F7000000 		.4byte	0xf7
 1403 0446 60       		.byte	0x60
 1404 0447 15       		.uleb128 0x15
 1405 0448 2F060000 		.4byte	.LASF78
 1406 044c 08       		.byte	0x8
 1407 044d 0005     		.2byte	0x500
 1408 044f F7000000 		.4byte	0xf7
 1409 0453 64       		.byte	0x64
 1410 0454 15       		.uleb128 0x15
 1411 0455 8E070000 		.4byte	.LASF79
 1412 0459 08       		.byte	0x8
 1413 045a 0105     		.2byte	0x501
 1414 045c F7000000 		.4byte	0xf7
 1415 0460 68       		.byte	0x68
 1416 0461 15       		.uleb128 0x15
 1417 0462 530A0000 		.4byte	.LASF80
 1418 0466 08       		.byte	0x8
 1419 0467 0205     		.2byte	0x502
 1420 0469 F7000000 		.4byte	0xf7
 1421 046d 6C       		.byte	0x6c
 1422 046e 15       		.uleb128 0x15
 1423 046f E3050000 		.4byte	.LASF81
 1424 0473 08       		.byte	0x8
 1425 0474 0305     		.2byte	0x503
 1426 0476 D1020000 		.4byte	0x2d1
 1427 047a 70       		.byte	0x70
ARM GAS  C:\Users\Agentos\AppData\Local\Temp\ccHiDLED.s 			page 53


 1428 047b 15       		.uleb128 0x15
 1429 047c 7F0A0000 		.4byte	.LASF82
 1430 0480 08       		.byte	0x8
 1431 0481 0405     		.2byte	0x504
 1432 0483 F7000000 		.4byte	0xf7
 1433 0487 74       		.byte	0x74
 1434 0488 00       		.byte	0
 1435 0489 0A       		.uleb128 0xa
 1436 048a F7000000 		.4byte	0xf7
 1437 048e 99040000 		.4byte	0x499
 1438 0492 0B       		.uleb128 0xb
 1439 0493 AB000000 		.4byte	0xab
 1440 0497 0F       		.byte	0xf
 1441 0498 00       		.byte	0
 1442 0499 11       		.uleb128 0x11
 1443 049a 81010000 		.4byte	.LASF83
 1444 049e 08       		.byte	0x8
 1445 049f 0505     		.2byte	0x505
 1446 04a1 BC030000 		.4byte	0x3bc
 1447 04a5 06       		.uleb128 0x6
 1448 04a6 04       		.byte	0x4
 1449 04a7 FA010000 		.4byte	0x1fa
 1450 04ab 0C       		.uleb128 0xc
 1451 04ac 14       		.byte	0x14
 1452 04ad 09       		.byte	0x9
 1453 04ae 3B       		.byte	0x3b
 1454 04af F0040000 		.4byte	0x4f0
 1455 04b3 0E       		.uleb128 0xe
 1456 04b4 350A0000 		.4byte	.LASF84
 1457 04b8 09       		.byte	0x9
 1458 04b9 3D       		.byte	0x3d
 1459 04ba F7000000 		.4byte	0xf7
 1460 04be 00       		.byte	0
 1461 04bf 0E       		.uleb128 0xe
 1462 04c0 FF040000 		.4byte	.LASF85
 1463 04c4 09       		.byte	0x9
 1464 04c5 3E       		.byte	0x3e
 1465 04c6 F7000000 		.4byte	0xf7
 1466 04ca 04       		.byte	0x4
 1467 04cb 0E       		.uleb128 0xe
 1468 04cc 47030000 		.4byte	.LASF86
 1469 04d0 09       		.byte	0x9
 1470 04d1 3F       		.byte	0x3f
 1471 04d2 F0040000 		.4byte	0x4f0
 1472 04d6 08       		.byte	0x8
 1473 04d7 0E       		.uleb128 0xe
 1474 04d8 03090000 		.4byte	.LASF87
 1475 04dc 09       		.byte	0x9
 1476 04dd 40       		.byte	0x40
 1477 04de F7000000 		.4byte	0xf7
 1478 04e2 0C       		.byte	0xc
 1479 04e3 0E       		.uleb128 0xe
 1480 04e4 F7010000 		.4byte	.LASF88
 1481 04e8 09       		.byte	0x9
 1482 04e9 45       		.byte	0x45
 1483 04ea F7000000 		.4byte	0xf7
 1484 04ee 10       		.byte	0x10
ARM GAS  C:\Users\Agentos\AppData\Local\Temp\ccHiDLED.s 			page 54


 1485 04ef 00       		.byte	0
 1486 04f0 06       		.uleb128 0x6
 1487 04f1 04       		.byte	0x4
 1488 04f2 F6040000 		.4byte	0x4f6
 1489 04f6 08       		.uleb128 0x8
 1490 04f7 99040000 		.4byte	0x499
 1491 04fb 03       		.uleb128 0x3
 1492 04fc F6020000 		.4byte	.LASF89
 1493 0500 09       		.byte	0x9
 1494 0501 48       		.byte	0x48
 1495 0502 AB040000 		.4byte	0x4ab
 1496 0506 0C       		.uleb128 0xc
 1497 0507 0C       		.byte	0xc
 1498 0508 0A       		.byte	0xa
 1499 0509 3B       		.byte	0x3b
 1500 050a 6F050000 		.4byte	0x56f
 1501 050e 0E       		.uleb128 0xe
 1502 050f 49010000 		.4byte	.LASF90
 1503 0513 0A       		.byte	0xa
 1504 0514 3E       		.byte	0x3e
 1505 0515 E9020000 		.4byte	0x2e9
 1506 0519 00       		.byte	0
 1507 051a 0E       		.uleb128 0xe
 1508 051b 88050000 		.4byte	.LASF91
 1509 051f 0A       		.byte	0xa
 1510 0520 40       		.byte	0x40
 1511 0521 D6000000 		.4byte	0xd6
 1512 0525 04       		.byte	0x4
 1513 0526 0E       		.uleb128 0xe
 1514 0527 0E000000 		.4byte	.LASF92
 1515 052b 0A       		.byte	0xa
 1516 052c 42       		.byte	0x42
 1517 052d D6000000 		.4byte	0xd6
 1518 0531 05       		.byte	0x5
 1519 0532 0E       		.uleb128 0xe
 1520 0533 A4030000 		.4byte	.LASF93
 1521 0537 0A       		.byte	0xa
 1522 0538 44       		.byte	0x44
 1523 0539 D6000000 		.4byte	0xd6
 1524 053d 06       		.byte	0x6
 1525 053e 0E       		.uleb128 0xe
 1526 053f 1F0A0000 		.4byte	.LASF94
 1527 0543 0A       		.byte	0xa
 1528 0544 46       		.byte	0x46
 1529 0545 D6000000 		.4byte	0xd6
 1530 0549 07       		.byte	0x7
 1531 054a 0E       		.uleb128 0xe
 1532 054b A5080000 		.4byte	.LASF95
 1533 054f 0A       		.byte	0xa
 1534 0550 48       		.byte	0x48
 1535 0551 D6000000 		.4byte	0xd6
 1536 0555 08       		.byte	0x8
 1537 0556 0E       		.uleb128 0xe
 1538 0557 9E040000 		.4byte	.LASF96
 1539 055b 0A       		.byte	0xa
 1540 055c 4A       		.byte	0x4a
 1541 055d D6000000 		.4byte	0xd6
ARM GAS  C:\Users\Agentos\AppData\Local\Temp\ccHiDLED.s 			page 55


 1542 0561 09       		.byte	0x9
 1543 0562 0E       		.uleb128 0xe
 1544 0563 55050000 		.4byte	.LASF97
 1545 0567 0A       		.byte	0xa
 1546 0568 4D       		.byte	0x4d
 1547 0569 D1020000 		.4byte	0x2d1
 1548 056d 0A       		.byte	0xa
 1549 056e 00       		.byte	0
 1550 056f 03       		.uleb128 0x3
 1551 0570 35040000 		.4byte	.LASF98
 1552 0574 0A       		.byte	0xa
 1553 0575 4E       		.byte	0x4e
 1554 0576 06050000 		.4byte	0x506
 1555 057a 03       		.uleb128 0x3
 1556 057b F6050000 		.4byte	.LASF99
 1557 057f 0B       		.byte	0xb
 1558 0580 35       		.byte	0x35
 1559 0581 50000000 		.4byte	0x50
 1560 0585 03       		.uleb128 0x3
 1561 0586 EF040000 		.4byte	.LASF100
 1562 058a 0C       		.byte	0xc
 1563 058b 6D       		.byte	0x6d
 1564 058c 7A050000 		.4byte	0x57a
 1565 0590 03       		.uleb128 0x3
 1566 0591 0D080000 		.4byte	.LASF101
 1567 0595 0C       		.byte	0xc
 1568 0596 6E       		.byte	0x6e
 1569 0597 7A050000 		.4byte	0x57a
 1570 059b 19       		.uleb128 0x19
 1571 059c 01       		.byte	0x1
 1572 059d 50000000 		.4byte	0x50
 1573 05a1 0C       		.byte	0xc
 1574 05a2 72       		.byte	0x72
 1575 05a3 BA050000 		.4byte	0x5ba
 1576 05a7 17       		.uleb128 0x17
 1577 05a8 94030000 		.4byte	.LASF102
 1578 05ac 00       		.byte	0
 1579 05ad 17       		.uleb128 0x17
 1580 05ae 5D030000 		.4byte	.LASF103
 1581 05b2 01       		.byte	0x1
 1582 05b3 17       		.uleb128 0x17
 1583 05b4 CB040000 		.4byte	.LASF104
 1584 05b8 02       		.byte	0x2
 1585 05b9 00       		.byte	0
 1586 05ba 19       		.uleb128 0x19
 1587 05bb 01       		.byte	0x1
 1588 05bc 50000000 		.4byte	0x50
 1589 05c0 0C       		.byte	0xc
 1590 05c1 7A       		.byte	0x7a
 1591 05c2 D3050000 		.4byte	0x5d3
 1592 05c6 17       		.uleb128 0x17
 1593 05c7 250A0000 		.4byte	.LASF105
 1594 05cb 00       		.byte	0
 1595 05cc 17       		.uleb128 0x17
 1596 05cd DF040000 		.4byte	.LASF106
 1597 05d1 01       		.byte	0x1
 1598 05d2 00       		.byte	0
ARM GAS  C:\Users\Agentos\AppData\Local\Temp\ccHiDLED.s 			page 56


 1599 05d3 03       		.uleb128 0x3
 1600 05d4 71030000 		.4byte	.LASF107
 1601 05d8 0C       		.byte	0xc
 1602 05d9 7C       		.byte	0x7c
 1603 05da BA050000 		.4byte	0x5ba
 1604 05de 19       		.uleb128 0x19
 1605 05df 01       		.byte	0x1
 1606 05e0 50000000 		.4byte	0x50
 1607 05e4 0D       		.byte	0xd
 1608 05e5 58       		.byte	0x58
 1609 05e6 FD050000 		.4byte	0x5fd
 1610 05ea 17       		.uleb128 0x17
 1611 05eb CA000000 		.4byte	.LASF108
 1612 05ef 00       		.byte	0
 1613 05f0 17       		.uleb128 0x17
 1614 05f1 E7000000 		.4byte	.LASF109
 1615 05f5 01       		.byte	0x1
 1616 05f6 17       		.uleb128 0x17
 1617 05f7 84030000 		.4byte	.LASF110
 1618 05fb 02       		.byte	0x2
 1619 05fc 00       		.byte	0
 1620 05fd 03       		.uleb128 0x3
 1621 05fe 52010000 		.4byte	.LASF111
 1622 0602 0D       		.byte	0xd
 1623 0603 5C       		.byte	0x5c
 1624 0604 DE050000 		.4byte	0x5de
 1625 0608 19       		.uleb128 0x19
 1626 0609 01       		.byte	0x1
 1627 060a 50000000 		.4byte	0x50
 1628 060e 0D       		.byte	0xd
 1629 060f 61       		.byte	0x61
 1630 0610 21060000 		.4byte	0x621
 1631 0614 17       		.uleb128 0x17
 1632 0615 2E020000 		.4byte	.LASF112
 1633 0619 00       		.byte	0
 1634 061a 17       		.uleb128 0x17
 1635 061b AE090000 		.4byte	.LASF113
 1636 061f 01       		.byte	0x1
 1637 0620 00       		.byte	0
 1638 0621 03       		.uleb128 0x3
 1639 0622 C6010000 		.4byte	.LASF114
 1640 0626 0D       		.byte	0xd
 1641 0627 64       		.byte	0x64
 1642 0628 08060000 		.4byte	0x608
 1643 062c 0C       		.uleb128 0xc
 1644 062d 03       		.byte	0x3
 1645 062e 0D       		.byte	0xd
 1646 062f 67       		.byte	0x67
 1647 0630 59060000 		.4byte	0x659
 1648 0634 0E       		.uleb128 0xe
 1649 0635 E8090000 		.4byte	.LASF115
 1650 0639 0D       		.byte	0xd
 1651 063a 69       		.byte	0x69
 1652 063b 21060000 		.4byte	0x621
 1653 063f 00       		.byte	0
 1654 0640 0E       		.uleb128 0xe
 1655 0641 D7070000 		.4byte	.LASF116
ARM GAS  C:\Users\Agentos\AppData\Local\Temp\ccHiDLED.s 			page 57


 1656 0645 0D       		.byte	0xd
 1657 0646 6A       		.byte	0x6a
 1658 0647 D6000000 		.4byte	0xd6
 1659 064b 01       		.byte	0x1
 1660 064c 0E       		.uleb128 0xe
 1661 064d 78010000 		.4byte	.LASF117
 1662 0651 0D       		.byte	0xd
 1663 0652 6B       		.byte	0x6b
 1664 0653 D6000000 		.4byte	0xd6
 1665 0657 02       		.byte	0x2
 1666 0658 00       		.byte	0
 1667 0659 03       		.uleb128 0x3
 1668 065a 760A0000 		.4byte	.LASF118
 1669 065e 0D       		.byte	0xd
 1670 065f 6C       		.byte	0x6c
 1671 0660 2C060000 		.4byte	0x62c
 1672 0664 03       		.uleb128 0x3
 1673 0665 EB020000 		.4byte	.LASF119
 1674 0669 0E       		.byte	0xe
 1675 066a 62       		.byte	0x62
 1676 066b 7B000000 		.4byte	0x7b
 1677 066f 03       		.uleb128 0x3
 1678 0670 C1050000 		.4byte	.LASF120
 1679 0674 0E       		.byte	0xe
 1680 0675 69       		.byte	0x69
 1681 0676 F7000000 		.4byte	0xf7
 1682 067a 03       		.uleb128 0x3
 1683 067b 35010000 		.4byte	.LASF121
 1684 067f 0F       		.byte	0xf
 1685 0680 58       		.byte	0x58
 1686 0681 A9000000 		.4byte	0xa9
 1687 0685 19       		.uleb128 0x19
 1688 0686 01       		.byte	0x1
 1689 0687 50000000 		.4byte	0x50
 1690 068b 10       		.byte	0x10
 1691 068c 3B       		.byte	0x3b
 1692 068d B0060000 		.4byte	0x6b0
 1693 0691 17       		.uleb128 0x17
 1694 0692 5C000000 		.4byte	.LASF122
 1695 0696 00       		.byte	0
 1696 0697 17       		.uleb128 0x17
 1697 0698 50020000 		.4byte	.LASF123
 1698 069c 01       		.byte	0x1
 1699 069d 17       		.uleb128 0x17
 1700 069e 410A0000 		.4byte	.LASF124
 1701 06a2 02       		.byte	0x2
 1702 06a3 17       		.uleb128 0x17
 1703 06a4 630A0000 		.4byte	.LASF125
 1704 06a8 03       		.byte	0x3
 1705 06a9 17       		.uleb128 0x17
 1706 06aa 26060000 		.4byte	.LASF126
 1707 06ae 04       		.byte	0x4
 1708 06af 00       		.byte	0
 1709 06b0 03       		.uleb128 0x3
 1710 06b1 F9070000 		.4byte	.LASF127
 1711 06b5 10       		.byte	0x10
 1712 06b6 42       		.byte	0x42
ARM GAS  C:\Users\Agentos\AppData\Local\Temp\ccHiDLED.s 			page 58


 1713 06b7 85060000 		.4byte	0x685
 1714 06bb 19       		.uleb128 0x19
 1715 06bc 01       		.byte	0x1
 1716 06bd 50000000 		.4byte	0x50
 1717 06c1 01       		.byte	0x1
 1718 06c2 47       		.byte	0x47
 1719 06c3 D4060000 		.4byte	0x6d4
 1720 06c7 17       		.uleb128 0x17
 1721 06c8 87020000 		.4byte	.LASF128
 1722 06cc 00       		.byte	0
 1723 06cd 17       		.uleb128 0x17
 1724 06ce 8F020000 		.4byte	.LASF129
 1725 06d2 01       		.byte	0x1
 1726 06d3 00       		.byte	0
 1727 06d4 03       		.uleb128 0x3
 1728 06d5 44090000 		.4byte	.LASF130
 1729 06d9 01       		.byte	0x1
 1730 06da 4A       		.byte	0x4a
 1731 06db BB060000 		.4byte	0x6bb
 1732 06df 1A       		.uleb128 0x1a
 1733 06e0 02020000 		.4byte	.LASF190
 1734 06e4 02       		.byte	0x2
 1735 06e5 E502     		.2byte	0x2e5
 1736 06e7 03       		.byte	0x3
 1737 06e8 11070000 		.4byte	0x711
 1738 06ec 1B       		.uleb128 0x1b
 1739 06ed 78050000 		.4byte	.LASF131
 1740 06f1 02       		.byte	0x2
 1741 06f2 E502     		.2byte	0x2e5
 1742 06f4 A5040000 		.4byte	0x4a5
 1743 06f8 1B       		.uleb128 0x1b
 1744 06f9 06080000 		.4byte	.LASF132
 1745 06fd 02       		.byte	0x2
 1746 06fe E502     		.2byte	0x2e5
 1747 0700 F7000000 		.4byte	0xf7
 1748 0704 1B       		.uleb128 0x1b
 1749 0705 AA030000 		.4byte	.LASF133
 1750 0709 02       		.byte	0x2
 1751 070a E502     		.2byte	0x2e5
 1752 070c F7000000 		.4byte	0xf7
 1753 0710 00       		.byte	0
 1754 0711 1C       		.uleb128 0x1c
 1755 0712 D9090000 		.4byte	.LASF191
 1756 0716 01       		.byte	0x1
 1757 0717 0801     		.2byte	0x108
 1758 0719 00000000 		.4byte	.LFB520
 1759 071d 02000000 		.4byte	.LFE520-.LFB520
 1760 0721 01       		.uleb128 0x1
 1761 0722 9C       		.byte	0x9c
 1762 0723 1D       		.uleb128 0x1d
 1763 0724 C6070000 		.4byte	.LASF134
 1764 0728 01       		.byte	0x1
 1765 0729 6F       		.byte	0x6f
 1766 072a 00000000 		.4byte	.LFB518
 1767 072e 1C000000 		.4byte	.LFE518-.LFB518
 1768 0732 01       		.uleb128 0x1
 1769 0733 9C       		.byte	0x9c
ARM GAS  C:\Users\Agentos\AppData\Local\Temp\ccHiDLED.s 			page 59


 1770 0734 72070000 		.4byte	0x772
 1771 0738 1E       		.uleb128 0x1e
 1772 0739 53030000 		.4byte	.LASF136
 1773 073d 01       		.byte	0x1
 1774 073e 6F       		.byte	0x6f
 1775 073f F7000000 		.4byte	0xf7
 1776 0743 00000000 		.4byte	.LLST0
 1777 0747 1F       		.uleb128 0x1f
 1778 0748 16000000 		.4byte	.LVL2
 1779 074c 390E0000 		.4byte	0xe39
 1780 0750 20       		.uleb128 0x20
 1781 0751 01       		.uleb128 0x1
 1782 0752 50       		.byte	0x50
 1783 0753 1C       		.uleb128 0x1c
 1784 0754 F3       		.byte	0xf3
 1785 0755 01       		.uleb128 0x1
 1786 0756 50       		.byte	0x50
 1787 0757 0A       		.byte	0xa
 1788 0758 E803     		.2byte	0x3e8
 1789 075a 1E       		.byte	0x1e
 1790 075b F7       		.byte	0xf7
 1791 075c 2C       		.uleb128 0x2c
 1792 075d F7       		.byte	0xf7
 1793 075e 25       		.uleb128 0x25
 1794 075f 0C       		.byte	0xc
 1795 0760 D34D6210 		.4byte	0x10624dd3
 1796 0764 F7       		.byte	0xf7
 1797 0765 25       		.uleb128 0x25
 1798 0766 1E       		.byte	0x1e
 1799 0767 08       		.byte	0x8
 1800 0768 20       		.byte	0x20
 1801 0769 F7       		.byte	0xf7
 1802 076a 25       		.uleb128 0x25
 1803 076b 25       		.byte	0x25
 1804 076c F7       		.byte	0xf7
 1805 076d 2C       		.uleb128 0x2c
 1806 076e 36       		.byte	0x36
 1807 076f 25       		.byte	0x25
 1808 0770 00       		.byte	0
 1809 0771 00       		.byte	0
 1810 0772 21       		.uleb128 0x21
 1811 0773 D5030000 		.4byte	.LASF135
 1812 0777 01       		.byte	0x1
 1813 0778 5202     		.2byte	0x252
 1814 077a 00000000 		.4byte	.LFB528
 1815 077e 78000000 		.4byte	.LFE528-.LFB528
 1816 0782 01       		.uleb128 0x1
 1817 0783 9C       		.byte	0x9c
 1818 0784 5C080000 		.4byte	0x85c
 1819 0788 22       		.uleb128 0x22
 1820 0789 69090000 		.4byte	.LASF137
 1821 078d 01       		.byte	0x1
 1822 078e 5202     		.2byte	0x252
 1823 0790 5C080000 		.4byte	0x85c
 1824 0794 21000000 		.4byte	.LLST1
 1825 0798 23       		.uleb128 0x23
 1826 0799 E9030000 		.4byte	.LASF142
ARM GAS  C:\Users\Agentos\AppData\Local\Temp\ccHiDLED.s 			page 60


 1827 079d 01       		.byte	0x1
 1828 079e 5502     		.2byte	0x255
 1829 07a0 D6000000 		.4byte	0xd6
 1830 07a4 05       		.uleb128 0x5
 1831 07a5 03       		.byte	0x3
 1832 07a6 04000000 		.4byte	startupScreenCounter.17189
 1833 07aa 24       		.uleb128 0x24
 1834 07ab DF060000 		.4byte	0x6df
 1835 07af 04000000 		.4byte	.LBB13
 1836 07b3 06000000 		.4byte	.LBE13-.LBB13
 1837 07b7 01       		.byte	0x1
 1838 07b8 5802     		.2byte	0x258
 1839 07ba DA070000 		.4byte	0x7da
 1840 07be 25       		.uleb128 0x25
 1841 07bf 04070000 		.4byte	0x704
 1842 07c3 84000000 		.4byte	.LLST2
 1843 07c7 25       		.uleb128 0x25
 1844 07c8 F8060000 		.4byte	0x6f8
 1845 07cc 98000000 		.4byte	.LLST3
 1846 07d0 25       		.uleb128 0x25
 1847 07d1 EC060000 		.4byte	0x6ec
 1848 07d5 AC000000 		.4byte	.LLST4
 1849 07d9 00       		.byte	0
 1850 07da 24       		.uleb128 0x24
 1851 07db DF060000 		.4byte	0x6df
 1852 07df 64000000 		.4byte	.LBB15
 1853 07e3 14000000 		.4byte	.LBE15-.LBB15
 1854 07e7 01       		.byte	0x1
 1855 07e8 8902     		.2byte	0x289
 1856 07ea 0A080000 		.4byte	0x80a
 1857 07ee 25       		.uleb128 0x25
 1858 07ef 04070000 		.4byte	0x704
 1859 07f3 C4000000 		.4byte	.LLST5
 1860 07f7 25       		.uleb128 0x25
 1861 07f8 F8060000 		.4byte	0x6f8
 1862 07fc D8000000 		.4byte	.LLST6
 1863 0800 25       		.uleb128 0x25
 1864 0801 EC060000 		.4byte	0x6ec
 1865 0805 EC000000 		.4byte	.LLST7
 1866 0809 00       		.byte	0
 1867 080a 26       		.uleb128 0x26
 1868 080b 20000000 		.4byte	.LVL7
 1869 080f 450E0000 		.4byte	0xe45
 1870 0813 28080000 		.4byte	0x828
 1871 0817 20       		.uleb128 0x20
 1872 0818 01       		.uleb128 0x1
 1873 0819 51       		.byte	0x51
 1874 081a 02       		.uleb128 0x2
 1875 081b 74       		.byte	0x74
 1876 081c 00       		.sleb128 0
 1877 081d 20       		.uleb128 0x20
 1878 081e 01       		.uleb128 0x1
 1879 081f 52       		.byte	0x52
 1880 0820 01       		.uleb128 0x1
 1881 0821 32       		.byte	0x32
 1882 0822 20       		.uleb128 0x20
 1883 0823 01       		.uleb128 0x1
ARM GAS  C:\Users\Agentos\AppData\Local\Temp\ccHiDLED.s 			page 61


 1884 0824 53       		.byte	0x53
 1885 0825 01       		.uleb128 0x1
 1886 0826 31       		.byte	0x31
 1887 0827 00       		.byte	0
 1888 0828 26       		.uleb128 0x26
 1889 0829 44000000 		.4byte	.LVL10
 1890 082d 450E0000 		.4byte	0xe45
 1891 0831 41080000 		.4byte	0x841
 1892 0835 20       		.uleb128 0x20
 1893 0836 01       		.uleb128 0x1
 1894 0837 51       		.byte	0x51
 1895 0838 02       		.uleb128 0x2
 1896 0839 74       		.byte	0x74
 1897 083a 00       		.sleb128 0
 1898 083b 20       		.uleb128 0x20
 1899 083c 01       		.uleb128 0x1
 1900 083d 52       		.byte	0x52
 1901 083e 01       		.uleb128 0x1
 1902 083f 32       		.byte	0x32
 1903 0840 00       		.byte	0
 1904 0841 1F       		.uleb128 0x1f
 1905 0842 5A000000 		.4byte	.LVL13
 1906 0846 450E0000 		.4byte	0xe45
 1907 084a 20       		.uleb128 0x20
 1908 084b 01       		.uleb128 0x1
 1909 084c 51       		.byte	0x51
 1910 084d 02       		.uleb128 0x2
 1911 084e 74       		.byte	0x74
 1912 084f 00       		.sleb128 0
 1913 0850 20       		.uleb128 0x20
 1914 0851 01       		.uleb128 0x1
 1915 0852 52       		.byte	0x52
 1916 0853 01       		.uleb128 0x1
 1917 0854 30       		.byte	0x30
 1918 0855 20       		.uleb128 0x20
 1919 0856 01       		.uleb128 0x1
 1920 0857 53       		.byte	0x53
 1921 0858 01       		.uleb128 0x1
 1922 0859 31       		.byte	0x31
 1923 085a 00       		.byte	0
 1924 085b 00       		.byte	0
 1925 085c 06       		.uleb128 0x6
 1926 085d 04       		.byte	0x4
 1927 085e 90050000 		.4byte	0x590
 1928 0862 21       		.uleb128 0x21
 1929 0863 20030000 		.4byte	.LASF138
 1930 0867 01       		.byte	0x1
 1931 0868 4801     		.2byte	0x148
 1932 086a 00000000 		.4byte	.LFB522
 1933 086e 24000000 		.4byte	.LFE522-.LFB522
 1934 0872 01       		.uleb128 0x1
 1935 0873 9C       		.byte	0x9c
 1936 0874 82080000 		.4byte	0x882
 1937 0878 27       		.uleb128 0x27
 1938 0879 18000000 		.4byte	.LVL17
 1939 087d 72070000 		.4byte	0x772
 1940 0881 00       		.byte	0
ARM GAS  C:\Users\Agentos\AppData\Local\Temp\ccHiDLED.s 			page 62


 1941 0882 21       		.uleb128 0x21
 1942 0883 B8090000 		.4byte	.LASF139
 1943 0887 01       		.byte	0x1
 1944 0888 8601     		.2byte	0x186
 1945 088a 00000000 		.4byte	.LFB524
 1946 088e 34000000 		.4byte	.LFE524-.LFB524
 1947 0892 01       		.uleb128 0x1
 1948 0893 9C       		.byte	0x9c
 1949 0894 A2080000 		.4byte	0x8a2
 1950 0898 27       		.uleb128 0x27
 1951 0899 2A000000 		.4byte	.LVL18
 1952 089d 72070000 		.4byte	0x772
 1953 08a1 00       		.byte	0
 1954 08a2 21       		.uleb128 0x21
 1955 08a3 3F000000 		.4byte	.LASF140
 1956 08a7 01       		.byte	0x1
 1957 08a8 6201     		.2byte	0x162
 1958 08aa 00000000 		.4byte	.LFB523
 1959 08ae 34000000 		.4byte	.LFE523-.LFB523
 1960 08b2 01       		.uleb128 0x1
 1961 08b3 9C       		.byte	0x9c
 1962 08b4 C2080000 		.4byte	0x8c2
 1963 08b8 27       		.uleb128 0x27
 1964 08b9 28000000 		.4byte	.LVL19
 1965 08bd 72070000 		.4byte	0x772
 1966 08c1 00       		.byte	0
 1967 08c2 21       		.uleb128 0x21
 1968 08c3 CC050000 		.4byte	.LASF141
 1969 08c7 01       		.byte	0x1
 1970 08c8 1802     		.2byte	0x218
 1971 08ca 00000000 		.4byte	.LFB527
 1972 08ce 60000000 		.4byte	.LFE527-.LFB527
 1973 08d2 01       		.uleb128 0x1
 1974 08d3 9C       		.byte	0x9c
 1975 08d4 95090000 		.4byte	0x995
 1976 08d8 22       		.uleb128 0x22
 1977 08d9 69090000 		.4byte	.LASF137
 1978 08dd 01       		.byte	0x1
 1979 08de 1802     		.2byte	0x218
 1980 08e0 5C080000 		.4byte	0x85c
 1981 08e4 04010000 		.4byte	.LLST8
 1982 08e8 23       		.uleb128 0x23
 1983 08e9 0B050000 		.4byte	.LASF143
 1984 08ed 01       		.byte	0x1
 1985 08ee 1D02     		.2byte	0x21d
 1986 08f0 AA090000 		.4byte	0x9aa
 1987 08f4 02       		.uleb128 0x2
 1988 08f5 91       		.byte	0x91
 1989 08f6 6C       		.sleb128 -20
 1990 08f7 23       		.uleb128 0x23
 1991 08f8 F8080000 		.4byte	.LASF144
 1992 08fc 01       		.byte	0x1
 1993 08fd 1E02     		.2byte	0x21e
 1994 08ff AF090000 		.4byte	0x9af
 1995 0903 02       		.uleb128 0x2
 1996 0904 91       		.byte	0x91
 1997 0905 68       		.sleb128 -24
ARM GAS  C:\Users\Agentos\AppData\Local\Temp\ccHiDLED.s 			page 63


 1998 0906 23       		.uleb128 0x23
 1999 0907 7D020000 		.4byte	.LASF145
 2000 090b 01       		.byte	0x1
 2001 090c 2102     		.2byte	0x221
 2002 090e D1020000 		.4byte	0x2d1
 2003 0912 05       		.uleb128 0x5
 2004 0913 03       		.byte	0x3
 2005 0914 01000000 		.4byte	firstTime.17185
 2006 0918 26       		.uleb128 0x26
 2007 0919 24000000 		.4byte	.LVL22
 2008 091d 500E0000 		.4byte	0xe50
 2009 0921 38090000 		.4byte	0x938
 2010 0925 20       		.uleb128 0x20
 2011 0926 01       		.uleb128 0x1
 2012 0927 50       		.byte	0x50
 2013 0928 02       		.uleb128 0x2
 2014 0929 75       		.byte	0x75
 2015 092a 00       		.sleb128 0
 2016 092b 20       		.uleb128 0x20
 2017 092c 01       		.uleb128 0x1
 2018 092d 51       		.byte	0x51
 2019 092e 02       		.uleb128 0x2
 2020 092f 74       		.byte	0x74
 2021 0930 00       		.sleb128 0
 2022 0931 20       		.uleb128 0x20
 2023 0932 01       		.uleb128 0x1
 2024 0933 52       		.byte	0x52
 2025 0934 02       		.uleb128 0x2
 2026 0935 91       		.byte	0x91
 2027 0936 6C       		.sleb128 -20
 2028 0937 00       		.byte	0
 2029 0938 26       		.uleb128 0x26
 2030 0939 2E000000 		.4byte	.LVL23
 2031 093d 500E0000 		.4byte	0xe50
 2032 0941 58090000 		.4byte	0x958
 2033 0945 20       		.uleb128 0x20
 2034 0946 01       		.uleb128 0x1
 2035 0947 50       		.byte	0x50
 2036 0948 02       		.uleb128 0x2
 2037 0949 75       		.byte	0x75
 2038 094a 00       		.sleb128 0
 2039 094b 20       		.uleb128 0x20
 2040 094c 01       		.uleb128 0x1
 2041 094d 51       		.byte	0x51
 2042 094e 02       		.uleb128 0x2
 2043 094f 74       		.byte	0x74
 2044 0950 00       		.sleb128 0
 2045 0951 20       		.uleb128 0x20
 2046 0952 01       		.uleb128 0x1
 2047 0953 52       		.byte	0x52
 2048 0954 02       		.uleb128 0x2
 2049 0955 7D       		.byte	0x7d
 2050 0956 00       		.sleb128 0
 2051 0957 00       		.byte	0
 2052 0958 26       		.uleb128 0x26
 2053 0959 3A000000 		.4byte	.LVL24
 2054 095d 500E0000 		.4byte	0xe50
ARM GAS  C:\Users\Agentos\AppData\Local\Temp\ccHiDLED.s 			page 64


 2055 0961 78090000 		.4byte	0x978
 2056 0965 20       		.uleb128 0x20
 2057 0966 01       		.uleb128 0x1
 2058 0967 50       		.byte	0x50
 2059 0968 02       		.uleb128 0x2
 2060 0969 75       		.byte	0x75
 2061 096a 00       		.sleb128 0
 2062 096b 20       		.uleb128 0x20
 2063 096c 01       		.uleb128 0x1
 2064 096d 51       		.byte	0x51
 2065 096e 02       		.uleb128 0x2
 2066 096f 74       		.byte	0x74
 2067 0970 00       		.sleb128 0
 2068 0971 20       		.uleb128 0x20
 2069 0972 01       		.uleb128 0x1
 2070 0973 52       		.byte	0x52
 2071 0974 02       		.uleb128 0x2
 2072 0975 91       		.byte	0x91
 2073 0976 6C       		.sleb128 -20
 2074 0977 00       		.byte	0
 2075 0978 1F       		.uleb128 0x1f
 2076 0979 44000000 		.4byte	.LVL25
 2077 097d 500E0000 		.4byte	0xe50
 2078 0981 20       		.uleb128 0x20
 2079 0982 01       		.uleb128 0x1
 2080 0983 50       		.byte	0x50
 2081 0984 02       		.uleb128 0x2
 2082 0985 75       		.byte	0x75
 2083 0986 00       		.sleb128 0
 2084 0987 20       		.uleb128 0x20
 2085 0988 01       		.uleb128 0x1
 2086 0989 51       		.byte	0x51
 2087 098a 02       		.uleb128 0x2
 2088 098b 74       		.byte	0x74
 2089 098c 00       		.sleb128 0
 2090 098d 20       		.uleb128 0x20
 2091 098e 01       		.uleb128 0x1
 2092 098f 52       		.byte	0x52
 2093 0990 02       		.uleb128 0x2
 2094 0991 7D       		.byte	0x7d
 2095 0992 00       		.sleb128 0
 2096 0993 00       		.byte	0
 2097 0994 00       		.byte	0
 2098 0995 0A       		.uleb128 0xa
 2099 0996 A5090000 		.4byte	0x9a5
 2100 099a A5090000 		.4byte	0x9a5
 2101 099e 0B       		.uleb128 0xb
 2102 099f AB000000 		.4byte	0xab
 2103 09a3 03       		.byte	0x3
 2104 09a4 00       		.byte	0
 2105 09a5 08       		.uleb128 0x8
 2106 09a6 D6000000 		.4byte	0xd6
 2107 09aa 08       		.uleb128 0x8
 2108 09ab 95090000 		.4byte	0x995
 2109 09af 08       		.uleb128 0x8
 2110 09b0 95090000 		.4byte	0x995
 2111 09b4 21       		.uleb128 0x21
ARM GAS  C:\Users\Agentos\AppData\Local\Temp\ccHiDLED.s 			page 65


 2112 09b5 31080000 		.4byte	.LASF146
 2113 09b9 01       		.byte	0x1
 2114 09ba A402     		.2byte	0x2a4
 2115 09bc 00000000 		.4byte	.LFB529
 2116 09c0 84000000 		.4byte	.LFE529-.LFB529
 2117 09c4 01       		.uleb128 0x1
 2118 09c5 9C       		.byte	0x9c
 2119 09c6 9D0A0000 		.4byte	0xa9d
 2120 09ca 22       		.uleb128 0x22
 2121 09cb 91080000 		.4byte	.LASF147
 2122 09cf 01       		.byte	0x1
 2123 09d0 A402     		.2byte	0x2a4
 2124 09d2 B9000000 		.4byte	0xb9
 2125 09d6 30010000 		.4byte	.LLST9
 2126 09da 22       		.uleb128 0x22
 2127 09db 34090000 		.4byte	.LASF148
 2128 09df 01       		.byte	0x1
 2129 09e0 A402     		.2byte	0x2a4
 2130 09e2 5C080000 		.4byte	0x85c
 2131 09e6 5C010000 		.4byte	.LLST10
 2132 09ea 23       		.uleb128 0x23
 2133 09eb 26080000 		.4byte	.LASF149
 2134 09ef 01       		.byte	0x1
 2135 09f0 A902     		.2byte	0x2a9
 2136 09f2 AD0A0000 		.4byte	0xaad
 2137 09f6 02       		.uleb128 0x2
 2138 09f7 91       		.byte	0x91
 2139 09f8 64       		.sleb128 -28
 2140 09f9 24       		.uleb128 0x24
 2141 09fa DF060000 		.4byte	0x6df
 2142 09fe 10000000 		.4byte	.LBB17
 2143 0a02 06000000 		.4byte	.LBE17-.LBB17
 2144 0a06 01       		.byte	0x1
 2145 0a07 AC02     		.2byte	0x2ac
 2146 0a09 290A0000 		.4byte	0xa29
 2147 0a0d 25       		.uleb128 0x25
 2148 0a0e 04070000 		.4byte	0x704
 2149 0a12 7D010000 		.4byte	.LLST11
 2150 0a16 25       		.uleb128 0x25
 2151 0a17 F8060000 		.4byte	0x6f8
 2152 0a1b 91010000 		.4byte	.LLST12
 2153 0a1f 25       		.uleb128 0x25
 2154 0a20 EC060000 		.4byte	0x6ec
 2155 0a24 A5010000 		.4byte	.LLST13
 2156 0a28 00       		.byte	0
 2157 0a29 24       		.uleb128 0x24
 2158 0a2a DF060000 		.4byte	0x6df
 2159 0a2e 66000000 		.4byte	.LBB19
 2160 0a32 06000000 		.4byte	.LBE19-.LBB19
 2161 0a36 01       		.byte	0x1
 2162 0a37 CF02     		.2byte	0x2cf
 2163 0a39 590A0000 		.4byte	0xa59
 2164 0a3d 25       		.uleb128 0x25
 2165 0a3e 04070000 		.4byte	0x704
 2166 0a42 BD010000 		.4byte	.LLST14
 2167 0a46 25       		.uleb128 0x25
 2168 0a47 F8060000 		.4byte	0x6f8
ARM GAS  C:\Users\Agentos\AppData\Local\Temp\ccHiDLED.s 			page 66


 2169 0a4b D1010000 		.4byte	.LLST15
 2170 0a4f 25       		.uleb128 0x25
 2171 0a50 EC060000 		.4byte	0x6ec
 2172 0a54 E5010000 		.4byte	.LLST16
 2173 0a58 00       		.byte	0
 2174 0a59 26       		.uleb128 0x26
 2175 0a5a 1C000000 		.4byte	.LVL31
 2176 0a5e C2080000 		.4byte	0x8c2
 2177 0a62 6E0A0000 		.4byte	0xa6e
 2178 0a66 20       		.uleb128 0x20
 2179 0a67 01       		.uleb128 0x1
 2180 0a68 50       		.byte	0x50
 2181 0a69 03       		.uleb128 0x3
 2182 0a6a F3       		.byte	0xf3
 2183 0a6b 01       		.uleb128 0x1
 2184 0a6c 51       		.byte	0x51
 2185 0a6d 00       		.byte	0
 2186 0a6e 26       		.uleb128 0x26
 2187 0a6f 48000000 		.4byte	.LVL32
 2188 0a73 5B0E0000 		.4byte	0xe5b
 2189 0a77 880A0000 		.4byte	0xa88
 2190 0a7b 20       		.uleb128 0x20
 2191 0a7c 01       		.uleb128 0x1
 2192 0a7d 51       		.byte	0x51
 2193 0a7e 02       		.uleb128 0x2
 2194 0a7f 77       		.byte	0x77
 2195 0a80 00       		.sleb128 0
 2196 0a81 20       		.uleb128 0x20
 2197 0a82 01       		.uleb128 0x1
 2198 0a83 53       		.byte	0x53
 2199 0a84 02       		.uleb128 0x2
 2200 0a85 91       		.byte	0x91
 2201 0a86 64       		.sleb128 -28
 2202 0a87 00       		.byte	0
 2203 0a88 1F       		.uleb128 0x1f
 2204 0a89 58000000 		.4byte	.LVL33
 2205 0a8d 450E0000 		.4byte	0xe45
 2206 0a91 20       		.uleb128 0x20
 2207 0a92 01       		.uleb128 0x1
 2208 0a93 52       		.byte	0x52
 2209 0a94 01       		.uleb128 0x1
 2210 0a95 32       		.byte	0x32
 2211 0a96 20       		.uleb128 0x20
 2212 0a97 01       		.uleb128 0x1
 2213 0a98 53       		.byte	0x53
 2214 0a99 01       		.uleb128 0x1
 2215 0a9a 31       		.byte	0x31
 2216 0a9b 00       		.byte	0
 2217 0a9c 00       		.byte	0
 2218 0a9d 0A       		.uleb128 0xa
 2219 0a9e A5090000 		.4byte	0x9a5
 2220 0aa2 AD0A0000 		.4byte	0xaad
 2221 0aa6 0B       		.uleb128 0xb
 2222 0aa7 AB000000 		.4byte	0xab
 2223 0aab 01       		.byte	0x1
 2224 0aac 00       		.byte	0
 2225 0aad 08       		.uleb128 0x8
ARM GAS  C:\Users\Agentos\AppData\Local\Temp\ccHiDLED.s 			page 67


 2226 0aae 9D0A0000 		.4byte	0xa9d
 2227 0ab2 21       		.uleb128 0x21
 2228 0ab3 17090000 		.4byte	.LASF150
 2229 0ab7 01       		.byte	0x1
 2230 0ab8 DB01     		.2byte	0x1db
 2231 0aba 00000000 		.4byte	.LFB526
 2232 0abe 58000000 		.4byte	.LFE526-.LFB526
 2233 0ac2 01       		.uleb128 0x1
 2234 0ac3 9C       		.byte	0x9c
 2235 0ac4 E20A0000 		.4byte	0xae2
 2236 0ac8 28       		.uleb128 0x28
 2237 0ac9 16000000 		.4byte	.LASF151
 2238 0acd 01       		.byte	0x1
 2239 0ace DF01     		.2byte	0x1df
 2240 0ad0 D6000000 		.4byte	0xd6
 2241 0ad4 FD010000 		.4byte	.LLST17
 2242 0ad8 27       		.uleb128 0x27
 2243 0ad9 42000000 		.4byte	.LVL38
 2244 0add B4090000 		.4byte	0x9b4
 2245 0ae1 00       		.byte	0
 2246 0ae2 21       		.uleb128 0x21
 2247 0ae3 8D040000 		.4byte	.LASF152
 2248 0ae7 01       		.byte	0x1
 2249 0ae8 A901     		.2byte	0x1a9
 2250 0aea 00000000 		.4byte	.LFB525
 2251 0aee 58000000 		.4byte	.LFE525-.LFB525
 2252 0af2 01       		.uleb128 0x1
 2253 0af3 9C       		.byte	0x9c
 2254 0af4 120B0000 		.4byte	0xb12
 2255 0af8 28       		.uleb128 0x28
 2256 0af9 16000000 		.4byte	.LASF151
 2257 0afd 01       		.byte	0x1
 2258 0afe AE01     		.2byte	0x1ae
 2259 0b00 D6000000 		.4byte	0xd6
 2260 0b04 10020000 		.4byte	.LLST18
 2261 0b08 27       		.uleb128 0x27
 2262 0b09 40000000 		.4byte	.LVL40
 2263 0b0d B4090000 		.4byte	0x9b4
 2264 0b11 00       		.byte	0
 2265 0b12 21       		.uleb128 0x21
 2266 0b13 3A030000 		.4byte	.LASF153
 2267 0b17 01       		.byte	0x1
 2268 0b18 1D01     		.2byte	0x11d
 2269 0b1a 00000000 		.4byte	.LFB521
 2270 0b1e 40000000 		.4byte	.LFE521-.LFB521
 2271 0b22 01       		.uleb128 0x1
 2272 0b23 9C       		.byte	0x9c
 2273 0b24 420B0000 		.4byte	0xb42
 2274 0b28 28       		.uleb128 0x28
 2275 0b29 16000000 		.4byte	.LASF151
 2276 0b2d 01       		.byte	0x1
 2277 0b2e 2101     		.2byte	0x121
 2278 0b30 D6000000 		.4byte	0xd6
 2279 0b34 23020000 		.4byte	.LLST19
 2280 0b38 27       		.uleb128 0x27
 2281 0b39 2C000000 		.4byte	.LVL42
 2282 0b3d B4090000 		.4byte	0x9b4
ARM GAS  C:\Users\Agentos\AppData\Local\Temp\ccHiDLED.s 			page 68


 2283 0b41 00       		.byte	0
 2284 0b42 29       		.uleb128 0x29
 2285 0b43 1E070000 		.4byte	.LASF192
 2286 0b47 01       		.byte	0x1
 2287 0b48 7F       		.byte	0x7f
 2288 0b49 00000000 		.4byte	.LFB519
 2289 0b4d 98000000 		.4byte	.LFE519-.LFB519
 2290 0b51 01       		.uleb128 0x1
 2291 0b52 9C       		.byte	0x9c
 2292 0b53 8E0C0000 		.4byte	0xc8e
 2293 0b57 1E       		.uleb128 0x1e
 2294 0b58 1E040000 		.4byte	.LASF154
 2295 0b5c 01       		.byte	0x1
 2296 0b5d 7F       		.byte	0x7f
 2297 0b5e A9000000 		.4byte	0xa9
 2298 0b62 36020000 		.4byte	.LLST20
 2299 0b66 2A       		.uleb128 0x2a
 2300 0b67 E9070000 		.4byte	.LASF155
 2301 0b6b 01       		.byte	0x1
 2302 0b6c 82       		.byte	0x82
 2303 0b6d D3050000 		.4byte	0x5d3
 2304 0b71 57020000 		.4byte	.LLST21
 2305 0b75 2A       		.uleb128 0x2a
 2306 0b76 F7090000 		.4byte	.LASF156
 2307 0b7a 01       		.byte	0x1
 2308 0b7b 85       		.byte	0x85
 2309 0b7c 64060000 		.4byte	0x664
 2310 0b80 76020000 		.4byte	.LLST22
 2311 0b84 2A       		.uleb128 0x2a
 2312 0b85 97020000 		.4byte	.LASF157
 2313 0b89 01       		.byte	0x1
 2314 0b8a 88       		.byte	0x88
 2315 0b8b CB000000 		.4byte	0xcb
 2316 0b8f 89020000 		.4byte	.LLST23
 2317 0b93 2B       		.uleb128 0x2b
 2318 0b94 A3090000 		.4byte	.LASF158
 2319 0b98 01       		.byte	0x1
 2320 0b99 8A       		.byte	0x8a
 2321 0b9a B0060000 		.4byte	0x6b0
 2322 0b9e 02       		.uleb128 0x2
 2323 0b9f 91       		.byte	0x91
 2324 0ba0 77       		.sleb128 -9
 2325 0ba1 2C       		.uleb128 0x2c
 2326 0ba2 DF060000 		.4byte	0x6df
 2327 0ba6 2C000000 		.4byte	.LBB21
 2328 0baa 06000000 		.4byte	.LBE21-.LBB21
 2329 0bae 01       		.byte	0x1
 2330 0baf A9       		.byte	0xa9
 2331 0bb0 D00B0000 		.4byte	0xbd0
 2332 0bb4 25       		.uleb128 0x25
 2333 0bb5 04070000 		.4byte	0x704
 2334 0bb9 9D020000 		.4byte	.LLST24
 2335 0bbd 25       		.uleb128 0x25
 2336 0bbe F8060000 		.4byte	0x6f8
 2337 0bc2 B1020000 		.4byte	.LLST25
 2338 0bc6 25       		.uleb128 0x25
 2339 0bc7 EC060000 		.4byte	0x6ec
ARM GAS  C:\Users\Agentos\AppData\Local\Temp\ccHiDLED.s 			page 69


 2340 0bcb C5020000 		.4byte	.LLST26
 2341 0bcf 00       		.byte	0
 2342 0bd0 2D       		.uleb128 0x2d
 2343 0bd1 64000000 		.4byte	.LBB23
 2344 0bd5 16000000 		.4byte	.LBE23-.LBB23
 2345 0bd9 EF0B0000 		.4byte	0xbef
 2346 0bdd 2B       		.uleb128 0x2b
 2347 0bde 69020000 		.4byte	.LASF159
 2348 0be2 01       		.byte	0x1
 2349 0be3 DA       		.byte	0xda
 2350 0be4 A40C0000 		.4byte	0xca4
 2351 0be8 05       		.uleb128 0x5
 2352 0be9 03       		.byte	0x3
 2353 0bea 08000000 		.4byte	ScreenUpdatePointer.17154
 2354 0bee 00       		.byte	0
 2355 0bef 27       		.uleb128 0x27
 2356 0bf0 08000000 		.4byte	.LVL45
 2357 0bf4 660E0000 		.4byte	0xe66
 2358 0bf8 27       		.uleb128 0x27
 2359 0bf9 0C000000 		.4byte	.LVL46
 2360 0bfd 710E0000 		.4byte	0xe71
 2361 0c01 26       		.uleb128 0x26
 2362 0c02 22000000 		.4byte	.LVL48
 2363 0c06 7C0E0000 		.4byte	0xe7c
 2364 0c0a 200C0000 		.4byte	0xc20
 2365 0c0e 20       		.uleb128 0x20
 2366 0c0f 01       		.uleb128 0x1
 2367 0c10 50       		.byte	0x50
 2368 0c11 04       		.uleb128 0x4
 2369 0c12 91       		.byte	0x91
 2370 0c13 6C       		.sleb128 -20
 2371 0c14 94       		.byte	0x94
 2372 0c15 01       		.byte	0x1
 2373 0c16 20       		.uleb128 0x20
 2374 0c17 01       		.uleb128 0x1
 2375 0c18 51       		.byte	0x51
 2376 0c19 05       		.uleb128 0x5
 2377 0c1a 03       		.byte	0x3
 2378 0c1b 00000000 		.4byte	DelayMs
 2379 0c1f 00       		.byte	0
 2380 0c20 26       		.uleb128 0x26
 2381 0c21 2A000000 		.4byte	.LVL49
 2382 0c25 870E0000 		.4byte	0xe87
 2383 0c29 330C0000 		.4byte	0xc33
 2384 0c2d 20       		.uleb128 0x20
 2385 0c2e 01       		.uleb128 0x1
 2386 0c2f 50       		.byte	0x50
 2387 0c30 01       		.uleb128 0x1
 2388 0c31 31       		.byte	0x31
 2389 0c32 00       		.byte	0
 2390 0c33 26       		.uleb128 0x26
 2391 0c34 3A000000 		.4byte	.LVL52
 2392 0c38 920E0000 		.4byte	0xe92
 2393 0c3c 4B0C0000 		.4byte	0xc4b
 2394 0c40 20       		.uleb128 0x20
 2395 0c41 01       		.uleb128 0x1
 2396 0c42 50       		.byte	0x50
ARM GAS  C:\Users\Agentos\AppData\Local\Temp\ccHiDLED.s 			page 70


 2397 0c43 01       		.uleb128 0x1
 2398 0c44 31       		.byte	0x31
 2399 0c45 20       		.uleb128 0x20
 2400 0c46 01       		.uleb128 0x1
 2401 0c47 51       		.byte	0x51
 2402 0c48 01       		.uleb128 0x1
 2403 0c49 30       		.byte	0x30
 2404 0c4a 00       		.byte	0
 2405 0c4b 27       		.uleb128 0x27
 2406 0c4c 40000000 		.4byte	.LVL53
 2407 0c50 72070000 		.4byte	0x772
 2408 0c54 26       		.uleb128 0x26
 2409 0c55 48000000 		.4byte	.LVL54
 2410 0c59 390E0000 		.4byte	0xe39
 2411 0c5d 690C0000 		.4byte	0xc69
 2412 0c61 20       		.uleb128 0x20
 2413 0c62 01       		.uleb128 0x1
 2414 0c63 50       		.byte	0x50
 2415 0c64 03       		.uleb128 0x3
 2416 0c65 0A       		.byte	0xa
 2417 0c66 B80B     		.2byte	0xbb8
 2418 0c68 00       		.byte	0
 2419 0c69 27       		.uleb128 0x27
 2420 0c6a 4E000000 		.4byte	.LVL55
 2421 0c6e 72070000 		.4byte	0x772
 2422 0c72 1F       		.uleb128 0x1f
 2423 0c73 60000000 		.4byte	.LVL56
 2424 0c77 9D0E0000 		.4byte	0xe9d
 2425 0c7b 20       		.uleb128 0x20
 2426 0c7c 01       		.uleb128 0x1
 2427 0c7d 51       		.byte	0x51
 2428 0c7e 02       		.uleb128 0x2
 2429 0c7f 91       		.byte	0x91
 2430 0c80 77       		.sleb128 -9
 2431 0c81 20       		.uleb128 0x20
 2432 0c82 01       		.uleb128 0x1
 2433 0c83 52       		.byte	0x52
 2434 0c84 02       		.uleb128 0x2
 2435 0c85 09       		.byte	0x9
 2436 0c86 FF       		.byte	0xff
 2437 0c87 20       		.uleb128 0x20
 2438 0c88 01       		.uleb128 0x1
 2439 0c89 53       		.byte	0x53
 2440 0c8a 01       		.uleb128 0x1
 2441 0c8b 30       		.byte	0x30
 2442 0c8c 00       		.byte	0
 2443 0c8d 00       		.byte	0
 2444 0c8e 0A       		.uleb128 0xa
 2445 0c8f B2000000 		.4byte	0xb2
 2446 0c93 A40C0000 		.4byte	0xca4
 2447 0c97 0B       		.uleb128 0xb
 2448 0c98 AB000000 		.4byte	0xab
 2449 0c9c 01       		.byte	0x1
 2450 0c9d 0B       		.uleb128 0xb
 2451 0c9e AB000000 		.4byte	0xab
 2452 0ca2 03       		.byte	0x3
 2453 0ca3 00       		.byte	0
ARM GAS  C:\Users\Agentos\AppData\Local\Temp\ccHiDLED.s 			page 71


 2454 0ca4 08       		.uleb128 0x8
 2455 0ca5 8E0C0000 		.4byte	0xc8e
 2456 0ca9 2E       		.uleb128 0x2e
 2457 0caa 68070000 		.4byte	.LASF160
 2458 0cae 11       		.byte	0x11
 2459 0caf EA07     		.2byte	0x7ea
 2460 0cb1 B50C0000 		.4byte	0xcb5
 2461 0cb5 09       		.uleb128 0x9
 2462 0cb6 EC000000 		.4byte	0xec
 2463 0cba 2F       		.uleb128 0x2f
 2464 0cbb 8E090000 		.4byte	.LASF161
 2465 0cbf 12       		.byte	0x12
 2466 0cc0 5E       		.byte	0x5e
 2467 0cc1 7E030000 		.4byte	0x37e
 2468 0cc5 2E       		.uleb128 0x2e
 2469 0cc6 05010000 		.4byte	.LASF162
 2470 0cca 09       		.byte	0x9
 2471 0ccb 6001     		.2byte	0x160
 2472 0ccd F7000000 		.4byte	0xf7
 2473 0cd1 0A       		.uleb128 0xa
 2474 0cd2 E10C0000 		.4byte	0xce1
 2475 0cd6 E10C0000 		.4byte	0xce1
 2476 0cda 0B       		.uleb128 0xb
 2477 0cdb AB000000 		.4byte	0xab
 2478 0cdf 00       		.byte	0
 2479 0ce0 00       		.byte	0
 2480 0ce1 08       		.uleb128 0x8
 2481 0ce2 FB040000 		.4byte	0x4fb
 2482 0ce6 2E       		.uleb128 0x2e
 2483 0ce7 96080000 		.4byte	.LASF163
 2484 0ceb 09       		.byte	0x9
 2485 0cec 6401     		.2byte	0x164
 2486 0cee F20C0000 		.4byte	0xcf2
 2487 0cf2 08       		.uleb128 0x8
 2488 0cf3 D10C0000 		.4byte	0xcd1
 2489 0cf7 2F       		.uleb128 0x2f
 2490 0cf8 36050000 		.4byte	.LASF164
 2491 0cfc 0A       		.byte	0xa
 2492 0cfd 51       		.byte	0x51
 2493 0cfe 6F050000 		.4byte	0x56f
 2494 0d02 2F       		.uleb128 0x2f
 2495 0d03 90050000 		.4byte	.LASF165
 2496 0d07 13       		.byte	0x13
 2497 0d08 56       		.byte	0x56
 2498 0d09 0D0D0000 		.4byte	0xd0d
 2499 0d0d 08       		.uleb128 0x8
 2500 0d0e 95090000 		.4byte	0x995
 2501 0d12 0A       		.uleb128 0xa
 2502 0d13 C6000000 		.4byte	0xc6
 2503 0d17 290D0000 		.4byte	0xd29
 2504 0d1b 0B       		.uleb128 0xb
 2505 0d1c AB000000 		.4byte	0xab
 2506 0d20 1C       		.byte	0x1c
 2507 0d21 30       		.uleb128 0x30
 2508 0d22 AB000000 		.4byte	0xab
 2509 0d26 8C01     		.2byte	0x18c
 2510 0d28 00       		.byte	0
ARM GAS  C:\Users\Agentos\AppData\Local\Temp\ccHiDLED.s 			page 72


 2511 0d29 2F       		.uleb128 0x2f
 2512 0d2a 78010000 		.4byte	.LASF117
 2513 0d2e 13       		.byte	0x13
 2514 0d2f 5A       		.byte	0x5a
 2515 0d30 340D0000 		.4byte	0xd34
 2516 0d34 08       		.uleb128 0x8
 2517 0d35 120D0000 		.4byte	0xd12
 2518 0d39 0A       		.uleb128 0xa
 2519 0d3a A5090000 		.4byte	0x9a5
 2520 0d3e 4F0D0000 		.4byte	0xd4f
 2521 0d42 0B       		.uleb128 0xb
 2522 0d43 AB000000 		.4byte	0xab
 2523 0d47 03       		.byte	0x3
 2524 0d48 0B       		.uleb128 0xb
 2525 0d49 AB000000 		.4byte	0xab
 2526 0d4d 09       		.byte	0x9
 2527 0d4e 00       		.byte	0
 2528 0d4f 2F       		.uleb128 0x2f
 2529 0d50 10040000 		.4byte	.LASF166
 2530 0d54 13       		.byte	0x13
 2531 0d55 5C       		.byte	0x5c
 2532 0d56 5A0D0000 		.4byte	0xd5a
 2533 0d5a 08       		.uleb128 0x8
 2534 0d5b 390D0000 		.4byte	0xd39
 2535 0d5f 0A       		.uleb128 0xa
 2536 0d60 700D0000 		.4byte	0xd70
 2537 0d64 700D0000 		.4byte	0xd70
 2538 0d68 30       		.uleb128 0x30
 2539 0d69 AB000000 		.4byte	0xab
 2540 0d6d AF16     		.2byte	0x16af
 2541 0d6f 00       		.byte	0
 2542 0d70 08       		.uleb128 0x8
 2543 0d71 90050000 		.4byte	0x590
 2544 0d75 2F       		.uleb128 0x2f
 2545 0d76 57000000 		.4byte	.LASF167
 2546 0d7a 13       		.byte	0x13
 2547 0d7b 60       		.byte	0x60
 2548 0d7c 800D0000 		.4byte	0xd80
 2549 0d80 08       		.uleb128 0x8
 2550 0d81 5F0D0000 		.4byte	0xd5f
 2551 0d85 2F       		.uleb128 0x2f
 2552 0d86 D8020000 		.4byte	.LASF168
 2553 0d8a 13       		.byte	0x13
 2554 0d8b 61       		.byte	0x61
 2555 0d8c 900D0000 		.4byte	0xd90
 2556 0d90 08       		.uleb128 0x8
 2557 0d91 5F0D0000 		.4byte	0xd5f
 2558 0d95 0A       		.uleb128 0xa
 2559 0d96 700D0000 		.4byte	0xd70
 2560 0d9a AC0D0000 		.4byte	0xdac
 2561 0d9e 0B       		.uleb128 0xb
 2562 0d9f AB000000 		.4byte	0xab
 2563 0da3 03       		.byte	0x3
 2564 0da4 30       		.uleb128 0x30
 2565 0da5 AB000000 		.4byte	0xab
 2566 0da9 AF16     		.2byte	0x16af
 2567 0dab 00       		.byte	0
ARM GAS  C:\Users\Agentos\AppData\Local\Temp\ccHiDLED.s 			page 73


 2568 0dac 2F       		.uleb128 0x2f
 2569 0dad 00000000 		.4byte	.LASF169
 2570 0db1 13       		.byte	0x13
 2571 0db2 62       		.byte	0x62
 2572 0db3 B70D0000 		.4byte	0xdb7
 2573 0db7 08       		.uleb128 0x8
 2574 0db8 950D0000 		.4byte	0xd95
 2575 0dbc 2F       		.uleb128 0x2f
 2576 0dbd 45080000 		.4byte	.LASF170
 2577 0dc1 10       		.byte	0x10
 2578 0dc2 45       		.byte	0x45
 2579 0dc3 7A060000 		.4byte	0x67a
 2580 0dc7 31       		.uleb128 0x31
 2581 0dc8 B1070000 		.4byte	.LASF171
 2582 0dcc 01       		.byte	0x1
 2583 0dcd 4D       		.byte	0x4d
 2584 0dce FD050000 		.4byte	0x5fd
 2585 0dd2 05       		.uleb128 0x5
 2586 0dd3 03       		.byte	0x3
 2587 0dd4 00000000 		.4byte	currentScreenContent
 2588 0dd8 31       		.uleb128 0x31
 2589 0dd9 B8040000 		.4byte	.LASF172
 2590 0ddd 01       		.byte	0x1
 2591 0dde 50       		.byte	0x50
 2592 0ddf D4060000 		.4byte	0x6d4
 2593 0de3 05       		.uleb128 0x5
 2594 0de4 03       		.byte	0x3
 2595 0de5 00000000 		.4byte	currentFrameBuffer
 2596 0de9 0A       		.uleb128 0xa
 2597 0dea 85050000 		.4byte	0x585
 2598 0dee 000E0000 		.4byte	0xe00
 2599 0df2 0B       		.uleb128 0xb
 2600 0df3 AB000000 		.4byte	0xab
 2601 0df7 01       		.byte	0x1
 2602 0df8 30       		.uleb128 0x30
 2603 0df9 AB000000 		.4byte	0xab
 2604 0dfd AF16     		.2byte	0x16af
 2605 0dff 00       		.byte	0
 2606 0e00 31       		.uleb128 0x31
 2607 0e01 F9000000 		.4byte	.LASF173
 2608 0e05 01       		.byte	0x1
 2609 0e06 54       		.byte	0x54
 2610 0e07 E90D0000 		.4byte	0xde9
 2611 0e0b 05       		.uleb128 0x5
 2612 0e0c 03       		.byte	0x3
 2613 0e0d 00000000 		.4byte	frameBuffer
 2614 0e11 31       		.uleb128 0x31
 2615 0e12 61040000 		.4byte	.LASF174
 2616 0e16 01       		.byte	0x1
 2617 0e17 57       		.byte	0x57
 2618 0e18 220E0000 		.4byte	0xe22
 2619 0e1c 05       		.uleb128 0x5
 2620 0e1d 03       		.byte	0x3
 2621 0e1e 00000000 		.4byte	currentFrame
 2622 0e22 06       		.uleb128 0x6
 2623 0e23 04       		.byte	0x4
 2624 0e24 85050000 		.4byte	0x585
ARM GAS  C:\Users\Agentos\AppData\Local\Temp\ccHiDLED.s 			page 74


 2625 0e28 31       		.uleb128 0x31
 2626 0e29 C7030000 		.4byte	.LASF175
 2627 0e2d 01       		.byte	0x1
 2628 0e2e 5A       		.byte	0x5a
 2629 0e2f 59060000 		.4byte	0x659
 2630 0e33 05       		.uleb128 0x5
 2631 0e34 03       		.byte	0x3
 2632 0e35 00000000 		.4byte	currentScreen
 2633 0e39 32       		.uleb128 0x32
 2634 0e3a DC000000 		.4byte	.LASF176
 2635 0e3e DC000000 		.4byte	.LASF176
 2636 0e42 14       		.byte	0x14
 2637 0e43 B702     		.2byte	0x2b7
 2638 0e45 33       		.uleb128 0x33
 2639 0e46 C9080000 		.4byte	.LASF177
 2640 0e4a C9080000 		.4byte	.LASF177
 2641 0e4e 0C       		.byte	0xc
 2642 0e4f 92       		.byte	0x92
 2643 0e50 33       		.uleb128 0x33
 2644 0e51 0B060000 		.4byte	.LASF178
 2645 0e55 0B060000 		.4byte	.LASF178
 2646 0e59 0C       		.byte	0xc
 2647 0e5a 88       		.byte	0x88
 2648 0e5b 33       		.uleb128 0x33
 2649 0e5c 6C000000 		.4byte	.LASF179
 2650 0e60 6C000000 		.4byte	.LASF179
 2651 0e64 0C       		.byte	0xc
 2652 0e65 8B       		.byte	0x8b
 2653 0e66 33       		.uleb128 0x33
 2654 0e67 24090000 		.4byte	.LASF180
 2655 0e6b 24090000 		.4byte	.LASF180
 2656 0e6f 15       		.byte	0x15
 2657 0e70 3A       		.byte	0x3a
 2658 0e71 33       		.uleb128 0x33
 2659 0e72 75070000 		.4byte	.LASF181
 2660 0e76 75070000 		.4byte	.LASF181
 2661 0e7a 15       		.byte	0x15
 2662 0e7b 3C       		.byte	0x3c
 2663 0e7c 33       		.uleb128 0x33
 2664 0e7d 31000000 		.4byte	.LASF182
 2665 0e81 31000000 		.4byte	.LASF182
 2666 0e85 0C       		.byte	0xc
 2667 0e86 83       		.byte	0x83
 2668 0e87 33       		.uleb128 0x33
 2669 0e88 8B0A0000 		.4byte	.LASF183
 2670 0e8c 8B0A0000 		.4byte	.LASF183
 2671 0e90 0C       		.byte	0xc
 2672 0e91 85       		.byte	0x85
 2673 0e92 33       		.uleb128 0x33
 2674 0e93 80090000 		.4byte	.LASF184
 2675 0e97 80090000 		.4byte	.LASF184
 2676 0e9b 0C       		.byte	0xc
 2677 0e9c 91       		.byte	0x91
 2678 0e9d 32       		.uleb128 0x32
 2679 0e9e 63010000 		.4byte	.LASF185
 2680 0ea2 63010000 		.4byte	.LASF185
 2681 0ea6 0F       		.byte	0xf
ARM GAS  C:\Users\Agentos\AppData\Local\Temp\ccHiDLED.s 			page 75


 2682 0ea7 F503     		.2byte	0x3f5
 2683 0ea9 00       		.byte	0
 2684              		.section	.debug_abbrev,"",%progbits
 2685              	.Ldebug_abbrev0:
 2686 0000 01       		.uleb128 0x1
 2687 0001 11       		.uleb128 0x11
 2688 0002 01       		.byte	0x1
 2689 0003 25       		.uleb128 0x25
 2690 0004 0E       		.uleb128 0xe
 2691 0005 13       		.uleb128 0x13
 2692 0006 0B       		.uleb128 0xb
 2693 0007 03       		.uleb128 0x3
 2694 0008 0E       		.uleb128 0xe
 2695 0009 1B       		.uleb128 0x1b
 2696 000a 0E       		.uleb128 0xe
 2697 000b 55       		.uleb128 0x55
 2698 000c 17       		.uleb128 0x17
 2699 000d 11       		.uleb128 0x11
 2700 000e 01       		.uleb128 0x1
 2701 000f 10       		.uleb128 0x10
 2702 0010 17       		.uleb128 0x17
 2703 0011 00       		.byte	0
 2704 0012 00       		.byte	0
 2705 0013 02       		.uleb128 0x2
 2706 0014 24       		.uleb128 0x24
 2707 0015 00       		.byte	0
 2708 0016 0B       		.uleb128 0xb
 2709 0017 0B       		.uleb128 0xb
 2710 0018 3E       		.uleb128 0x3e
 2711 0019 0B       		.uleb128 0xb
 2712 001a 03       		.uleb128 0x3
 2713 001b 0E       		.uleb128 0xe
 2714 001c 00       		.byte	0
 2715 001d 00       		.byte	0
 2716 001e 03       		.uleb128 0x3
 2717 001f 16       		.uleb128 0x16
 2718 0020 00       		.byte	0
 2719 0021 03       		.uleb128 0x3
 2720 0022 0E       		.uleb128 0xe
 2721 0023 3A       		.uleb128 0x3a
 2722 0024 0B       		.uleb128 0xb
 2723 0025 3B       		.uleb128 0x3b
 2724 0026 0B       		.uleb128 0xb
 2725 0027 49       		.uleb128 0x49
 2726 0028 13       		.uleb128 0x13
 2727 0029 00       		.byte	0
 2728 002a 00       		.byte	0
 2729 002b 04       		.uleb128 0x4
 2730 002c 24       		.uleb128 0x24
 2731 002d 00       		.byte	0
 2732 002e 0B       		.uleb128 0xb
 2733 002f 0B       		.uleb128 0xb
 2734 0030 3E       		.uleb128 0x3e
 2735 0031 0B       		.uleb128 0xb
 2736 0032 03       		.uleb128 0x3
 2737 0033 08       		.uleb128 0x8
 2738 0034 00       		.byte	0
ARM GAS  C:\Users\Agentos\AppData\Local\Temp\ccHiDLED.s 			page 76


 2739 0035 00       		.byte	0
 2740 0036 05       		.uleb128 0x5
 2741 0037 0F       		.uleb128 0xf
 2742 0038 00       		.byte	0
 2743 0039 0B       		.uleb128 0xb
 2744 003a 0B       		.uleb128 0xb
 2745 003b 00       		.byte	0
 2746 003c 00       		.byte	0
 2747 003d 06       		.uleb128 0x6
 2748 003e 0F       		.uleb128 0xf
 2749 003f 00       		.byte	0
 2750 0040 0B       		.uleb128 0xb
 2751 0041 0B       		.uleb128 0xb
 2752 0042 49       		.uleb128 0x49
 2753 0043 13       		.uleb128 0x13
 2754 0044 00       		.byte	0
 2755 0045 00       		.byte	0
 2756 0046 07       		.uleb128 0x7
 2757 0047 15       		.uleb128 0x15
 2758 0048 00       		.byte	0
 2759 0049 27       		.uleb128 0x27
 2760 004a 19       		.uleb128 0x19
 2761 004b 00       		.byte	0
 2762 004c 00       		.byte	0
 2763 004d 08       		.uleb128 0x8
 2764 004e 26       		.uleb128 0x26
 2765 004f 00       		.byte	0
 2766 0050 49       		.uleb128 0x49
 2767 0051 13       		.uleb128 0x13
 2768 0052 00       		.byte	0
 2769 0053 00       		.byte	0
 2770 0054 09       		.uleb128 0x9
 2771 0055 35       		.uleb128 0x35
 2772 0056 00       		.byte	0
 2773 0057 49       		.uleb128 0x49
 2774 0058 13       		.uleb128 0x13
 2775 0059 00       		.byte	0
 2776 005a 00       		.byte	0
 2777 005b 0A       		.uleb128 0xa
 2778 005c 01       		.uleb128 0x1
 2779 005d 01       		.byte	0x1
 2780 005e 49       		.uleb128 0x49
 2781 005f 13       		.uleb128 0x13
 2782 0060 01       		.uleb128 0x1
 2783 0061 13       		.uleb128 0x13
 2784 0062 00       		.byte	0
 2785 0063 00       		.byte	0
 2786 0064 0B       		.uleb128 0xb
 2787 0065 21       		.uleb128 0x21
 2788 0066 00       		.byte	0
 2789 0067 49       		.uleb128 0x49
 2790 0068 13       		.uleb128 0x13
 2791 0069 2F       		.uleb128 0x2f
 2792 006a 0B       		.uleb128 0xb
 2793 006b 00       		.byte	0
 2794 006c 00       		.byte	0
 2795 006d 0C       		.uleb128 0xc
ARM GAS  C:\Users\Agentos\AppData\Local\Temp\ccHiDLED.s 			page 77


 2796 006e 13       		.uleb128 0x13
 2797 006f 01       		.byte	0x1
 2798 0070 0B       		.uleb128 0xb
 2799 0071 0B       		.uleb128 0xb
 2800 0072 3A       		.uleb128 0x3a
 2801 0073 0B       		.uleb128 0xb
 2802 0074 3B       		.uleb128 0x3b
 2803 0075 0B       		.uleb128 0xb
 2804 0076 01       		.uleb128 0x1
 2805 0077 13       		.uleb128 0x13
 2806 0078 00       		.byte	0
 2807 0079 00       		.byte	0
 2808 007a 0D       		.uleb128 0xd
 2809 007b 0D       		.uleb128 0xd
 2810 007c 00       		.byte	0
 2811 007d 03       		.uleb128 0x3
 2812 007e 08       		.uleb128 0x8
 2813 007f 3A       		.uleb128 0x3a
 2814 0080 0B       		.uleb128 0xb
 2815 0081 3B       		.uleb128 0x3b
 2816 0082 0B       		.uleb128 0xb
 2817 0083 49       		.uleb128 0x49
 2818 0084 13       		.uleb128 0x13
 2819 0085 38       		.uleb128 0x38
 2820 0086 0B       		.uleb128 0xb
 2821 0087 00       		.byte	0
 2822 0088 00       		.byte	0
 2823 0089 0E       		.uleb128 0xe
 2824 008a 0D       		.uleb128 0xd
 2825 008b 00       		.byte	0
 2826 008c 03       		.uleb128 0x3
 2827 008d 0E       		.uleb128 0xe
 2828 008e 3A       		.uleb128 0x3a
 2829 008f 0B       		.uleb128 0xb
 2830 0090 3B       		.uleb128 0x3b
 2831 0091 0B       		.uleb128 0xb
 2832 0092 49       		.uleb128 0x49
 2833 0093 13       		.uleb128 0x13
 2834 0094 38       		.uleb128 0x38
 2835 0095 0B       		.uleb128 0xb
 2836 0096 00       		.byte	0
 2837 0097 00       		.byte	0
 2838 0098 0F       		.uleb128 0xf
 2839 0099 13       		.uleb128 0x13
 2840 009a 01       		.byte	0x1
 2841 009b 0B       		.uleb128 0xb
 2842 009c 05       		.uleb128 0x5
 2843 009d 3A       		.uleb128 0x3a
 2844 009e 0B       		.uleb128 0xb
 2845 009f 3B       		.uleb128 0x3b
 2846 00a0 0B       		.uleb128 0xb
 2847 00a1 01       		.uleb128 0x1
 2848 00a2 13       		.uleb128 0x13
 2849 00a3 00       		.byte	0
 2850 00a4 00       		.byte	0
 2851 00a5 10       		.uleb128 0x10
 2852 00a6 0D       		.uleb128 0xd
ARM GAS  C:\Users\Agentos\AppData\Local\Temp\ccHiDLED.s 			page 78


 2853 00a7 00       		.byte	0
 2854 00a8 03       		.uleb128 0x3
 2855 00a9 0E       		.uleb128 0xe
 2856 00aa 3A       		.uleb128 0x3a
 2857 00ab 0B       		.uleb128 0xb
 2858 00ac 3B       		.uleb128 0x3b
 2859 00ad 0B       		.uleb128 0xb
 2860 00ae 49       		.uleb128 0x49
 2861 00af 13       		.uleb128 0x13
 2862 00b0 38       		.uleb128 0x38
 2863 00b1 05       		.uleb128 0x5
 2864 00b2 00       		.byte	0
 2865 00b3 00       		.byte	0
 2866 00b4 11       		.uleb128 0x11
 2867 00b5 16       		.uleb128 0x16
 2868 00b6 00       		.byte	0
 2869 00b7 03       		.uleb128 0x3
 2870 00b8 0E       		.uleb128 0xe
 2871 00b9 3A       		.uleb128 0x3a
 2872 00ba 0B       		.uleb128 0xb
 2873 00bb 3B       		.uleb128 0x3b
 2874 00bc 05       		.uleb128 0x5
 2875 00bd 49       		.uleb128 0x49
 2876 00be 13       		.uleb128 0x13
 2877 00bf 00       		.byte	0
 2878 00c0 00       		.byte	0
 2879 00c1 12       		.uleb128 0x12
 2880 00c2 15       		.uleb128 0x15
 2881 00c3 01       		.byte	0x1
 2882 00c4 27       		.uleb128 0x27
 2883 00c5 19       		.uleb128 0x19
 2884 00c6 01       		.uleb128 0x1
 2885 00c7 13       		.uleb128 0x13
 2886 00c8 00       		.byte	0
 2887 00c9 00       		.byte	0
 2888 00ca 13       		.uleb128 0x13
 2889 00cb 05       		.uleb128 0x5
 2890 00cc 00       		.byte	0
 2891 00cd 49       		.uleb128 0x49
 2892 00ce 13       		.uleb128 0x13
 2893 00cf 00       		.byte	0
 2894 00d0 00       		.byte	0
 2895 00d1 14       		.uleb128 0x14
 2896 00d2 13       		.uleb128 0x13
 2897 00d3 01       		.byte	0x1
 2898 00d4 03       		.uleb128 0x3
 2899 00d5 0E       		.uleb128 0xe
 2900 00d6 0B       		.uleb128 0xb
 2901 00d7 0B       		.uleb128 0xb
 2902 00d8 3A       		.uleb128 0x3a
 2903 00d9 0B       		.uleb128 0xb
 2904 00da 3B       		.uleb128 0x3b
 2905 00db 05       		.uleb128 0x5
 2906 00dc 01       		.uleb128 0x1
 2907 00dd 13       		.uleb128 0x13
 2908 00de 00       		.byte	0
 2909 00df 00       		.byte	0
ARM GAS  C:\Users\Agentos\AppData\Local\Temp\ccHiDLED.s 			page 79


 2910 00e0 15       		.uleb128 0x15
 2911 00e1 0D       		.uleb128 0xd
 2912 00e2 00       		.byte	0
 2913 00e3 03       		.uleb128 0x3
 2914 00e4 0E       		.uleb128 0xe
 2915 00e5 3A       		.uleb128 0x3a
 2916 00e6 0B       		.uleb128 0xb
 2917 00e7 3B       		.uleb128 0x3b
 2918 00e8 05       		.uleb128 0x5
 2919 00e9 49       		.uleb128 0x49
 2920 00ea 13       		.uleb128 0x13
 2921 00eb 38       		.uleb128 0x38
 2922 00ec 0B       		.uleb128 0xb
 2923 00ed 00       		.byte	0
 2924 00ee 00       		.byte	0
 2925 00ef 16       		.uleb128 0x16
 2926 00f0 04       		.uleb128 0x4
 2927 00f1 01       		.byte	0x1
 2928 00f2 0B       		.uleb128 0xb
 2929 00f3 0B       		.uleb128 0xb
 2930 00f4 49       		.uleb128 0x49
 2931 00f5 13       		.uleb128 0x13
 2932 00f6 3A       		.uleb128 0x3a
 2933 00f7 0B       		.uleb128 0xb
 2934 00f8 3B       		.uleb128 0x3b
 2935 00f9 05       		.uleb128 0x5
 2936 00fa 01       		.uleb128 0x1
 2937 00fb 13       		.uleb128 0x13
 2938 00fc 00       		.byte	0
 2939 00fd 00       		.byte	0
 2940 00fe 17       		.uleb128 0x17
 2941 00ff 28       		.uleb128 0x28
 2942 0100 00       		.byte	0
 2943 0101 03       		.uleb128 0x3
 2944 0102 0E       		.uleb128 0xe
 2945 0103 1C       		.uleb128 0x1c
 2946 0104 0B       		.uleb128 0xb
 2947 0105 00       		.byte	0
 2948 0106 00       		.byte	0
 2949 0107 18       		.uleb128 0x18
 2950 0108 13       		.uleb128 0x13
 2951 0109 01       		.byte	0x1
 2952 010a 0B       		.uleb128 0xb
 2953 010b 0B       		.uleb128 0xb
 2954 010c 3A       		.uleb128 0x3a
 2955 010d 0B       		.uleb128 0xb
 2956 010e 3B       		.uleb128 0x3b
 2957 010f 05       		.uleb128 0x5
 2958 0110 01       		.uleb128 0x1
 2959 0111 13       		.uleb128 0x13
 2960 0112 00       		.byte	0
 2961 0113 00       		.byte	0
 2962 0114 19       		.uleb128 0x19
 2963 0115 04       		.uleb128 0x4
 2964 0116 01       		.byte	0x1
 2965 0117 0B       		.uleb128 0xb
 2966 0118 0B       		.uleb128 0xb
ARM GAS  C:\Users\Agentos\AppData\Local\Temp\ccHiDLED.s 			page 80


 2967 0119 49       		.uleb128 0x49
 2968 011a 13       		.uleb128 0x13
 2969 011b 3A       		.uleb128 0x3a
 2970 011c 0B       		.uleb128 0xb
 2971 011d 3B       		.uleb128 0x3b
 2972 011e 0B       		.uleb128 0xb
 2973 011f 01       		.uleb128 0x1
 2974 0120 13       		.uleb128 0x13
 2975 0121 00       		.byte	0
 2976 0122 00       		.byte	0
 2977 0123 1A       		.uleb128 0x1a
 2978 0124 2E       		.uleb128 0x2e
 2979 0125 01       		.byte	0x1
 2980 0126 03       		.uleb128 0x3
 2981 0127 0E       		.uleb128 0xe
 2982 0128 3A       		.uleb128 0x3a
 2983 0129 0B       		.uleb128 0xb
 2984 012a 3B       		.uleb128 0x3b
 2985 012b 05       		.uleb128 0x5
 2986 012c 27       		.uleb128 0x27
 2987 012d 19       		.uleb128 0x19
 2988 012e 20       		.uleb128 0x20
 2989 012f 0B       		.uleb128 0xb
 2990 0130 01       		.uleb128 0x1
 2991 0131 13       		.uleb128 0x13
 2992 0132 00       		.byte	0
 2993 0133 00       		.byte	0
 2994 0134 1B       		.uleb128 0x1b
 2995 0135 05       		.uleb128 0x5
 2996 0136 00       		.byte	0
 2997 0137 03       		.uleb128 0x3
 2998 0138 0E       		.uleb128 0xe
 2999 0139 3A       		.uleb128 0x3a
 3000 013a 0B       		.uleb128 0xb
 3001 013b 3B       		.uleb128 0x3b
 3002 013c 05       		.uleb128 0x5
 3003 013d 49       		.uleb128 0x49
 3004 013e 13       		.uleb128 0x13
 3005 013f 00       		.byte	0
 3006 0140 00       		.byte	0
 3007 0141 1C       		.uleb128 0x1c
 3008 0142 2E       		.uleb128 0x2e
 3009 0143 00       		.byte	0
 3010 0144 03       		.uleb128 0x3
 3011 0145 0E       		.uleb128 0xe
 3012 0146 3A       		.uleb128 0x3a
 3013 0147 0B       		.uleb128 0xb
 3014 0148 3B       		.uleb128 0x3b
 3015 0149 05       		.uleb128 0x5
 3016 014a 27       		.uleb128 0x27
 3017 014b 19       		.uleb128 0x19
 3018 014c 11       		.uleb128 0x11
 3019 014d 01       		.uleb128 0x1
 3020 014e 12       		.uleb128 0x12
 3021 014f 06       		.uleb128 0x6
 3022 0150 40       		.uleb128 0x40
 3023 0151 18       		.uleb128 0x18
ARM GAS  C:\Users\Agentos\AppData\Local\Temp\ccHiDLED.s 			page 81


 3024 0152 9742     		.uleb128 0x2117
 3025 0154 19       		.uleb128 0x19
 3026 0155 00       		.byte	0
 3027 0156 00       		.byte	0
 3028 0157 1D       		.uleb128 0x1d
 3029 0158 2E       		.uleb128 0x2e
 3030 0159 01       		.byte	0x1
 3031 015a 03       		.uleb128 0x3
 3032 015b 0E       		.uleb128 0xe
 3033 015c 3A       		.uleb128 0x3a
 3034 015d 0B       		.uleb128 0xb
 3035 015e 3B       		.uleb128 0x3b
 3036 015f 0B       		.uleb128 0xb
 3037 0160 27       		.uleb128 0x27
 3038 0161 19       		.uleb128 0x19
 3039 0162 11       		.uleb128 0x11
 3040 0163 01       		.uleb128 0x1
 3041 0164 12       		.uleb128 0x12
 3042 0165 06       		.uleb128 0x6
 3043 0166 40       		.uleb128 0x40
 3044 0167 18       		.uleb128 0x18
 3045 0168 9742     		.uleb128 0x2117
 3046 016a 19       		.uleb128 0x19
 3047 016b 01       		.uleb128 0x1
 3048 016c 13       		.uleb128 0x13
 3049 016d 00       		.byte	0
 3050 016e 00       		.byte	0
 3051 016f 1E       		.uleb128 0x1e
 3052 0170 05       		.uleb128 0x5
 3053 0171 00       		.byte	0
 3054 0172 03       		.uleb128 0x3
 3055 0173 0E       		.uleb128 0xe
 3056 0174 3A       		.uleb128 0x3a
 3057 0175 0B       		.uleb128 0xb
 3058 0176 3B       		.uleb128 0x3b
 3059 0177 0B       		.uleb128 0xb
 3060 0178 49       		.uleb128 0x49
 3061 0179 13       		.uleb128 0x13
 3062 017a 02       		.uleb128 0x2
 3063 017b 17       		.uleb128 0x17
 3064 017c 00       		.byte	0
 3065 017d 00       		.byte	0
 3066 017e 1F       		.uleb128 0x1f
 3067 017f 898201   		.uleb128 0x4109
 3068 0182 01       		.byte	0x1
 3069 0183 11       		.uleb128 0x11
 3070 0184 01       		.uleb128 0x1
 3071 0185 31       		.uleb128 0x31
 3072 0186 13       		.uleb128 0x13
 3073 0187 00       		.byte	0
 3074 0188 00       		.byte	0
 3075 0189 20       		.uleb128 0x20
 3076 018a 8A8201   		.uleb128 0x410a
 3077 018d 00       		.byte	0
 3078 018e 02       		.uleb128 0x2
 3079 018f 18       		.uleb128 0x18
 3080 0190 9142     		.uleb128 0x2111
ARM GAS  C:\Users\Agentos\AppData\Local\Temp\ccHiDLED.s 			page 82


 3081 0192 18       		.uleb128 0x18
 3082 0193 00       		.byte	0
 3083 0194 00       		.byte	0
 3084 0195 21       		.uleb128 0x21
 3085 0196 2E       		.uleb128 0x2e
 3086 0197 01       		.byte	0x1
 3087 0198 03       		.uleb128 0x3
 3088 0199 0E       		.uleb128 0xe
 3089 019a 3A       		.uleb128 0x3a
 3090 019b 0B       		.uleb128 0xb
 3091 019c 3B       		.uleb128 0x3b
 3092 019d 05       		.uleb128 0x5
 3093 019e 27       		.uleb128 0x27
 3094 019f 19       		.uleb128 0x19
 3095 01a0 11       		.uleb128 0x11
 3096 01a1 01       		.uleb128 0x1
 3097 01a2 12       		.uleb128 0x12
 3098 01a3 06       		.uleb128 0x6
 3099 01a4 40       		.uleb128 0x40
 3100 01a5 18       		.uleb128 0x18
 3101 01a6 9742     		.uleb128 0x2117
 3102 01a8 19       		.uleb128 0x19
 3103 01a9 01       		.uleb128 0x1
 3104 01aa 13       		.uleb128 0x13
 3105 01ab 00       		.byte	0
 3106 01ac 00       		.byte	0
 3107 01ad 22       		.uleb128 0x22
 3108 01ae 05       		.uleb128 0x5
 3109 01af 00       		.byte	0
 3110 01b0 03       		.uleb128 0x3
 3111 01b1 0E       		.uleb128 0xe
 3112 01b2 3A       		.uleb128 0x3a
 3113 01b3 0B       		.uleb128 0xb
 3114 01b4 3B       		.uleb128 0x3b
 3115 01b5 05       		.uleb128 0x5
 3116 01b6 49       		.uleb128 0x49
 3117 01b7 13       		.uleb128 0x13
 3118 01b8 02       		.uleb128 0x2
 3119 01b9 17       		.uleb128 0x17
 3120 01ba 00       		.byte	0
 3121 01bb 00       		.byte	0
 3122 01bc 23       		.uleb128 0x23
 3123 01bd 34       		.uleb128 0x34
 3124 01be 00       		.byte	0
 3125 01bf 03       		.uleb128 0x3
 3126 01c0 0E       		.uleb128 0xe
 3127 01c1 3A       		.uleb128 0x3a
 3128 01c2 0B       		.uleb128 0xb
 3129 01c3 3B       		.uleb128 0x3b
 3130 01c4 05       		.uleb128 0x5
 3131 01c5 49       		.uleb128 0x49
 3132 01c6 13       		.uleb128 0x13
 3133 01c7 02       		.uleb128 0x2
 3134 01c8 18       		.uleb128 0x18
 3135 01c9 00       		.byte	0
 3136 01ca 00       		.byte	0
 3137 01cb 24       		.uleb128 0x24
ARM GAS  C:\Users\Agentos\AppData\Local\Temp\ccHiDLED.s 			page 83


 3138 01cc 1D       		.uleb128 0x1d
 3139 01cd 01       		.byte	0x1
 3140 01ce 31       		.uleb128 0x31
 3141 01cf 13       		.uleb128 0x13
 3142 01d0 11       		.uleb128 0x11
 3143 01d1 01       		.uleb128 0x1
 3144 01d2 12       		.uleb128 0x12
 3145 01d3 06       		.uleb128 0x6
 3146 01d4 58       		.uleb128 0x58
 3147 01d5 0B       		.uleb128 0xb
 3148 01d6 59       		.uleb128 0x59
 3149 01d7 05       		.uleb128 0x5
 3150 01d8 01       		.uleb128 0x1
 3151 01d9 13       		.uleb128 0x13
 3152 01da 00       		.byte	0
 3153 01db 00       		.byte	0
 3154 01dc 25       		.uleb128 0x25
 3155 01dd 05       		.uleb128 0x5
 3156 01de 00       		.byte	0
 3157 01df 31       		.uleb128 0x31
 3158 01e0 13       		.uleb128 0x13
 3159 01e1 02       		.uleb128 0x2
 3160 01e2 17       		.uleb128 0x17
 3161 01e3 00       		.byte	0
 3162 01e4 00       		.byte	0
 3163 01e5 26       		.uleb128 0x26
 3164 01e6 898201   		.uleb128 0x4109
 3165 01e9 01       		.byte	0x1
 3166 01ea 11       		.uleb128 0x11
 3167 01eb 01       		.uleb128 0x1
 3168 01ec 31       		.uleb128 0x31
 3169 01ed 13       		.uleb128 0x13
 3170 01ee 01       		.uleb128 0x1
 3171 01ef 13       		.uleb128 0x13
 3172 01f0 00       		.byte	0
 3173 01f1 00       		.byte	0
 3174 01f2 27       		.uleb128 0x27
 3175 01f3 898201   		.uleb128 0x4109
 3176 01f6 00       		.byte	0
 3177 01f7 11       		.uleb128 0x11
 3178 01f8 01       		.uleb128 0x1
 3179 01f9 31       		.uleb128 0x31
 3180 01fa 13       		.uleb128 0x13
 3181 01fb 00       		.byte	0
 3182 01fc 00       		.byte	0
 3183 01fd 28       		.uleb128 0x28
 3184 01fe 34       		.uleb128 0x34
 3185 01ff 00       		.byte	0
 3186 0200 03       		.uleb128 0x3
 3187 0201 0E       		.uleb128 0xe
 3188 0202 3A       		.uleb128 0x3a
 3189 0203 0B       		.uleb128 0xb
 3190 0204 3B       		.uleb128 0x3b
 3191 0205 05       		.uleb128 0x5
 3192 0206 49       		.uleb128 0x49
 3193 0207 13       		.uleb128 0x13
 3194 0208 02       		.uleb128 0x2
ARM GAS  C:\Users\Agentos\AppData\Local\Temp\ccHiDLED.s 			page 84


 3195 0209 17       		.uleb128 0x17
 3196 020a 00       		.byte	0
 3197 020b 00       		.byte	0
 3198 020c 29       		.uleb128 0x29
 3199 020d 2E       		.uleb128 0x2e
 3200 020e 01       		.byte	0x1
 3201 020f 3F       		.uleb128 0x3f
 3202 0210 19       		.uleb128 0x19
 3203 0211 03       		.uleb128 0x3
 3204 0212 0E       		.uleb128 0xe
 3205 0213 3A       		.uleb128 0x3a
 3206 0214 0B       		.uleb128 0xb
 3207 0215 3B       		.uleb128 0x3b
 3208 0216 0B       		.uleb128 0xb
 3209 0217 27       		.uleb128 0x27
 3210 0218 19       		.uleb128 0x19
 3211 0219 8701     		.uleb128 0x87
 3212 021b 19       		.uleb128 0x19
 3213 021c 11       		.uleb128 0x11
 3214 021d 01       		.uleb128 0x1
 3215 021e 12       		.uleb128 0x12
 3216 021f 06       		.uleb128 0x6
 3217 0220 40       		.uleb128 0x40
 3218 0221 18       		.uleb128 0x18
 3219 0222 9642     		.uleb128 0x2116
 3220 0224 19       		.uleb128 0x19
 3221 0225 01       		.uleb128 0x1
 3222 0226 13       		.uleb128 0x13
 3223 0227 00       		.byte	0
 3224 0228 00       		.byte	0
 3225 0229 2A       		.uleb128 0x2a
 3226 022a 34       		.uleb128 0x34
 3227 022b 00       		.byte	0
 3228 022c 03       		.uleb128 0x3
 3229 022d 0E       		.uleb128 0xe
 3230 022e 3A       		.uleb128 0x3a
 3231 022f 0B       		.uleb128 0xb
 3232 0230 3B       		.uleb128 0x3b
 3233 0231 0B       		.uleb128 0xb
 3234 0232 49       		.uleb128 0x49
 3235 0233 13       		.uleb128 0x13
 3236 0234 02       		.uleb128 0x2
 3237 0235 17       		.uleb128 0x17
 3238 0236 00       		.byte	0
 3239 0237 00       		.byte	0
 3240 0238 2B       		.uleb128 0x2b
 3241 0239 34       		.uleb128 0x34
 3242 023a 00       		.byte	0
 3243 023b 03       		.uleb128 0x3
 3244 023c 0E       		.uleb128 0xe
 3245 023d 3A       		.uleb128 0x3a
 3246 023e 0B       		.uleb128 0xb
 3247 023f 3B       		.uleb128 0x3b
 3248 0240 0B       		.uleb128 0xb
 3249 0241 49       		.uleb128 0x49
 3250 0242 13       		.uleb128 0x13
 3251 0243 02       		.uleb128 0x2
ARM GAS  C:\Users\Agentos\AppData\Local\Temp\ccHiDLED.s 			page 85


 3252 0244 18       		.uleb128 0x18
 3253 0245 00       		.byte	0
 3254 0246 00       		.byte	0
 3255 0247 2C       		.uleb128 0x2c
 3256 0248 1D       		.uleb128 0x1d
 3257 0249 01       		.byte	0x1
 3258 024a 31       		.uleb128 0x31
 3259 024b 13       		.uleb128 0x13
 3260 024c 11       		.uleb128 0x11
 3261 024d 01       		.uleb128 0x1
 3262 024e 12       		.uleb128 0x12
 3263 024f 06       		.uleb128 0x6
 3264 0250 58       		.uleb128 0x58
 3265 0251 0B       		.uleb128 0xb
 3266 0252 59       		.uleb128 0x59
 3267 0253 0B       		.uleb128 0xb
 3268 0254 01       		.uleb128 0x1
 3269 0255 13       		.uleb128 0x13
 3270 0256 00       		.byte	0
 3271 0257 00       		.byte	0
 3272 0258 2D       		.uleb128 0x2d
 3273 0259 0B       		.uleb128 0xb
 3274 025a 01       		.byte	0x1
 3275 025b 11       		.uleb128 0x11
 3276 025c 01       		.uleb128 0x1
 3277 025d 12       		.uleb128 0x12
 3278 025e 06       		.uleb128 0x6
 3279 025f 01       		.uleb128 0x1
 3280 0260 13       		.uleb128 0x13
 3281 0261 00       		.byte	0
 3282 0262 00       		.byte	0
 3283 0263 2E       		.uleb128 0x2e
 3284 0264 34       		.uleb128 0x34
 3285 0265 00       		.byte	0
 3286 0266 03       		.uleb128 0x3
 3287 0267 0E       		.uleb128 0xe
 3288 0268 3A       		.uleb128 0x3a
 3289 0269 0B       		.uleb128 0xb
 3290 026a 3B       		.uleb128 0x3b
 3291 026b 05       		.uleb128 0x5
 3292 026c 49       		.uleb128 0x49
 3293 026d 13       		.uleb128 0x13
 3294 026e 3F       		.uleb128 0x3f
 3295 026f 19       		.uleb128 0x19
 3296 0270 3C       		.uleb128 0x3c
 3297 0271 19       		.uleb128 0x19
 3298 0272 00       		.byte	0
 3299 0273 00       		.byte	0
 3300 0274 2F       		.uleb128 0x2f
 3301 0275 34       		.uleb128 0x34
 3302 0276 00       		.byte	0
 3303 0277 03       		.uleb128 0x3
 3304 0278 0E       		.uleb128 0xe
 3305 0279 3A       		.uleb128 0x3a
 3306 027a 0B       		.uleb128 0xb
 3307 027b 3B       		.uleb128 0x3b
 3308 027c 0B       		.uleb128 0xb
ARM GAS  C:\Users\Agentos\AppData\Local\Temp\ccHiDLED.s 			page 86


 3309 027d 49       		.uleb128 0x49
 3310 027e 13       		.uleb128 0x13
 3311 027f 3F       		.uleb128 0x3f
 3312 0280 19       		.uleb128 0x19
 3313 0281 3C       		.uleb128 0x3c
 3314 0282 19       		.uleb128 0x19
 3315 0283 00       		.byte	0
 3316 0284 00       		.byte	0
 3317 0285 30       		.uleb128 0x30
 3318 0286 21       		.uleb128 0x21
 3319 0287 00       		.byte	0
 3320 0288 49       		.uleb128 0x49
 3321 0289 13       		.uleb128 0x13
 3322 028a 2F       		.uleb128 0x2f
 3323 028b 05       		.uleb128 0x5
 3324 028c 00       		.byte	0
 3325 028d 00       		.byte	0
 3326 028e 31       		.uleb128 0x31
 3327 028f 34       		.uleb128 0x34
 3328 0290 00       		.byte	0
 3329 0291 03       		.uleb128 0x3
 3330 0292 0E       		.uleb128 0xe
 3331 0293 3A       		.uleb128 0x3a
 3332 0294 0B       		.uleb128 0xb
 3333 0295 3B       		.uleb128 0x3b
 3334 0296 0B       		.uleb128 0xb
 3335 0297 49       		.uleb128 0x49
 3336 0298 13       		.uleb128 0x13
 3337 0299 3F       		.uleb128 0x3f
 3338 029a 19       		.uleb128 0x19
 3339 029b 02       		.uleb128 0x2
 3340 029c 18       		.uleb128 0x18
 3341 029d 00       		.byte	0
 3342 029e 00       		.byte	0
 3343 029f 32       		.uleb128 0x32
 3344 02a0 2E       		.uleb128 0x2e
 3345 02a1 00       		.byte	0
 3346 02a2 3F       		.uleb128 0x3f
 3347 02a3 19       		.uleb128 0x19
 3348 02a4 3C       		.uleb128 0x3c
 3349 02a5 19       		.uleb128 0x19
 3350 02a6 6E       		.uleb128 0x6e
 3351 02a7 0E       		.uleb128 0xe
 3352 02a8 03       		.uleb128 0x3
 3353 02a9 0E       		.uleb128 0xe
 3354 02aa 3A       		.uleb128 0x3a
 3355 02ab 0B       		.uleb128 0xb
 3356 02ac 3B       		.uleb128 0x3b
 3357 02ad 05       		.uleb128 0x5
 3358 02ae 00       		.byte	0
 3359 02af 00       		.byte	0
 3360 02b0 33       		.uleb128 0x33
 3361 02b1 2E       		.uleb128 0x2e
 3362 02b2 00       		.byte	0
 3363 02b3 3F       		.uleb128 0x3f
 3364 02b4 19       		.uleb128 0x19
 3365 02b5 3C       		.uleb128 0x3c
ARM GAS  C:\Users\Agentos\AppData\Local\Temp\ccHiDLED.s 			page 87


 3366 02b6 19       		.uleb128 0x19
 3367 02b7 6E       		.uleb128 0x6e
 3368 02b8 0E       		.uleb128 0xe
 3369 02b9 03       		.uleb128 0x3
 3370 02ba 0E       		.uleb128 0xe
 3371 02bb 3A       		.uleb128 0x3a
 3372 02bc 0B       		.uleb128 0xb
 3373 02bd 3B       		.uleb128 0x3b
 3374 02be 0B       		.uleb128 0xb
 3375 02bf 00       		.byte	0
 3376 02c0 00       		.byte	0
 3377 02c1 00       		.byte	0
 3378              		.section	.debug_loc,"",%progbits
 3379              	.Ldebug_loc0:
 3380              	.LLST0:
 3381 0000 00000000 		.4byte	.LVL0
 3382 0004 0A000000 		.4byte	.LVL1
 3383 0008 0100     		.2byte	0x1
 3384 000a 50       		.byte	0x50
 3385 000b 0A000000 		.4byte	.LVL1
 3386 000f 1C000000 		.4byte	.LFE518
 3387 0013 0400     		.2byte	0x4
 3388 0015 F3       		.byte	0xf3
 3389 0016 01       		.uleb128 0x1
 3390 0017 50       		.byte	0x50
 3391 0018 9F       		.byte	0x9f
 3392 0019 00000000 		.4byte	0
 3393 001d 00000000 		.4byte	0
 3394              	.LLST1:
 3395 0021 00000000 		.4byte	.LVL3
 3396 0025 1C000000 		.4byte	.LVL6
 3397 0029 0100     		.2byte	0x1
 3398 002b 50       		.byte	0x50
 3399 002c 1C000000 		.4byte	.LVL6
 3400 0030 1F000000 		.4byte	.LVL7-1
 3401 0034 0100     		.2byte	0x1
 3402 0036 51       		.byte	0x51
 3403 0037 1F000000 		.4byte	.LVL7-1
 3404 003b 34000000 		.4byte	.LVL8
 3405 003f 0100     		.2byte	0x1
 3406 0041 54       		.byte	0x54
 3407 0042 34000000 		.4byte	.LVL8
 3408 0046 3E000000 		.4byte	.LVL9
 3409 004a 0100     		.2byte	0x1
 3410 004c 50       		.byte	0x50
 3411 004d 3E000000 		.4byte	.LVL9
 3412 0051 4C000000 		.4byte	.LVL11
 3413 0055 0100     		.2byte	0x1
 3414 0057 54       		.byte	0x54
 3415 0058 4C000000 		.4byte	.LVL11
 3416 005c 54000000 		.4byte	.LVL12
 3417 0060 0100     		.2byte	0x1
 3418 0062 50       		.byte	0x50
 3419 0063 54000000 		.4byte	.LVL12
 3420 0067 6C000000 		.4byte	.LVL16
 3421 006b 0100     		.2byte	0x1
 3422 006d 54       		.byte	0x54
ARM GAS  C:\Users\Agentos\AppData\Local\Temp\ccHiDLED.s 			page 88


 3423 006e 6C000000 		.4byte	.LVL16
 3424 0072 78000000 		.4byte	.LFE528
 3425 0076 0400     		.2byte	0x4
 3426 0078 F3       		.byte	0xf3
 3427 0079 01       		.uleb128 0x1
 3428 007a 50       		.byte	0x50
 3429 007b 9F       		.byte	0x9f
 3430 007c 00000000 		.4byte	0
 3431 0080 00000000 		.4byte	0
 3432              	.LLST2:
 3433 0084 04000000 		.4byte	.LVL4
 3434 0088 0A000000 		.4byte	.LVL5
 3435 008c 0200     		.2byte	0x2
 3436 008e 30       		.byte	0x30
 3437 008f 9F       		.byte	0x9f
 3438 0090 00000000 		.4byte	0
 3439 0094 00000000 		.4byte	0
 3440              	.LLST3:
 3441 0098 04000000 		.4byte	.LVL4
 3442 009c 0A000000 		.4byte	.LVL5
 3443 00a0 0200     		.2byte	0x2
 3444 00a2 35       		.byte	0x35
 3445 00a3 9F       		.byte	0x9f
 3446 00a4 00000000 		.4byte	0
 3447 00a8 00000000 		.4byte	0
 3448              	.LLST4:
 3449 00ac 04000000 		.4byte	.LVL4
 3450 00b0 0A000000 		.4byte	.LVL5
 3451 00b4 0600     		.2byte	0x6
 3452 00b6 0C       		.byte	0xc
 3453 00b7 80003240 		.4byte	0x40320080
 3454 00bb 9F       		.byte	0x9f
 3455 00bc 00000000 		.4byte	0
 3456 00c0 00000000 		.4byte	0
 3457              	.LLST5:
 3458 00c4 64000000 		.4byte	.LVL14
 3459 00c8 6A000000 		.4byte	.LVL15
 3460 00cc 0200     		.2byte	0x2
 3461 00ce 31       		.byte	0x31
 3462 00cf 9F       		.byte	0x9f
 3463 00d0 00000000 		.4byte	0
 3464 00d4 00000000 		.4byte	0
 3465              	.LLST6:
 3466 00d8 64000000 		.4byte	.LVL14
 3467 00dc 6A000000 		.4byte	.LVL15
 3468 00e0 0200     		.2byte	0x2
 3469 00e2 35       		.byte	0x35
 3470 00e3 9F       		.byte	0x9f
 3471 00e4 00000000 		.4byte	0
 3472 00e8 00000000 		.4byte	0
 3473              	.LLST7:
 3474 00ec 64000000 		.4byte	.LVL14
 3475 00f0 6A000000 		.4byte	.LVL15
 3476 00f4 0600     		.2byte	0x6
 3477 00f6 0C       		.byte	0xc
 3478 00f7 80003240 		.4byte	0x40320080
 3479 00fb 9F       		.byte	0x9f
ARM GAS  C:\Users\Agentos\AppData\Local\Temp\ccHiDLED.s 			page 89


 3480 00fc 00000000 		.4byte	0
 3481 0100 00000000 		.4byte	0
 3482              	.LLST8:
 3483 0104 00000000 		.4byte	.LVL20
 3484 0108 0C000000 		.4byte	.LVL21
 3485 010c 0100     		.2byte	0x1
 3486 010e 50       		.byte	0x50
 3487 010f 0C000000 		.4byte	.LVL21
 3488 0113 4E000000 		.4byte	.LVL26
 3489 0117 0100     		.2byte	0x1
 3490 0119 54       		.byte	0x54
 3491 011a 4E000000 		.4byte	.LVL26
 3492 011e 60000000 		.4byte	.LFE527
 3493 0122 0400     		.2byte	0x4
 3494 0124 F3       		.byte	0xf3
 3495 0125 01       		.uleb128 0x1
 3496 0126 50       		.byte	0x50
 3497 0127 9F       		.byte	0x9f
 3498 0128 00000000 		.4byte	0
 3499 012c 00000000 		.4byte	0
 3500              	.LLST9:
 3501 0130 00000000 		.4byte	.LVL27
 3502 0134 18000000 		.4byte	.LVL30
 3503 0138 0100     		.2byte	0x1
 3504 013a 50       		.byte	0x50
 3505 013b 18000000 		.4byte	.LVL30
 3506 013f 70000000 		.4byte	.LVL36
 3507 0143 0100     		.2byte	0x1
 3508 0145 57       		.byte	0x57
 3509 0146 70000000 		.4byte	.LVL36
 3510 014a 84000000 		.4byte	.LFE529
 3511 014e 0400     		.2byte	0x4
 3512 0150 F3       		.byte	0xf3
 3513 0151 01       		.uleb128 0x1
 3514 0152 50       		.byte	0x50
 3515 0153 9F       		.byte	0x9f
 3516 0154 00000000 		.4byte	0
 3517 0158 00000000 		.4byte	0
 3518              	.LLST10:
 3519 015c 00000000 		.4byte	.LVL27
 3520 0160 1B000000 		.4byte	.LVL31-1
 3521 0164 0100     		.2byte	0x1
 3522 0166 51       		.byte	0x51
 3523 0167 1B000000 		.4byte	.LVL31-1
 3524 016b 84000000 		.4byte	.LFE529
 3525 016f 0400     		.2byte	0x4
 3526 0171 F3       		.byte	0xf3
 3527 0172 01       		.uleb128 0x1
 3528 0173 51       		.byte	0x51
 3529 0174 9F       		.byte	0x9f
 3530 0175 00000000 		.4byte	0
 3531 0179 00000000 		.4byte	0
 3532              	.LLST11:
 3533 017d 10000000 		.4byte	.LVL28
 3534 0181 16000000 		.4byte	.LVL29
 3535 0185 0200     		.2byte	0x2
 3536 0187 30       		.byte	0x30
ARM GAS  C:\Users\Agentos\AppData\Local\Temp\ccHiDLED.s 			page 90


 3537 0188 9F       		.byte	0x9f
 3538 0189 00000000 		.4byte	0
 3539 018d 00000000 		.4byte	0
 3540              	.LLST12:
 3541 0191 10000000 		.4byte	.LVL28
 3542 0195 16000000 		.4byte	.LVL29
 3543 0199 0200     		.2byte	0x2
 3544 019b 35       		.byte	0x35
 3545 019c 9F       		.byte	0x9f
 3546 019d 00000000 		.4byte	0
 3547 01a1 00000000 		.4byte	0
 3548              	.LLST13:
 3549 01a5 10000000 		.4byte	.LVL28
 3550 01a9 16000000 		.4byte	.LVL29
 3551 01ad 0600     		.2byte	0x6
 3552 01af 0C       		.byte	0xc
 3553 01b0 80003240 		.4byte	0x40320080
 3554 01b4 9F       		.byte	0x9f
 3555 01b5 00000000 		.4byte	0
 3556 01b9 00000000 		.4byte	0
 3557              	.LLST14:
 3558 01bd 66000000 		.4byte	.LVL34
 3559 01c1 6C000000 		.4byte	.LVL35
 3560 01c5 0200     		.2byte	0x2
 3561 01c7 31       		.byte	0x31
 3562 01c8 9F       		.byte	0x9f
 3563 01c9 00000000 		.4byte	0
 3564 01cd 00000000 		.4byte	0
 3565              	.LLST15:
 3566 01d1 66000000 		.4byte	.LVL34
 3567 01d5 6C000000 		.4byte	.LVL35
 3568 01d9 0200     		.2byte	0x2
 3569 01db 35       		.byte	0x35
 3570 01dc 9F       		.byte	0x9f
 3571 01dd 00000000 		.4byte	0
 3572 01e1 00000000 		.4byte	0
 3573              	.LLST16:
 3574 01e5 66000000 		.4byte	.LVL34
 3575 01e9 6C000000 		.4byte	.LVL35
 3576 01ed 0600     		.2byte	0x6
 3577 01ef 0C       		.byte	0xc
 3578 01f0 80003240 		.4byte	0x40320080
 3579 01f4 9F       		.byte	0x9f
 3580 01f5 00000000 		.4byte	0
 3581 01f9 00000000 		.4byte	0
 3582              	.LLST17:
 3583 01fd 2E000000 		.4byte	.LVL37
 3584 0201 41000000 		.4byte	.LVL38-1
 3585 0205 0100     		.2byte	0x1
 3586 0207 53       		.byte	0x53
 3587 0208 00000000 		.4byte	0
 3588 020c 00000000 		.4byte	0
 3589              	.LLST18:
 3590 0210 2C000000 		.4byte	.LVL39
 3591 0214 3F000000 		.4byte	.LVL40-1
 3592 0218 0100     		.2byte	0x1
 3593 021a 53       		.byte	0x53
ARM GAS  C:\Users\Agentos\AppData\Local\Temp\ccHiDLED.s 			page 91


 3594 021b 00000000 		.4byte	0
 3595 021f 00000000 		.4byte	0
 3596              	.LLST19:
 3597 0223 18000000 		.4byte	.LVL41
 3598 0227 2B000000 		.4byte	.LVL42-1
 3599 022b 0100     		.2byte	0x1
 3600 022d 53       		.byte	0x53
 3601 022e 00000000 		.4byte	0
 3602 0232 00000000 		.4byte	0
 3603              	.LLST20:
 3604 0236 00000000 		.4byte	.LVL43
 3605 023a 07000000 		.4byte	.LVL45-1
 3606 023e 0100     		.2byte	0x1
 3607 0240 50       		.byte	0x50
 3608 0241 07000000 		.4byte	.LVL45-1
 3609 0245 98000000 		.4byte	.LFE519
 3610 0249 0400     		.2byte	0x4
 3611 024b F3       		.byte	0xf3
 3612 024c 01       		.uleb128 0x1
 3613 024d 50       		.byte	0x50
 3614 024e 9F       		.byte	0x9f
 3615 024f 00000000 		.4byte	0
 3616 0253 00000000 		.4byte	0
 3617              	.LLST21:
 3618 0257 04000000 		.4byte	.LVL44
 3619 025b 2A000000 		.4byte	.LVL49
 3620 025f 0200     		.2byte	0x2
 3621 0261 31       		.byte	0x31
 3622 0262 9F       		.byte	0x9f
 3623 0263 2A000000 		.4byte	.LVL49
 3624 0267 32000000 		.4byte	.LVL51
 3625 026b 0100     		.2byte	0x1
 3626 026d 50       		.byte	0x50
 3627 026e 00000000 		.4byte	0
 3628 0272 00000000 		.4byte	0
 3629              	.LLST22:
 3630 0276 60000000 		.4byte	.LVL56
 3631 027a 79000000 		.4byte	.LVL57-1
 3632 027e 0100     		.2byte	0x1
 3633 0280 50       		.byte	0x50
 3634 0281 00000000 		.4byte	0
 3635 0285 00000000 		.4byte	0
 3636              	.LLST23:
 3637 0289 18000000 		.4byte	.LVL47
 3638 028d 32000000 		.4byte	.LVL51
 3639 0291 0200     		.2byte	0x2
 3640 0293 91       		.byte	0x91
 3641 0294 6C       		.sleb128 -20
 3642 0295 00000000 		.4byte	0
 3643 0299 00000000 		.4byte	0
 3644              	.LLST24:
 3645 029d 2C000000 		.4byte	.LVL50
 3646 02a1 32000000 		.4byte	.LVL51
 3647 02a5 0200     		.2byte	0x2
 3648 02a7 30       		.byte	0x30
 3649 02a8 9F       		.byte	0x9f
 3650 02a9 00000000 		.4byte	0
ARM GAS  C:\Users\Agentos\AppData\Local\Temp\ccHiDLED.s 			page 92


 3651 02ad 00000000 		.4byte	0
 3652              	.LLST25:
 3653 02b1 2C000000 		.4byte	.LVL50
 3654 02b5 32000000 		.4byte	.LVL51
 3655 02b9 0200     		.2byte	0x2
 3656 02bb 37       		.byte	0x37
 3657 02bc 9F       		.byte	0x9f
 3658 02bd 00000000 		.4byte	0
 3659 02c1 00000000 		.4byte	0
 3660              	.LLST26:
 3661 02c5 2C000000 		.4byte	.LVL50
 3662 02c9 32000000 		.4byte	.LVL51
 3663 02cd 0600     		.2byte	0x6
 3664 02cf 0C       		.byte	0xc
 3665 02d0 80063240 		.4byte	0x40320680
 3666 02d4 9F       		.byte	0x9f
 3667 02d5 00000000 		.4byte	0
 3668 02d9 00000000 		.4byte	0
 3669              		.section	.debug_aranges,"",%progbits
 3670 0000 74000000 		.4byte	0x74
 3671 0004 0200     		.2byte	0x2
 3672 0006 00000000 		.4byte	.Ldebug_info0
 3673 000a 04       		.byte	0x4
 3674 000b 00       		.byte	0
 3675 000c 0000     		.2byte	0
 3676 000e 0000     		.2byte	0
 3677 0010 00000000 		.4byte	.LFB520
 3678 0014 02000000 		.4byte	.LFE520-.LFB520
 3679 0018 00000000 		.4byte	.LFB518
 3680 001c 1C000000 		.4byte	.LFE518-.LFB518
 3681 0020 00000000 		.4byte	.LFB528
 3682 0024 78000000 		.4byte	.LFE528-.LFB528
 3683 0028 00000000 		.4byte	.LFB522
 3684 002c 24000000 		.4byte	.LFE522-.LFB522
 3685 0030 00000000 		.4byte	.LFB524
 3686 0034 34000000 		.4byte	.LFE524-.LFB524
 3687 0038 00000000 		.4byte	.LFB523
 3688 003c 34000000 		.4byte	.LFE523-.LFB523
 3689 0040 00000000 		.4byte	.LFB527
 3690 0044 60000000 		.4byte	.LFE527-.LFB527
 3691 0048 00000000 		.4byte	.LFB529
 3692 004c 84000000 		.4byte	.LFE529-.LFB529
 3693 0050 00000000 		.4byte	.LFB526
 3694 0054 58000000 		.4byte	.LFE526-.LFB526
 3695 0058 00000000 		.4byte	.LFB525
 3696 005c 58000000 		.4byte	.LFE525-.LFB525
 3697 0060 00000000 		.4byte	.LFB521
 3698 0064 40000000 		.4byte	.LFE521-.LFB521
 3699 0068 00000000 		.4byte	.LFB519
 3700 006c 98000000 		.4byte	.LFE519-.LFB519
 3701 0070 00000000 		.4byte	0
 3702 0074 00000000 		.4byte	0
 3703              		.section	.debug_ranges,"",%progbits
 3704              	.Ldebug_ranges0:
 3705 0000 00000000 		.4byte	.LFB520
 3706 0004 02000000 		.4byte	.LFE520
 3707 0008 00000000 		.4byte	.LFB518
ARM GAS  C:\Users\Agentos\AppData\Local\Temp\ccHiDLED.s 			page 93


 3708 000c 1C000000 		.4byte	.LFE518
 3709 0010 00000000 		.4byte	.LFB528
 3710 0014 78000000 		.4byte	.LFE528
 3711 0018 00000000 		.4byte	.LFB522
 3712 001c 24000000 		.4byte	.LFE522
 3713 0020 00000000 		.4byte	.LFB524
 3714 0024 34000000 		.4byte	.LFE524
 3715 0028 00000000 		.4byte	.LFB523
 3716 002c 34000000 		.4byte	.LFE523
 3717 0030 00000000 		.4byte	.LFB527
 3718 0034 60000000 		.4byte	.LFE527
 3719 0038 00000000 		.4byte	.LFB529
 3720 003c 84000000 		.4byte	.LFE529
 3721 0040 00000000 		.4byte	.LFB526
 3722 0044 58000000 		.4byte	.LFE526
 3723 0048 00000000 		.4byte	.LFB525
 3724 004c 58000000 		.4byte	.LFE525
 3725 0050 00000000 		.4byte	.LFB521
 3726 0054 40000000 		.4byte	.LFE521
 3727 0058 00000000 		.4byte	.LFB519
 3728 005c 98000000 		.4byte	.LFE519
 3729 0060 00000000 		.4byte	0
 3730 0064 00000000 		.4byte	0
 3731              		.section	.debug_line,"",%progbits
 3732              	.Ldebug_line0:
 3733 0000 68050000 		.section	.debug_str,"MS",%progbits,1
 3733      02002504 
 3733      00000201 
 3733      FB0E0D00 
 3733      01010101 
 3734              	.LASF169:
 3735 0000 6D61696E 		.ascii	"mainMenuImage\000"
 3735      4D656E75 
 3735      496D6167 
 3735      6500
 3736              	.LASF92:
 3737 000e 794F6666 		.ascii	"yOffset\000"
 3737      73657400 
 3738              	.LASF151:
 3739 0016 63757272 		.ascii	"currentPageIndex\000"
 3739      656E7450 
 3739      61676549 
 3739      6E646578 
 3739      00
 3740              	.LASF55:
 3741 0027 72784275 		.ascii	"rxBufSize\000"
 3741      6653697A 
 3741      6500
 3742              	.LASF182:
 3743 0031 43795F45 		.ascii	"Cy_EINK_Start\000"
 3743      494E4B5F 
 3743      53746172 
 3743      7400
 3744              	.LASF140:
 3745 003f 4D6F7665 		.ascii	"MoveArrowUp\000"
 3745      4172726F 
 3745      77557000 
ARM GAS  C:\Users\Agentos\AppData\Local\Temp\ccHiDLED.s 			page 94


 3746              	.LASF77:
 3747 004b 73617449 		.ascii	"satIntrMask\000"
 3747      6E74724D 
 3747      61736B00 
 3748              	.LASF167:
 3749 0057 6C6F676F 		.ascii	"logo\000"
 3749      00
 3750              	.LASF122:
 3751 005c 42555454 		.ascii	"BUTTON0_TOUCHED\000"
 3751      4F4E305F 
 3751      544F5543 
 3751      48454400 
 3752              	.LASF179:
 3753 006c 43795F45 		.ascii	"Cy_EINK_TextToFrameBuffer\000"
 3753      494E4B5F 
 3753      54657874 
 3753      546F4672 
 3753      616D6542 
 3754              	.LASF4:
 3755 0086 5F5F7569 		.ascii	"__uint8_t\000"
 3755      6E74385F 
 3755      7400
 3756              	.LASF188:
 3757 0090 433A5C55 		.ascii	"C:\\Users\\Agentos\\Documents\\PSoC Creator\\lab11\\"
 3757      73657273 
 3757      5C416765 
 3757      6E746F73 
 3757      5C446F63 
 3758 00be 6C616231 		.ascii	"lab11.cydsn\000"
 3758      312E6379 
 3758      64736E00 
 3759              	.LASF108:
 3760 00ca 4D41494E 		.ascii	"MAIN_MENU_CONTENT\000"
 3760      5F4D454E 
 3760      555F434F 
 3760      4E54454E 
 3760      5400
 3761              	.LASF176:
 3762 00dc 76546173 		.ascii	"vTaskDelay\000"
 3762      6B44656C 
 3762      617900
 3763              	.LASF109:
 3764 00e7 54455854 		.ascii	"TEXT_PAGE_CONTENT\000"
 3764      5F504147 
 3764      455F434F 
 3764      4E54454E 
 3764      5400
 3765              	.LASF173:
 3766 00f9 6672616D 		.ascii	"frameBuffer\000"
 3766      65427566 
 3766      66657200 
 3767              	.LASF162:
 3768 0105 4144435F 		.ascii	"ADC_currentConfig\000"
 3768      63757272 
 3768      656E7443 
 3768      6F6E6669 
 3768      6700
ARM GAS  C:\Users\Agentos\AppData\Local\Temp\ccHiDLED.s 			page 95


 3769              	.LASF0:
 3770 0117 6C6F6E67 		.ascii	"long long unsigned int\000"
 3770      206C6F6E 
 3770      6720756E 
 3770      7369676E 
 3770      65642069 
 3771              	.LASF30:
 3772 012e 4346475F 		.ascii	"CFG_IN\000"
 3772      494E00
 3773              	.LASF121:
 3774 0135 51756575 		.ascii	"QueueHandle_t\000"
 3774      6548616E 
 3774      646C655F 
 3774      7400
 3775              	.LASF57:
 3776 0143 74784275 		.ascii	"txBuf\000"
 3776      6600
 3777              	.LASF90:
 3778 0149 666F6E74 		.ascii	"fontData\000"
 3778      44617461 
 3778      00
 3779              	.LASF111:
 3780 0152 73637265 		.ascii	"screen_content_t\000"
 3780      656E5F63 
 3780      6F6E7465 
 3780      6E745F74 
 3780      00
 3781              	.LASF185:
 3782 0163 78517565 		.ascii	"xQueueGenericReceive\000"
 3782      75654765 
 3782      6E657269 
 3782      63526563 
 3782      65697665 
 3783              	.LASF117:
 3784 0178 74657874 		.ascii	"textPage\000"
 3784      50616765 
 3784      00
 3785              	.LASF83:
 3786 0181 63795F73 		.ascii	"cy_stc_sar_config_t\000"
 3786      74635F73 
 3786      61725F63 
 3786      6F6E6669 
 3786      675F7400 
 3787              	.LASF13:
 3788 0195 6C6F6E67 		.ascii	"long long int\000"
 3788      206C6F6E 
 3788      6720696E 
 3788      7400
 3789              	.LASF2:
 3790 01a3 7369676E 		.ascii	"signed char\000"
 3790      65642063 
 3790      68617200 
 3791              	.LASF189:
 3792 01af 63795F73 		.ascii	"cy_stc_scb_spi_context\000"
 3792      74635F73 
 3792      63625F73 
 3792      70695F63 
ARM GAS  C:\Users\Agentos\AppData\Local\Temp\ccHiDLED.s 			page 96


 3792      6F6E7465 
 3793              	.LASF114:
 3794 01c6 73637265 		.ascii	"screen_type_t\000"
 3794      656E5F74 
 3794      7970655F 
 3794      7400
 3795              	.LASF67:
 3796 01d4 63795F65 		.ascii	"cy_en_sar_range_detect_condition_t\000"
 3796      6E5F7361 
 3796      725F7261 
 3796      6E67655F 
 3796      64657465 
 3797              	.LASF88:
 3798 01f7 636C6B44 		.ascii	"clkDivider\000"
 3798      69766964 
 3798      657200
 3799              	.LASF190:
 3800 0202 43795F47 		.ascii	"Cy_GPIO_Write\000"
 3800      50494F5F 
 3800      57726974 
 3800      6500
 3801              	.LASF52:
 3802 0210 63795F63 		.ascii	"cy_cb_scb_spi_handle_events_t\000"
 3802      625F7363 
 3802      625F7370 
 3802      695F6861 
 3802      6E646C65 
 3803              	.LASF112:
 3804 022e 4D41494E 		.ascii	"MAIN_MENU\000"
 3804      5F4D454E 
 3804      5500
 3805              	.LASF63:
 3806 0238 43595F53 		.ascii	"CY_SAR_RANGE_COND_BELOW\000"
 3806      41525F52 
 3806      414E4745 
 3806      5F434F4E 
 3806      445F4245 
 3807              	.LASF123:
 3808 0250 42555454 		.ascii	"BUTTON1_TOUCHED\000"
 3808      4F4E315F 
 3808      544F5543 
 3808      48454400 
 3809              	.LASF10:
 3810 0260 6C6F6E67 		.ascii	"long int\000"
 3810      20696E74 
 3810      00
 3811              	.LASF159:
 3812 0269 53637265 		.ascii	"ScreenUpdatePointer\000"
 3812      656E5570 
 3812      64617465 
 3812      506F696E 
 3812      74657200 
 3813              	.LASF145:
 3814 027d 66697273 		.ascii	"firstTime\000"
 3814      7454696D 
 3814      6500
 3815              	.LASF128:
ARM GAS  C:\Users\Agentos\AppData\Local\Temp\ccHiDLED.s 			page 97


 3816 0287 42554646 		.ascii	"BUFFER0\000"
 3816      45523000 
 3817              	.LASF129:
 3818 028f 42554646 		.ascii	"BUFFER1\000"
 3818      45523100 
 3819              	.LASF157:
 3820 0297 616D6269 		.ascii	"ambientTemperature\000"
 3820      656E7454 
 3820      656D7065 
 3820      72617475 
 3820      726500
 3821              	.LASF50:
 3822 02aa 75696E74 		.ascii	"uint8\000"
 3822      3800
 3823              	.LASF65:
 3824 02b0 43595F53 		.ascii	"CY_SAR_RANGE_COND_ABOVE\000"
 3824      41525F52 
 3824      414E4745 
 3824      5F434F4E 
 3824      445F4142 
 3825              	.LASF19:
 3826 02c8 75696E74 		.ascii	"uint16_t\000"
 3826      31365F74 
 3826      00
 3827              	.LASF49:
 3828 02d1 646F7562 		.ascii	"double\000"
 3828      6C6500
 3829              	.LASF168:
 3830 02d8 74657874 		.ascii	"textPageBackground\000"
 3830      50616765 
 3830      4261636B 
 3830      67726F75 
 3830      6E6400
 3831              	.LASF119:
 3832 02eb 42617365 		.ascii	"BaseType_t\000"
 3832      54797065 
 3832      5F7400
 3833              	.LASF89:
 3834 02f6 4144435F 		.ascii	"ADC_CONFIG_STRUCT\000"
 3834      434F4E46 
 3834      49475F53 
 3834      54525543 
 3834      5400
 3835              	.LASF7:
 3836 0308 5F5F7569 		.ascii	"__uint16_t\000"
 3836      6E743136 
 3836      5F7400
 3837              	.LASF70:
 3838 0313 73616D70 		.ascii	"sampleTime01\000"
 3838      6C655469 
 3838      6D653031 
 3838      00
 3839              	.LASF138:
 3840 0320 4261636B 		.ascii	"BackToMainMenu\000"
 3840      546F4D61 
 3840      696E4D65 
 3840      6E7500
ARM GAS  C:\Users\Agentos\AppData\Local\Temp\ccHiDLED.s 			page 98


 3841              	.LASF11:
 3842 032f 5F5F7569 		.ascii	"__uint32_t\000"
 3842      6E743332 
 3842      5F7400
 3843              	.LASF153:
 3844 033a 476F546F 		.ascii	"GoToTextPage\000"
 3844      54657874 
 3844      50616765 
 3844      00
 3845              	.LASF86:
 3846 0347 6877436F 		.ascii	"hwConfigStc\000"
 3846      6E666967 
 3846      53746300 
 3847              	.LASF136:
 3848 0353 64656C61 		.ascii	"delayInMs\000"
 3848      79496E4D 
 3848      7300
 3849              	.LASF103:
 3850 035d 43595F45 		.ascii	"CY_EINK_FULL_4STAGE\000"
 3850      494E4B5F 
 3850      46554C4C 
 3850      5F345354 
 3850      41474500 
 3851              	.LASF107:
 3852 0371 63795F65 		.ascii	"cy_eink_api_result\000"
 3852      696E6B5F 
 3852      6170695F 
 3852      72657375 
 3852      6C7400
 3853              	.LASF110:
 3854 0384 53544152 		.ascii	"STARTUP_CONTENT\000"
 3854      5455505F 
 3854      434F4E54 
 3854      454E5400 
 3855              	.LASF102:
 3856 0394 43595F45 		.ascii	"CY_EINK_PARTIAL\000"
 3856      494E4B5F 
 3856      50415254 
 3856      49414C00 
 3857              	.LASF93:
 3858 03a4 7853697A 		.ascii	"xSize\000"
 3858      6500
 3859              	.LASF133:
 3860 03aa 76616C75 		.ascii	"value\000"
 3860      6500
 3861              	.LASF58:
 3862 03b0 74784275 		.ascii	"txBufSize\000"
 3862      6653697A 
 3862      6500
 3863              	.LASF1:
 3864 03ba 756E7369 		.ascii	"unsigned int\000"
 3864      676E6564 
 3864      20696E74 
 3864      00
 3865              	.LASF175:
 3866 03c7 63757272 		.ascii	"currentScreen\000"
 3866      656E7453 
ARM GAS  C:\Users\Agentos\AppData\Local\Temp\ccHiDLED.s 			page 99


 3866      63726565 
 3866      6E00
 3867              	.LASF135:
 3868 03d5 44697370 		.ascii	"DisplayImage\000"
 3868      6C617949 
 3868      6D616765 
 3868      00
 3869              	.LASF47:
 3870 03e2 63686172 		.ascii	"char_t\000"
 3870      5F7400
 3871              	.LASF142:
 3872 03e9 73746172 		.ascii	"startupScreenCounter\000"
 3872      74757053 
 3872      63726565 
 3872      6E436F75 
 3872      6E746572 
 3873              	.LASF12:
 3874 03fe 6C6F6E67 		.ascii	"long unsigned int\000"
 3874      20756E73 
 3874      69676E65 
 3874      6420696E 
 3874      7400
 3875              	.LASF166:
 3876 0410 74657874 		.ascii	"textPageIndex\000"
 3876      50616765 
 3876      496E6465 
 3876      7800
 3877              	.LASF154:
 3878 041e 70765061 		.ascii	"pvParameters\000"
 3878      72616D65 
 3878      74657273 
 3878      00
 3879              	.LASF26:
 3880 042b 494E5452 		.ascii	"INTR_MASK\000"
 3880      5F4D4153 
 3880      4B00
 3881              	.LASF98:
 3882 0435 63795F65 		.ascii	"cy_eink_font_t\000"
 3882      696E6B5F 
 3882      666F6E74 
 3882      5F7400
 3883              	.LASF44:
 3884 0444 5644445F 		.ascii	"VDD_INTR_MASKED\000"
 3884      494E5452 
 3884      5F4D4153 
 3884      4B454400 
 3885              	.LASF45:
 3886 0454 5644445F 		.ascii	"VDD_INTR_SET\000"
 3886      494E5452 
 3886      5F534554 
 3886      00
 3887              	.LASF174:
 3888 0461 63757272 		.ascii	"currentFrame\000"
 3888      656E7446 
 3888      72616D65 
 3888      00
 3889              	.LASF8:
ARM GAS  C:\Users\Agentos\AppData\Local\Temp\ccHiDLED.s 			page 100


 3890 046e 73686F72 		.ascii	"short unsigned int\000"
 3890      7420756E 
 3890      7369676E 
 3890      65642069 
 3890      6E7400
 3891              	.LASF27:
 3892 0481 494E5452 		.ascii	"INTR_MASKED\000"
 3892      5F4D4153 
 3892      4B454400 
 3893              	.LASF152:
 3894 048d 50726576 		.ascii	"PreviousTextPage\000"
 3894      696F7573 
 3894      54657874 
 3894      50616765 
 3894      00
 3895              	.LASF96:
 3896 049e 79537061 		.ascii	"ySpan\000"
 3896      6E00
 3897              	.LASF72:
 3898 04a4 72616E67 		.ascii	"rangeThres\000"
 3898      65546872 
 3898      657300
 3899              	.LASF60:
 3900 04af 63624576 		.ascii	"cbEvents\000"
 3900      656E7473 
 3900      00
 3901              	.LASF172:
 3902 04b8 63757272 		.ascii	"currentFrameBuffer\000"
 3902      656E7446 
 3902      72616D65 
 3902      42756666 
 3902      657200
 3903              	.LASF104:
 3904 04cb 43595F45 		.ascii	"CY_EINK_FULL_2STAGE\000"
 3904      494E4B5F 
 3904      46554C4C 
 3904      5F325354 
 3904      41474500 
 3905              	.LASF106:
 3906 04df 43595F45 		.ascii	"CY_EINK_FAILURE\000"
 3906      494E4B5F 
 3906      4641494C 
 3906      55524500 
 3907              	.LASF100:
 3908 04ef 63795F65 		.ascii	"cy_eink_frame_t\000"
 3908      696E6B5F 
 3908      6672616D 
 3908      655F7400 
 3909              	.LASF85:
 3910 04ff 6E756D43 		.ascii	"numChannels\000"
 3910      68616E6E 
 3910      656C7300 
 3911              	.LASF143:
 3912 050b 63726F70 		.ascii	"cropTop\000"
 3912      546F7000 
 3913              	.LASF62:
 3914 0513 63795F73 		.ascii	"cy_stc_scb_spi_context_t\000"
ARM GAS  C:\Users\Agentos\AppData\Local\Temp\ccHiDLED.s 			page 101


 3914      74635F73 
 3914      63625F73 
 3914      70695F63 
 3914      6F6E7465 
 3915              	.LASF9:
 3916 052c 5F5F696E 		.ascii	"__int32_t\000"
 3916      7433325F 
 3916      7400
 3917              	.LASF164:
 3918 0536 63795F65 		.ascii	"cy_eink_font8By12_blackInWhite\000"
 3918      696E6B5F 
 3918      666F6E74 
 3918      38427931 
 3918      325F626C 
 3919              	.LASF97:
 3920 0555 636F6C6F 		.ascii	"color\000"
 3920      7200
 3921              	.LASF75:
 3922 055b 6368616E 		.ascii	"chanConfig\000"
 3922      436F6E66 
 3922      696700
 3923              	.LASF29:
 3924 0566 494E5452 		.ascii	"INTR_CFG\000"
 3924      5F434647 
 3924      00
 3925              	.LASF28:
 3926 056f 494E5452 		.ascii	"INTR_SET\000"
 3926      5F534554 
 3926      00
 3927              	.LASF131:
 3928 0578 62617365 		.ascii	"base\000"
 3928      00
 3929              	.LASF41:
 3930 057d 5644445F 		.ascii	"VDD_ACTIVE\000"
 3930      41435449 
 3930      564500
 3931              	.LASF91:
 3932 0588 784F6666 		.ascii	"xOffset\000"
 3932      73657400 
 3933              	.LASF165:
 3934 0590 6D617854 		.ascii	"maxTextPageIndexes\000"
 3934      65787450 
 3934      61676549 
 3934      6E646578 
 3934      657300
 3935              	.LASF20:
 3936 05a3 696E7433 		.ascii	"int32_t\000"
 3936      325F7400 
 3937              	.LASF15:
 3938 05ab 73697A65 		.ascii	"sizetype\000"
 3938      74797065 
 3938      00
 3939              	.LASF71:
 3940 05b4 73616D70 		.ascii	"sampleTime23\000"
 3940      6C655469 
 3940      6D653233 
 3940      00
ARM GAS  C:\Users\Agentos\AppData\Local\Temp\ccHiDLED.s 			page 102


 3941              	.LASF120:
 3942 05c1 5469636B 		.ascii	"TickType_t\000"
 3942      54797065 
 3942      5F7400
 3943              	.LASF141:
 3944 05cc 496E6974 		.ascii	"InitializeFrameBuffers\000"
 3944      69616C69 
 3944      7A654672 
 3944      616D6542 
 3944      75666665 
 3945              	.LASF81:
 3946 05e3 636F6E66 		.ascii	"configRouting\000"
 3946      6967526F 
 3946      7574696E 
 3946      6700
 3947              	.LASF25:
 3948 05f1 494E5452 		.ascii	"INTR\000"
 3948      00
 3949              	.LASF99:
 3950 05f6 70765F65 		.ascii	"pv_eink_frame_data_t\000"
 3950      696E6B5F 
 3950      6672616D 
 3950      655F6461 
 3950      74615F74 
 3951              	.LASF178:
 3952 060b 43795F45 		.ascii	"Cy_EINK_ImageToFrameBuffer\000"
 3952      494E4B5F 
 3952      496D6167 
 3952      65546F46 
 3952      72616D65 
 3953              	.LASF126:
 3954 0626 4E4F5F54 		.ascii	"NO_TOUCH\000"
 3954      4F554348 
 3954      00
 3955              	.LASF78:
 3956 062f 72616E67 		.ascii	"rangeIntrMask\000"
 3956      65496E74 
 3956      724D6173 
 3956      6B00
 3957              	.LASF186:
 3958 063d 474E5520 		.ascii	"GNU C11 5.4.1 20160609 (release) [ARM/embedded-5-br"
 3958      43313120 
 3958      352E342E 
 3958      31203230 
 3958      31363036 
 3959 0670 616E6368 		.ascii	"anch revision 237715] -mcpu=cortex-m4 -mfloat-abi=s"
 3959      20726576 
 3959      6973696F 
 3959      6E203233 
 3959      37373135 
 3960 06a3 6F667466 		.ascii	"oftfp -mfpu=fpv4-sp-d16 -mthumb -g -Og -ffunction-s"
 3960      70202D6D 
 3960      6670753D 
 3960      66707634 
 3960      2D73702D 
 3961 06d6 65637469 		.ascii	"ections -ffat-lto-objects\000"
 3961      6F6E7320 
ARM GAS  C:\Users\Agentos\AppData\Local\Temp\ccHiDLED.s 			page 103


 3961      2D666661 
 3961      742D6C74 
 3961      6F2D6F62 
 3962              	.LASF22:
 3963 06f0 4F55545F 		.ascii	"OUT_CLR\000"
 3963      434C5200 
 3964              	.LASF48:
 3965 06f8 666C6F61 		.ascii	"float\000"
 3965      7400
 3966              	.LASF34:
 3967 06fe 4346475F 		.ascii	"CFG_IN_GPIO5V\000"
 3967      494E5F47 
 3967      50494F35 
 3967      5600
 3968              	.LASF32:
 3969 070c 4346475F 		.ascii	"CFG_SIO\000"
 3969      53494F00 
 3970              	.LASF35:
 3971 0714 52455345 		.ascii	"RESERVED1\000"
 3971      52564544 
 3971      3100
 3972              	.LASF192:
 3973 071e 5461736B 		.ascii	"Task_Display\000"
 3973      5F446973 
 3973      706C6179 
 3973      00
 3974              	.LASF74:
 3975 072b 6368616E 		.ascii	"chanEn\000"
 3975      456E00
 3976              	.LASF64:
 3977 0732 43595F53 		.ascii	"CY_SAR_RANGE_COND_INSIDE\000"
 3977      41525F52 
 3977      414E4745 
 3977      5F434F4E 
 3977      445F494E 
 3978              	.LASF51:
 3979 074b 5F426F6F 		.ascii	"_Bool\000"
 3979      6C00
 3980              	.LASF3:
 3981 0751 5F5F696E 		.ascii	"__int8_t\000"
 3981      74385F74 
 3981      00
 3982              	.LASF5:
 3983 075a 756E7369 		.ascii	"unsigned char\000"
 3983      676E6564 
 3983      20636861 
 3983      7200
 3984              	.LASF160:
 3985 0768 49544D5F 		.ascii	"ITM_RxBuffer\000"
 3985      52784275 
 3985      66666572 
 3985      00
 3986              	.LASF181:
 3987 0775 47657454 		.ascii	"GetTemperature\000"
 3987      656D7065 
 3987      72617475 
 3987      726500
ARM GAS  C:\Users\Agentos\AppData\Local\Temp\ccHiDLED.s 			page 104


 3988              	.LASF6:
 3989 0784 73686F72 		.ascii	"short int\000"
 3989      7420696E 
 3989      7400
 3990              	.LASF79:
 3991 078e 6D757853 		.ascii	"muxSwitch\000"
 3991      77697463 
 3991      6800
 3992              	.LASF76:
 3993 0798 696E7472 		.ascii	"intrMask\000"
 3993      4D61736B 
 3993      00
 3994              	.LASF33:
 3995 07a1 52455345 		.ascii	"RESERVED\000"
 3995      52564544 
 3995      00
 3996              	.LASF53:
 3997 07aa 73746174 		.ascii	"status\000"
 3997      757300
 3998              	.LASF171:
 3999 07b1 63757272 		.ascii	"currentScreenContent\000"
 3999      656E7453 
 3999      63726565 
 3999      6E436F6E 
 3999      74656E74 
 4000              	.LASF134:
 4001 07c6 44656C61 		.ascii	"DelayMs\000"
 4001      794D7300 
 4002              	.LASF42:
 4003 07ce 5644445F 		.ascii	"VDD_INTR\000"
 4003      494E5452 
 4003      00
 4004              	.LASF116:
 4005 07d7 6D656E75 		.ascii	"menuItem\000"
 4005      4974656D 
 4005      00
 4006              	.LASF59:
 4007 07e0 74784275 		.ascii	"txBufIdx\000"
 4007      66496478 
 4007      00
 4008              	.LASF155:
 4009 07e9 64697370 		.ascii	"displayDetected\000"
 4009      6C617944 
 4009      65746563 
 4009      74656400 
 4010              	.LASF127:
 4011 07f9 746F7563 		.ascii	"touch_data_t\000"
 4011      685F6461 
 4011      74615F74 
 4011      00
 4012              	.LASF132:
 4013 0806 70696E4E 		.ascii	"pinNum\000"
 4013      756D00
 4014              	.LASF101:
 4015 080d 63795F65 		.ascii	"cy_eink_image_t\000"
 4015      696E6B5F 
 4015      696D6167 
ARM GAS  C:\Users\Agentos\AppData\Local\Temp\ccHiDLED.s 			page 105


 4015      655F7400 
 4016              	.LASF21:
 4017 081d 75696E74 		.ascii	"uint32_t\000"
 4017      33325F74 
 4017      00
 4018              	.LASF149:
 4019 0826 74657874 		.ascii	"textOrigin\000"
 4019      4F726967 
 4019      696E00
 4020              	.LASF146:
 4021 0831 44697370 		.ascii	"DisplayImageAndText\000"
 4021      6C617949 
 4021      6D616765 
 4021      416E6454 
 4021      65787400 
 4022              	.LASF170:
 4023 0845 746F7563 		.ascii	"touchDataQ\000"
 4023      68446174 
 4023      615100
 4024              	.LASF14:
 4025 0850 6C6F6E67 		.ascii	"long double\000"
 4025      20646F75 
 4025      626C6500 
 4026              	.LASF16:
 4027 085c 63686172 		.ascii	"char\000"
 4027      00
 4028              	.LASF37:
 4029 0861 494E5452 		.ascii	"INTR_CAUSE0\000"
 4029      5F434155 
 4029      53453000 
 4030              	.LASF38:
 4031 086d 494E5452 		.ascii	"INTR_CAUSE1\000"
 4031      5F434155 
 4031      53453100 
 4032              	.LASF39:
 4033 0879 494E5452 		.ascii	"INTR_CAUSE2\000"
 4033      5F434155 
 4033      53453200 
 4034              	.LASF40:
 4035 0885 494E5452 		.ascii	"INTR_CAUSE3\000"
 4035      5F434155 
 4035      53453300 
 4036              	.LASF147:
 4037 0891 74657874 		.ascii	"text\000"
 4037      00
 4038              	.LASF163:
 4039 0896 4144435F 		.ascii	"ADC_allConfigs\000"
 4039      616C6C43 
 4039      6F6E6669 
 4039      677300
 4040              	.LASF95:
 4041 08a5 78537061 		.ascii	"xSpan\000"
 4041      6E00
 4042              	.LASF36:
 4043 08ab 4750494F 		.ascii	"GPIO_PRT_Type\000"
 4043      5F505254 
 4043      5F547970 
ARM GAS  C:\Users\Agentos\AppData\Local\Temp\ccHiDLED.s 			page 106


 4043      6500
 4044              	.LASF24:
 4045 08b9 4F55545F 		.ascii	"OUT_INV\000"
 4045      494E5600 
 4046              	.LASF23:
 4047 08c1 4F55545F 		.ascii	"OUT_SET\000"
 4047      53455400 
 4048              	.LASF177:
 4049 08c9 43795F45 		.ascii	"Cy_EINK_ShowFrame\000"
 4049      494E4B5F 
 4049      53686F77 
 4049      4672616D 
 4049      6500
 4050              	.LASF46:
 4051 08db 4750494F 		.ascii	"GPIO_Type\000"
 4051      5F547970 
 4051      6500
 4052              	.LASF43:
 4053 08e5 5644445F 		.ascii	"VDD_INTR_MASK\000"
 4053      494E5452 
 4053      5F4D4153 
 4053      4B00
 4054              	.LASF68:
 4055 08f3 6374726C 		.ascii	"ctrl\000"
 4055      00
 4056              	.LASF144:
 4057 08f8 63726F70 		.ascii	"cropBottom\000"
 4057      426F7474 
 4057      6F6D00
 4058              	.LASF87:
 4059 0903 6D697363 		.ascii	"miscConfig\000"
 4059      436F6E66 
 4059      696700
 4060              	.LASF56:
 4061 090e 72784275 		.ascii	"rxBufIdx\000"
 4061      66496478 
 4061      00
 4062              	.LASF150:
 4063 0917 4E657874 		.ascii	"NextTextPage\000"
 4063      54657874 
 4063      50616765 
 4063      00
 4064              	.LASF180:
 4065 0924 496E6974 		.ascii	"InitTemperature\000"
 4065      54656D70 
 4065      65726174 
 4065      75726500 
 4066              	.LASF148:
 4067 0934 6261636B 		.ascii	"backgroundImage\000"
 4067      67726F75 
 4067      6E64496D 
 4067      61676500 
 4068              	.LASF130:
 4069 0944 6672616D 		.ascii	"frame_buffers_t\000"
 4069      655F6275 
 4069      66666572 
 4069      735F7400 
ARM GAS  C:\Users\Agentos\AppData\Local\Temp\ccHiDLED.s 			page 107


 4070              	.LASF17:
 4071 0954 696E7438 		.ascii	"int8_t\000"
 4071      5F7400
 4072              	.LASF61:
 4073 095b 696E6974 		.ascii	"initKey\000"
 4073      4B657900 
 4074              	.LASF54:
 4075 0963 72784275 		.ascii	"rxBuf\000"
 4075      6600
 4076              	.LASF137:
 4077 0969 696D6167 		.ascii	"imagePointer\000"
 4077      65506F69 
 4077      6E746572 
 4077      00
 4078              	.LASF73:
 4079 0976 72616E67 		.ascii	"rangeCond\000"
 4079      65436F6E 
 4079      6400
 4080              	.LASF184:
 4081 0980 43795F45 		.ascii	"Cy_EINK_Clear\000"
 4081      494E4B5F 
 4081      436C6561 
 4081      7200
 4082              	.LASF161:
 4083 098e 43595F45 		.ascii	"CY_EINK_SPIM_context\000"
 4083      494E4B5F 
 4083      5350494D 
 4083      5F636F6E 
 4083      74657874 
 4084              	.LASF158:
 4085 09a3 746F7563 		.ascii	"touchInput\000"
 4085      68496E70 
 4085      757400
 4086              	.LASF113:
 4087 09ae 54455854 		.ascii	"TEXT_PAGE\000"
 4087      5F504147 
 4087      4500
 4088              	.LASF139:
 4089 09b8 4D6F7665 		.ascii	"MoveArrowDown\000"
 4089      4172726F 
 4089      77446F77 
 4089      6E00
 4090              	.LASF69:
 4091 09c6 73616D70 		.ascii	"sampleCtrl\000"
 4091      6C654374 
 4091      726C00
 4092              	.LASF18:
 4093 09d1 75696E74 		.ascii	"uint8_t\000"
 4093      385F7400 
 4094              	.LASF191:
 4095 09d9 4E6F5363 		.ascii	"NoScreenChange\000"
 4095      7265656E 
 4095      4368616E 
 4095      676500
 4096              	.LASF115:
 4097 09e8 73637265 		.ascii	"screen\000"
 4097      656E00
ARM GAS  C:\Users\Agentos\AppData\Local\Temp\ccHiDLED.s 			page 108


 4098              	.LASF31:
 4099 09ef 4346475F 		.ascii	"CFG_OUT\000"
 4099      4F555400 
 4100              	.LASF156:
 4101 09f7 72746F73 		.ascii	"rtosApiResult\000"
 4101      41706952 
 4101      6573756C 
 4101      7400
 4102              	.LASF66:
 4103 0a05 43595F53 		.ascii	"CY_SAR_RANGE_COND_OUTSIDE\000"
 4103      41525F52 
 4103      414E4745 
 4103      5F434F4E 
 4103      445F4F55 
 4104              	.LASF94:
 4105 0a1f 7953697A 		.ascii	"ySize\000"
 4105      6500
 4106              	.LASF105:
 4107 0a25 43595F45 		.ascii	"CY_EINK_SUCCESS\000"
 4107      494E4B5F 
 4107      53554343 
 4107      45535300 
 4108              	.LASF84:
 4109 0a35 6368616E 		.ascii	"channelBase\000"
 4109      6E656C42 
 4109      61736500 
 4110              	.LASF124:
 4111 0a41 534C4944 		.ascii	"SLIDER_FLICK_LEFT\000"
 4111      45525F46 
 4111      4C49434B 
 4111      5F4C4546 
 4111      5400
 4112              	.LASF80:
 4113 0a53 6D757853 		.ascii	"muxSwitchSqCtrl\000"
 4113      77697463 
 4113      68537143 
 4113      74726C00 
 4114              	.LASF125:
 4115 0a63 534C4944 		.ascii	"SLIDER_FLICK_RIGHT\000"
 4115      45525F46 
 4115      4C49434B 
 4115      5F524947 
 4115      485400
 4116              	.LASF118:
 4117 0a76 73637265 		.ascii	"screen_t\000"
 4117      656E5F74 
 4117      00
 4118              	.LASF82:
 4119 0a7f 76726566 		.ascii	"vrefMvValue\000"
 4119      4D765661 
 4119      6C756500 
 4120              	.LASF183:
 4121 0a8b 43795F45 		.ascii	"Cy_EINK_Power\000"
 4121      494E4B5F 
 4121      506F7765 
 4121      7200
 4122              	.LASF187:
ARM GAS  C:\Users\Agentos\AppData\Local\Temp\ccHiDLED.s 			page 109


 4123 0a99 64697370 		.ascii	"display_task.c\000"
 4123      6C61795F 
 4123      7461736B 
 4123      2E6300
 4124              		.ident	"GCC: (GNU Tools for ARM Embedded Processors) 5.4.1 20160609 (release) [ARM/embedded-5-bran
