ARM GAS  C:\Users\Agentos\AppData\Local\Temp\ccHiDLED.s 			page 1


   1              		.syntax unified
   2              		.cpu cortex-m4
   3              		.eabi_attribute 27, 1
   4              		.fpu fpv4-sp-d16
   5              		.eabi_attribute 20, 1
   6              		.eabi_attribute 21, 1
   7              		.eabi_attribute 23, 3
   8              		.eabi_attribute 24, 1
   9              		.eabi_attribute 25, 1
  10              		.eabi_attribute 26, 1
  11              		.eabi_attribute 30, 1
  12              		.eabi_attribute 34, 1
  13              		.eabi_attribute 18, 4
  14              		.thumb
  15              		.syntax unified
  16              		.file	"display_task.c"
  17              		.text
  18              	.Ltext0:
  19              		.cfi_sections	.debug_frame
  20              		.section	.text.NoScreenChange,"ax",%progbits
  21              		.align	2
  22              		.thumb
  23              		.thumb_func
  24              		.type	NoScreenChange, %function
  25              	NoScreenChange:
  26              	.LFB520:
  27              		.file 1 "display_task.c"
   1:display_task.c **** /******************************************************************************
   2:display_task.c **** * File Name: display_task.c
   3:display_task.c **** *
   4:display_task.c **** * Version: 1.00
   5:display_task.c **** *
   6:display_task.c **** * Description: This file contains the task that shows an interactive menu and
   7:display_task.c **** *              text pages based on the commands recieved
   8:display_task.c **** *
   9:display_task.c **** * Related Document: CE218136_EINK_CapSense_RTOS.pdf
  10:display_task.c **** *
  11:display_task.c **** * Hardware Dependency: CY8CKIT-062-BLE PSoC 6 BLE Pioneer Kit
  12:display_task.c **** *                      CY8CKIT-028-EPD E-INK Display Shield
  13:display_task.c **** *
  14:display_task.c **** ******************************************************************************
  15:display_task.c **** * Copyright (2017), Cypress Semiconductor Corporation.
  16:display_task.c **** ******************************************************************************
  17:display_task.c **** * This software, including source code, documentation and related materials
  18:display_task.c **** * ("Software") is owned by Cypress Semiconductor Corporation (Cypress) and is
  19:display_task.c **** * protected by and subject to worldwide patent protection (United States and 
  20:display_task.c **** * foreign), United States copyright laws and international treaty provisions. 
  21:display_task.c **** * Cypress hereby grants to licensee a personal, non-exclusive, non-transferable
  22:display_task.c **** * license to copy, use, modify, create derivative works of, and compile the 
  23:display_task.c **** * Cypress source code and derivative works for the sole purpose of creating 
  24:display_task.c **** * custom software in support of licensee product, such licensee product to be
  25:display_task.c **** * used only in conjunction with Cypress's integrated circuit as specified in the
  26:display_task.c **** * applicable agreement. Any reproduction, modification, translation, compilation,
  27:display_task.c **** * or representation of this Software except as specified above is prohibited 
  28:display_task.c **** * without the express written permission of Cypress.
  29:display_task.c **** * 
  30:display_task.c **** * Disclaimer: THIS SOFTWARE IS PROVIDED AS-IS, WITH NO WARRANTY OF ANY KIND, 
ARM GAS  C:\Users\Agentos\AppData\Local\Temp\ccHiDLED.s 			page 2


  31:display_task.c **** * EXPRESS OR IMPLIED, INCLUDING, BUT NOT LIMITED TO, NONINFRINGEMENT, IMPLIED 
  32:display_task.c **** * WARRANTIES OF MERCHANTABILITY AND FITNESS FOR A PARTICULAR PURPOSE.
  33:display_task.c **** * Cypress reserves the right to make changes to the Software without notice. 
  34:display_task.c **** * Cypress does not assume any liability arising out of the application or use
  35:display_task.c **** * of Software or any product or circuit described in the Software. Cypress does
  36:display_task.c **** * not authorize its products for use as critical components in any products 
  37:display_task.c **** * where a malfunction or failure may reasonably be expected to result in 
  38:display_task.c **** * significant injury or death ("ACTIVE Risk Product"). By including Cypress's 
  39:display_task.c **** * product in a ACTIVE Risk Product, the manufacturer of such system or application
  40:display_task.c **** * assumes all risk of such use and in doing so indemnifies Cypress against all
  41:display_task.c **** * liability. Use of this Software may be limited by and subject to the applicable
  42:display_task.c **** * Cypress software license agreement.
  43:display_task.c **** *****************************************************************************/
  44:display_task.c **** /*******************************************************************************
  45:display_task.c **** * This file contains the task that shows an interactive menu and text pages 
  46:display_task.c **** * based on the commands recieved
  47:display_task.c **** *
  48:display_task.c **** * For the details of the E-INK display and library functions, see the code 
  49:display_task.c **** * example CE218133 - PSoC 6 MCU E-INK Display with CapSense
  50:display_task.c **** *******************************************************************************/
  51:display_task.c **** 
  52:display_task.c **** /* Header file includes */
  53:display_task.c **** #include "cy_eink_library.h"
  54:display_task.c **** #include "display_task.h"
  55:display_task.c **** #include "screen_contents.h"
  56:display_task.c **** #include "menu_configuration.h"
  57:display_task.c **** #include "touch_task.h"
  58:display_task.c **** #include "temperature_eink.h"
  59:display_task.c **** #include "uart_debug.h"
  60:display_task.c **** #include "FreeRTOS.h"
  61:display_task.c **** #include "task.h"
  62:display_task.c **** #include "queue.h"
  63:display_task.c **** 
  64:display_task.c **** /* Two frame buffers are used in this project since the E-INK display requires
  65:display_task.c ****    the storage of the previous as well as the current frame. See Appendix A
  66:display_task.c ****    of the code example document for the details of frame buffers */
  67:display_task.c **** #define NUMBER_OF_FRAME_BUFFERS     (uint8_t) (2u)
  68:display_task.c **** 
  69:display_task.c **** /* Enumerated data type used to identify the frame buffers */
  70:display_task.c **** typedef enum
  71:display_task.c **** {
  72:display_task.c ****     BUFFER0 = 0x00,
  73:display_task.c ****     BUFFER1 = 0x01
  74:display_task.c **** }   frame_buffers_t;
  75:display_task.c **** 
  76:display_task.c **** /* Variable that stores the current screen content being displayed */
  77:display_task.c **** screen_content_t    currentScreenContent = STARTUP_CONTENT;
  78:display_task.c **** 
  79:display_task.c **** /* Variable that stores the current frame buffer being used */
  80:display_task.c **** frame_buffers_t     currentFrameBuffer   = BUFFER0;
  81:display_task.c **** 
  82:display_task.c **** /* Frame buffers used by the display update functions. See Appendix A of the 
  83:display_task.c ****    code example document for details of frame buffers */
  84:display_task.c **** cy_eink_frame_t     frameBuffer[NUMBER_OF_FRAME_BUFFERS][CY_EINK_FRAME_SIZE];
  85:display_task.c **** 
  86:display_task.c **** /* Variable that stores the pointer to the current frame being displayed */
  87:display_task.c **** cy_eink_frame_t*    currentFrame = CY_EINK_WHITE_FRAME;
ARM GAS  C:\Users\Agentos\AppData\Local\Temp\ccHiDLED.s 			page 3


  88:display_task.c **** 
  89:display_task.c **** /* Variable that stores the details of the current screen */
  90:display_task.c **** screen_t  currentScreen =
  91:display_task.c **** {
  92:display_task.c ****     .screen     = MAIN_MENU,
  93:display_task.c ****     .menuItem   = MAIN_MENU_INDEX_START,
  94:display_task.c ****     .textPage   = TEXT_PAGE_INDEX_START
  95:display_task.c **** };
  96:display_task.c **** 
  97:display_task.c **** /*  These static functions are not available outside this file. 
  98:display_task.c ****     See the respective function definitions for more details */
  99:display_task.c **** void static NoScreenChange(void);
 100:display_task.c **** void static MoveArrowUp(void);
 101:display_task.c **** void static MoveArrowDown(void);
 102:display_task.c **** void static GoToTextPage(void);
 103:display_task.c **** void static BackToMainMenu(void);
 104:display_task.c **** void static PreviousTextPage(void);
 105:display_task.c **** void static NextTextPage(void);
 106:display_task.c **** void static InitializeFrameBuffers(cy_eink_image_t* imagePointer);
 107:display_task.c **** void static DisplayImage(cy_eink_image_t* imagePointer);
 108:display_task.c **** void static DisplayImageAndText(char* text, cy_eink_image_t* backgroundImage);
 109:display_task.c **** 
 110:display_task.c **** /* Function used to register the E-INK delay call back */
 111:display_task.c **** void static DelayMs(uint32_t delayInMs)  {vTaskDelay(pdMS_TO_TICKS(delayInMs));}
 112:display_task.c **** 
 113:display_task.c **** /*******************************************************************************
 114:display_task.c **** * Function Name: void Task_Display (void *pvParameters)
 115:display_task.c **** ********************************************************************************
 116:display_task.c **** * Summary:
 117:display_task.c **** *  Task that processes the touch command recieved and the updates the display 
 118:display_task.c **** *  with the corresponding menu / text page
 119:display_task.c **** *
 120:display_task.c **** * Parameters:
 121:display_task.c **** *  void *pvParameters : Task parameter defined during task creation (unused)                       
 122:display_task.c **** *
 123:display_task.c **** * Return:
 124:display_task.c **** *  void
 125:display_task.c **** *
 126:display_task.c **** *******************************************************************************/
 127:display_task.c **** void Task_Display (void *pvParameters)
 128:display_task.c **** {  
 129:display_task.c ****     /* Flag that indicates if the E-INK display has been detected */
 130:display_task.c ****     cy_eink_api_result displayDetected = CY_EINK_FAILURE;
 131:display_task.c ****     
 132:display_task.c ****     /* Variable used to store the return values of RTOS APIs */
 133:display_task.c ****     BaseType_t rtosApiResult;
 134:display_task.c ****     
 135:display_task.c ****     /* Local variable that stores the value of ambient temperature */
 136:display_task.c ****     int8_t ambientTemperature;
 137:display_task.c ****     
 138:display_task.c ****     touch_data_t touchInput;
 139:display_task.c **** 
 140:display_task.c ****     /* Remove warning for unused parameter */
 141:display_task.c ****     (void)pvParameters ;
 142:display_task.c ****     
 143:display_task.c ****     /* Initialize the components used for temperature sensing */
 144:display_task.c ****     InitTemperature();
ARM GAS  C:\Users\Agentos\AppData\Local\Temp\ccHiDLED.s 			page 4


 145:display_task.c ****     
 146:display_task.c ****     /* Read the value of ambient temperature */
 147:display_task.c ****     ambientTemperature = (int8_t)GetTemperature();
 148:display_task.c ****     
 149:display_task.c ****     /* Initialize the E-INK display hardware with the ambient temperature 
 150:display_task.c ****        value and the delay function pointer */
 151:display_task.c ****     if(Cy_EINK_Start(ambientTemperature,DelayMs) == CY_EINK_SUCCESS)
 152:display_task.c ****     {
 153:display_task.c ****         Task_DebugPrintf("Success  : Display - Cy_EINK_Start API", 0u);
 154:display_task.c **** 
 155:display_task.c ****         /* Power on the display and check if the operation was successful */
 156:display_task.c ****         displayDetected = Cy_EINK_Power(CY_EINK_ON);
 157:display_task.c **** 
 158:display_task.c ****         if(displayDetected == CY_EINK_SUCCESS)
 159:display_task.c ****         {
 160:display_task.c ****             Task_DebugPrintf("Success  : Display - E-INK display power on", 0u);   
 161:display_task.c ****         } 
 162:display_task.c ****         else
 163:display_task.c ****         {
 164:display_task.c ****             Task_DebugPrintf("Failure! : Display - E-INK display power on ", 0u); 
 165:display_task.c ****             
 166:display_task.c ****             /* Turn the red LED on to indicate that the E-INK display is not 
 167:display_task.c ****             detected. Check the connection between the E-INK shield and the 
 168:display_task.c ****             Pioneer Baseboard if this happens, and then reset the PSoC 6 BLE */
 169:display_task.c ****             Cy_GPIO_Write(Pin_LED_Red_0_PORT, Pin_LED_Red_0_NUM, 0u);
 170:display_task.c ****         }
 171:display_task.c ****     }
 172:display_task.c ****     else
 173:display_task.c ****     {
 174:display_task.c ****         Task_DebugPrintf("Failure! : Display - Cy_EINK_Start API", 0u);
 175:display_task.c ****     }
 176:display_task.c **** 
 177:display_task.c ****     /* Clear the display to white background */
 178:display_task.c ****     Cy_EINK_Clear(CY_EINK_WHITE_BACKGROUND, CY_EINK_POWER_MANUAL);
 179:display_task.c ****             
 180:display_task.c ****     /* Show the logo */
 181:display_task.c ****     DisplayImage((cy_eink_image_t*) logo);
 182:display_task.c **** 
 183:display_task.c ****     /* Keep the logo on for a specific time*/
 184:display_task.c ****     vTaskDelay(STARTUP_SCREEN_DELAY);
 185:display_task.c **** 
 186:display_task.c ****     /* Show the default main menu image*/
 187:display_task.c ****     DisplayImage((cy_eink_image_t*) mainMenuImage[MAIN_MENU_INDEX_START]);
 188:display_task.c ****     
 189:display_task.c ****     /* Repeatedly running part of the task */
 190:display_task.c ****     for(;;)
 191:display_task.c ****     {
 192:display_task.c ****         /* Block until a touch input has been received over touchDataQ */
 193:display_task.c ****         rtosApiResult = xQueueReceive(touchDataQ, &touchInput,
 194:display_task.c ****                          portMAX_DELAY);
 195:display_task.c ****         
 196:display_task.c ****         /* Touch input has been received over touchDataQ */
 197:display_task.c ****         if(rtosApiResult == pdTRUE)
 198:display_task.c ****         {
 199:display_task.c ****        
 200:display_task.c ****         /* Function pointer that selects a screen update function based on the 
 201:display_task.c ****           current screen type and the touch input:
ARM GAS  C:\Users\Agentos\AppData\Local\Temp\ccHiDLED.s 			page 5


 202:display_task.c ****         _______________________________________________________________
 203:display_task.c ****         |                                     |                       |
 204:display_task.c ****         |          Parameters                 |   Selected Function   |
 205:display_task.c ****         |_____________________________________|_______________________|
 206:display_task.c ****         |                                     |                       |
 207:display_task.c ****         |   [MAIN_MENU][BUTTON0_TOUCHED])     |   GoToTextPage        |
 208:display_task.c ****         |   [MAIN_MENU][BUTTON1_TOUCHED])     |   NoScreenChange      |
 209:display_task.c ****         |   [MAIN_MENU][SLIDER_FLICK_LEFT])   |   MoveArrowUp         |
 210:display_task.c ****         |   [MAIN_MENU][SLIDER_FLICK_RIGHT])  |   MoveArrowDown       |
 211:display_task.c ****         |                                     |                       |
 212:display_task.c ****         |   [TEXT_PAGE][BUTTON0_TOUCHED])     |   NoScreenChange      |
 213:display_task.c ****         |   [TEXT_PAGE][BUTTON1_TOUCHED])     |   BackToMainMenu      |
 214:display_task.c ****         |   [TEXT_PAGE][SLIDER_FLICK_LEFT])   |   PreviousTextPage    |
 215:display_task.c ****         |   [TEXT_PAGE][SLIDER_FLICK_RIGHT])  |   NextTextPage        |
 216:display_task.c ****         |_____________________________________|_______________________|*/
 217:display_task.c ****             
 218:display_task.c ****         static void (*ScreenUpdatePointer[NUMBER_OF_SCREEN_TYPES]
 219:display_task.c ****                                          [NUMBER_OF_INPUT_TYPES]) (void) =
 220:display_task.c ****         {
 221:display_task.c ****             { GoToTextPage, NoScreenChange, MoveArrowUp, MoveArrowDown },
 222:display_task.c ****             { NoScreenChange, BackToMainMenu, PreviousTextPage,NextTextPage }
 223:display_task.c ****         };
 224:display_task.c **** 
 225:display_task.c ****             /* Call the function pointer that selects a screen update function
 226:display_task.c ****             according to the touch input */     
 227:display_task.c ****             (*ScreenUpdatePointer[currentScreen.screen][touchInput])();
 228:display_task.c **** 
 229:display_task.c ****         }
 230:display_task.c ****         /* Task has timed out and received no inputs during an interval of 
 231:display_task.c ****            portMAXDELAY ticks */
 232:display_task.c ****         else
 233:display_task.c ****         {
 234:display_task.c ****             Task_DebugPrintf("Warning! : Display - Task Timed out ", 0u);   
 235:display_task.c ****         }
 236:display_task.c ****     }
 237:display_task.c **** }
 238:display_task.c **** 
 239:display_task.c **** /*******************************************************************************
 240:display_task.c **** ********************************************************************************
 241:display_task.c **** *  Following are the static functions used for display updates. These          *
 242:display_task.c **** *  functions are not available outside this file.                                        *
 243:display_task.c **** ********************************************************************************
 244:display_task.c **** *******************************************************************************/
 245:display_task.c **** 
 246:display_task.c **** /*******************************************************************************
 247:display_task.c **** * Function Name: void static NoScreenChange(void)
 248:display_task.c **** ********************************************************************************
 249:display_task.c **** *
 250:display_task.c **** * Summary:
 251:display_task.c **** *  Null function that is called by the "ScreenUpdatePointer" function pointer  
 252:display_task.c **** *  when no screen change is required
 253:display_task.c **** *
 254:display_task.c **** * Parameters:
 255:display_task.c **** *  None
 256:display_task.c **** *
 257:display_task.c **** * Return:
 258:display_task.c **** *  None
ARM GAS  C:\Users\Agentos\AppData\Local\Temp\ccHiDLED.s 			page 6


 259:display_task.c **** *
 260:display_task.c **** * Side Effects:
 261:display_task.c **** *  None
 262:display_task.c **** *
 263:display_task.c **** *******************************************************************************/
 264:display_task.c **** void static NoScreenChange(void)
 265:display_task.c **** {
  28              		.loc 1 265 0
  29              		.cfi_startproc
  30              		@ args = 0, pretend = 0, frame = 0
  31              		@ frame_needed = 0, uses_anonymous_args = 0
  32              		@ link register save eliminated.
  33 0000 7047     		bx	lr
  34              		.cfi_endproc
  35              	.LFE520:
  36              		.size	NoScreenChange, .-NoScreenChange
  37 0002 00BF     		.section	.text.DelayMs,"ax",%progbits
  38              		.align	2
  39              		.thumb
  40              		.thumb_func
  41              		.type	DelayMs, %function
  42              	DelayMs:
  43              	.LFB518:
 111:display_task.c **** 
  44              		.loc 1 111 0
  45              		.cfi_startproc
  46              		@ args = 0, pretend = 0, frame = 0
  47              		@ frame_needed = 0, uses_anonymous_args = 0
  48              	.LVL0:
 111:display_task.c **** 
  49              		.loc 1 111 0
  50 0000 08B5     		push	{r3, lr}
  51              		.cfi_def_cfa_offset 8
  52              		.cfi_offset 3, -8
  53              		.cfi_offset 14, -4
 111:display_task.c **** 
  54              		.loc 1 111 0
  55 0002 4FF47A73 		mov	r3, #1000
  56 0006 03FB00F0 		mul	r0, r3, r0
  57              	.LVL1:
  58 000a 034B     		ldr	r3, .L4
  59 000c A3FB0030 		umull	r3, r0, r3, r0
  60 0010 8009     		lsrs	r0, r0, #6
  61 0012 FFF7FEFF 		bl	vTaskDelay
  62              	.LVL2:
  63 0016 08BD     		pop	{r3, pc}
  64              	.L5:
  65              		.align	2
  66              	.L4:
  67 0018 D34D6210 		.word	274877907
  68              		.cfi_endproc
  69              	.LFE518:
  70              		.size	DelayMs, .-DelayMs
  71              		.section	.text.DisplayImage,"ax",%progbits
  72              		.align	2
  73              		.thumb
  74              		.thumb_func
ARM GAS  C:\Users\Agentos\AppData\Local\Temp\ccHiDLED.s 			page 7


  75              		.type	DisplayImage, %function
  76              	DisplayImage:
  77              	.LFB528:
 266:display_task.c **** }
 267:display_task.c **** 
 268:display_task.c **** /*******************************************************************************
 269:display_task.c **** * Function Name: void static GoToTextPage(void)
 270:display_task.c **** ********************************************************************************
 271:display_task.c **** *
 272:display_task.c **** * Summary:
 273:display_task.c **** *  Performs transition from the main menu to the text page
 274:display_task.c **** *
 275:display_task.c **** * Parameters:
 276:display_task.c **** *  None
 277:display_task.c **** *
 278:display_task.c **** * Return:
 279:display_task.c **** *  None
 280:display_task.c **** *
 281:display_task.c **** * Side Effects:
 282:display_task.c **** *  None
 283:display_task.c **** *
 284:display_task.c **** *******************************************************************************/
 285:display_task.c **** void static GoToTextPage(void)
 286:display_task.c **** {
 287:display_task.c ****     /* Variable that stores the index of the character array, which in turn 
 288:display_task.c ****        stores the current text page as a string */
 289:display_task.c ****     uint8_t currentPageIndex;
 290:display_task.c ****     
 291:display_task.c ****     /* Change the current screen type to text page */
 292:display_task.c ****     currentScreen.screen = TEXT_PAGE;
 293:display_task.c **** 
 294:display_task.c ****     /* Re-initialize the text page index to point to the start page */
 295:display_task.c ****     currentScreen.textPage = TEXT_PAGE_INDEX_START;
 296:display_task.c ****     
 297:display_task.c ****     /* Access the index array and fetch the index of the character array that 
 298:display_task.c ****       stores the current text page as a string */
 299:display_task.c ****     currentPageIndex = textPageIndex[currentScreen.menuItem]
 300:display_task.c ****                                     [currentScreen.textPage];
 301:display_task.c ****     
 302:display_task.c ****     /* Check if the fetched index is valid */
 303:display_task.c ****     if (currentPageIndex != INVALID_PAGE_INDEX)
 304:display_task.c ****     {
 305:display_task.c ****         /* Display the text page with background image */
 306:display_task.c ****         DisplayImageAndText((char*) textPage[currentPageIndex],
 307:display_task.c ****                             (cy_eink_image_t*) textPageBackground);
 308:display_task.c ****     }
 309:display_task.c **** }
 310:display_task.c **** 
 311:display_task.c **** /*******************************************************************************
 312:display_task.c **** * Function Name: void static BackToMainMenu(void)
 313:display_task.c **** ********************************************************************************
 314:display_task.c **** *
 315:display_task.c **** * Summary:
 316:display_task.c **** *  Returns to the main menu from a text page
 317:display_task.c **** *
 318:display_task.c **** * Parameters:
 319:display_task.c **** *  None
ARM GAS  C:\Users\Agentos\AppData\Local\Temp\ccHiDLED.s 			page 8


 320:display_task.c **** *
 321:display_task.c **** * Return:
 322:display_task.c **** *  None
 323:display_task.c **** *
 324:display_task.c **** * Side Effects:
 325:display_task.c **** *  None
 326:display_task.c **** *
 327:display_task.c **** *******************************************************************************/
 328:display_task.c **** void static BackToMainMenu(void)
 329:display_task.c **** {
 330:display_task.c ****     /* Change the current screen type to main menu */
 331:display_task.c ****     currentScreen.screen = MAIN_MENU;
 332:display_task.c ****     
 333:display_task.c ****     /* Display the current main menu image */
 334:display_task.c ****     DisplayImage((cy_eink_image_t*) mainMenuImage[currentScreen.menuItem]);
 335:display_task.c **** }
 336:display_task.c **** 
 337:display_task.c **** /*******************************************************************************
 338:display_task.c **** * Function Name: void static MoveArrowUp(void)
 339:display_task.c **** ********************************************************************************
 340:display_task.c **** *
 341:display_task.c **** * Summary:
 342:display_task.c **** *  Moves the selection arrow of the main menu upwards
 343:display_task.c **** *
 344:display_task.c **** * Parameters:
 345:display_task.c **** *  None
 346:display_task.c **** *
 347:display_task.c **** * Return:
 348:display_task.c **** *  None
 349:display_task.c **** *
 350:display_task.c **** * Side Effects:
 351:display_task.c **** *  None
 352:display_task.c **** *
 353:display_task.c **** *******************************************************************************/
 354:display_task.c **** void static MoveArrowUp(void)
 355:display_task.c **** {
 356:display_task.c ****     
 357:display_task.c ****     /* If the beginning of the main menu is reached, then move the arrow to the
 358:display_task.c ****        final item of the main menu by selecting the maximum index */
 359:display_task.c ****     if (currentScreen.menuItem == MAIN_MENU_INDEX_START)
 360:display_task.c ****     {
 361:display_task.c ****         currentScreen.menuItem = MAIN_MENU_MAX_INDEX;
 362:display_task.c ****     }
 363:display_task.c ****     /* Otherwise, decrement the index to move the arrow up */
 364:display_task.c ****     else
 365:display_task.c ****     {
 366:display_task.c ****         currentScreen.menuItem--;
 367:display_task.c ****     }
 368:display_task.c ****     
 369:display_task.c ****     /* Display the current main menu image */
 370:display_task.c ****     DisplayImage((cy_eink_image_t*) mainMenuImage[currentScreen.menuItem]);
 371:display_task.c **** }
 372:display_task.c **** 
 373:display_task.c **** /*******************************************************************************
 374:display_task.c **** * Function Name: void static MoveArrowDown(void)
 375:display_task.c **** ********************************************************************************
 376:display_task.c **** *
ARM GAS  C:\Users\Agentos\AppData\Local\Temp\ccHiDLED.s 			page 9


 377:display_task.c **** * Summary:
 378:display_task.c **** *  Moves the selection arrow of the main menu downwards
 379:display_task.c **** *
 380:display_task.c **** * Parameters:
 381:display_task.c **** *  None
 382:display_task.c **** *
 383:display_task.c **** * Return:
 384:display_task.c **** *  None
 385:display_task.c **** *
 386:display_task.c **** * Side Effects:
 387:display_task.c **** *  None
 388:display_task.c **** *
 389:display_task.c **** *******************************************************************************/
 390:display_task.c **** void static MoveArrowDown(void)
 391:display_task.c **** { 
 392:display_task.c ****     /* If the final item of the main menu is reached, then move the arrow to the
 393:display_task.c ****        beginning of the main menu by selecting the starting index */
 394:display_task.c ****     if (currentScreen.menuItem >= MAIN_MENU_MAX_INDEX)
 395:display_task.c ****     {
 396:display_task.c ****         currentScreen.menuItem = MAIN_MENU_INDEX_START;
 397:display_task.c ****     }
 398:display_task.c ****     /* Otherwise, increment the index to move the arrow down */
 399:display_task.c ****     else
 400:display_task.c ****     {
 401:display_task.c ****         currentScreen.menuItem++;
 402:display_task.c ****     }
 403:display_task.c ****     
 404:display_task.c ****     /* Display the current main menu image */
 405:display_task.c ****     DisplayImage((cy_eink_image_t*) mainMenuImage[currentScreen.menuItem]);
 406:display_task.c **** }
 407:display_task.c **** 
 408:display_task.c **** /*******************************************************************************
 409:display_task.c **** * Function Name: void static PreviousTextPage(void)
 410:display_task.c **** ********************************************************************************
 411:display_task.c **** *
 412:display_task.c **** * Summary:
 413:display_task.c **** *  Performs the transition to the previous text page
 414:display_task.c **** *
 415:display_task.c **** * Parameters:
 416:display_task.c **** *  None
 417:display_task.c **** *
 418:display_task.c **** * Return:
 419:display_task.c **** *  None
 420:display_task.c **** *
 421:display_task.c **** * Side Effects:
 422:display_task.c **** *  None
 423:display_task.c **** *
 424:display_task.c **** *******************************************************************************/
 425:display_task.c **** void static PreviousTextPage(void)
 426:display_task.c **** {
 427:display_task.c ****     
 428:display_task.c ****     /* Variable that stores the index of the character array, which in turn 
 429:display_task.c ****        stores the current text page as a string */
 430:display_task.c ****     uint8_t currentPageIndex;
 431:display_task.c ****     
 432:display_task.c ****     /* If the start page is reached, then go to the final page by selecting the 
 433:display_task.c ****        maximum index of the text pages */
ARM GAS  C:\Users\Agentos\AppData\Local\Temp\ccHiDLED.s 			page 10


 434:display_task.c ****     if (currentScreen.textPage == TEXT_PAGE_INDEX_START)
 435:display_task.c ****     {
 436:display_task.c ****         currentScreen.textPage = maxTextPageIndexes[currentScreen.menuItem];
 437:display_task.c ****     }
 438:display_task.c ****     /* Otherwise, select the previous page by decrementing the index */
 439:display_task.c ****     else
 440:display_task.c ****     {
 441:display_task.c ****         currentScreen.textPage--;
 442:display_task.c ****     }
 443:display_task.c **** 
 444:display_task.c ****     /* Access the index array and fetch the index of the character array that
 445:display_task.c ****         stores the current text page as a string */
 446:display_task.c ****     currentPageIndex = textPageIndex[currentScreen.menuItem]
 447:display_task.c ****                                     [currentScreen.textPage];
 448:display_task.c ****     
 449:display_task.c ****     /* Check if the fetched index is valid */
 450:display_task.c ****     if (currentPageIndex != INVALID_PAGE_INDEX)
 451:display_task.c ****     {
 452:display_task.c ****         /* Display the text page with background image */
 453:display_task.c ****         DisplayImageAndText((char*) textPage[currentPageIndex],
 454:display_task.c ****                             (cy_eink_image_t*) textPageBackground);
 455:display_task.c ****     }
 456:display_task.c **** }
 457:display_task.c **** 
 458:display_task.c **** /*******************************************************************************
 459:display_task.c **** * Function Name: void static NextTextPage(void)
 460:display_task.c **** ********************************************************************************
 461:display_task.c **** *
 462:display_task.c **** * Summary:
 463:display_task.c **** *  Performs the transition to the next text page
 464:display_task.c **** *
 465:display_task.c **** * Parameters:
 466:display_task.c **** *  None
 467:display_task.c **** *
 468:display_task.c **** * Return:
 469:display_task.c **** *  None
 470:display_task.c **** *
 471:display_task.c **** * Side Effects:
 472:display_task.c **** *  None
 473:display_task.c **** *
 474:display_task.c **** *******************************************************************************/
 475:display_task.c **** void static NextTextPage(void)
 476:display_task.c **** {
 477:display_task.c ****     /* Variable that stores the index of the character array, which in turn 
 478:display_task.c ****        stores the current text page as a string */
 479:display_task.c ****     uint8_t currentPageIndex;
 480:display_task.c ****     
 481:display_task.c ****     /* If the final page is reached, then go to the start page by selecting 
 482:display_task.c ****        the starting index of the text pages */
 483:display_task.c ****     if (currentScreen.textPage >= maxTextPageIndexes[currentScreen.menuItem])
 484:display_task.c ****     {
 485:display_task.c ****         currentScreen.textPage = TEXT_PAGE_INDEX_START;
 486:display_task.c ****     }
 487:display_task.c ****      /* Otherwise, select the next page by incrementing the index */
 488:display_task.c ****     else
 489:display_task.c ****     {
 490:display_task.c ****         currentScreen.textPage++;
ARM GAS  C:\Users\Agentos\AppData\Local\Temp\ccHiDLED.s 			page 11


 491:display_task.c ****     }
 492:display_task.c **** 
 493:display_task.c ****     /* Access the index array and fetch the index of the character array that
 494:display_task.c ****         stores the current text page as a string */
 495:display_task.c ****     currentPageIndex = textPageIndex[currentScreen.menuItem]
 496:display_task.c ****                                     [currentScreen.textPage];
 497:display_task.c ****     
 498:display_task.c ****     /* Check if the fetched index is valid */
 499:display_task.c ****     if (currentPageIndex != INVALID_PAGE_INDEX)
 500:display_task.c ****     {
 501:display_task.c ****         /* Display the text page with background image */
 502:display_task.c ****         DisplayImageAndText((char*) textPage[currentPageIndex],
 503:display_task.c ****                             (cy_eink_image_t*) textPageBackground);
 504:display_task.c ****     }
 505:display_task.c **** }
 506:display_task.c **** 
 507:display_task.c **** 
 508:display_task.c **** /*******************************************************************************
 509:display_task.c **** * Function Name: void static InitializeFrameBuffers(cy_eink_image_t* 
 510:display_task.c **** *                                                   imagePointer)
 511:display_task.c **** ********************************************************************************
 512:display_task.c **** *
 513:display_task.c **** * Summary:
 514:display_task.c **** *  Initialize the frame buffers with a background image
 515:display_task.c **** *
 516:display_task.c **** * Parameters:
 517:display_task.c **** *  cy_eink_image_t* imagePointer : pointer to the image
 518:display_task.c **** *
 519:display_task.c **** * Return:
 520:display_task.c **** *  None
 521:display_task.c **** *
 522:display_task.c **** * Side Effects:
 523:display_task.c **** *  This function is hard-coded to work with the images and text used in this 
 524:display_task.c **** *  code example. The background image is loaded only once to the frame buffer
 525:display_task.c **** *  since only one type of background is used in this project. Similarly, the 
 526:display_task.c **** *  images are cropped at predesignated coordinates before loading to the frame 
 527:display_task.c **** *  buffers. This cropping speeds up the initialization of frame buffers by not 
 528:display_task.c **** *  initializing the area to which the text is written. Since this is NOT A 
 529:display_task.c **** *  GENERIC FUNCTION, it NOT RECOMMENDED to copy/paste this function into a 
 530:display_task.c **** *  different project to initialize the frame buffer with an image. It is 
 531:display_task.c **** *  recommended to use the E-INK library functions for such use cases. See 
 532:display_task.c **** *  Appendix A of the code example document for the details of E-INK library 
 533:display_task.c **** *  functions.
 534:display_task.c **** *
 535:display_task.c **** *******************************************************************************/
 536:display_task.c **** void static InitializeFrameBuffers(cy_eink_image_t* imagePointer)
 537:display_task.c **** {
 538:display_task.c ****     /* Coordinates at which the text menu images cropped before loading to the
 539:display_task.c ****        frame buffers. This cropping speeds up the initialization of the frame 
 540:display_task.c ****        buffers by not initializing the area to which the text is written */
 541:display_task.c ****     const uint8_t   cropTop[]    = CROP_BACKGROUND_TOP;
 542:display_task.c ****     const uint8_t   cropBottom[] = CROP_BACKGROUND_BOTTOM;
 543:display_task.c ****     
 544:display_task.c ****     /* Flag used to determine when this function is called for the first time */
 545:display_task.c ****     bool static     firstTime = true;
 546:display_task.c ****     
 547:display_task.c ****     /* The background image is loaded only once to the frame buffer since only
ARM GAS  C:\Users\Agentos\AppData\Local\Temp\ccHiDLED.s 			page 12


 548:display_task.c ****        one type of background is used in this project. */
 549:display_task.c ****     if (firstTime)
 550:display_task.c ****     {
 551:display_task.c ****         /* Crop the background image at the predesignated coordinates and  then 
 552:display_task.c ****            load to the frame buffers. This cropping speeds up the initialization 
 553:display_task.c ****            of the frame buffers by not initializing the area to which the text 
 554:display_task.c ****            is written. */
 555:display_task.c ****         Cy_EINK_ImageToFrameBuffer(frameBuffer[BUFFER0], imagePointer,
 556:display_task.c ****                                    (uint8_t*) cropTop);
 557:display_task.c ****         Cy_EINK_ImageToFrameBuffer(frameBuffer[BUFFER0], imagePointer,
 558:display_task.c ****                                    (uint8_t*) cropBottom);
 559:display_task.c ****         Cy_EINK_ImageToFrameBuffer(frameBuffer[BUFFER1], imagePointer,
 560:display_task.c ****                                    (uint8_t*) cropTop);
 561:display_task.c ****         Cy_EINK_ImageToFrameBuffer(frameBuffer[BUFFER1], imagePointer,
 562:display_task.c ****                                    (uint8_t*) cropBottom);
 563:display_task.c ****                                 
 564:display_task.c ****         /* Clear the first time flag */
 565:display_task.c ****         firstTime = false;
 566:display_task.c ****     }
 567:display_task.c **** }
 568:display_task.c **** 
 569:display_task.c **** /*******************************************************************************
 570:display_task.c **** * Function Name: void static DisplayImage(cy_eink_image_t* imagePointer)
 571:display_task.c **** ********************************************************************************
 572:display_task.c **** *
 573:display_task.c **** * Summary:
 574:display_task.c **** *  Displays an image on the E-INK display.
 575:display_task.c **** *
 576:display_task.c **** * Parameters:
 577:display_task.c **** *  image* cy_eink_image_t : pointer to the image to be displayed
 578:display_task.c **** *
 579:display_task.c **** * Return:
 580:display_task.c **** *  None
 581:display_task.c **** *
 582:display_task.c **** * Side Effects:
 583:display_task.c **** *  This function selects an update type (partial/full) based on the current
 584:display_task.c **** *  screen type. This function also stores the pointer to the previous frame,
 585:display_task.c **** *  which is used for subsequent updates. This function is hard-coded to work 
 586:display_task.c **** *  with the menu types and image types used in this code example. Since this is 
 587:display_task.c **** *  NOT A GENERIC FUNCTION, it NOT RECOMMENDED to copy/paste this function into a 
 588:display_task.c **** *  different project to display an image on the E-INK display. It is recommended 
 589:display_task.c **** *  to use the Cy_EINK_ShowFrame() library function for such use cases. See 
 590:display_task.c **** *  Appendix A of the code example document for the details of E-INK library 
 591:display_task.c **** *  functions.
 592:display_task.c **** *
 593:display_task.c **** *******************************************************************************/
 594:display_task.c **** void static DisplayImage(cy_eink_image_t* imagePointer)
 595:display_task.c **** {
  78              		.loc 1 595 0
  79              		.cfi_startproc
  80              		@ args = 0, pretend = 0, frame = 0
  81              		@ frame_needed = 0, uses_anonymous_args = 0
  82              	.LVL3:
  83 0000 38B5     		push	{r3, r4, r5, lr}
  84              		.cfi_def_cfa_offset 16
  85              		.cfi_offset 3, -16
  86              		.cfi_offset 4, -12
ARM GAS  C:\Users\Agentos\AppData\Local\Temp\ccHiDLED.s 			page 13


  87              		.cfi_offset 5, -8
  88              		.cfi_offset 14, -4
  89 0002 0446     		mov	r4, r0
  90              	.LVL4:
  91              	.LBB13:
  92              	.LBB14:
  93              		.file 2 "Generated_Source\\PSoC6\\pdl\\drivers/peripheral/gpio/cy_gpio.h"
   1:Generated_Source\PSoC6\pdl\drivers/peripheral/gpio/cy_gpio.h **** /***************************************************************************//**
   2:Generated_Source\PSoC6\pdl\drivers/peripheral/gpio/cy_gpio.h **** * \file cy_gpio.h
   3:Generated_Source\PSoC6\pdl\drivers/peripheral/gpio/cy_gpio.h **** * \version 1.10.1
   4:Generated_Source\PSoC6\pdl\drivers/peripheral/gpio/cy_gpio.h **** *
   5:Generated_Source\PSoC6\pdl\drivers/peripheral/gpio/cy_gpio.h **** * \brief
   6:Generated_Source\PSoC6\pdl\drivers/peripheral/gpio/cy_gpio.h **** * Provides an API declaration of the GPIO driver
   7:Generated_Source\PSoC6\pdl\drivers/peripheral/gpio/cy_gpio.h **** *
   8:Generated_Source\PSoC6\pdl\drivers/peripheral/gpio/cy_gpio.h **** ********************************************************************************
   9:Generated_Source\PSoC6\pdl\drivers/peripheral/gpio/cy_gpio.h **** * \copyright
  10:Generated_Source\PSoC6\pdl\drivers/peripheral/gpio/cy_gpio.h **** * Copyright 2016-2018, Cypress Semiconductor Corporation. All rights reserved.
  11:Generated_Source\PSoC6\pdl\drivers/peripheral/gpio/cy_gpio.h **** * You may use this file only in accordance with the license, terms, conditions,
  12:Generated_Source\PSoC6\pdl\drivers/peripheral/gpio/cy_gpio.h **** * disclaimers, and limitations in the end user license agreement accompanying
  13:Generated_Source\PSoC6\pdl\drivers/peripheral/gpio/cy_gpio.h **** * the software package with which this file was provided.
  14:Generated_Source\PSoC6\pdl\drivers/peripheral/gpio/cy_gpio.h **** *******************************************************************************/
  15:Generated_Source\PSoC6\pdl\drivers/peripheral/gpio/cy_gpio.h **** 
  16:Generated_Source\PSoC6\pdl\drivers/peripheral/gpio/cy_gpio.h **** /**
  17:Generated_Source\PSoC6\pdl\drivers/peripheral/gpio/cy_gpio.h **** * \defgroup group_gpio General Purpose Input Output (GPIO)
  18:Generated_Source\PSoC6\pdl\drivers/peripheral/gpio/cy_gpio.h **** * \{
  19:Generated_Source\PSoC6\pdl\drivers/peripheral/gpio/cy_gpio.h **** * The GPIO driver provides an API to configure and access device Input/Output pins.
  20:Generated_Source\PSoC6\pdl\drivers/peripheral/gpio/cy_gpio.h **** * IO pins include all general purpose types such as GPIO, SIO, HSIO, AUXIO, and
  21:Generated_Source\PSoC6\pdl\drivers/peripheral/gpio/cy_gpio.h **** * their variants.
  22:Generated_Source\PSoC6\pdl\drivers/peripheral/gpio/cy_gpio.h **** *
  23:Generated_Source\PSoC6\pdl\drivers/peripheral/gpio/cy_gpio.h **** * Initialization can be performed either at the port level or by configuring the
  24:Generated_Source\PSoC6\pdl\drivers/peripheral/gpio/cy_gpio.h **** * individual pins. For efficient use of code space, port
  25:Generated_Source\PSoC6\pdl\drivers/peripheral/gpio/cy_gpio.h **** * configuration should be used in the field. Refer to the product device header files 
  26:Generated_Source\PSoC6\pdl\drivers/peripheral/gpio/cy_gpio.h **** * for the list of supported ports and pins.
  27:Generated_Source\PSoC6\pdl\drivers/peripheral/gpio/cy_gpio.h **** * 
  28:Generated_Source\PSoC6\pdl\drivers/peripheral/gpio/cy_gpio.h **** * - Single pin configuration is performed by using \ref Cy_GPIO_Pin_FastInit 
  29:Generated_Source\PSoC6\pdl\drivers/peripheral/gpio/cy_gpio.h **** *   (provide specific values) or \ref Cy_GPIO_Pin_Init (provide a filled
  30:Generated_Source\PSoC6\pdl\drivers/peripheral/gpio/cy_gpio.h **** *   cy_stc_gpio_pin_config_t structure).
  31:Generated_Source\PSoC6\pdl\drivers/peripheral/gpio/cy_gpio.h **** * - An entire port can be configured using \ref Cy_GPIO_Port_Init. Provide a filled 
  32:Generated_Source\PSoC6\pdl\drivers/peripheral/gpio/cy_gpio.h **** *   cy_stc_gpio_prt_config_t structure. The values in the structure are 
  33:Generated_Source\PSoC6\pdl\drivers/peripheral/gpio/cy_gpio.h **** *   bitfields representing the desired value for each pin in the port.
  34:Generated_Source\PSoC6\pdl\drivers/peripheral/gpio/cy_gpio.h **** * - Pin configuration and management is based on the port address and pin number.
  35:Generated_Source\PSoC6\pdl\drivers/peripheral/gpio/cy_gpio.h **** *   \ref Cy_GPIO_PortToAddr function can optionally be used to calculate the port
  36:Generated_Source\PSoC6\pdl\drivers/peripheral/gpio/cy_gpio.h **** *   address from the port number at run-time.
  37:Generated_Source\PSoC6\pdl\drivers/peripheral/gpio/cy_gpio.h **** *
  38:Generated_Source\PSoC6\pdl\drivers/peripheral/gpio/cy_gpio.h **** * Once the pin/port initialization is complete, each pin can be accessed by 
  39:Generated_Source\PSoC6\pdl\drivers/peripheral/gpio/cy_gpio.h **** * specifying the port (GPIO_PRT_Type) and the pin (0-7) in the provided API 
  40:Generated_Source\PSoC6\pdl\drivers/peripheral/gpio/cy_gpio.h **** * functions.
  41:Generated_Source\PSoC6\pdl\drivers/peripheral/gpio/cy_gpio.h **** *
  42:Generated_Source\PSoC6\pdl\drivers/peripheral/gpio/cy_gpio.h **** * \section group_gpio_configuration Configuration Considerations
  43:Generated_Source\PSoC6\pdl\drivers/peripheral/gpio/cy_gpio.h **** *
  44:Generated_Source\PSoC6\pdl\drivers/peripheral/gpio/cy_gpio.h **** * 1. Pin multiplexing is controlled through the High-Speed IO Matrix (HSIOM) selection.
  45:Generated_Source\PSoC6\pdl\drivers/peripheral/gpio/cy_gpio.h **** *    This allows the pin to connect to signal sources/sinks throughout the device,
  46:Generated_Source\PSoC6\pdl\drivers/peripheral/gpio/cy_gpio.h **** *    as defined by the pin HSIOM selection options (en_hsiom_sel_t).
  47:Generated_Source\PSoC6\pdl\drivers/peripheral/gpio/cy_gpio.h **** * 2. All pins are initialized to High-Z drive mode with HSIOM connected to CPU (SW
  48:Generated_Source\PSoC6\pdl\drivers/peripheral/gpio/cy_gpio.h **** *    control digital pin only) at Power-On-Reset(POR).
  49:Generated_Source\PSoC6\pdl\drivers/peripheral/gpio/cy_gpio.h **** * 3. Some API functions perform read-modify-write operations on shared port
  50:Generated_Source\PSoC6\pdl\drivers/peripheral/gpio/cy_gpio.h **** *    registers. These functions are not thread safe and care must be taken when
ARM GAS  C:\Users\Agentos\AppData\Local\Temp\ccHiDLED.s 			page 14


  51:Generated_Source\PSoC6\pdl\drivers/peripheral/gpio/cy_gpio.h **** *    called by the application.
  52:Generated_Source\PSoC6\pdl\drivers/peripheral/gpio/cy_gpio.h **** *
  53:Generated_Source\PSoC6\pdl\drivers/peripheral/gpio/cy_gpio.h **** * Multiple pins on a port can be updated using direct port register writes with an
  54:Generated_Source\PSoC6\pdl\drivers/peripheral/gpio/cy_gpio.h **** * appropriate port mask. An example is shown below, highlighting the different ways of 
  55:Generated_Source\PSoC6\pdl\drivers/peripheral/gpio/cy_gpio.h **** * configuring Port 1 pins using,
  56:Generated_Source\PSoC6\pdl\drivers/peripheral/gpio/cy_gpio.h **** * 
  57:Generated_Source\PSoC6\pdl\drivers/peripheral/gpio/cy_gpio.h **** * - Port output data register
  58:Generated_Source\PSoC6\pdl\drivers/peripheral/gpio/cy_gpio.h **** * - Port output data set register
  59:Generated_Source\PSoC6\pdl\drivers/peripheral/gpio/cy_gpio.h **** * - Port output data clear register
  60:Generated_Source\PSoC6\pdl\drivers/peripheral/gpio/cy_gpio.h **** *
  61:Generated_Source\PSoC6\pdl\drivers/peripheral/gpio/cy_gpio.h **** * \snippet gpio/gpio_v1_10_sut_01.cydsn/main_cm4.c Cy_GPIO_Snippet
  62:Generated_Source\PSoC6\pdl\drivers/peripheral/gpio/cy_gpio.h **** *
  63:Generated_Source\PSoC6\pdl\drivers/peripheral/gpio/cy_gpio.h **** * \section group_gpio_more_information More Information
  64:Generated_Source\PSoC6\pdl\drivers/peripheral/gpio/cy_gpio.h **** *
  65:Generated_Source\PSoC6\pdl\drivers/peripheral/gpio/cy_gpio.h **** * Refer to the technical reference manual (TRM) and the device datasheet.
  66:Generated_Source\PSoC6\pdl\drivers/peripheral/gpio/cy_gpio.h **** *
  67:Generated_Source\PSoC6\pdl\drivers/peripheral/gpio/cy_gpio.h **** * \section group_gpio_MISRA MISRA-C Compliance]
  68:Generated_Source\PSoC6\pdl\drivers/peripheral/gpio/cy_gpio.h **** * <table class="doxtable">
  69:Generated_Source\PSoC6\pdl\drivers/peripheral/gpio/cy_gpio.h **** *   <tr>
  70:Generated_Source\PSoC6\pdl\drivers/peripheral/gpio/cy_gpio.h **** *     <th>MISRA Rule</th>
  71:Generated_Source\PSoC6\pdl\drivers/peripheral/gpio/cy_gpio.h **** *     <th>Rule Class (Required/Advisory)</th>
  72:Generated_Source\PSoC6\pdl\drivers/peripheral/gpio/cy_gpio.h **** *     <th>Rule Description</th>
  73:Generated_Source\PSoC6\pdl\drivers/peripheral/gpio/cy_gpio.h **** *     <th>Description of Deviation(s)</th>
  74:Generated_Source\PSoC6\pdl\drivers/peripheral/gpio/cy_gpio.h **** *   </tr>
  75:Generated_Source\PSoC6\pdl\drivers/peripheral/gpio/cy_gpio.h **** *   <tr>
  76:Generated_Source\PSoC6\pdl\drivers/peripheral/gpio/cy_gpio.h **** *     <td>16.7</td>
  77:Generated_Source\PSoC6\pdl\drivers/peripheral/gpio/cy_gpio.h **** *     <td>A</td>
  78:Generated_Source\PSoC6\pdl\drivers/peripheral/gpio/cy_gpio.h **** *     <td>A pointer parameter in a function prototype should be declared as pointer 
  79:Generated_Source\PSoC6\pdl\drivers/peripheral/gpio/cy_gpio.h **** *         to const if the pointer is not used to modify the addressed object.</td>
  80:Generated_Source\PSoC6\pdl\drivers/peripheral/gpio/cy_gpio.h **** *     <td>The objects pointed to by the base addresses of the GPIO port are not always modified.
  81:Generated_Source\PSoC6\pdl\drivers/peripheral/gpio/cy_gpio.h **** *         While a const qualifier can be used in select scenarios, it brings little benefit
  82:Generated_Source\PSoC6\pdl\drivers/peripheral/gpio/cy_gpio.h **** *         in adding this to the affected functions. </td>
  83:Generated_Source\PSoC6\pdl\drivers/peripheral/gpio/cy_gpio.h **** *   </tr>
  84:Generated_Source\PSoC6\pdl\drivers/peripheral/gpio/cy_gpio.h **** * </table>
  85:Generated_Source\PSoC6\pdl\drivers/peripheral/gpio/cy_gpio.h **** *
  86:Generated_Source\PSoC6\pdl\drivers/peripheral/gpio/cy_gpio.h **** * \section group_gpio_changelog Changelog
  87:Generated_Source\PSoC6\pdl\drivers/peripheral/gpio/cy_gpio.h **** * <table class="doxtable">
  88:Generated_Source\PSoC6\pdl\drivers/peripheral/gpio/cy_gpio.h **** *   <tr><th>Version</th><th>Changes</th><th>Reason for Change</th></tr>
  89:Generated_Source\PSoC6\pdl\drivers/peripheral/gpio/cy_gpio.h **** *   <tr>
  90:Generated_Source\PSoC6\pdl\drivers/peripheral/gpio/cy_gpio.h **** *     <td>1.10.1</td>
  91:Generated_Source\PSoC6\pdl\drivers/peripheral/gpio/cy_gpio.h **** *     <td>Updated description for the functions: \ref Cy_GPIO_GetInterruptStatus, 
  92:Generated_Source\PSoC6\pdl\drivers/peripheral/gpio/cy_gpio.h **** *         \ref Cy_GPIO_GetInterruptMask, \ref Cy_GPIO_GetInterruptStatusMasked.
  93:Generated_Source\PSoC6\pdl\drivers/peripheral/gpio/cy_gpio.h **** *         Minor documentation edits.
  94:Generated_Source\PSoC6\pdl\drivers/peripheral/gpio/cy_gpio.h **** *     </td>
  95:Generated_Source\PSoC6\pdl\drivers/peripheral/gpio/cy_gpio.h **** *     <td>Documentation update and clarification</td>
  96:Generated_Source\PSoC6\pdl\drivers/peripheral/gpio/cy_gpio.h **** *   </tr>
  97:Generated_Source\PSoC6\pdl\drivers/peripheral/gpio/cy_gpio.h **** *   <tr>
  98:Generated_Source\PSoC6\pdl\drivers/peripheral/gpio/cy_gpio.h **** *     <td>1.10</td>
  99:Generated_Source\PSoC6\pdl\drivers/peripheral/gpio/cy_gpio.h **** *     <td>Added input parameter validation to the API functions</td>
 100:Generated_Source\PSoC6\pdl\drivers/peripheral/gpio/cy_gpio.h **** *     <td></td>
 101:Generated_Source\PSoC6\pdl\drivers/peripheral/gpio/cy_gpio.h **** *   </tr>
 102:Generated_Source\PSoC6\pdl\drivers/peripheral/gpio/cy_gpio.h **** *   <tr>
 103:Generated_Source\PSoC6\pdl\drivers/peripheral/gpio/cy_gpio.h **** *     <td>1.0</td>
 104:Generated_Source\PSoC6\pdl\drivers/peripheral/gpio/cy_gpio.h **** *     <td>Initial version</td>
 105:Generated_Source\PSoC6\pdl\drivers/peripheral/gpio/cy_gpio.h **** *     <td></td>
 106:Generated_Source\PSoC6\pdl\drivers/peripheral/gpio/cy_gpio.h **** *   </tr>
 107:Generated_Source\PSoC6\pdl\drivers/peripheral/gpio/cy_gpio.h **** * </table>
ARM GAS  C:\Users\Agentos\AppData\Local\Temp\ccHiDLED.s 			page 15


 108:Generated_Source\PSoC6\pdl\drivers/peripheral/gpio/cy_gpio.h **** *
 109:Generated_Source\PSoC6\pdl\drivers/peripheral/gpio/cy_gpio.h **** * \defgroup group_gpio_macros Macros
 110:Generated_Source\PSoC6\pdl\drivers/peripheral/gpio/cy_gpio.h **** * \defgroup group_gpio_functions Functions
 111:Generated_Source\PSoC6\pdl\drivers/peripheral/gpio/cy_gpio.h **** * \{
 112:Generated_Source\PSoC6\pdl\drivers/peripheral/gpio/cy_gpio.h **** *   \defgroup group_gpio_functions_init       Initialization Functions
 113:Generated_Source\PSoC6\pdl\drivers/peripheral/gpio/cy_gpio.h **** *   \defgroup group_gpio_functions_gpio       GPIO Functions
 114:Generated_Source\PSoC6\pdl\drivers/peripheral/gpio/cy_gpio.h **** *   \defgroup group_gpio_functions_sio        SIO Functions
 115:Generated_Source\PSoC6\pdl\drivers/peripheral/gpio/cy_gpio.h **** *   \defgroup group_gpio_functions_interrupt  Port Interrupt Functions
 116:Generated_Source\PSoC6\pdl\drivers/peripheral/gpio/cy_gpio.h **** * \}
 117:Generated_Source\PSoC6\pdl\drivers/peripheral/gpio/cy_gpio.h **** * \defgroup group_gpio_data_structures Data Structures
 118:Generated_Source\PSoC6\pdl\drivers/peripheral/gpio/cy_gpio.h **** * \defgroup group_gpio_enums Enumerated Types
 119:Generated_Source\PSoC6\pdl\drivers/peripheral/gpio/cy_gpio.h **** */
 120:Generated_Source\PSoC6\pdl\drivers/peripheral/gpio/cy_gpio.h **** 
 121:Generated_Source\PSoC6\pdl\drivers/peripheral/gpio/cy_gpio.h **** #if !defined(CY_GPIO_H)
 122:Generated_Source\PSoC6\pdl\drivers/peripheral/gpio/cy_gpio.h **** #define CY_GPIO_H
 123:Generated_Source\PSoC6\pdl\drivers/peripheral/gpio/cy_gpio.h **** 
 124:Generated_Source\PSoC6\pdl\drivers/peripheral/gpio/cy_gpio.h **** #include <stddef.h>
 125:Generated_Source\PSoC6\pdl\drivers/peripheral/gpio/cy_gpio.h **** #include "syslib/cy_syslib.h"
 126:Generated_Source\PSoC6\pdl\drivers/peripheral/gpio/cy_gpio.h **** #include "cy_device_headers.h"
 127:Generated_Source\PSoC6\pdl\drivers/peripheral/gpio/cy_gpio.h **** 
 128:Generated_Source\PSoC6\pdl\drivers/peripheral/gpio/cy_gpio.h **** #if defined(__cplusplus)
 129:Generated_Source\PSoC6\pdl\drivers/peripheral/gpio/cy_gpio.h **** extern "C" {
 130:Generated_Source\PSoC6\pdl\drivers/peripheral/gpio/cy_gpio.h **** #endif
 131:Generated_Source\PSoC6\pdl\drivers/peripheral/gpio/cy_gpio.h **** 
 132:Generated_Source\PSoC6\pdl\drivers/peripheral/gpio/cy_gpio.h **** /** \addtogroup group_gpio_macros
 133:Generated_Source\PSoC6\pdl\drivers/peripheral/gpio/cy_gpio.h **** * \{
 134:Generated_Source\PSoC6\pdl\drivers/peripheral/gpio/cy_gpio.h **** */
 135:Generated_Source\PSoC6\pdl\drivers/peripheral/gpio/cy_gpio.h **** 
 136:Generated_Source\PSoC6\pdl\drivers/peripheral/gpio/cy_gpio.h **** /** Driver major version */
 137:Generated_Source\PSoC6\pdl\drivers/peripheral/gpio/cy_gpio.h **** #define CY_GPIO_DRV_VERSION_MAJOR       1
 138:Generated_Source\PSoC6\pdl\drivers/peripheral/gpio/cy_gpio.h **** 
 139:Generated_Source\PSoC6\pdl\drivers/peripheral/gpio/cy_gpio.h **** /** Driver minor version */
 140:Generated_Source\PSoC6\pdl\drivers/peripheral/gpio/cy_gpio.h **** #define CY_GPIO_DRV_VERSION_MINOR       10
 141:Generated_Source\PSoC6\pdl\drivers/peripheral/gpio/cy_gpio.h **** 
 142:Generated_Source\PSoC6\pdl\drivers/peripheral/gpio/cy_gpio.h **** /** GPIO driver ID */
 143:Generated_Source\PSoC6\pdl\drivers/peripheral/gpio/cy_gpio.h **** #define CY_GPIO_ID CY_PDL_DRV_ID(0x16u)
 144:Generated_Source\PSoC6\pdl\drivers/peripheral/gpio/cy_gpio.h **** 
 145:Generated_Source\PSoC6\pdl\drivers/peripheral/gpio/cy_gpio.h **** /** \} group_gpio_macros */
 146:Generated_Source\PSoC6\pdl\drivers/peripheral/gpio/cy_gpio.h **** 
 147:Generated_Source\PSoC6\pdl\drivers/peripheral/gpio/cy_gpio.h **** 
 148:Generated_Source\PSoC6\pdl\drivers/peripheral/gpio/cy_gpio.h **** /***************************************
 149:Generated_Source\PSoC6\pdl\drivers/peripheral/gpio/cy_gpio.h **** *       Enumerations
 150:Generated_Source\PSoC6\pdl\drivers/peripheral/gpio/cy_gpio.h **** ***************************************/
 151:Generated_Source\PSoC6\pdl\drivers/peripheral/gpio/cy_gpio.h **** /**
 152:Generated_Source\PSoC6\pdl\drivers/peripheral/gpio/cy_gpio.h **** * \addtogroup group_gpio_enums
 153:Generated_Source\PSoC6\pdl\drivers/peripheral/gpio/cy_gpio.h **** * \{
 154:Generated_Source\PSoC6\pdl\drivers/peripheral/gpio/cy_gpio.h **** */
 155:Generated_Source\PSoC6\pdl\drivers/peripheral/gpio/cy_gpio.h **** 
 156:Generated_Source\PSoC6\pdl\drivers/peripheral/gpio/cy_gpio.h **** /**
 157:Generated_Source\PSoC6\pdl\drivers/peripheral/gpio/cy_gpio.h **** * GPIO Driver error codes
 158:Generated_Source\PSoC6\pdl\drivers/peripheral/gpio/cy_gpio.h **** */
 159:Generated_Source\PSoC6\pdl\drivers/peripheral/gpio/cy_gpio.h **** typedef enum 
 160:Generated_Source\PSoC6\pdl\drivers/peripheral/gpio/cy_gpio.h **** {
 161:Generated_Source\PSoC6\pdl\drivers/peripheral/gpio/cy_gpio.h ****     CY_GPIO_SUCCESS   = 0x00u,                                    /**< Returned successful */
 162:Generated_Source\PSoC6\pdl\drivers/peripheral/gpio/cy_gpio.h ****     CY_GPIO_BAD_PARAM = CY_GPIO_ID | CY_PDL_STATUS_ERROR | 0x01u, /**< Bad parameter was passed */
 163:Generated_Source\PSoC6\pdl\drivers/peripheral/gpio/cy_gpio.h **** } cy_en_gpio_status_t;
 164:Generated_Source\PSoC6\pdl\drivers/peripheral/gpio/cy_gpio.h **** 
ARM GAS  C:\Users\Agentos\AppData\Local\Temp\ccHiDLED.s 			page 16


 165:Generated_Source\PSoC6\pdl\drivers/peripheral/gpio/cy_gpio.h **** /** \} group_gpio_enums */
 166:Generated_Source\PSoC6\pdl\drivers/peripheral/gpio/cy_gpio.h **** 
 167:Generated_Source\PSoC6\pdl\drivers/peripheral/gpio/cy_gpio.h **** 
 168:Generated_Source\PSoC6\pdl\drivers/peripheral/gpio/cy_gpio.h **** /***************************************
 169:Generated_Source\PSoC6\pdl\drivers/peripheral/gpio/cy_gpio.h **** *       Configuration Structures
 170:Generated_Source\PSoC6\pdl\drivers/peripheral/gpio/cy_gpio.h **** ***************************************/
 171:Generated_Source\PSoC6\pdl\drivers/peripheral/gpio/cy_gpio.h **** 
 172:Generated_Source\PSoC6\pdl\drivers/peripheral/gpio/cy_gpio.h **** /**
 173:Generated_Source\PSoC6\pdl\drivers/peripheral/gpio/cy_gpio.h **** * \addtogroup group_gpio_data_structures
 174:Generated_Source\PSoC6\pdl\drivers/peripheral/gpio/cy_gpio.h **** * \{
 175:Generated_Source\PSoC6\pdl\drivers/peripheral/gpio/cy_gpio.h **** */
 176:Generated_Source\PSoC6\pdl\drivers/peripheral/gpio/cy_gpio.h **** 
 177:Generated_Source\PSoC6\pdl\drivers/peripheral/gpio/cy_gpio.h **** /** This structure is used to initialize a port of GPIO pins */
 178:Generated_Source\PSoC6\pdl\drivers/peripheral/gpio/cy_gpio.h **** typedef struct {
 179:Generated_Source\PSoC6\pdl\drivers/peripheral/gpio/cy_gpio.h ****     uint32_t out;           /**< Initial output data for the IO pins in the port */
 180:Generated_Source\PSoC6\pdl\drivers/peripheral/gpio/cy_gpio.h ****     uint32_t intrMask;      /**< Interrupt enable mask for the port interrupt */
 181:Generated_Source\PSoC6\pdl\drivers/peripheral/gpio/cy_gpio.h ****     uint32_t intrCfg;       /**< Port pin interrupt edge detection configuration */
 182:Generated_Source\PSoC6\pdl\drivers/peripheral/gpio/cy_gpio.h ****     uint32_t cfg;           /**< Port pin drive modes and input buffer enable configuration */
 183:Generated_Source\PSoC6\pdl\drivers/peripheral/gpio/cy_gpio.h ****     uint32_t cfgIn;         /**< Port pin input buffer configuration */
 184:Generated_Source\PSoC6\pdl\drivers/peripheral/gpio/cy_gpio.h ****     uint32_t cfgOut;        /**< Port pin output buffer configuration */
 185:Generated_Source\PSoC6\pdl\drivers/peripheral/gpio/cy_gpio.h ****     uint32_t cfgSIO;        /**< Port SIO pins configuration */
 186:Generated_Source\PSoC6\pdl\drivers/peripheral/gpio/cy_gpio.h ****     uint32_t sel0Active;    /**< HSIOM selection for port pins 0,1,2,3 */
 187:Generated_Source\PSoC6\pdl\drivers/peripheral/gpio/cy_gpio.h ****     uint32_t sel1Active;    /**< HSIOM selection for port pins 4,5,6,7 */
 188:Generated_Source\PSoC6\pdl\drivers/peripheral/gpio/cy_gpio.h **** } cy_stc_gpio_prt_config_t;
 189:Generated_Source\PSoC6\pdl\drivers/peripheral/gpio/cy_gpio.h **** 
 190:Generated_Source\PSoC6\pdl\drivers/peripheral/gpio/cy_gpio.h **** /** This structure is used to initialize a single GPIO pin */
 191:Generated_Source\PSoC6\pdl\drivers/peripheral/gpio/cy_gpio.h **** typedef struct {
 192:Generated_Source\PSoC6\pdl\drivers/peripheral/gpio/cy_gpio.h ****     uint32_t outVal;         /**< Pin output state */
 193:Generated_Source\PSoC6\pdl\drivers/peripheral/gpio/cy_gpio.h ****     uint32_t driveMode;      /**< Drive mode */
 194:Generated_Source\PSoC6\pdl\drivers/peripheral/gpio/cy_gpio.h ****     en_hsiom_sel_t hsiom;   /**< HSIOM selection */
 195:Generated_Source\PSoC6\pdl\drivers/peripheral/gpio/cy_gpio.h ****     uint32_t intEdge;        /**< Interrupt Edge type */
 196:Generated_Source\PSoC6\pdl\drivers/peripheral/gpio/cy_gpio.h ****     uint32_t intMask;        /**< Interrupt enable mask */
 197:Generated_Source\PSoC6\pdl\drivers/peripheral/gpio/cy_gpio.h ****     uint32_t vtrip;          /**< Input buffer voltage trip type */
 198:Generated_Source\PSoC6\pdl\drivers/peripheral/gpio/cy_gpio.h ****     uint32_t slewRate;       /**< Output buffer slew rate */
 199:Generated_Source\PSoC6\pdl\drivers/peripheral/gpio/cy_gpio.h ****     uint32_t driveSel;       /**< Drive strength */
 200:Generated_Source\PSoC6\pdl\drivers/peripheral/gpio/cy_gpio.h ****     uint32_t vregEn;         /**< SIO pair output buffer mode */
 201:Generated_Source\PSoC6\pdl\drivers/peripheral/gpio/cy_gpio.h ****     uint32_t ibufMode;       /**< SIO pair input buffer mode */
 202:Generated_Source\PSoC6\pdl\drivers/peripheral/gpio/cy_gpio.h ****     uint32_t vtripSel;       /**< SIO pair input buffer trip point */
 203:Generated_Source\PSoC6\pdl\drivers/peripheral/gpio/cy_gpio.h ****     uint32_t vrefSel;        /**< SIO pair reference voltage for input buffer trip point */
 204:Generated_Source\PSoC6\pdl\drivers/peripheral/gpio/cy_gpio.h ****     uint32_t vohSel;         /**< SIO pair regulated voltage output level */
 205:Generated_Source\PSoC6\pdl\drivers/peripheral/gpio/cy_gpio.h **** } cy_stc_gpio_pin_config_t;
 206:Generated_Source\PSoC6\pdl\drivers/peripheral/gpio/cy_gpio.h **** 
 207:Generated_Source\PSoC6\pdl\drivers/peripheral/gpio/cy_gpio.h **** /** \} group_gpio_data_structures */
 208:Generated_Source\PSoC6\pdl\drivers/peripheral/gpio/cy_gpio.h **** 
 209:Generated_Source\PSoC6\pdl\drivers/peripheral/gpio/cy_gpio.h **** /***************************************
 210:Generated_Source\PSoC6\pdl\drivers/peripheral/gpio/cy_gpio.h **** *        Constants
 211:Generated_Source\PSoC6\pdl\drivers/peripheral/gpio/cy_gpio.h **** ***************************************/
 212:Generated_Source\PSoC6\pdl\drivers/peripheral/gpio/cy_gpio.h **** 
 213:Generated_Source\PSoC6\pdl\drivers/peripheral/gpio/cy_gpio.h **** /** \cond INTERNAL */
 214:Generated_Source\PSoC6\pdl\drivers/peripheral/gpio/cy_gpio.h **** 
 215:Generated_Source\PSoC6\pdl\drivers/peripheral/gpio/cy_gpio.h **** /* General Constants */
 216:Generated_Source\PSoC6\pdl\drivers/peripheral/gpio/cy_gpio.h **** #define CY_GPIO_PRT_HALF                       (4UL)      /**< Half-way point of a GPIO port */
 217:Generated_Source\PSoC6\pdl\drivers/peripheral/gpio/cy_gpio.h **** #define CY_GPIO_PRT_DEINIT                     (0UL)      /**< De-init value for port registers */
 218:Generated_Source\PSoC6\pdl\drivers/peripheral/gpio/cy_gpio.h **** 
 219:Generated_Source\PSoC6\pdl\drivers/peripheral/gpio/cy_gpio.h **** /* GPIO Masks */
 220:Generated_Source\PSoC6\pdl\drivers/peripheral/gpio/cy_gpio.h **** #define CY_GPIO_HSIOM_MASK                     (0x1FUL)   /**< HSIOM selection mask */
 221:Generated_Source\PSoC6\pdl\drivers/peripheral/gpio/cy_gpio.h **** #define CY_GPIO_OUT_MASK                       (0x01UL)   /**< Single pin mask for OUT register */
ARM GAS  C:\Users\Agentos\AppData\Local\Temp\ccHiDLED.s 			page 17


 222:Generated_Source\PSoC6\pdl\drivers/peripheral/gpio/cy_gpio.h **** #define CY_GPIO_IN_MASK                        (0x01UL)   /**< Single pin mask for IN register */
 223:Generated_Source\PSoC6\pdl\drivers/peripheral/gpio/cy_gpio.h **** #define CY_GPIO_CFG_DM_MASK                    (0x0FUL)   /**< Single pin mask for drive mode in CF
 224:Generated_Source\PSoC6\pdl\drivers/peripheral/gpio/cy_gpio.h **** #define CY_GPIO_CFG_IN_VTRIP_SEL_MASK          (0x01UL)   /**< Single pin mask for VTRIP selection 
 225:Generated_Source\PSoC6\pdl\drivers/peripheral/gpio/cy_gpio.h **** #define CY_GPIO_CFG_OUT_SLOW_MASK              (0x01UL)   /**< Single pin mask for slew rate in CFG
 226:Generated_Source\PSoC6\pdl\drivers/peripheral/gpio/cy_gpio.h **** #define CY_GPIO_CFG_OUT_DRIVE_SEL_MASK         (0x03UL)   /**< Single pin mask for drive strength i
 227:Generated_Source\PSoC6\pdl\drivers/peripheral/gpio/cy_gpio.h **** #define CY_GPIO_INTR_STATUS_MASK               (0x01UL)   /**< Single pin mask for interrupt status
 228:Generated_Source\PSoC6\pdl\drivers/peripheral/gpio/cy_gpio.h **** #define CY_GPIO_INTR_EN_MASK                   (0x01UL)   /**< Single pin mask for interrupt status
 229:Generated_Source\PSoC6\pdl\drivers/peripheral/gpio/cy_gpio.h **** #define CY_GPIO_INTR_MASKED_MASK               (0x01UL)   /**< Single pin mask for masked interrupt
 230:Generated_Source\PSoC6\pdl\drivers/peripheral/gpio/cy_gpio.h **** #define CY_GPIO_INTR_SET_MASK                  (0x01UL)   /**< Single pin mask for setting the inte
 231:Generated_Source\PSoC6\pdl\drivers/peripheral/gpio/cy_gpio.h **** #define CY_GPIO_INTR_EDGE_MASK                 (0x03UL)   /**< Single pin mask for interrupt edge t
 232:Generated_Source\PSoC6\pdl\drivers/peripheral/gpio/cy_gpio.h **** #define CY_GPIO_INTR_FLT_EDGE_MASK             (0x07UL)   /**< Single pin mask for setting filtered
 233:Generated_Source\PSoC6\pdl\drivers/peripheral/gpio/cy_gpio.h **** 
 234:Generated_Source\PSoC6\pdl\drivers/peripheral/gpio/cy_gpio.h **** /* SIO Masks */
 235:Generated_Source\PSoC6\pdl\drivers/peripheral/gpio/cy_gpio.h **** #define CY_GPIO_VREG_EN_MASK                   (0x01UL)   /**< Single SIO pin mask for voltage regu
 236:Generated_Source\PSoC6\pdl\drivers/peripheral/gpio/cy_gpio.h **** #define CY_GPIO_IBUF_MASK                      (0x01UL)   /**< Single SIO pin mask for input buffer
 237:Generated_Source\PSoC6\pdl\drivers/peripheral/gpio/cy_gpio.h **** #define CY_GPIO_IBUF_SHIFT                     (0x01UL)   /**< Single SIO pin shift for input buffe
 238:Generated_Source\PSoC6\pdl\drivers/peripheral/gpio/cy_gpio.h **** #define CY_GPIO_VTRIP_SEL_MASK                 (0x01UL)   /**< Single SIO pin mask for the input bu
 239:Generated_Source\PSoC6\pdl\drivers/peripheral/gpio/cy_gpio.h **** #define CY_GPIO_VTRIP_SEL_SHIFT                (0x02UL)   /**< Single SIO pin shift for the input b
 240:Generated_Source\PSoC6\pdl\drivers/peripheral/gpio/cy_gpio.h **** #define CY_GPIO_VREF_SEL_MASK                  (0x03UL)   /**< Single SIO pin mask for voltage refe
 241:Generated_Source\PSoC6\pdl\drivers/peripheral/gpio/cy_gpio.h **** #define CY_GPIO_VREF_SEL_SHIFT                 (0x03UL)   /**< Single SIO pin shift for voltage ref
 242:Generated_Source\PSoC6\pdl\drivers/peripheral/gpio/cy_gpio.h **** #define CY_GPIO_VOH_SEL_MASK                   (0x07UL)   /**< Single SIO pin mask for VOH */
 243:Generated_Source\PSoC6\pdl\drivers/peripheral/gpio/cy_gpio.h **** #define CY_GPIO_VOH_SEL_SHIFT                  (0x05UL)   /**< Single SIO pin shift for VOH */
 244:Generated_Source\PSoC6\pdl\drivers/peripheral/gpio/cy_gpio.h **** 
 245:Generated_Source\PSoC6\pdl\drivers/peripheral/gpio/cy_gpio.h **** /* Special mask for SIO pin pair setting */
 246:Generated_Source\PSoC6\pdl\drivers/peripheral/gpio/cy_gpio.h **** #define CY_GPIO_SIO_ODD_PIN_MASK               (0x00FEUL) /**< SIO pin pair selection mask */
 247:Generated_Source\PSoC6\pdl\drivers/peripheral/gpio/cy_gpio.h **** #define CY_GPIO_SIO_PIN_MASK                   (0x00FFUL) /**< SIO pin pair mask */
 248:Generated_Source\PSoC6\pdl\drivers/peripheral/gpio/cy_gpio.h **** 
 249:Generated_Source\PSoC6\pdl\drivers/peripheral/gpio/cy_gpio.h **** /* Offsets */
 250:Generated_Source\PSoC6\pdl\drivers/peripheral/gpio/cy_gpio.h **** #define CY_GPIO_HSIOM_OFFSET                   (3UL)      /**< Offset for HSIOM */
 251:Generated_Source\PSoC6\pdl\drivers/peripheral/gpio/cy_gpio.h **** #define CY_GPIO_DRIVE_MODE_OFFSET              (2UL)      /**< Offset for Drive mode */
 252:Generated_Source\PSoC6\pdl\drivers/peripheral/gpio/cy_gpio.h **** #define CY_GPIO_INBUF_OFFSET                   (3UL)      /**< Offset for input buffer */
 253:Generated_Source\PSoC6\pdl\drivers/peripheral/gpio/cy_gpio.h **** #define CY_GPIO_CFG_OUT_DRIVE_OFFSET           (16UL)     /**< Offset for drive strength */
 254:Generated_Source\PSoC6\pdl\drivers/peripheral/gpio/cy_gpio.h **** #define CY_GPIO_INTR_CFG_OFFSET                (1UL)      /**< Offset for interrupt config */
 255:Generated_Source\PSoC6\pdl\drivers/peripheral/gpio/cy_gpio.h **** #define CY_GPIO_INTR_FILT_OFFSET               (18UL)     /**< Offset for filtered interrupt config
 256:Generated_Source\PSoC6\pdl\drivers/peripheral/gpio/cy_gpio.h **** #define CY_GPIO_CFG_SIO_OFFSET                 (2UL)      /**< Offset for SIO config */
 257:Generated_Source\PSoC6\pdl\drivers/peripheral/gpio/cy_gpio.h **** 
 258:Generated_Source\PSoC6\pdl\drivers/peripheral/gpio/cy_gpio.h **** /* Parameter validation constants */
 259:Generated_Source\PSoC6\pdl\drivers/peripheral/gpio/cy_gpio.h **** #define CY_GPIO_PINS_MAX                       (8UL)      /**< Number of pins in the port */
 260:Generated_Source\PSoC6\pdl\drivers/peripheral/gpio/cy_gpio.h **** #define CY_GPIO_PRT_PINS_MASK                  (0x0000000FFUL)
 261:Generated_Source\PSoC6\pdl\drivers/peripheral/gpio/cy_gpio.h **** #define CY_GPIO_PRT_INTR_CFG_EDGE_SEL_MASK     (GPIO_PRT_INTR_CFG_EDGE0_SEL_Msk | \
 262:Generated_Source\PSoC6\pdl\drivers/peripheral/gpio/cy_gpio.h ****                                                 GPIO_PRT_INTR_CFG_EDGE1_SEL_Msk | \
 263:Generated_Source\PSoC6\pdl\drivers/peripheral/gpio/cy_gpio.h ****                                                 GPIO_PRT_INTR_CFG_EDGE2_SEL_Msk | \
 264:Generated_Source\PSoC6\pdl\drivers/peripheral/gpio/cy_gpio.h ****                                                 GPIO_PRT_INTR_CFG_EDGE3_SEL_Msk | \
 265:Generated_Source\PSoC6\pdl\drivers/peripheral/gpio/cy_gpio.h ****                                                 GPIO_PRT_INTR_CFG_EDGE4_SEL_Msk | \
 266:Generated_Source\PSoC6\pdl\drivers/peripheral/gpio/cy_gpio.h ****                                                 GPIO_PRT_INTR_CFG_EDGE5_SEL_Msk | \
 267:Generated_Source\PSoC6\pdl\drivers/peripheral/gpio/cy_gpio.h ****                                                 GPIO_PRT_INTR_CFG_EDGE6_SEL_Msk | \
 268:Generated_Source\PSoC6\pdl\drivers/peripheral/gpio/cy_gpio.h ****                                                 GPIO_PRT_INTR_CFG_EDGE7_SEL_Msk)            
 269:Generated_Source\PSoC6\pdl\drivers/peripheral/gpio/cy_gpio.h **** #define CY_GPIO_PRT_INTR_CFG_RANGE_MASK        (CY_GPIO_PRT_INTR_CFG_EDGE_SEL_MASK | \
 270:Generated_Source\PSoC6\pdl\drivers/peripheral/gpio/cy_gpio.h ****                                                 GPIO_PRT_INTR_CFG_FLT_EDGE_SEL_Msk | \
 271:Generated_Source\PSoC6\pdl\drivers/peripheral/gpio/cy_gpio.h ****                                                 GPIO_PRT_INTR_CFG_FLT_SEL_Msk)
 272:Generated_Source\PSoC6\pdl\drivers/peripheral/gpio/cy_gpio.h **** #define CY_GPIO_PRT_INT_MASK_MASK              (0x0000001FFUL)
 273:Generated_Source\PSoC6\pdl\drivers/peripheral/gpio/cy_gpio.h **** #define CY_GPIO_PRT_SEL_ACTIVE_MASK            (0x1FFFFFFFUL)
 274:Generated_Source\PSoC6\pdl\drivers/peripheral/gpio/cy_gpio.h **** 
 275:Generated_Source\PSoC6\pdl\drivers/peripheral/gpio/cy_gpio.h **** /* Parameter validation macros */
 276:Generated_Source\PSoC6\pdl\drivers/peripheral/gpio/cy_gpio.h **** #define CY_GPIO_IS_PIN_VALID(pinNum)           (CY_GPIO_PINS_MAX > (pinNum))
 277:Generated_Source\PSoC6\pdl\drivers/peripheral/gpio/cy_gpio.h **** #define CY_GPIO_IS_FILTER_PIN_VALID(pinNum)    (CY_GPIO_PINS_MAX >= (pinNum))
 278:Generated_Source\PSoC6\pdl\drivers/peripheral/gpio/cy_gpio.h **** #define CY_GPIO_IS_VALUE_VALID(outVal)         (1UL >= (outVal))
ARM GAS  C:\Users\Agentos\AppData\Local\Temp\ccHiDLED.s 			page 18


 279:Generated_Source\PSoC6\pdl\drivers/peripheral/gpio/cy_gpio.h **** #define CY_GPIO_IS_DM_VALID(driveMode)         (0U == ((driveMode) & (uint32_t)~CY_GPIO_CFG_DM_MASK
 280:Generated_Source\PSoC6\pdl\drivers/peripheral/gpio/cy_gpio.h **** 
 281:Generated_Source\PSoC6\pdl\drivers/peripheral/gpio/cy_gpio.h **** #define CY_GPIO_IS_HSIOM_VALID(hsiom)          (0U == ((hsiom) & (uint32_t)~CY_GPIO_HSIOM_MASK))
 282:Generated_Source\PSoC6\pdl\drivers/peripheral/gpio/cy_gpio.h **** 
 283:Generated_Source\PSoC6\pdl\drivers/peripheral/gpio/cy_gpio.h **** #define CY_GPIO_IS_INT_EDGE_VALID(intEdge)     ((CY_GPIO_INTR_DISABLE  == (intEdge)) || \
 284:Generated_Source\PSoC6\pdl\drivers/peripheral/gpio/cy_gpio.h ****                                                 (CY_GPIO_INTR_RISING   == (intEdge)) || \
 285:Generated_Source\PSoC6\pdl\drivers/peripheral/gpio/cy_gpio.h ****                                                 (CY_GPIO_INTR_FALLING  == (intEdge)) || \
 286:Generated_Source\PSoC6\pdl\drivers/peripheral/gpio/cy_gpio.h ****                                                 (CY_GPIO_INTR_BOTH     == (intEdge)))
 287:Generated_Source\PSoC6\pdl\drivers/peripheral/gpio/cy_gpio.h **** 
 288:Generated_Source\PSoC6\pdl\drivers/peripheral/gpio/cy_gpio.h **** #define CY_GPIO_IS_DRIVE_SEL_VALID(driveSel)   ((CY_GPIO_DRIVE_FULL    == (driveSel)) || \
 289:Generated_Source\PSoC6\pdl\drivers/peripheral/gpio/cy_gpio.h ****                                                 (CY_GPIO_DRIVE_1_2     == (driveSel)) || \
 290:Generated_Source\PSoC6\pdl\drivers/peripheral/gpio/cy_gpio.h ****                                                 (CY_GPIO_DRIVE_1_4     == (driveSel)) || \
 291:Generated_Source\PSoC6\pdl\drivers/peripheral/gpio/cy_gpio.h ****                                                 (CY_GPIO_DRIVE_1_8     == (driveSel)))
 292:Generated_Source\PSoC6\pdl\drivers/peripheral/gpio/cy_gpio.h **** 
 293:Generated_Source\PSoC6\pdl\drivers/peripheral/gpio/cy_gpio.h **** #define CY_GPIO_IS_VREF_SEL_VALID(vrefSel)     ((CY_SIO_VREF_PINREF    == (vrefSel)) || \
 294:Generated_Source\PSoC6\pdl\drivers/peripheral/gpio/cy_gpio.h ****                                                 (CY_SIO_VREF_1_2V      == (vrefSel)) || \
 295:Generated_Source\PSoC6\pdl\drivers/peripheral/gpio/cy_gpio.h ****                                                 (CY_SIO_VREF_AMUX_A    == (vrefSel)) || \
 296:Generated_Source\PSoC6\pdl\drivers/peripheral/gpio/cy_gpio.h ****                                                 (CY_SIO_VREF_AMUX_B    == (vrefSel)))
 297:Generated_Source\PSoC6\pdl\drivers/peripheral/gpio/cy_gpio.h **** 
 298:Generated_Source\PSoC6\pdl\drivers/peripheral/gpio/cy_gpio.h **** #define CY_GPIO_IS_VOH_SEL_VALID(vrefSel)      ((CY_SIO_VOH_1_00       == (vrefSel)) || \
 299:Generated_Source\PSoC6\pdl\drivers/peripheral/gpio/cy_gpio.h ****                                                 (CY_SIO_VOH_1_25       == (vrefSel)) || \
 300:Generated_Source\PSoC6\pdl\drivers/peripheral/gpio/cy_gpio.h ****                                                 (CY_SIO_VOH_1_49       == (vrefSel)) || \
 301:Generated_Source\PSoC6\pdl\drivers/peripheral/gpio/cy_gpio.h ****                                                 (CY_SIO_VOH_1_67       == (vrefSel)) || \
 302:Generated_Source\PSoC6\pdl\drivers/peripheral/gpio/cy_gpio.h ****                                                 (CY_SIO_VOH_2_08       == (vrefSel)) || \
 303:Generated_Source\PSoC6\pdl\drivers/peripheral/gpio/cy_gpio.h ****                                                 (CY_SIO_VOH_2_50       == (vrefSel)) || \
 304:Generated_Source\PSoC6\pdl\drivers/peripheral/gpio/cy_gpio.h ****                                                 (CY_SIO_VOH_2_78       == (vrefSel)) || \
 305:Generated_Source\PSoC6\pdl\drivers/peripheral/gpio/cy_gpio.h ****                                                 (CY_SIO_VOH_4_16       == (vrefSel)))
 306:Generated_Source\PSoC6\pdl\drivers/peripheral/gpio/cy_gpio.h ****                    
 307:Generated_Source\PSoC6\pdl\drivers/peripheral/gpio/cy_gpio.h **** #define CY_GPIO_IS_PIN_BIT_VALID(pinBit)       (0U == ((pinBit) & (uint32_t)~CY_GPIO_PRT_PINS_MASK)
 308:Generated_Source\PSoC6\pdl\drivers/peripheral/gpio/cy_gpio.h **** #define CY_GPIO_IS_INTR_CFG_VALID(intrCfg)     (0U == ((intrCfg) & (uint32_t)~CY_GPIO_PRT_INTR_CFG_
 309:Generated_Source\PSoC6\pdl\drivers/peripheral/gpio/cy_gpio.h **** #define CY_GPIO_IS_INTR_MASK_VALID(intrMask)   (0U == ((intrMask) & (uint32_t)~CY_GPIO_PRT_INT_MASK
 310:Generated_Source\PSoC6\pdl\drivers/peripheral/gpio/cy_gpio.h **** #define CY_GPIO_IS_SEL_ACT_VALID(selActive)    (0U == ((selActive) & (uint32_t)~CY_GPIO_PRT_SEL_ACT
 311:Generated_Source\PSoC6\pdl\drivers/peripheral/gpio/cy_gpio.h **** 
 312:Generated_Source\PSoC6\pdl\drivers/peripheral/gpio/cy_gpio.h **** /** \endcond */
 313:Generated_Source\PSoC6\pdl\drivers/peripheral/gpio/cy_gpio.h **** 
 314:Generated_Source\PSoC6\pdl\drivers/peripheral/gpio/cy_gpio.h **** 
 315:Generated_Source\PSoC6\pdl\drivers/peripheral/gpio/cy_gpio.h **** /***************************************
 316:Generated_Source\PSoC6\pdl\drivers/peripheral/gpio/cy_gpio.h **** *        Function Constants
 317:Generated_Source\PSoC6\pdl\drivers/peripheral/gpio/cy_gpio.h **** ***************************************/
 318:Generated_Source\PSoC6\pdl\drivers/peripheral/gpio/cy_gpio.h **** 
 319:Generated_Source\PSoC6\pdl\drivers/peripheral/gpio/cy_gpio.h **** /**
 320:Generated_Source\PSoC6\pdl\drivers/peripheral/gpio/cy_gpio.h **** * \addtogroup group_gpio_macros
 321:Generated_Source\PSoC6\pdl\drivers/peripheral/gpio/cy_gpio.h **** * \{
 322:Generated_Source\PSoC6\pdl\drivers/peripheral/gpio/cy_gpio.h **** */
 323:Generated_Source\PSoC6\pdl\drivers/peripheral/gpio/cy_gpio.h **** 
 324:Generated_Source\PSoC6\pdl\drivers/peripheral/gpio/cy_gpio.h **** /**
 325:Generated_Source\PSoC6\pdl\drivers/peripheral/gpio/cy_gpio.h **** * \defgroup group_gpio_driveModes Pin drive mode
 326:Generated_Source\PSoC6\pdl\drivers/peripheral/gpio/cy_gpio.h **** * \{
 327:Generated_Source\PSoC6\pdl\drivers/peripheral/gpio/cy_gpio.h **** * Constants to be used for setting the drive mode of the pin.
 328:Generated_Source\PSoC6\pdl\drivers/peripheral/gpio/cy_gpio.h **** */
 329:Generated_Source\PSoC6\pdl\drivers/peripheral/gpio/cy_gpio.h **** #define CY_GPIO_DM_ANALOG                      (0x00UL) /**< \brief Analog High-Z. Input buffer off
 330:Generated_Source\PSoC6\pdl\drivers/peripheral/gpio/cy_gpio.h **** #define CY_GPIO_DM_PULLUP_IN_OFF               (0x02UL) /**< \brief Resistive Pull-Up. Input buffer
 331:Generated_Source\PSoC6\pdl\drivers/peripheral/gpio/cy_gpio.h **** #define CY_GPIO_DM_PULLDOWN_IN_OFF             (0x03UL) /**< \brief Resistive Pull-Down. Input buff
 332:Generated_Source\PSoC6\pdl\drivers/peripheral/gpio/cy_gpio.h **** #define CY_GPIO_DM_OD_DRIVESLOW_IN_OFF         (0x04UL) /**< \brief Open Drain, Drives Low. Input b
 333:Generated_Source\PSoC6\pdl\drivers/peripheral/gpio/cy_gpio.h **** #define CY_GPIO_DM_OD_DRIVESHIGH_IN_OFF        (0x05UL) /**< \brief Open Drain, Drives High. Input 
 334:Generated_Source\PSoC6\pdl\drivers/peripheral/gpio/cy_gpio.h **** #define CY_GPIO_DM_STRONG_IN_OFF               (0x06UL) /**< \brief Strong Drive. Input buffer off 
 335:Generated_Source\PSoC6\pdl\drivers/peripheral/gpio/cy_gpio.h **** #define CY_GPIO_DM_PULLUP_DOWN_IN_OFF          (0x07UL) /**< \brief Resistive Pull-Up/Down. Input b
ARM GAS  C:\Users\Agentos\AppData\Local\Temp\ccHiDLED.s 			page 19


 336:Generated_Source\PSoC6\pdl\drivers/peripheral/gpio/cy_gpio.h **** #define CY_GPIO_DM_HIGHZ                       (0x08UL) /**< \brief Digital High-Z. Input buffer on
 337:Generated_Source\PSoC6\pdl\drivers/peripheral/gpio/cy_gpio.h **** #define CY_GPIO_DM_PULLUP                      (0x0AUL) /**< \brief Resistive Pull-Up. Input buffer
 338:Generated_Source\PSoC6\pdl\drivers/peripheral/gpio/cy_gpio.h **** #define CY_GPIO_DM_PULLDOWN                    (0x0BUL) /**< \brief Resistive Pull-Down. Input buff
 339:Generated_Source\PSoC6\pdl\drivers/peripheral/gpio/cy_gpio.h **** #define CY_GPIO_DM_OD_DRIVESLOW                (0x0CUL) /**< \brief Open Drain, Drives Low. Input b
 340:Generated_Source\PSoC6\pdl\drivers/peripheral/gpio/cy_gpio.h **** #define CY_GPIO_DM_OD_DRIVESHIGH               (0x0DUL) /**< \brief Open Drain, Drives High. Input 
 341:Generated_Source\PSoC6\pdl\drivers/peripheral/gpio/cy_gpio.h **** #define CY_GPIO_DM_STRONG                      (0x0EUL) /**< \brief Strong Drive. Input buffer on *
 342:Generated_Source\PSoC6\pdl\drivers/peripheral/gpio/cy_gpio.h **** #define CY_GPIO_DM_PULLUP_DOWN                 (0x0FUL) /**< \brief Resistive Pull-Up/Down. Input b
 343:Generated_Source\PSoC6\pdl\drivers/peripheral/gpio/cy_gpio.h **** /** \} */
 344:Generated_Source\PSoC6\pdl\drivers/peripheral/gpio/cy_gpio.h **** 
 345:Generated_Source\PSoC6\pdl\drivers/peripheral/gpio/cy_gpio.h **** /**
 346:Generated_Source\PSoC6\pdl\drivers/peripheral/gpio/cy_gpio.h **** * \defgroup group_gpio_vtrip Voltage trip mode
 347:Generated_Source\PSoC6\pdl\drivers/peripheral/gpio/cy_gpio.h **** * \{
 348:Generated_Source\PSoC6\pdl\drivers/peripheral/gpio/cy_gpio.h **** * Constants to be used for setting the voltage trip type on the pin.
 349:Generated_Source\PSoC6\pdl\drivers/peripheral/gpio/cy_gpio.h **** */
 350:Generated_Source\PSoC6\pdl\drivers/peripheral/gpio/cy_gpio.h **** #define CY_GPIO_VTRIP_CMOS                     (0x00UL) /**< \brief Input buffer compatible with CM
 351:Generated_Source\PSoC6\pdl\drivers/peripheral/gpio/cy_gpio.h **** #define CY_GPIO_VTRIP_TTL                      (0x01UL) /**< \brief Input buffer compatible with TT
 352:Generated_Source\PSoC6\pdl\drivers/peripheral/gpio/cy_gpio.h **** /** \} */
 353:Generated_Source\PSoC6\pdl\drivers/peripheral/gpio/cy_gpio.h **** 
 354:Generated_Source\PSoC6\pdl\drivers/peripheral/gpio/cy_gpio.h **** /**
 355:Generated_Source\PSoC6\pdl\drivers/peripheral/gpio/cy_gpio.h **** * \defgroup group_gpio_slewRate Slew Rate Mode
 356:Generated_Source\PSoC6\pdl\drivers/peripheral/gpio/cy_gpio.h **** * \{
 357:Generated_Source\PSoC6\pdl\drivers/peripheral/gpio/cy_gpio.h **** * Constants to be used for setting the slew rate of the pin.
 358:Generated_Source\PSoC6\pdl\drivers/peripheral/gpio/cy_gpio.h **** */
 359:Generated_Source\PSoC6\pdl\drivers/peripheral/gpio/cy_gpio.h **** #define CY_GPIO_SLEW_FAST                      (0x00UL) /**< \brief Fast slew rate */
 360:Generated_Source\PSoC6\pdl\drivers/peripheral/gpio/cy_gpio.h **** #define CY_GPIO_SLEW_SLOW                      (0x01UL) /**< \brief Slow slew rate */
 361:Generated_Source\PSoC6\pdl\drivers/peripheral/gpio/cy_gpio.h **** /** \} */
 362:Generated_Source\PSoC6\pdl\drivers/peripheral/gpio/cy_gpio.h **** 
 363:Generated_Source\PSoC6\pdl\drivers/peripheral/gpio/cy_gpio.h **** /**
 364:Generated_Source\PSoC6\pdl\drivers/peripheral/gpio/cy_gpio.h **** * \defgroup group_gpio_driveStrength Pin drive strength
 365:Generated_Source\PSoC6\pdl\drivers/peripheral/gpio/cy_gpio.h **** * \{
 366:Generated_Source\PSoC6\pdl\drivers/peripheral/gpio/cy_gpio.h **** * Constants to be used for setting the drive strength of the pin.
 367:Generated_Source\PSoC6\pdl\drivers/peripheral/gpio/cy_gpio.h **** */
 368:Generated_Source\PSoC6\pdl\drivers/peripheral/gpio/cy_gpio.h **** #define CY_GPIO_DRIVE_FULL                     (0x00UL) /**< \brief Full drive strength: Max drive 
 369:Generated_Source\PSoC6\pdl\drivers/peripheral/gpio/cy_gpio.h **** #define CY_GPIO_DRIVE_1_2                      (0x01UL) /**< \brief 1/2 drive strength: 1/2 drive c
 370:Generated_Source\PSoC6\pdl\drivers/peripheral/gpio/cy_gpio.h **** #define CY_GPIO_DRIVE_1_4                      (0x02UL) /**< \brief 1/4 drive strength: 1/4 drive c
 371:Generated_Source\PSoC6\pdl\drivers/peripheral/gpio/cy_gpio.h **** #define CY_GPIO_DRIVE_1_8                      (0x03UL) /**< \brief 1/8 drive strength: 1/8 drive c
 372:Generated_Source\PSoC6\pdl\drivers/peripheral/gpio/cy_gpio.h **** /** \} */
 373:Generated_Source\PSoC6\pdl\drivers/peripheral/gpio/cy_gpio.h **** 
 374:Generated_Source\PSoC6\pdl\drivers/peripheral/gpio/cy_gpio.h **** /**
 375:Generated_Source\PSoC6\pdl\drivers/peripheral/gpio/cy_gpio.h **** * \defgroup group_gpio_interruptTrigger Interrupt trigger type
 376:Generated_Source\PSoC6\pdl\drivers/peripheral/gpio/cy_gpio.h **** * \{
 377:Generated_Source\PSoC6\pdl\drivers/peripheral/gpio/cy_gpio.h **** * Constants to be used for setting the interrupt trigger type on the pin.
 378:Generated_Source\PSoC6\pdl\drivers/peripheral/gpio/cy_gpio.h **** */
 379:Generated_Source\PSoC6\pdl\drivers/peripheral/gpio/cy_gpio.h **** #define CY_GPIO_INTR_DISABLE                   (0x00UL) /**< \brief Disable the pin interrupt gener
 380:Generated_Source\PSoC6\pdl\drivers/peripheral/gpio/cy_gpio.h **** #define CY_GPIO_INTR_RISING                    (0x01UL) /**< \brief Rising-Edge interrupt */
 381:Generated_Source\PSoC6\pdl\drivers/peripheral/gpio/cy_gpio.h **** #define CY_GPIO_INTR_FALLING                   (0x02UL) /**< \brief Falling-Edge interrupt */
 382:Generated_Source\PSoC6\pdl\drivers/peripheral/gpio/cy_gpio.h **** #define CY_GPIO_INTR_BOTH                      (0x03UL) /**< \brief Both-Edge interrupt */
 383:Generated_Source\PSoC6\pdl\drivers/peripheral/gpio/cy_gpio.h **** /** \} */
 384:Generated_Source\PSoC6\pdl\drivers/peripheral/gpio/cy_gpio.h **** 
 385:Generated_Source\PSoC6\pdl\drivers/peripheral/gpio/cy_gpio.h **** /**
 386:Generated_Source\PSoC6\pdl\drivers/peripheral/gpio/cy_gpio.h **** * \defgroup group_gpio_sioVreg SIO output buffer mode
 387:Generated_Source\PSoC6\pdl\drivers/peripheral/gpio/cy_gpio.h **** * \{
 388:Generated_Source\PSoC6\pdl\drivers/peripheral/gpio/cy_gpio.h **** * Constants to be used for setting the SIO output buffer mode on the pin.
 389:Generated_Source\PSoC6\pdl\drivers/peripheral/gpio/cy_gpio.h **** */
 390:Generated_Source\PSoC6\pdl\drivers/peripheral/gpio/cy_gpio.h **** #define CY_SIO_VREG_UNREGULATED                (0x00UL) /**< \brief Unregulated output buffer */
 391:Generated_Source\PSoC6\pdl\drivers/peripheral/gpio/cy_gpio.h **** #define CY_SIO_VREG_REGULATED                  (0x01UL) /**< \brief Regulated output buffer */
 392:Generated_Source\PSoC6\pdl\drivers/peripheral/gpio/cy_gpio.h **** /** \} */
ARM GAS  C:\Users\Agentos\AppData\Local\Temp\ccHiDLED.s 			page 20


 393:Generated_Source\PSoC6\pdl\drivers/peripheral/gpio/cy_gpio.h **** 
 394:Generated_Source\PSoC6\pdl\drivers/peripheral/gpio/cy_gpio.h **** /**
 395:Generated_Source\PSoC6\pdl\drivers/peripheral/gpio/cy_gpio.h **** * \defgroup group_gpio_sioIbuf SIO input buffer mode
 396:Generated_Source\PSoC6\pdl\drivers/peripheral/gpio/cy_gpio.h **** * \{
 397:Generated_Source\PSoC6\pdl\drivers/peripheral/gpio/cy_gpio.h **** * Constants to be used for setting the SIO input buffer mode on the pin.
 398:Generated_Source\PSoC6\pdl\drivers/peripheral/gpio/cy_gpio.h **** */
 399:Generated_Source\PSoC6\pdl\drivers/peripheral/gpio/cy_gpio.h **** #define CY_SIO_IBUF_SINGLEENDED                (0x00UL) /**< \brief Single ended input buffer */
 400:Generated_Source\PSoC6\pdl\drivers/peripheral/gpio/cy_gpio.h **** #define CY_SIO_IBUF_DIFFERENTIAL               (0x01UL) /**< \brief Differential input buffer */
 401:Generated_Source\PSoC6\pdl\drivers/peripheral/gpio/cy_gpio.h **** /** \} */
 402:Generated_Source\PSoC6\pdl\drivers/peripheral/gpio/cy_gpio.h **** 
 403:Generated_Source\PSoC6\pdl\drivers/peripheral/gpio/cy_gpio.h **** /**
 404:Generated_Source\PSoC6\pdl\drivers/peripheral/gpio/cy_gpio.h **** * \defgroup group_gpio_sioVtrip SIO input buffer trip-point
 405:Generated_Source\PSoC6\pdl\drivers/peripheral/gpio/cy_gpio.h **** * \{
 406:Generated_Source\PSoC6\pdl\drivers/peripheral/gpio/cy_gpio.h **** * Constants to be used for setting the SIO input buffer trip-point of the pin.
 407:Generated_Source\PSoC6\pdl\drivers/peripheral/gpio/cy_gpio.h **** */
 408:Generated_Source\PSoC6\pdl\drivers/peripheral/gpio/cy_gpio.h **** #define CY_SIO_VTRIP_CMOS                      (0x00UL) /**< \brief CMOS input buffer (single-ended
 409:Generated_Source\PSoC6\pdl\drivers/peripheral/gpio/cy_gpio.h **** #define CY_SIO_VTRIP_TTL                       (0x01UL) /**< \brief TTL input buffer (single-ended)
 410:Generated_Source\PSoC6\pdl\drivers/peripheral/gpio/cy_gpio.h **** #define CY_SIO_VTRIP_0_5VDDIO_0_5VOH           (0x00UL) /**< \brief 0.5xVddio or 0.5xVoh (different
 411:Generated_Source\PSoC6\pdl\drivers/peripheral/gpio/cy_gpio.h **** #define CY_SIO_VTRIP_0_4VDDIO_1_0VREF          (0x01UL) /**< \brief 0.4xVddio or 0.4xVoh (different
 412:Generated_Source\PSoC6\pdl\drivers/peripheral/gpio/cy_gpio.h **** /** \} */
 413:Generated_Source\PSoC6\pdl\drivers/peripheral/gpio/cy_gpio.h **** 
 414:Generated_Source\PSoC6\pdl\drivers/peripheral/gpio/cy_gpio.h **** /**
 415:Generated_Source\PSoC6\pdl\drivers/peripheral/gpio/cy_gpio.h **** * \defgroup group_gpio_sioVref SIO reference voltage for input buffer trip-point
 416:Generated_Source\PSoC6\pdl\drivers/peripheral/gpio/cy_gpio.h **** * \{
 417:Generated_Source\PSoC6\pdl\drivers/peripheral/gpio/cy_gpio.h **** * Constants to be used for setting the reference voltage of SIO input buffer trip-point.
 418:Generated_Source\PSoC6\pdl\drivers/peripheral/gpio/cy_gpio.h **** */
 419:Generated_Source\PSoC6\pdl\drivers/peripheral/gpio/cy_gpio.h **** #define CY_SIO_VREF_PINREF                     (0x00UL) /**< \brief Vref from analog pin */
 420:Generated_Source\PSoC6\pdl\drivers/peripheral/gpio/cy_gpio.h **** #define CY_SIO_VREF_1_2V                       (0x01UL) /**< \brief Vref from internal 1.2V referen
 421:Generated_Source\PSoC6\pdl\drivers/peripheral/gpio/cy_gpio.h **** #define CY_SIO_VREF_AMUX_A                     (0x02UL) /**< \brief Vref from AMUXBUS_A */
 422:Generated_Source\PSoC6\pdl\drivers/peripheral/gpio/cy_gpio.h **** #define CY_SIO_VREF_AMUX_B                     (0x03UL) /**< \brief Vref from AMUXBUS_B */
 423:Generated_Source\PSoC6\pdl\drivers/peripheral/gpio/cy_gpio.h **** /** \} */
 424:Generated_Source\PSoC6\pdl\drivers/peripheral/gpio/cy_gpio.h **** 
 425:Generated_Source\PSoC6\pdl\drivers/peripheral/gpio/cy_gpio.h **** /**
 426:Generated_Source\PSoC6\pdl\drivers/peripheral/gpio/cy_gpio.h **** * \defgroup group_gpio_sioVoh Regulated output voltage level (Voh) and input buffer trip-point of a
 427:Generated_Source\PSoC6\pdl\drivers/peripheral/gpio/cy_gpio.h **** * \{
 428:Generated_Source\PSoC6\pdl\drivers/peripheral/gpio/cy_gpio.h **** * Constants to be used for setting the Voh and input buffer trip-point of an SIO pair
 429:Generated_Source\PSoC6\pdl\drivers/peripheral/gpio/cy_gpio.h **** */
 430:Generated_Source\PSoC6\pdl\drivers/peripheral/gpio/cy_gpio.h **** #define CY_SIO_VOH_1_00                        (0x00UL) /**< \brief Voh = 1 x Reference */
 431:Generated_Source\PSoC6\pdl\drivers/peripheral/gpio/cy_gpio.h **** #define CY_SIO_VOH_1_25                        (0x01UL) /**< \brief Voh = 1.25 x Reference */
 432:Generated_Source\PSoC6\pdl\drivers/peripheral/gpio/cy_gpio.h **** #define CY_SIO_VOH_1_49                        (0x02UL) /**< \brief Voh = 1.49 x Reference */
 433:Generated_Source\PSoC6\pdl\drivers/peripheral/gpio/cy_gpio.h **** #define CY_SIO_VOH_1_67                        (0x03UL) /**< \brief Voh = 1.67 x Reference */
 434:Generated_Source\PSoC6\pdl\drivers/peripheral/gpio/cy_gpio.h **** #define CY_SIO_VOH_2_08                        (0x04UL) /**< \brief Voh = 2.08 x Reference */
 435:Generated_Source\PSoC6\pdl\drivers/peripheral/gpio/cy_gpio.h **** #define CY_SIO_VOH_2_50                        (0x05UL) /**< \brief Voh = 2.50 x Reference */
 436:Generated_Source\PSoC6\pdl\drivers/peripheral/gpio/cy_gpio.h **** #define CY_SIO_VOH_2_78                        (0x06UL) /**< \brief Voh = 2.78 x Reference */
 437:Generated_Source\PSoC6\pdl\drivers/peripheral/gpio/cy_gpio.h **** #define CY_SIO_VOH_4_16                        (0x07UL) /**< \brief Voh = 4.16 x Reference */
 438:Generated_Source\PSoC6\pdl\drivers/peripheral/gpio/cy_gpio.h **** /** \} */
 439:Generated_Source\PSoC6\pdl\drivers/peripheral/gpio/cy_gpio.h **** 
 440:Generated_Source\PSoC6\pdl\drivers/peripheral/gpio/cy_gpio.h **** /** \} group_gpio_macros */
 441:Generated_Source\PSoC6\pdl\drivers/peripheral/gpio/cy_gpio.h **** 
 442:Generated_Source\PSoC6\pdl\drivers/peripheral/gpio/cy_gpio.h **** /***************************************
 443:Generated_Source\PSoC6\pdl\drivers/peripheral/gpio/cy_gpio.h **** *        Function Prototypes
 444:Generated_Source\PSoC6\pdl\drivers/peripheral/gpio/cy_gpio.h **** ***************************************/
 445:Generated_Source\PSoC6\pdl\drivers/peripheral/gpio/cy_gpio.h **** 
 446:Generated_Source\PSoC6\pdl\drivers/peripheral/gpio/cy_gpio.h **** /**
 447:Generated_Source\PSoC6\pdl\drivers/peripheral/gpio/cy_gpio.h **** * \addtogroup group_gpio_functions
 448:Generated_Source\PSoC6\pdl\drivers/peripheral/gpio/cy_gpio.h **** * \{
 449:Generated_Source\PSoC6\pdl\drivers/peripheral/gpio/cy_gpio.h **** */
ARM GAS  C:\Users\Agentos\AppData\Local\Temp\ccHiDLED.s 			page 21


 450:Generated_Source\PSoC6\pdl\drivers/peripheral/gpio/cy_gpio.h **** 
 451:Generated_Source\PSoC6\pdl\drivers/peripheral/gpio/cy_gpio.h **** /**
 452:Generated_Source\PSoC6\pdl\drivers/peripheral/gpio/cy_gpio.h **** * \addtogroup group_gpio_functions_init
 453:Generated_Source\PSoC6\pdl\drivers/peripheral/gpio/cy_gpio.h **** * \{
 454:Generated_Source\PSoC6\pdl\drivers/peripheral/gpio/cy_gpio.h **** */
 455:Generated_Source\PSoC6\pdl\drivers/peripheral/gpio/cy_gpio.h **** 
 456:Generated_Source\PSoC6\pdl\drivers/peripheral/gpio/cy_gpio.h **** cy_en_gpio_status_t Cy_GPIO_Pin_Init(GPIO_PRT_Type* base, uint32_t pinNum, const cy_stc_gpio_pin_co
 457:Generated_Source\PSoC6\pdl\drivers/peripheral/gpio/cy_gpio.h **** cy_en_gpio_status_t Cy_GPIO_Port_Init(GPIO_PRT_Type* base, const cy_stc_gpio_prt_config_t *config);
 458:Generated_Source\PSoC6\pdl\drivers/peripheral/gpio/cy_gpio.h **** void Cy_GPIO_Pin_FastInit(GPIO_PRT_Type* base, uint32_t pinNum, uint32_t driveMode, uint32_t outVal
 459:Generated_Source\PSoC6\pdl\drivers/peripheral/gpio/cy_gpio.h **** void Cy_GPIO_Port_Deinit(GPIO_PRT_Type* base);
 460:Generated_Source\PSoC6\pdl\drivers/peripheral/gpio/cy_gpio.h **** __STATIC_INLINE void Cy_GPIO_SetHSIOM(GPIO_PRT_Type* base, uint32_t pinNum, en_hsiom_sel_t value);
 461:Generated_Source\PSoC6\pdl\drivers/peripheral/gpio/cy_gpio.h **** __STATIC_INLINE en_hsiom_sel_t Cy_GPIO_GetHSIOM(GPIO_PRT_Type* base, uint32_t pinNum);
 462:Generated_Source\PSoC6\pdl\drivers/peripheral/gpio/cy_gpio.h **** __STATIC_INLINE GPIO_PRT_Type* Cy_GPIO_PortToAddr(uint32_t portNum);
 463:Generated_Source\PSoC6\pdl\drivers/peripheral/gpio/cy_gpio.h **** 
 464:Generated_Source\PSoC6\pdl\drivers/peripheral/gpio/cy_gpio.h **** /** \} group_gpio_functions_init */
 465:Generated_Source\PSoC6\pdl\drivers/peripheral/gpio/cy_gpio.h **** 
 466:Generated_Source\PSoC6\pdl\drivers/peripheral/gpio/cy_gpio.h **** /**
 467:Generated_Source\PSoC6\pdl\drivers/peripheral/gpio/cy_gpio.h **** * \addtogroup group_gpio_functions_gpio
 468:Generated_Source\PSoC6\pdl\drivers/peripheral/gpio/cy_gpio.h **** * \{
 469:Generated_Source\PSoC6\pdl\drivers/peripheral/gpio/cy_gpio.h **** */
 470:Generated_Source\PSoC6\pdl\drivers/peripheral/gpio/cy_gpio.h **** 
 471:Generated_Source\PSoC6\pdl\drivers/peripheral/gpio/cy_gpio.h **** __STATIC_INLINE uint32_t Cy_GPIO_Read(GPIO_PRT_Type* base, uint32_t pinNum);
 472:Generated_Source\PSoC6\pdl\drivers/peripheral/gpio/cy_gpio.h **** __STATIC_INLINE void Cy_GPIO_Write(GPIO_PRT_Type* base, uint32_t pinNum, uint32_t value);
 473:Generated_Source\PSoC6\pdl\drivers/peripheral/gpio/cy_gpio.h **** __STATIC_INLINE uint32_t Cy_GPIO_ReadOut(GPIO_PRT_Type* base, uint32_t pinNum);
 474:Generated_Source\PSoC6\pdl\drivers/peripheral/gpio/cy_gpio.h **** __STATIC_INLINE void Cy_GPIO_Set(GPIO_PRT_Type* base, uint32_t pinNum);
 475:Generated_Source\PSoC6\pdl\drivers/peripheral/gpio/cy_gpio.h **** __STATIC_INLINE void Cy_GPIO_Clr(GPIO_PRT_Type* base, uint32_t pinNum);
 476:Generated_Source\PSoC6\pdl\drivers/peripheral/gpio/cy_gpio.h **** __STATIC_INLINE void Cy_GPIO_Inv(GPIO_PRT_Type* base, uint32_t pinNum);
 477:Generated_Source\PSoC6\pdl\drivers/peripheral/gpio/cy_gpio.h **** __STATIC_INLINE void Cy_GPIO_SetDrivemode(GPIO_PRT_Type* base, uint32_t pinNum, uint32_t value);
 478:Generated_Source\PSoC6\pdl\drivers/peripheral/gpio/cy_gpio.h **** __STATIC_INLINE uint32_t Cy_GPIO_GetDrivemode(GPIO_PRT_Type* base, uint32_t pinNum);
 479:Generated_Source\PSoC6\pdl\drivers/peripheral/gpio/cy_gpio.h **** __STATIC_INLINE void Cy_GPIO_SetVtrip(GPIO_PRT_Type* base, uint32_t pinNum, uint32_t value);
 480:Generated_Source\PSoC6\pdl\drivers/peripheral/gpio/cy_gpio.h **** __STATIC_INLINE uint32_t Cy_GPIO_GetVtrip(GPIO_PRT_Type* base, uint32_t pinNum);
 481:Generated_Source\PSoC6\pdl\drivers/peripheral/gpio/cy_gpio.h **** __STATIC_INLINE void Cy_GPIO_SetSlewRate(GPIO_PRT_Type* base, uint32_t pinNum, uint32_t value);
 482:Generated_Source\PSoC6\pdl\drivers/peripheral/gpio/cy_gpio.h **** __STATIC_INLINE uint32_t Cy_GPIO_GetSlewRate(GPIO_PRT_Type* base, uint32_t pinNum);
 483:Generated_Source\PSoC6\pdl\drivers/peripheral/gpio/cy_gpio.h **** __STATIC_INLINE void Cy_GPIO_SetDriveSel(GPIO_PRT_Type* base, uint32_t pinNum, uint32_t value);
 484:Generated_Source\PSoC6\pdl\drivers/peripheral/gpio/cy_gpio.h **** __STATIC_INLINE uint32_t Cy_GPIO_GetDriveSel(GPIO_PRT_Type* base, uint32_t pinNum);
 485:Generated_Source\PSoC6\pdl\drivers/peripheral/gpio/cy_gpio.h **** 
 486:Generated_Source\PSoC6\pdl\drivers/peripheral/gpio/cy_gpio.h **** /** \} group_gpio_functions_gpio */
 487:Generated_Source\PSoC6\pdl\drivers/peripheral/gpio/cy_gpio.h **** 
 488:Generated_Source\PSoC6\pdl\drivers/peripheral/gpio/cy_gpio.h **** /**
 489:Generated_Source\PSoC6\pdl\drivers/peripheral/gpio/cy_gpio.h **** * \addtogroup group_gpio_functions_sio
 490:Generated_Source\PSoC6\pdl\drivers/peripheral/gpio/cy_gpio.h **** * \{
 491:Generated_Source\PSoC6\pdl\drivers/peripheral/gpio/cy_gpio.h **** */
 492:Generated_Source\PSoC6\pdl\drivers/peripheral/gpio/cy_gpio.h **** 
 493:Generated_Source\PSoC6\pdl\drivers/peripheral/gpio/cy_gpio.h **** __STATIC_INLINE void Cy_GPIO_SetVregEn(GPIO_PRT_Type* base, uint32_t pinNum, uint32_t value);
 494:Generated_Source\PSoC6\pdl\drivers/peripheral/gpio/cy_gpio.h **** __STATIC_INLINE uint32_t Cy_GPIO_GetVregEn(GPIO_PRT_Type* base, uint32_t pinNum);
 495:Generated_Source\PSoC6\pdl\drivers/peripheral/gpio/cy_gpio.h **** __STATIC_INLINE void Cy_GPIO_SetIbufMode(GPIO_PRT_Type* base, uint32_t pinNum, uint32_t value);
 496:Generated_Source\PSoC6\pdl\drivers/peripheral/gpio/cy_gpio.h **** __STATIC_INLINE uint32_t Cy_GPIO_GetIbufMode(GPIO_PRT_Type* base, uint32_t pinNum);
 497:Generated_Source\PSoC6\pdl\drivers/peripheral/gpio/cy_gpio.h **** __STATIC_INLINE void Cy_GPIO_SetVtripSel(GPIO_PRT_Type* base, uint32_t pinNum, uint32_t value);
 498:Generated_Source\PSoC6\pdl\drivers/peripheral/gpio/cy_gpio.h **** __STATIC_INLINE uint32_t Cy_GPIO_GetVtripSel(GPIO_PRT_Type* base, uint32_t pinNum);
 499:Generated_Source\PSoC6\pdl\drivers/peripheral/gpio/cy_gpio.h **** __STATIC_INLINE void Cy_GPIO_SetVrefSel(GPIO_PRT_Type* base, uint32_t pinNum, uint32_t value);
 500:Generated_Source\PSoC6\pdl\drivers/peripheral/gpio/cy_gpio.h **** __STATIC_INLINE uint32_t Cy_GPIO_GetVrefSel(GPIO_PRT_Type* base, uint32_t pinNum);
 501:Generated_Source\PSoC6\pdl\drivers/peripheral/gpio/cy_gpio.h **** __STATIC_INLINE void Cy_GPIO_SetVohSel(GPIO_PRT_Type* base, uint32_t pinNum, uint32_t value);
 502:Generated_Source\PSoC6\pdl\drivers/peripheral/gpio/cy_gpio.h **** __STATIC_INLINE uint32_t Cy_GPIO_GetVohSel(GPIO_PRT_Type* base, uint32_t pinNum);
 503:Generated_Source\PSoC6\pdl\drivers/peripheral/gpio/cy_gpio.h **** 
 504:Generated_Source\PSoC6\pdl\drivers/peripheral/gpio/cy_gpio.h **** /** \} group_gpio_functions_sio */
 505:Generated_Source\PSoC6\pdl\drivers/peripheral/gpio/cy_gpio.h **** 
 506:Generated_Source\PSoC6\pdl\drivers/peripheral/gpio/cy_gpio.h **** /**
ARM GAS  C:\Users\Agentos\AppData\Local\Temp\ccHiDLED.s 			page 22


 507:Generated_Source\PSoC6\pdl\drivers/peripheral/gpio/cy_gpio.h **** * \addtogroup group_gpio_functions_interrupt
 508:Generated_Source\PSoC6\pdl\drivers/peripheral/gpio/cy_gpio.h **** * \{
 509:Generated_Source\PSoC6\pdl\drivers/peripheral/gpio/cy_gpio.h **** */
 510:Generated_Source\PSoC6\pdl\drivers/peripheral/gpio/cy_gpio.h **** 
 511:Generated_Source\PSoC6\pdl\drivers/peripheral/gpio/cy_gpio.h **** __STATIC_INLINE uint32_t Cy_GPIO_GetInterruptStatus(GPIO_PRT_Type* base, uint32_t pinNum);
 512:Generated_Source\PSoC6\pdl\drivers/peripheral/gpio/cy_gpio.h **** __STATIC_INLINE void Cy_GPIO_ClearInterrupt(GPIO_PRT_Type* base, uint32_t pinNum);
 513:Generated_Source\PSoC6\pdl\drivers/peripheral/gpio/cy_gpio.h **** __STATIC_INLINE void Cy_GPIO_SetInterruptMask(GPIO_PRT_Type* base, uint32_t pinNum, uint32_t value)
 514:Generated_Source\PSoC6\pdl\drivers/peripheral/gpio/cy_gpio.h **** __STATIC_INLINE uint32_t Cy_GPIO_GetInterruptMask(GPIO_PRT_Type* base, uint32_t pinNum);
 515:Generated_Source\PSoC6\pdl\drivers/peripheral/gpio/cy_gpio.h **** __STATIC_INLINE uint32_t Cy_GPIO_GetInterruptStatusMasked(GPIO_PRT_Type* base, uint32_t pinNum);
 516:Generated_Source\PSoC6\pdl\drivers/peripheral/gpio/cy_gpio.h **** __STATIC_INLINE void Cy_GPIO_SetSwInterrupt(GPIO_PRT_Type* base, uint32_t pinNum);
 517:Generated_Source\PSoC6\pdl\drivers/peripheral/gpio/cy_gpio.h **** __STATIC_INLINE void Cy_GPIO_SetInterruptEdge(GPIO_PRT_Type* base, uint32_t pinNum, uint32_t value)
 518:Generated_Source\PSoC6\pdl\drivers/peripheral/gpio/cy_gpio.h **** __STATIC_INLINE uint32_t Cy_GPIO_GetInterruptEdge(GPIO_PRT_Type* base, uint32_t pinNum);
 519:Generated_Source\PSoC6\pdl\drivers/peripheral/gpio/cy_gpio.h **** __STATIC_INLINE void Cy_GPIO_SetFilter(GPIO_PRT_Type* base, uint32_t value);
 520:Generated_Source\PSoC6\pdl\drivers/peripheral/gpio/cy_gpio.h **** __STATIC_INLINE uint32_t Cy_GPIO_GetFilter(GPIO_PRT_Type* base);
 521:Generated_Source\PSoC6\pdl\drivers/peripheral/gpio/cy_gpio.h **** 
 522:Generated_Source\PSoC6\pdl\drivers/peripheral/gpio/cy_gpio.h **** #if (IOSS_GPIO_GPIO_PORT_NR_0_31 != 0) || defined (CY_DOXYGEN)
 523:Generated_Source\PSoC6\pdl\drivers/peripheral/gpio/cy_gpio.h **** __STATIC_INLINE uint32_t Cy_GPIO_GetInterruptCause0(void);
 524:Generated_Source\PSoC6\pdl\drivers/peripheral/gpio/cy_gpio.h **** #endif /* (IOSS_GPIO_GPIO_PORT_NR_0_31 != 0) */
 525:Generated_Source\PSoC6\pdl\drivers/peripheral/gpio/cy_gpio.h **** 
 526:Generated_Source\PSoC6\pdl\drivers/peripheral/gpio/cy_gpio.h **** #if (IOSS_GPIO_GPIO_PORT_NR_32_63 != 0) || defined (CY_DOXYGEN)
 527:Generated_Source\PSoC6\pdl\drivers/peripheral/gpio/cy_gpio.h **** __STATIC_INLINE uint32_t Cy_GPIO_GetInterruptCause1(void);
 528:Generated_Source\PSoC6\pdl\drivers/peripheral/gpio/cy_gpio.h **** #endif /* (IOSS_GPIO_GPIO_PORT_NR_32_63 != 0) */
 529:Generated_Source\PSoC6\pdl\drivers/peripheral/gpio/cy_gpio.h **** 
 530:Generated_Source\PSoC6\pdl\drivers/peripheral/gpio/cy_gpio.h **** #if (IOSS_GPIO_GPIO_PORT_NR_64_95 != 0) || defined (CY_DOXYGEN)
 531:Generated_Source\PSoC6\pdl\drivers/peripheral/gpio/cy_gpio.h **** __STATIC_INLINE uint32_t Cy_GPIO_GetInterruptCause2(void);
 532:Generated_Source\PSoC6\pdl\drivers/peripheral/gpio/cy_gpio.h **** #endif /* (IOSS_GPIO_GPIO_PORT_NR_64_95 != 0) */
 533:Generated_Source\PSoC6\pdl\drivers/peripheral/gpio/cy_gpio.h **** 
 534:Generated_Source\PSoC6\pdl\drivers/peripheral/gpio/cy_gpio.h **** #if (IOSS_GPIO_GPIO_PORT_NR_96_127 != 0) || defined (CY_DOXYGEN)
 535:Generated_Source\PSoC6\pdl\drivers/peripheral/gpio/cy_gpio.h **** __STATIC_INLINE uint32_t Cy_GPIO_GetInterruptCause3(void);
 536:Generated_Source\PSoC6\pdl\drivers/peripheral/gpio/cy_gpio.h **** #endif /* (IOSS_GPIO_GPIO_PORT_NR_96_127 != 0) */
 537:Generated_Source\PSoC6\pdl\drivers/peripheral/gpio/cy_gpio.h **** 
 538:Generated_Source\PSoC6\pdl\drivers/peripheral/gpio/cy_gpio.h **** /** \} group_gpio_functions_interrupt */
 539:Generated_Source\PSoC6\pdl\drivers/peripheral/gpio/cy_gpio.h **** 
 540:Generated_Source\PSoC6\pdl\drivers/peripheral/gpio/cy_gpio.h **** 
 541:Generated_Source\PSoC6\pdl\drivers/peripheral/gpio/cy_gpio.h **** /**
 542:Generated_Source\PSoC6\pdl\drivers/peripheral/gpio/cy_gpio.h **** * \addtogroup group_gpio_functions_init
 543:Generated_Source\PSoC6\pdl\drivers/peripheral/gpio/cy_gpio.h **** * \{
 544:Generated_Source\PSoC6\pdl\drivers/peripheral/gpio/cy_gpio.h **** */
 545:Generated_Source\PSoC6\pdl\drivers/peripheral/gpio/cy_gpio.h **** 
 546:Generated_Source\PSoC6\pdl\drivers/peripheral/gpio/cy_gpio.h **** /*******************************************************************************
 547:Generated_Source\PSoC6\pdl\drivers/peripheral/gpio/cy_gpio.h **** * Function Name: Cy_GPIO_SetHSIOM
 548:Generated_Source\PSoC6\pdl\drivers/peripheral/gpio/cy_gpio.h **** ****************************************************************************//**
 549:Generated_Source\PSoC6\pdl\drivers/peripheral/gpio/cy_gpio.h **** *
 550:Generated_Source\PSoC6\pdl\drivers/peripheral/gpio/cy_gpio.h **** * \brief Configures the HSIOM connection to the pin.
 551:Generated_Source\PSoC6\pdl\drivers/peripheral/gpio/cy_gpio.h **** *
 552:Generated_Source\PSoC6\pdl\drivers/peripheral/gpio/cy_gpio.h **** * Connects the specified High-Speed Input Output Multiplexer (HSIOM) selection
 553:Generated_Source\PSoC6\pdl\drivers/peripheral/gpio/cy_gpio.h **** * to the pin.
 554:Generated_Source\PSoC6\pdl\drivers/peripheral/gpio/cy_gpio.h **** *
 555:Generated_Source\PSoC6\pdl\drivers/peripheral/gpio/cy_gpio.h **** * \param base
 556:Generated_Source\PSoC6\pdl\drivers/peripheral/gpio/cy_gpio.h **** * Pointer to the pin's port register base address
 557:Generated_Source\PSoC6\pdl\drivers/peripheral/gpio/cy_gpio.h **** *
 558:Generated_Source\PSoC6\pdl\drivers/peripheral/gpio/cy_gpio.h **** * \param pinNum
 559:Generated_Source\PSoC6\pdl\drivers/peripheral/gpio/cy_gpio.h **** * Position of the pin bit-field within the port register
 560:Generated_Source\PSoC6\pdl\drivers/peripheral/gpio/cy_gpio.h **** *
 561:Generated_Source\PSoC6\pdl\drivers/peripheral/gpio/cy_gpio.h **** * \param value
 562:Generated_Source\PSoC6\pdl\drivers/peripheral/gpio/cy_gpio.h **** * HSIOM input selection
 563:Generated_Source\PSoC6\pdl\drivers/peripheral/gpio/cy_gpio.h **** *
ARM GAS  C:\Users\Agentos\AppData\Local\Temp\ccHiDLED.s 			page 23


 564:Generated_Source\PSoC6\pdl\drivers/peripheral/gpio/cy_gpio.h **** * \return
 565:Generated_Source\PSoC6\pdl\drivers/peripheral/gpio/cy_gpio.h **** * void
 566:Generated_Source\PSoC6\pdl\drivers/peripheral/gpio/cy_gpio.h **** *
 567:Generated_Source\PSoC6\pdl\drivers/peripheral/gpio/cy_gpio.h **** * \note 
 568:Generated_Source\PSoC6\pdl\drivers/peripheral/gpio/cy_gpio.h **** * This function modifies a port register in a read-modify-write operation. It is
 569:Generated_Source\PSoC6\pdl\drivers/peripheral/gpio/cy_gpio.h **** * not thread safe as the resource is shared among multiple pins on a port.
 570:Generated_Source\PSoC6\pdl\drivers/peripheral/gpio/cy_gpio.h **** *
 571:Generated_Source\PSoC6\pdl\drivers/peripheral/gpio/cy_gpio.h **** * \funcusage
 572:Generated_Source\PSoC6\pdl\drivers/peripheral/gpio/cy_gpio.h **** * \snippet gpio/gpio_v1_10_sut_01.cydsn/main_cm4.c snippet_Cy_GPIO_SetHSIOM
 573:Generated_Source\PSoC6\pdl\drivers/peripheral/gpio/cy_gpio.h **** *
 574:Generated_Source\PSoC6\pdl\drivers/peripheral/gpio/cy_gpio.h **** *******************************************************************************/
 575:Generated_Source\PSoC6\pdl\drivers/peripheral/gpio/cy_gpio.h **** __STATIC_INLINE void Cy_GPIO_SetHSIOM(GPIO_PRT_Type* base, uint32_t pinNum, en_hsiom_sel_t value)
 576:Generated_Source\PSoC6\pdl\drivers/peripheral/gpio/cy_gpio.h **** {
 577:Generated_Source\PSoC6\pdl\drivers/peripheral/gpio/cy_gpio.h ****     uint32_t portNum;
 578:Generated_Source\PSoC6\pdl\drivers/peripheral/gpio/cy_gpio.h ****     uint32_t tempReg;
 579:Generated_Source\PSoC6\pdl\drivers/peripheral/gpio/cy_gpio.h ****     HSIOM_PRT_Type* portAddrHSIOM;
 580:Generated_Source\PSoC6\pdl\drivers/peripheral/gpio/cy_gpio.h **** 
 581:Generated_Source\PSoC6\pdl\drivers/peripheral/gpio/cy_gpio.h ****     CY_ASSERT_L2(CY_GPIO_IS_PIN_VALID(pinNum));
 582:Generated_Source\PSoC6\pdl\drivers/peripheral/gpio/cy_gpio.h ****     CY_ASSERT_L2(CY_GPIO_IS_HSIOM_VALID(value));
 583:Generated_Source\PSoC6\pdl\drivers/peripheral/gpio/cy_gpio.h **** 
 584:Generated_Source\PSoC6\pdl\drivers/peripheral/gpio/cy_gpio.h ****     portNum = ((uint32_t)(base) - GPIO_BASE) / GPIO_PRT_SECTION_SIZE;
 585:Generated_Source\PSoC6\pdl\drivers/peripheral/gpio/cy_gpio.h ****     portAddrHSIOM = (HSIOM_PRT_Type*)(HSIOM_BASE + (HSIOM_PRT_SECTION_SIZE * portNum));
 586:Generated_Source\PSoC6\pdl\drivers/peripheral/gpio/cy_gpio.h **** 
 587:Generated_Source\PSoC6\pdl\drivers/peripheral/gpio/cy_gpio.h ****     if(pinNum < CY_GPIO_PRT_HALF)
 588:Generated_Source\PSoC6\pdl\drivers/peripheral/gpio/cy_gpio.h ****     {
 589:Generated_Source\PSoC6\pdl\drivers/peripheral/gpio/cy_gpio.h ****         tempReg = portAddrHSIOM->PORT_SEL0 & ~(CY_GPIO_HSIOM_MASK << (pinNum << CY_GPIO_HSIOM_OFFSE
 590:Generated_Source\PSoC6\pdl\drivers/peripheral/gpio/cy_gpio.h ****         portAddrHSIOM->PORT_SEL0 = tempReg | ((value & CY_GPIO_HSIOM_MASK) << (pinNum << CY_GPIO_HS
 591:Generated_Source\PSoC6\pdl\drivers/peripheral/gpio/cy_gpio.h ****     }
 592:Generated_Source\PSoC6\pdl\drivers/peripheral/gpio/cy_gpio.h ****     else
 593:Generated_Source\PSoC6\pdl\drivers/peripheral/gpio/cy_gpio.h ****     {
 594:Generated_Source\PSoC6\pdl\drivers/peripheral/gpio/cy_gpio.h ****         pinNum -= CY_GPIO_PRT_HALF;
 595:Generated_Source\PSoC6\pdl\drivers/peripheral/gpio/cy_gpio.h ****         tempReg = portAddrHSIOM->PORT_SEL1 & ~(CY_GPIO_HSIOM_MASK << (pinNum << CY_GPIO_HSIOM_OFFSE
 596:Generated_Source\PSoC6\pdl\drivers/peripheral/gpio/cy_gpio.h ****         portAddrHSIOM->PORT_SEL1 = tempReg | ((value & CY_GPIO_HSIOM_MASK) << (pinNum << CY_GPIO_HS
 597:Generated_Source\PSoC6\pdl\drivers/peripheral/gpio/cy_gpio.h ****     }
 598:Generated_Source\PSoC6\pdl\drivers/peripheral/gpio/cy_gpio.h **** }
 599:Generated_Source\PSoC6\pdl\drivers/peripheral/gpio/cy_gpio.h **** 
 600:Generated_Source\PSoC6\pdl\drivers/peripheral/gpio/cy_gpio.h **** 
 601:Generated_Source\PSoC6\pdl\drivers/peripheral/gpio/cy_gpio.h **** /*******************************************************************************
 602:Generated_Source\PSoC6\pdl\drivers/peripheral/gpio/cy_gpio.h **** * Function Name: Cy_GPIO_GetHSIOM
 603:Generated_Source\PSoC6\pdl\drivers/peripheral/gpio/cy_gpio.h **** ****************************************************************************//**
 604:Generated_Source\PSoC6\pdl\drivers/peripheral/gpio/cy_gpio.h **** *
 605:Generated_Source\PSoC6\pdl\drivers/peripheral/gpio/cy_gpio.h **** * \brief Returns the current HSIOM multiplexer connection to the pin.
 606:Generated_Source\PSoC6\pdl\drivers/peripheral/gpio/cy_gpio.h **** *
 607:Generated_Source\PSoC6\pdl\drivers/peripheral/gpio/cy_gpio.h **** * \param base
 608:Generated_Source\PSoC6\pdl\drivers/peripheral/gpio/cy_gpio.h **** * Pointer to the pin's port register base address
 609:Generated_Source\PSoC6\pdl\drivers/peripheral/gpio/cy_gpio.h **** *
 610:Generated_Source\PSoC6\pdl\drivers/peripheral/gpio/cy_gpio.h **** * \param pinNum
 611:Generated_Source\PSoC6\pdl\drivers/peripheral/gpio/cy_gpio.h **** * Position of the pin bit-field within the port register
 612:Generated_Source\PSoC6\pdl\drivers/peripheral/gpio/cy_gpio.h **** *
 613:Generated_Source\PSoC6\pdl\drivers/peripheral/gpio/cy_gpio.h **** * \return
 614:Generated_Source\PSoC6\pdl\drivers/peripheral/gpio/cy_gpio.h **** * HSIOM input selection
 615:Generated_Source\PSoC6\pdl\drivers/peripheral/gpio/cy_gpio.h **** *
 616:Generated_Source\PSoC6\pdl\drivers/peripheral/gpio/cy_gpio.h **** * \funcusage
 617:Generated_Source\PSoC6\pdl\drivers/peripheral/gpio/cy_gpio.h **** * \snippet gpio/gpio_v1_10_sut_01.cydsn/main_cm4.c snippet_Cy_GPIO_SetHSIOM
 618:Generated_Source\PSoC6\pdl\drivers/peripheral/gpio/cy_gpio.h **** *
 619:Generated_Source\PSoC6\pdl\drivers/peripheral/gpio/cy_gpio.h **** *******************************************************************************/
 620:Generated_Source\PSoC6\pdl\drivers/peripheral/gpio/cy_gpio.h **** __STATIC_INLINE en_hsiom_sel_t Cy_GPIO_GetHSIOM(GPIO_PRT_Type* base, uint32_t pinNum)
ARM GAS  C:\Users\Agentos\AppData\Local\Temp\ccHiDLED.s 			page 24


 621:Generated_Source\PSoC6\pdl\drivers/peripheral/gpio/cy_gpio.h **** {
 622:Generated_Source\PSoC6\pdl\drivers/peripheral/gpio/cy_gpio.h ****     uint32_t returnValue;
 623:Generated_Source\PSoC6\pdl\drivers/peripheral/gpio/cy_gpio.h ****     uint32_t portNum;
 624:Generated_Source\PSoC6\pdl\drivers/peripheral/gpio/cy_gpio.h ****     HSIOM_PRT_Type* portAddrHSIOM;
 625:Generated_Source\PSoC6\pdl\drivers/peripheral/gpio/cy_gpio.h ****     
 626:Generated_Source\PSoC6\pdl\drivers/peripheral/gpio/cy_gpio.h ****     CY_ASSERT_L2(CY_GPIO_IS_PIN_VALID(pinNum));
 627:Generated_Source\PSoC6\pdl\drivers/peripheral/gpio/cy_gpio.h **** 
 628:Generated_Source\PSoC6\pdl\drivers/peripheral/gpio/cy_gpio.h ****     portNum = ((uint32_t)(base) - GPIO_BASE) / GPIO_PRT_SECTION_SIZE;
 629:Generated_Source\PSoC6\pdl\drivers/peripheral/gpio/cy_gpio.h ****     portAddrHSIOM = (HSIOM_PRT_Type*)(HSIOM_BASE + (HSIOM_PRT_SECTION_SIZE * portNum));
 630:Generated_Source\PSoC6\pdl\drivers/peripheral/gpio/cy_gpio.h **** 
 631:Generated_Source\PSoC6\pdl\drivers/peripheral/gpio/cy_gpio.h ****     if(pinNum < CY_GPIO_PRT_HALF)
 632:Generated_Source\PSoC6\pdl\drivers/peripheral/gpio/cy_gpio.h ****     {
 633:Generated_Source\PSoC6\pdl\drivers/peripheral/gpio/cy_gpio.h ****         returnValue = (portAddrHSIOM->PORT_SEL0 >> (pinNum << CY_GPIO_HSIOM_OFFSET)) & CY_GPIO_HSIO
 634:Generated_Source\PSoC6\pdl\drivers/peripheral/gpio/cy_gpio.h ****     }
 635:Generated_Source\PSoC6\pdl\drivers/peripheral/gpio/cy_gpio.h ****     else
 636:Generated_Source\PSoC6\pdl\drivers/peripheral/gpio/cy_gpio.h ****     {
 637:Generated_Source\PSoC6\pdl\drivers/peripheral/gpio/cy_gpio.h ****         pinNum -= CY_GPIO_PRT_HALF;
 638:Generated_Source\PSoC6\pdl\drivers/peripheral/gpio/cy_gpio.h ****         returnValue = (portAddrHSIOM->PORT_SEL1 >> (pinNum << CY_GPIO_HSIOM_OFFSET)) & CY_GPIO_HSIO
 639:Generated_Source\PSoC6\pdl\drivers/peripheral/gpio/cy_gpio.h ****     }
 640:Generated_Source\PSoC6\pdl\drivers/peripheral/gpio/cy_gpio.h **** 
 641:Generated_Source\PSoC6\pdl\drivers/peripheral/gpio/cy_gpio.h ****     return (en_hsiom_sel_t)returnValue;
 642:Generated_Source\PSoC6\pdl\drivers/peripheral/gpio/cy_gpio.h **** }
 643:Generated_Source\PSoC6\pdl\drivers/peripheral/gpio/cy_gpio.h **** 
 644:Generated_Source\PSoC6\pdl\drivers/peripheral/gpio/cy_gpio.h **** 
 645:Generated_Source\PSoC6\pdl\drivers/peripheral/gpio/cy_gpio.h **** /*******************************************************************************
 646:Generated_Source\PSoC6\pdl\drivers/peripheral/gpio/cy_gpio.h **** * Function Name: Cy_GPIO_PortToAddr
 647:Generated_Source\PSoC6\pdl\drivers/peripheral/gpio/cy_gpio.h **** ****************************************************************************//**
 648:Generated_Source\PSoC6\pdl\drivers/peripheral/gpio/cy_gpio.h **** *
 649:Generated_Source\PSoC6\pdl\drivers/peripheral/gpio/cy_gpio.h **** * \brief Retrieves the port address based on the given port number.
 650:Generated_Source\PSoC6\pdl\drivers/peripheral/gpio/cy_gpio.h **** *
 651:Generated_Source\PSoC6\pdl\drivers/peripheral/gpio/cy_gpio.h **** * This is a helper function to calculate the port base address when given a port
 652:Generated_Source\PSoC6\pdl\drivers/peripheral/gpio/cy_gpio.h **** * number. It is to be used when pin access needs to be calculated at runtime.
 653:Generated_Source\PSoC6\pdl\drivers/peripheral/gpio/cy_gpio.h **** *
 654:Generated_Source\PSoC6\pdl\drivers/peripheral/gpio/cy_gpio.h **** * \param portNum
 655:Generated_Source\PSoC6\pdl\drivers/peripheral/gpio/cy_gpio.h **** * Port number
 656:Generated_Source\PSoC6\pdl\drivers/peripheral/gpio/cy_gpio.h **** *
 657:Generated_Source\PSoC6\pdl\drivers/peripheral/gpio/cy_gpio.h **** * \return
 658:Generated_Source\PSoC6\pdl\drivers/peripheral/gpio/cy_gpio.h **** * Base address of the port register structure
 659:Generated_Source\PSoC6\pdl\drivers/peripheral/gpio/cy_gpio.h **** *
 660:Generated_Source\PSoC6\pdl\drivers/peripheral/gpio/cy_gpio.h **** * \funcusage
 661:Generated_Source\PSoC6\pdl\drivers/peripheral/gpio/cy_gpio.h **** * \snippet gpio/gpio_v1_10_sut_01.cydsn/main_cm4.c snippet_Cy_GPIO_PortToAddr
 662:Generated_Source\PSoC6\pdl\drivers/peripheral/gpio/cy_gpio.h **** *
 663:Generated_Source\PSoC6\pdl\drivers/peripheral/gpio/cy_gpio.h **** *******************************************************************************/
 664:Generated_Source\PSoC6\pdl\drivers/peripheral/gpio/cy_gpio.h **** __STATIC_INLINE GPIO_PRT_Type* Cy_GPIO_PortToAddr(uint32_t portNum)
 665:Generated_Source\PSoC6\pdl\drivers/peripheral/gpio/cy_gpio.h **** {
 666:Generated_Source\PSoC6\pdl\drivers/peripheral/gpio/cy_gpio.h ****     GPIO_PRT_Type* base;
 667:Generated_Source\PSoC6\pdl\drivers/peripheral/gpio/cy_gpio.h ****     
 668:Generated_Source\PSoC6\pdl\drivers/peripheral/gpio/cy_gpio.h ****     if(portNum < (uint32_t)IOSS_GPIO_GPIO_PORT_NR)
 669:Generated_Source\PSoC6\pdl\drivers/peripheral/gpio/cy_gpio.h ****     {
 670:Generated_Source\PSoC6\pdl\drivers/peripheral/gpio/cy_gpio.h ****          base = (GPIO_PRT_Type *)(GPIO_BASE + (GPIO_PRT_SECTION_SIZE * portNum));
 671:Generated_Source\PSoC6\pdl\drivers/peripheral/gpio/cy_gpio.h ****     }
 672:Generated_Source\PSoC6\pdl\drivers/peripheral/gpio/cy_gpio.h ****     else
 673:Generated_Source\PSoC6\pdl\drivers/peripheral/gpio/cy_gpio.h ****     {
 674:Generated_Source\PSoC6\pdl\drivers/peripheral/gpio/cy_gpio.h ****         /* Error: Return default base address */
 675:Generated_Source\PSoC6\pdl\drivers/peripheral/gpio/cy_gpio.h ****         base = (GPIO_PRT_Type *)(GPIO_BASE);
 676:Generated_Source\PSoC6\pdl\drivers/peripheral/gpio/cy_gpio.h ****     }
 677:Generated_Source\PSoC6\pdl\drivers/peripheral/gpio/cy_gpio.h **** 
ARM GAS  C:\Users\Agentos\AppData\Local\Temp\ccHiDLED.s 			page 25


 678:Generated_Source\PSoC6\pdl\drivers/peripheral/gpio/cy_gpio.h ****     return (base);
 679:Generated_Source\PSoC6\pdl\drivers/peripheral/gpio/cy_gpio.h **** }
 680:Generated_Source\PSoC6\pdl\drivers/peripheral/gpio/cy_gpio.h **** 
 681:Generated_Source\PSoC6\pdl\drivers/peripheral/gpio/cy_gpio.h **** /** \} group_gpio_functions_init */
 682:Generated_Source\PSoC6\pdl\drivers/peripheral/gpio/cy_gpio.h **** 
 683:Generated_Source\PSoC6\pdl\drivers/peripheral/gpio/cy_gpio.h **** /**
 684:Generated_Source\PSoC6\pdl\drivers/peripheral/gpio/cy_gpio.h **** * \addtogroup group_gpio_functions_gpio
 685:Generated_Source\PSoC6\pdl\drivers/peripheral/gpio/cy_gpio.h **** * \{
 686:Generated_Source\PSoC6\pdl\drivers/peripheral/gpio/cy_gpio.h **** */
 687:Generated_Source\PSoC6\pdl\drivers/peripheral/gpio/cy_gpio.h **** 
 688:Generated_Source\PSoC6\pdl\drivers/peripheral/gpio/cy_gpio.h **** /*******************************************************************************
 689:Generated_Source\PSoC6\pdl\drivers/peripheral/gpio/cy_gpio.h **** * Function Name: Cy_GPIO_Read
 690:Generated_Source\PSoC6\pdl\drivers/peripheral/gpio/cy_gpio.h **** ****************************************************************************//**
 691:Generated_Source\PSoC6\pdl\drivers/peripheral/gpio/cy_gpio.h **** *
 692:Generated_Source\PSoC6\pdl\drivers/peripheral/gpio/cy_gpio.h **** * \brief Reads the current logic level on the input buffer of the pin.
 693:Generated_Source\PSoC6\pdl\drivers/peripheral/gpio/cy_gpio.h **** *
 694:Generated_Source\PSoC6\pdl\drivers/peripheral/gpio/cy_gpio.h **** * \param base
 695:Generated_Source\PSoC6\pdl\drivers/peripheral/gpio/cy_gpio.h **** * Pointer to the pin's port register base address
 696:Generated_Source\PSoC6\pdl\drivers/peripheral/gpio/cy_gpio.h **** *
 697:Generated_Source\PSoC6\pdl\drivers/peripheral/gpio/cy_gpio.h **** * \param pinNum
 698:Generated_Source\PSoC6\pdl\drivers/peripheral/gpio/cy_gpio.h **** * Position of the pin bit-field within the port register.
 699:Generated_Source\PSoC6\pdl\drivers/peripheral/gpio/cy_gpio.h **** * Bit position 8 is the routed pin through the port glitch filter.
 700:Generated_Source\PSoC6\pdl\drivers/peripheral/gpio/cy_gpio.h **** *
 701:Generated_Source\PSoC6\pdl\drivers/peripheral/gpio/cy_gpio.h **** * \return
 702:Generated_Source\PSoC6\pdl\drivers/peripheral/gpio/cy_gpio.h **** * Logic level present on the pin
 703:Generated_Source\PSoC6\pdl\drivers/peripheral/gpio/cy_gpio.h **** *
 704:Generated_Source\PSoC6\pdl\drivers/peripheral/gpio/cy_gpio.h **** * \funcusage
 705:Generated_Source\PSoC6\pdl\drivers/peripheral/gpio/cy_gpio.h **** * \snippet gpio/gpio_v1_10_sut_01.cydsn/main_cm4.c snippet_Cy_GPIO_Read
 706:Generated_Source\PSoC6\pdl\drivers/peripheral/gpio/cy_gpio.h **** *
 707:Generated_Source\PSoC6\pdl\drivers/peripheral/gpio/cy_gpio.h **** *******************************************************************************/
 708:Generated_Source\PSoC6\pdl\drivers/peripheral/gpio/cy_gpio.h **** __STATIC_INLINE uint32_t Cy_GPIO_Read(GPIO_PRT_Type* base, uint32_t pinNum)
 709:Generated_Source\PSoC6\pdl\drivers/peripheral/gpio/cy_gpio.h **** {
 710:Generated_Source\PSoC6\pdl\drivers/peripheral/gpio/cy_gpio.h ****     CY_ASSERT_L2(CY_GPIO_IS_FILTER_PIN_VALID(pinNum));
 711:Generated_Source\PSoC6\pdl\drivers/peripheral/gpio/cy_gpio.h ****     
 712:Generated_Source\PSoC6\pdl\drivers/peripheral/gpio/cy_gpio.h ****     return (base->IN >> (pinNum)) & CY_GPIO_IN_MASK;
 713:Generated_Source\PSoC6\pdl\drivers/peripheral/gpio/cy_gpio.h **** }
 714:Generated_Source\PSoC6\pdl\drivers/peripheral/gpio/cy_gpio.h **** 
 715:Generated_Source\PSoC6\pdl\drivers/peripheral/gpio/cy_gpio.h **** 
 716:Generated_Source\PSoC6\pdl\drivers/peripheral/gpio/cy_gpio.h **** /*******************************************************************************
 717:Generated_Source\PSoC6\pdl\drivers/peripheral/gpio/cy_gpio.h **** * Function Name: Cy_GPIO_Write
 718:Generated_Source\PSoC6\pdl\drivers/peripheral/gpio/cy_gpio.h **** ****************************************************************************//**
 719:Generated_Source\PSoC6\pdl\drivers/peripheral/gpio/cy_gpio.h **** *
 720:Generated_Source\PSoC6\pdl\drivers/peripheral/gpio/cy_gpio.h **** * \brief Write a logic 0 or logic 1 state to the output driver.
 721:Generated_Source\PSoC6\pdl\drivers/peripheral/gpio/cy_gpio.h **** *
 722:Generated_Source\PSoC6\pdl\drivers/peripheral/gpio/cy_gpio.h **** * This function should be used only for software driven pins. It does not have
 723:Generated_Source\PSoC6\pdl\drivers/peripheral/gpio/cy_gpio.h **** * any effect on peripheral driven pins.
 724:Generated_Source\PSoC6\pdl\drivers/peripheral/gpio/cy_gpio.h **** *
 725:Generated_Source\PSoC6\pdl\drivers/peripheral/gpio/cy_gpio.h **** * \param base
 726:Generated_Source\PSoC6\pdl\drivers/peripheral/gpio/cy_gpio.h **** * Pointer to the pin's port register base address
 727:Generated_Source\PSoC6\pdl\drivers/peripheral/gpio/cy_gpio.h **** *
 728:Generated_Source\PSoC6\pdl\drivers/peripheral/gpio/cy_gpio.h **** * \param pinNum
 729:Generated_Source\PSoC6\pdl\drivers/peripheral/gpio/cy_gpio.h **** * Position of the pin bit-field within the port register
 730:Generated_Source\PSoC6\pdl\drivers/peripheral/gpio/cy_gpio.h **** *
 731:Generated_Source\PSoC6\pdl\drivers/peripheral/gpio/cy_gpio.h **** * \param value
 732:Generated_Source\PSoC6\pdl\drivers/peripheral/gpio/cy_gpio.h **** * Logic level to drive out on the pin
 733:Generated_Source\PSoC6\pdl\drivers/peripheral/gpio/cy_gpio.h **** *
 734:Generated_Source\PSoC6\pdl\drivers/peripheral/gpio/cy_gpio.h **** * \return
ARM GAS  C:\Users\Agentos\AppData\Local\Temp\ccHiDLED.s 			page 26


 735:Generated_Source\PSoC6\pdl\drivers/peripheral/gpio/cy_gpio.h **** * void
 736:Generated_Source\PSoC6\pdl\drivers/peripheral/gpio/cy_gpio.h **** *
 737:Generated_Source\PSoC6\pdl\drivers/peripheral/gpio/cy_gpio.h **** * \funcusage
 738:Generated_Source\PSoC6\pdl\drivers/peripheral/gpio/cy_gpio.h **** * \snippet gpio/gpio_v1_10_sut_01.cydsn/main_cm4.c snippet_Cy_GPIO_Write
 739:Generated_Source\PSoC6\pdl\drivers/peripheral/gpio/cy_gpio.h **** *
 740:Generated_Source\PSoC6\pdl\drivers/peripheral/gpio/cy_gpio.h **** *******************************************************************************/
 741:Generated_Source\PSoC6\pdl\drivers/peripheral/gpio/cy_gpio.h **** __STATIC_INLINE void Cy_GPIO_Write(GPIO_PRT_Type* base, uint32_t pinNum, uint32_t value)
 742:Generated_Source\PSoC6\pdl\drivers/peripheral/gpio/cy_gpio.h **** {
 743:Generated_Source\PSoC6\pdl\drivers/peripheral/gpio/cy_gpio.h ****     CY_ASSERT_L2(CY_GPIO_IS_PIN_VALID(pinNum));
 744:Generated_Source\PSoC6\pdl\drivers/peripheral/gpio/cy_gpio.h ****     CY_ASSERT_L2(CY_GPIO_IS_VALUE_VALID(value));
 745:Generated_Source\PSoC6\pdl\drivers/peripheral/gpio/cy_gpio.h **** 
 746:Generated_Source\PSoC6\pdl\drivers/peripheral/gpio/cy_gpio.h ****     /* Thread-safe: Directly access the pin registers instead of base->OUT */
 747:Generated_Source\PSoC6\pdl\drivers/peripheral/gpio/cy_gpio.h ****     if(0UL == value)
 748:Generated_Source\PSoC6\pdl\drivers/peripheral/gpio/cy_gpio.h ****     {
 749:Generated_Source\PSoC6\pdl\drivers/peripheral/gpio/cy_gpio.h ****         base->OUT_CLR = CY_GPIO_OUT_MASK << pinNum;
  94              		.loc 2 749 0
  95 0004 2022     		movs	r2, #32
  96 0006 194B     		ldr	r3, .L12
  97 0008 5A60     		str	r2, [r3, #4]
  98              	.LVL5:
  99              	.LBE14:
 100              	.LBE13:
 596:display_task.c ****     /* Counter variable for the startup screen */
 597:display_task.c ****     uint8_t static  startupScreenCounter = 0u;
 598:display_task.c ****     
 599:display_task.c ****     /* Turn on the Orange LED to indicate a display update in progress */
 600:display_task.c ****     Cy_GPIO_Write(Pin_LED_Orange_0_PORT, Pin_LED_Orange_0_NUM, 0u);
 601:display_task.c ****     
 602:display_task.c ****     /* If the existing image on the display belong to the startup type */
 603:display_task.c ****     if (currentScreenContent == STARTUP_CONTENT)
 101              		.loc 1 603 0
 102 000a 194B     		ldr	r3, .L12+4
 103 000c 1B78     		ldrb	r3, [r3]	@ zero_extendqisi2
 104 000e 022B     		cmp	r3, #2
 105 0010 10D1     		bne	.L7
 604:display_task.c ****     {
 605:display_task.c ****         /* Perform a full update to avoid ghosting as the startup images differ
 606:display_task.c ****            significantly from one another */
 607:display_task.c ****         Cy_EINK_ShowFrame(currentFrame, imagePointer, CY_EINK_FULL_2STAGE,
 106              		.loc 1 607 0
 107 0012 184D     		ldr	r5, .L12+8
 108 0014 0123     		movs	r3, #1
 109 0016 0222     		movs	r2, #2
 110 0018 0146     		mov	r1, r0
 111 001a 2868     		ldr	r0, [r5]
 112              	.LVL6:
 113 001c FFF7FEFF 		bl	Cy_EINK_ShowFrame
 114              	.LVL7:
 608:display_task.c ****                           CY_EINK_POWER_AUTO);
 609:display_task.c ****         
 610:display_task.c ****         /* Check if the end of startup screen is reached */
 611:display_task.c ****         if (startupScreenCounter >= NUMBER_OF_STARTUP_SCREENS)
 115              		.loc 1 611 0
 116 0020 2B79     		ldrb	r3, [r5, #4]	@ zero_extendqisi2
 117 0022 1BB1     		cbz	r3, .L8
 612:display_task.c ****         {
 613:display_task.c ****             /* Change the current screen content to main menu type */
ARM GAS  C:\Users\Agentos\AppData\Local\Temp\ccHiDLED.s 			page 27


 614:display_task.c ****             currentScreenContent = MAIN_MENU_CONTENT;
 118              		.loc 1 614 0
 119 0024 0022     		movs	r2, #0
 120 0026 124B     		ldr	r3, .L12+4
 121 0028 1A70     		strb	r2, [r3]
 122 002a 19E0     		b	.L9
 123              	.L8:
 615:display_task.c ****         }
 616:display_task.c ****         else
 617:display_task.c ****         {
 618:display_task.c ****             /* Increment the startup counter */
 619:display_task.c ****             startupScreenCounter++;
 124              		.loc 1 619 0
 125 002c 0133     		adds	r3, r3, #1
 126 002e 114A     		ldr	r2, .L12+8
 127 0030 1371     		strb	r3, [r2, #4]
 128 0032 15E0     		b	.L9
 129              	.LVL8:
 130              	.L7:
 620:display_task.c ****         }
 621:display_task.c ****     }
 622:display_task.c ****     /* If the existing image on the display belong to the startup type */
 623:display_task.c ****     else if (currentScreenContent == TEXT_PAGE_CONTENT)
 131              		.loc 1 623 0
 132 0034 012B     		cmp	r3, #1
 133 0036 09D1     		bne	.L10
 624:display_task.c ****     {
 625:display_task.c ****         /* Perform a full update to avoid ghosting as the text pages differ
 626:display_task.c ****            significantly from the main menu images */
 627:display_task.c ****         Cy_EINK_ShowFrame(currentFrame, imagePointer, CY_EINK_FULL_2STAGE,
 134              		.loc 1 627 0
 135 0038 0222     		movs	r2, #2
 136 003a 0146     		mov	r1, r0
 137 003c 0D48     		ldr	r0, .L12+8
 138              	.LVL9:
 139 003e 0068     		ldr	r0, [r0]
 140 0040 FFF7FEFF 		bl	Cy_EINK_ShowFrame
 141              	.LVL10:
 628:display_task.c ****                           CY_EINK_POWER_AUTO);
 629:display_task.c ****         
 630:display_task.c ****         /* Change the current screen content to main menu type */
 631:display_task.c ****         currentScreenContent = MAIN_MENU_CONTENT;
 142              		.loc 1 631 0
 143 0044 0022     		movs	r2, #0
 144 0046 0A4B     		ldr	r3, .L12+4
 145 0048 1A70     		strb	r2, [r3]
 146 004a 09E0     		b	.L9
 147              	.LVL11:
 148              	.L10:
 632:display_task.c ****     }
 633:display_task.c ****     /* If the existing image on the display belong to the main menu type */
 634:display_task.c ****     else
 635:display_task.c ****     {
 636:display_task.c ****         /* Perform a partial update for a fast refresh as the main menu images 
 637:display_task.c ****            are similar */
 638:display_task.c ****         Cy_EINK_ShowFrame(currentFrame, imagePointer, CY_EINK_PARTIAL, 
 149              		.loc 1 638 0
ARM GAS  C:\Users\Agentos\AppData\Local\Temp\ccHiDLED.s 			page 28


 150 004c 0123     		movs	r3, #1
 151 004e 0022     		movs	r2, #0
 152 0050 0146     		mov	r1, r0
 153 0052 0848     		ldr	r0, .L12+8
 154              	.LVL12:
 155 0054 0068     		ldr	r0, [r0]
 156 0056 FFF7FEFF 		bl	Cy_EINK_ShowFrame
 157              	.LVL13:
 639:display_task.c ****                           CY_EINK_POWER_AUTO);
 640:display_task.c ****         
 641:display_task.c ****         /* Change the current screen content to main menu type */
 642:display_task.c ****         currentScreenContent = MAIN_MENU_CONTENT;
 158              		.loc 1 642 0
 159 005a 0022     		movs	r2, #0
 160 005c 044B     		ldr	r3, .L12+4
 161 005e 1A70     		strb	r2, [r3]
 162              	.L9:
 643:display_task.c ****     }
 644:display_task.c ****     /* Store the pointer to the current image, which is required for subsequent 
 645:display_task.c ****        updates */
 646:display_task.c ****     currentFrame = imagePointer;
 163              		.loc 1 646 0
 164 0060 044B     		ldr	r3, .L12+8
 165 0062 1C60     		str	r4, [r3]
 166              	.LVL14:
 167              	.LBB15:
 168              	.LBB16:
 750:Generated_Source\PSoC6\pdl\drivers/peripheral/gpio/cy_gpio.h ****     }
 751:Generated_Source\PSoC6\pdl\drivers/peripheral/gpio/cy_gpio.h ****     else
 752:Generated_Source\PSoC6\pdl\drivers/peripheral/gpio/cy_gpio.h ****     {
 753:Generated_Source\PSoC6\pdl\drivers/peripheral/gpio/cy_gpio.h ****         base->OUT_SET = CY_GPIO_OUT_MASK << pinNum;
 169              		.loc 2 753 0
 170 0064 2022     		movs	r2, #32
 171 0066 014B     		ldr	r3, .L12
 172 0068 9A60     		str	r2, [r3, #8]
 173              	.LVL15:
 174 006a 38BD     		pop	{r3, r4, r5, pc}
 175              	.LVL16:
 176              	.L13:
 177              		.align	2
 178              	.L12:
 179 006c 80003240 		.word	1077018752
 180 0070 00000000 		.word	.LANCHOR0
 181 0074 00000000 		.word	.LANCHOR1
 182              	.LBE16:
 183              	.LBE15:
 184              		.cfi_endproc
 185              	.LFE528:
 186              		.size	DisplayImage, .-DisplayImage
 187              		.section	.text.BackToMainMenu,"ax",%progbits
 188              		.align	2
 189              		.thumb
 190              		.thumb_func
 191              		.type	BackToMainMenu, %function
 192              	BackToMainMenu:
 193              	.LFB522:
 329:display_task.c ****     /* Change the current screen type to main menu */
ARM GAS  C:\Users\Agentos\AppData\Local\Temp\ccHiDLED.s 			page 29


 194              		.loc 1 329 0
 195              		.cfi_startproc
 196              		@ args = 0, pretend = 0, frame = 0
 197              		@ frame_needed = 0, uses_anonymous_args = 0
 198 0000 08B5     		push	{r3, lr}
 199              		.cfi_def_cfa_offset 8
 200              		.cfi_offset 3, -8
 201              		.cfi_offset 14, -4
 331:display_task.c ****     
 202              		.loc 1 331 0
 203 0002 064B     		ldr	r3, .L16
 204 0004 0022     		movs	r2, #0
 205 0006 1A72     		strb	r2, [r3, #8]
 334:display_task.c **** }
 206              		.loc 1 334 0
 207 0008 5A7A     		ldrb	r2, [r3, #9]	@ zero_extendqisi2
 208 000a 054B     		ldr	r3, .L16+4
 209 000c 41F2B060 		movw	r0, #5808
 210 0010 00FB0230 		mla	r0, r0, r2, r3
 211 0014 FFF7FEFF 		bl	DisplayImage
 212              	.LVL17:
 213 0018 08BD     		pop	{r3, pc}
 214              	.L17:
 215 001a 00BF     		.align	2
 216              	.L16:
 217 001c 00000000 		.word	.LANCHOR1
 218 0020 00000000 		.word	mainMenuImage
 219              		.cfi_endproc
 220              	.LFE522:
 221              		.size	BackToMainMenu, .-BackToMainMenu
 222              		.section	.text.MoveArrowDown,"ax",%progbits
 223              		.align	2
 224              		.thumb
 225              		.thumb_func
 226              		.type	MoveArrowDown, %function
 227              	MoveArrowDown:
 228              	.LFB524:
 391:display_task.c ****     /* If the final item of the main menu is reached, then move the arrow to the
 229              		.loc 1 391 0
 230              		.cfi_startproc
 231              		@ args = 0, pretend = 0, frame = 0
 232              		@ frame_needed = 0, uses_anonymous_args = 0
 233 0000 08B5     		push	{r3, lr}
 234              		.cfi_def_cfa_offset 8
 235              		.cfi_offset 3, -8
 236              		.cfi_offset 14, -4
 394:display_task.c ****     {
 237              		.loc 1 394 0
 238 0002 0A4B     		ldr	r3, .L22
 239 0004 5B7A     		ldrb	r3, [r3, #9]	@ zero_extendqisi2
 240 0006 022B     		cmp	r3, #2
 241 0008 03D9     		bls	.L19
 396:display_task.c ****     }
 242              		.loc 1 396 0
 243 000a 0022     		movs	r2, #0
 244 000c 074B     		ldr	r3, .L22
 245 000e 5A72     		strb	r2, [r3, #9]
ARM GAS  C:\Users\Agentos\AppData\Local\Temp\ccHiDLED.s 			page 30


 246 0010 02E0     		b	.L20
 247              	.L19:
 401:display_task.c ****     }
 248              		.loc 1 401 0
 249 0012 0133     		adds	r3, r3, #1
 250 0014 054A     		ldr	r2, .L22
 251 0016 5372     		strb	r3, [r2, #9]
 252              	.L20:
 405:display_task.c **** }
 253              		.loc 1 405 0
 254 0018 044B     		ldr	r3, .L22
 255 001a 5A7A     		ldrb	r2, [r3, #9]	@ zero_extendqisi2
 256 001c 044B     		ldr	r3, .L22+4
 257 001e 41F2B060 		movw	r0, #5808
 258 0022 00FB0230 		mla	r0, r0, r2, r3
 259 0026 FFF7FEFF 		bl	DisplayImage
 260              	.LVL18:
 261 002a 08BD     		pop	{r3, pc}
 262              	.L23:
 263              		.align	2
 264              	.L22:
 265 002c 00000000 		.word	.LANCHOR1
 266 0030 00000000 		.word	mainMenuImage
 267              		.cfi_endproc
 268              	.LFE524:
 269              		.size	MoveArrowDown, .-MoveArrowDown
 270              		.section	.text.MoveArrowUp,"ax",%progbits
 271              		.align	2
 272              		.thumb
 273              		.thumb_func
 274              		.type	MoveArrowUp, %function
 275              	MoveArrowUp:
 276              	.LFB523:
 355:display_task.c ****     
 277              		.loc 1 355 0
 278              		.cfi_startproc
 279              		@ args = 0, pretend = 0, frame = 0
 280              		@ frame_needed = 0, uses_anonymous_args = 0
 281 0000 08B5     		push	{r3, lr}
 282              		.cfi_def_cfa_offset 8
 283              		.cfi_offset 3, -8
 284              		.cfi_offset 14, -4
 359:display_task.c ****     {
 285              		.loc 1 359 0
 286 0002 0A4B     		ldr	r3, .L28
 287 0004 5B7A     		ldrb	r3, [r3, #9]	@ zero_extendqisi2
 288 0006 1BB9     		cbnz	r3, .L25
 361:display_task.c ****     }
 289              		.loc 1 361 0
 290 0008 0322     		movs	r2, #3
 291 000a 084B     		ldr	r3, .L28
 292 000c 5A72     		strb	r2, [r3, #9]
 293 000e 02E0     		b	.L26
 294              	.L25:
 366:display_task.c ****     }
 295              		.loc 1 366 0
 296 0010 013B     		subs	r3, r3, #1
ARM GAS  C:\Users\Agentos\AppData\Local\Temp\ccHiDLED.s 			page 31


 297 0012 064A     		ldr	r2, .L28
 298 0014 5372     		strb	r3, [r2, #9]
 299              	.L26:
 370:display_task.c **** }
 300              		.loc 1 370 0
 301 0016 054B     		ldr	r3, .L28
 302 0018 5A7A     		ldrb	r2, [r3, #9]	@ zero_extendqisi2
 303 001a 054B     		ldr	r3, .L28+4
 304 001c 41F2B060 		movw	r0, #5808
 305 0020 00FB0230 		mla	r0, r0, r2, r3
 306 0024 FFF7FEFF 		bl	DisplayImage
 307              	.LVL19:
 308 0028 08BD     		pop	{r3, pc}
 309              	.L29:
 310 002a 00BF     		.align	2
 311              	.L28:
 312 002c 00000000 		.word	.LANCHOR1
 313 0030 00000000 		.word	mainMenuImage
 314              		.cfi_endproc
 315              	.LFE523:
 316              		.size	MoveArrowUp, .-MoveArrowUp
 317              		.section	.text.InitializeFrameBuffers,"ax",%progbits
 318              		.align	2
 319              		.thumb
 320              		.thumb_func
 321              		.type	InitializeFrameBuffers, %function
 322              	InitializeFrameBuffers:
 323              	.LFB527:
 537:display_task.c ****     /* Coordinates at which the text menu images cropped before loading to the
 324              		.loc 1 537 0
 325              		.cfi_startproc
 326              		@ args = 0, pretend = 0, frame = 8
 327              		@ frame_needed = 0, uses_anonymous_args = 0
 328              	.LVL20:
 329 0000 30B5     		push	{r4, r5, lr}
 330              		.cfi_def_cfa_offset 12
 331              		.cfi_offset 4, -12
 332              		.cfi_offset 5, -8
 333              		.cfi_offset 14, -4
 334 0002 83B0     		sub	sp, sp, #12
 335              		.cfi_def_cfa_offset 24
 336 0004 0446     		mov	r4, r0
 541:display_task.c ****     const uint8_t   cropBottom[] = CROP_BACKGROUND_BOTTOM;
 337              		.loc 1 541 0
 338 0006 124B     		ldr	r3, .L33
 339 0008 53F8040B 		ldr	r0, [r3], #4	@ unaligned
 340              	.LVL21:
 341 000c 0190     		str	r0, [sp, #4]	@ unaligned
 542:display_task.c ****     
 342              		.loc 1 542 0
 343 000e 1868     		ldr	r0, [r3]	@ unaligned
 344 0010 0090     		str	r0, [sp]	@ unaligned
 549:display_task.c ****     {
 345              		.loc 1 549 0
 346 0012 104B     		ldr	r3, .L33+4
 347 0014 5B78     		ldrb	r3, [r3, #1]	@ zero_extendqisi2
 348 0016 C3B1     		cbz	r3, .L30
ARM GAS  C:\Users\Agentos\AppData\Local\Temp\ccHiDLED.s 			page 32


 555:display_task.c ****                                    (uint8_t*) cropTop);
 349              		.loc 1 555 0
 350 0018 0F4D     		ldr	r5, .L33+8
 351 001a 01AA     		add	r2, sp, #4
 352 001c 2146     		mov	r1, r4
 353 001e 2846     		mov	r0, r5
 354 0020 FFF7FEFF 		bl	Cy_EINK_ImageToFrameBuffer
 355              	.LVL22:
 557:display_task.c ****                                    (uint8_t*) cropBottom);
 356              		.loc 1 557 0
 357 0024 6A46     		mov	r2, sp
 358 0026 2146     		mov	r1, r4
 359 0028 2846     		mov	r0, r5
 360 002a FFF7FEFF 		bl	Cy_EINK_ImageToFrameBuffer
 361              	.LVL23:
 559:display_task.c ****                                    (uint8_t*) cropTop);
 362              		.loc 1 559 0
 363 002e 0B4D     		ldr	r5, .L33+12
 364 0030 01AA     		add	r2, sp, #4
 365 0032 2146     		mov	r1, r4
 366 0034 2846     		mov	r0, r5
 367 0036 FFF7FEFF 		bl	Cy_EINK_ImageToFrameBuffer
 368              	.LVL24:
 561:display_task.c ****                                    (uint8_t*) cropBottom);
 369              		.loc 1 561 0
 370 003a 6A46     		mov	r2, sp
 371 003c 2146     		mov	r1, r4
 372 003e 2846     		mov	r0, r5
 373 0040 FFF7FEFF 		bl	Cy_EINK_ImageToFrameBuffer
 374              	.LVL25:
 565:display_task.c ****     }
 375              		.loc 1 565 0
 376 0044 0022     		movs	r2, #0
 377 0046 034B     		ldr	r3, .L33+4
 378 0048 5A70     		strb	r2, [r3, #1]
 379              	.L30:
 567:display_task.c **** 
 380              		.loc 1 567 0
 381 004a 03B0     		add	sp, sp, #12
 382              		.cfi_def_cfa_offset 12
 383              		@ sp needed
 384 004c 30BD     		pop	{r4, r5, pc}
 385              	.LVL26:
 386              	.L34:
 387 004e 00BF     		.align	2
 388              	.L33:
 389 0050 00000000 		.word	.LANCHOR2
 390 0054 00000000 		.word	.LANCHOR0
 391 0058 00000000 		.word	frameBuffer
 392 005c B0160000 		.word	frameBuffer+5808
 393              		.cfi_endproc
 394              	.LFE527:
 395              		.size	InitializeFrameBuffers, .-InitializeFrameBuffers
 396              		.section	.text.DisplayImageAndText,"ax",%progbits
 397              		.align	2
 398              		.thumb
 399              		.thumb_func
ARM GAS  C:\Users\Agentos\AppData\Local\Temp\ccHiDLED.s 			page 33


 400              		.type	DisplayImageAndText, %function
 401              	DisplayImageAndText:
 402              	.LFB529:
 647:display_task.c ****     
 648:display_task.c ****     /* Turn off the Orange LED to indicate that display update is finished */
 649:display_task.c ****     Cy_GPIO_Write(Pin_LED_Orange_0_PORT, Pin_LED_Orange_0_NUM, 1u);
 650:display_task.c **** }
 651:display_task.c **** 
 652:display_task.c **** /*******************************************************************************
 653:display_task.c **** * Function Name: void static DisplayImageAndText(char* text, cy_eink_image_t* 
 654:display_task.c **** *                                                            backgroundImage)
 655:display_task.c **** ********************************************************************************
 656:display_task.c **** *
 657:display_task.c **** * Summary:
 658:display_task.c **** *  Displays a string of text with a background image on the E-INK display
 659:display_task.c **** *
 660:display_task.c **** * Parameters:
 661:display_task.c **** *  char* text                             : pointer to the character string
 662:display_task.c **** *  cy_eink_image_t* backgroundImage       : pointer to the background image
 663:display_task.c **** *
 664:display_task.c **** * Return:
 665:display_task.c **** *  None
 666:display_task.c **** *
 667:display_task.c **** * Side Effects:
 668:display_task.c **** *  This function is hard-coded to work with the images, text, and font used in 
 669:display_task.c **** *  this code example. Since this is NOT A GENERIC FUNCTION, it NOT RECOMMENDED 
 670:display_task.c **** *  to copy/paste this function into a different project to display text on the 
 671:display_task.c **** *  E-INK display. It is recommended to use the E-INK library functions for such 
 672:display_task.c **** *  use cases. See Appendix A of the code example document for the details of 
 673:display_task.c **** *  E-INK library functions.
 674:display_task.c **** *
 675:display_task.c **** *******************************************************************************/
 676:display_task.c **** void static DisplayImageAndText(char* text, cy_eink_image_t* backgroundImage)
 677:display_task.c **** {
 403              		.loc 1 677 0
 404              		.cfi_startproc
 405              		@ args = 0, pretend = 0, frame = 8
 406              		@ frame_needed = 0, uses_anonymous_args = 0
 407              	.LVL27:
 408 0000 F0B5     		push	{r4, r5, r6, r7, lr}
 409              		.cfi_def_cfa_offset 20
 410              		.cfi_offset 4, -20
 411              		.cfi_offset 5, -16
 412              		.cfi_offset 6, -12
 413              		.cfi_offset 7, -8
 414              		.cfi_offset 14, -4
 415 0002 83B0     		sub	sp, sp, #12
 416              		.cfi_def_cfa_offset 32
 417 0004 0746     		mov	r7, r0
 678:display_task.c ****     /* Text pages used in this project start printing from these coordinates.
 679:display_task.c ****        See Appendix A of the code example document for the details of text and 
 680:display_task.c ****        font */
 681:display_task.c ****     const uint8_t   textOrigin[] = TEXT_PAGE_ORIGIN;
 418              		.loc 1 681 0
 419 0006 0023     		movs	r3, #0
 420 0008 8DF80430 		strb	r3, [sp, #4]
 421 000c 8DF80530 		strb	r3, [sp, #5]
ARM GAS  C:\Users\Agentos\AppData\Local\Temp\ccHiDLED.s 			page 34


 422              	.LVL28:
 423              	.LBB17:
 424              	.LBB18:
 749:Generated_Source\PSoC6\pdl\drivers/peripheral/gpio/cy_gpio.h ****     }
 425              		.loc 2 749 0
 426 0010 2022     		movs	r2, #32
 427 0012 174B     		ldr	r3, .L39
 428 0014 5A60     		str	r2, [r3, #4]
 429              	.LVL29:
 430              	.LBE18:
 431              	.LBE17:
 682:display_task.c ****     
 683:display_task.c ****     /* Turn on the Orange LED to indicate a display update in progress */
 684:display_task.c ****     Cy_GPIO_Write(Pin_LED_Orange_0_PORT, Pin_LED_Orange_0_NUM, 0u);
 685:display_task.c ****     
 686:display_task.c ****     /* Initialize the frame buffers with the background image. See the function
 687:display_task.c ****        definition for more details */
 688:display_task.c ****     InitializeFrameBuffers(backgroundImage);
 432              		.loc 1 688 0
 433 0016 0846     		mov	r0, r1
 434              	.LVL30:
 435 0018 FFF7FEFF 		bl	InitializeFrameBuffers
 436              	.LVL31:
 689:display_task.c ****     
 690:display_task.c ****     /* Two frame buffers are used in this project since the E-INK display 
 691:display_task.c ****        requires the retention of the previous as well as the current frame. The 
 692:display_task.c ****        code below finds the frame buffer used in the previous update and selects
 693:display_task.c ****        the other frame buffer to be overwritten by the current operation */
 694:display_task.c ****     if (currentFrameBuffer == BUFFER0)
 437              		.loc 1 694 0
 438 001c 154B     		ldr	r3, .L39+4
 439 001e DB7A     		ldrb	r3, [r3, #11]	@ zero_extendqisi2
 440 0020 1BB9     		cbnz	r3, .L36
 695:display_task.c ****     {
 696:display_task.c ****         currentFrameBuffer = BUFFER1;
 441              		.loc 1 696 0
 442 0022 0122     		movs	r2, #1
 443 0024 134B     		ldr	r3, .L39+4
 444 0026 DA72     		strb	r2, [r3, #11]
 445 0028 02E0     		b	.L37
 446              	.L36:
 697:display_task.c ****     }
 698:display_task.c ****     else
 699:display_task.c ****     {
 700:display_task.c ****         currentFrameBuffer = BUFFER0;
 447              		.loc 1 700 0
 448 002a 0022     		movs	r2, #0
 449 002c 114B     		ldr	r3, .L39+4
 450 002e DA72     		strb	r2, [r3, #11]
 451              	.L37:
 701:display_task.c ****     }
 702:display_task.c ****     /* Load the frame buffer with the current text Page content */
 703:display_task.c ****     Cy_EINK_TextToFrameBuffer(frameBuffer[currentFrameBuffer], text,
 452              		.loc 1 703 0
 453 0030 104C     		ldr	r4, .L39+4
 454 0032 E07A     		ldrb	r0, [r4, #11]	@ zero_extendqisi2
 455 0034 41F2B066 		movw	r6, #5808
ARM GAS  C:\Users\Agentos\AppData\Local\Temp\ccHiDLED.s 			page 35


 456 0038 0F4D     		ldr	r5, .L39+8
 457 003a 01AB     		add	r3, sp, #4
 458 003c 0F4A     		ldr	r2, .L39+12
 459 003e 3946     		mov	r1, r7
 460 0040 06FB0050 		mla	r0, r6, r0, r5
 461 0044 FFF7FEFF 		bl	Cy_EINK_TextToFrameBuffer
 462              	.LVL32:
 704:display_task.c ****                               CY_EINK_FONT_8X12BLACK, (uint8_t*) textOrigin);
 705:display_task.c ****     
 706:display_task.c ****     /* Perform a full update to avoid ghosting as the text pages differ
 707:display_task.c ****        significantly from one another and also from the main menu images */
 708:display_task.c ****     Cy_EINK_ShowFrame(currentFrame, frameBuffer[currentFrameBuffer],
 463              		.loc 1 708 0
 464 0048 E17A     		ldrb	r1, [r4, #11]	@ zero_extendqisi2
 465 004a 0123     		movs	r3, #1
 466 004c 0222     		movs	r2, #2
 467 004e 06FB0151 		mla	r1, r6, r1, r5
 468 0052 2068     		ldr	r0, [r4]
 469 0054 FFF7FEFF 		bl	Cy_EINK_ShowFrame
 470              	.LVL33:
 709:display_task.c ****                       CY_EINK_FULL_2STAGE, CY_EINK_POWER_AUTO);
 710:display_task.c ****     
 711:display_task.c ****     /* Store the pointer to the current frame, which is required for subsequent 
 712:display_task.c ****        updates */
 713:display_task.c ****     currentFrame = frameBuffer[currentFrameBuffer];
 471              		.loc 1 713 0
 472 0058 E37A     		ldrb	r3, [r4, #11]	@ zero_extendqisi2
 473 005a 06FB0353 		mla	r3, r6, r3, r5
 474 005e 2360     		str	r3, [r4]
 714:display_task.c ****     
 715:display_task.c ****     /* Change the current screen content to text page type */
 716:display_task.c ****     currentScreenContent = TEXT_PAGE_CONTENT;
 475              		.loc 1 716 0
 476 0060 0122     		movs	r2, #1
 477 0062 074B     		ldr	r3, .L39+16
 478 0064 1A70     		strb	r2, [r3]
 479              	.LVL34:
 480              	.LBB19:
 481              	.LBB20:
 482              		.loc 2 753 0
 483 0066 2022     		movs	r2, #32
 484 0068 014B     		ldr	r3, .L39
 485 006a 9A60     		str	r2, [r3, #8]
 486              	.LVL35:
 487              	.LBE20:
 488              	.LBE19:
 717:display_task.c ****     
 718:display_task.c ****     /* Turn off the Orange LED to indicate that display update is finished */
 719:display_task.c ****     Cy_GPIO_Write(Pin_LED_Orange_0_PORT, Pin_LED_Orange_0_NUM, 1u);
 720:display_task.c **** }
 489              		.loc 1 720 0
 490 006c 03B0     		add	sp, sp, #12
 491              		.cfi_def_cfa_offset 20
 492              		@ sp needed
 493 006e F0BD     		pop	{r4, r5, r6, r7, pc}
 494              	.LVL36:
 495              	.L40:
ARM GAS  C:\Users\Agentos\AppData\Local\Temp\ccHiDLED.s 			page 36


 496              		.align	2
 497              	.L39:
 498 0070 80003240 		.word	1077018752
 499 0074 00000000 		.word	.LANCHOR1
 500 0078 00000000 		.word	frameBuffer
 501 007c 00000000 		.word	cy_eink_font8By12_blackInWhite
 502 0080 00000000 		.word	.LANCHOR0
 503              		.cfi_endproc
 504              	.LFE529:
 505              		.size	DisplayImageAndText, .-DisplayImageAndText
 506              		.section	.text.NextTextPage,"ax",%progbits
 507              		.align	2
 508              		.thumb
 509              		.thumb_func
 510              		.type	NextTextPage, %function
 511              	NextTextPage:
 512              	.LFB526:
 476:display_task.c ****     /* Variable that stores the index of the character array, which in turn 
 513              		.loc 1 476 0
 514              		.cfi_startproc
 515              		@ args = 0, pretend = 0, frame = 0
 516              		@ frame_needed = 0, uses_anonymous_args = 0
 517 0000 08B5     		push	{r3, lr}
 518              		.cfi_def_cfa_offset 8
 519              		.cfi_offset 3, -8
 520              		.cfi_offset 14, -4
 483:display_task.c ****     {
 521              		.loc 1 483 0
 522 0002 104B     		ldr	r3, .L46
 523 0004 9A7A     		ldrb	r2, [r3, #10]	@ zero_extendqisi2
 524 0006 5B7A     		ldrb	r3, [r3, #9]	@ zero_extendqisi2
 525 0008 0F49     		ldr	r1, .L46+4
 526 000a C95C     		ldrb	r1, [r1, r3]	@ zero_extendqisi2
 527 000c 8A42     		cmp	r2, r1
 528 000e 03D3     		bcc	.L42
 485:display_task.c ****     }
 529              		.loc 1 485 0
 530 0010 0021     		movs	r1, #0
 531 0012 0C4A     		ldr	r2, .L46
 532 0014 9172     		strb	r1, [r2, #10]
 533 0016 02E0     		b	.L43
 534              	.L42:
 490:display_task.c ****     }
 535              		.loc 1 490 0
 536 0018 0132     		adds	r2, r2, #1
 537 001a 0A49     		ldr	r1, .L46
 538 001c 8A72     		strb	r2, [r1, #10]
 539              	.L43:
 496:display_task.c ****     
 540              		.loc 1 496 0
 541 001e 094A     		ldr	r2, .L46
 542 0020 917A     		ldrb	r1, [r2, #10]	@ zero_extendqisi2
 495:display_task.c ****                                     [currentScreen.textPage];
 543              		.loc 1 495 0
 544 0022 03EB8303 		add	r3, r3, r3, lsl #2
 545 0026 5A00     		lsls	r2, r3, #1
 546 0028 084B     		ldr	r3, .L46+8
ARM GAS  C:\Users\Agentos\AppData\Local\Temp\ccHiDLED.s 			page 37


 547 002a 1A44     		add	r2, r2, r3
 548 002c 535C     		ldrb	r3, [r2, r1]	@ zero_extendqisi2
 549              	.LVL37:
 499:display_task.c ****     {
 550              		.loc 1 499 0
 551 002e FF2B     		cmp	r3, #255
 552 0030 07D0     		beq	.L41
 502:display_task.c ****                             (cy_eink_image_t*) textPageBackground);
 553              		.loc 1 502 0
 554 0032 0749     		ldr	r1, .L46+12
 555 0034 074A     		ldr	r2, .L46+16
 556 0036 40F28D10 		movw	r0, #397
 557 003a 00FB0320 		mla	r0, r0, r3, r2
 558 003e FFF7FEFF 		bl	DisplayImageAndText
 559              	.LVL38:
 560              	.L41:
 561 0042 08BD     		pop	{r3, pc}
 562              	.L47:
 563              		.align	2
 564              	.L46:
 565 0044 00000000 		.word	.LANCHOR1
 566 0048 00000000 		.word	maxTextPageIndexes
 567 004c 00000000 		.word	textPageIndex
 568 0050 00000000 		.word	textPageBackground
 569 0054 00000000 		.word	textPage
 570              		.cfi_endproc
 571              	.LFE526:
 572              		.size	NextTextPage, .-NextTextPage
 573              		.section	.text.PreviousTextPage,"ax",%progbits
 574              		.align	2
 575              		.thumb
 576              		.thumb_func
 577              		.type	PreviousTextPage, %function
 578              	PreviousTextPage:
 579              	.LFB525:
 426:display_task.c ****     
 580              		.loc 1 426 0
 581              		.cfi_startproc
 582              		@ args = 0, pretend = 0, frame = 0
 583              		@ frame_needed = 0, uses_anonymous_args = 0
 584 0000 08B5     		push	{r3, lr}
 585              		.cfi_def_cfa_offset 8
 586              		.cfi_offset 3, -8
 587              		.cfi_offset 14, -4
 434:display_task.c ****     {
 588              		.loc 1 434 0
 589 0002 104B     		ldr	r3, .L53
 590 0004 9B7A     		ldrb	r3, [r3, #10]	@ zero_extendqisi2
 591 0006 2BB9     		cbnz	r3, .L49
 436:display_task.c ****     }
 592              		.loc 1 436 0
 593 0008 0E4B     		ldr	r3, .L53
 594 000a 5A7A     		ldrb	r2, [r3, #9]	@ zero_extendqisi2
 595 000c 0E49     		ldr	r1, .L53+4
 596 000e 8A5C     		ldrb	r2, [r1, r2]	@ zero_extendqisi2
 597 0010 9A72     		strb	r2, [r3, #10]
 598 0012 02E0     		b	.L50
ARM GAS  C:\Users\Agentos\AppData\Local\Temp\ccHiDLED.s 			page 38


 599              	.L49:
 441:display_task.c ****     }
 600              		.loc 1 441 0
 601 0014 013B     		subs	r3, r3, #1
 602 0016 0B4A     		ldr	r2, .L53
 603 0018 9372     		strb	r3, [r2, #10]
 604              	.L50:
 446:display_task.c ****                                     [currentScreen.textPage];
 605              		.loc 1 446 0
 606 001a 0A4A     		ldr	r2, .L53
 607 001c 537A     		ldrb	r3, [r2, #9]	@ zero_extendqisi2
 447:display_task.c ****     
 608              		.loc 1 447 0
 609 001e 917A     		ldrb	r1, [r2, #10]	@ zero_extendqisi2
 446:display_task.c ****                                     [currentScreen.textPage];
 610              		.loc 1 446 0
 611 0020 03EB8303 		add	r3, r3, r3, lsl #2
 612 0024 5A00     		lsls	r2, r3, #1
 613 0026 094B     		ldr	r3, .L53+8
 614 0028 1A44     		add	r2, r2, r3
 615 002a 535C     		ldrb	r3, [r2, r1]	@ zero_extendqisi2
 616              	.LVL39:
 450:display_task.c ****     {
 617              		.loc 1 450 0
 618 002c FF2B     		cmp	r3, #255
 619 002e 07D0     		beq	.L48
 453:display_task.c ****                             (cy_eink_image_t*) textPageBackground);
 620              		.loc 1 453 0
 621 0030 0749     		ldr	r1, .L53+12
 622 0032 084A     		ldr	r2, .L53+16
 623 0034 40F28D10 		movw	r0, #397
 624 0038 00FB0320 		mla	r0, r0, r3, r2
 625 003c FFF7FEFF 		bl	DisplayImageAndText
 626              	.LVL40:
 627              	.L48:
 628 0040 08BD     		pop	{r3, pc}
 629              	.L54:
 630 0042 00BF     		.align	2
 631              	.L53:
 632 0044 00000000 		.word	.LANCHOR1
 633 0048 00000000 		.word	maxTextPageIndexes
 634 004c 00000000 		.word	textPageIndex
 635 0050 00000000 		.word	textPageBackground
 636 0054 00000000 		.word	textPage
 637              		.cfi_endproc
 638              	.LFE525:
 639              		.size	PreviousTextPage, .-PreviousTextPage
 640              		.section	.text.GoToTextPage,"ax",%progbits
 641              		.align	2
 642              		.thumb
 643              		.thumb_func
 644              		.type	GoToTextPage, %function
 645              	GoToTextPage:
 646              	.LFB521:
 286:display_task.c ****     /* Variable that stores the index of the character array, which in turn 
 647              		.loc 1 286 0
 648              		.cfi_startproc
ARM GAS  C:\Users\Agentos\AppData\Local\Temp\ccHiDLED.s 			page 39


 649              		@ args = 0, pretend = 0, frame = 0
 650              		@ frame_needed = 0, uses_anonymous_args = 0
 651 0000 08B5     		push	{r3, lr}
 652              		.cfi_def_cfa_offset 8
 653              		.cfi_offset 3, -8
 654              		.cfi_offset 14, -4
 292:display_task.c **** 
 655              		.loc 1 292 0
 656 0002 0B4B     		ldr	r3, .L58
 657 0004 0122     		movs	r2, #1
 658 0006 1A72     		strb	r2, [r3, #8]
 295:display_task.c ****     
 659              		.loc 1 295 0
 660 0008 0022     		movs	r2, #0
 661 000a 9A72     		strb	r2, [r3, #10]
 299:display_task.c ****                                     [currentScreen.textPage];
 662              		.loc 1 299 0
 663 000c 5B7A     		ldrb	r3, [r3, #9]	@ zero_extendqisi2
 664 000e 03EB8303 		add	r3, r3, r3, lsl #2
 665 0012 5A00     		lsls	r2, r3, #1
 666 0014 074B     		ldr	r3, .L58+4
 667 0016 9B5C     		ldrb	r3, [r3, r2]	@ zero_extendqisi2
 668              	.LVL41:
 303:display_task.c ****     {
 669              		.loc 1 303 0
 670 0018 FF2B     		cmp	r3, #255
 671 001a 07D0     		beq	.L55
 306:display_task.c ****                             (cy_eink_image_t*) textPageBackground);
 672              		.loc 1 306 0
 673 001c 0649     		ldr	r1, .L58+8
 674 001e 074A     		ldr	r2, .L58+12
 675 0020 40F28D10 		movw	r0, #397
 676 0024 00FB0320 		mla	r0, r0, r3, r2
 677 0028 FFF7FEFF 		bl	DisplayImageAndText
 678              	.LVL42:
 679              	.L55:
 680 002c 08BD     		pop	{r3, pc}
 681              	.L59:
 682 002e 00BF     		.align	2
 683              	.L58:
 684 0030 00000000 		.word	.LANCHOR1
 685 0034 00000000 		.word	textPageIndex
 686 0038 00000000 		.word	textPageBackground
 687 003c 00000000 		.word	textPage
 688              		.cfi_endproc
 689              	.LFE521:
 690              		.size	GoToTextPage, .-GoToTextPage
 691              		.section	.text.Task_Display,"ax",%progbits
 692              		.align	2
 693              		.global	Task_Display
 694              		.thumb
 695              		.thumb_func
 696              		.type	Task_Display, %function
 697              	Task_Display:
 698              	.LFB519:
 128:display_task.c ****     /* Flag that indicates if the E-INK display has been detected */
 699              		.loc 1 128 0
ARM GAS  C:\Users\Agentos\AppData\Local\Temp\ccHiDLED.s 			page 40


 700              		.cfi_startproc
 701              		@ args = 0, pretend = 0, frame = 16
 702              		@ frame_needed = 0, uses_anonymous_args = 0
 703              	.LVL43:
 704 0000 00B5     		push	{lr}
 705              		.cfi_def_cfa_offset 4
 706              		.cfi_offset 14, -4
 707 0002 85B0     		sub	sp, sp, #20
 708              		.cfi_def_cfa_offset 24
 709              	.LVL44:
 144:display_task.c ****     
 710              		.loc 1 144 0
 711 0004 FFF7FEFF 		bl	InitTemperature
 712              	.LVL45:
 147:display_task.c ****     
 713              		.loc 1 147 0
 714 0008 FFF7FEFF 		bl	GetTemperature
 715              	.LVL46:
 716 000c 07EE900A 		vmov	s15, r0
 717 0010 FDEEE77A 		vcvt.s32.f32	s15, s15
 718 0014 CDED017A 		vstr.32	s15, [sp, #4]	@ int
 719              	.LVL47:
 151:display_task.c ****     {
 720              		.loc 1 151 0
 721 0018 1849     		ldr	r1, .L65
 722 001a 9DF90400 		ldrsb	r0, [sp, #4]
 723 001e FFF7FEFF 		bl	Cy_EINK_Start
 724              	.LVL48:
 725 0022 30B9     		cbnz	r0, .L61
 156:display_task.c **** 
 726              		.loc 1 156 0
 727 0024 0120     		movs	r0, #1
 728 0026 FFF7FEFF 		bl	Cy_EINK_Power
 729              	.LVL49:
 158:display_task.c ****         {
 730              		.loc 1 158 0
 731 002a 10B1     		cbz	r0, .L61
 732              	.LVL50:
 733              	.LBB21:
 734              	.LBB22:
 749:Generated_Source\PSoC6\pdl\drivers/peripheral/gpio/cy_gpio.h ****     }
 735              		.loc 2 749 0
 736 002c 8022     		movs	r2, #128
 737 002e 144B     		ldr	r3, .L65+4
 738 0030 5A60     		str	r2, [r3, #4]
 739              	.LVL51:
 740              	.L61:
 741              	.LBE22:
 742              	.LBE21:
 178:display_task.c ****             
 743              		.loc 1 178 0
 744 0032 0021     		movs	r1, #0
 745 0034 0120     		movs	r0, #1
 746 0036 FFF7FEFF 		bl	Cy_EINK_Clear
 747              	.LVL52:
 181:display_task.c **** 
 748              		.loc 1 181 0
ARM GAS  C:\Users\Agentos\AppData\Local\Temp\ccHiDLED.s 			page 41


 749 003a 1248     		ldr	r0, .L65+8
 750 003c FFF7FEFF 		bl	DisplayImage
 751              	.LVL53:
 184:display_task.c **** 
 752              		.loc 1 184 0
 753 0040 40F6B830 		movw	r0, #3000
 754 0044 FFF7FEFF 		bl	vTaskDelay
 755              	.LVL54:
 187:display_task.c ****     
 756              		.loc 1 187 0
 757 0048 0F48     		ldr	r0, .L65+12
 758 004a FFF7FEFF 		bl	DisplayImage
 759              	.LVL55:
 760              	.L62:
 193:display_task.c ****                          portMAX_DELAY);
 761              		.loc 1 193 0
 762 004e 0023     		movs	r3, #0
 763 0050 4FF0FF32 		mov	r2, #-1
 764 0054 0DF10F01 		add	r1, sp, #15
 765 0058 0C48     		ldr	r0, .L65+16
 766 005a 0068     		ldr	r0, [r0]
 767 005c FFF7FEFF 		bl	xQueueGenericReceive
 768              	.LVL56:
 197:display_task.c ****         {
 769              		.loc 1 197 0
 770 0060 0128     		cmp	r0, #1
 771 0062 F4D1     		bne	.L62
 772              	.LBB23:
 227:display_task.c **** 
 773              		.loc 1 227 0
 774 0064 0A4B     		ldr	r3, .L65+20
 775 0066 1A7A     		ldrb	r2, [r3, #8]	@ zero_extendqisi2
 776 0068 9DF80F30 		ldrb	r3, [sp, #15]	@ zero_extendqisi2
 777 006c 03EB8202 		add	r2, r3, r2, lsl #2
 778 0070 084B     		ldr	r3, .L65+24
 779 0072 03EB8203 		add	r3, r3, r2, lsl #2
 780 0076 9B68     		ldr	r3, [r3, #8]
 781 0078 9847     		blx	r3
 782              	.LVL57:
 783              	.LBE23:
 784 007a E8E7     		b	.L62
 785              	.L66:
 786              		.align	2
 787              	.L65:
 788 007c 00000000 		.word	DelayMs
 789 0080 80063240 		.word	1077020288
 790 0084 00000000 		.word	logo
 791 0088 00000000 		.word	mainMenuImage
 792 008c 00000000 		.word	touchDataQ
 793 0090 00000000 		.word	.LANCHOR1
 794 0094 00000000 		.word	.LANCHOR2
 795              		.cfi_endproc
 796              	.LFE519:
 797              		.size	Task_Display, .-Task_Display
 798              		.global	currentScreen
 799              		.global	currentFrame
 800              		.comm	frameBuffer,11616,4
ARM GAS  C:\Users\Agentos\AppData\Local\Temp\ccHiDLED.s 			page 42


 801              		.global	currentFrameBuffer
 802              		.global	currentScreenContent
 803              		.section	.rodata
 804              		.align	2
 805              		.set	.LANCHOR2,. + 0
 806              	.LC0:
 807 0000 00       		.byte	0
 808 0001 21       		.byte	33
 809 0002 00       		.byte	0
 810 0003 04       		.byte	4
 811              	.LC1:
 812 0004 00       		.byte	0
 813 0005 21       		.byte	33
 814 0006 94       		.byte	-108
 815 0007 AF       		.byte	-81
 816              		.type	ScreenUpdatePointer.17154, %object
 817              		.size	ScreenUpdatePointer.17154, 32
 818              	ScreenUpdatePointer.17154:
 819 0008 00000000 		.word	GoToTextPage
 820 000c 00000000 		.word	NoScreenChange
 821 0010 00000000 		.word	MoveArrowUp
 822 0014 00000000 		.word	MoveArrowDown
 823 0018 00000000 		.word	NoScreenChange
 824 001c 00000000 		.word	BackToMainMenu
 825 0020 00000000 		.word	PreviousTextPage
 826 0024 00000000 		.word	NextTextPage
 827              		.data
 828              		.set	.LANCHOR0,. + 0
 829              		.type	currentScreenContent, %object
 830              		.size	currentScreenContent, 1
 831              	currentScreenContent:
 832 0000 02       		.byte	2
 833              		.type	firstTime.17185, %object
 834              		.size	firstTime.17185, 1
 835              	firstTime.17185:
 836 0001 01       		.byte	1
 837              		.bss
 838              		.align	2
 839              		.set	.LANCHOR1,. + 0
 840              		.type	currentFrame, %object
 841              		.size	currentFrame, 4
 842              	currentFrame:
 843 0000 00000000 		.space	4
 844              		.type	startupScreenCounter.17189, %object
 845              		.size	startupScreenCounter.17189, 1
 846              	startupScreenCounter.17189:
 847 0004 00       		.space	1
 848 0005 000000   		.space	3
 849              		.type	currentScreen, %object
 850              		.size	currentScreen, 3
 851              	currentScreen:
 852 0008 000000   		.space	3
 853              		.type	currentFrameBuffer, %object
 854              		.size	currentFrameBuffer, 1
 855              	currentFrameBuffer:
 856 000b 00       		.space	1
 857              		.text
ARM GAS  C:\Users\Agentos\AppData\Local\Temp\ccHiDLED.s 			page 43


 858              	.Letext0:
 859              		.file 3 "c:\\program files (x86)\\cypress\\psoc creator\\4.2\\psoc creator\\import\\gnu\\arm\\5.4.
 860              		.file 4 "c:\\program files (x86)\\cypress\\psoc creator\\4.2\\psoc creator\\import\\gnu\\arm\\5.4.
 861              		.file 5 "Generated_Source\\PSoC6\\pdl\\devices/psoc6/ip/cyip_gpio.h"
 862              		.file 6 "Generated_Source\\PSoC6\\pdl\\drivers/peripheral/syslib/cy_syslib.h"
 863              		.file 7 "Generated_Source\\PSoC6\\pdl\\drivers/peripheral/scb/cy_scb_spi.h"
 864              		.file 8 "Generated_Source\\PSoC6\\pdl\\drivers/peripheral/sar/cy_sar.h"
 865              		.file 9 "Generated_Source\\PSoC6/ADC.h"
 866              		.file 10 ".\\cy_eink_library/cy_eink_fonts.h"
 867              		.file 11 ".\\cy_eink_library/pervasive_eink_hardware_driver.h"
 868              		.file 12 ".\\cy_eink_library/cy_eink_library.h"
 869              		.file 13 "menu_configuration.h"
 870              		.file 14 "Generated_Source\\PSoC6\\pdl\\rtos/FreeRTOS/9.0.0/Source/portable/GCC/CM4F/portmacro.h"
 871              		.file 15 "Generated_Source\\PSoC6\\pdl\\rtos/FreeRTOS/9.0.0/Source/include/queue.h"
 872              		.file 16 "touch_task.h"
 873              		.file 17 "Generated_Source\\PSoC6\\pdl\\cmsis/include/core_cm4.h"
 874              		.file 18 "Generated_Source\\PSoC6/CY_EINK_SPIM.h"
 875              		.file 19 "screen_contents.h"
 876              		.file 20 "Generated_Source\\PSoC6\\pdl\\rtos/FreeRTOS/9.0.0/Source/include/task.h"
 877              		.file 21 "temperature_eink.h"