ARM GAS  C:\Users\Agentos\AppData\Local\Temp\ccLvM3Kf.s 			page 1


   1              		.syntax unified
   2              		.cpu cortex-m4
   3              		.eabi_attribute 27, 1
   4              		.fpu fpv4-sp-d16
   5              		.eabi_attribute 20, 1
   6              		.eabi_attribute 21, 1
   7              		.eabi_attribute 23, 3
   8              		.eabi_attribute 24, 1
   9              		.eabi_attribute 25, 1
  10              		.eabi_attribute 26, 1
  11              		.eabi_attribute 30, 1
  12              		.eabi_attribute 34, 1
  13              		.eabi_attribute 18, 4
  14              		.thumb
  15              		.syntax unified
  16              		.file	"heap_4.c"
  17              		.text
  18              	.Ltext0:
  19              		.cfi_sections	.debug_frame
  20              		.section	.text.prvHeapInit,"ax",%progbits
  21              		.align	2
  22              		.thumb
  23              		.thumb_func
  24              		.type	prvHeapInit, %function
  25              	prvHeapInit:
  26              	.LFB522:
  27              		.file 1 "Generated_Source\\PSoC6\\pdl\\rtos\\FreeRTOS\\9.0.0\\Source\\portable\\MemMang\\heap_4.c"
   1:Generated_Source\PSoC6\pdl\rtos\FreeRTOS\9.0.0\Source\portable\MemMang/heap_4.c **** /*
   2:Generated_Source\PSoC6\pdl\rtos\FreeRTOS\9.0.0\Source\portable\MemMang/heap_4.c ****     FreeRTOS V9.0.0 - Copyright (C) 2016 Real Time Engineers Ltd.
   3:Generated_Source\PSoC6\pdl\rtos\FreeRTOS\9.0.0\Source\portable\MemMang/heap_4.c ****     All rights reserved
   4:Generated_Source\PSoC6\pdl\rtos\FreeRTOS\9.0.0\Source\portable\MemMang/heap_4.c **** 
   5:Generated_Source\PSoC6\pdl\rtos\FreeRTOS\9.0.0\Source\portable\MemMang/heap_4.c ****     VISIT http://www.FreeRTOS.org TO ENSURE YOU ARE USING THE LATEST VERSION.
   6:Generated_Source\PSoC6\pdl\rtos\FreeRTOS\9.0.0\Source\portable\MemMang/heap_4.c **** 
   7:Generated_Source\PSoC6\pdl\rtos\FreeRTOS\9.0.0\Source\portable\MemMang/heap_4.c ****     This file is part of the FreeRTOS distribution.
   8:Generated_Source\PSoC6\pdl\rtos\FreeRTOS\9.0.0\Source\portable\MemMang/heap_4.c **** 
   9:Generated_Source\PSoC6\pdl\rtos\FreeRTOS\9.0.0\Source\portable\MemMang/heap_4.c ****     FreeRTOS is free software; you can redistribute it and/or modify it under
  10:Generated_Source\PSoC6\pdl\rtos\FreeRTOS\9.0.0\Source\portable\MemMang/heap_4.c ****     the terms of the GNU General Public License (version 2) as published by the
  11:Generated_Source\PSoC6\pdl\rtos\FreeRTOS\9.0.0\Source\portable\MemMang/heap_4.c ****     Free Software Foundation >>>> AND MODIFIED BY <<<< the FreeRTOS exception.
  12:Generated_Source\PSoC6\pdl\rtos\FreeRTOS\9.0.0\Source\portable\MemMang/heap_4.c **** 
  13:Generated_Source\PSoC6\pdl\rtos\FreeRTOS\9.0.0\Source\portable\MemMang/heap_4.c ****     ***************************************************************************
  14:Generated_Source\PSoC6\pdl\rtos\FreeRTOS\9.0.0\Source\portable\MemMang/heap_4.c ****     >>!   NOTE: The modification to the GPL is included to allow you to     !<<
  15:Generated_Source\PSoC6\pdl\rtos\FreeRTOS\9.0.0\Source\portable\MemMang/heap_4.c ****     >>!   distribute a combined work that includes FreeRTOS without being   !<<
  16:Generated_Source\PSoC6\pdl\rtos\FreeRTOS\9.0.0\Source\portable\MemMang/heap_4.c ****     >>!   obliged to provide the source code for proprietary components     !<<
  17:Generated_Source\PSoC6\pdl\rtos\FreeRTOS\9.0.0\Source\portable\MemMang/heap_4.c ****     >>!   outside of the FreeRTOS kernel.                                   !<<
  18:Generated_Source\PSoC6\pdl\rtos\FreeRTOS\9.0.0\Source\portable\MemMang/heap_4.c ****     ***************************************************************************
  19:Generated_Source\PSoC6\pdl\rtos\FreeRTOS\9.0.0\Source\portable\MemMang/heap_4.c **** 
  20:Generated_Source\PSoC6\pdl\rtos\FreeRTOS\9.0.0\Source\portable\MemMang/heap_4.c ****     FreeRTOS is distributed in the hope that it will be useful, but WITHOUT ANY
  21:Generated_Source\PSoC6\pdl\rtos\FreeRTOS\9.0.0\Source\portable\MemMang/heap_4.c ****     WARRANTY; without even the implied warranty of MERCHANTABILITY or FITNESS
  22:Generated_Source\PSoC6\pdl\rtos\FreeRTOS\9.0.0\Source\portable\MemMang/heap_4.c ****     FOR A PARTICULAR PURPOSE.  Full license text is available on the following
  23:Generated_Source\PSoC6\pdl\rtos\FreeRTOS\9.0.0\Source\portable\MemMang/heap_4.c ****     link: http://www.freertos.org/a00114.html
  24:Generated_Source\PSoC6\pdl\rtos\FreeRTOS\9.0.0\Source\portable\MemMang/heap_4.c **** 
  25:Generated_Source\PSoC6\pdl\rtos\FreeRTOS\9.0.0\Source\portable\MemMang/heap_4.c ****     ***************************************************************************
  26:Generated_Source\PSoC6\pdl\rtos\FreeRTOS\9.0.0\Source\portable\MemMang/heap_4.c ****      *                                                                       *
  27:Generated_Source\PSoC6\pdl\rtos\FreeRTOS\9.0.0\Source\portable\MemMang/heap_4.c ****      *    FreeRTOS provides completely free yet professionally developed,    *
  28:Generated_Source\PSoC6\pdl\rtos\FreeRTOS\9.0.0\Source\portable\MemMang/heap_4.c ****      *    robust, strictly quality controlled, supported, and cross          *
  29:Generated_Source\PSoC6\pdl\rtos\FreeRTOS\9.0.0\Source\portable\MemMang/heap_4.c ****      *    platform software that is more than just the market leader, it     *
  30:Generated_Source\PSoC6\pdl\rtos\FreeRTOS\9.0.0\Source\portable\MemMang/heap_4.c ****      *    is the industry's de facto standard.                               *
ARM GAS  C:\Users\Agentos\AppData\Local\Temp\ccLvM3Kf.s 			page 2


  31:Generated_Source\PSoC6\pdl\rtos\FreeRTOS\9.0.0\Source\portable\MemMang/heap_4.c ****      *                                                                       *
  32:Generated_Source\PSoC6\pdl\rtos\FreeRTOS\9.0.0\Source\portable\MemMang/heap_4.c ****      *    Help yourself get started quickly while simultaneously helping     *
  33:Generated_Source\PSoC6\pdl\rtos\FreeRTOS\9.0.0\Source\portable\MemMang/heap_4.c ****      *    to support the FreeRTOS project by purchasing a FreeRTOS           *
  34:Generated_Source\PSoC6\pdl\rtos\FreeRTOS\9.0.0\Source\portable\MemMang/heap_4.c ****      *    tutorial book, reference manual, or both:                          *
  35:Generated_Source\PSoC6\pdl\rtos\FreeRTOS\9.0.0\Source\portable\MemMang/heap_4.c ****      *    http://www.FreeRTOS.org/Documentation                              *
  36:Generated_Source\PSoC6\pdl\rtos\FreeRTOS\9.0.0\Source\portable\MemMang/heap_4.c ****      *                                                                       *
  37:Generated_Source\PSoC6\pdl\rtos\FreeRTOS\9.0.0\Source\portable\MemMang/heap_4.c ****     ***************************************************************************
  38:Generated_Source\PSoC6\pdl\rtos\FreeRTOS\9.0.0\Source\portable\MemMang/heap_4.c **** 
  39:Generated_Source\PSoC6\pdl\rtos\FreeRTOS\9.0.0\Source\portable\MemMang/heap_4.c ****     http://www.FreeRTOS.org/FAQHelp.html - Having a problem?  Start by reading
  40:Generated_Source\PSoC6\pdl\rtos\FreeRTOS\9.0.0\Source\portable\MemMang/heap_4.c ****     the FAQ page "My application does not run, what could be wrong?".  Have you
  41:Generated_Source\PSoC6\pdl\rtos\FreeRTOS\9.0.0\Source\portable\MemMang/heap_4.c ****     defined configASSERT()?
  42:Generated_Source\PSoC6\pdl\rtos\FreeRTOS\9.0.0\Source\portable\MemMang/heap_4.c **** 
  43:Generated_Source\PSoC6\pdl\rtos\FreeRTOS\9.0.0\Source\portable\MemMang/heap_4.c ****     http://www.FreeRTOS.org/support - In return for receiving this top quality
  44:Generated_Source\PSoC6\pdl\rtos\FreeRTOS\9.0.0\Source\portable\MemMang/heap_4.c ****     embedded software for free we request you assist our global community by
  45:Generated_Source\PSoC6\pdl\rtos\FreeRTOS\9.0.0\Source\portable\MemMang/heap_4.c ****     participating in the support forum.
  46:Generated_Source\PSoC6\pdl\rtos\FreeRTOS\9.0.0\Source\portable\MemMang/heap_4.c **** 
  47:Generated_Source\PSoC6\pdl\rtos\FreeRTOS\9.0.0\Source\portable\MemMang/heap_4.c ****     http://www.FreeRTOS.org/training - Investing in training allows your team to
  48:Generated_Source\PSoC6\pdl\rtos\FreeRTOS\9.0.0\Source\portable\MemMang/heap_4.c ****     be as productive as possible as early as possible.  Now you can receive
  49:Generated_Source\PSoC6\pdl\rtos\FreeRTOS\9.0.0\Source\portable\MemMang/heap_4.c ****     FreeRTOS training directly from Richard Barry, CEO of Real Time Engineers
  50:Generated_Source\PSoC6\pdl\rtos\FreeRTOS\9.0.0\Source\portable\MemMang/heap_4.c ****     Ltd, and the world's leading authority on the world's leading RTOS.
  51:Generated_Source\PSoC6\pdl\rtos\FreeRTOS\9.0.0\Source\portable\MemMang/heap_4.c **** 
  52:Generated_Source\PSoC6\pdl\rtos\FreeRTOS\9.0.0\Source\portable\MemMang/heap_4.c ****     http://www.FreeRTOS.org/plus - A selection of FreeRTOS ecosystem products,
  53:Generated_Source\PSoC6\pdl\rtos\FreeRTOS\9.0.0\Source\portable\MemMang/heap_4.c ****     including FreeRTOS+Trace - an indispensable productivity tool, a DOS
  54:Generated_Source\PSoC6\pdl\rtos\FreeRTOS\9.0.0\Source\portable\MemMang/heap_4.c ****     compatible FAT file system, and our tiny thread aware UDP/IP stack.
  55:Generated_Source\PSoC6\pdl\rtos\FreeRTOS\9.0.0\Source\portable\MemMang/heap_4.c **** 
  56:Generated_Source\PSoC6\pdl\rtos\FreeRTOS\9.0.0\Source\portable\MemMang/heap_4.c ****     http://www.FreeRTOS.org/labs - Where new FreeRTOS products go to incubate.
  57:Generated_Source\PSoC6\pdl\rtos\FreeRTOS\9.0.0\Source\portable\MemMang/heap_4.c ****     Come and try FreeRTOS+TCP, our new open source TCP/IP stack for FreeRTOS.
  58:Generated_Source\PSoC6\pdl\rtos\FreeRTOS\9.0.0\Source\portable\MemMang/heap_4.c **** 
  59:Generated_Source\PSoC6\pdl\rtos\FreeRTOS\9.0.0\Source\portable\MemMang/heap_4.c ****     http://www.OpenRTOS.com - Real Time Engineers ltd. license FreeRTOS to High
  60:Generated_Source\PSoC6\pdl\rtos\FreeRTOS\9.0.0\Source\portable\MemMang/heap_4.c ****     Integrity Systems ltd. to sell under the OpenRTOS brand.  Low cost OpenRTOS
  61:Generated_Source\PSoC6\pdl\rtos\FreeRTOS\9.0.0\Source\portable\MemMang/heap_4.c ****     licenses offer ticketed support, indemnification and commercial middleware.
  62:Generated_Source\PSoC6\pdl\rtos\FreeRTOS\9.0.0\Source\portable\MemMang/heap_4.c **** 
  63:Generated_Source\PSoC6\pdl\rtos\FreeRTOS\9.0.0\Source\portable\MemMang/heap_4.c ****     http://www.SafeRTOS.com - High Integrity Systems also provide a safety
  64:Generated_Source\PSoC6\pdl\rtos\FreeRTOS\9.0.0\Source\portable\MemMang/heap_4.c ****     engineered and independently SIL3 certified version for use in safety and
  65:Generated_Source\PSoC6\pdl\rtos\FreeRTOS\9.0.0\Source\portable\MemMang/heap_4.c ****     mission critical applications that require provable dependability.
  66:Generated_Source\PSoC6\pdl\rtos\FreeRTOS\9.0.0\Source\portable\MemMang/heap_4.c **** 
  67:Generated_Source\PSoC6\pdl\rtos\FreeRTOS\9.0.0\Source\portable\MemMang/heap_4.c ****     1 tab == 4 spaces!
  68:Generated_Source\PSoC6\pdl\rtos\FreeRTOS\9.0.0\Source\portable\MemMang/heap_4.c **** */
  69:Generated_Source\PSoC6\pdl\rtos\FreeRTOS\9.0.0\Source\portable\MemMang/heap_4.c **** 
  70:Generated_Source\PSoC6\pdl\rtos\FreeRTOS\9.0.0\Source\portable\MemMang/heap_4.c **** /*
  71:Generated_Source\PSoC6\pdl\rtos\FreeRTOS\9.0.0\Source\portable\MemMang/heap_4.c ****  * A sample implementation of pvPortMalloc() and vPortFree() that combines
  72:Generated_Source\PSoC6\pdl\rtos\FreeRTOS\9.0.0\Source\portable\MemMang/heap_4.c ****  * (coalescences) adjacent memory blocks as they are freed, and in so doing
  73:Generated_Source\PSoC6\pdl\rtos\FreeRTOS\9.0.0\Source\portable\MemMang/heap_4.c ****  * limits memory fragmentation.
  74:Generated_Source\PSoC6\pdl\rtos\FreeRTOS\9.0.0\Source\portable\MemMang/heap_4.c ****  *
  75:Generated_Source\PSoC6\pdl\rtos\FreeRTOS\9.0.0\Source\portable\MemMang/heap_4.c ****  * See heap_1.c, heap_2.c and heap_3.c for alternative implementations, and the
  76:Generated_Source\PSoC6\pdl\rtos\FreeRTOS\9.0.0\Source\portable\MemMang/heap_4.c ****  * memory management pages of http://www.FreeRTOS.org for more information.
  77:Generated_Source\PSoC6\pdl\rtos\FreeRTOS\9.0.0\Source\portable\MemMang/heap_4.c ****  */
  78:Generated_Source\PSoC6\pdl\rtos\FreeRTOS\9.0.0\Source\portable\MemMang/heap_4.c **** #include <stdlib.h>
  79:Generated_Source\PSoC6\pdl\rtos\FreeRTOS\9.0.0\Source\portable\MemMang/heap_4.c **** 
  80:Generated_Source\PSoC6\pdl\rtos\FreeRTOS\9.0.0\Source\portable\MemMang/heap_4.c **** /* Defining MPU_WRAPPERS_INCLUDED_FROM_API_FILE prevents task.h from redefining
  81:Generated_Source\PSoC6\pdl\rtos\FreeRTOS\9.0.0\Source\portable\MemMang/heap_4.c **** all the API functions to use the MPU wrappers.  That should only be done when
  82:Generated_Source\PSoC6\pdl\rtos\FreeRTOS\9.0.0\Source\portable\MemMang/heap_4.c **** task.h is included from an application file. */
  83:Generated_Source\PSoC6\pdl\rtos\FreeRTOS\9.0.0\Source\portable\MemMang/heap_4.c **** #define MPU_WRAPPERS_INCLUDED_FROM_API_FILE
  84:Generated_Source\PSoC6\pdl\rtos\FreeRTOS\9.0.0\Source\portable\MemMang/heap_4.c **** 
  85:Generated_Source\PSoC6\pdl\rtos\FreeRTOS\9.0.0\Source\portable\MemMang/heap_4.c **** #include "FreeRTOS.h"
  86:Generated_Source\PSoC6\pdl\rtos\FreeRTOS\9.0.0\Source\portable\MemMang/heap_4.c **** #include "task.h"
  87:Generated_Source\PSoC6\pdl\rtos\FreeRTOS\9.0.0\Source\portable\MemMang/heap_4.c **** 
ARM GAS  C:\Users\Agentos\AppData\Local\Temp\ccLvM3Kf.s 			page 3


  88:Generated_Source\PSoC6\pdl\rtos\FreeRTOS\9.0.0\Source\portable\MemMang/heap_4.c **** #undef MPU_WRAPPERS_INCLUDED_FROM_API_FILE
  89:Generated_Source\PSoC6\pdl\rtos\FreeRTOS\9.0.0\Source\portable\MemMang/heap_4.c **** 
  90:Generated_Source\PSoC6\pdl\rtos\FreeRTOS\9.0.0\Source\portable\MemMang/heap_4.c **** #if( configSUPPORT_DYNAMIC_ALLOCATION == 0 )
  91:Generated_Source\PSoC6\pdl\rtos\FreeRTOS\9.0.0\Source\portable\MemMang/heap_4.c **** 	#error This file must not be used if configSUPPORT_DYNAMIC_ALLOCATION is 0
  92:Generated_Source\PSoC6\pdl\rtos\FreeRTOS\9.0.0\Source\portable\MemMang/heap_4.c **** #endif
  93:Generated_Source\PSoC6\pdl\rtos\FreeRTOS\9.0.0\Source\portable\MemMang/heap_4.c **** 
  94:Generated_Source\PSoC6\pdl\rtos\FreeRTOS\9.0.0\Source\portable\MemMang/heap_4.c **** /* Block sizes must not get too small. */
  95:Generated_Source\PSoC6\pdl\rtos\FreeRTOS\9.0.0\Source\portable\MemMang/heap_4.c **** #define heapMINIMUM_BLOCK_SIZE	( ( size_t ) ( xHeapStructSize << 1 ) )
  96:Generated_Source\PSoC6\pdl\rtos\FreeRTOS\9.0.0\Source\portable\MemMang/heap_4.c **** 
  97:Generated_Source\PSoC6\pdl\rtos\FreeRTOS\9.0.0\Source\portable\MemMang/heap_4.c **** /* Assumes 8bit bytes! */
  98:Generated_Source\PSoC6\pdl\rtos\FreeRTOS\9.0.0\Source\portable\MemMang/heap_4.c **** #define heapBITS_PER_BYTE		( ( size_t ) 8 )
  99:Generated_Source\PSoC6\pdl\rtos\FreeRTOS\9.0.0\Source\portable\MemMang/heap_4.c **** 
 100:Generated_Source\PSoC6\pdl\rtos\FreeRTOS\9.0.0\Source\portable\MemMang/heap_4.c **** /* Allocate the memory for the heap. */
 101:Generated_Source\PSoC6\pdl\rtos\FreeRTOS\9.0.0\Source\portable\MemMang/heap_4.c **** #if( configAPPLICATION_ALLOCATED_HEAP == 1 )
 102:Generated_Source\PSoC6\pdl\rtos\FreeRTOS\9.0.0\Source\portable\MemMang/heap_4.c **** 	/* The application writer has already defined the array used for the RTOS
 103:Generated_Source\PSoC6\pdl\rtos\FreeRTOS\9.0.0\Source\portable\MemMang/heap_4.c **** 	heap - probably so it can be placed in a special segment or address. */
 104:Generated_Source\PSoC6\pdl\rtos\FreeRTOS\9.0.0\Source\portable\MemMang/heap_4.c **** 	extern uint8_t ucHeap[ configTOTAL_HEAP_SIZE ];
 105:Generated_Source\PSoC6\pdl\rtos\FreeRTOS\9.0.0\Source\portable\MemMang/heap_4.c **** #else
 106:Generated_Source\PSoC6\pdl\rtos\FreeRTOS\9.0.0\Source\portable\MemMang/heap_4.c **** 	static uint8_t ucHeap[ configTOTAL_HEAP_SIZE ];
 107:Generated_Source\PSoC6\pdl\rtos\FreeRTOS\9.0.0\Source\portable\MemMang/heap_4.c **** #endif /* configAPPLICATION_ALLOCATED_HEAP */
 108:Generated_Source\PSoC6\pdl\rtos\FreeRTOS\9.0.0\Source\portable\MemMang/heap_4.c **** 
 109:Generated_Source\PSoC6\pdl\rtos\FreeRTOS\9.0.0\Source\portable\MemMang/heap_4.c **** /* Define the linked list structure.  This is used to link free blocks in order
 110:Generated_Source\PSoC6\pdl\rtos\FreeRTOS\9.0.0\Source\portable\MemMang/heap_4.c **** of their memory address. */
 111:Generated_Source\PSoC6\pdl\rtos\FreeRTOS\9.0.0\Source\portable\MemMang/heap_4.c **** typedef struct A_BLOCK_LINK
 112:Generated_Source\PSoC6\pdl\rtos\FreeRTOS\9.0.0\Source\portable\MemMang/heap_4.c **** {
 113:Generated_Source\PSoC6\pdl\rtos\FreeRTOS\9.0.0\Source\portable\MemMang/heap_4.c **** 	struct A_BLOCK_LINK *pxNextFreeBlock;	/*<< The next free block in the list. */
 114:Generated_Source\PSoC6\pdl\rtos\FreeRTOS\9.0.0\Source\portable\MemMang/heap_4.c **** 	size_t xBlockSize;						/*<< The size of the free block. */
 115:Generated_Source\PSoC6\pdl\rtos\FreeRTOS\9.0.0\Source\portable\MemMang/heap_4.c **** } BlockLink_t;
 116:Generated_Source\PSoC6\pdl\rtos\FreeRTOS\9.0.0\Source\portable\MemMang/heap_4.c **** 
 117:Generated_Source\PSoC6\pdl\rtos\FreeRTOS\9.0.0\Source\portable\MemMang/heap_4.c **** /*-----------------------------------------------------------*/
 118:Generated_Source\PSoC6\pdl\rtos\FreeRTOS\9.0.0\Source\portable\MemMang/heap_4.c **** 
 119:Generated_Source\PSoC6\pdl\rtos\FreeRTOS\9.0.0\Source\portable\MemMang/heap_4.c **** /*
 120:Generated_Source\PSoC6\pdl\rtos\FreeRTOS\9.0.0\Source\portable\MemMang/heap_4.c ****  * Inserts a block of memory that is being freed into the correct position in
 121:Generated_Source\PSoC6\pdl\rtos\FreeRTOS\9.0.0\Source\portable\MemMang/heap_4.c ****  * the list of free memory blocks.  The block being freed will be merged with
 122:Generated_Source\PSoC6\pdl\rtos\FreeRTOS\9.0.0\Source\portable\MemMang/heap_4.c ****  * the block in front it and/or the block behind it if the memory blocks are
 123:Generated_Source\PSoC6\pdl\rtos\FreeRTOS\9.0.0\Source\portable\MemMang/heap_4.c ****  * adjacent to each other.
 124:Generated_Source\PSoC6\pdl\rtos\FreeRTOS\9.0.0\Source\portable\MemMang/heap_4.c ****  */
 125:Generated_Source\PSoC6\pdl\rtos\FreeRTOS\9.0.0\Source\portable\MemMang/heap_4.c **** static void prvInsertBlockIntoFreeList( BlockLink_t *pxBlockToInsert );
 126:Generated_Source\PSoC6\pdl\rtos\FreeRTOS\9.0.0\Source\portable\MemMang/heap_4.c **** 
 127:Generated_Source\PSoC6\pdl\rtos\FreeRTOS\9.0.0\Source\portable\MemMang/heap_4.c **** /*
 128:Generated_Source\PSoC6\pdl\rtos\FreeRTOS\9.0.0\Source\portable\MemMang/heap_4.c ****  * Called automatically to setup the required heap structures the first time
 129:Generated_Source\PSoC6\pdl\rtos\FreeRTOS\9.0.0\Source\portable\MemMang/heap_4.c ****  * pvPortMalloc() is called.
 130:Generated_Source\PSoC6\pdl\rtos\FreeRTOS\9.0.0\Source\portable\MemMang/heap_4.c ****  */
 131:Generated_Source\PSoC6\pdl\rtos\FreeRTOS\9.0.0\Source\portable\MemMang/heap_4.c **** static void prvHeapInit( void );
 132:Generated_Source\PSoC6\pdl\rtos\FreeRTOS\9.0.0\Source\portable\MemMang/heap_4.c **** 
 133:Generated_Source\PSoC6\pdl\rtos\FreeRTOS\9.0.0\Source\portable\MemMang/heap_4.c **** /*-----------------------------------------------------------*/
 134:Generated_Source\PSoC6\pdl\rtos\FreeRTOS\9.0.0\Source\portable\MemMang/heap_4.c **** 
 135:Generated_Source\PSoC6\pdl\rtos\FreeRTOS\9.0.0\Source\portable\MemMang/heap_4.c **** /* The size of the structure placed at the beginning of each allocated memory
 136:Generated_Source\PSoC6\pdl\rtos\FreeRTOS\9.0.0\Source\portable\MemMang/heap_4.c **** block must by correctly byte aligned. */
 137:Generated_Source\PSoC6\pdl\rtos\FreeRTOS\9.0.0\Source\portable\MemMang/heap_4.c **** static const size_t xHeapStructSize	= ( sizeof( BlockLink_t ) + ( ( size_t ) ( portBYTE_ALIGNMENT -
 138:Generated_Source\PSoC6\pdl\rtos\FreeRTOS\9.0.0\Source\portable\MemMang/heap_4.c **** 
 139:Generated_Source\PSoC6\pdl\rtos\FreeRTOS\9.0.0\Source\portable\MemMang/heap_4.c **** /* Create a couple of list links to mark the start and end of the list. */
 140:Generated_Source\PSoC6\pdl\rtos\FreeRTOS\9.0.0\Source\portable\MemMang/heap_4.c **** static BlockLink_t xStart, *pxEnd = NULL;
 141:Generated_Source\PSoC6\pdl\rtos\FreeRTOS\9.0.0\Source\portable\MemMang/heap_4.c **** 
 142:Generated_Source\PSoC6\pdl\rtos\FreeRTOS\9.0.0\Source\portable\MemMang/heap_4.c **** /* Keeps track of the number of free bytes remaining, but says nothing about
 143:Generated_Source\PSoC6\pdl\rtos\FreeRTOS\9.0.0\Source\portable\MemMang/heap_4.c **** fragmentation. */
 144:Generated_Source\PSoC6\pdl\rtos\FreeRTOS\9.0.0\Source\portable\MemMang/heap_4.c **** static size_t xFreeBytesRemaining = 0U;
ARM GAS  C:\Users\Agentos\AppData\Local\Temp\ccLvM3Kf.s 			page 4


 145:Generated_Source\PSoC6\pdl\rtos\FreeRTOS\9.0.0\Source\portable\MemMang/heap_4.c **** static size_t xMinimumEverFreeBytesRemaining = 0U;
 146:Generated_Source\PSoC6\pdl\rtos\FreeRTOS\9.0.0\Source\portable\MemMang/heap_4.c **** 
 147:Generated_Source\PSoC6\pdl\rtos\FreeRTOS\9.0.0\Source\portable\MemMang/heap_4.c **** /* Gets set to the top bit of an size_t type.  When this bit in the xBlockSize
 148:Generated_Source\PSoC6\pdl\rtos\FreeRTOS\9.0.0\Source\portable\MemMang/heap_4.c **** member of an BlockLink_t structure is set then the block belongs to the
 149:Generated_Source\PSoC6\pdl\rtos\FreeRTOS\9.0.0\Source\portable\MemMang/heap_4.c **** application.  When the bit is free the block is still part of the free heap
 150:Generated_Source\PSoC6\pdl\rtos\FreeRTOS\9.0.0\Source\portable\MemMang/heap_4.c **** space. */
 151:Generated_Source\PSoC6\pdl\rtos\FreeRTOS\9.0.0\Source\portable\MemMang/heap_4.c **** static size_t xBlockAllocatedBit = 0;
 152:Generated_Source\PSoC6\pdl\rtos\FreeRTOS\9.0.0\Source\portable\MemMang/heap_4.c **** 
 153:Generated_Source\PSoC6\pdl\rtos\FreeRTOS\9.0.0\Source\portable\MemMang/heap_4.c **** /*-----------------------------------------------------------*/
 154:Generated_Source\PSoC6\pdl\rtos\FreeRTOS\9.0.0\Source\portable\MemMang/heap_4.c **** 
 155:Generated_Source\PSoC6\pdl\rtos\FreeRTOS\9.0.0\Source\portable\MemMang/heap_4.c **** void *pvPortMalloc( size_t xWantedSize )
 156:Generated_Source\PSoC6\pdl\rtos\FreeRTOS\9.0.0\Source\portable\MemMang/heap_4.c **** {
 157:Generated_Source\PSoC6\pdl\rtos\FreeRTOS\9.0.0\Source\portable\MemMang/heap_4.c **** BlockLink_t *pxBlock, *pxPreviousBlock, *pxNewBlockLink;
 158:Generated_Source\PSoC6\pdl\rtos\FreeRTOS\9.0.0\Source\portable\MemMang/heap_4.c **** void *pvReturn = NULL;
 159:Generated_Source\PSoC6\pdl\rtos\FreeRTOS\9.0.0\Source\portable\MemMang/heap_4.c **** 
 160:Generated_Source\PSoC6\pdl\rtos\FreeRTOS\9.0.0\Source\portable\MemMang/heap_4.c **** 	vTaskSuspendAll();
 161:Generated_Source\PSoC6\pdl\rtos\FreeRTOS\9.0.0\Source\portable\MemMang/heap_4.c **** 	{
 162:Generated_Source\PSoC6\pdl\rtos\FreeRTOS\9.0.0\Source\portable\MemMang/heap_4.c **** 		/* If this is the first call to malloc then the heap will require
 163:Generated_Source\PSoC6\pdl\rtos\FreeRTOS\9.0.0\Source\portable\MemMang/heap_4.c **** 		initialisation to setup the list of free blocks. */
 164:Generated_Source\PSoC6\pdl\rtos\FreeRTOS\9.0.0\Source\portable\MemMang/heap_4.c **** 		if( pxEnd == NULL )
 165:Generated_Source\PSoC6\pdl\rtos\FreeRTOS\9.0.0\Source\portable\MemMang/heap_4.c **** 		{
 166:Generated_Source\PSoC6\pdl\rtos\FreeRTOS\9.0.0\Source\portable\MemMang/heap_4.c **** 			prvHeapInit();
 167:Generated_Source\PSoC6\pdl\rtos\FreeRTOS\9.0.0\Source\portable\MemMang/heap_4.c **** 		}
 168:Generated_Source\PSoC6\pdl\rtos\FreeRTOS\9.0.0\Source\portable\MemMang/heap_4.c **** 		else
 169:Generated_Source\PSoC6\pdl\rtos\FreeRTOS\9.0.0\Source\portable\MemMang/heap_4.c **** 		{
 170:Generated_Source\PSoC6\pdl\rtos\FreeRTOS\9.0.0\Source\portable\MemMang/heap_4.c **** 			mtCOVERAGE_TEST_MARKER();
 171:Generated_Source\PSoC6\pdl\rtos\FreeRTOS\9.0.0\Source\portable\MemMang/heap_4.c **** 		}
 172:Generated_Source\PSoC6\pdl\rtos\FreeRTOS\9.0.0\Source\portable\MemMang/heap_4.c **** 
 173:Generated_Source\PSoC6\pdl\rtos\FreeRTOS\9.0.0\Source\portable\MemMang/heap_4.c **** 		/* Check the requested block size is not so large that the top bit is
 174:Generated_Source\PSoC6\pdl\rtos\FreeRTOS\9.0.0\Source\portable\MemMang/heap_4.c **** 		set.  The top bit of the block size member of the BlockLink_t structure
 175:Generated_Source\PSoC6\pdl\rtos\FreeRTOS\9.0.0\Source\portable\MemMang/heap_4.c **** 		is used to determine who owns the block - the application or the
 176:Generated_Source\PSoC6\pdl\rtos\FreeRTOS\9.0.0\Source\portable\MemMang/heap_4.c **** 		kernel, so it must be free. */
 177:Generated_Source\PSoC6\pdl\rtos\FreeRTOS\9.0.0\Source\portable\MemMang/heap_4.c **** 		if( ( xWantedSize & xBlockAllocatedBit ) == 0 )
 178:Generated_Source\PSoC6\pdl\rtos\FreeRTOS\9.0.0\Source\portable\MemMang/heap_4.c **** 		{
 179:Generated_Source\PSoC6\pdl\rtos\FreeRTOS\9.0.0\Source\portable\MemMang/heap_4.c **** 			/* The wanted size is increased so it can contain a BlockLink_t
 180:Generated_Source\PSoC6\pdl\rtos\FreeRTOS\9.0.0\Source\portable\MemMang/heap_4.c **** 			structure in addition to the requested amount of bytes. */
 181:Generated_Source\PSoC6\pdl\rtos\FreeRTOS\9.0.0\Source\portable\MemMang/heap_4.c **** 			if( xWantedSize > 0 )
 182:Generated_Source\PSoC6\pdl\rtos\FreeRTOS\9.0.0\Source\portable\MemMang/heap_4.c **** 			{
 183:Generated_Source\PSoC6\pdl\rtos\FreeRTOS\9.0.0\Source\portable\MemMang/heap_4.c **** 				xWantedSize += xHeapStructSize;
 184:Generated_Source\PSoC6\pdl\rtos\FreeRTOS\9.0.0\Source\portable\MemMang/heap_4.c **** 
 185:Generated_Source\PSoC6\pdl\rtos\FreeRTOS\9.0.0\Source\portable\MemMang/heap_4.c **** 				/* Ensure that blocks are always aligned to the required number
 186:Generated_Source\PSoC6\pdl\rtos\FreeRTOS\9.0.0\Source\portable\MemMang/heap_4.c **** 				of bytes. */
 187:Generated_Source\PSoC6\pdl\rtos\FreeRTOS\9.0.0\Source\portable\MemMang/heap_4.c **** 				if( ( xWantedSize & portBYTE_ALIGNMENT_MASK ) != 0x00 )
 188:Generated_Source\PSoC6\pdl\rtos\FreeRTOS\9.0.0\Source\portable\MemMang/heap_4.c **** 				{
 189:Generated_Source\PSoC6\pdl\rtos\FreeRTOS\9.0.0\Source\portable\MemMang/heap_4.c **** 					/* Byte alignment required. */
 190:Generated_Source\PSoC6\pdl\rtos\FreeRTOS\9.0.0\Source\portable\MemMang/heap_4.c **** 					xWantedSize += ( portBYTE_ALIGNMENT - ( xWantedSize & portBYTE_ALIGNMENT_MASK ) );
 191:Generated_Source\PSoC6\pdl\rtos\FreeRTOS\9.0.0\Source\portable\MemMang/heap_4.c **** 					configASSERT( ( xWantedSize & portBYTE_ALIGNMENT_MASK ) == 0 );
 192:Generated_Source\PSoC6\pdl\rtos\FreeRTOS\9.0.0\Source\portable\MemMang/heap_4.c **** 				}
 193:Generated_Source\PSoC6\pdl\rtos\FreeRTOS\9.0.0\Source\portable\MemMang/heap_4.c **** 				else
 194:Generated_Source\PSoC6\pdl\rtos\FreeRTOS\9.0.0\Source\portable\MemMang/heap_4.c **** 				{
 195:Generated_Source\PSoC6\pdl\rtos\FreeRTOS\9.0.0\Source\portable\MemMang/heap_4.c **** 					mtCOVERAGE_TEST_MARKER();
 196:Generated_Source\PSoC6\pdl\rtos\FreeRTOS\9.0.0\Source\portable\MemMang/heap_4.c **** 				}
 197:Generated_Source\PSoC6\pdl\rtos\FreeRTOS\9.0.0\Source\portable\MemMang/heap_4.c **** 			}
 198:Generated_Source\PSoC6\pdl\rtos\FreeRTOS\9.0.0\Source\portable\MemMang/heap_4.c **** 			else
 199:Generated_Source\PSoC6\pdl\rtos\FreeRTOS\9.0.0\Source\portable\MemMang/heap_4.c **** 			{
 200:Generated_Source\PSoC6\pdl\rtos\FreeRTOS\9.0.0\Source\portable\MemMang/heap_4.c **** 				mtCOVERAGE_TEST_MARKER();
 201:Generated_Source\PSoC6\pdl\rtos\FreeRTOS\9.0.0\Source\portable\MemMang/heap_4.c **** 			}
ARM GAS  C:\Users\Agentos\AppData\Local\Temp\ccLvM3Kf.s 			page 5


 202:Generated_Source\PSoC6\pdl\rtos\FreeRTOS\9.0.0\Source\portable\MemMang/heap_4.c **** 
 203:Generated_Source\PSoC6\pdl\rtos\FreeRTOS\9.0.0\Source\portable\MemMang/heap_4.c **** 			if( ( xWantedSize > 0 ) && ( xWantedSize <= xFreeBytesRemaining ) )
 204:Generated_Source\PSoC6\pdl\rtos\FreeRTOS\9.0.0\Source\portable\MemMang/heap_4.c **** 			{
 205:Generated_Source\PSoC6\pdl\rtos\FreeRTOS\9.0.0\Source\portable\MemMang/heap_4.c **** 				/* Traverse the list from the start	(lowest address) block until
 206:Generated_Source\PSoC6\pdl\rtos\FreeRTOS\9.0.0\Source\portable\MemMang/heap_4.c **** 				one	of adequate size is found. */
 207:Generated_Source\PSoC6\pdl\rtos\FreeRTOS\9.0.0\Source\portable\MemMang/heap_4.c **** 				pxPreviousBlock = &xStart;
 208:Generated_Source\PSoC6\pdl\rtos\FreeRTOS\9.0.0\Source\portable\MemMang/heap_4.c **** 				pxBlock = xStart.pxNextFreeBlock;
 209:Generated_Source\PSoC6\pdl\rtos\FreeRTOS\9.0.0\Source\portable\MemMang/heap_4.c **** 				while( ( pxBlock->xBlockSize < xWantedSize ) && ( pxBlock->pxNextFreeBlock != NULL ) )
 210:Generated_Source\PSoC6\pdl\rtos\FreeRTOS\9.0.0\Source\portable\MemMang/heap_4.c **** 				{
 211:Generated_Source\PSoC6\pdl\rtos\FreeRTOS\9.0.0\Source\portable\MemMang/heap_4.c **** 					pxPreviousBlock = pxBlock;
 212:Generated_Source\PSoC6\pdl\rtos\FreeRTOS\9.0.0\Source\portable\MemMang/heap_4.c **** 					pxBlock = pxBlock->pxNextFreeBlock;
 213:Generated_Source\PSoC6\pdl\rtos\FreeRTOS\9.0.0\Source\portable\MemMang/heap_4.c **** 				}
 214:Generated_Source\PSoC6\pdl\rtos\FreeRTOS\9.0.0\Source\portable\MemMang/heap_4.c **** 
 215:Generated_Source\PSoC6\pdl\rtos\FreeRTOS\9.0.0\Source\portable\MemMang/heap_4.c **** 				/* If the end marker was reached then a block of adequate size
 216:Generated_Source\PSoC6\pdl\rtos\FreeRTOS\9.0.0\Source\portable\MemMang/heap_4.c **** 				was	not found. */
 217:Generated_Source\PSoC6\pdl\rtos\FreeRTOS\9.0.0\Source\portable\MemMang/heap_4.c **** 				if( pxBlock != pxEnd )
 218:Generated_Source\PSoC6\pdl\rtos\FreeRTOS\9.0.0\Source\portable\MemMang/heap_4.c **** 				{
 219:Generated_Source\PSoC6\pdl\rtos\FreeRTOS\9.0.0\Source\portable\MemMang/heap_4.c **** 					/* Return the memory space pointed to - jumping over the
 220:Generated_Source\PSoC6\pdl\rtos\FreeRTOS\9.0.0\Source\portable\MemMang/heap_4.c **** 					BlockLink_t structure at its start. */
 221:Generated_Source\PSoC6\pdl\rtos\FreeRTOS\9.0.0\Source\portable\MemMang/heap_4.c **** 					pvReturn = ( void * ) ( ( ( uint8_t * ) pxPreviousBlock->pxNextFreeBlock ) + xHeapStructSize )
 222:Generated_Source\PSoC6\pdl\rtos\FreeRTOS\9.0.0\Source\portable\MemMang/heap_4.c **** 
 223:Generated_Source\PSoC6\pdl\rtos\FreeRTOS\9.0.0\Source\portable\MemMang/heap_4.c **** 					/* This block is being returned for use so must be taken out
 224:Generated_Source\PSoC6\pdl\rtos\FreeRTOS\9.0.0\Source\portable\MemMang/heap_4.c **** 					of the list of free blocks. */
 225:Generated_Source\PSoC6\pdl\rtos\FreeRTOS\9.0.0\Source\portable\MemMang/heap_4.c **** 					pxPreviousBlock->pxNextFreeBlock = pxBlock->pxNextFreeBlock;
 226:Generated_Source\PSoC6\pdl\rtos\FreeRTOS\9.0.0\Source\portable\MemMang/heap_4.c **** 
 227:Generated_Source\PSoC6\pdl\rtos\FreeRTOS\9.0.0\Source\portable\MemMang/heap_4.c **** 					/* If the block is larger than required it can be split into
 228:Generated_Source\PSoC6\pdl\rtos\FreeRTOS\9.0.0\Source\portable\MemMang/heap_4.c **** 					two. */
 229:Generated_Source\PSoC6\pdl\rtos\FreeRTOS\9.0.0\Source\portable\MemMang/heap_4.c **** 					if( ( pxBlock->xBlockSize - xWantedSize ) > heapMINIMUM_BLOCK_SIZE )
 230:Generated_Source\PSoC6\pdl\rtos\FreeRTOS\9.0.0\Source\portable\MemMang/heap_4.c **** 					{
 231:Generated_Source\PSoC6\pdl\rtos\FreeRTOS\9.0.0\Source\portable\MemMang/heap_4.c **** 						/* This block is to be split into two.  Create a new
 232:Generated_Source\PSoC6\pdl\rtos\FreeRTOS\9.0.0\Source\portable\MemMang/heap_4.c **** 						block following the number of bytes requested. The void
 233:Generated_Source\PSoC6\pdl\rtos\FreeRTOS\9.0.0\Source\portable\MemMang/heap_4.c **** 						cast is used to prevent byte alignment warnings from the
 234:Generated_Source\PSoC6\pdl\rtos\FreeRTOS\9.0.0\Source\portable\MemMang/heap_4.c **** 						compiler. */
 235:Generated_Source\PSoC6\pdl\rtos\FreeRTOS\9.0.0\Source\portable\MemMang/heap_4.c **** 						pxNewBlockLink = ( void * ) ( ( ( uint8_t * ) pxBlock ) + xWantedSize );
 236:Generated_Source\PSoC6\pdl\rtos\FreeRTOS\9.0.0\Source\portable\MemMang/heap_4.c **** 						configASSERT( ( ( ( size_t ) pxNewBlockLink ) & portBYTE_ALIGNMENT_MASK ) == 0 );
 237:Generated_Source\PSoC6\pdl\rtos\FreeRTOS\9.0.0\Source\portable\MemMang/heap_4.c **** 
 238:Generated_Source\PSoC6\pdl\rtos\FreeRTOS\9.0.0\Source\portable\MemMang/heap_4.c **** 						/* Calculate the sizes of two blocks split from the
 239:Generated_Source\PSoC6\pdl\rtos\FreeRTOS\9.0.0\Source\portable\MemMang/heap_4.c **** 						single block. */
 240:Generated_Source\PSoC6\pdl\rtos\FreeRTOS\9.0.0\Source\portable\MemMang/heap_4.c **** 						pxNewBlockLink->xBlockSize = pxBlock->xBlockSize - xWantedSize;
 241:Generated_Source\PSoC6\pdl\rtos\FreeRTOS\9.0.0\Source\portable\MemMang/heap_4.c **** 						pxBlock->xBlockSize = xWantedSize;
 242:Generated_Source\PSoC6\pdl\rtos\FreeRTOS\9.0.0\Source\portable\MemMang/heap_4.c **** 
 243:Generated_Source\PSoC6\pdl\rtos\FreeRTOS\9.0.0\Source\portable\MemMang/heap_4.c **** 						/* Insert the new block into the list of free blocks. */
 244:Generated_Source\PSoC6\pdl\rtos\FreeRTOS\9.0.0\Source\portable\MemMang/heap_4.c **** 						prvInsertBlockIntoFreeList( pxNewBlockLink );
 245:Generated_Source\PSoC6\pdl\rtos\FreeRTOS\9.0.0\Source\portable\MemMang/heap_4.c **** 					}
 246:Generated_Source\PSoC6\pdl\rtos\FreeRTOS\9.0.0\Source\portable\MemMang/heap_4.c **** 					else
 247:Generated_Source\PSoC6\pdl\rtos\FreeRTOS\9.0.0\Source\portable\MemMang/heap_4.c **** 					{
 248:Generated_Source\PSoC6\pdl\rtos\FreeRTOS\9.0.0\Source\portable\MemMang/heap_4.c **** 						mtCOVERAGE_TEST_MARKER();
 249:Generated_Source\PSoC6\pdl\rtos\FreeRTOS\9.0.0\Source\portable\MemMang/heap_4.c **** 					}
 250:Generated_Source\PSoC6\pdl\rtos\FreeRTOS\9.0.0\Source\portable\MemMang/heap_4.c **** 
 251:Generated_Source\PSoC6\pdl\rtos\FreeRTOS\9.0.0\Source\portable\MemMang/heap_4.c **** 					xFreeBytesRemaining -= pxBlock->xBlockSize;
 252:Generated_Source\PSoC6\pdl\rtos\FreeRTOS\9.0.0\Source\portable\MemMang/heap_4.c **** 
 253:Generated_Source\PSoC6\pdl\rtos\FreeRTOS\9.0.0\Source\portable\MemMang/heap_4.c **** 					if( xFreeBytesRemaining < xMinimumEverFreeBytesRemaining )
 254:Generated_Source\PSoC6\pdl\rtos\FreeRTOS\9.0.0\Source\portable\MemMang/heap_4.c **** 					{
 255:Generated_Source\PSoC6\pdl\rtos\FreeRTOS\9.0.0\Source\portable\MemMang/heap_4.c **** 						xMinimumEverFreeBytesRemaining = xFreeBytesRemaining;
 256:Generated_Source\PSoC6\pdl\rtos\FreeRTOS\9.0.0\Source\portable\MemMang/heap_4.c **** 					}
 257:Generated_Source\PSoC6\pdl\rtos\FreeRTOS\9.0.0\Source\portable\MemMang/heap_4.c **** 					else
 258:Generated_Source\PSoC6\pdl\rtos\FreeRTOS\9.0.0\Source\portable\MemMang/heap_4.c **** 					{
ARM GAS  C:\Users\Agentos\AppData\Local\Temp\ccLvM3Kf.s 			page 6


 259:Generated_Source\PSoC6\pdl\rtos\FreeRTOS\9.0.0\Source\portable\MemMang/heap_4.c **** 						mtCOVERAGE_TEST_MARKER();
 260:Generated_Source\PSoC6\pdl\rtos\FreeRTOS\9.0.0\Source\portable\MemMang/heap_4.c **** 					}
 261:Generated_Source\PSoC6\pdl\rtos\FreeRTOS\9.0.0\Source\portable\MemMang/heap_4.c **** 
 262:Generated_Source\PSoC6\pdl\rtos\FreeRTOS\9.0.0\Source\portable\MemMang/heap_4.c **** 					/* The block is being returned - it is allocated and owned
 263:Generated_Source\PSoC6\pdl\rtos\FreeRTOS\9.0.0\Source\portable\MemMang/heap_4.c **** 					by the application and has no "next" block. */
 264:Generated_Source\PSoC6\pdl\rtos\FreeRTOS\9.0.0\Source\portable\MemMang/heap_4.c **** 					pxBlock->xBlockSize |= xBlockAllocatedBit;
 265:Generated_Source\PSoC6\pdl\rtos\FreeRTOS\9.0.0\Source\portable\MemMang/heap_4.c **** 					pxBlock->pxNextFreeBlock = NULL;
 266:Generated_Source\PSoC6\pdl\rtos\FreeRTOS\9.0.0\Source\portable\MemMang/heap_4.c **** 				}
 267:Generated_Source\PSoC6\pdl\rtos\FreeRTOS\9.0.0\Source\portable\MemMang/heap_4.c **** 				else
 268:Generated_Source\PSoC6\pdl\rtos\FreeRTOS\9.0.0\Source\portable\MemMang/heap_4.c **** 				{
 269:Generated_Source\PSoC6\pdl\rtos\FreeRTOS\9.0.0\Source\portable\MemMang/heap_4.c **** 					mtCOVERAGE_TEST_MARKER();
 270:Generated_Source\PSoC6\pdl\rtos\FreeRTOS\9.0.0\Source\portable\MemMang/heap_4.c **** 				}
 271:Generated_Source\PSoC6\pdl\rtos\FreeRTOS\9.0.0\Source\portable\MemMang/heap_4.c **** 			}
 272:Generated_Source\PSoC6\pdl\rtos\FreeRTOS\9.0.0\Source\portable\MemMang/heap_4.c **** 			else
 273:Generated_Source\PSoC6\pdl\rtos\FreeRTOS\9.0.0\Source\portable\MemMang/heap_4.c **** 			{
 274:Generated_Source\PSoC6\pdl\rtos\FreeRTOS\9.0.0\Source\portable\MemMang/heap_4.c **** 				mtCOVERAGE_TEST_MARKER();
 275:Generated_Source\PSoC6\pdl\rtos\FreeRTOS\9.0.0\Source\portable\MemMang/heap_4.c **** 			}
 276:Generated_Source\PSoC6\pdl\rtos\FreeRTOS\9.0.0\Source\portable\MemMang/heap_4.c **** 		}
 277:Generated_Source\PSoC6\pdl\rtos\FreeRTOS\9.0.0\Source\portable\MemMang/heap_4.c **** 		else
 278:Generated_Source\PSoC6\pdl\rtos\FreeRTOS\9.0.0\Source\portable\MemMang/heap_4.c **** 		{
 279:Generated_Source\PSoC6\pdl\rtos\FreeRTOS\9.0.0\Source\portable\MemMang/heap_4.c **** 			mtCOVERAGE_TEST_MARKER();
 280:Generated_Source\PSoC6\pdl\rtos\FreeRTOS\9.0.0\Source\portable\MemMang/heap_4.c **** 		}
 281:Generated_Source\PSoC6\pdl\rtos\FreeRTOS\9.0.0\Source\portable\MemMang/heap_4.c **** 
 282:Generated_Source\PSoC6\pdl\rtos\FreeRTOS\9.0.0\Source\portable\MemMang/heap_4.c **** 		traceMALLOC( pvReturn, xWantedSize );
 283:Generated_Source\PSoC6\pdl\rtos\FreeRTOS\9.0.0\Source\portable\MemMang/heap_4.c **** 	}
 284:Generated_Source\PSoC6\pdl\rtos\FreeRTOS\9.0.0\Source\portable\MemMang/heap_4.c **** 	( void ) xTaskResumeAll();
 285:Generated_Source\PSoC6\pdl\rtos\FreeRTOS\9.0.0\Source\portable\MemMang/heap_4.c **** 
 286:Generated_Source\PSoC6\pdl\rtos\FreeRTOS\9.0.0\Source\portable\MemMang/heap_4.c **** 	#if( configUSE_MALLOC_FAILED_HOOK == 1 )
 287:Generated_Source\PSoC6\pdl\rtos\FreeRTOS\9.0.0\Source\portable\MemMang/heap_4.c **** 	{
 288:Generated_Source\PSoC6\pdl\rtos\FreeRTOS\9.0.0\Source\portable\MemMang/heap_4.c **** 		if( pvReturn == NULL )
 289:Generated_Source\PSoC6\pdl\rtos\FreeRTOS\9.0.0\Source\portable\MemMang/heap_4.c **** 		{
 290:Generated_Source\PSoC6\pdl\rtos\FreeRTOS\9.0.0\Source\portable\MemMang/heap_4.c **** 			extern void vApplicationMallocFailedHook( void );
 291:Generated_Source\PSoC6\pdl\rtos\FreeRTOS\9.0.0\Source\portable\MemMang/heap_4.c **** 			vApplicationMallocFailedHook();
 292:Generated_Source\PSoC6\pdl\rtos\FreeRTOS\9.0.0\Source\portable\MemMang/heap_4.c **** 		}
 293:Generated_Source\PSoC6\pdl\rtos\FreeRTOS\9.0.0\Source\portable\MemMang/heap_4.c **** 		else
 294:Generated_Source\PSoC6\pdl\rtos\FreeRTOS\9.0.0\Source\portable\MemMang/heap_4.c **** 		{
 295:Generated_Source\PSoC6\pdl\rtos\FreeRTOS\9.0.0\Source\portable\MemMang/heap_4.c **** 			mtCOVERAGE_TEST_MARKER();
 296:Generated_Source\PSoC6\pdl\rtos\FreeRTOS\9.0.0\Source\portable\MemMang/heap_4.c **** 		}
 297:Generated_Source\PSoC6\pdl\rtos\FreeRTOS\9.0.0\Source\portable\MemMang/heap_4.c **** 	}
 298:Generated_Source\PSoC6\pdl\rtos\FreeRTOS\9.0.0\Source\portable\MemMang/heap_4.c **** 	#endif
 299:Generated_Source\PSoC6\pdl\rtos\FreeRTOS\9.0.0\Source\portable\MemMang/heap_4.c **** 
 300:Generated_Source\PSoC6\pdl\rtos\FreeRTOS\9.0.0\Source\portable\MemMang/heap_4.c **** 	configASSERT( ( ( ( size_t ) pvReturn ) & ( size_t ) portBYTE_ALIGNMENT_MASK ) == 0 );
 301:Generated_Source\PSoC6\pdl\rtos\FreeRTOS\9.0.0\Source\portable\MemMang/heap_4.c **** 	return pvReturn;
 302:Generated_Source\PSoC6\pdl\rtos\FreeRTOS\9.0.0\Source\portable\MemMang/heap_4.c **** }
 303:Generated_Source\PSoC6\pdl\rtos\FreeRTOS\9.0.0\Source\portable\MemMang/heap_4.c **** /*-----------------------------------------------------------*/
 304:Generated_Source\PSoC6\pdl\rtos\FreeRTOS\9.0.0\Source\portable\MemMang/heap_4.c **** 
 305:Generated_Source\PSoC6\pdl\rtos\FreeRTOS\9.0.0\Source\portable\MemMang/heap_4.c **** void vPortFree( void *pv )
 306:Generated_Source\PSoC6\pdl\rtos\FreeRTOS\9.0.0\Source\portable\MemMang/heap_4.c **** {
 307:Generated_Source\PSoC6\pdl\rtos\FreeRTOS\9.0.0\Source\portable\MemMang/heap_4.c **** uint8_t *puc = ( uint8_t * ) pv;
 308:Generated_Source\PSoC6\pdl\rtos\FreeRTOS\9.0.0\Source\portable\MemMang/heap_4.c **** BlockLink_t *pxLink;
 309:Generated_Source\PSoC6\pdl\rtos\FreeRTOS\9.0.0\Source\portable\MemMang/heap_4.c **** 
 310:Generated_Source\PSoC6\pdl\rtos\FreeRTOS\9.0.0\Source\portable\MemMang/heap_4.c **** 	if( pv != NULL )
 311:Generated_Source\PSoC6\pdl\rtos\FreeRTOS\9.0.0\Source\portable\MemMang/heap_4.c **** 	{
 312:Generated_Source\PSoC6\pdl\rtos\FreeRTOS\9.0.0\Source\portable\MemMang/heap_4.c **** 		/* The memory being freed will have an BlockLink_t structure immediately
 313:Generated_Source\PSoC6\pdl\rtos\FreeRTOS\9.0.0\Source\portable\MemMang/heap_4.c **** 		before it. */
 314:Generated_Source\PSoC6\pdl\rtos\FreeRTOS\9.0.0\Source\portable\MemMang/heap_4.c **** 		puc -= xHeapStructSize;
 315:Generated_Source\PSoC6\pdl\rtos\FreeRTOS\9.0.0\Source\portable\MemMang/heap_4.c **** 
ARM GAS  C:\Users\Agentos\AppData\Local\Temp\ccLvM3Kf.s 			page 7


 316:Generated_Source\PSoC6\pdl\rtos\FreeRTOS\9.0.0\Source\portable\MemMang/heap_4.c **** 		/* This casting is to keep the compiler from issuing warnings. */
 317:Generated_Source\PSoC6\pdl\rtos\FreeRTOS\9.0.0\Source\portable\MemMang/heap_4.c **** 		pxLink = ( void * ) puc;
 318:Generated_Source\PSoC6\pdl\rtos\FreeRTOS\9.0.0\Source\portable\MemMang/heap_4.c **** 
 319:Generated_Source\PSoC6\pdl\rtos\FreeRTOS\9.0.0\Source\portable\MemMang/heap_4.c **** 		/* Check the block is actually allocated. */
 320:Generated_Source\PSoC6\pdl\rtos\FreeRTOS\9.0.0\Source\portable\MemMang/heap_4.c **** 		configASSERT( ( pxLink->xBlockSize & xBlockAllocatedBit ) != 0 );
 321:Generated_Source\PSoC6\pdl\rtos\FreeRTOS\9.0.0\Source\portable\MemMang/heap_4.c **** 		configASSERT( pxLink->pxNextFreeBlock == NULL );
 322:Generated_Source\PSoC6\pdl\rtos\FreeRTOS\9.0.0\Source\portable\MemMang/heap_4.c **** 
 323:Generated_Source\PSoC6\pdl\rtos\FreeRTOS\9.0.0\Source\portable\MemMang/heap_4.c **** 		if( ( pxLink->xBlockSize & xBlockAllocatedBit ) != 0 )
 324:Generated_Source\PSoC6\pdl\rtos\FreeRTOS\9.0.0\Source\portable\MemMang/heap_4.c **** 		{
 325:Generated_Source\PSoC6\pdl\rtos\FreeRTOS\9.0.0\Source\portable\MemMang/heap_4.c **** 			if( pxLink->pxNextFreeBlock == NULL )
 326:Generated_Source\PSoC6\pdl\rtos\FreeRTOS\9.0.0\Source\portable\MemMang/heap_4.c **** 			{
 327:Generated_Source\PSoC6\pdl\rtos\FreeRTOS\9.0.0\Source\portable\MemMang/heap_4.c **** 				/* The block is being returned to the heap - it is no longer
 328:Generated_Source\PSoC6\pdl\rtos\FreeRTOS\9.0.0\Source\portable\MemMang/heap_4.c **** 				allocated. */
 329:Generated_Source\PSoC6\pdl\rtos\FreeRTOS\9.0.0\Source\portable\MemMang/heap_4.c **** 				pxLink->xBlockSize &= ~xBlockAllocatedBit;
 330:Generated_Source\PSoC6\pdl\rtos\FreeRTOS\9.0.0\Source\portable\MemMang/heap_4.c **** 
 331:Generated_Source\PSoC6\pdl\rtos\FreeRTOS\9.0.0\Source\portable\MemMang/heap_4.c **** 				vTaskSuspendAll();
 332:Generated_Source\PSoC6\pdl\rtos\FreeRTOS\9.0.0\Source\portable\MemMang/heap_4.c **** 				{
 333:Generated_Source\PSoC6\pdl\rtos\FreeRTOS\9.0.0\Source\portable\MemMang/heap_4.c **** 					/* Add this block to the list of free blocks. */
 334:Generated_Source\PSoC6\pdl\rtos\FreeRTOS\9.0.0\Source\portable\MemMang/heap_4.c **** 					xFreeBytesRemaining += pxLink->xBlockSize;
 335:Generated_Source\PSoC6\pdl\rtos\FreeRTOS\9.0.0\Source\portable\MemMang/heap_4.c **** 					traceFREE( pv, pxLink->xBlockSize );
 336:Generated_Source\PSoC6\pdl\rtos\FreeRTOS\9.0.0\Source\portable\MemMang/heap_4.c **** 					prvInsertBlockIntoFreeList( ( ( BlockLink_t * ) pxLink ) );
 337:Generated_Source\PSoC6\pdl\rtos\FreeRTOS\9.0.0\Source\portable\MemMang/heap_4.c **** 				}
 338:Generated_Source\PSoC6\pdl\rtos\FreeRTOS\9.0.0\Source\portable\MemMang/heap_4.c **** 				( void ) xTaskResumeAll();
 339:Generated_Source\PSoC6\pdl\rtos\FreeRTOS\9.0.0\Source\portable\MemMang/heap_4.c **** 			}
 340:Generated_Source\PSoC6\pdl\rtos\FreeRTOS\9.0.0\Source\portable\MemMang/heap_4.c **** 			else
 341:Generated_Source\PSoC6\pdl\rtos\FreeRTOS\9.0.0\Source\portable\MemMang/heap_4.c **** 			{
 342:Generated_Source\PSoC6\pdl\rtos\FreeRTOS\9.0.0\Source\portable\MemMang/heap_4.c **** 				mtCOVERAGE_TEST_MARKER();
 343:Generated_Source\PSoC6\pdl\rtos\FreeRTOS\9.0.0\Source\portable\MemMang/heap_4.c **** 			}
 344:Generated_Source\PSoC6\pdl\rtos\FreeRTOS\9.0.0\Source\portable\MemMang/heap_4.c **** 		}
 345:Generated_Source\PSoC6\pdl\rtos\FreeRTOS\9.0.0\Source\portable\MemMang/heap_4.c **** 		else
 346:Generated_Source\PSoC6\pdl\rtos\FreeRTOS\9.0.0\Source\portable\MemMang/heap_4.c **** 		{
 347:Generated_Source\PSoC6\pdl\rtos\FreeRTOS\9.0.0\Source\portable\MemMang/heap_4.c **** 			mtCOVERAGE_TEST_MARKER();
 348:Generated_Source\PSoC6\pdl\rtos\FreeRTOS\9.0.0\Source\portable\MemMang/heap_4.c **** 		}
 349:Generated_Source\PSoC6\pdl\rtos\FreeRTOS\9.0.0\Source\portable\MemMang/heap_4.c **** 	}
 350:Generated_Source\PSoC6\pdl\rtos\FreeRTOS\9.0.0\Source\portable\MemMang/heap_4.c **** }
 351:Generated_Source\PSoC6\pdl\rtos\FreeRTOS\9.0.0\Source\portable\MemMang/heap_4.c **** /*-----------------------------------------------------------*/
 352:Generated_Source\PSoC6\pdl\rtos\FreeRTOS\9.0.0\Source\portable\MemMang/heap_4.c **** 
 353:Generated_Source\PSoC6\pdl\rtos\FreeRTOS\9.0.0\Source\portable\MemMang/heap_4.c **** size_t xPortGetFreeHeapSize( void )
 354:Generated_Source\PSoC6\pdl\rtos\FreeRTOS\9.0.0\Source\portable\MemMang/heap_4.c **** {
 355:Generated_Source\PSoC6\pdl\rtos\FreeRTOS\9.0.0\Source\portable\MemMang/heap_4.c **** 	return xFreeBytesRemaining;
 356:Generated_Source\PSoC6\pdl\rtos\FreeRTOS\9.0.0\Source\portable\MemMang/heap_4.c **** }
 357:Generated_Source\PSoC6\pdl\rtos\FreeRTOS\9.0.0\Source\portable\MemMang/heap_4.c **** /*-----------------------------------------------------------*/
 358:Generated_Source\PSoC6\pdl\rtos\FreeRTOS\9.0.0\Source\portable\MemMang/heap_4.c **** 
 359:Generated_Source\PSoC6\pdl\rtos\FreeRTOS\9.0.0\Source\portable\MemMang/heap_4.c **** size_t xPortGetMinimumEverFreeHeapSize( void )
 360:Generated_Source\PSoC6\pdl\rtos\FreeRTOS\9.0.0\Source\portable\MemMang/heap_4.c **** {
 361:Generated_Source\PSoC6\pdl\rtos\FreeRTOS\9.0.0\Source\portable\MemMang/heap_4.c **** 	return xMinimumEverFreeBytesRemaining;
 362:Generated_Source\PSoC6\pdl\rtos\FreeRTOS\9.0.0\Source\portable\MemMang/heap_4.c **** }
 363:Generated_Source\PSoC6\pdl\rtos\FreeRTOS\9.0.0\Source\portable\MemMang/heap_4.c **** /*-----------------------------------------------------------*/
 364:Generated_Source\PSoC6\pdl\rtos\FreeRTOS\9.0.0\Source\portable\MemMang/heap_4.c **** 
 365:Generated_Source\PSoC6\pdl\rtos\FreeRTOS\9.0.0\Source\portable\MemMang/heap_4.c **** void vPortInitialiseBlocks( void )
 366:Generated_Source\PSoC6\pdl\rtos\FreeRTOS\9.0.0\Source\portable\MemMang/heap_4.c **** {
 367:Generated_Source\PSoC6\pdl\rtos\FreeRTOS\9.0.0\Source\portable\MemMang/heap_4.c **** 	/* This just exists to keep the linker quiet. */
 368:Generated_Source\PSoC6\pdl\rtos\FreeRTOS\9.0.0\Source\portable\MemMang/heap_4.c **** }
 369:Generated_Source\PSoC6\pdl\rtos\FreeRTOS\9.0.0\Source\portable\MemMang/heap_4.c **** /*-----------------------------------------------------------*/
 370:Generated_Source\PSoC6\pdl\rtos\FreeRTOS\9.0.0\Source\portable\MemMang/heap_4.c **** 
 371:Generated_Source\PSoC6\pdl\rtos\FreeRTOS\9.0.0\Source\portable\MemMang/heap_4.c **** static void prvHeapInit( void )
 372:Generated_Source\PSoC6\pdl\rtos\FreeRTOS\9.0.0\Source\portable\MemMang/heap_4.c **** {
ARM GAS  C:\Users\Agentos\AppData\Local\Temp\ccLvM3Kf.s 			page 8


  28              		.loc 1 372 0
  29              		.cfi_startproc
  30              		@ args = 0, pretend = 0, frame = 0
  31              		@ frame_needed = 0, uses_anonymous_args = 0
  32              		@ link register save eliminated.
  33              	.LVL0:
 373:Generated_Source\PSoC6\pdl\rtos\FreeRTOS\9.0.0\Source\portable\MemMang/heap_4.c **** BlockLink_t *pxFirstFreeBlock;
 374:Generated_Source\PSoC6\pdl\rtos\FreeRTOS\9.0.0\Source\portable\MemMang/heap_4.c **** uint8_t *pucAlignedHeap;
 375:Generated_Source\PSoC6\pdl\rtos\FreeRTOS\9.0.0\Source\portable\MemMang/heap_4.c **** size_t uxAddress;
 376:Generated_Source\PSoC6\pdl\rtos\FreeRTOS\9.0.0\Source\portable\MemMang/heap_4.c **** size_t xTotalHeapSize = configTOTAL_HEAP_SIZE;
 377:Generated_Source\PSoC6\pdl\rtos\FreeRTOS\9.0.0\Source\portable\MemMang/heap_4.c **** 
 378:Generated_Source\PSoC6\pdl\rtos\FreeRTOS\9.0.0\Source\portable\MemMang/heap_4.c **** 	/* Ensure the heap starts on a correctly aligned boundary. */
 379:Generated_Source\PSoC6\pdl\rtos\FreeRTOS\9.0.0\Source\portable\MemMang/heap_4.c **** 	uxAddress = ( size_t ) ucHeap;
  34              		.loc 1 379 0
  35 0000 134A     		ldr	r2, .L4
  36              	.LVL1:
 380:Generated_Source\PSoC6\pdl\rtos\FreeRTOS\9.0.0\Source\portable\MemMang/heap_4.c **** 
 381:Generated_Source\PSoC6\pdl\rtos\FreeRTOS\9.0.0\Source\portable\MemMang/heap_4.c **** 	if( ( uxAddress & portBYTE_ALIGNMENT_MASK ) != 0 )
  37              		.loc 1 381 0
  38 0002 12F0070F 		tst	r2, #7
  39 0006 07D0     		beq	.L3
 382:Generated_Source\PSoC6\pdl\rtos\FreeRTOS\9.0.0\Source\portable\MemMang/heap_4.c **** 	{
 383:Generated_Source\PSoC6\pdl\rtos\FreeRTOS\9.0.0\Source\portable\MemMang/heap_4.c **** 		uxAddress += ( portBYTE_ALIGNMENT - 1 );
  40              		.loc 1 383 0
  41 0008 D11D     		adds	r1, r2, #7
  42              	.LVL2:
 384:Generated_Source\PSoC6\pdl\rtos\FreeRTOS\9.0.0\Source\portable\MemMang/heap_4.c **** 		uxAddress &= ~( ( size_t ) portBYTE_ALIGNMENT_MASK );
  43              		.loc 1 384 0
  44 000a 21F00701 		bic	r1, r1, #7
  45              	.LVL3:
 385:Generated_Source\PSoC6\pdl\rtos\FreeRTOS\9.0.0\Source\portable\MemMang/heap_4.c **** 		xTotalHeapSize -= uxAddress - ( size_t ) ucHeap;
  46              		.loc 1 385 0
  47 000e C1F52053 		rsb	r3, r1, #10240
  48 0012 1344     		add	r3, r3, r2
  49              	.LVL4:
 384:Generated_Source\PSoC6\pdl\rtos\FreeRTOS\9.0.0\Source\portable\MemMang/heap_4.c **** 		uxAddress &= ~( ( size_t ) portBYTE_ALIGNMENT_MASK );
  50              		.loc 1 384 0
  51 0014 0A46     		mov	r2, r1
  52 0016 01E0     		b	.L2
  53              	.LVL5:
  54              	.L3:
 376:Generated_Source\PSoC6\pdl\rtos\FreeRTOS\9.0.0\Source\portable\MemMang/heap_4.c **** 
  55              		.loc 1 376 0
  56 0018 4FF42053 		mov	r3, #10240
  57              	.LVL6:
  58              	.L2:
 386:Generated_Source\PSoC6\pdl\rtos\FreeRTOS\9.0.0\Source\portable\MemMang/heap_4.c **** 	}
 387:Generated_Source\PSoC6\pdl\rtos\FreeRTOS\9.0.0\Source\portable\MemMang/heap_4.c **** 
 388:Generated_Source\PSoC6\pdl\rtos\FreeRTOS\9.0.0\Source\portable\MemMang/heap_4.c **** 	pucAlignedHeap = ( uint8_t * ) uxAddress;
 389:Generated_Source\PSoC6\pdl\rtos\FreeRTOS\9.0.0\Source\portable\MemMang/heap_4.c **** 
 390:Generated_Source\PSoC6\pdl\rtos\FreeRTOS\9.0.0\Source\portable\MemMang/heap_4.c **** 	/* xStart is used to hold a pointer to the first item in the list of free
 391:Generated_Source\PSoC6\pdl\rtos\FreeRTOS\9.0.0\Source\portable\MemMang/heap_4.c **** 	blocks.  The void cast is used to prevent compiler warnings. */
 392:Generated_Source\PSoC6\pdl\rtos\FreeRTOS\9.0.0\Source\portable\MemMang/heap_4.c **** 	xStart.pxNextFreeBlock = ( void * ) pucAlignedHeap;
  59              		.loc 1 392 0
  60 001c 0D49     		ldr	r1, .L4+4
  61 001e C1F81026 		str	r2, [r1, #1552]
 393:Generated_Source\PSoC6\pdl\rtos\FreeRTOS\9.0.0\Source\portable\MemMang/heap_4.c **** 	xStart.xBlockSize = ( size_t ) 0;
ARM GAS  C:\Users\Agentos\AppData\Local\Temp\ccLvM3Kf.s 			page 9


  62              		.loc 1 393 0
  63 0022 0020     		movs	r0, #0
  64 0024 C1F81406 		str	r0, [r1, #1556]
 394:Generated_Source\PSoC6\pdl\rtos\FreeRTOS\9.0.0\Source\portable\MemMang/heap_4.c **** 
 395:Generated_Source\PSoC6\pdl\rtos\FreeRTOS\9.0.0\Source\portable\MemMang/heap_4.c **** 	/* pxEnd is used to mark the end of the list of free blocks and is inserted
 396:Generated_Source\PSoC6\pdl\rtos\FreeRTOS\9.0.0\Source\portable\MemMang/heap_4.c **** 	at the end of the heap space. */
 397:Generated_Source\PSoC6\pdl\rtos\FreeRTOS\9.0.0\Source\portable\MemMang/heap_4.c **** 	uxAddress = ( ( size_t ) pucAlignedHeap ) + xTotalHeapSize;
  65              		.loc 1 397 0
  66 0028 1344     		add	r3, r3, r2
  67              	.LVL7:
 398:Generated_Source\PSoC6\pdl\rtos\FreeRTOS\9.0.0\Source\portable\MemMang/heap_4.c **** 	uxAddress -= xHeapStructSize;
  68              		.loc 1 398 0
  69 002a 083B     		subs	r3, r3, #8
  70              	.LVL8:
 399:Generated_Source\PSoC6\pdl\rtos\FreeRTOS\9.0.0\Source\portable\MemMang/heap_4.c **** 	uxAddress &= ~( ( size_t ) portBYTE_ALIGNMENT_MASK );
  71              		.loc 1 399 0
  72 002c 23F00703 		bic	r3, r3, #7
  73              	.LVL9:
 400:Generated_Source\PSoC6\pdl\rtos\FreeRTOS\9.0.0\Source\portable\MemMang/heap_4.c **** 	pxEnd = ( void * ) uxAddress;
  74              		.loc 1 400 0
  75 0030 C1F81836 		str	r3, [r1, #1560]
 401:Generated_Source\PSoC6\pdl\rtos\FreeRTOS\9.0.0\Source\portable\MemMang/heap_4.c **** 	pxEnd->xBlockSize = 0;
  76              		.loc 1 401 0
  77 0034 5860     		str	r0, [r3, #4]
 402:Generated_Source\PSoC6\pdl\rtos\FreeRTOS\9.0.0\Source\portable\MemMang/heap_4.c **** 	pxEnd->pxNextFreeBlock = NULL;
  78              		.loc 1 402 0
  79 0036 1860     		str	r0, [r3]
  80              	.LVL10:
 403:Generated_Source\PSoC6\pdl\rtos\FreeRTOS\9.0.0\Source\portable\MemMang/heap_4.c **** 
 404:Generated_Source\PSoC6\pdl\rtos\FreeRTOS\9.0.0\Source\portable\MemMang/heap_4.c **** 	/* To start with there is a single free block that is sized to take up the
 405:Generated_Source\PSoC6\pdl\rtos\FreeRTOS\9.0.0\Source\portable\MemMang/heap_4.c **** 	entire heap space, minus the space taken by pxEnd. */
 406:Generated_Source\PSoC6\pdl\rtos\FreeRTOS\9.0.0\Source\portable\MemMang/heap_4.c **** 	pxFirstFreeBlock = ( void * ) pucAlignedHeap;
 407:Generated_Source\PSoC6\pdl\rtos\FreeRTOS\9.0.0\Source\portable\MemMang/heap_4.c **** 	pxFirstFreeBlock->xBlockSize = uxAddress - ( size_t ) pxFirstFreeBlock;
  81              		.loc 1 407 0
  82 0038 981A     		subs	r0, r3, r2
  83 003a 5060     		str	r0, [r2, #4]
 408:Generated_Source\PSoC6\pdl\rtos\FreeRTOS\9.0.0\Source\portable\MemMang/heap_4.c **** 	pxFirstFreeBlock->pxNextFreeBlock = pxEnd;
  84              		.loc 1 408 0
  85 003c 1360     		str	r3, [r2]
 409:Generated_Source\PSoC6\pdl\rtos\FreeRTOS\9.0.0\Source\portable\MemMang/heap_4.c **** 
 410:Generated_Source\PSoC6\pdl\rtos\FreeRTOS\9.0.0\Source\portable\MemMang/heap_4.c **** 	/* Only one block exists - and it covers the entire usable heap space. */
 411:Generated_Source\PSoC6\pdl\rtos\FreeRTOS\9.0.0\Source\portable\MemMang/heap_4.c **** 	xMinimumEverFreeBytesRemaining = pxFirstFreeBlock->xBlockSize;
  86              		.loc 1 411 0
  87 003e C1F81C06 		str	r0, [r1, #1564]
 412:Generated_Source\PSoC6\pdl\rtos\FreeRTOS\9.0.0\Source\portable\MemMang/heap_4.c **** 	xFreeBytesRemaining = pxFirstFreeBlock->xBlockSize;
  88              		.loc 1 412 0
  89 0042 C1F82006 		str	r0, [r1, #1568]
 413:Generated_Source\PSoC6\pdl\rtos\FreeRTOS\9.0.0\Source\portable\MemMang/heap_4.c **** 
 414:Generated_Source\PSoC6\pdl\rtos\FreeRTOS\9.0.0\Source\portable\MemMang/heap_4.c **** 	/* Work out the position of the top bit in a size_t variable. */
 415:Generated_Source\PSoC6\pdl\rtos\FreeRTOS\9.0.0\Source\portable\MemMang/heap_4.c **** 	xBlockAllocatedBit = ( ( size_t ) 1 ) << ( ( sizeof( size_t ) * heapBITS_PER_BYTE ) - 1 );
  90              		.loc 1 415 0
  91 0046 4FF00043 		mov	r3, #-2147483648
  92              	.LVL11:
  93 004a C1F82436 		str	r3, [r1, #1572]
  94 004e 7047     		bx	lr
  95              	.L5:
  96              		.align	2
ARM GAS  C:\Users\Agentos\AppData\Local\Temp\ccLvM3Kf.s 			page 10


  97              	.L4:
  98 0050 00000000 		.word	.LANCHOR0
  99 0054 F0210000 		.word	.LANCHOR1
 100              		.cfi_endproc
 101              	.LFE522:
 102              		.size	prvHeapInit, .-prvHeapInit
 103              		.section	.text.prvInsertBlockIntoFreeList,"ax",%progbits
 104              		.align	2
 105              		.thumb
 106              		.thumb_func
 107              		.type	prvInsertBlockIntoFreeList, %function
 108              	prvInsertBlockIntoFreeList:
 109              	.LFB523:
 416:Generated_Source\PSoC6\pdl\rtos\FreeRTOS\9.0.0\Source\portable\MemMang/heap_4.c **** }
 417:Generated_Source\PSoC6\pdl\rtos\FreeRTOS\9.0.0\Source\portable\MemMang/heap_4.c **** /*-----------------------------------------------------------*/
 418:Generated_Source\PSoC6\pdl\rtos\FreeRTOS\9.0.0\Source\portable\MemMang/heap_4.c **** 
 419:Generated_Source\PSoC6\pdl\rtos\FreeRTOS\9.0.0\Source\portable\MemMang/heap_4.c **** static void prvInsertBlockIntoFreeList( BlockLink_t *pxBlockToInsert )
 420:Generated_Source\PSoC6\pdl\rtos\FreeRTOS\9.0.0\Source\portable\MemMang/heap_4.c **** {
 110              		.loc 1 420 0
 111              		.cfi_startproc
 112              		@ args = 0, pretend = 0, frame = 0
 113              		@ frame_needed = 0, uses_anonymous_args = 0
 114              		@ link register save eliminated.
 115              	.LVL12:
 421:Generated_Source\PSoC6\pdl\rtos\FreeRTOS\9.0.0\Source\portable\MemMang/heap_4.c **** BlockLink_t *pxIterator;
 422:Generated_Source\PSoC6\pdl\rtos\FreeRTOS\9.0.0\Source\portable\MemMang/heap_4.c **** uint8_t *puc;
 423:Generated_Source\PSoC6\pdl\rtos\FreeRTOS\9.0.0\Source\portable\MemMang/heap_4.c **** 
 424:Generated_Source\PSoC6\pdl\rtos\FreeRTOS\9.0.0\Source\portable\MemMang/heap_4.c **** 	/* Iterate through the list until a block is found that has a higher address
 425:Generated_Source\PSoC6\pdl\rtos\FreeRTOS\9.0.0\Source\portable\MemMang/heap_4.c **** 	than the block being inserted. */
 426:Generated_Source\PSoC6\pdl\rtos\FreeRTOS\9.0.0\Source\portable\MemMang/heap_4.c **** 	for( pxIterator = &xStart; pxIterator->pxNextFreeBlock < pxBlockToInsert; pxIterator = pxIterator-
 116              		.loc 1 426 0
 117 0000 134B     		ldr	r3, .L15
 118 0002 00E0     		b	.L7
 119              	.LVL13:
 120              	.L13:
 121 0004 1346     		mov	r3, r2
 122              	.LVL14:
 123              	.L7:
 124              		.loc 1 426 0 is_stmt 0 discriminator 1
 125 0006 1A68     		ldr	r2, [r3]
 126 0008 8242     		cmp	r2, r0
 127 000a FBD3     		bcc	.L13
 420:Generated_Source\PSoC6\pdl\rtos\FreeRTOS\9.0.0\Source\portable\MemMang/heap_4.c **** BlockLink_t *pxIterator;
 128              		.loc 1 420 0 is_stmt 1
 129 000c 10B4     		push	{r4}
 130              		.cfi_def_cfa_offset 4
 131              		.cfi_offset 4, -4
 132              	.LVL15:
 427:Generated_Source\PSoC6\pdl\rtos\FreeRTOS\9.0.0\Source\portable\MemMang/heap_4.c **** 	{
 428:Generated_Source\PSoC6\pdl\rtos\FreeRTOS\9.0.0\Source\portable\MemMang/heap_4.c **** 		/* Nothing to do here, just iterate to the right position. */
 429:Generated_Source\PSoC6\pdl\rtos\FreeRTOS\9.0.0\Source\portable\MemMang/heap_4.c **** 	}
 430:Generated_Source\PSoC6\pdl\rtos\FreeRTOS\9.0.0\Source\portable\MemMang/heap_4.c **** 
 431:Generated_Source\PSoC6\pdl\rtos\FreeRTOS\9.0.0\Source\portable\MemMang/heap_4.c **** 	/* Do the block being inserted, and the block it is being inserted after
 432:Generated_Source\PSoC6\pdl\rtos\FreeRTOS\9.0.0\Source\portable\MemMang/heap_4.c **** 	make a contiguous block of memory? */
 433:Generated_Source\PSoC6\pdl\rtos\FreeRTOS\9.0.0\Source\portable\MemMang/heap_4.c **** 	puc = ( uint8_t * ) pxIterator;
 434:Generated_Source\PSoC6\pdl\rtos\FreeRTOS\9.0.0\Source\portable\MemMang/heap_4.c **** 	if( ( puc + pxIterator->xBlockSize ) == ( uint8_t * ) pxBlockToInsert )
 133              		.loc 1 434 0
ARM GAS  C:\Users\Agentos\AppData\Local\Temp\ccLvM3Kf.s 			page 11


 134 000e 5C68     		ldr	r4, [r3, #4]
 135 0010 1919     		adds	r1, r3, r4
 136 0012 8842     		cmp	r0, r1
 137 0014 03D1     		bne	.L8
 435:Generated_Source\PSoC6\pdl\rtos\FreeRTOS\9.0.0\Source\portable\MemMang/heap_4.c **** 	{
 436:Generated_Source\PSoC6\pdl\rtos\FreeRTOS\9.0.0\Source\portable\MemMang/heap_4.c **** 		pxIterator->xBlockSize += pxBlockToInsert->xBlockSize;
 138              		.loc 1 436 0
 139 0016 4168     		ldr	r1, [r0, #4]
 140 0018 2144     		add	r1, r1, r4
 141 001a 5960     		str	r1, [r3, #4]
 142              	.LVL16:
 437:Generated_Source\PSoC6\pdl\rtos\FreeRTOS\9.0.0\Source\portable\MemMang/heap_4.c **** 		pxBlockToInsert = pxIterator;
 143              		.loc 1 437 0
 144 001c 1846     		mov	r0, r3
 145              	.LVL17:
 146              	.L8:
 438:Generated_Source\PSoC6\pdl\rtos\FreeRTOS\9.0.0\Source\portable\MemMang/heap_4.c **** 	}
 439:Generated_Source\PSoC6\pdl\rtos\FreeRTOS\9.0.0\Source\portable\MemMang/heap_4.c **** 	else
 440:Generated_Source\PSoC6\pdl\rtos\FreeRTOS\9.0.0\Source\portable\MemMang/heap_4.c **** 	{
 441:Generated_Source\PSoC6\pdl\rtos\FreeRTOS\9.0.0\Source\portable\MemMang/heap_4.c **** 		mtCOVERAGE_TEST_MARKER();
 442:Generated_Source\PSoC6\pdl\rtos\FreeRTOS\9.0.0\Source\portable\MemMang/heap_4.c **** 	}
 443:Generated_Source\PSoC6\pdl\rtos\FreeRTOS\9.0.0\Source\portable\MemMang/heap_4.c **** 
 444:Generated_Source\PSoC6\pdl\rtos\FreeRTOS\9.0.0\Source\portable\MemMang/heap_4.c **** 	/* Do the block being inserted, and the block it is being inserted before
 445:Generated_Source\PSoC6\pdl\rtos\FreeRTOS\9.0.0\Source\portable\MemMang/heap_4.c **** 	make a contiguous block of memory? */
 446:Generated_Source\PSoC6\pdl\rtos\FreeRTOS\9.0.0\Source\portable\MemMang/heap_4.c **** 	puc = ( uint8_t * ) pxBlockToInsert;
 447:Generated_Source\PSoC6\pdl\rtos\FreeRTOS\9.0.0\Source\portable\MemMang/heap_4.c **** 	if( ( puc + pxBlockToInsert->xBlockSize ) == ( uint8_t * ) pxIterator->pxNextFreeBlock )
 147              		.loc 1 447 0
 148 001e 4468     		ldr	r4, [r0, #4]
 149 0020 0119     		adds	r1, r0, r4
 150 0022 8A42     		cmp	r2, r1
 151 0024 0DD1     		bne	.L9
 448:Generated_Source\PSoC6\pdl\rtos\FreeRTOS\9.0.0\Source\portable\MemMang/heap_4.c **** 	{
 449:Generated_Source\PSoC6\pdl\rtos\FreeRTOS\9.0.0\Source\portable\MemMang/heap_4.c **** 		if( pxIterator->pxNextFreeBlock != pxEnd )
 152              		.loc 1 449 0
 153 0026 0B49     		ldr	r1, .L15+4
 154 0028 D1F81816 		ldr	r1, [r1, #1560]
 155 002c 8A42     		cmp	r2, r1
 156 002e 06D0     		beq	.L10
 450:Generated_Source\PSoC6\pdl\rtos\FreeRTOS\9.0.0\Source\portable\MemMang/heap_4.c **** 		{
 451:Generated_Source\PSoC6\pdl\rtos\FreeRTOS\9.0.0\Source\portable\MemMang/heap_4.c **** 			/* Form one big block from the two blocks. */
 452:Generated_Source\PSoC6\pdl\rtos\FreeRTOS\9.0.0\Source\portable\MemMang/heap_4.c **** 			pxBlockToInsert->xBlockSize += pxIterator->pxNextFreeBlock->xBlockSize;
 157              		.loc 1 452 0
 158 0030 5268     		ldr	r2, [r2, #4]
 159 0032 2244     		add	r2, r2, r4
 160 0034 4260     		str	r2, [r0, #4]
 453:Generated_Source\PSoC6\pdl\rtos\FreeRTOS\9.0.0\Source\portable\MemMang/heap_4.c **** 			pxBlockToInsert->pxNextFreeBlock = pxIterator->pxNextFreeBlock->pxNextFreeBlock;
 161              		.loc 1 453 0
 162 0036 1A68     		ldr	r2, [r3]
 163 0038 1268     		ldr	r2, [r2]
 164 003a 0260     		str	r2, [r0]
 165 003c 02E0     		b	.L11
 166              	.L10:
 454:Generated_Source\PSoC6\pdl\rtos\FreeRTOS\9.0.0\Source\portable\MemMang/heap_4.c **** 		}
 455:Generated_Source\PSoC6\pdl\rtos\FreeRTOS\9.0.0\Source\portable\MemMang/heap_4.c **** 		else
 456:Generated_Source\PSoC6\pdl\rtos\FreeRTOS\9.0.0\Source\portable\MemMang/heap_4.c **** 		{
 457:Generated_Source\PSoC6\pdl\rtos\FreeRTOS\9.0.0\Source\portable\MemMang/heap_4.c **** 			pxBlockToInsert->pxNextFreeBlock = pxEnd;
 167              		.loc 1 457 0
ARM GAS  C:\Users\Agentos\AppData\Local\Temp\ccLvM3Kf.s 			page 12


 168 003e 0160     		str	r1, [r0]
 169 0040 00E0     		b	.L11
 170              	.L9:
 458:Generated_Source\PSoC6\pdl\rtos\FreeRTOS\9.0.0\Source\portable\MemMang/heap_4.c **** 		}
 459:Generated_Source\PSoC6\pdl\rtos\FreeRTOS\9.0.0\Source\portable\MemMang/heap_4.c **** 	}
 460:Generated_Source\PSoC6\pdl\rtos\FreeRTOS\9.0.0\Source\portable\MemMang/heap_4.c **** 	else
 461:Generated_Source\PSoC6\pdl\rtos\FreeRTOS\9.0.0\Source\portable\MemMang/heap_4.c **** 	{
 462:Generated_Source\PSoC6\pdl\rtos\FreeRTOS\9.0.0\Source\portable\MemMang/heap_4.c **** 		pxBlockToInsert->pxNextFreeBlock = pxIterator->pxNextFreeBlock;
 171              		.loc 1 462 0
 172 0042 0260     		str	r2, [r0]
 173              	.L11:
 463:Generated_Source\PSoC6\pdl\rtos\FreeRTOS\9.0.0\Source\portable\MemMang/heap_4.c **** 	}
 464:Generated_Source\PSoC6\pdl\rtos\FreeRTOS\9.0.0\Source\portable\MemMang/heap_4.c **** 
 465:Generated_Source\PSoC6\pdl\rtos\FreeRTOS\9.0.0\Source\portable\MemMang/heap_4.c **** 	/* If the block being inserted plugged a gab, so was merged with the block
 466:Generated_Source\PSoC6\pdl\rtos\FreeRTOS\9.0.0\Source\portable\MemMang/heap_4.c **** 	before and the block after, then it's pxNextFreeBlock pointer will have
 467:Generated_Source\PSoC6\pdl\rtos\FreeRTOS\9.0.0\Source\portable\MemMang/heap_4.c **** 	already been set, and should not be set here as that would make it point
 468:Generated_Source\PSoC6\pdl\rtos\FreeRTOS\9.0.0\Source\portable\MemMang/heap_4.c **** 	to itself. */
 469:Generated_Source\PSoC6\pdl\rtos\FreeRTOS\9.0.0\Source\portable\MemMang/heap_4.c **** 	if( pxIterator != pxBlockToInsert )
 174              		.loc 1 469 0
 175 0044 9842     		cmp	r0, r3
 176 0046 00D0     		beq	.L6
 470:Generated_Source\PSoC6\pdl\rtos\FreeRTOS\9.0.0\Source\portable\MemMang/heap_4.c **** 	{
 471:Generated_Source\PSoC6\pdl\rtos\FreeRTOS\9.0.0\Source\portable\MemMang/heap_4.c **** 		pxIterator->pxNextFreeBlock = pxBlockToInsert;
 177              		.loc 1 471 0
 178 0048 1860     		str	r0, [r3]
 179              	.L6:
 472:Generated_Source\PSoC6\pdl\rtos\FreeRTOS\9.0.0\Source\portable\MemMang/heap_4.c **** 	}
 473:Generated_Source\PSoC6\pdl\rtos\FreeRTOS\9.0.0\Source\portable\MemMang/heap_4.c **** 	else
 474:Generated_Source\PSoC6\pdl\rtos\FreeRTOS\9.0.0\Source\portable\MemMang/heap_4.c **** 	{
 475:Generated_Source\PSoC6\pdl\rtos\FreeRTOS\9.0.0\Source\portable\MemMang/heap_4.c **** 		mtCOVERAGE_TEST_MARKER();
 476:Generated_Source\PSoC6\pdl\rtos\FreeRTOS\9.0.0\Source\portable\MemMang/heap_4.c **** 	}
 477:Generated_Source\PSoC6\pdl\rtos\FreeRTOS\9.0.0\Source\portable\MemMang/heap_4.c **** }
 180              		.loc 1 477 0
 181 004a 5DF8044B 		ldr	r4, [sp], #4
 182              		.cfi_restore 4
 183              		.cfi_def_cfa_offset 0
 184 004e 7047     		bx	lr
 185              	.L16:
 186              		.align	2
 187              	.L15:
 188 0050 00280000 		.word	.LANCHOR1+1552
 189 0054 F0210000 		.word	.LANCHOR1
 190              		.cfi_endproc
 191              	.LFE523:
 192              		.size	prvInsertBlockIntoFreeList, .-prvInsertBlockIntoFreeList
 193              		.section	.text.pvPortMalloc,"ax",%progbits
 194              		.align	2
 195              		.global	pvPortMalloc
 196              		.thumb
 197              		.thumb_func
 198              		.type	pvPortMalloc, %function
 199              	pvPortMalloc:
 200              	.LFB517:
 156:Generated_Source\PSoC6\pdl\rtos\FreeRTOS\9.0.0\Source\portable\MemMang/heap_4.c **** BlockLink_t *pxBlock, *pxPreviousBlock, *pxNewBlockLink;
 201              		.loc 1 156 0
 202              		.cfi_startproc
 203              		@ args = 0, pretend = 0, frame = 0
ARM GAS  C:\Users\Agentos\AppData\Local\Temp\ccLvM3Kf.s 			page 13


 204              		@ frame_needed = 0, uses_anonymous_args = 0
 205              	.LVL18:
 206 0000 70B5     		push	{r4, r5, r6, lr}
 207              		.cfi_def_cfa_offset 16
 208              		.cfi_offset 4, -16
 209              		.cfi_offset 5, -12
 210              		.cfi_offset 6, -8
 211              		.cfi_offset 14, -4
 212 0002 0446     		mov	r4, r0
 213              	.LVL19:
 160:Generated_Source\PSoC6\pdl\rtos\FreeRTOS\9.0.0\Source\portable\MemMang/heap_4.c **** 	{
 214              		.loc 1 160 0
 215 0004 FFF7FEFF 		bl	vTaskSuspendAll
 216              	.LVL20:
 164:Generated_Source\PSoC6\pdl\rtos\FreeRTOS\9.0.0\Source\portable\MemMang/heap_4.c **** 		{
 217              		.loc 1 164 0
 218 0008 364B     		ldr	r3, .L37
 219 000a D3F81836 		ldr	r3, [r3, #1560]
 220 000e 0BB9     		cbnz	r3, .L18
 166:Generated_Source\PSoC6\pdl\rtos\FreeRTOS\9.0.0\Source\portable\MemMang/heap_4.c **** 		}
 221              		.loc 1 166 0
 222 0010 FFF7FEFF 		bl	prvHeapInit
 223              	.LVL21:
 224              	.L18:
 177:Generated_Source\PSoC6\pdl\rtos\FreeRTOS\9.0.0\Source\portable\MemMang/heap_4.c **** 		{
 225              		.loc 1 177 0
 226 0014 334B     		ldr	r3, .L37
 227 0016 D3F82436 		ldr	r3, [r3, #1572]
 228 001a 1C42     		tst	r4, r3
 229 001c 4ED1     		bne	.L31
 181:Generated_Source\PSoC6\pdl\rtos\FreeRTOS\9.0.0\Source\portable\MemMang/heap_4.c **** 			{
 230              		.loc 1 181 0
 231 001e 5CB1     		cbz	r4, .L20
 183:Generated_Source\PSoC6\pdl\rtos\FreeRTOS\9.0.0\Source\portable\MemMang/heap_4.c **** 
 232              		.loc 1 183 0
 233 0020 0834     		adds	r4, r4, #8
 234              	.LVL22:
 187:Generated_Source\PSoC6\pdl\rtos\FreeRTOS\9.0.0\Source\portable\MemMang/heap_4.c **** 				{
 235              		.loc 1 187 0
 236 0022 14F0070F 		tst	r4, #7
 237 0026 07D0     		beq	.L20
 190:Generated_Source\PSoC6\pdl\rtos\FreeRTOS\9.0.0\Source\portable\MemMang/heap_4.c **** 					configASSERT( ( xWantedSize & portBYTE_ALIGNMENT_MASK ) == 0 );
 238              		.loc 1 190 0
 239 0028 24F00704 		bic	r4, r4, #7
 240              	.LVL23:
 241 002c 0834     		adds	r4, r4, #8
 242              	.LVL24:
 191:Generated_Source\PSoC6\pdl\rtos\FreeRTOS\9.0.0\Source\portable\MemMang/heap_4.c **** 				}
 243              		.loc 1 191 0
 244 002e 04F00703 		and	r3, r4, #7
 245 0032 0BB1     		cbz	r3, .L20
 191:Generated_Source\PSoC6\pdl\rtos\FreeRTOS\9.0.0\Source\portable\MemMang/heap_4.c **** 				}
 246              		.loc 1 191 0 is_stmt 0 discriminator 1
 247              		.syntax unified
 248              	@ 191 "Generated_Source\PSoC6\pdl\rtos\FreeRTOS\9.0.0\Source\portable\MemMang\heap_4.c" 1
 249 0034 72B6     		 cpsid i 
 250              	@ 0 "" 2
ARM GAS  C:\Users\Agentos\AppData\Local\Temp\ccLvM3Kf.s 			page 14


 251              		.thumb
 252              		.syntax unified
 253              	.L21:
 254 0036 FEE7     		b	.L21
 255              	.L20:
 203:Generated_Source\PSoC6\pdl\rtos\FreeRTOS\9.0.0\Source\portable\MemMang/heap_4.c **** 			{
 256              		.loc 1 203 0 is_stmt 1
 257 0038 002C     		cmp	r4, #0
 258 003a 41D0     		beq	.L32
 203:Generated_Source\PSoC6\pdl\rtos\FreeRTOS\9.0.0\Source\portable\MemMang/heap_4.c **** 			{
 259              		.loc 1 203 0 is_stmt 0 discriminator 1
 260 003c 294B     		ldr	r3, .L37
 261 003e D3F82036 		ldr	r3, [r3, #1568]
 262 0042 9C42     		cmp	r4, r3
 263 0044 3ED8     		bhi	.L33
 264              	.LVL25:
 208:Generated_Source\PSoC6\pdl\rtos\FreeRTOS\9.0.0\Source\portable\MemMang/heap_4.c **** 				while( ( pxBlock->xBlockSize < xWantedSize ) && ( pxBlock->pxNextFreeBlock != NULL ) )
 265              		.loc 1 208 0 is_stmt 1
 266 0046 274B     		ldr	r3, .L37
 267 0048 D3F81056 		ldr	r5, [r3, #1552]
 268              	.LVL26:
 207:Generated_Source\PSoC6\pdl\rtos\FreeRTOS\9.0.0\Source\portable\MemMang/heap_4.c **** 				pxBlock = xStart.pxNextFreeBlock;
 269              		.loc 1 207 0
 270 004c 03F5C263 		add	r3, r3, #1552
 209:Generated_Source\PSoC6\pdl\rtos\FreeRTOS\9.0.0\Source\portable\MemMang/heap_4.c **** 				{
 271              		.loc 1 209 0
 272 0050 01E0     		b	.L23
 273              	.LVL27:
 274              	.L34:
 211:Generated_Source\PSoC6\pdl\rtos\FreeRTOS\9.0.0\Source\portable\MemMang/heap_4.c **** 					pxBlock = pxBlock->pxNextFreeBlock;
 275              		.loc 1 211 0
 276 0052 2B46     		mov	r3, r5
 277              	.LVL28:
 212:Generated_Source\PSoC6\pdl\rtos\FreeRTOS\9.0.0\Source\portable\MemMang/heap_4.c **** 				}
 278              		.loc 1 212 0
 279 0054 1546     		mov	r5, r2
 280              	.LVL29:
 281              	.L23:
 209:Generated_Source\PSoC6\pdl\rtos\FreeRTOS\9.0.0\Source\portable\MemMang/heap_4.c **** 				{
 282              		.loc 1 209 0
 283 0056 6A68     		ldr	r2, [r5, #4]
 284 0058 9442     		cmp	r4, r2
 285 005a 02D9     		bls	.L22
 209:Generated_Source\PSoC6\pdl\rtos\FreeRTOS\9.0.0\Source\portable\MemMang/heap_4.c **** 				{
 286              		.loc 1 209 0 is_stmt 0 discriminator 1
 287 005c 2A68     		ldr	r2, [r5]
 288 005e 002A     		cmp	r2, #0
 289 0060 F7D1     		bne	.L34
 290              	.L22:
 217:Generated_Source\PSoC6\pdl\rtos\FreeRTOS\9.0.0\Source\portable\MemMang/heap_4.c **** 				{
 291              		.loc 1 217 0 is_stmt 1
 292 0062 204A     		ldr	r2, .L37
 293 0064 D2F81826 		ldr	r2, [r2, #1560]
 294 0068 9542     		cmp	r5, r2
 295 006a 2DD0     		beq	.L35
 221:Generated_Source\PSoC6\pdl\rtos\FreeRTOS\9.0.0\Source\portable\MemMang/heap_4.c **** 
 296              		.loc 1 221 0
ARM GAS  C:\Users\Agentos\AppData\Local\Temp\ccLvM3Kf.s 			page 15


 297 006c 1E68     		ldr	r6, [r3]
 298 006e 0836     		adds	r6, r6, #8
 299              	.LVL30:
 225:Generated_Source\PSoC6\pdl\rtos\FreeRTOS\9.0.0\Source\portable\MemMang/heap_4.c **** 
 300              		.loc 1 225 0
 301 0070 2A68     		ldr	r2, [r5]
 302 0072 1A60     		str	r2, [r3]
 229:Generated_Source\PSoC6\pdl\rtos\FreeRTOS\9.0.0\Source\portable\MemMang/heap_4.c **** 					{
 303              		.loc 1 229 0
 304 0074 6B68     		ldr	r3, [r5, #4]
 305              	.LVL31:
 306 0076 1B1B     		subs	r3, r3, r4
 307 0078 102B     		cmp	r3, #16
 308 007a 09D9     		bls	.L24
 235:Generated_Source\PSoC6\pdl\rtos\FreeRTOS\9.0.0\Source\portable\MemMang/heap_4.c **** 						configASSERT( ( ( ( size_t ) pxNewBlockLink ) & portBYTE_ALIGNMENT_MASK ) == 0 );
 309              		.loc 1 235 0
 310 007c 2819     		adds	r0, r5, r4
 311              	.LVL32:
 236:Generated_Source\PSoC6\pdl\rtos\FreeRTOS\9.0.0\Source\portable\MemMang/heap_4.c **** 
 312              		.loc 1 236 0
 313 007e 10F0070F 		tst	r0, #7
 314 0082 01D0     		beq	.L25
 236:Generated_Source\PSoC6\pdl\rtos\FreeRTOS\9.0.0\Source\portable\MemMang/heap_4.c **** 
 315              		.loc 1 236 0 is_stmt 0 discriminator 1
 316              		.syntax unified
 317              	@ 236 "Generated_Source\PSoC6\pdl\rtos\FreeRTOS\9.0.0\Source\portable\MemMang\heap_4.c" 1
 318 0084 72B6     		 cpsid i 
 319              	@ 0 "" 2
 320              		.thumb
 321              		.syntax unified
 322              	.L26:
 323 0086 FEE7     		b	.L26
 324              	.L25:
 240:Generated_Source\PSoC6\pdl\rtos\FreeRTOS\9.0.0\Source\portable\MemMang/heap_4.c **** 						pxBlock->xBlockSize = xWantedSize;
 325              		.loc 1 240 0 is_stmt 1
 326 0088 4360     		str	r3, [r0, #4]
 241:Generated_Source\PSoC6\pdl\rtos\FreeRTOS\9.0.0\Source\portable\MemMang/heap_4.c **** 
 327              		.loc 1 241 0
 328 008a 6C60     		str	r4, [r5, #4]
 244:Generated_Source\PSoC6\pdl\rtos\FreeRTOS\9.0.0\Source\portable\MemMang/heap_4.c **** 					}
 329              		.loc 1 244 0
 330 008c FFF7FEFF 		bl	prvInsertBlockIntoFreeList
 331              	.LVL33:
 332              	.L24:
 251:Generated_Source\PSoC6\pdl\rtos\FreeRTOS\9.0.0\Source\portable\MemMang/heap_4.c **** 
 333              		.loc 1 251 0
 334 0090 6A68     		ldr	r2, [r5, #4]
 335 0092 1449     		ldr	r1, .L37
 336 0094 D1F82036 		ldr	r3, [r1, #1568]
 337 0098 9B1A     		subs	r3, r3, r2
 338 009a C1F82036 		str	r3, [r1, #1568]
 253:Generated_Source\PSoC6\pdl\rtos\FreeRTOS\9.0.0\Source\portable\MemMang/heap_4.c **** 					{
 339              		.loc 1 253 0
 340 009e D1F81C16 		ldr	r1, [r1, #1564]
 341 00a2 8B42     		cmp	r3, r1
 342 00a4 02D2     		bcs	.L27
 255:Generated_Source\PSoC6\pdl\rtos\FreeRTOS\9.0.0\Source\portable\MemMang/heap_4.c **** 					}
ARM GAS  C:\Users\Agentos\AppData\Local\Temp\ccLvM3Kf.s 			page 16


 343              		.loc 1 255 0
 344 00a6 0F49     		ldr	r1, .L37
 345 00a8 C1F81C36 		str	r3, [r1, #1564]
 346              	.L27:
 264:Generated_Source\PSoC6\pdl\rtos\FreeRTOS\9.0.0\Source\portable\MemMang/heap_4.c **** 					pxBlock->pxNextFreeBlock = NULL;
 347              		.loc 1 264 0
 348 00ac 0D4B     		ldr	r3, .L37
 349 00ae D3F82436 		ldr	r3, [r3, #1572]
 350 00b2 1A43     		orrs	r2, r2, r3
 351 00b4 6A60     		str	r2, [r5, #4]
 265:Generated_Source\PSoC6\pdl\rtos\FreeRTOS\9.0.0\Source\portable\MemMang/heap_4.c **** 				}
 352              		.loc 1 265 0
 353 00b6 0023     		movs	r3, #0
 354 00b8 2B60     		str	r3, [r5]
 355 00ba 06E0     		b	.L19
 356              	.LVL34:
 357              	.L31:
 158:Generated_Source\PSoC6\pdl\rtos\FreeRTOS\9.0.0\Source\portable\MemMang/heap_4.c **** 
 358              		.loc 1 158 0
 359 00bc 0026     		movs	r6, #0
 360 00be 04E0     		b	.L19
 361              	.L32:
 362 00c0 0026     		movs	r6, #0
 363 00c2 02E0     		b	.L19
 364              	.L33:
 365 00c4 0026     		movs	r6, #0
 366 00c6 00E0     		b	.L19
 367              	.LVL35:
 368              	.L35:
 369 00c8 0026     		movs	r6, #0
 370              	.LVL36:
 371              	.L19:
 284:Generated_Source\PSoC6\pdl\rtos\FreeRTOS\9.0.0\Source\portable\MemMang/heap_4.c **** 
 372              		.loc 1 284 0
 373 00ca FFF7FEFF 		bl	xTaskResumeAll
 374              	.LVL37:
 288:Generated_Source\PSoC6\pdl\rtos\FreeRTOS\9.0.0\Source\portable\MemMang/heap_4.c **** 		{
 375              		.loc 1 288 0
 376 00ce 0EB9     		cbnz	r6, .L28
 377              	.LBB2:
 291:Generated_Source\PSoC6\pdl\rtos\FreeRTOS\9.0.0\Source\portable\MemMang/heap_4.c **** 		}
 378              		.loc 1 291 0
 379 00d0 FFF7FEFF 		bl	vApplicationMallocFailedHook
 380              	.LVL38:
 381              	.L28:
 382              	.LBE2:
 300:Generated_Source\PSoC6\pdl\rtos\FreeRTOS\9.0.0\Source\portable\MemMang/heap_4.c **** 	return pvReturn;
 383              		.loc 1 300 0
 384 00d4 16F0070F 		tst	r6, #7
 385 00d8 01D0     		beq	.L29
 300:Generated_Source\PSoC6\pdl\rtos\FreeRTOS\9.0.0\Source\portable\MemMang/heap_4.c **** 	return pvReturn;
 386              		.loc 1 300 0 is_stmt 0 discriminator 1
 387              		.syntax unified
 388              	@ 300 "Generated_Source\PSoC6\pdl\rtos\FreeRTOS\9.0.0\Source\portable\MemMang\heap_4.c" 1
 389 00da 72B6     		 cpsid i 
 390              	@ 0 "" 2
 391              		.thumb
ARM GAS  C:\Users\Agentos\AppData\Local\Temp\ccLvM3Kf.s 			page 17


 392              		.syntax unified
 393              	.L30:
 394 00dc FEE7     		b	.L30
 395              	.L29:
 302:Generated_Source\PSoC6\pdl\rtos\FreeRTOS\9.0.0\Source\portable\MemMang/heap_4.c **** /*-----------------------------------------------------------*/
 396              		.loc 1 302 0 is_stmt 1
 397 00de 3046     		mov	r0, r6
 398 00e0 70BD     		pop	{r4, r5, r6, pc}
 399              	.LVL39:
 400              	.L38:
 401 00e2 00BF     		.align	2
 402              	.L37:
 403 00e4 F0210000 		.word	.LANCHOR1
 404              		.cfi_endproc
 405              	.LFE517:
 406              		.size	pvPortMalloc, .-pvPortMalloc
 407              		.section	.text.vPortFree,"ax",%progbits
 408              		.align	2
 409              		.global	vPortFree
 410              		.thumb
 411              		.thumb_func
 412              		.type	vPortFree, %function
 413              	vPortFree:
 414              	.LFB518:
 306:Generated_Source\PSoC6\pdl\rtos\FreeRTOS\9.0.0\Source\portable\MemMang/heap_4.c **** uint8_t *puc = ( uint8_t * ) pv;
 415              		.loc 1 306 0
 416              		.cfi_startproc
 417              		@ args = 0, pretend = 0, frame = 0
 418              		@ frame_needed = 0, uses_anonymous_args = 0
 419              	.LVL40:
 310:Generated_Source\PSoC6\pdl\rtos\FreeRTOS\9.0.0\Source\portable\MemMang/heap_4.c **** 	{
 420              		.loc 1 310 0
 421 0000 48B3     		cbz	r0, .L46
 306:Generated_Source\PSoC6\pdl\rtos\FreeRTOS\9.0.0\Source\portable\MemMang/heap_4.c **** uint8_t *puc = ( uint8_t * ) pv;
 422              		.loc 1 306 0
 423 0002 38B5     		push	{r3, r4, r5, lr}
 424              		.cfi_def_cfa_offset 16
 425              		.cfi_offset 3, -16
 426              		.cfi_offset 4, -12
 427              		.cfi_offset 5, -8
 428              		.cfi_offset 14, -4
 429 0004 0346     		mov	r3, r0
 314:Generated_Source\PSoC6\pdl\rtos\FreeRTOS\9.0.0\Source\portable\MemMang/heap_4.c **** 
 430              		.loc 1 314 0
 431 0006 A0F10805 		sub	r5, r0, #8
 432              	.LVL41:
 320:Generated_Source\PSoC6\pdl\rtos\FreeRTOS\9.0.0\Source\portable\MemMang/heap_4.c **** 		configASSERT( pxLink->pxNextFreeBlock == NULL );
 433              		.loc 1 320 0
 434 000a 50F8042C 		ldr	r2, [r0, #-4]
 435 000e 1249     		ldr	r1, .L47
 436 0010 D1F82416 		ldr	r1, [r1, #1572]
 437 0014 12EA0104 		ands	r4, r2, r1
 438 0018 01D1     		bne	.L41
 320:Generated_Source\PSoC6\pdl\rtos\FreeRTOS\9.0.0\Source\portable\MemMang/heap_4.c **** 		configASSERT( pxLink->pxNextFreeBlock == NULL );
 439              		.loc 1 320 0 is_stmt 0 discriminator 1
 440              		.syntax unified
 441              	@ 320 "Generated_Source\PSoC6\pdl\rtos\FreeRTOS\9.0.0\Source\portable\MemMang\heap_4.c" 1
ARM GAS  C:\Users\Agentos\AppData\Local\Temp\ccLvM3Kf.s 			page 18


 442 001a 72B6     		 cpsid i 
 443              	@ 0 "" 2
 444              		.thumb
 445              		.syntax unified
 446              	.L42:
 447 001c FEE7     		b	.L42
 448              	.L41:
 321:Generated_Source\PSoC6\pdl\rtos\FreeRTOS\9.0.0\Source\portable\MemMang/heap_4.c **** 
 449              		.loc 1 321 0 is_stmt 1
 450 001e 50F8080C 		ldr	r0, [r0, #-8]
 451              	.LVL42:
 452 0022 08B1     		cbz	r0, .L43
 321:Generated_Source\PSoC6\pdl\rtos\FreeRTOS\9.0.0\Source\portable\MemMang/heap_4.c **** 
 453              		.loc 1 321 0 is_stmt 0 discriminator 1
 454              		.syntax unified
 455              	@ 321 "Generated_Source\PSoC6\pdl\rtos\FreeRTOS\9.0.0\Source\portable\MemMang\heap_4.c" 1
 456 0024 72B6     		 cpsid i 
 457              	@ 0 "" 2
 458              		.thumb
 459              		.syntax unified
 460              	.L44:
 461 0026 FEE7     		b	.L44
 462              	.L43:
 323:Generated_Source\PSoC6\pdl\rtos\FreeRTOS\9.0.0\Source\portable\MemMang/heap_4.c **** 		{
 463              		.loc 1 323 0 is_stmt 1
 464 0028 A4B1     		cbz	r4, .L39
 325:Generated_Source\PSoC6\pdl\rtos\FreeRTOS\9.0.0\Source\portable\MemMang/heap_4.c **** 			{
 465              		.loc 1 325 0
 466 002a 98B9     		cbnz	r0, .L39
 467 002c 1C46     		mov	r4, r3
 329:Generated_Source\PSoC6\pdl\rtos\FreeRTOS\9.0.0\Source\portable\MemMang/heap_4.c **** 
 468              		.loc 1 329 0
 469 002e 22EA0102 		bic	r2, r2, r1
 470 0032 43F8042C 		str	r2, [r3, #-4]
 331:Generated_Source\PSoC6\pdl\rtos\FreeRTOS\9.0.0\Source\portable\MemMang/heap_4.c **** 				{
 471              		.loc 1 331 0
 472 0036 FFF7FEFF 		bl	vTaskSuspendAll
 473              	.LVL43:
 334:Generated_Source\PSoC6\pdl\rtos\FreeRTOS\9.0.0\Source\portable\MemMang/heap_4.c **** 					traceFREE( pv, pxLink->xBlockSize );
 474              		.loc 1 334 0
 475 003a 54F8043C 		ldr	r3, [r4, #-4]
 476 003e 064A     		ldr	r2, .L47
 477 0040 D2F82016 		ldr	r1, [r2, #1568]
 478 0044 0B44     		add	r3, r3, r1
 479 0046 C2F82036 		str	r3, [r2, #1568]
 336:Generated_Source\PSoC6\pdl\rtos\FreeRTOS\9.0.0\Source\portable\MemMang/heap_4.c **** 				}
 480              		.loc 1 336 0
 481 004a 2846     		mov	r0, r5
 482 004c FFF7FEFF 		bl	prvInsertBlockIntoFreeList
 483              	.LVL44:
 338:Generated_Source\PSoC6\pdl\rtos\FreeRTOS\9.0.0\Source\portable\MemMang/heap_4.c **** 			}
 484              		.loc 1 338 0
 485 0050 FFF7FEFF 		bl	xTaskResumeAll
 486              	.LVL45:
 487              	.L39:
 488 0054 38BD     		pop	{r3, r4, r5, pc}
 489              	.LVL46:
ARM GAS  C:\Users\Agentos\AppData\Local\Temp\ccLvM3Kf.s 			page 19


 490              	.L46:
 491              		.cfi_def_cfa_offset 0
 492              		.cfi_restore 3
 493              		.cfi_restore 4
 494              		.cfi_restore 5
 495              		.cfi_restore 14
 496 0056 7047     		bx	lr
 497              	.L48:
 498              		.align	2
 499              	.L47:
 500 0058 F0210000 		.word	.LANCHOR1
 501              		.cfi_endproc
 502              	.LFE518:
 503              		.size	vPortFree, .-vPortFree
 504              		.section	.text.xPortGetFreeHeapSize,"ax",%progbits
 505              		.align	2
 506              		.global	xPortGetFreeHeapSize
 507              		.thumb
 508              		.thumb_func
 509              		.type	xPortGetFreeHeapSize, %function
 510              	xPortGetFreeHeapSize:
 511              	.LFB519:
 354:Generated_Source\PSoC6\pdl\rtos\FreeRTOS\9.0.0\Source\portable\MemMang/heap_4.c **** 	return xFreeBytesRemaining;
 512              		.loc 1 354 0
 513              		.cfi_startproc
 514              		@ args = 0, pretend = 0, frame = 0
 515              		@ frame_needed = 0, uses_anonymous_args = 0
 516              		@ link register save eliminated.
 356:Generated_Source\PSoC6\pdl\rtos\FreeRTOS\9.0.0\Source\portable\MemMang/heap_4.c **** /*-----------------------------------------------------------*/
 517              		.loc 1 356 0
 518 0000 014B     		ldr	r3, .L50
 519 0002 D3F82006 		ldr	r0, [r3, #1568]
 520 0006 7047     		bx	lr
 521              	.L51:
 522              		.align	2
 523              	.L50:
 524 0008 F0210000 		.word	.LANCHOR1
 525              		.cfi_endproc
 526              	.LFE519:
 527              		.size	xPortGetFreeHeapSize, .-xPortGetFreeHeapSize
 528              		.section	.text.xPortGetMinimumEverFreeHeapSize,"ax",%progbits
 529              		.align	2
 530              		.global	xPortGetMinimumEverFreeHeapSize
 531              		.thumb
 532              		.thumb_func
 533              		.type	xPortGetMinimumEverFreeHeapSize, %function
 534              	xPortGetMinimumEverFreeHeapSize:
 535              	.LFB520:
 360:Generated_Source\PSoC6\pdl\rtos\FreeRTOS\9.0.0\Source\portable\MemMang/heap_4.c **** 	return xMinimumEverFreeBytesRemaining;
 536              		.loc 1 360 0
 537              		.cfi_startproc
 538              		@ args = 0, pretend = 0, frame = 0
 539              		@ frame_needed = 0, uses_anonymous_args = 0
 540              		@ link register save eliminated.
 362:Generated_Source\PSoC6\pdl\rtos\FreeRTOS\9.0.0\Source\portable\MemMang/heap_4.c **** /*-----------------------------------------------------------*/
 541              		.loc 1 362 0
 542 0000 014B     		ldr	r3, .L53
ARM GAS  C:\Users\Agentos\AppData\Local\Temp\ccLvM3Kf.s 			page 20


 543 0002 D3F81C06 		ldr	r0, [r3, #1564]
 544 0006 7047     		bx	lr
 545              	.L54:
 546              		.align	2
 547              	.L53:
 548 0008 F0210000 		.word	.LANCHOR1
 549              		.cfi_endproc
 550              	.LFE520:
 551              		.size	xPortGetMinimumEverFreeHeapSize, .-xPortGetMinimumEverFreeHeapSize
 552              		.section	.text.vPortInitialiseBlocks,"ax",%progbits
 553              		.align	2
 554              		.global	vPortInitialiseBlocks
 555              		.thumb
 556              		.thumb_func
 557              		.type	vPortInitialiseBlocks, %function
 558              	vPortInitialiseBlocks:
 559              	.LFB521:
 366:Generated_Source\PSoC6\pdl\rtos\FreeRTOS\9.0.0\Source\portable\MemMang/heap_4.c **** 	/* This just exists to keep the linker quiet. */
 560              		.loc 1 366 0
 561              		.cfi_startproc
 562              		@ args = 0, pretend = 0, frame = 0
 563              		@ frame_needed = 0, uses_anonymous_args = 0
 564              		@ link register save eliminated.
 565 0000 7047     		bx	lr
 566              		.cfi_endproc
 567              	.LFE521:
 568              		.size	vPortInitialiseBlocks, .-vPortInitialiseBlocks
 569 0002 00BF     		.bss
 570              		.align	2
 571              		.set	.LANCHOR0,. + 0
 572              		.set	.LANCHOR1,. + 8688
 573              		.type	ucHeap, %object
 574              		.size	ucHeap, 10240
 575              	ucHeap:
 576 0000 00000000 		.space	10240
 576      00000000 
 576      00000000 
 576      00000000 
 576      00000000 
 577              		.type	xStart, %object
 578              		.size	xStart, 8
 579              	xStart:
 580 2800 00000000 		.space	8
 580      00000000 
 581              		.type	pxEnd, %object
 582              		.size	pxEnd, 4
 583              	pxEnd:
 584 2808 00000000 		.space	4
 585              		.type	xMinimumEverFreeBytesRemaining, %object
 586              		.size	xMinimumEverFreeBytesRemaining, 4
 587              	xMinimumEverFreeBytesRemaining:
 588 280c 00000000 		.space	4
 589              		.type	xFreeBytesRemaining, %object
 590              		.size	xFreeBytesRemaining, 4
 591              	xFreeBytesRemaining:
 592 2810 00000000 		.space	4
 593              		.type	xBlockAllocatedBit, %object
ARM GAS  C:\Users\Agentos\AppData\Local\Temp\ccLvM3Kf.s 			page 21


 594              		.size	xBlockAllocatedBit, 4
 595              	xBlockAllocatedBit:
 596 2814 00000000 		.space	4
 597              		.text
 598              	.Letext0:
 599              		.file 2 "c:\\program files (x86)\\cypress\\psoc creator\\4.2\\psoc creator\\import\\gnu\\arm\\5.4.
 600              		.file 3 "c:\\program files (x86)\\cypress\\psoc creator\\4.2\\psoc creator\\import\\gnu\\arm\\5.4.
 601              		.file 4 "c:\\program files (x86)\\cypress\\psoc creator\\4.2\\psoc creator\\import\\gnu\\arm\\5.4.
 602              		.file 5 "Generated_Source\\PSoC6\\pdl\\drivers/peripheral/syslib/cy_syslib.h"
 603              		.file 6 "Generated_Source\\PSoC6\\pdl\\drivers/peripheral/scb/cy_scb_spi.h"
 604              		.file 7 "Generated_Source\\PSoC6\\pdl\\drivers/peripheral/sar/cy_sar.h"
 605              		.file 8 "Generated_Source\\PSoC6/ADC.h"
 606              		.file 9 "Generated_Source\\PSoC6\\pdl\\cmsis/include/core_cm4.h"
 607              		.file 10 "Generated_Source\\PSoC6/CY_EINK_SPIM.h"
 608              		.file 11 "Generated_Source\\PSoC6\\pdl\\rtos/FreeRTOS/9.0.0/Source/include/task.h"