ARM GAS  C:\Users\Agentos\AppData\Local\Temp\ccomwea8.s 			page 1


   1              		.syntax unified
   2              		.cpu cortex-m4
   3              		.eabi_attribute 27, 1
   4              		.fpu fpv4-sp-d16
   5              		.eabi_attribute 20, 1
   6              		.eabi_attribute 21, 1
   7              		.eabi_attribute 23, 3
   8              		.eabi_attribute 24, 1
   9              		.eabi_attribute 25, 1
  10              		.eabi_attribute 26, 1
  11              		.eabi_attribute 30, 1
  12              		.eabi_attribute 34, 1
  13              		.eabi_attribute 18, 4
  14              		.thumb
  15              		.syntax unified
  16              		.file	"port.c"
  17              		.text
  18              	.Ltext0:
  19              		.cfi_sections	.debug_frame
  20              		.section	.text.prvTaskExitError,"ax",%progbits
  21              		.align	2
  22              		.thumb
  23              		.thumb_func
  24              		.type	prvTaskExitError, %function
  25              	prvTaskExitError:
  26              	.LFB518:
  27              		.file 1 "Generated_Source\\PSoC6\\pdl\\rtos\\FreeRTOS\\9.0.0\\Source\\portable\\GCC\\CM4F\\port.c"
   1:Generated_Source\PSoC6\pdl\rtos\FreeRTOS\9.0.0\Source\portable\GCC\CM4F/port.c **** /*
   2:Generated_Source\PSoC6\pdl\rtos\FreeRTOS\9.0.0\Source\portable\GCC\CM4F/port.c ****     FreeRTOS V9.0.0 - Copyright (C) 2016 Real Time Engineers Ltd.
   3:Generated_Source\PSoC6\pdl\rtos\FreeRTOS\9.0.0\Source\portable\GCC\CM4F/port.c ****     All rights reserved
   4:Generated_Source\PSoC6\pdl\rtos\FreeRTOS\9.0.0\Source\portable\GCC\CM4F/port.c **** 
   5:Generated_Source\PSoC6\pdl\rtos\FreeRTOS\9.0.0\Source\portable\GCC\CM4F/port.c ****     VISIT http://www.FreeRTOS.org TO ENSURE YOU ARE USING THE LATEST VERSION.
   6:Generated_Source\PSoC6\pdl\rtos\FreeRTOS\9.0.0\Source\portable\GCC\CM4F/port.c **** 
   7:Generated_Source\PSoC6\pdl\rtos\FreeRTOS\9.0.0\Source\portable\GCC\CM4F/port.c ****     This file is part of the FreeRTOS distribution.
   8:Generated_Source\PSoC6\pdl\rtos\FreeRTOS\9.0.0\Source\portable\GCC\CM4F/port.c **** 
   9:Generated_Source\PSoC6\pdl\rtos\FreeRTOS\9.0.0\Source\portable\GCC\CM4F/port.c ****     FreeRTOS is free software; you can redistribute it and/or modify it under
  10:Generated_Source\PSoC6\pdl\rtos\FreeRTOS\9.0.0\Source\portable\GCC\CM4F/port.c ****     the terms of the GNU General Public License (version 2) as published by the
  11:Generated_Source\PSoC6\pdl\rtos\FreeRTOS\9.0.0\Source\portable\GCC\CM4F/port.c ****     Free Software Foundation >>>> AND MODIFIED BY <<<< the FreeRTOS exception.
  12:Generated_Source\PSoC6\pdl\rtos\FreeRTOS\9.0.0\Source\portable\GCC\CM4F/port.c **** 
  13:Generated_Source\PSoC6\pdl\rtos\FreeRTOS\9.0.0\Source\portable\GCC\CM4F/port.c ****     ***************************************************************************
  14:Generated_Source\PSoC6\pdl\rtos\FreeRTOS\9.0.0\Source\portable\GCC\CM4F/port.c ****     >>!   NOTE: The modification to the GPL is included to allow you to     !<<
  15:Generated_Source\PSoC6\pdl\rtos\FreeRTOS\9.0.0\Source\portable\GCC\CM4F/port.c ****     >>!   distribute a combined work that includes FreeRTOS without being   !<<
  16:Generated_Source\PSoC6\pdl\rtos\FreeRTOS\9.0.0\Source\portable\GCC\CM4F/port.c ****     >>!   obliged to provide the source code for proprietary components     !<<
  17:Generated_Source\PSoC6\pdl\rtos\FreeRTOS\9.0.0\Source\portable\GCC\CM4F/port.c ****     >>!   outside of the FreeRTOS kernel.                                   !<<
  18:Generated_Source\PSoC6\pdl\rtos\FreeRTOS\9.0.0\Source\portable\GCC\CM4F/port.c ****     ***************************************************************************
  19:Generated_Source\PSoC6\pdl\rtos\FreeRTOS\9.0.0\Source\portable\GCC\CM4F/port.c **** 
  20:Generated_Source\PSoC6\pdl\rtos\FreeRTOS\9.0.0\Source\portable\GCC\CM4F/port.c ****     FreeRTOS is distributed in the hope that it will be useful, but WITHOUT ANY
  21:Generated_Source\PSoC6\pdl\rtos\FreeRTOS\9.0.0\Source\portable\GCC\CM4F/port.c ****     WARRANTY; without even the implied warranty of MERCHANTABILITY or FITNESS
  22:Generated_Source\PSoC6\pdl\rtos\FreeRTOS\9.0.0\Source\portable\GCC\CM4F/port.c ****     FOR A PARTICULAR PURPOSE.  Full license text is available on the following
  23:Generated_Source\PSoC6\pdl\rtos\FreeRTOS\9.0.0\Source\portable\GCC\CM4F/port.c ****     link: http://www.freertos.org/a00114.html
  24:Generated_Source\PSoC6\pdl\rtos\FreeRTOS\9.0.0\Source\portable\GCC\CM4F/port.c **** 
  25:Generated_Source\PSoC6\pdl\rtos\FreeRTOS\9.0.0\Source\portable\GCC\CM4F/port.c ****     ***************************************************************************
  26:Generated_Source\PSoC6\pdl\rtos\FreeRTOS\9.0.0\Source\portable\GCC\CM4F/port.c ****      *                                                                       *
  27:Generated_Source\PSoC6\pdl\rtos\FreeRTOS\9.0.0\Source\portable\GCC\CM4F/port.c ****      *    FreeRTOS provides completely free yet professionally developed,    *
  28:Generated_Source\PSoC6\pdl\rtos\FreeRTOS\9.0.0\Source\portable\GCC\CM4F/port.c ****      *    robust, strictly quality controlled, supported, and cross          *
  29:Generated_Source\PSoC6\pdl\rtos\FreeRTOS\9.0.0\Source\portable\GCC\CM4F/port.c ****      *    platform software that is more than just the market leader, it     *
  30:Generated_Source\PSoC6\pdl\rtos\FreeRTOS\9.0.0\Source\portable\GCC\CM4F/port.c ****      *    is the industry's de facto standard.                               *
ARM GAS  C:\Users\Agentos\AppData\Local\Temp\ccomwea8.s 			page 2


  31:Generated_Source\PSoC6\pdl\rtos\FreeRTOS\9.0.0\Source\portable\GCC\CM4F/port.c ****      *                                                                       *
  32:Generated_Source\PSoC6\pdl\rtos\FreeRTOS\9.0.0\Source\portable\GCC\CM4F/port.c ****      *    Help yourself get started quickly while simultaneously helping     *
  33:Generated_Source\PSoC6\pdl\rtos\FreeRTOS\9.0.0\Source\portable\GCC\CM4F/port.c ****      *    to support the FreeRTOS project by purchasing a FreeRTOS           *
  34:Generated_Source\PSoC6\pdl\rtos\FreeRTOS\9.0.0\Source\portable\GCC\CM4F/port.c ****      *    tutorial book, reference manual, or both:                          *
  35:Generated_Source\PSoC6\pdl\rtos\FreeRTOS\9.0.0\Source\portable\GCC\CM4F/port.c ****      *    http://www.FreeRTOS.org/Documentation                              *
  36:Generated_Source\PSoC6\pdl\rtos\FreeRTOS\9.0.0\Source\portable\GCC\CM4F/port.c ****      *                                                                       *
  37:Generated_Source\PSoC6\pdl\rtos\FreeRTOS\9.0.0\Source\portable\GCC\CM4F/port.c ****     ***************************************************************************
  38:Generated_Source\PSoC6\pdl\rtos\FreeRTOS\9.0.0\Source\portable\GCC\CM4F/port.c **** 
  39:Generated_Source\PSoC6\pdl\rtos\FreeRTOS\9.0.0\Source\portable\GCC\CM4F/port.c ****     http://www.FreeRTOS.org/FAQHelp.html - Having a problem?  Start by reading
  40:Generated_Source\PSoC6\pdl\rtos\FreeRTOS\9.0.0\Source\portable\GCC\CM4F/port.c ****     the FAQ page "My application does not run, what could be wrong?".  Have you
  41:Generated_Source\PSoC6\pdl\rtos\FreeRTOS\9.0.0\Source\portable\GCC\CM4F/port.c ****     defined configASSERT()?
  42:Generated_Source\PSoC6\pdl\rtos\FreeRTOS\9.0.0\Source\portable\GCC\CM4F/port.c **** 
  43:Generated_Source\PSoC6\pdl\rtos\FreeRTOS\9.0.0\Source\portable\GCC\CM4F/port.c ****     http://www.FreeRTOS.org/support - In return for receiving this top quality
  44:Generated_Source\PSoC6\pdl\rtos\FreeRTOS\9.0.0\Source\portable\GCC\CM4F/port.c ****     embedded software for free we request you assist our global community by
  45:Generated_Source\PSoC6\pdl\rtos\FreeRTOS\9.0.0\Source\portable\GCC\CM4F/port.c ****     participating in the support forum.
  46:Generated_Source\PSoC6\pdl\rtos\FreeRTOS\9.0.0\Source\portable\GCC\CM4F/port.c **** 
  47:Generated_Source\PSoC6\pdl\rtos\FreeRTOS\9.0.0\Source\portable\GCC\CM4F/port.c ****     http://www.FreeRTOS.org/training - Investing in training allows your team to
  48:Generated_Source\PSoC6\pdl\rtos\FreeRTOS\9.0.0\Source\portable\GCC\CM4F/port.c ****     be as productive as possible as early as possible.  Now you can receive
  49:Generated_Source\PSoC6\pdl\rtos\FreeRTOS\9.0.0\Source\portable\GCC\CM4F/port.c ****     FreeRTOS training directly from Richard Barry, CEO of Real Time Engineers
  50:Generated_Source\PSoC6\pdl\rtos\FreeRTOS\9.0.0\Source\portable\GCC\CM4F/port.c ****     Ltd, and the world's leading authority on the world's leading RTOS.
  51:Generated_Source\PSoC6\pdl\rtos\FreeRTOS\9.0.0\Source\portable\GCC\CM4F/port.c **** 
  52:Generated_Source\PSoC6\pdl\rtos\FreeRTOS\9.0.0\Source\portable\GCC\CM4F/port.c ****     http://www.FreeRTOS.org/plus - A selection of FreeRTOS ecosystem products,
  53:Generated_Source\PSoC6\pdl\rtos\FreeRTOS\9.0.0\Source\portable\GCC\CM4F/port.c ****     including FreeRTOS+Trace - an indispensable productivity tool, a DOS
  54:Generated_Source\PSoC6\pdl\rtos\FreeRTOS\9.0.0\Source\portable\GCC\CM4F/port.c ****     compatible FAT file system, and our tiny thread aware UDP/IP stack.
  55:Generated_Source\PSoC6\pdl\rtos\FreeRTOS\9.0.0\Source\portable\GCC\CM4F/port.c **** 
  56:Generated_Source\PSoC6\pdl\rtos\FreeRTOS\9.0.0\Source\portable\GCC\CM4F/port.c ****     http://www.FreeRTOS.org/labs - Where new FreeRTOS products go to incubate.
  57:Generated_Source\PSoC6\pdl\rtos\FreeRTOS\9.0.0\Source\portable\GCC\CM4F/port.c ****     Come and try FreeRTOS+TCP, our new open source TCP/IP stack for FreeRTOS.
  58:Generated_Source\PSoC6\pdl\rtos\FreeRTOS\9.0.0\Source\portable\GCC\CM4F/port.c **** 
  59:Generated_Source\PSoC6\pdl\rtos\FreeRTOS\9.0.0\Source\portable\GCC\CM4F/port.c ****     http://www.OpenRTOS.com - Real Time Engineers ltd. license FreeRTOS to High
  60:Generated_Source\PSoC6\pdl\rtos\FreeRTOS\9.0.0\Source\portable\GCC\CM4F/port.c ****     Integrity Systems ltd. to sell under the OpenRTOS brand.  Low cost OpenRTOS
  61:Generated_Source\PSoC6\pdl\rtos\FreeRTOS\9.0.0\Source\portable\GCC\CM4F/port.c ****     licenses offer ticketed support, indemnification and commercial middleware.
  62:Generated_Source\PSoC6\pdl\rtos\FreeRTOS\9.0.0\Source\portable\GCC\CM4F/port.c **** 
  63:Generated_Source\PSoC6\pdl\rtos\FreeRTOS\9.0.0\Source\portable\GCC\CM4F/port.c ****     http://www.SafeRTOS.com - High Integrity Systems also provide a safety
  64:Generated_Source\PSoC6\pdl\rtos\FreeRTOS\9.0.0\Source\portable\GCC\CM4F/port.c ****     engineered and independently SIL3 certified version for use in safety and
  65:Generated_Source\PSoC6\pdl\rtos\FreeRTOS\9.0.0\Source\portable\GCC\CM4F/port.c ****     mission critical applications that require provable dependability.
  66:Generated_Source\PSoC6\pdl\rtos\FreeRTOS\9.0.0\Source\portable\GCC\CM4F/port.c **** 
  67:Generated_Source\PSoC6\pdl\rtos\FreeRTOS\9.0.0\Source\portable\GCC\CM4F/port.c ****     1 tab == 4 spaces!
  68:Generated_Source\PSoC6\pdl\rtos\FreeRTOS\9.0.0\Source\portable\GCC\CM4F/port.c **** */
  69:Generated_Source\PSoC6\pdl\rtos\FreeRTOS\9.0.0\Source\portable\GCC\CM4F/port.c **** 
  70:Generated_Source\PSoC6\pdl\rtos\FreeRTOS\9.0.0\Source\portable\GCC\CM4F/port.c **** /*-----------------------------------------------------------
  71:Generated_Source\PSoC6\pdl\rtos\FreeRTOS\9.0.0\Source\portable\GCC\CM4F/port.c ****  * Implementation of functions defined in portable.h for the ARM CM4F port.
  72:Generated_Source\PSoC6\pdl\rtos\FreeRTOS\9.0.0\Source\portable\GCC\CM4F/port.c ****  *----------------------------------------------------------*/
  73:Generated_Source\PSoC6\pdl\rtos\FreeRTOS\9.0.0\Source\portable\GCC\CM4F/port.c **** 
  74:Generated_Source\PSoC6\pdl\rtos\FreeRTOS\9.0.0\Source\portable\GCC\CM4F/port.c **** /* Scheduler includes. */
  75:Generated_Source\PSoC6\pdl\rtos\FreeRTOS\9.0.0\Source\portable\GCC\CM4F/port.c **** #include "FreeRTOS.h"
  76:Generated_Source\PSoC6\pdl\rtos\FreeRTOS\9.0.0\Source\portable\GCC\CM4F/port.c **** #include "task.h"
  77:Generated_Source\PSoC6\pdl\rtos\FreeRTOS\9.0.0\Source\portable\GCC\CM4F/port.c **** 
  78:Generated_Source\PSoC6\pdl\rtos\FreeRTOS\9.0.0\Source\portable\GCC\CM4F/port.c **** #ifndef __VFP_FP__
  79:Generated_Source\PSoC6\pdl\rtos\FreeRTOS\9.0.0\Source\portable\GCC\CM4F/port.c ****     #error This port can only be used when the project options are configured to enable hardware fl
  80:Generated_Source\PSoC6\pdl\rtos\FreeRTOS\9.0.0\Source\portable\GCC\CM4F/port.c **** #endif
  81:Generated_Source\PSoC6\pdl\rtos\FreeRTOS\9.0.0\Source\portable\GCC\CM4F/port.c **** 
  82:Generated_Source\PSoC6\pdl\rtos\FreeRTOS\9.0.0\Source\portable\GCC\CM4F/port.c **** #ifndef configSYSTICK_CLOCK_HZ
  83:Generated_Source\PSoC6\pdl\rtos\FreeRTOS\9.0.0\Source\portable\GCC\CM4F/port.c ****     #define configSYSTICK_CLOCK_HZ configCPU_CLOCK_HZ
  84:Generated_Source\PSoC6\pdl\rtos\FreeRTOS\9.0.0\Source\portable\GCC\CM4F/port.c ****     /* Ensure the SysTick is clocked at the same frequency as the core. */
  85:Generated_Source\PSoC6\pdl\rtos\FreeRTOS\9.0.0\Source\portable\GCC\CM4F/port.c ****     #define portNVIC_SYSTICK_CLK_BIT    ( 1UL << 2UL )
  86:Generated_Source\PSoC6\pdl\rtos\FreeRTOS\9.0.0\Source\portable\GCC\CM4F/port.c **** #else
  87:Generated_Source\PSoC6\pdl\rtos\FreeRTOS\9.0.0\Source\portable\GCC\CM4F/port.c ****     /* The way the SysTick is clocked is not modified in case it is not the same
ARM GAS  C:\Users\Agentos\AppData\Local\Temp\ccomwea8.s 			page 3


  88:Generated_Source\PSoC6\pdl\rtos\FreeRTOS\9.0.0\Source\portable\GCC\CM4F/port.c ****     as the core. */
  89:Generated_Source\PSoC6\pdl\rtos\FreeRTOS\9.0.0\Source\portable\GCC\CM4F/port.c ****     #define portNVIC_SYSTICK_CLK_BIT    ( 0 )
  90:Generated_Source\PSoC6\pdl\rtos\FreeRTOS\9.0.0\Source\portable\GCC\CM4F/port.c **** #endif
  91:Generated_Source\PSoC6\pdl\rtos\FreeRTOS\9.0.0\Source\portable\GCC\CM4F/port.c **** 
  92:Generated_Source\PSoC6\pdl\rtos\FreeRTOS\9.0.0\Source\portable\GCC\CM4F/port.c **** /* Constants required to manipulate the core.  Registers first... */
  93:Generated_Source\PSoC6\pdl\rtos\FreeRTOS\9.0.0\Source\portable\GCC\CM4F/port.c **** #define portNVIC_SYSTICK_CTRL_REG            ( * ( ( volatile uint32_t * ) 0xe000e010 ) )
  94:Generated_Source\PSoC6\pdl\rtos\FreeRTOS\9.0.0\Source\portable\GCC\CM4F/port.c **** #define portNVIC_SYSTICK_LOAD_REG            ( * ( ( volatile uint32_t * ) 0xe000e014 ) )
  95:Generated_Source\PSoC6\pdl\rtos\FreeRTOS\9.0.0\Source\portable\GCC\CM4F/port.c **** #define portNVIC_SYSTICK_CURRENT_VALUE_REG   ( * ( ( volatile uint32_t * ) 0xe000e018 ) )
  96:Generated_Source\PSoC6\pdl\rtos\FreeRTOS\9.0.0\Source\portable\GCC\CM4F/port.c **** #define portNVIC_SYSPRI2_REG                 ( * ( ( volatile uint32_t * ) 0xe000ed20 ) )
  97:Generated_Source\PSoC6\pdl\rtos\FreeRTOS\9.0.0\Source\portable\GCC\CM4F/port.c **** /* ...then bits in the registers. */
  98:Generated_Source\PSoC6\pdl\rtos\FreeRTOS\9.0.0\Source\portable\GCC\CM4F/port.c **** #define portNVIC_SYSTICK_INT_BIT             ( 1UL << 1UL )
  99:Generated_Source\PSoC6\pdl\rtos\FreeRTOS\9.0.0\Source\portable\GCC\CM4F/port.c **** #define portNVIC_SYSTICK_ENABLE_BIT          ( 1UL << 0UL )
 100:Generated_Source\PSoC6\pdl\rtos\FreeRTOS\9.0.0\Source\portable\GCC\CM4F/port.c **** #define portNVIC_SYSTICK_COUNT_FLAG_BIT      ( 1UL << 16UL )
 101:Generated_Source\PSoC6\pdl\rtos\FreeRTOS\9.0.0\Source\portable\GCC\CM4F/port.c **** #define portNVIC_PENDSVCLEAR_BIT             ( 1UL << 27UL )
 102:Generated_Source\PSoC6\pdl\rtos\FreeRTOS\9.0.0\Source\portable\GCC\CM4F/port.c **** #define portNVIC_PEND_SYSTICK_CLEAR_BIT      ( 1UL << 25UL )
 103:Generated_Source\PSoC6\pdl\rtos\FreeRTOS\9.0.0\Source\portable\GCC\CM4F/port.c **** 
 104:Generated_Source\PSoC6\pdl\rtos\FreeRTOS\9.0.0\Source\portable\GCC\CM4F/port.c **** #define portNVIC_PENDSV_PRI                  ( ( ( uint32_t ) configKERNEL_INTERRUPT_PRIORITY ) << 
 105:Generated_Source\PSoC6\pdl\rtos\FreeRTOS\9.0.0\Source\portable\GCC\CM4F/port.c **** #define portNVIC_SYSTICK_PRI                 ( ( ( uint32_t ) configKERNEL_INTERRUPT_PRIORITY ) << 
 106:Generated_Source\PSoC6\pdl\rtos\FreeRTOS\9.0.0\Source\portable\GCC\CM4F/port.c **** 
 107:Generated_Source\PSoC6\pdl\rtos\FreeRTOS\9.0.0\Source\portable\GCC\CM4F/port.c **** /* Constants required to check the validity of an interrupt priority. */
 108:Generated_Source\PSoC6\pdl\rtos\FreeRTOS\9.0.0\Source\portable\GCC\CM4F/port.c **** #define portFIRST_USER_INTERRUPT_NUMBER      ( 16 )
 109:Generated_Source\PSoC6\pdl\rtos\FreeRTOS\9.0.0\Source\portable\GCC\CM4F/port.c **** #define portNVIC_IP_REGISTERS_OFFSET_16      ( 0xE000E3F0 )
 110:Generated_Source\PSoC6\pdl\rtos\FreeRTOS\9.0.0\Source\portable\GCC\CM4F/port.c **** #define portAIRCR_REG                        ( * ( ( volatile uint32_t * ) 0xE000ED0C ) )
 111:Generated_Source\PSoC6\pdl\rtos\FreeRTOS\9.0.0\Source\portable\GCC\CM4F/port.c **** #define portMAX_8_BIT_VALUE                  ( ( uint8_t ) 0xff )
 112:Generated_Source\PSoC6\pdl\rtos\FreeRTOS\9.0.0\Source\portable\GCC\CM4F/port.c **** #define portTOP_BIT_OF_BYTE                  ( ( uint8_t ) 0x80 )
 113:Generated_Source\PSoC6\pdl\rtos\FreeRTOS\9.0.0\Source\portable\GCC\CM4F/port.c **** #define portMAX_PRIGROUP_BITS                ( ( uint8_t ) 7 )
 114:Generated_Source\PSoC6\pdl\rtos\FreeRTOS\9.0.0\Source\portable\GCC\CM4F/port.c **** #define portPRIORITY_GROUP_MASK              ( 0x07UL << 8UL )
 115:Generated_Source\PSoC6\pdl\rtos\FreeRTOS\9.0.0\Source\portable\GCC\CM4F/port.c **** #define portPRIGROUP_SHIFT                   ( 8UL )
 116:Generated_Source\PSoC6\pdl\rtos\FreeRTOS\9.0.0\Source\portable\GCC\CM4F/port.c **** 
 117:Generated_Source\PSoC6\pdl\rtos\FreeRTOS\9.0.0\Source\portable\GCC\CM4F/port.c **** /* Masks off all bits but the VECTACTIVE bits in the ICSR register. */
 118:Generated_Source\PSoC6\pdl\rtos\FreeRTOS\9.0.0\Source\portable\GCC\CM4F/port.c **** #define portVECTACTIVE_MASK                  ( 0xFFUL )
 119:Generated_Source\PSoC6\pdl\rtos\FreeRTOS\9.0.0\Source\portable\GCC\CM4F/port.c **** 
 120:Generated_Source\PSoC6\pdl\rtos\FreeRTOS\9.0.0\Source\portable\GCC\CM4F/port.c **** /* Constants required to manipulate the VFP. */
 121:Generated_Source\PSoC6\pdl\rtos\FreeRTOS\9.0.0\Source\portable\GCC\CM4F/port.c **** #define portFPCCR                            ( ( volatile uint32_t * ) 0xe000ef34 ) /* Floating poi
 122:Generated_Source\PSoC6\pdl\rtos\FreeRTOS\9.0.0\Source\portable\GCC\CM4F/port.c **** #define portASPEN_AND_LSPEN_BITS             ( 0x3UL << 30UL )
 123:Generated_Source\PSoC6\pdl\rtos\FreeRTOS\9.0.0\Source\portable\GCC\CM4F/port.c **** 
 124:Generated_Source\PSoC6\pdl\rtos\FreeRTOS\9.0.0\Source\portable\GCC\CM4F/port.c **** /* Constants required to set up the initial stack. */
 125:Generated_Source\PSoC6\pdl\rtos\FreeRTOS\9.0.0\Source\portable\GCC\CM4F/port.c **** #define portINITIAL_XPSR                     ( 0x01000000 )
 126:Generated_Source\PSoC6\pdl\rtos\FreeRTOS\9.0.0\Source\portable\GCC\CM4F/port.c **** #define portINITIAL_EXEC_RETURN              ( 0xfffffffd )
 127:Generated_Source\PSoC6\pdl\rtos\FreeRTOS\9.0.0\Source\portable\GCC\CM4F/port.c **** 
 128:Generated_Source\PSoC6\pdl\rtos\FreeRTOS\9.0.0\Source\portable\GCC\CM4F/port.c **** /* The systick is a 24-bit counter. */
 129:Generated_Source\PSoC6\pdl\rtos\FreeRTOS\9.0.0\Source\portable\GCC\CM4F/port.c **** #define portMAX_24_BIT_NUMBER                ( 0xffffffUL )
 130:Generated_Source\PSoC6\pdl\rtos\FreeRTOS\9.0.0\Source\portable\GCC\CM4F/port.c **** 
 131:Generated_Source\PSoC6\pdl\rtos\FreeRTOS\9.0.0\Source\portable\GCC\CM4F/port.c **** /* For strict compliance with the Cortex-M spec the task start address should
 132:Generated_Source\PSoC6\pdl\rtos\FreeRTOS\9.0.0\Source\portable\GCC\CM4F/port.c **** have bit-0 clear, as it is loaded into the PC on exit from an ISR. */
 133:Generated_Source\PSoC6\pdl\rtos\FreeRTOS\9.0.0\Source\portable\GCC\CM4F/port.c **** #define portSTART_ADDRESS_MASK               ( ( StackType_t ) 0xfffffffeUL )
 134:Generated_Source\PSoC6\pdl\rtos\FreeRTOS\9.0.0\Source\portable\GCC\CM4F/port.c **** 
 135:Generated_Source\PSoC6\pdl\rtos\FreeRTOS\9.0.0\Source\portable\GCC\CM4F/port.c **** /* A fiddle factor to estimate the number of SysTick counts that would have
 136:Generated_Source\PSoC6\pdl\rtos\FreeRTOS\9.0.0\Source\portable\GCC\CM4F/port.c **** occurred while the SysTick counter is stopped during tickless idle
 137:Generated_Source\PSoC6\pdl\rtos\FreeRTOS\9.0.0\Source\portable\GCC\CM4F/port.c **** calculations. */
 138:Generated_Source\PSoC6\pdl\rtos\FreeRTOS\9.0.0\Source\portable\GCC\CM4F/port.c **** #define portMISSED_COUNTS_FACTOR             ( 45UL )
 139:Generated_Source\PSoC6\pdl\rtos\FreeRTOS\9.0.0\Source\portable\GCC\CM4F/port.c **** 
 140:Generated_Source\PSoC6\pdl\rtos\FreeRTOS\9.0.0\Source\portable\GCC\CM4F/port.c **** /* Let the user override the pre-loading of the initial LR with the address of
 141:Generated_Source\PSoC6\pdl\rtos\FreeRTOS\9.0.0\Source\portable\GCC\CM4F/port.c **** prvTaskExitError() in case it messes up unwinding of the stack in the
 142:Generated_Source\PSoC6\pdl\rtos\FreeRTOS\9.0.0\Source\portable\GCC\CM4F/port.c **** debugger. */
 143:Generated_Source\PSoC6\pdl\rtos\FreeRTOS\9.0.0\Source\portable\GCC\CM4F/port.c **** #ifdef configTASK_RETURN_ADDRESS
 144:Generated_Source\PSoC6\pdl\rtos\FreeRTOS\9.0.0\Source\portable\GCC\CM4F/port.c ****     #define portTASK_RETURN_ADDRESS    configTASK_RETURN_ADDRESS
ARM GAS  C:\Users\Agentos\AppData\Local\Temp\ccomwea8.s 			page 4


 145:Generated_Source\PSoC6\pdl\rtos\FreeRTOS\9.0.0\Source\portable\GCC\CM4F/port.c **** #else
 146:Generated_Source\PSoC6\pdl\rtos\FreeRTOS\9.0.0\Source\portable\GCC\CM4F/port.c ****     #define portTASK_RETURN_ADDRESS    prvTaskExitError
 147:Generated_Source\PSoC6\pdl\rtos\FreeRTOS\9.0.0\Source\portable\GCC\CM4F/port.c **** #endif
 148:Generated_Source\PSoC6\pdl\rtos\FreeRTOS\9.0.0\Source\portable\GCC\CM4F/port.c **** 
 149:Generated_Source\PSoC6\pdl\rtos\FreeRTOS\9.0.0\Source\portable\GCC\CM4F/port.c **** /* Each task maintains its own interrupt status in the critical nesting
 150:Generated_Source\PSoC6\pdl\rtos\FreeRTOS\9.0.0\Source\portable\GCC\CM4F/port.c **** variable. */
 151:Generated_Source\PSoC6\pdl\rtos\FreeRTOS\9.0.0\Source\portable\GCC\CM4F/port.c **** static UBaseType_t uxCriticalNesting = 0xaaaaaaaa;
 152:Generated_Source\PSoC6\pdl\rtos\FreeRTOS\9.0.0\Source\portable\GCC\CM4F/port.c **** 
 153:Generated_Source\PSoC6\pdl\rtos\FreeRTOS\9.0.0\Source\portable\GCC\CM4F/port.c **** /*
 154:Generated_Source\PSoC6\pdl\rtos\FreeRTOS\9.0.0\Source\portable\GCC\CM4F/port.c ****  * Setup the timer to generate the tick interrupts.  The implementation in this
 155:Generated_Source\PSoC6\pdl\rtos\FreeRTOS\9.0.0\Source\portable\GCC\CM4F/port.c ****  * file is weak to allow application writers to change the timer used to
 156:Generated_Source\PSoC6\pdl\rtos\FreeRTOS\9.0.0\Source\portable\GCC\CM4F/port.c ****  * generate the tick interrupt.
 157:Generated_Source\PSoC6\pdl\rtos\FreeRTOS\9.0.0\Source\portable\GCC\CM4F/port.c ****  */
 158:Generated_Source\PSoC6\pdl\rtos\FreeRTOS\9.0.0\Source\portable\GCC\CM4F/port.c **** void vPortSetupTimerInterrupt( void );
 159:Generated_Source\PSoC6\pdl\rtos\FreeRTOS\9.0.0\Source\portable\GCC\CM4F/port.c **** 
 160:Generated_Source\PSoC6\pdl\rtos\FreeRTOS\9.0.0\Source\portable\GCC\CM4F/port.c **** /*
 161:Generated_Source\PSoC6\pdl\rtos\FreeRTOS\9.0.0\Source\portable\GCC\CM4F/port.c ****  * Exception handlers.
 162:Generated_Source\PSoC6\pdl\rtos\FreeRTOS\9.0.0\Source\portable\GCC\CM4F/port.c ****  */
 163:Generated_Source\PSoC6\pdl\rtos\FreeRTOS\9.0.0\Source\portable\GCC\CM4F/port.c **** void xPortPendSVHandler( void ) __attribute__ (( naked ));
 164:Generated_Source\PSoC6\pdl\rtos\FreeRTOS\9.0.0\Source\portable\GCC\CM4F/port.c **** void xPortSysTickHandler( void );
 165:Generated_Source\PSoC6\pdl\rtos\FreeRTOS\9.0.0\Source\portable\GCC\CM4F/port.c **** void vPortSVCHandler( void ) __attribute__ (( naked ));
 166:Generated_Source\PSoC6\pdl\rtos\FreeRTOS\9.0.0\Source\portable\GCC\CM4F/port.c **** 
 167:Generated_Source\PSoC6\pdl\rtos\FreeRTOS\9.0.0\Source\portable\GCC\CM4F/port.c **** /*
 168:Generated_Source\PSoC6\pdl\rtos\FreeRTOS\9.0.0\Source\portable\GCC\CM4F/port.c ****  * Start first task is a separate function so it can be tested in isolation.
 169:Generated_Source\PSoC6\pdl\rtos\FreeRTOS\9.0.0\Source\portable\GCC\CM4F/port.c ****  */
 170:Generated_Source\PSoC6\pdl\rtos\FreeRTOS\9.0.0\Source\portable\GCC\CM4F/port.c **** static void prvPortStartFirstTask( void ) __attribute__ (( naked ));
 171:Generated_Source\PSoC6\pdl\rtos\FreeRTOS\9.0.0\Source\portable\GCC\CM4F/port.c **** 
 172:Generated_Source\PSoC6\pdl\rtos\FreeRTOS\9.0.0\Source\portable\GCC\CM4F/port.c **** /*
 173:Generated_Source\PSoC6\pdl\rtos\FreeRTOS\9.0.0\Source\portable\GCC\CM4F/port.c ****  * Function to enable the VFP.
 174:Generated_Source\PSoC6\pdl\rtos\FreeRTOS\9.0.0\Source\portable\GCC\CM4F/port.c ****  */
 175:Generated_Source\PSoC6\pdl\rtos\FreeRTOS\9.0.0\Source\portable\GCC\CM4F/port.c **** static void vPortEnableVFP( void ) __attribute__ (( naked ));
 176:Generated_Source\PSoC6\pdl\rtos\FreeRTOS\9.0.0\Source\portable\GCC\CM4F/port.c **** 
 177:Generated_Source\PSoC6\pdl\rtos\FreeRTOS\9.0.0\Source\portable\GCC\CM4F/port.c **** /*
 178:Generated_Source\PSoC6\pdl\rtos\FreeRTOS\9.0.0\Source\portable\GCC\CM4F/port.c ****  * Used to catch tasks that attempt to return from their implementing function.
 179:Generated_Source\PSoC6\pdl\rtos\FreeRTOS\9.0.0\Source\portable\GCC\CM4F/port.c ****  */
 180:Generated_Source\PSoC6\pdl\rtos\FreeRTOS\9.0.0\Source\portable\GCC\CM4F/port.c **** static void prvTaskExitError( void );
 181:Generated_Source\PSoC6\pdl\rtos\FreeRTOS\9.0.0\Source\portable\GCC\CM4F/port.c **** 
 182:Generated_Source\PSoC6\pdl\rtos\FreeRTOS\9.0.0\Source\portable\GCC\CM4F/port.c **** /*-----------------------------------------------------------*/
 183:Generated_Source\PSoC6\pdl\rtos\FreeRTOS\9.0.0\Source\portable\GCC\CM4F/port.c **** 
 184:Generated_Source\PSoC6\pdl\rtos\FreeRTOS\9.0.0\Source\portable\GCC\CM4F/port.c **** /*
 185:Generated_Source\PSoC6\pdl\rtos\FreeRTOS\9.0.0\Source\portable\GCC\CM4F/port.c ****  * The number of SysTick increments that make up one tick period.
 186:Generated_Source\PSoC6\pdl\rtos\FreeRTOS\9.0.0\Source\portable\GCC\CM4F/port.c ****  */
 187:Generated_Source\PSoC6\pdl\rtos\FreeRTOS\9.0.0\Source\portable\GCC\CM4F/port.c **** #if configUSE_TICKLESS_IDLE == 1
 188:Generated_Source\PSoC6\pdl\rtos\FreeRTOS\9.0.0\Source\portable\GCC\CM4F/port.c ****     static uint32_t ulTimerCountsForOneTick = 0;
 189:Generated_Source\PSoC6\pdl\rtos\FreeRTOS\9.0.0\Source\portable\GCC\CM4F/port.c **** #endif /* configUSE_TICKLESS_IDLE */
 190:Generated_Source\PSoC6\pdl\rtos\FreeRTOS\9.0.0\Source\portable\GCC\CM4F/port.c **** 
 191:Generated_Source\PSoC6\pdl\rtos\FreeRTOS\9.0.0\Source\portable\GCC\CM4F/port.c **** /*
 192:Generated_Source\PSoC6\pdl\rtos\FreeRTOS\9.0.0\Source\portable\GCC\CM4F/port.c ****  * The maximum number of tick periods that can be suppressed is limited by the
 193:Generated_Source\PSoC6\pdl\rtos\FreeRTOS\9.0.0\Source\portable\GCC\CM4F/port.c ****  * 24 bit resolution of the SysTick timer.
 194:Generated_Source\PSoC6\pdl\rtos\FreeRTOS\9.0.0\Source\portable\GCC\CM4F/port.c ****  */
 195:Generated_Source\PSoC6\pdl\rtos\FreeRTOS\9.0.0\Source\portable\GCC\CM4F/port.c **** #if configUSE_TICKLESS_IDLE == 1
 196:Generated_Source\PSoC6\pdl\rtos\FreeRTOS\9.0.0\Source\portable\GCC\CM4F/port.c ****     static uint32_t xMaximumPossibleSuppressedTicks = 0;
 197:Generated_Source\PSoC6\pdl\rtos\FreeRTOS\9.0.0\Source\portable\GCC\CM4F/port.c **** #endif /* configUSE_TICKLESS_IDLE */
 198:Generated_Source\PSoC6\pdl\rtos\FreeRTOS\9.0.0\Source\portable\GCC\CM4F/port.c **** 
 199:Generated_Source\PSoC6\pdl\rtos\FreeRTOS\9.0.0\Source\portable\GCC\CM4F/port.c **** /*
 200:Generated_Source\PSoC6\pdl\rtos\FreeRTOS\9.0.0\Source\portable\GCC\CM4F/port.c ****  * Compensate for the CPU cycles that pass while the SysTick is stopped (low
 201:Generated_Source\PSoC6\pdl\rtos\FreeRTOS\9.0.0\Source\portable\GCC\CM4F/port.c ****  * power functionality only.
ARM GAS  C:\Users\Agentos\AppData\Local\Temp\ccomwea8.s 			page 5


 202:Generated_Source\PSoC6\pdl\rtos\FreeRTOS\9.0.0\Source\portable\GCC\CM4F/port.c ****  */
 203:Generated_Source\PSoC6\pdl\rtos\FreeRTOS\9.0.0\Source\portable\GCC\CM4F/port.c **** #if configUSE_TICKLESS_IDLE == 1
 204:Generated_Source\PSoC6\pdl\rtos\FreeRTOS\9.0.0\Source\portable\GCC\CM4F/port.c ****     static uint32_t ulStoppedTimerCompensation = 0;
 205:Generated_Source\PSoC6\pdl\rtos\FreeRTOS\9.0.0\Source\portable\GCC\CM4F/port.c **** #endif /* configUSE_TICKLESS_IDLE */
 206:Generated_Source\PSoC6\pdl\rtos\FreeRTOS\9.0.0\Source\portable\GCC\CM4F/port.c **** 
 207:Generated_Source\PSoC6\pdl\rtos\FreeRTOS\9.0.0\Source\portable\GCC\CM4F/port.c **** /*
 208:Generated_Source\PSoC6\pdl\rtos\FreeRTOS\9.0.0\Source\portable\GCC\CM4F/port.c ****  * Used by the portASSERT_IF_INTERRUPT_PRIORITY_INVALID() macro to ensure
 209:Generated_Source\PSoC6\pdl\rtos\FreeRTOS\9.0.0\Source\portable\GCC\CM4F/port.c ****  * FreeRTOS API functions are not called from interrupts that have been assigned
 210:Generated_Source\PSoC6\pdl\rtos\FreeRTOS\9.0.0\Source\portable\GCC\CM4F/port.c ****  * a priority above configMAX_SYSCALL_INTERRUPT_PRIORITY.
 211:Generated_Source\PSoC6\pdl\rtos\FreeRTOS\9.0.0\Source\portable\GCC\CM4F/port.c ****  */
 212:Generated_Source\PSoC6\pdl\rtos\FreeRTOS\9.0.0\Source\portable\GCC\CM4F/port.c **** #if ( configASSERT_DEFINED == 1 )
 213:Generated_Source\PSoC6\pdl\rtos\FreeRTOS\9.0.0\Source\portable\GCC\CM4F/port.c ****      static uint8_t ucMaxSysCallPriority = 0;
 214:Generated_Source\PSoC6\pdl\rtos\FreeRTOS\9.0.0\Source\portable\GCC\CM4F/port.c ****      static uint32_t ulMaxPRIGROUPValue = 0;
 215:Generated_Source\PSoC6\pdl\rtos\FreeRTOS\9.0.0\Source\portable\GCC\CM4F/port.c ****      static const volatile uint8_t * const pcInterruptPriorityRegisters = ( const volatile uint8_t 
 216:Generated_Source\PSoC6\pdl\rtos\FreeRTOS\9.0.0\Source\portable\GCC\CM4F/port.c **** #endif /* configASSERT_DEFINED */
 217:Generated_Source\PSoC6\pdl\rtos\FreeRTOS\9.0.0\Source\portable\GCC\CM4F/port.c **** 
 218:Generated_Source\PSoC6\pdl\rtos\FreeRTOS\9.0.0\Source\portable\GCC\CM4F/port.c **** /*-----------------------------------------------------------*/
 219:Generated_Source\PSoC6\pdl\rtos\FreeRTOS\9.0.0\Source\portable\GCC\CM4F/port.c **** 
 220:Generated_Source\PSoC6\pdl\rtos\FreeRTOS\9.0.0\Source\portable\GCC\CM4F/port.c **** /*
 221:Generated_Source\PSoC6\pdl\rtos\FreeRTOS\9.0.0\Source\portable\GCC\CM4F/port.c ****  * See header file for description.
 222:Generated_Source\PSoC6\pdl\rtos\FreeRTOS\9.0.0\Source\portable\GCC\CM4F/port.c ****  */
 223:Generated_Source\PSoC6\pdl\rtos\FreeRTOS\9.0.0\Source\portable\GCC\CM4F/port.c **** StackType_t *pxPortInitialiseStack( StackType_t *pxTopOfStack, TaskFunction_t pxCode, void *pvParam
 224:Generated_Source\PSoC6\pdl\rtos\FreeRTOS\9.0.0\Source\portable\GCC\CM4F/port.c **** {
 225:Generated_Source\PSoC6\pdl\rtos\FreeRTOS\9.0.0\Source\portable\GCC\CM4F/port.c ****     /* Simulate the stack frame as it would be created by a context switch
 226:Generated_Source\PSoC6\pdl\rtos\FreeRTOS\9.0.0\Source\portable\GCC\CM4F/port.c ****     interrupt. */
 227:Generated_Source\PSoC6\pdl\rtos\FreeRTOS\9.0.0\Source\portable\GCC\CM4F/port.c **** 
 228:Generated_Source\PSoC6\pdl\rtos\FreeRTOS\9.0.0\Source\portable\GCC\CM4F/port.c ****     /* Offset added to account for the way the MCU uses the stack on entry/exit
 229:Generated_Source\PSoC6\pdl\rtos\FreeRTOS\9.0.0\Source\portable\GCC\CM4F/port.c ****     of interrupts, and to ensure alignment. */
 230:Generated_Source\PSoC6\pdl\rtos\FreeRTOS\9.0.0\Source\portable\GCC\CM4F/port.c ****     pxTopOfStack--;
 231:Generated_Source\PSoC6\pdl\rtos\FreeRTOS\9.0.0\Source\portable\GCC\CM4F/port.c **** 
 232:Generated_Source\PSoC6\pdl\rtos\FreeRTOS\9.0.0\Source\portable\GCC\CM4F/port.c ****     *pxTopOfStack = portINITIAL_XPSR;    /* xPSR */
 233:Generated_Source\PSoC6\pdl\rtos\FreeRTOS\9.0.0\Source\portable\GCC\CM4F/port.c ****     pxTopOfStack--;
 234:Generated_Source\PSoC6\pdl\rtos\FreeRTOS\9.0.0\Source\portable\GCC\CM4F/port.c ****     *pxTopOfStack = ( ( StackType_t ) pxCode ) & portSTART_ADDRESS_MASK;    /* PC */
 235:Generated_Source\PSoC6\pdl\rtos\FreeRTOS\9.0.0\Source\portable\GCC\CM4F/port.c ****     pxTopOfStack--;
 236:Generated_Source\PSoC6\pdl\rtos\FreeRTOS\9.0.0\Source\portable\GCC\CM4F/port.c ****     *pxTopOfStack = ( StackType_t ) portTASK_RETURN_ADDRESS;    /* LR */
 237:Generated_Source\PSoC6\pdl\rtos\FreeRTOS\9.0.0\Source\portable\GCC\CM4F/port.c **** 
 238:Generated_Source\PSoC6\pdl\rtos\FreeRTOS\9.0.0\Source\portable\GCC\CM4F/port.c ****     /* Save code space by skipping register initialisation. */
 239:Generated_Source\PSoC6\pdl\rtos\FreeRTOS\9.0.0\Source\portable\GCC\CM4F/port.c ****     pxTopOfStack -= 5;    /* R12, R3, R2 and R1. */
 240:Generated_Source\PSoC6\pdl\rtos\FreeRTOS\9.0.0\Source\portable\GCC\CM4F/port.c ****     *pxTopOfStack = ( StackType_t ) pvParameters;    /* R0 */
 241:Generated_Source\PSoC6\pdl\rtos\FreeRTOS\9.0.0\Source\portable\GCC\CM4F/port.c **** 
 242:Generated_Source\PSoC6\pdl\rtos\FreeRTOS\9.0.0\Source\portable\GCC\CM4F/port.c ****     /* A save method is being used that requires each task to maintain its
 243:Generated_Source\PSoC6\pdl\rtos\FreeRTOS\9.0.0\Source\portable\GCC\CM4F/port.c ****     own exec return value. */
 244:Generated_Source\PSoC6\pdl\rtos\FreeRTOS\9.0.0\Source\portable\GCC\CM4F/port.c ****     pxTopOfStack--;
 245:Generated_Source\PSoC6\pdl\rtos\FreeRTOS\9.0.0\Source\portable\GCC\CM4F/port.c ****     *pxTopOfStack = portINITIAL_EXEC_RETURN;
 246:Generated_Source\PSoC6\pdl\rtos\FreeRTOS\9.0.0\Source\portable\GCC\CM4F/port.c **** 
 247:Generated_Source\PSoC6\pdl\rtos\FreeRTOS\9.0.0\Source\portable\GCC\CM4F/port.c ****     pxTopOfStack -= 8;    /* R11, R10, R9, R8, R7, R6, R5 and R4. */
 248:Generated_Source\PSoC6\pdl\rtos\FreeRTOS\9.0.0\Source\portable\GCC\CM4F/port.c **** 
 249:Generated_Source\PSoC6\pdl\rtos\FreeRTOS\9.0.0\Source\portable\GCC\CM4F/port.c ****     return pxTopOfStack;
 250:Generated_Source\PSoC6\pdl\rtos\FreeRTOS\9.0.0\Source\portable\GCC\CM4F/port.c **** }
 251:Generated_Source\PSoC6\pdl\rtos\FreeRTOS\9.0.0\Source\portable\GCC\CM4F/port.c **** /*-----------------------------------------------------------*/
 252:Generated_Source\PSoC6\pdl\rtos\FreeRTOS\9.0.0\Source\portable\GCC\CM4F/port.c **** 
 253:Generated_Source\PSoC6\pdl\rtos\FreeRTOS\9.0.0\Source\portable\GCC\CM4F/port.c **** static void prvTaskExitError( void )
 254:Generated_Source\PSoC6\pdl\rtos\FreeRTOS\9.0.0\Source\portable\GCC\CM4F/port.c **** {
  28              		.loc 1 254 0
  29              		.cfi_startproc
  30              		@ Volatile: function does not return.
  31              		@ args = 0, pretend = 0, frame = 0
ARM GAS  C:\Users\Agentos\AppData\Local\Temp\ccomwea8.s 			page 6


  32              		@ frame_needed = 0, uses_anonymous_args = 0
  33              		@ link register save eliminated.
 255:Generated_Source\PSoC6\pdl\rtos\FreeRTOS\9.0.0\Source\portable\GCC\CM4F/port.c ****     /* A function that implements a task must not exit or attempt to return to
 256:Generated_Source\PSoC6\pdl\rtos\FreeRTOS\9.0.0\Source\portable\GCC\CM4F/port.c ****     its caller as there is nothing to return to.  If a task wants to exit it
 257:Generated_Source\PSoC6\pdl\rtos\FreeRTOS\9.0.0\Source\portable\GCC\CM4F/port.c ****     should instead call vTaskDelete( NULL ).
 258:Generated_Source\PSoC6\pdl\rtos\FreeRTOS\9.0.0\Source\portable\GCC\CM4F/port.c **** 
 259:Generated_Source\PSoC6\pdl\rtos\FreeRTOS\9.0.0\Source\portable\GCC\CM4F/port.c ****     Artificially force an assert() to be triggered if configASSERT() is
 260:Generated_Source\PSoC6\pdl\rtos\FreeRTOS\9.0.0\Source\portable\GCC\CM4F/port.c ****     defined, then stop here so application writers can catch the error. */
 261:Generated_Source\PSoC6\pdl\rtos\FreeRTOS\9.0.0\Source\portable\GCC\CM4F/port.c ****     configASSERT( uxCriticalNesting == ~0UL );
  34              		.loc 1 261 0
  35 0000 044B     		ldr	r3, .L5
  36 0002 1B68     		ldr	r3, [r3]
  37 0004 B3F1FF3F 		cmp	r3, #-1
  38 0008 01D0     		beq	.L2
  39              		.loc 1 261 0 is_stmt 0 discriminator 1
  40              		.syntax unified
  41              	@ 261 "Generated_Source\PSoC6\pdl\rtos\FreeRTOS\9.0.0\Source\portable\GCC\CM4F\port.c" 1
  42 000a 72B6     		 cpsid i 
  43              	@ 0 "" 2
  44              		.thumb
  45              		.syntax unified
  46              	.L3:
  47 000c FEE7     		b	.L3
  48              	.L2:
 262:Generated_Source\PSoC6\pdl\rtos\FreeRTOS\9.0.0\Source\portable\GCC\CM4F/port.c ****     portDISABLE_INTERRUPTS();
  49              		.loc 1 262 0 is_stmt 1
  50              		.syntax unified
  51              	@ 262 "Generated_Source\PSoC6\pdl\rtos\FreeRTOS\9.0.0\Source\portable\GCC\CM4F\port.c" 1
  52 000e 72B6     		 cpsid i 
  53              	@ 0 "" 2
  54              		.thumb
  55              		.syntax unified
  56              	.L4:
  57 0010 FEE7     		b	.L4
  58              	.L6:
  59 0012 00BF     		.align	2
  60              	.L5:
  61 0014 00000000 		.word	.LANCHOR0
  62              		.cfi_endproc
  63              	.LFE518:
  64              		.size	prvTaskExitError, .-prvTaskExitError
  65              		.section	.text.prvPortStartFirstTask,"ax",%progbits
  66              		.align	2
  67              		.thumb
  68              		.thumb_func
  69              		.type	prvPortStartFirstTask, %function
  70              	prvPortStartFirstTask:
  71              	.LFB520:
 263:Generated_Source\PSoC6\pdl\rtos\FreeRTOS\9.0.0\Source\portable\GCC\CM4F/port.c ****     for( ;; );
 264:Generated_Source\PSoC6\pdl\rtos\FreeRTOS\9.0.0\Source\portable\GCC\CM4F/port.c **** }
 265:Generated_Source\PSoC6\pdl\rtos\FreeRTOS\9.0.0\Source\portable\GCC\CM4F/port.c **** /*-----------------------------------------------------------*/
 266:Generated_Source\PSoC6\pdl\rtos\FreeRTOS\9.0.0\Source\portable\GCC\CM4F/port.c **** 
 267:Generated_Source\PSoC6\pdl\rtos\FreeRTOS\9.0.0\Source\portable\GCC\CM4F/port.c **** void vPortSVCHandler( void )
 268:Generated_Source\PSoC6\pdl\rtos\FreeRTOS\9.0.0\Source\portable\GCC\CM4F/port.c **** {
 269:Generated_Source\PSoC6\pdl\rtos\FreeRTOS\9.0.0\Source\portable\GCC\CM4F/port.c ****     __asm volatile (
 270:Generated_Source\PSoC6\pdl\rtos\FreeRTOS\9.0.0\Source\portable\GCC\CM4F/port.c ****         /* Restore the context. */
 271:Generated_Source\PSoC6\pdl\rtos\FreeRTOS\9.0.0\Source\portable\GCC\CM4F/port.c ****         " ldr    r3, pxCurrentTCBConst2      \n"
ARM GAS  C:\Users\Agentos\AppData\Local\Temp\ccomwea8.s 			page 7


 272:Generated_Source\PSoC6\pdl\rtos\FreeRTOS\9.0.0\Source\portable\GCC\CM4F/port.c ****         /* Use pxCurrentTCBConst to get the pxCurrentTCB address. */
 273:Generated_Source\PSoC6\pdl\rtos\FreeRTOS\9.0.0\Source\portable\GCC\CM4F/port.c ****         " ldr r1, [r3]                       \n"
 274:Generated_Source\PSoC6\pdl\rtos\FreeRTOS\9.0.0\Source\portable\GCC\CM4F/port.c ****         /* The first item in pxCurrentTCB is the task top of stack. */
 275:Generated_Source\PSoC6\pdl\rtos\FreeRTOS\9.0.0\Source\portable\GCC\CM4F/port.c ****         " ldr r0, [r1]                       \n"
 276:Generated_Source\PSoC6\pdl\rtos\FreeRTOS\9.0.0\Source\portable\GCC\CM4F/port.c ****         /* Pop the registers that are not automatically saved on exception
 277:Generated_Source\PSoC6\pdl\rtos\FreeRTOS\9.0.0\Source\portable\GCC\CM4F/port.c ****          *  entry and the critical nesting count.
 278:Generated_Source\PSoC6\pdl\rtos\FreeRTOS\9.0.0\Source\portable\GCC\CM4F/port.c ****          */
 279:Generated_Source\PSoC6\pdl\rtos\FreeRTOS\9.0.0\Source\portable\GCC\CM4F/port.c ****         " ldmia r0!, {r4-r11, r14}           \n"
 280:Generated_Source\PSoC6\pdl\rtos\FreeRTOS\9.0.0\Source\portable\GCC\CM4F/port.c ****         /* Restore the task stack pointer. */
 281:Generated_Source\PSoC6\pdl\rtos\FreeRTOS\9.0.0\Source\portable\GCC\CM4F/port.c ****         " msr psp, r0                        \n" 
 282:Generated_Source\PSoC6\pdl\rtos\FreeRTOS\9.0.0\Source\portable\GCC\CM4F/port.c ****         " isb                                \n"
 283:Generated_Source\PSoC6\pdl\rtos\FreeRTOS\9.0.0\Source\portable\GCC\CM4F/port.c ****         " mov r0, #0                         \n"
 284:Generated_Source\PSoC6\pdl\rtos\FreeRTOS\9.0.0\Source\portable\GCC\CM4F/port.c ****         " msr basepri, r0                    \n"
 285:Generated_Source\PSoC6\pdl\rtos\FreeRTOS\9.0.0\Source\portable\GCC\CM4F/port.c ****         " bx r14                             \n"
 286:Generated_Source\PSoC6\pdl\rtos\FreeRTOS\9.0.0\Source\portable\GCC\CM4F/port.c ****         "                                    \n"
 287:Generated_Source\PSoC6\pdl\rtos\FreeRTOS\9.0.0\Source\portable\GCC\CM4F/port.c ****         " .align 4                           \n"
 288:Generated_Source\PSoC6\pdl\rtos\FreeRTOS\9.0.0\Source\portable\GCC\CM4F/port.c ****         "pxCurrentTCBConst2: .word pxCurrentTCB \n"
 289:Generated_Source\PSoC6\pdl\rtos\FreeRTOS\9.0.0\Source\portable\GCC\CM4F/port.c ****         );
 290:Generated_Source\PSoC6\pdl\rtos\FreeRTOS\9.0.0\Source\portable\GCC\CM4F/port.c **** }
 291:Generated_Source\PSoC6\pdl\rtos\FreeRTOS\9.0.0\Source\portable\GCC\CM4F/port.c **** /*-----------------------------------------------------------*/
 292:Generated_Source\PSoC6\pdl\rtos\FreeRTOS\9.0.0\Source\portable\GCC\CM4F/port.c **** 
 293:Generated_Source\PSoC6\pdl\rtos\FreeRTOS\9.0.0\Source\portable\GCC\CM4F/port.c **** static void prvPortStartFirstTask( void )
 294:Generated_Source\PSoC6\pdl\rtos\FreeRTOS\9.0.0\Source\portable\GCC\CM4F/port.c **** {
  72              		.loc 1 294 0
  73              		.cfi_startproc
  74              		@ Naked Function: prologue and epilogue provided by programmer.
  75              		@ args = 0, pretend = 0, frame = 0
  76              		@ frame_needed = 0, uses_anonymous_args = 0
 295:Generated_Source\PSoC6\pdl\rtos\FreeRTOS\9.0.0\Source\portable\GCC\CM4F/port.c ****     __asm volatile(
  77              		.loc 1 295 0
  78              		.syntax unified
  79              	@ 295 "Generated_Source\PSoC6\pdl\rtos\FreeRTOS\9.0.0\Source\portable\GCC\CM4F\port.c" 1
  80 0000 0648     		 ldr r0, =0xE000ED08                
  81 0002 0068     	 ldr r0, [r0]                       
  82 0004 0068     	 ldr r0, [r0]                       
  83 0006 80F30888 	 msr msp, r0                        
  84 000a 62B6     	 cpsie i                            
  85 000c 61B6     	 cpsie f                            
  86 000e BFF34F8F 	 dsb                                
  87 0012 BFF36F8F 	 isb                                
  88 0016 00DF     	 svc 0                              
  89 0018 00BF     	 nop                                
  90              	
  91              	@ 0 "" 2
 296:Generated_Source\PSoC6\pdl\rtos\FreeRTOS\9.0.0\Source\portable\GCC\CM4F/port.c ****         /* Use the NVIC offset register to locate the stack. */
 297:Generated_Source\PSoC6\pdl\rtos\FreeRTOS\9.0.0\Source\portable\GCC\CM4F/port.c ****         " ldr r0, =0xE000ED08                \n"
 298:Generated_Source\PSoC6\pdl\rtos\FreeRTOS\9.0.0\Source\portable\GCC\CM4F/port.c ****         " ldr r0, [r0]                       \n"
 299:Generated_Source\PSoC6\pdl\rtos\FreeRTOS\9.0.0\Source\portable\GCC\CM4F/port.c ****         " ldr r0, [r0]                       \n"
 300:Generated_Source\PSoC6\pdl\rtos\FreeRTOS\9.0.0\Source\portable\GCC\CM4F/port.c ****         /* Set the msp back to the start of the stack. */
 301:Generated_Source\PSoC6\pdl\rtos\FreeRTOS\9.0.0\Source\portable\GCC\CM4F/port.c ****         " msr msp, r0                        \n"
 302:Generated_Source\PSoC6\pdl\rtos\FreeRTOS\9.0.0\Source\portable\GCC\CM4F/port.c ****         /* Globally enable interrupts. */
 303:Generated_Source\PSoC6\pdl\rtos\FreeRTOS\9.0.0\Source\portable\GCC\CM4F/port.c ****         " cpsie i                            \n"
 304:Generated_Source\PSoC6\pdl\rtos\FreeRTOS\9.0.0\Source\portable\GCC\CM4F/port.c ****         " cpsie f                            \n"
 305:Generated_Source\PSoC6\pdl\rtos\FreeRTOS\9.0.0\Source\portable\GCC\CM4F/port.c ****         " dsb                                \n"
 306:Generated_Source\PSoC6\pdl\rtos\FreeRTOS\9.0.0\Source\portable\GCC\CM4F/port.c ****         " isb                                \n"
 307:Generated_Source\PSoC6\pdl\rtos\FreeRTOS\9.0.0\Source\portable\GCC\CM4F/port.c ****         /* System call to start first task. */
 308:Generated_Source\PSoC6\pdl\rtos\FreeRTOS\9.0.0\Source\portable\GCC\CM4F/port.c ****         " svc 0                              \n"
ARM GAS  C:\Users\Agentos\AppData\Local\Temp\ccomwea8.s 			page 8


 309:Generated_Source\PSoC6\pdl\rtos\FreeRTOS\9.0.0\Source\portable\GCC\CM4F/port.c ****         " nop                                \n"
 310:Generated_Source\PSoC6\pdl\rtos\FreeRTOS\9.0.0\Source\portable\GCC\CM4F/port.c ****         );
 311:Generated_Source\PSoC6\pdl\rtos\FreeRTOS\9.0.0\Source\portable\GCC\CM4F/port.c **** }
  92              		.loc 1 311 0
  93              		.thumb
  94              		.syntax unified
  95              		.cfi_endproc
  96              	.LFE520:
  97              		.size	prvPortStartFirstTask, .-prvPortStartFirstTask
  98 001a 0000     		.section	.text.vPortEnableVFP,"ax",%progbits
  99              		.align	2
 100              		.thumb
 101              		.thumb_func
 102              		.type	vPortEnableVFP, %function
 103              	vPortEnableVFP:
 104              	.LFB528:
 312:Generated_Source\PSoC6\pdl\rtos\FreeRTOS\9.0.0\Source\portable\GCC\CM4F/port.c **** /*-----------------------------------------------------------*/
 313:Generated_Source\PSoC6\pdl\rtos\FreeRTOS\9.0.0\Source\portable\GCC\CM4F/port.c **** 
 314:Generated_Source\PSoC6\pdl\rtos\FreeRTOS\9.0.0\Source\portable\GCC\CM4F/port.c **** BaseType_t xPortStartScheduler( void )
 315:Generated_Source\PSoC6\pdl\rtos\FreeRTOS\9.0.0\Source\portable\GCC\CM4F/port.c **** {
 316:Generated_Source\PSoC6\pdl\rtos\FreeRTOS\9.0.0\Source\portable\GCC\CM4F/port.c ****     /* configMAX_SYSCALL_INTERRUPT_PRIORITY must not be set to 0.
 317:Generated_Source\PSoC6\pdl\rtos\FreeRTOS\9.0.0\Source\portable\GCC\CM4F/port.c ****     See http://www.FreeRTOS.org/RTOS-Cortex-M3-M4.html */
 318:Generated_Source\PSoC6\pdl\rtos\FreeRTOS\9.0.0\Source\portable\GCC\CM4F/port.c ****     configASSERT( configMAX_SYSCALL_INTERRUPT_PRIORITY );
 319:Generated_Source\PSoC6\pdl\rtos\FreeRTOS\9.0.0\Source\portable\GCC\CM4F/port.c **** 
 320:Generated_Source\PSoC6\pdl\rtos\FreeRTOS\9.0.0\Source\portable\GCC\CM4F/port.c ****     #if( configASSERT_DEFINED == 1 )
 321:Generated_Source\PSoC6\pdl\rtos\FreeRTOS\9.0.0\Source\portable\GCC\CM4F/port.c ****     {
 322:Generated_Source\PSoC6\pdl\rtos\FreeRTOS\9.0.0\Source\portable\GCC\CM4F/port.c ****         volatile uint32_t ulOriginalPriority;
 323:Generated_Source\PSoC6\pdl\rtos\FreeRTOS\9.0.0\Source\portable\GCC\CM4F/port.c ****         volatile uint8_t * const pucFirstUserPriorityRegister = ( volatile uint8_t * const ) ( port
 324:Generated_Source\PSoC6\pdl\rtos\FreeRTOS\9.0.0\Source\portable\GCC\CM4F/port.c ****         volatile uint8_t ucMaxPriorityValue;
 325:Generated_Source\PSoC6\pdl\rtos\FreeRTOS\9.0.0\Source\portable\GCC\CM4F/port.c **** 
 326:Generated_Source\PSoC6\pdl\rtos\FreeRTOS\9.0.0\Source\portable\GCC\CM4F/port.c ****         /* Determine the maximum priority from which ISR safe FreeRTOS API
 327:Generated_Source\PSoC6\pdl\rtos\FreeRTOS\9.0.0\Source\portable\GCC\CM4F/port.c ****         functions can be called.  ISR safe functions are those that end in
 328:Generated_Source\PSoC6\pdl\rtos\FreeRTOS\9.0.0\Source\portable\GCC\CM4F/port.c ****         "FromISR".  FreeRTOS maintains separate thread and ISR API functions to
 329:Generated_Source\PSoC6\pdl\rtos\FreeRTOS\9.0.0\Source\portable\GCC\CM4F/port.c ****         ensure interrupt entry is as fast and simple as possible.
 330:Generated_Source\PSoC6\pdl\rtos\FreeRTOS\9.0.0\Source\portable\GCC\CM4F/port.c **** 
 331:Generated_Source\PSoC6\pdl\rtos\FreeRTOS\9.0.0\Source\portable\GCC\CM4F/port.c ****         Save the interrupt priority value that is about to be clobbered. */
 332:Generated_Source\PSoC6\pdl\rtos\FreeRTOS\9.0.0\Source\portable\GCC\CM4F/port.c ****         ulOriginalPriority = *pucFirstUserPriorityRegister;
 333:Generated_Source\PSoC6\pdl\rtos\FreeRTOS\9.0.0\Source\portable\GCC\CM4F/port.c **** 
 334:Generated_Source\PSoC6\pdl\rtos\FreeRTOS\9.0.0\Source\portable\GCC\CM4F/port.c ****         /* Determine the number of priority bits available.  First write to all
 335:Generated_Source\PSoC6\pdl\rtos\FreeRTOS\9.0.0\Source\portable\GCC\CM4F/port.c ****         possible bits. */
 336:Generated_Source\PSoC6\pdl\rtos\FreeRTOS\9.0.0\Source\portable\GCC\CM4F/port.c ****         *pucFirstUserPriorityRegister = portMAX_8_BIT_VALUE;
 337:Generated_Source\PSoC6\pdl\rtos\FreeRTOS\9.0.0\Source\portable\GCC\CM4F/port.c **** 
 338:Generated_Source\PSoC6\pdl\rtos\FreeRTOS\9.0.0\Source\portable\GCC\CM4F/port.c ****         /* Read the value back to see how many bits stuck. */
 339:Generated_Source\PSoC6\pdl\rtos\FreeRTOS\9.0.0\Source\portable\GCC\CM4F/port.c ****         ucMaxPriorityValue = *pucFirstUserPriorityRegister;
 340:Generated_Source\PSoC6\pdl\rtos\FreeRTOS\9.0.0\Source\portable\GCC\CM4F/port.c **** 
 341:Generated_Source\PSoC6\pdl\rtos\FreeRTOS\9.0.0\Source\portable\GCC\CM4F/port.c ****         /* Use the same mask on the maximum system call priority. */
 342:Generated_Source\PSoC6\pdl\rtos\FreeRTOS\9.0.0\Source\portable\GCC\CM4F/port.c ****         ucMaxSysCallPriority = configMAX_SYSCALL_INTERRUPT_PRIORITY & ucMaxPriorityValue;
 343:Generated_Source\PSoC6\pdl\rtos\FreeRTOS\9.0.0\Source\portable\GCC\CM4F/port.c **** 
 344:Generated_Source\PSoC6\pdl\rtos\FreeRTOS\9.0.0\Source\portable\GCC\CM4F/port.c ****         /* Calculate the maximum acceptable priority group value for the number
 345:Generated_Source\PSoC6\pdl\rtos\FreeRTOS\9.0.0\Source\portable\GCC\CM4F/port.c ****         of bits read back. */
 346:Generated_Source\PSoC6\pdl\rtos\FreeRTOS\9.0.0\Source\portable\GCC\CM4F/port.c ****         ulMaxPRIGROUPValue = portMAX_PRIGROUP_BITS;
 347:Generated_Source\PSoC6\pdl\rtos\FreeRTOS\9.0.0\Source\portable\GCC\CM4F/port.c ****         while( ( ucMaxPriorityValue & portTOP_BIT_OF_BYTE ) == portTOP_BIT_OF_BYTE )
 348:Generated_Source\PSoC6\pdl\rtos\FreeRTOS\9.0.0\Source\portable\GCC\CM4F/port.c ****         {
 349:Generated_Source\PSoC6\pdl\rtos\FreeRTOS\9.0.0\Source\portable\GCC\CM4F/port.c ****             ulMaxPRIGROUPValue--;
 350:Generated_Source\PSoC6\pdl\rtos\FreeRTOS\9.0.0\Source\portable\GCC\CM4F/port.c ****             ucMaxPriorityValue <<= ( uint8_t ) 0x01;
 351:Generated_Source\PSoC6\pdl\rtos\FreeRTOS\9.0.0\Source\portable\GCC\CM4F/port.c ****         }
 352:Generated_Source\PSoC6\pdl\rtos\FreeRTOS\9.0.0\Source\portable\GCC\CM4F/port.c **** 
ARM GAS  C:\Users\Agentos\AppData\Local\Temp\ccomwea8.s 			page 9


 353:Generated_Source\PSoC6\pdl\rtos\FreeRTOS\9.0.0\Source\portable\GCC\CM4F/port.c ****         /* Shift the priority group value back to its position within the AIRCR
 354:Generated_Source\PSoC6\pdl\rtos\FreeRTOS\9.0.0\Source\portable\GCC\CM4F/port.c ****         register. */
 355:Generated_Source\PSoC6\pdl\rtos\FreeRTOS\9.0.0\Source\portable\GCC\CM4F/port.c ****         ulMaxPRIGROUPValue <<= portPRIGROUP_SHIFT;
 356:Generated_Source\PSoC6\pdl\rtos\FreeRTOS\9.0.0\Source\portable\GCC\CM4F/port.c ****         ulMaxPRIGROUPValue &= portPRIORITY_GROUP_MASK;
 357:Generated_Source\PSoC6\pdl\rtos\FreeRTOS\9.0.0\Source\portable\GCC\CM4F/port.c **** 
 358:Generated_Source\PSoC6\pdl\rtos\FreeRTOS\9.0.0\Source\portable\GCC\CM4F/port.c ****         /* Restore the clobbered interrupt priority register to its original
 359:Generated_Source\PSoC6\pdl\rtos\FreeRTOS\9.0.0\Source\portable\GCC\CM4F/port.c ****         value. */
 360:Generated_Source\PSoC6\pdl\rtos\FreeRTOS\9.0.0\Source\portable\GCC\CM4F/port.c ****         *pucFirstUserPriorityRegister = ulOriginalPriority;
 361:Generated_Source\PSoC6\pdl\rtos\FreeRTOS\9.0.0\Source\portable\GCC\CM4F/port.c ****     }
 362:Generated_Source\PSoC6\pdl\rtos\FreeRTOS\9.0.0\Source\portable\GCC\CM4F/port.c ****     #endif /* conifgASSERT_DEFINED */
 363:Generated_Source\PSoC6\pdl\rtos\FreeRTOS\9.0.0\Source\portable\GCC\CM4F/port.c **** 
 364:Generated_Source\PSoC6\pdl\rtos\FreeRTOS\9.0.0\Source\portable\GCC\CM4F/port.c ****     /* Make PendSV and SysTick the lowest priority interrupts. */
 365:Generated_Source\PSoC6\pdl\rtos\FreeRTOS\9.0.0\Source\portable\GCC\CM4F/port.c ****     portNVIC_SYSPRI2_REG |= portNVIC_PENDSV_PRI;
 366:Generated_Source\PSoC6\pdl\rtos\FreeRTOS\9.0.0\Source\portable\GCC\CM4F/port.c ****     portNVIC_SYSPRI2_REG |= portNVIC_SYSTICK_PRI;
 367:Generated_Source\PSoC6\pdl\rtos\FreeRTOS\9.0.0\Source\portable\GCC\CM4F/port.c **** 
 368:Generated_Source\PSoC6\pdl\rtos\FreeRTOS\9.0.0\Source\portable\GCC\CM4F/port.c ****     /* Start the timer that generates the tick ISR.  Interrupts are disabled
 369:Generated_Source\PSoC6\pdl\rtos\FreeRTOS\9.0.0\Source\portable\GCC\CM4F/port.c ****     here already. */
 370:Generated_Source\PSoC6\pdl\rtos\FreeRTOS\9.0.0\Source\portable\GCC\CM4F/port.c ****     vPortSetupTimerInterrupt();
 371:Generated_Source\PSoC6\pdl\rtos\FreeRTOS\9.0.0\Source\portable\GCC\CM4F/port.c **** 
 372:Generated_Source\PSoC6\pdl\rtos\FreeRTOS\9.0.0\Source\portable\GCC\CM4F/port.c ****     /* Initialise the critical nesting count ready for the first task. */
 373:Generated_Source\PSoC6\pdl\rtos\FreeRTOS\9.0.0\Source\portable\GCC\CM4F/port.c ****     uxCriticalNesting = 0;
 374:Generated_Source\PSoC6\pdl\rtos\FreeRTOS\9.0.0\Source\portable\GCC\CM4F/port.c **** 
 375:Generated_Source\PSoC6\pdl\rtos\FreeRTOS\9.0.0\Source\portable\GCC\CM4F/port.c ****     /* Ensure the VFP is enabled - it should be anyway. */
 376:Generated_Source\PSoC6\pdl\rtos\FreeRTOS\9.0.0\Source\portable\GCC\CM4F/port.c ****     vPortEnableVFP();
 377:Generated_Source\PSoC6\pdl\rtos\FreeRTOS\9.0.0\Source\portable\GCC\CM4F/port.c **** 
 378:Generated_Source\PSoC6\pdl\rtos\FreeRTOS\9.0.0\Source\portable\GCC\CM4F/port.c ****     /* Lazy save always. */
 379:Generated_Source\PSoC6\pdl\rtos\FreeRTOS\9.0.0\Source\portable\GCC\CM4F/port.c ****     *( portFPCCR ) |= portASPEN_AND_LSPEN_BITS;
 380:Generated_Source\PSoC6\pdl\rtos\FreeRTOS\9.0.0\Source\portable\GCC\CM4F/port.c **** 
 381:Generated_Source\PSoC6\pdl\rtos\FreeRTOS\9.0.0\Source\portable\GCC\CM4F/port.c ****     /* Start the first task. */
 382:Generated_Source\PSoC6\pdl\rtos\FreeRTOS\9.0.0\Source\portable\GCC\CM4F/port.c ****     prvPortStartFirstTask();
 383:Generated_Source\PSoC6\pdl\rtos\FreeRTOS\9.0.0\Source\portable\GCC\CM4F/port.c **** 
 384:Generated_Source\PSoC6\pdl\rtos\FreeRTOS\9.0.0\Source\portable\GCC\CM4F/port.c ****     /* Should never get here as the tasks will now be executing!  Call the task
 385:Generated_Source\PSoC6\pdl\rtos\FreeRTOS\9.0.0\Source\portable\GCC\CM4F/port.c ****     exit error function to prevent compiler warnings about a static function
 386:Generated_Source\PSoC6\pdl\rtos\FreeRTOS\9.0.0\Source\portable\GCC\CM4F/port.c ****     not being called in the case that the application writer overrides this
 387:Generated_Source\PSoC6\pdl\rtos\FreeRTOS\9.0.0\Source\portable\GCC\CM4F/port.c ****     functionality by defining configTASK_RETURN_ADDRESS. */
 388:Generated_Source\PSoC6\pdl\rtos\FreeRTOS\9.0.0\Source\portable\GCC\CM4F/port.c ****     prvTaskExitError();
 389:Generated_Source\PSoC6\pdl\rtos\FreeRTOS\9.0.0\Source\portable\GCC\CM4F/port.c **** 
 390:Generated_Source\PSoC6\pdl\rtos\FreeRTOS\9.0.0\Source\portable\GCC\CM4F/port.c ****     /* Should not get here! */
 391:Generated_Source\PSoC6\pdl\rtos\FreeRTOS\9.0.0\Source\portable\GCC\CM4F/port.c ****     return 0;
 392:Generated_Source\PSoC6\pdl\rtos\FreeRTOS\9.0.0\Source\portable\GCC\CM4F/port.c **** }
 393:Generated_Source\PSoC6\pdl\rtos\FreeRTOS\9.0.0\Source\portable\GCC\CM4F/port.c **** /*-----------------------------------------------------------*/
 394:Generated_Source\PSoC6\pdl\rtos\FreeRTOS\9.0.0\Source\portable\GCC\CM4F/port.c **** 
 395:Generated_Source\PSoC6\pdl\rtos\FreeRTOS\9.0.0\Source\portable\GCC\CM4F/port.c **** void vPortEndScheduler( void )
 396:Generated_Source\PSoC6\pdl\rtos\FreeRTOS\9.0.0\Source\portable\GCC\CM4F/port.c **** {
 397:Generated_Source\PSoC6\pdl\rtos\FreeRTOS\9.0.0\Source\portable\GCC\CM4F/port.c ****     /* Not implemented in ports where there is nothing to return to.
 398:Generated_Source\PSoC6\pdl\rtos\FreeRTOS\9.0.0\Source\portable\GCC\CM4F/port.c ****     Artificially force an assert. */
 399:Generated_Source\PSoC6\pdl\rtos\FreeRTOS\9.0.0\Source\portable\GCC\CM4F/port.c ****     configASSERT( uxCriticalNesting == 1000UL );
 400:Generated_Source\PSoC6\pdl\rtos\FreeRTOS\9.0.0\Source\portable\GCC\CM4F/port.c **** }
 401:Generated_Source\PSoC6\pdl\rtos\FreeRTOS\9.0.0\Source\portable\GCC\CM4F/port.c **** /*-----------------------------------------------------------*/
 402:Generated_Source\PSoC6\pdl\rtos\FreeRTOS\9.0.0\Source\portable\GCC\CM4F/port.c **** 
 403:Generated_Source\PSoC6\pdl\rtos\FreeRTOS\9.0.0\Source\portable\GCC\CM4F/port.c **** void vPortEnterCritical( void )
 404:Generated_Source\PSoC6\pdl\rtos\FreeRTOS\9.0.0\Source\portable\GCC\CM4F/port.c **** {
 405:Generated_Source\PSoC6\pdl\rtos\FreeRTOS\9.0.0\Source\portable\GCC\CM4F/port.c ****     portDISABLE_INTERRUPTS();
 406:Generated_Source\PSoC6\pdl\rtos\FreeRTOS\9.0.0\Source\portable\GCC\CM4F/port.c ****     uxCriticalNesting++;
 407:Generated_Source\PSoC6\pdl\rtos\FreeRTOS\9.0.0\Source\portable\GCC\CM4F/port.c **** 
 408:Generated_Source\PSoC6\pdl\rtos\FreeRTOS\9.0.0\Source\portable\GCC\CM4F/port.c ****     /* This is not the interrupt safe version of the enter critical function so
 409:Generated_Source\PSoC6\pdl\rtos\FreeRTOS\9.0.0\Source\portable\GCC\CM4F/port.c ****     assert() if it is being called from an interrupt context.  Only API
ARM GAS  C:\Users\Agentos\AppData\Local\Temp\ccomwea8.s 			page 10


 410:Generated_Source\PSoC6\pdl\rtos\FreeRTOS\9.0.0\Source\portable\GCC\CM4F/port.c ****     functions that end in "FromISR" can be used in an interrupt.  Only assert if
 411:Generated_Source\PSoC6\pdl\rtos\FreeRTOS\9.0.0\Source\portable\GCC\CM4F/port.c ****     the critical nesting count is 1 to protect against recursive calls if the
 412:Generated_Source\PSoC6\pdl\rtos\FreeRTOS\9.0.0\Source\portable\GCC\CM4F/port.c ****     assert function also uses a critical section. */
 413:Generated_Source\PSoC6\pdl\rtos\FreeRTOS\9.0.0\Source\portable\GCC\CM4F/port.c ****     if( uxCriticalNesting == 1 )
 414:Generated_Source\PSoC6\pdl\rtos\FreeRTOS\9.0.0\Source\portable\GCC\CM4F/port.c ****     {
 415:Generated_Source\PSoC6\pdl\rtos\FreeRTOS\9.0.0\Source\portable\GCC\CM4F/port.c ****         configASSERT( ( portNVIC_INT_CTRL_REG & portVECTACTIVE_MASK ) == 0 );
 416:Generated_Source\PSoC6\pdl\rtos\FreeRTOS\9.0.0\Source\portable\GCC\CM4F/port.c ****     }
 417:Generated_Source\PSoC6\pdl\rtos\FreeRTOS\9.0.0\Source\portable\GCC\CM4F/port.c **** }
 418:Generated_Source\PSoC6\pdl\rtos\FreeRTOS\9.0.0\Source\portable\GCC\CM4F/port.c **** /*-----------------------------------------------------------*/
 419:Generated_Source\PSoC6\pdl\rtos\FreeRTOS\9.0.0\Source\portable\GCC\CM4F/port.c **** 
 420:Generated_Source\PSoC6\pdl\rtos\FreeRTOS\9.0.0\Source\portable\GCC\CM4F/port.c **** void vPortExitCritical( void )
 421:Generated_Source\PSoC6\pdl\rtos\FreeRTOS\9.0.0\Source\portable\GCC\CM4F/port.c **** {
 422:Generated_Source\PSoC6\pdl\rtos\FreeRTOS\9.0.0\Source\portable\GCC\CM4F/port.c ****     configASSERT( uxCriticalNesting );
 423:Generated_Source\PSoC6\pdl\rtos\FreeRTOS\9.0.0\Source\portable\GCC\CM4F/port.c ****     uxCriticalNesting--;
 424:Generated_Source\PSoC6\pdl\rtos\FreeRTOS\9.0.0\Source\portable\GCC\CM4F/port.c ****     if( uxCriticalNesting == 0 )
 425:Generated_Source\PSoC6\pdl\rtos\FreeRTOS\9.0.0\Source\portable\GCC\CM4F/port.c ****     {
 426:Generated_Source\PSoC6\pdl\rtos\FreeRTOS\9.0.0\Source\portable\GCC\CM4F/port.c ****         portENABLE_INTERRUPTS();
 427:Generated_Source\PSoC6\pdl\rtos\FreeRTOS\9.0.0\Source\portable\GCC\CM4F/port.c ****     }
 428:Generated_Source\PSoC6\pdl\rtos\FreeRTOS\9.0.0\Source\portable\GCC\CM4F/port.c **** }
 429:Generated_Source\PSoC6\pdl\rtos\FreeRTOS\9.0.0\Source\portable\GCC\CM4F/port.c **** /*-----------------------------------------------------------*/
 430:Generated_Source\PSoC6\pdl\rtos\FreeRTOS\9.0.0\Source\portable\GCC\CM4F/port.c **** 
 431:Generated_Source\PSoC6\pdl\rtos\FreeRTOS\9.0.0\Source\portable\GCC\CM4F/port.c **** void xPortPendSVHandler( void )
 432:Generated_Source\PSoC6\pdl\rtos\FreeRTOS\9.0.0\Source\portable\GCC\CM4F/port.c **** {
 433:Generated_Source\PSoC6\pdl\rtos\FreeRTOS\9.0.0\Source\portable\GCC\CM4F/port.c ****     /* This is a naked function. */
 434:Generated_Source\PSoC6\pdl\rtos\FreeRTOS\9.0.0\Source\portable\GCC\CM4F/port.c **** 
 435:Generated_Source\PSoC6\pdl\rtos\FreeRTOS\9.0.0\Source\portable\GCC\CM4F/port.c ****     __asm volatile
 436:Generated_Source\PSoC6\pdl\rtos\FreeRTOS\9.0.0\Source\portable\GCC\CM4F/port.c ****     (
 437:Generated_Source\PSoC6\pdl\rtos\FreeRTOS\9.0.0\Source\portable\GCC\CM4F/port.c ****         " mrs r0, psp                        \n"
 438:Generated_Source\PSoC6\pdl\rtos\FreeRTOS\9.0.0\Source\portable\GCC\CM4F/port.c ****         " isb                                \n"
 439:Generated_Source\PSoC6\pdl\rtos\FreeRTOS\9.0.0\Source\portable\GCC\CM4F/port.c ****         "                                    \n"
 440:Generated_Source\PSoC6\pdl\rtos\FreeRTOS\9.0.0\Source\portable\GCC\CM4F/port.c ****         /* Get the location of the current TCB. */
 441:Generated_Source\PSoC6\pdl\rtos\FreeRTOS\9.0.0\Source\portable\GCC\CM4F/port.c ****         " ldr    r3, pxCurrentTCBConst       \n"
 442:Generated_Source\PSoC6\pdl\rtos\FreeRTOS\9.0.0\Source\portable\GCC\CM4F/port.c ****         " ldr    r2, [r3]                    \n"
 443:Generated_Source\PSoC6\pdl\rtos\FreeRTOS\9.0.0\Source\portable\GCC\CM4F/port.c ****         "                                    \n"
 444:Generated_Source\PSoC6\pdl\rtos\FreeRTOS\9.0.0\Source\portable\GCC\CM4F/port.c ****         /* Is the task using the FPU context?  If so, push high vfp registers. */
 445:Generated_Source\PSoC6\pdl\rtos\FreeRTOS\9.0.0\Source\portable\GCC\CM4F/port.c ****         " tst r14, #0x10                     \n"
 446:Generated_Source\PSoC6\pdl\rtos\FreeRTOS\9.0.0\Source\portable\GCC\CM4F/port.c ****         " it eq                              \n"
 447:Generated_Source\PSoC6\pdl\rtos\FreeRTOS\9.0.0\Source\portable\GCC\CM4F/port.c ****         " vstmdbeq r0!, {s16-s31}            \n"
 448:Generated_Source\PSoC6\pdl\rtos\FreeRTOS\9.0.0\Source\portable\GCC\CM4F/port.c ****         "                                    \n"
 449:Generated_Source\PSoC6\pdl\rtos\FreeRTOS\9.0.0\Source\portable\GCC\CM4F/port.c ****         /* Save the core registers. */
 450:Generated_Source\PSoC6\pdl\rtos\FreeRTOS\9.0.0\Source\portable\GCC\CM4F/port.c ****         " stmdb r0!, {r4-r11, r14}           \n" 
 451:Generated_Source\PSoC6\pdl\rtos\FreeRTOS\9.0.0\Source\portable\GCC\CM4F/port.c ****         "                                    \n"
 452:Generated_Source\PSoC6\pdl\rtos\FreeRTOS\9.0.0\Source\portable\GCC\CM4F/port.c ****         /* Save the new top of stack into the first member of the TCB. */
 453:Generated_Source\PSoC6\pdl\rtos\FreeRTOS\9.0.0\Source\portable\GCC\CM4F/port.c ****         " str r0, [r2]                       \n"
 454:Generated_Source\PSoC6\pdl\rtos\FreeRTOS\9.0.0\Source\portable\GCC\CM4F/port.c ****         "                                    \n"
 455:Generated_Source\PSoC6\pdl\rtos\FreeRTOS\9.0.0\Source\portable\GCC\CM4F/port.c ****         " stmdb sp!, {r3}                    \n"
 456:Generated_Source\PSoC6\pdl\rtos\FreeRTOS\9.0.0\Source\portable\GCC\CM4F/port.c ****         " mov r0, %0                         \n"
 457:Generated_Source\PSoC6\pdl\rtos\FreeRTOS\9.0.0\Source\portable\GCC\CM4F/port.c ****         " msr basepri, r0                    \n"
 458:Generated_Source\PSoC6\pdl\rtos\FreeRTOS\9.0.0\Source\portable\GCC\CM4F/port.c ****         " dsb                                \n"
 459:Generated_Source\PSoC6\pdl\rtos\FreeRTOS\9.0.0\Source\portable\GCC\CM4F/port.c ****         " isb                                \n"
 460:Generated_Source\PSoC6\pdl\rtos\FreeRTOS\9.0.0\Source\portable\GCC\CM4F/port.c ****         " bl vTaskSwitchContext              \n"
 461:Generated_Source\PSoC6\pdl\rtos\FreeRTOS\9.0.0\Source\portable\GCC\CM4F/port.c ****         " mov r0, #0                         \n"
 462:Generated_Source\PSoC6\pdl\rtos\FreeRTOS\9.0.0\Source\portable\GCC\CM4F/port.c ****         " msr basepri, r0                    \n"
 463:Generated_Source\PSoC6\pdl\rtos\FreeRTOS\9.0.0\Source\portable\GCC\CM4F/port.c ****         " ldmia sp!, {r3}                    \n"
 464:Generated_Source\PSoC6\pdl\rtos\FreeRTOS\9.0.0\Source\portable\GCC\CM4F/port.c ****         "                                    \n"
 465:Generated_Source\PSoC6\pdl\rtos\FreeRTOS\9.0.0\Source\portable\GCC\CM4F/port.c ****         /* The first item in pxCurrentTCB is the task top of stack. */
 466:Generated_Source\PSoC6\pdl\rtos\FreeRTOS\9.0.0\Source\portable\GCC\CM4F/port.c ****         " ldr r1, [r3]                       \n"
ARM GAS  C:\Users\Agentos\AppData\Local\Temp\ccomwea8.s 			page 11


 467:Generated_Source\PSoC6\pdl\rtos\FreeRTOS\9.0.0\Source\portable\GCC\CM4F/port.c ****         " ldr r0, [r1]                       \n"
 468:Generated_Source\PSoC6\pdl\rtos\FreeRTOS\9.0.0\Source\portable\GCC\CM4F/port.c ****         "                                    \n"
 469:Generated_Source\PSoC6\pdl\rtos\FreeRTOS\9.0.0\Source\portable\GCC\CM4F/port.c ****         /* Pop the core registers. */
 470:Generated_Source\PSoC6\pdl\rtos\FreeRTOS\9.0.0\Source\portable\GCC\CM4F/port.c ****         " ldmia r0!, {r4-r11, r14}           \n" 
 471:Generated_Source\PSoC6\pdl\rtos\FreeRTOS\9.0.0\Source\portable\GCC\CM4F/port.c ****         "                                    \n"
 472:Generated_Source\PSoC6\pdl\rtos\FreeRTOS\9.0.0\Source\portable\GCC\CM4F/port.c ****         /* Is the task using the FPU context?  If so, pop the high vfp registers too. */
 473:Generated_Source\PSoC6\pdl\rtos\FreeRTOS\9.0.0\Source\portable\GCC\CM4F/port.c ****         " tst r14, #0x10                     \n"
 474:Generated_Source\PSoC6\pdl\rtos\FreeRTOS\9.0.0\Source\portable\GCC\CM4F/port.c ****         " it eq                              \n"
 475:Generated_Source\PSoC6\pdl\rtos\FreeRTOS\9.0.0\Source\portable\GCC\CM4F/port.c ****         " vldmiaeq r0!, {s16-s31}            \n"
 476:Generated_Source\PSoC6\pdl\rtos\FreeRTOS\9.0.0\Source\portable\GCC\CM4F/port.c ****         "                                    \n"
 477:Generated_Source\PSoC6\pdl\rtos\FreeRTOS\9.0.0\Source\portable\GCC\CM4F/port.c ****         " msr psp, r0                        \n"
 478:Generated_Source\PSoC6\pdl\rtos\FreeRTOS\9.0.0\Source\portable\GCC\CM4F/port.c ****         " isb                                \n"
 479:Generated_Source\PSoC6\pdl\rtos\FreeRTOS\9.0.0\Source\portable\GCC\CM4F/port.c ****         " bx r14                             \n"
 480:Generated_Source\PSoC6\pdl\rtos\FreeRTOS\9.0.0\Source\portable\GCC\CM4F/port.c ****         "                                    \n"
 481:Generated_Source\PSoC6\pdl\rtos\FreeRTOS\9.0.0\Source\portable\GCC\CM4F/port.c ****         " .align 4                           \n"
 482:Generated_Source\PSoC6\pdl\rtos\FreeRTOS\9.0.0\Source\portable\GCC\CM4F/port.c ****         "pxCurrentTCBConst: .word pxCurrentTCB \n"
 483:Generated_Source\PSoC6\pdl\rtos\FreeRTOS\9.0.0\Source\portable\GCC\CM4F/port.c ****     ::"i"(configMAX_SYSCALL_INTERRUPT_PRIORITY)
 484:Generated_Source\PSoC6\pdl\rtos\FreeRTOS\9.0.0\Source\portable\GCC\CM4F/port.c ****     );
 485:Generated_Source\PSoC6\pdl\rtos\FreeRTOS\9.0.0\Source\portable\GCC\CM4F/port.c **** }
 486:Generated_Source\PSoC6\pdl\rtos\FreeRTOS\9.0.0\Source\portable\GCC\CM4F/port.c **** /*-----------------------------------------------------------*/
 487:Generated_Source\PSoC6\pdl\rtos\FreeRTOS\9.0.0\Source\portable\GCC\CM4F/port.c **** 
 488:Generated_Source\PSoC6\pdl\rtos\FreeRTOS\9.0.0\Source\portable\GCC\CM4F/port.c **** void xPortSysTickHandler( void )
 489:Generated_Source\PSoC6\pdl\rtos\FreeRTOS\9.0.0\Source\portable\GCC\CM4F/port.c **** {
 490:Generated_Source\PSoC6\pdl\rtos\FreeRTOS\9.0.0\Source\portable\GCC\CM4F/port.c ****     /* The SysTick runs at the lowest interrupt priority, so when this interrupt
 491:Generated_Source\PSoC6\pdl\rtos\FreeRTOS\9.0.0\Source\portable\GCC\CM4F/port.c ****     executes all interrupts must be unmasked.  There is therefore no need to
 492:Generated_Source\PSoC6\pdl\rtos\FreeRTOS\9.0.0\Source\portable\GCC\CM4F/port.c ****     save and then restore the interrupt mask value as its value is already
 493:Generated_Source\PSoC6\pdl\rtos\FreeRTOS\9.0.0\Source\portable\GCC\CM4F/port.c ****     known. */
 494:Generated_Source\PSoC6\pdl\rtos\FreeRTOS\9.0.0\Source\portable\GCC\CM4F/port.c ****     portDISABLE_INTERRUPTS();
 495:Generated_Source\PSoC6\pdl\rtos\FreeRTOS\9.0.0\Source\portable\GCC\CM4F/port.c ****     {
 496:Generated_Source\PSoC6\pdl\rtos\FreeRTOS\9.0.0\Source\portable\GCC\CM4F/port.c ****         /* Increment the RTOS tick. */
 497:Generated_Source\PSoC6\pdl\rtos\FreeRTOS\9.0.0\Source\portable\GCC\CM4F/port.c ****         if( xTaskIncrementTick() != pdFALSE )
 498:Generated_Source\PSoC6\pdl\rtos\FreeRTOS\9.0.0\Source\portable\GCC\CM4F/port.c ****         {
 499:Generated_Source\PSoC6\pdl\rtos\FreeRTOS\9.0.0\Source\portable\GCC\CM4F/port.c ****             /* A context switch is required.  Context switching is performed in
 500:Generated_Source\PSoC6\pdl\rtos\FreeRTOS\9.0.0\Source\portable\GCC\CM4F/port.c ****             the PendSV interrupt.  Pend the PendSV interrupt. */
 501:Generated_Source\PSoC6\pdl\rtos\FreeRTOS\9.0.0\Source\portable\GCC\CM4F/port.c ****             portNVIC_INT_CTRL_REG = portNVIC_PENDSVSET_BIT;
 502:Generated_Source\PSoC6\pdl\rtos\FreeRTOS\9.0.0\Source\portable\GCC\CM4F/port.c ****         }
 503:Generated_Source\PSoC6\pdl\rtos\FreeRTOS\9.0.0\Source\portable\GCC\CM4F/port.c ****     }
 504:Generated_Source\PSoC6\pdl\rtos\FreeRTOS\9.0.0\Source\portable\GCC\CM4F/port.c ****     portENABLE_INTERRUPTS();
 505:Generated_Source\PSoC6\pdl\rtos\FreeRTOS\9.0.0\Source\portable\GCC\CM4F/port.c **** }
 506:Generated_Source\PSoC6\pdl\rtos\FreeRTOS\9.0.0\Source\portable\GCC\CM4F/port.c **** /*-----------------------------------------------------------*/
 507:Generated_Source\PSoC6\pdl\rtos\FreeRTOS\9.0.0\Source\portable\GCC\CM4F/port.c **** 
 508:Generated_Source\PSoC6\pdl\rtos\FreeRTOS\9.0.0\Source\portable\GCC\CM4F/port.c **** #if configUSE_TICKLESS_IDLE == 1
 509:Generated_Source\PSoC6\pdl\rtos\FreeRTOS\9.0.0\Source\portable\GCC\CM4F/port.c **** 
 510:Generated_Source\PSoC6\pdl\rtos\FreeRTOS\9.0.0\Source\portable\GCC\CM4F/port.c ****     __attribute__((weak)) void vPortSuppressTicksAndSleep( TickType_t xExpectedIdleTime )
 511:Generated_Source\PSoC6\pdl\rtos\FreeRTOS\9.0.0\Source\portable\GCC\CM4F/port.c ****     {
 512:Generated_Source\PSoC6\pdl\rtos\FreeRTOS\9.0.0\Source\portable\GCC\CM4F/port.c ****     uint32_t ulReloadValue, ulCompleteTickPeriods, ulCompletedSysTickDecrements, ulSysTickCTRL;
 513:Generated_Source\PSoC6\pdl\rtos\FreeRTOS\9.0.0\Source\portable\GCC\CM4F/port.c ****     TickType_t xModifiableIdleTime;
 514:Generated_Source\PSoC6\pdl\rtos\FreeRTOS\9.0.0\Source\portable\GCC\CM4F/port.c **** 
 515:Generated_Source\PSoC6\pdl\rtos\FreeRTOS\9.0.0\Source\portable\GCC\CM4F/port.c ****         /* Make sure the SysTick reload value does not overflow the counter. */
 516:Generated_Source\PSoC6\pdl\rtos\FreeRTOS\9.0.0\Source\portable\GCC\CM4F/port.c ****         if( xExpectedIdleTime > xMaximumPossibleSuppressedTicks )
 517:Generated_Source\PSoC6\pdl\rtos\FreeRTOS\9.0.0\Source\portable\GCC\CM4F/port.c ****         {
 518:Generated_Source\PSoC6\pdl\rtos\FreeRTOS\9.0.0\Source\portable\GCC\CM4F/port.c ****             xExpectedIdleTime = xMaximumPossibleSuppressedTicks;
 519:Generated_Source\PSoC6\pdl\rtos\FreeRTOS\9.0.0\Source\portable\GCC\CM4F/port.c ****         }
 520:Generated_Source\PSoC6\pdl\rtos\FreeRTOS\9.0.0\Source\portable\GCC\CM4F/port.c **** 
 521:Generated_Source\PSoC6\pdl\rtos\FreeRTOS\9.0.0\Source\portable\GCC\CM4F/port.c ****         /* Stop the SysTick momentarily.  The time the SysTick is stopped for
 522:Generated_Source\PSoC6\pdl\rtos\FreeRTOS\9.0.0\Source\portable\GCC\CM4F/port.c ****         is accounted for as best it can be, but using the tickless mode will
 523:Generated_Source\PSoC6\pdl\rtos\FreeRTOS\9.0.0\Source\portable\GCC\CM4F/port.c ****         inevitably result in some tiny drift of the time maintained by the
ARM GAS  C:\Users\Agentos\AppData\Local\Temp\ccomwea8.s 			page 12


 524:Generated_Source\PSoC6\pdl\rtos\FreeRTOS\9.0.0\Source\portable\GCC\CM4F/port.c ****         kernel with respect to calendar time. */
 525:Generated_Source\PSoC6\pdl\rtos\FreeRTOS\9.0.0\Source\portable\GCC\CM4F/port.c ****         portNVIC_SYSTICK_CTRL_REG &= ~portNVIC_SYSTICK_ENABLE_BIT;
 526:Generated_Source\PSoC6\pdl\rtos\FreeRTOS\9.0.0\Source\portable\GCC\CM4F/port.c **** 
 527:Generated_Source\PSoC6\pdl\rtos\FreeRTOS\9.0.0\Source\portable\GCC\CM4F/port.c ****         /* Calculate the reload value required to wait xExpectedIdleTime
 528:Generated_Source\PSoC6\pdl\rtos\FreeRTOS\9.0.0\Source\portable\GCC\CM4F/port.c ****         tick periods.  -1 is used because this code will execute part way
 529:Generated_Source\PSoC6\pdl\rtos\FreeRTOS\9.0.0\Source\portable\GCC\CM4F/port.c ****         through one of the tick periods. */
 530:Generated_Source\PSoC6\pdl\rtos\FreeRTOS\9.0.0\Source\portable\GCC\CM4F/port.c ****         ulReloadValue = portNVIC_SYSTICK_CURRENT_VALUE_REG + ( ulTimerCountsForOneTick * ( xExpecte
 531:Generated_Source\PSoC6\pdl\rtos\FreeRTOS\9.0.0\Source\portable\GCC\CM4F/port.c ****         if( ulReloadValue > ulStoppedTimerCompensation )
 532:Generated_Source\PSoC6\pdl\rtos\FreeRTOS\9.0.0\Source\portable\GCC\CM4F/port.c ****         {
 533:Generated_Source\PSoC6\pdl\rtos\FreeRTOS\9.0.0\Source\portable\GCC\CM4F/port.c ****             ulReloadValue -= ulStoppedTimerCompensation;
 534:Generated_Source\PSoC6\pdl\rtos\FreeRTOS\9.0.0\Source\portable\GCC\CM4F/port.c ****         }
 535:Generated_Source\PSoC6\pdl\rtos\FreeRTOS\9.0.0\Source\portable\GCC\CM4F/port.c **** 
 536:Generated_Source\PSoC6\pdl\rtos\FreeRTOS\9.0.0\Source\portable\GCC\CM4F/port.c ****         /* Enter a critical section but don't use the taskENTER_CRITICAL()
 537:Generated_Source\PSoC6\pdl\rtos\FreeRTOS\9.0.0\Source\portable\GCC\CM4F/port.c ****         method as that will mask interrupts that should exit sleep mode. */
 538:Generated_Source\PSoC6\pdl\rtos\FreeRTOS\9.0.0\Source\portable\GCC\CM4F/port.c ****         __asm volatile( "cpsid i" );
 539:Generated_Source\PSoC6\pdl\rtos\FreeRTOS\9.0.0\Source\portable\GCC\CM4F/port.c ****         __asm volatile( "dsb" );
 540:Generated_Source\PSoC6\pdl\rtos\FreeRTOS\9.0.0\Source\portable\GCC\CM4F/port.c ****         __asm volatile( "isb" );
 541:Generated_Source\PSoC6\pdl\rtos\FreeRTOS\9.0.0\Source\portable\GCC\CM4F/port.c **** 
 542:Generated_Source\PSoC6\pdl\rtos\FreeRTOS\9.0.0\Source\portable\GCC\CM4F/port.c ****         /* If a context switch is pending or a task is waiting for the scheduler
 543:Generated_Source\PSoC6\pdl\rtos\FreeRTOS\9.0.0\Source\portable\GCC\CM4F/port.c ****         to be unsuspended then abandon the low power entry. */
 544:Generated_Source\PSoC6\pdl\rtos\FreeRTOS\9.0.0\Source\portable\GCC\CM4F/port.c ****         if( eTaskConfirmSleepModeStatus() == eAbortSleep )
 545:Generated_Source\PSoC6\pdl\rtos\FreeRTOS\9.0.0\Source\portable\GCC\CM4F/port.c ****         {
 546:Generated_Source\PSoC6\pdl\rtos\FreeRTOS\9.0.0\Source\portable\GCC\CM4F/port.c ****             /* Restart from whatever is left in the count register to complete
 547:Generated_Source\PSoC6\pdl\rtos\FreeRTOS\9.0.0\Source\portable\GCC\CM4F/port.c ****             this tick period. */
 548:Generated_Source\PSoC6\pdl\rtos\FreeRTOS\9.0.0\Source\portable\GCC\CM4F/port.c ****             portNVIC_SYSTICK_LOAD_REG = portNVIC_SYSTICK_CURRENT_VALUE_REG;
 549:Generated_Source\PSoC6\pdl\rtos\FreeRTOS\9.0.0\Source\portable\GCC\CM4F/port.c **** 
 550:Generated_Source\PSoC6\pdl\rtos\FreeRTOS\9.0.0\Source\portable\GCC\CM4F/port.c ****             /* Restart SysTick. */
 551:Generated_Source\PSoC6\pdl\rtos\FreeRTOS\9.0.0\Source\portable\GCC\CM4F/port.c ****             portNVIC_SYSTICK_CTRL_REG |= portNVIC_SYSTICK_ENABLE_BIT;
 552:Generated_Source\PSoC6\pdl\rtos\FreeRTOS\9.0.0\Source\portable\GCC\CM4F/port.c **** 
 553:Generated_Source\PSoC6\pdl\rtos\FreeRTOS\9.0.0\Source\portable\GCC\CM4F/port.c ****             /* Reset the reload register to the value required for normal tick
 554:Generated_Source\PSoC6\pdl\rtos\FreeRTOS\9.0.0\Source\portable\GCC\CM4F/port.c ****             periods. */
 555:Generated_Source\PSoC6\pdl\rtos\FreeRTOS\9.0.0\Source\portable\GCC\CM4F/port.c ****             portNVIC_SYSTICK_LOAD_REG = ulTimerCountsForOneTick - 1UL;
 556:Generated_Source\PSoC6\pdl\rtos\FreeRTOS\9.0.0\Source\portable\GCC\CM4F/port.c **** 
 557:Generated_Source\PSoC6\pdl\rtos\FreeRTOS\9.0.0\Source\portable\GCC\CM4F/port.c ****             /* Re-enable interrupts - see comments above the cpsid instruction()
 558:Generated_Source\PSoC6\pdl\rtos\FreeRTOS\9.0.0\Source\portable\GCC\CM4F/port.c ****             above. */
 559:Generated_Source\PSoC6\pdl\rtos\FreeRTOS\9.0.0\Source\portable\GCC\CM4F/port.c ****             __asm volatile( "cpsie i" );
 560:Generated_Source\PSoC6\pdl\rtos\FreeRTOS\9.0.0\Source\portable\GCC\CM4F/port.c ****         }
 561:Generated_Source\PSoC6\pdl\rtos\FreeRTOS\9.0.0\Source\portable\GCC\CM4F/port.c ****         else
 562:Generated_Source\PSoC6\pdl\rtos\FreeRTOS\9.0.0\Source\portable\GCC\CM4F/port.c ****         {
 563:Generated_Source\PSoC6\pdl\rtos\FreeRTOS\9.0.0\Source\portable\GCC\CM4F/port.c ****             /* Set the new reload value. */
 564:Generated_Source\PSoC6\pdl\rtos\FreeRTOS\9.0.0\Source\portable\GCC\CM4F/port.c ****             portNVIC_SYSTICK_LOAD_REG = ulReloadValue;
 565:Generated_Source\PSoC6\pdl\rtos\FreeRTOS\9.0.0\Source\portable\GCC\CM4F/port.c **** 
 566:Generated_Source\PSoC6\pdl\rtos\FreeRTOS\9.0.0\Source\portable\GCC\CM4F/port.c ****             /* Clear the SysTick count flag and set the count value back to
 567:Generated_Source\PSoC6\pdl\rtos\FreeRTOS\9.0.0\Source\portable\GCC\CM4F/port.c ****             zero. */
 568:Generated_Source\PSoC6\pdl\rtos\FreeRTOS\9.0.0\Source\portable\GCC\CM4F/port.c ****             portNVIC_SYSTICK_CURRENT_VALUE_REG = 0UL;
 569:Generated_Source\PSoC6\pdl\rtos\FreeRTOS\9.0.0\Source\portable\GCC\CM4F/port.c **** 
 570:Generated_Source\PSoC6\pdl\rtos\FreeRTOS\9.0.0\Source\portable\GCC\CM4F/port.c ****             /* Restart SysTick. */
 571:Generated_Source\PSoC6\pdl\rtos\FreeRTOS\9.0.0\Source\portable\GCC\CM4F/port.c ****             portNVIC_SYSTICK_CTRL_REG |= portNVIC_SYSTICK_ENABLE_BIT;
 572:Generated_Source\PSoC6\pdl\rtos\FreeRTOS\9.0.0\Source\portable\GCC\CM4F/port.c **** 
 573:Generated_Source\PSoC6\pdl\rtos\FreeRTOS\9.0.0\Source\portable\GCC\CM4F/port.c ****             /* Sleep until something happens.  configPRE_SLEEP_PROCESSING() can
 574:Generated_Source\PSoC6\pdl\rtos\FreeRTOS\9.0.0\Source\portable\GCC\CM4F/port.c ****             set its parameter to 0 to indicate that its implementation contains
 575:Generated_Source\PSoC6\pdl\rtos\FreeRTOS\9.0.0\Source\portable\GCC\CM4F/port.c ****             its own wait for interrupt or wait for event instruction, and so wfi
 576:Generated_Source\PSoC6\pdl\rtos\FreeRTOS\9.0.0\Source\portable\GCC\CM4F/port.c ****             should not be executed again.  However, the original expected idle
 577:Generated_Source\PSoC6\pdl\rtos\FreeRTOS\9.0.0\Source\portable\GCC\CM4F/port.c ****             time variable must remain unmodified, so a copy is taken. */
 578:Generated_Source\PSoC6\pdl\rtos\FreeRTOS\9.0.0\Source\portable\GCC\CM4F/port.c ****             xModifiableIdleTime = xExpectedIdleTime;
 579:Generated_Source\PSoC6\pdl\rtos\FreeRTOS\9.0.0\Source\portable\GCC\CM4F/port.c ****             configPRE_SLEEP_PROCESSING( xModifiableIdleTime );
 580:Generated_Source\PSoC6\pdl\rtos\FreeRTOS\9.0.0\Source\portable\GCC\CM4F/port.c ****             if( xModifiableIdleTime > 0 )
ARM GAS  C:\Users\Agentos\AppData\Local\Temp\ccomwea8.s 			page 13


 581:Generated_Source\PSoC6\pdl\rtos\FreeRTOS\9.0.0\Source\portable\GCC\CM4F/port.c ****             {
 582:Generated_Source\PSoC6\pdl\rtos\FreeRTOS\9.0.0\Source\portable\GCC\CM4F/port.c ****                 __asm volatile( "dsb" );
 583:Generated_Source\PSoC6\pdl\rtos\FreeRTOS\9.0.0\Source\portable\GCC\CM4F/port.c ****                 __asm volatile( "wfi" );
 584:Generated_Source\PSoC6\pdl\rtos\FreeRTOS\9.0.0\Source\portable\GCC\CM4F/port.c ****                 __asm volatile( "isb" );
 585:Generated_Source\PSoC6\pdl\rtos\FreeRTOS\9.0.0\Source\portable\GCC\CM4F/port.c ****             }
 586:Generated_Source\PSoC6\pdl\rtos\FreeRTOS\9.0.0\Source\portable\GCC\CM4F/port.c ****             configPOST_SLEEP_PROCESSING( xExpectedIdleTime );
 587:Generated_Source\PSoC6\pdl\rtos\FreeRTOS\9.0.0\Source\portable\GCC\CM4F/port.c **** 
 588:Generated_Source\PSoC6\pdl\rtos\FreeRTOS\9.0.0\Source\portable\GCC\CM4F/port.c ****             /* Stop SysTick.  Again, the time the SysTick is stopped for is
 589:Generated_Source\PSoC6\pdl\rtos\FreeRTOS\9.0.0\Source\portable\GCC\CM4F/port.c ****             accounted for as best it can be, but using the tickless mode will
 590:Generated_Source\PSoC6\pdl\rtos\FreeRTOS\9.0.0\Source\portable\GCC\CM4F/port.c ****             inevitably result in some tiny drift of the time maintained by the
 591:Generated_Source\PSoC6\pdl\rtos\FreeRTOS\9.0.0\Source\portable\GCC\CM4F/port.c ****             kernel with respect to calendar time. */
 592:Generated_Source\PSoC6\pdl\rtos\FreeRTOS\9.0.0\Source\portable\GCC\CM4F/port.c ****             ulSysTickCTRL = portNVIC_SYSTICK_CTRL_REG;
 593:Generated_Source\PSoC6\pdl\rtos\FreeRTOS\9.0.0\Source\portable\GCC\CM4F/port.c ****             portNVIC_SYSTICK_CTRL_REG = ( ulSysTickCTRL & ~portNVIC_SYSTICK_ENABLE_BIT );
 594:Generated_Source\PSoC6\pdl\rtos\FreeRTOS\9.0.0\Source\portable\GCC\CM4F/port.c **** 
 595:Generated_Source\PSoC6\pdl\rtos\FreeRTOS\9.0.0\Source\portable\GCC\CM4F/port.c ****             /* Re-enable interrupts - see comments above the cpsid instruction()
 596:Generated_Source\PSoC6\pdl\rtos\FreeRTOS\9.0.0\Source\portable\GCC\CM4F/port.c ****             above. */
 597:Generated_Source\PSoC6\pdl\rtos\FreeRTOS\9.0.0\Source\portable\GCC\CM4F/port.c ****             __asm volatile( "cpsie i" );
 598:Generated_Source\PSoC6\pdl\rtos\FreeRTOS\9.0.0\Source\portable\GCC\CM4F/port.c **** 
 599:Generated_Source\PSoC6\pdl\rtos\FreeRTOS\9.0.0\Source\portable\GCC\CM4F/port.c ****             if( ( ulSysTickCTRL & portNVIC_SYSTICK_COUNT_FLAG_BIT ) != 0 )
 600:Generated_Source\PSoC6\pdl\rtos\FreeRTOS\9.0.0\Source\portable\GCC\CM4F/port.c ****             {
 601:Generated_Source\PSoC6\pdl\rtos\FreeRTOS\9.0.0\Source\portable\GCC\CM4F/port.c ****                 uint32_t ulCalculatedLoadValue;
 602:Generated_Source\PSoC6\pdl\rtos\FreeRTOS\9.0.0\Source\portable\GCC\CM4F/port.c **** 
 603:Generated_Source\PSoC6\pdl\rtos\FreeRTOS\9.0.0\Source\portable\GCC\CM4F/port.c ****                 /* The tick interrupt has already executed, and the SysTick
 604:Generated_Source\PSoC6\pdl\rtos\FreeRTOS\9.0.0\Source\portable\GCC\CM4F/port.c ****                 count reloaded with ulReloadValue.  Reset the
 605:Generated_Source\PSoC6\pdl\rtos\FreeRTOS\9.0.0\Source\portable\GCC\CM4F/port.c ****                 portNVIC_SYSTICK_LOAD_REG with whatever remains of this tick
 606:Generated_Source\PSoC6\pdl\rtos\FreeRTOS\9.0.0\Source\portable\GCC\CM4F/port.c ****                 period. */
 607:Generated_Source\PSoC6\pdl\rtos\FreeRTOS\9.0.0\Source\portable\GCC\CM4F/port.c ****                 ulCalculatedLoadValue = ( ulTimerCountsForOneTick - 1UL ) - ( ulReloadValue - portN
 608:Generated_Source\PSoC6\pdl\rtos\FreeRTOS\9.0.0\Source\portable\GCC\CM4F/port.c **** 
 609:Generated_Source\PSoC6\pdl\rtos\FreeRTOS\9.0.0\Source\portable\GCC\CM4F/port.c ****                 /* Don't allow a tiny value, or values that have somehow
 610:Generated_Source\PSoC6\pdl\rtos\FreeRTOS\9.0.0\Source\portable\GCC\CM4F/port.c ****                 underflowed because the post sleep hook did something
 611:Generated_Source\PSoC6\pdl\rtos\FreeRTOS\9.0.0\Source\portable\GCC\CM4F/port.c ****                 that took too long. */
 612:Generated_Source\PSoC6\pdl\rtos\FreeRTOS\9.0.0\Source\portable\GCC\CM4F/port.c ****                 if( ( ulCalculatedLoadValue < ulStoppedTimerCompensation ) || ( ulCalculatedLoadVal
 613:Generated_Source\PSoC6\pdl\rtos\FreeRTOS\9.0.0\Source\portable\GCC\CM4F/port.c ****                 {
 614:Generated_Source\PSoC6\pdl\rtos\FreeRTOS\9.0.0\Source\portable\GCC\CM4F/port.c ****                     ulCalculatedLoadValue = ( ulTimerCountsForOneTick - 1UL );
 615:Generated_Source\PSoC6\pdl\rtos\FreeRTOS\9.0.0\Source\portable\GCC\CM4F/port.c ****                 }
 616:Generated_Source\PSoC6\pdl\rtos\FreeRTOS\9.0.0\Source\portable\GCC\CM4F/port.c **** 
 617:Generated_Source\PSoC6\pdl\rtos\FreeRTOS\9.0.0\Source\portable\GCC\CM4F/port.c ****                 portNVIC_SYSTICK_LOAD_REG = ulCalculatedLoadValue;
 618:Generated_Source\PSoC6\pdl\rtos\FreeRTOS\9.0.0\Source\portable\GCC\CM4F/port.c **** 
 619:Generated_Source\PSoC6\pdl\rtos\FreeRTOS\9.0.0\Source\portable\GCC\CM4F/port.c ****                 /* The tick interrupt handler will already have pended the tick
 620:Generated_Source\PSoC6\pdl\rtos\FreeRTOS\9.0.0\Source\portable\GCC\CM4F/port.c ****                 processing in the kernel.  As the pending tick will be
 621:Generated_Source\PSoC6\pdl\rtos\FreeRTOS\9.0.0\Source\portable\GCC\CM4F/port.c ****                 processed as soon as this function exits, the tick value
 622:Generated_Source\PSoC6\pdl\rtos\FreeRTOS\9.0.0\Source\portable\GCC\CM4F/port.c ****                 maintained by the tick is stepped forward by one less than the
 623:Generated_Source\PSoC6\pdl\rtos\FreeRTOS\9.0.0\Source\portable\GCC\CM4F/port.c ****                 time spent waiting. */
 624:Generated_Source\PSoC6\pdl\rtos\FreeRTOS\9.0.0\Source\portable\GCC\CM4F/port.c ****                 ulCompleteTickPeriods = xExpectedIdleTime - 1UL;
 625:Generated_Source\PSoC6\pdl\rtos\FreeRTOS\9.0.0\Source\portable\GCC\CM4F/port.c ****             }
 626:Generated_Source\PSoC6\pdl\rtos\FreeRTOS\9.0.0\Source\portable\GCC\CM4F/port.c ****             else
 627:Generated_Source\PSoC6\pdl\rtos\FreeRTOS\9.0.0\Source\portable\GCC\CM4F/port.c ****             {
 628:Generated_Source\PSoC6\pdl\rtos\FreeRTOS\9.0.0\Source\portable\GCC\CM4F/port.c ****                 /* Something other than the tick interrupt ended the sleep.
 629:Generated_Source\PSoC6\pdl\rtos\FreeRTOS\9.0.0\Source\portable\GCC\CM4F/port.c ****                 Work out how long the sleep lasted rounded to complete tick
 630:Generated_Source\PSoC6\pdl\rtos\FreeRTOS\9.0.0\Source\portable\GCC\CM4F/port.c ****                 periods (not the ulReload value which accounted for part
 631:Generated_Source\PSoC6\pdl\rtos\FreeRTOS\9.0.0\Source\portable\GCC\CM4F/port.c ****                 ticks). */
 632:Generated_Source\PSoC6\pdl\rtos\FreeRTOS\9.0.0\Source\portable\GCC\CM4F/port.c ****                 ulCompletedSysTickDecrements = ( xExpectedIdleTime * ulTimerCountsForOneTick ) - po
 633:Generated_Source\PSoC6\pdl\rtos\FreeRTOS\9.0.0\Source\portable\GCC\CM4F/port.c **** 
 634:Generated_Source\PSoC6\pdl\rtos\FreeRTOS\9.0.0\Source\portable\GCC\CM4F/port.c ****                 /* How many complete tick periods passed while the processor
 635:Generated_Source\PSoC6\pdl\rtos\FreeRTOS\9.0.0\Source\portable\GCC\CM4F/port.c ****                 was waiting? */
 636:Generated_Source\PSoC6\pdl\rtos\FreeRTOS\9.0.0\Source\portable\GCC\CM4F/port.c ****                 ulCompleteTickPeriods = ulCompletedSysTickDecrements / ulTimerCountsForOneTick;
 637:Generated_Source\PSoC6\pdl\rtos\FreeRTOS\9.0.0\Source\portable\GCC\CM4F/port.c **** 
ARM GAS  C:\Users\Agentos\AppData\Local\Temp\ccomwea8.s 			page 14


 638:Generated_Source\PSoC6\pdl\rtos\FreeRTOS\9.0.0\Source\portable\GCC\CM4F/port.c ****                 /* The reload value is set to whatever fraction of a single tick
 639:Generated_Source\PSoC6\pdl\rtos\FreeRTOS\9.0.0\Source\portable\GCC\CM4F/port.c ****                 period remains. */
 640:Generated_Source\PSoC6\pdl\rtos\FreeRTOS\9.0.0\Source\portable\GCC\CM4F/port.c ****                 portNVIC_SYSTICK_LOAD_REG = ( ( ulCompleteTickPeriods + 1UL ) * ulTimerCountsForOne
 641:Generated_Source\PSoC6\pdl\rtos\FreeRTOS\9.0.0\Source\portable\GCC\CM4F/port.c ****             }
 642:Generated_Source\PSoC6\pdl\rtos\FreeRTOS\9.0.0\Source\portable\GCC\CM4F/port.c **** 
 643:Generated_Source\PSoC6\pdl\rtos\FreeRTOS\9.0.0\Source\portable\GCC\CM4F/port.c ****             /* Restart SysTick so it runs from portNVIC_SYSTICK_LOAD_REG
 644:Generated_Source\PSoC6\pdl\rtos\FreeRTOS\9.0.0\Source\portable\GCC\CM4F/port.c ****             again, then set portNVIC_SYSTICK_LOAD_REG back to its standard
 645:Generated_Source\PSoC6\pdl\rtos\FreeRTOS\9.0.0\Source\portable\GCC\CM4F/port.c ****             value.  The critical section is used to ensure the tick interrupt
 646:Generated_Source\PSoC6\pdl\rtos\FreeRTOS\9.0.0\Source\portable\GCC\CM4F/port.c ****             can only execute once in the case that the reload register is near
 647:Generated_Source\PSoC6\pdl\rtos\FreeRTOS\9.0.0\Source\portable\GCC\CM4F/port.c ****             zero. */
 648:Generated_Source\PSoC6\pdl\rtos\FreeRTOS\9.0.0\Source\portable\GCC\CM4F/port.c ****             portNVIC_SYSTICK_CURRENT_VALUE_REG = 0UL;
 649:Generated_Source\PSoC6\pdl\rtos\FreeRTOS\9.0.0\Source\portable\GCC\CM4F/port.c ****             portENTER_CRITICAL();
 650:Generated_Source\PSoC6\pdl\rtos\FreeRTOS\9.0.0\Source\portable\GCC\CM4F/port.c ****             {
 651:Generated_Source\PSoC6\pdl\rtos\FreeRTOS\9.0.0\Source\portable\GCC\CM4F/port.c ****                 portNVIC_SYSTICK_CTRL_REG |= portNVIC_SYSTICK_ENABLE_BIT;
 652:Generated_Source\PSoC6\pdl\rtos\FreeRTOS\9.0.0\Source\portable\GCC\CM4F/port.c ****                 vTaskStepTick( ulCompleteTickPeriods );
 653:Generated_Source\PSoC6\pdl\rtos\FreeRTOS\9.0.0\Source\portable\GCC\CM4F/port.c ****                 portNVIC_SYSTICK_LOAD_REG = ulTimerCountsForOneTick - 1UL;
 654:Generated_Source\PSoC6\pdl\rtos\FreeRTOS\9.0.0\Source\portable\GCC\CM4F/port.c ****             }
 655:Generated_Source\PSoC6\pdl\rtos\FreeRTOS\9.0.0\Source\portable\GCC\CM4F/port.c ****             portEXIT_CRITICAL();
 656:Generated_Source\PSoC6\pdl\rtos\FreeRTOS\9.0.0\Source\portable\GCC\CM4F/port.c ****         }
 657:Generated_Source\PSoC6\pdl\rtos\FreeRTOS\9.0.0\Source\portable\GCC\CM4F/port.c ****     }
 658:Generated_Source\PSoC6\pdl\rtos\FreeRTOS\9.0.0\Source\portable\GCC\CM4F/port.c **** 
 659:Generated_Source\PSoC6\pdl\rtos\FreeRTOS\9.0.0\Source\portable\GCC\CM4F/port.c **** #endif /* #if configUSE_TICKLESS_IDLE */
 660:Generated_Source\PSoC6\pdl\rtos\FreeRTOS\9.0.0\Source\portable\GCC\CM4F/port.c **** /*-----------------------------------------------------------*/
 661:Generated_Source\PSoC6\pdl\rtos\FreeRTOS\9.0.0\Source\portable\GCC\CM4F/port.c **** 
 662:Generated_Source\PSoC6\pdl\rtos\FreeRTOS\9.0.0\Source\portable\GCC\CM4F/port.c **** /*
 663:Generated_Source\PSoC6\pdl\rtos\FreeRTOS\9.0.0\Source\portable\GCC\CM4F/port.c ****  * Setup the systick timer to generate the tick interrupts at the required
 664:Generated_Source\PSoC6\pdl\rtos\FreeRTOS\9.0.0\Source\portable\GCC\CM4F/port.c ****  * frequency.
 665:Generated_Source\PSoC6\pdl\rtos\FreeRTOS\9.0.0\Source\portable\GCC\CM4F/port.c ****  */
 666:Generated_Source\PSoC6\pdl\rtos\FreeRTOS\9.0.0\Source\portable\GCC\CM4F/port.c **** __attribute__(( weak )) void vPortSetupTimerInterrupt( void )
 667:Generated_Source\PSoC6\pdl\rtos\FreeRTOS\9.0.0\Source\portable\GCC\CM4F/port.c **** {
 668:Generated_Source\PSoC6\pdl\rtos\FreeRTOS\9.0.0\Source\portable\GCC\CM4F/port.c ****     /* Calculate the constants required to configure the tick interrupt. */
 669:Generated_Source\PSoC6\pdl\rtos\FreeRTOS\9.0.0\Source\portable\GCC\CM4F/port.c ****     #if( configUSE_TICKLESS_IDLE == 1 )
 670:Generated_Source\PSoC6\pdl\rtos\FreeRTOS\9.0.0\Source\portable\GCC\CM4F/port.c ****     {
 671:Generated_Source\PSoC6\pdl\rtos\FreeRTOS\9.0.0\Source\portable\GCC\CM4F/port.c ****         ulTimerCountsForOneTick = ( configSYSTICK_CLOCK_HZ / configTICK_RATE_HZ );
 672:Generated_Source\PSoC6\pdl\rtos\FreeRTOS\9.0.0\Source\portable\GCC\CM4F/port.c ****         xMaximumPossibleSuppressedTicks = portMAX_24_BIT_NUMBER / ulTimerCountsForOneTick;
 673:Generated_Source\PSoC6\pdl\rtos\FreeRTOS\9.0.0\Source\portable\GCC\CM4F/port.c ****         ulStoppedTimerCompensation = portMISSED_COUNTS_FACTOR / ( configCPU_CLOCK_HZ / configSYSTIC
 674:Generated_Source\PSoC6\pdl\rtos\FreeRTOS\9.0.0\Source\portable\GCC\CM4F/port.c ****     }
 675:Generated_Source\PSoC6\pdl\rtos\FreeRTOS\9.0.0\Source\portable\GCC\CM4F/port.c ****     #endif /* configUSE_TICKLESS_IDLE */
 676:Generated_Source\PSoC6\pdl\rtos\FreeRTOS\9.0.0\Source\portable\GCC\CM4F/port.c **** 
 677:Generated_Source\PSoC6\pdl\rtos\FreeRTOS\9.0.0\Source\portable\GCC\CM4F/port.c ****     /* Configure SysTick to interrupt at the requested rate. */
 678:Generated_Source\PSoC6\pdl\rtos\FreeRTOS\9.0.0\Source\portable\GCC\CM4F/port.c ****     portNVIC_SYSTICK_LOAD_REG = ( configSYSTICK_CLOCK_HZ / configTICK_RATE_HZ ) - 1UL;
 679:Generated_Source\PSoC6\pdl\rtos\FreeRTOS\9.0.0\Source\portable\GCC\CM4F/port.c ****     portNVIC_SYSTICK_CTRL_REG = ( portNVIC_SYSTICK_CLK_BIT | portNVIC_SYSTICK_INT_BIT | portNVIC_SY
 680:Generated_Source\PSoC6\pdl\rtos\FreeRTOS\9.0.0\Source\portable\GCC\CM4F/port.c **** }
 681:Generated_Source\PSoC6\pdl\rtos\FreeRTOS\9.0.0\Source\portable\GCC\CM4F/port.c **** /*-----------------------------------------------------------*/
 682:Generated_Source\PSoC6\pdl\rtos\FreeRTOS\9.0.0\Source\portable\GCC\CM4F/port.c **** 
 683:Generated_Source\PSoC6\pdl\rtos\FreeRTOS\9.0.0\Source\portable\GCC\CM4F/port.c **** /* This is a naked function. */
 684:Generated_Source\PSoC6\pdl\rtos\FreeRTOS\9.0.0\Source\portable\GCC\CM4F/port.c **** static void vPortEnableVFP( void )
 685:Generated_Source\PSoC6\pdl\rtos\FreeRTOS\9.0.0\Source\portable\GCC\CM4F/port.c **** {
 105              		.loc 1 685 0
 106              		.cfi_startproc
 107              		@ Naked Function: prologue and epilogue provided by programmer.
 108              		@ args = 0, pretend = 0, frame = 0
 109              		@ frame_needed = 0, uses_anonymous_args = 0
 686:Generated_Source\PSoC6\pdl\rtos\FreeRTOS\9.0.0\Source\portable\GCC\CM4F/port.c ****     __asm volatile
 110              		.loc 1 686 0
 111              		.syntax unified
 112              	@ 686 "Generated_Source\PSoC6\pdl\rtos\FreeRTOS\9.0.0\Source\portable\GCC\CM4F\port.c" 1
ARM GAS  C:\Users\Agentos\AppData\Local\Temp\ccomwea8.s 			page 15


 113 0000 DFF80C00 		 ldr.w r0, =0xE000ED88              
 114 0004 0168     	 ldr r1, [r0]                       
 115              	                                    
 116 0006 41F47001 	 orr r1, r1, #( 0xf << 20 )         
 117 000a 0160     	 str r1, [r0]                       
 118 000c 7047     	 bx r14                             
 119              	
 120              	@ 0 "" 2
 687:Generated_Source\PSoC6\pdl\rtos\FreeRTOS\9.0.0\Source\portable\GCC\CM4F/port.c ****     (
 688:Generated_Source\PSoC6\pdl\rtos\FreeRTOS\9.0.0\Source\portable\GCC\CM4F/port.c ****         /* The FPU enable bits are in the CPACR. */
 689:Generated_Source\PSoC6\pdl\rtos\FreeRTOS\9.0.0\Source\portable\GCC\CM4F/port.c ****         " ldr.w r0, =0xE000ED88              \n"
 690:Generated_Source\PSoC6\pdl\rtos\FreeRTOS\9.0.0\Source\portable\GCC\CM4F/port.c ****         " ldr r1, [r0]                       \n"
 691:Generated_Source\PSoC6\pdl\rtos\FreeRTOS\9.0.0\Source\portable\GCC\CM4F/port.c ****         "                                    \n"
 692:Generated_Source\PSoC6\pdl\rtos\FreeRTOS\9.0.0\Source\portable\GCC\CM4F/port.c ****         /* Enable CP10 and CP11 coprocessors, then save back. */
 693:Generated_Source\PSoC6\pdl\rtos\FreeRTOS\9.0.0\Source\portable\GCC\CM4F/port.c ****         " orr r1, r1, #( 0xf << 20 )         \n" 
 694:Generated_Source\PSoC6\pdl\rtos\FreeRTOS\9.0.0\Source\portable\GCC\CM4F/port.c ****         " str r1, [r0]                       \n"
 695:Generated_Source\PSoC6\pdl\rtos\FreeRTOS\9.0.0\Source\portable\GCC\CM4F/port.c ****         " bx r14                             \n"
 696:Generated_Source\PSoC6\pdl\rtos\FreeRTOS\9.0.0\Source\portable\GCC\CM4F/port.c ****     );
 697:Generated_Source\PSoC6\pdl\rtos\FreeRTOS\9.0.0\Source\portable\GCC\CM4F/port.c **** }
 121              		.loc 1 697 0
 122              		.thumb
 123              		.syntax unified
 124              		.cfi_endproc
 125              	.LFE528:
 126              		.size	vPortEnableVFP, .-vPortEnableVFP
 127 000e 0000     		.section	.text.pxPortInitialiseStack,"ax",%progbits
 128              		.align	2
 129              		.global	pxPortInitialiseStack
 130              		.thumb
 131              		.thumb_func
 132              		.type	pxPortInitialiseStack, %function
 133              	pxPortInitialiseStack:
 134              	.LFB517:
 224:Generated_Source\PSoC6\pdl\rtos\FreeRTOS\9.0.0\Source\portable\GCC\CM4F/port.c ****     /* Simulate the stack frame as it would be created by a context switch
 135              		.loc 1 224 0
 136              		.cfi_startproc
 137              		@ args = 0, pretend = 0, frame = 0
 138              		@ frame_needed = 0, uses_anonymous_args = 0
 139              		@ link register save eliminated.
 140              	.LVL0:
 232:Generated_Source\PSoC6\pdl\rtos\FreeRTOS\9.0.0\Source\portable\GCC\CM4F/port.c ****     pxTopOfStack--;
 141              		.loc 1 232 0
 142 0000 4FF08073 		mov	r3, #16777216
 143 0004 40F8043C 		str	r3, [r0, #-4]
 144              	.LVL1:
 234:Generated_Source\PSoC6\pdl\rtos\FreeRTOS\9.0.0\Source\portable\GCC\CM4F/port.c ****     pxTopOfStack--;
 145              		.loc 1 234 0
 146 0008 21F00101 		bic	r1, r1, #1
 147              	.LVL2:
 148 000c 40F8081C 		str	r1, [r0, #-8]
 149              	.LVL3:
 236:Generated_Source\PSoC6\pdl\rtos\FreeRTOS\9.0.0\Source\portable\GCC\CM4F/port.c **** 
 150              		.loc 1 236 0
 151 0010 054B     		ldr	r3, .L10
 152 0012 40F80C3C 		str	r3, [r0, #-12]
 153              	.LVL4:
 240:Generated_Source\PSoC6\pdl\rtos\FreeRTOS\9.0.0\Source\portable\GCC\CM4F/port.c **** 
ARM GAS  C:\Users\Agentos\AppData\Local\Temp\ccomwea8.s 			page 16


 154              		.loc 1 240 0
 155 0016 40F8202C 		str	r2, [r0, #-32]
 156              	.LVL5:
 245:Generated_Source\PSoC6\pdl\rtos\FreeRTOS\9.0.0\Source\portable\GCC\CM4F/port.c **** 
 157              		.loc 1 245 0
 158 001a 6FF00203 		mvn	r3, #2
 159 001e 40F8243C 		str	r3, [r0, #-36]
 160              	.LVL6:
 250:Generated_Source\PSoC6\pdl\rtos\FreeRTOS\9.0.0\Source\portable\GCC\CM4F/port.c **** /*-----------------------------------------------------------*/
 161              		.loc 1 250 0
 162 0022 4438     		subs	r0, r0, #68
 163              	.LVL7:
 164 0024 7047     		bx	lr
 165              	.L11:
 166 0026 00BF     		.align	2
 167              	.L10:
 168 0028 00000000 		.word	prvTaskExitError
 169              		.cfi_endproc
 170              	.LFE517:
 171              		.size	pxPortInitialiseStack, .-pxPortInitialiseStack
 172              		.section	.text.SVC_Handler,"ax",%progbits
 173              		.align	2
 174              		.global	SVC_Handler
 175              		.thumb
 176              		.thumb_func
 177              		.type	SVC_Handler, %function
 178              	SVC_Handler:
 179              	.LFB519:
 268:Generated_Source\PSoC6\pdl\rtos\FreeRTOS\9.0.0\Source\portable\GCC\CM4F/port.c ****     __asm volatile (
 180              		.loc 1 268 0
 181              		.cfi_startproc
 182              		@ Naked Function: prologue and epilogue provided by programmer.
 183              		@ args = 0, pretend = 0, frame = 0
 184              		@ frame_needed = 0, uses_anonymous_args = 0
 269:Generated_Source\PSoC6\pdl\rtos\FreeRTOS\9.0.0\Source\portable\GCC\CM4F/port.c ****         /* Restore the context. */
 185              		.loc 1 269 0
 186              		.syntax unified
 187              	@ 269 "Generated_Source\PSoC6\pdl\rtos\FreeRTOS\9.0.0\Source\portable\GCC\CM4F\port.c" 1
 188 0000 074B     		 ldr    r3, pxCurrentTCBConst2      
 189 0002 1968     	 ldr r1, [r3]                       
 190 0004 0868     	 ldr r0, [r1]                       
 191 0006 B0E8F04F 	 ldmia r0!, {r4-r11, r14}           
 192 000a 80F30988 	 msr psp, r0                        
 193 000e BFF36F8F 	 isb                                
 194 0012 4FF00000 	 mov r0, #0                         
 195 0016 80F31188 	 msr basepri, r0                    
 196 001a 7047     	 bx r14                             
 197              	                                    
 198 001c AFF30080 	 .align 4                           
 199 0020 00000000 	pxCurrentTCBConst2: .word pxCurrentTCB 
 200              	
 201              	@ 0 "" 2
 290:Generated_Source\PSoC6\pdl\rtos\FreeRTOS\9.0.0\Source\portable\GCC\CM4F/port.c **** /*-----------------------------------------------------------*/
 202              		.loc 1 290 0
 203              		.thumb
 204              		.syntax unified
 205              		.cfi_endproc
ARM GAS  C:\Users\Agentos\AppData\Local\Temp\ccomwea8.s 			page 17


 206              	.LFE519:
 207              		.size	SVC_Handler, .-SVC_Handler
 208              		.section	.text.vPortEndScheduler,"ax",%progbits
 209              		.align	2
 210              		.global	vPortEndScheduler
 211              		.thumb
 212              		.thumb_func
 213              		.type	vPortEndScheduler, %function
 214              	vPortEndScheduler:
 215              	.LFB522:
 396:Generated_Source\PSoC6\pdl\rtos\FreeRTOS\9.0.0\Source\portable\GCC\CM4F/port.c ****     /* Not implemented in ports where there is nothing to return to.
 216              		.loc 1 396 0
 217              		.cfi_startproc
 218              		@ args = 0, pretend = 0, frame = 0
 219              		@ frame_needed = 0, uses_anonymous_args = 0
 220              		@ link register save eliminated.
 399:Generated_Source\PSoC6\pdl\rtos\FreeRTOS\9.0.0\Source\portable\GCC\CM4F/port.c **** }
 221              		.loc 1 399 0
 222 0000 034B     		ldr	r3, .L16
 223 0002 1B68     		ldr	r3, [r3]
 224 0004 B3F57A7F 		cmp	r3, #1000
 225 0008 01D0     		beq	.L13
 399:Generated_Source\PSoC6\pdl\rtos\FreeRTOS\9.0.0\Source\portable\GCC\CM4F/port.c **** }
 226              		.loc 1 399 0 is_stmt 0 discriminator 1
 227              		.syntax unified
 228              	@ 399 "Generated_Source\PSoC6\pdl\rtos\FreeRTOS\9.0.0\Source\portable\GCC\CM4F\port.c" 1
 229 000a 72B6     		 cpsid i 
 230              	@ 0 "" 2
 231              		.thumb
 232              		.syntax unified
 233              	.L15:
 234 000c FEE7     		b	.L15
 235              	.L13:
 236 000e 7047     		bx	lr
 237              	.L17:
 238              		.align	2
 239              	.L16:
 240 0010 00000000 		.word	.LANCHOR0
 241              		.cfi_endproc
 242              	.LFE522:
 243              		.size	vPortEndScheduler, .-vPortEndScheduler
 244              		.section	.text.vPortEnterCritical,"ax",%progbits
 245              		.align	2
 246              		.global	vPortEnterCritical
 247              		.thumb
 248              		.thumb_func
 249              		.type	vPortEnterCritical, %function
 250              	vPortEnterCritical:
 251              	.LFB523:
 404:Generated_Source\PSoC6\pdl\rtos\FreeRTOS\9.0.0\Source\portable\GCC\CM4F/port.c ****     portDISABLE_INTERRUPTS();
 252              		.loc 1 404 0 is_stmt 1
 253              		.cfi_startproc
 254              		@ args = 0, pretend = 0, frame = 0
 255              		@ frame_needed = 0, uses_anonymous_args = 0
 256              		@ link register save eliminated.
 405:Generated_Source\PSoC6\pdl\rtos\FreeRTOS\9.0.0\Source\portable\GCC\CM4F/port.c ****     uxCriticalNesting++;
 257              		.loc 1 405 0
ARM GAS  C:\Users\Agentos\AppData\Local\Temp\ccomwea8.s 			page 18


 258              		.syntax unified
 259              	@ 405 "Generated_Source\PSoC6\pdl\rtos\FreeRTOS\9.0.0\Source\portable\GCC\CM4F\port.c" 1
 260 0000 72B6     		 cpsid i 
 261              	@ 0 "" 2
 406:Generated_Source\PSoC6\pdl\rtos\FreeRTOS\9.0.0\Source\portable\GCC\CM4F/port.c **** 
 262              		.loc 1 406 0
 263              		.thumb
 264              		.syntax unified
 265 0002 074A     		ldr	r2, .L21
 266 0004 1368     		ldr	r3, [r2]
 267 0006 0133     		adds	r3, r3, #1
 268 0008 1360     		str	r3, [r2]
 413:Generated_Source\PSoC6\pdl\rtos\FreeRTOS\9.0.0\Source\portable\GCC\CM4F/port.c ****     {
 269              		.loc 1 413 0
 270 000a 012B     		cmp	r3, #1
 271 000c 06D1     		bne	.L18
 415:Generated_Source\PSoC6\pdl\rtos\FreeRTOS\9.0.0\Source\portable\GCC\CM4F/port.c ****     }
 272              		.loc 1 415 0
 273 000e 054B     		ldr	r3, .L21+4
 274 0010 1B68     		ldr	r3, [r3]
 275 0012 13F0FF0F 		tst	r3, #255
 276 0016 01D0     		beq	.L18
 415:Generated_Source\PSoC6\pdl\rtos\FreeRTOS\9.0.0\Source\portable\GCC\CM4F/port.c ****     }
 277              		.loc 1 415 0 is_stmt 0 discriminator 1
 278              		.syntax unified
 279              	@ 415 "Generated_Source\PSoC6\pdl\rtos\FreeRTOS\9.0.0\Source\portable\GCC\CM4F\port.c" 1
 280 0018 72B6     		 cpsid i 
 281              	@ 0 "" 2
 282              		.thumb
 283              		.syntax unified
 284              	.L20:
 285 001a FEE7     		b	.L20
 286              	.L18:
 287 001c 7047     		bx	lr
 288              	.L22:
 289 001e 00BF     		.align	2
 290              	.L21:
 291 0020 00000000 		.word	.LANCHOR0
 292 0024 04ED00E0 		.word	-536810236
 293              		.cfi_endproc
 294              	.LFE523:
 295              		.size	vPortEnterCritical, .-vPortEnterCritical
 296              		.section	.text.vPortExitCritical,"ax",%progbits
 297              		.align	2
 298              		.global	vPortExitCritical
 299              		.thumb
 300              		.thumb_func
 301              		.type	vPortExitCritical, %function
 302              	vPortExitCritical:
 303              	.LFB524:
 421:Generated_Source\PSoC6\pdl\rtos\FreeRTOS\9.0.0\Source\portable\GCC\CM4F/port.c ****     configASSERT( uxCriticalNesting );
 304              		.loc 1 421 0 is_stmt 1
 305              		.cfi_startproc
 306              		@ args = 0, pretend = 0, frame = 0
 307              		@ frame_needed = 0, uses_anonymous_args = 0
 308              		@ link register save eliminated.
 422:Generated_Source\PSoC6\pdl\rtos\FreeRTOS\9.0.0\Source\portable\GCC\CM4F/port.c ****     uxCriticalNesting--;
ARM GAS  C:\Users\Agentos\AppData\Local\Temp\ccomwea8.s 			page 19


 309              		.loc 1 422 0
 310 0000 054B     		ldr	r3, .L27
 311 0002 1B68     		ldr	r3, [r3]
 312 0004 0BB9     		cbnz	r3, .L24
 422:Generated_Source\PSoC6\pdl\rtos\FreeRTOS\9.0.0\Source\portable\GCC\CM4F/port.c ****     uxCriticalNesting--;
 313              		.loc 1 422 0 is_stmt 0 discriminator 1
 314              		.syntax unified
 315              	@ 422 "Generated_Source\PSoC6\pdl\rtos\FreeRTOS\9.0.0\Source\portable\GCC\CM4F\port.c" 1
 316 0006 72B6     		 cpsid i 
 317              	@ 0 "" 2
 318              		.thumb
 319              		.syntax unified
 320              	.L25:
 321 0008 FEE7     		b	.L25
 322              	.L24:
 423:Generated_Source\PSoC6\pdl\rtos\FreeRTOS\9.0.0\Source\portable\GCC\CM4F/port.c ****     if( uxCriticalNesting == 0 )
 323              		.loc 1 423 0 is_stmt 1
 324 000a 013B     		subs	r3, r3, #1
 325 000c 024A     		ldr	r2, .L27
 326 000e 1360     		str	r3, [r2]
 424:Generated_Source\PSoC6\pdl\rtos\FreeRTOS\9.0.0\Source\portable\GCC\CM4F/port.c ****     {
 327              		.loc 1 424 0
 328 0010 03B9     		cbnz	r3, .L23
 426:Generated_Source\PSoC6\pdl\rtos\FreeRTOS\9.0.0\Source\portable\GCC\CM4F/port.c ****     }
 329              		.loc 1 426 0
 330              		.syntax unified
 331              	@ 426 "Generated_Source\PSoC6\pdl\rtos\FreeRTOS\9.0.0\Source\portable\GCC\CM4F\port.c" 1
 332 0012 62B6     		 cpsie i 
 333              	@ 0 "" 2
 334              		.thumb
 335              		.syntax unified
 336              	.L23:
 337 0014 7047     		bx	lr
 338              	.L28:
 339 0016 00BF     		.align	2
 340              	.L27:
 341 0018 00000000 		.word	.LANCHOR0
 342              		.cfi_endproc
 343              	.LFE524:
 344              		.size	vPortExitCritical, .-vPortExitCritical
 345              		.section	.text.PendSV_Handler,"ax",%progbits
 346              		.align	2
 347              		.global	PendSV_Handler
 348              		.thumb
 349              		.thumb_func
 350              		.type	PendSV_Handler, %function
 351              	PendSV_Handler:
 352              	.LFB525:
 432:Generated_Source\PSoC6\pdl\rtos\FreeRTOS\9.0.0\Source\portable\GCC\CM4F/port.c ****     /* This is a naked function. */
 353              		.loc 1 432 0
 354              		.cfi_startproc
 355              		@ Naked Function: prologue and epilogue provided by programmer.
 356              		@ args = 0, pretend = 0, frame = 0
 357              		@ frame_needed = 0, uses_anonymous_args = 0
 435:Generated_Source\PSoC6\pdl\rtos\FreeRTOS\9.0.0\Source\portable\GCC\CM4F/port.c ****     (
 358              		.loc 1 435 0
 359              		.syntax unified
ARM GAS  C:\Users\Agentos\AppData\Local\Temp\ccomwea8.s 			page 20


 360              	@ 435 "Generated_Source\PSoC6\pdl\rtos\FreeRTOS\9.0.0\Source\portable\GCC\CM4F\port.c" 1
 361 0000 EFF30980 		 mrs r0, psp                        
 362 0004 BFF36F8F 	 isb                                
 363              	                                    
 364 0008 154B     	 ldr    r3, pxCurrentTCBConst       
 365 000a 1A68     	 ldr    r2, [r3]                    
 366              	                                    
 367 000c 1EF0100F 	 tst r14, #0x10                     
 368 0010 08BF     	 it eq                              
 369 0012 20ED108A 	 vstmdbeq r0!, {s16-s31}            
 370              	                                    
 371 0016 20E9F04F 	 stmdb r0!, {r4-r11, r14}           
 372              	                                    
 373 001a 1060     	 str r0, [r2]                       
 374              	                                    
 375 001c 4DF8043D 	 stmdb sp!, {r3}                    
 376 0020 4FF02F00 	 mov r0, #47                         
 377 0024 80F31188 	 msr basepri, r0                    
 378 0028 BFF34F8F 	 dsb                                
 379 002c BFF36F8F 	 isb                                
 380 0030 FFF7FEFF 	 bl vTaskSwitchContext              
 381 0034 4FF00000 	 mov r0, #0                         
 382 0038 80F31188 	 msr basepri, r0                    
 383 003c 08BC     	 ldmia sp!, {r3}                    
 384              	                                    
 385 003e 1968     	 ldr r1, [r3]                       
 386 0040 0868     	 ldr r0, [r1]                       
 387              	                                    
 388 0042 B0E8F04F 	 ldmia r0!, {r4-r11, r14}           
 389              	                                    
 390 0046 1EF0100F 	 tst r14, #0x10                     
 391 004a 08BF     	 it eq                              
 392 004c B0EC108A 	 vldmiaeq r0!, {s16-s31}            
 393              	                                    
 394 0050 80F30988 	 msr psp, r0                        
 395 0054 BFF36F8F 	 isb                                
 396 0058 7047     	 bx r14                             
 397              	                                    
 398 005a 00BFAFF3 	 .align 4                           
 398      0080
 399 0060 00000000 	pxCurrentTCBConst: .word pxCurrentTCB 
 400              	
 401              	@ 0 "" 2
 485:Generated_Source\PSoC6\pdl\rtos\FreeRTOS\9.0.0\Source\portable\GCC\CM4F/port.c **** /*-----------------------------------------------------------*/
 402              		.loc 1 485 0
 403              		.thumb
 404              		.syntax unified
 405              		.cfi_endproc
 406              	.LFE525:
 407              		.size	PendSV_Handler, .-PendSV_Handler
 408              		.section	.text.SysTick_Handler,"ax",%progbits
 409              		.align	2
 410              		.global	SysTick_Handler
 411              		.thumb
 412              		.thumb_func
 413              		.type	SysTick_Handler, %function
 414              	SysTick_Handler:
ARM GAS  C:\Users\Agentos\AppData\Local\Temp\ccomwea8.s 			page 21


 415              	.LFB526:
 489:Generated_Source\PSoC6\pdl\rtos\FreeRTOS\9.0.0\Source\portable\GCC\CM4F/port.c ****     /* The SysTick runs at the lowest interrupt priority, so when this interrupt
 416              		.loc 1 489 0
 417              		.cfi_startproc
 418              		@ args = 0, pretend = 0, frame = 0
 419              		@ frame_needed = 0, uses_anonymous_args = 0
 420 0000 08B5     		push	{r3, lr}
 421              		.cfi_def_cfa_offset 8
 422              		.cfi_offset 3, -8
 423              		.cfi_offset 14, -4
 494:Generated_Source\PSoC6\pdl\rtos\FreeRTOS\9.0.0\Source\portable\GCC\CM4F/port.c ****     {
 424              		.loc 1 494 0
 425              		.syntax unified
 426              	@ 494 "Generated_Source\PSoC6\pdl\rtos\FreeRTOS\9.0.0\Source\portable\GCC\CM4F\port.c" 1
 427 0002 72B6     		 cpsid i 
 428              	@ 0 "" 2
 497:Generated_Source\PSoC6\pdl\rtos\FreeRTOS\9.0.0\Source\portable\GCC\CM4F/port.c ****         {
 429              		.loc 1 497 0
 430              		.thumb
 431              		.syntax unified
 432 0004 FFF7FEFF 		bl	xTaskIncrementTick
 433              	.LVL8:
 434 0008 18B1     		cbz	r0, .L31
 501:Generated_Source\PSoC6\pdl\rtos\FreeRTOS\9.0.0\Source\portable\GCC\CM4F/port.c ****         }
 435              		.loc 1 501 0
 436 000a 4FF08052 		mov	r2, #268435456
 437 000e 024B     		ldr	r3, .L33
 438 0010 1A60     		str	r2, [r3]
 439              	.L31:
 504:Generated_Source\PSoC6\pdl\rtos\FreeRTOS\9.0.0\Source\portable\GCC\CM4F/port.c **** }
 440              		.loc 1 504 0
 441              		.syntax unified
 442              	@ 504 "Generated_Source\PSoC6\pdl\rtos\FreeRTOS\9.0.0\Source\portable\GCC\CM4F\port.c" 1
 443 0012 62B6     		 cpsie i 
 444              	@ 0 "" 2
 445              		.thumb
 446              		.syntax unified
 447 0014 08BD     		pop	{r3, pc}
 448              	.L34:
 449 0016 00BF     		.align	2
 450              	.L33:
 451 0018 04ED00E0 		.word	-536810236
 452              		.cfi_endproc
 453              	.LFE526:
 454              		.size	SysTick_Handler, .-SysTick_Handler
 455              		.section	.text.vPortSetupTimerInterrupt,"ax",%progbits
 456              		.align	2
 457              		.weak	vPortSetupTimerInterrupt
 458              		.thumb
 459              		.thumb_func
 460              		.type	vPortSetupTimerInterrupt, %function
 461              	vPortSetupTimerInterrupt:
 462              	.LFB527:
 667:Generated_Source\PSoC6\pdl\rtos\FreeRTOS\9.0.0\Source\portable\GCC\CM4F/port.c ****     /* Calculate the constants required to configure the tick interrupt. */
 463              		.loc 1 667 0
 464              		.cfi_startproc
 465              		@ args = 0, pretend = 0, frame = 0
ARM GAS  C:\Users\Agentos\AppData\Local\Temp\ccomwea8.s 			page 22


 466              		@ frame_needed = 0, uses_anonymous_args = 0
 467              		@ link register save eliminated.
 678:Generated_Source\PSoC6\pdl\rtos\FreeRTOS\9.0.0\Source\portable\GCC\CM4F/port.c ****     portNVIC_SYSTICK_CTRL_REG = ( portNVIC_SYSTICK_CLK_BIT | portNVIC_SYSTICK_INT_BIT | portNVIC_SY
 468              		.loc 1 678 0
 469 0000 064B     		ldr	r3, .L36
 470 0002 1B68     		ldr	r3, [r3]
 471 0004 064A     		ldr	r2, .L36+4
 472 0006 A2FB0323 		umull	r2, r3, r2, r3
 473 000a 9B09     		lsrs	r3, r3, #6
 474 000c 013B     		subs	r3, r3, #1
 475 000e 054A     		ldr	r2, .L36+8
 476 0010 1360     		str	r3, [r2]
 679:Generated_Source\PSoC6\pdl\rtos\FreeRTOS\9.0.0\Source\portable\GCC\CM4F/port.c **** }
 477              		.loc 1 679 0
 478 0012 0722     		movs	r2, #7
 479 0014 044B     		ldr	r3, .L36+12
 480 0016 1A60     		str	r2, [r3]
 481 0018 7047     		bx	lr
 482              	.L37:
 483 001a 00BF     		.align	2
 484              	.L36:
 485 001c 00000000 		.word	cy_delayFreqHz
 486 0020 D34D6210 		.word	274877907
 487 0024 14E000E0 		.word	-536813548
 488 0028 10E000E0 		.word	-536813552
 489              		.cfi_endproc
 490              	.LFE527:
 491              		.size	vPortSetupTimerInterrupt, .-vPortSetupTimerInterrupt
 492              		.section	.text.xPortStartScheduler,"ax",%progbits
 493              		.align	2
 494              		.global	xPortStartScheduler
 495              		.thumb
 496              		.thumb_func
 497              		.type	xPortStartScheduler, %function
 498              	xPortStartScheduler:
 499              	.LFB521:
 315:Generated_Source\PSoC6\pdl\rtos\FreeRTOS\9.0.0\Source\portable\GCC\CM4F/port.c ****     /* configMAX_SYSCALL_INTERRUPT_PRIORITY must not be set to 0.
 500              		.loc 1 315 0
 501              		.cfi_startproc
 502              		@ args = 0, pretend = 0, frame = 8
 503              		@ frame_needed = 0, uses_anonymous_args = 0
 504 0000 00B5     		push	{lr}
 505              		.cfi_def_cfa_offset 4
 506              		.cfi_offset 14, -4
 507 0002 83B0     		sub	sp, sp, #12
 508              		.cfi_def_cfa_offset 16
 509              	.LVL9:
 510              	.LBB2:
 332:Generated_Source\PSoC6\pdl\rtos\FreeRTOS\9.0.0\Source\portable\GCC\CM4F/port.c **** 
 511              		.loc 1 332 0
 512 0004 224B     		ldr	r3, .L42
 513 0006 1A78     		ldrb	r2, [r3]	@ zero_extendqisi2
 514 0008 D2B2     		uxtb	r2, r2
 515 000a 0192     		str	r2, [sp, #4]
 336:Generated_Source\PSoC6\pdl\rtos\FreeRTOS\9.0.0\Source\portable\GCC\CM4F/port.c **** 
 516              		.loc 1 336 0
 517 000c FF22     		movs	r2, #255
ARM GAS  C:\Users\Agentos\AppData\Local\Temp\ccomwea8.s 			page 23


 518 000e 1A70     		strb	r2, [r3]
 339:Generated_Source\PSoC6\pdl\rtos\FreeRTOS\9.0.0\Source\portable\GCC\CM4F/port.c **** 
 519              		.loc 1 339 0
 520 0010 1B78     		ldrb	r3, [r3]	@ zero_extendqisi2
 521 0012 DBB2     		uxtb	r3, r3
 522 0014 8DF80330 		strb	r3, [sp, #3]
 342:Generated_Source\PSoC6\pdl\rtos\FreeRTOS\9.0.0\Source\portable\GCC\CM4F/port.c **** 
 523              		.loc 1 342 0
 524 0018 9DF80330 		ldrb	r3, [sp, #3]	@ zero_extendqisi2
 525 001c 1D4A     		ldr	r2, .L42+4
 526 001e 03F02F03 		and	r3, r3, #47
 527 0022 1370     		strb	r3, [r2]
 346:Generated_Source\PSoC6\pdl\rtos\FreeRTOS\9.0.0\Source\portable\GCC\CM4F/port.c ****         while( ( ucMaxPriorityValue & portTOP_BIT_OF_BYTE ) == portTOP_BIT_OF_BYTE )
 528              		.loc 1 346 0
 529 0024 0723     		movs	r3, #7
 530 0026 5360     		str	r3, [r2, #4]
 347:Generated_Source\PSoC6\pdl\rtos\FreeRTOS\9.0.0\Source\portable\GCC\CM4F/port.c ****         {
 531              		.loc 1 347 0
 532 0028 09E0     		b	.L39
 533              	.L40:
 349:Generated_Source\PSoC6\pdl\rtos\FreeRTOS\9.0.0\Source\portable\GCC\CM4F/port.c ****             ucMaxPriorityValue <<= ( uint8_t ) 0x01;
 534              		.loc 1 349 0
 535 002a 1A4A     		ldr	r2, .L42+4
 536 002c 5368     		ldr	r3, [r2, #4]
 537 002e 013B     		subs	r3, r3, #1
 538 0030 5360     		str	r3, [r2, #4]
 350:Generated_Source\PSoC6\pdl\rtos\FreeRTOS\9.0.0\Source\portable\GCC\CM4F/port.c ****         }
 539              		.loc 1 350 0
 540 0032 9DF80330 		ldrb	r3, [sp, #3]	@ zero_extendqisi2
 541 0036 5B00     		lsls	r3, r3, #1
 542 0038 DBB2     		uxtb	r3, r3
 543 003a 8DF80330 		strb	r3, [sp, #3]
 544              	.L39:
 347:Generated_Source\PSoC6\pdl\rtos\FreeRTOS\9.0.0\Source\portable\GCC\CM4F/port.c ****         {
 545              		.loc 1 347 0
 546 003e 9DF80330 		ldrb	r3, [sp, #3]	@ zero_extendqisi2
 547 0042 13F0800F 		tst	r3, #128
 548 0046 F0D1     		bne	.L40
 355:Generated_Source\PSoC6\pdl\rtos\FreeRTOS\9.0.0\Source\portable\GCC\CM4F/port.c ****         ulMaxPRIGROUPValue &= portPRIORITY_GROUP_MASK;
 549              		.loc 1 355 0
 550 0048 124A     		ldr	r2, .L42+4
 551 004a 5368     		ldr	r3, [r2, #4]
 552 004c 1B02     		lsls	r3, r3, #8
 356:Generated_Source\PSoC6\pdl\rtos\FreeRTOS\9.0.0\Source\portable\GCC\CM4F/port.c **** 
 553              		.loc 1 356 0
 554 004e 03F4E063 		and	r3, r3, #1792
 555 0052 5360     		str	r3, [r2, #4]
 360:Generated_Source\PSoC6\pdl\rtos\FreeRTOS\9.0.0\Source\portable\GCC\CM4F/port.c ****     }
 556              		.loc 1 360 0
 557 0054 019B     		ldr	r3, [sp, #4]
 558 0056 DBB2     		uxtb	r3, r3
 559 0058 0D4A     		ldr	r2, .L42
 560 005a 1370     		strb	r3, [r2]
 561              	.LBE2:
 365:Generated_Source\PSoC6\pdl\rtos\FreeRTOS\9.0.0\Source\portable\GCC\CM4F/port.c ****     portNVIC_SYSPRI2_REG |= portNVIC_SYSTICK_PRI;
 562              		.loc 1 365 0
 563 005c 0E4B     		ldr	r3, .L42+8
ARM GAS  C:\Users\Agentos\AppData\Local\Temp\ccomwea8.s 			page 24


 564 005e 1A68     		ldr	r2, [r3]
 565 0060 42F47F02 		orr	r2, r2, #16711680
 566 0064 1A60     		str	r2, [r3]
 366:Generated_Source\PSoC6\pdl\rtos\FreeRTOS\9.0.0\Source\portable\GCC\CM4F/port.c **** 
 567              		.loc 1 366 0
 568 0066 1A68     		ldr	r2, [r3]
 569 0068 42F07F42 		orr	r2, r2, #-16777216
 570 006c 1A60     		str	r2, [r3]
 370:Generated_Source\PSoC6\pdl\rtos\FreeRTOS\9.0.0\Source\portable\GCC\CM4F/port.c **** 
 571              		.loc 1 370 0
 572 006e FFF7FEFF 		bl	vPortSetupTimerInterrupt
 573              	.LVL10:
 373:Generated_Source\PSoC6\pdl\rtos\FreeRTOS\9.0.0\Source\portable\GCC\CM4F/port.c **** 
 574              		.loc 1 373 0
 575 0072 0022     		movs	r2, #0
 576 0074 094B     		ldr	r3, .L42+12
 577 0076 1A60     		str	r2, [r3]
 376:Generated_Source\PSoC6\pdl\rtos\FreeRTOS\9.0.0\Source\portable\GCC\CM4F/port.c **** 
 578              		.loc 1 376 0
 579 0078 FFF7FEFF 		bl	vPortEnableVFP
 580              	.LVL11:
 379:Generated_Source\PSoC6\pdl\rtos\FreeRTOS\9.0.0\Source\portable\GCC\CM4F/port.c **** 
 581              		.loc 1 379 0
 582 007c 084A     		ldr	r2, .L42+16
 583 007e 1368     		ldr	r3, [r2]
 584 0080 43F04043 		orr	r3, r3, #-1073741824
 585 0084 1360     		str	r3, [r2]
 382:Generated_Source\PSoC6\pdl\rtos\FreeRTOS\9.0.0\Source\portable\GCC\CM4F/port.c **** 
 586              		.loc 1 382 0
 587 0086 FFF7FEFF 		bl	prvPortStartFirstTask
 588              	.LVL12:
 388:Generated_Source\PSoC6\pdl\rtos\FreeRTOS\9.0.0\Source\portable\GCC\CM4F/port.c **** 
 589              		.loc 1 388 0
 590 008a FFF7FEFF 		bl	prvTaskExitError
 591              	.LVL13:
 592              	.L43:
 593 008e 00BF     		.align	2
 594              	.L42:
 595 0090 00E400E0 		.word	-536812544
 596 0094 00000000 		.word	.LANCHOR1
 597 0098 20ED00E0 		.word	-536810208
 598 009c 00000000 		.word	.LANCHOR0
 599 00a0 34EF00E0 		.word	-536809676
 600              		.cfi_endproc
 601              	.LFE521:
 602              		.size	xPortStartScheduler, .-xPortStartScheduler
 603              		.section	.text.vPortValidateInterruptPriority,"ax",%progbits
 604              		.align	2
 605              		.global	vPortValidateInterruptPriority
 606              		.thumb
 607              		.thumb_func
 608              		.type	vPortValidateInterruptPriority, %function
 609              	vPortValidateInterruptPriority:
 610              	.LFB529:
 698:Generated_Source\PSoC6\pdl\rtos\FreeRTOS\9.0.0\Source\portable\GCC\CM4F/port.c **** /*-----------------------------------------------------------*/
 699:Generated_Source\PSoC6\pdl\rtos\FreeRTOS\9.0.0\Source\portable\GCC\CM4F/port.c **** 
 700:Generated_Source\PSoC6\pdl\rtos\FreeRTOS\9.0.0\Source\portable\GCC\CM4F/port.c **** #if( configASSERT_DEFINED == 1 )
ARM GAS  C:\Users\Agentos\AppData\Local\Temp\ccomwea8.s 			page 25


 701:Generated_Source\PSoC6\pdl\rtos\FreeRTOS\9.0.0\Source\portable\GCC\CM4F/port.c **** 
 702:Generated_Source\PSoC6\pdl\rtos\FreeRTOS\9.0.0\Source\portable\GCC\CM4F/port.c ****     void vPortValidateInterruptPriority( void )
 703:Generated_Source\PSoC6\pdl\rtos\FreeRTOS\9.0.0\Source\portable\GCC\CM4F/port.c ****     {
 611              		.loc 1 703 0
 612              		.cfi_startproc
 613              		@ args = 0, pretend = 0, frame = 0
 614              		@ frame_needed = 0, uses_anonymous_args = 0
 615              		@ link register save eliminated.
 704:Generated_Source\PSoC6\pdl\rtos\FreeRTOS\9.0.0\Source\portable\GCC\CM4F/port.c ****     uint32_t ulCurrentInterrupt;
 705:Generated_Source\PSoC6\pdl\rtos\FreeRTOS\9.0.0\Source\portable\GCC\CM4F/port.c ****     uint8_t ucCurrentPriority;
 706:Generated_Source\PSoC6\pdl\rtos\FreeRTOS\9.0.0\Source\portable\GCC\CM4F/port.c **** 
 707:Generated_Source\PSoC6\pdl\rtos\FreeRTOS\9.0.0\Source\portable\GCC\CM4F/port.c ****         /* Obtain the number of the currently executing interrupt. */
 708:Generated_Source\PSoC6\pdl\rtos\FreeRTOS\9.0.0\Source\portable\GCC\CM4F/port.c ****         __asm volatile( "mrs %0, ipsr" : "=r"( ulCurrentInterrupt ) );
 616              		.loc 1 708 0
 617              		.syntax unified
 618              	@ 708 "Generated_Source\PSoC6\pdl\rtos\FreeRTOS\9.0.0\Source\portable\GCC\CM4F\port.c" 1
 619 0000 EFF30583 		mrs r3, ipsr
 620              	@ 0 "" 2
 621              	.LVL14:
 709:Generated_Source\PSoC6\pdl\rtos\FreeRTOS\9.0.0\Source\portable\GCC\CM4F/port.c **** 
 710:Generated_Source\PSoC6\pdl\rtos\FreeRTOS\9.0.0\Source\portable\GCC\CM4F/port.c ****         /* Is the interrupt number a user defined interrupt? */
 711:Generated_Source\PSoC6\pdl\rtos\FreeRTOS\9.0.0\Source\portable\GCC\CM4F/port.c ****         if( ulCurrentInterrupt >= portFIRST_USER_INTERRUPT_NUMBER )
 622              		.loc 1 711 0
 623              		.thumb
 624              		.syntax unified
 625 0004 0F2B     		cmp	r3, #15
 626 0006 08D9     		bls	.L45
 712:Generated_Source\PSoC6\pdl\rtos\FreeRTOS\9.0.0\Source\portable\GCC\CM4F/port.c ****         {
 713:Generated_Source\PSoC6\pdl\rtos\FreeRTOS\9.0.0\Source\portable\GCC\CM4F/port.c ****             /* Look up the interrupt's priority. */
 714:Generated_Source\PSoC6\pdl\rtos\FreeRTOS\9.0.0\Source\portable\GCC\CM4F/port.c ****             ucCurrentPriority = pcInterruptPriorityRegisters[ ulCurrentInterrupt ];
 627              		.loc 1 714 0
 628 0008 094A     		ldr	r2, .L49
 629 000a 9B5C     		ldrb	r3, [r3, r2]	@ zero_extendqisi2
 630              	.LVL15:
 631 000c DBB2     		uxtb	r3, r3
 632              	.LVL16:
 715:Generated_Source\PSoC6\pdl\rtos\FreeRTOS\9.0.0\Source\portable\GCC\CM4F/port.c **** 
 716:Generated_Source\PSoC6\pdl\rtos\FreeRTOS\9.0.0\Source\portable\GCC\CM4F/port.c ****             /* The following assertion will fail if a service routine (ISR) for
 717:Generated_Source\PSoC6\pdl\rtos\FreeRTOS\9.0.0\Source\portable\GCC\CM4F/port.c ****             an interrupt that has been assigned a priority above
 718:Generated_Source\PSoC6\pdl\rtos\FreeRTOS\9.0.0\Source\portable\GCC\CM4F/port.c ****             configMAX_SYSCALL_INTERRUPT_PRIORITY calls an ISR safe FreeRTOS API
 719:Generated_Source\PSoC6\pdl\rtos\FreeRTOS\9.0.0\Source\portable\GCC\CM4F/port.c ****             function.  ISR safe FreeRTOS API functions must *only* be called
 720:Generated_Source\PSoC6\pdl\rtos\FreeRTOS\9.0.0\Source\portable\GCC\CM4F/port.c ****             from interrupts that have been assigned a priority at or below
 721:Generated_Source\PSoC6\pdl\rtos\FreeRTOS\9.0.0\Source\portable\GCC\CM4F/port.c ****             configMAX_SYSCALL_INTERRUPT_PRIORITY.
 722:Generated_Source\PSoC6\pdl\rtos\FreeRTOS\9.0.0\Source\portable\GCC\CM4F/port.c **** 
 723:Generated_Source\PSoC6\pdl\rtos\FreeRTOS\9.0.0\Source\portable\GCC\CM4F/port.c ****             Numerically low interrupt priority numbers represent logically high
 724:Generated_Source\PSoC6\pdl\rtos\FreeRTOS\9.0.0\Source\portable\GCC\CM4F/port.c ****             interrupt priorities, therefore the priority of the interrupt must
 725:Generated_Source\PSoC6\pdl\rtos\FreeRTOS\9.0.0\Source\portable\GCC\CM4F/port.c ****             be set to a value equal to or numerically *higher* than
 726:Generated_Source\PSoC6\pdl\rtos\FreeRTOS\9.0.0\Source\portable\GCC\CM4F/port.c ****             configMAX_SYSCALL_INTERRUPT_PRIORITY.
 727:Generated_Source\PSoC6\pdl\rtos\FreeRTOS\9.0.0\Source\portable\GCC\CM4F/port.c **** 
 728:Generated_Source\PSoC6\pdl\rtos\FreeRTOS\9.0.0\Source\portable\GCC\CM4F/port.c ****             Interrupts that    use the FreeRTOS API must not be left at their
 729:Generated_Source\PSoC6\pdl\rtos\FreeRTOS\9.0.0\Source\portable\GCC\CM4F/port.c ****             default priority of    zero as that is the highest possible priority,
 730:Generated_Source\PSoC6\pdl\rtos\FreeRTOS\9.0.0\Source\portable\GCC\CM4F/port.c ****             which is guaranteed to be above configMAX_SYSCALL_INTERRUPT_PRIORITY,
 731:Generated_Source\PSoC6\pdl\rtos\FreeRTOS\9.0.0\Source\portable\GCC\CM4F/port.c ****             and    therefore also guaranteed to be invalid.
 732:Generated_Source\PSoC6\pdl\rtos\FreeRTOS\9.0.0\Source\portable\GCC\CM4F/port.c **** 
 733:Generated_Source\PSoC6\pdl\rtos\FreeRTOS\9.0.0\Source\portable\GCC\CM4F/port.c ****             FreeRTOS maintains separate thread and ISR API functions to ensure
 734:Generated_Source\PSoC6\pdl\rtos\FreeRTOS\9.0.0\Source\portable\GCC\CM4F/port.c ****             interrupt entry is as fast and simple as possible.
 735:Generated_Source\PSoC6\pdl\rtos\FreeRTOS\9.0.0\Source\portable\GCC\CM4F/port.c **** 
ARM GAS  C:\Users\Agentos\AppData\Local\Temp\ccomwea8.s 			page 26


 736:Generated_Source\PSoC6\pdl\rtos\FreeRTOS\9.0.0\Source\portable\GCC\CM4F/port.c ****             The following links provide detailed information:
 737:Generated_Source\PSoC6\pdl\rtos\FreeRTOS\9.0.0\Source\portable\GCC\CM4F/port.c ****             http://www.freertos.org/RTOS-Cortex-M3-M4.html
 738:Generated_Source\PSoC6\pdl\rtos\FreeRTOS\9.0.0\Source\portable\GCC\CM4F/port.c ****             http://www.freertos.org/FAQHelp.html */
 739:Generated_Source\PSoC6\pdl\rtos\FreeRTOS\9.0.0\Source\portable\GCC\CM4F/port.c ****             configASSERT( ucCurrentPriority >= ucMaxSysCallPriority );
 633              		.loc 1 739 0
 634 000e 094A     		ldr	r2, .L49+4
 635 0010 1278     		ldrb	r2, [r2]	@ zero_extendqisi2
 636 0012 9342     		cmp	r3, r2
 637 0014 01D2     		bcs	.L45
 638              		.loc 1 739 0 is_stmt 0 discriminator 1
 639              		.syntax unified
 640              	@ 739 "Generated_Source\PSoC6\pdl\rtos\FreeRTOS\9.0.0\Source\portable\GCC\CM4F\port.c" 1
 641 0016 72B6     		 cpsid i 
 642              	@ 0 "" 2
 643              		.thumb
 644              		.syntax unified
 645              	.L46:
 646 0018 FEE7     		b	.L46
 647              	.LVL17:
 648              	.L45:
 740:Generated_Source\PSoC6\pdl\rtos\FreeRTOS\9.0.0\Source\portable\GCC\CM4F/port.c ****         }
 741:Generated_Source\PSoC6\pdl\rtos\FreeRTOS\9.0.0\Source\portable\GCC\CM4F/port.c **** 
 742:Generated_Source\PSoC6\pdl\rtos\FreeRTOS\9.0.0\Source\portable\GCC\CM4F/port.c ****         /* Priority grouping:  The interrupt controller (NVIC) allows the bits
 743:Generated_Source\PSoC6\pdl\rtos\FreeRTOS\9.0.0\Source\portable\GCC\CM4F/port.c ****         that define each interrupt's priority to be split between bits that
 744:Generated_Source\PSoC6\pdl\rtos\FreeRTOS\9.0.0\Source\portable\GCC\CM4F/port.c ****         define the interrupt's pre-emption priority bits and bits that define
 745:Generated_Source\PSoC6\pdl\rtos\FreeRTOS\9.0.0\Source\portable\GCC\CM4F/port.c ****         the interrupt's sub-priority.  For simplicity all bits must be defined
 746:Generated_Source\PSoC6\pdl\rtos\FreeRTOS\9.0.0\Source\portable\GCC\CM4F/port.c ****         to be pre-emption priority bits.  The following assertion will fail if
 747:Generated_Source\PSoC6\pdl\rtos\FreeRTOS\9.0.0\Source\portable\GCC\CM4F/port.c ****         this is not the case (if some bits represent a sub-priority).
 748:Generated_Source\PSoC6\pdl\rtos\FreeRTOS\9.0.0\Source\portable\GCC\CM4F/port.c **** 
 749:Generated_Source\PSoC6\pdl\rtos\FreeRTOS\9.0.0\Source\portable\GCC\CM4F/port.c ****         If the application only uses CMSIS libraries for interrupt
 750:Generated_Source\PSoC6\pdl\rtos\FreeRTOS\9.0.0\Source\portable\GCC\CM4F/port.c ****         configuration then the correct setting can be achieved on all Cortex-M
 751:Generated_Source\PSoC6\pdl\rtos\FreeRTOS\9.0.0\Source\portable\GCC\CM4F/port.c ****         devices by calling NVIC_SetPriorityGrouping( 0 ); before starting the
 752:Generated_Source\PSoC6\pdl\rtos\FreeRTOS\9.0.0\Source\portable\GCC\CM4F/port.c ****         scheduler.  Note however that some vendor specific peripheral libraries
 753:Generated_Source\PSoC6\pdl\rtos\FreeRTOS\9.0.0\Source\portable\GCC\CM4F/port.c ****         assume a non-zero priority group setting, in which cases using a value
 754:Generated_Source\PSoC6\pdl\rtos\FreeRTOS\9.0.0\Source\portable\GCC\CM4F/port.c ****         of zero will result in unpredicable behaviour. */
 755:Generated_Source\PSoC6\pdl\rtos\FreeRTOS\9.0.0\Source\portable\GCC\CM4F/port.c ****         configASSERT( ( portAIRCR_REG & portPRIORITY_GROUP_MASK ) <= ulMaxPRIGROUPValue );
 649              		.loc 1 755 0 is_stmt 1
 650 001a 074B     		ldr	r3, .L49+8
 651 001c 1B68     		ldr	r3, [r3]
 652 001e 03F4E063 		and	r3, r3, #1792
 653 0022 044A     		ldr	r2, .L49+4
 654 0024 5268     		ldr	r2, [r2, #4]
 655 0026 9342     		cmp	r3, r2
 656 0028 01D9     		bls	.L44
 657              		.loc 1 755 0 is_stmt 0 discriminator 1
 658              		.syntax unified
 659              	@ 755 "Generated_Source\PSoC6\pdl\rtos\FreeRTOS\9.0.0\Source\portable\GCC\CM4F\port.c" 1
 660 002a 72B6     		 cpsid i 
 661              	@ 0 "" 2
 662              		.thumb
 663              		.syntax unified
 664              	.L48:
 665 002c FEE7     		b	.L48
 666              	.L44:
 667 002e 7047     		bx	lr
 668              	.L50:
 669              		.align	2
ARM GAS  C:\Users\Agentos\AppData\Local\Temp\ccomwea8.s 			page 27


 670              	.L49:
 671 0030 F0E300E0 		.word	-536812560
 672 0034 00000000 		.word	.LANCHOR1
 673 0038 0CED00E0 		.word	-536810228
 674              		.cfi_endproc
 675              	.LFE529:
 676              		.size	vPortValidateInterruptPriority, .-vPortValidateInterruptPriority
 677              		.section	.text.vApplicationMallocFailedHook,"ax",%progbits
 678              		.align	2
 679              		.weak	vApplicationMallocFailedHook
 680              		.thumb
 681              		.thumb_func
 682              		.type	vApplicationMallocFailedHook, %function
 683              	vApplicationMallocFailedHook:
 684              	.LFB530:
 756:Generated_Source\PSoC6\pdl\rtos\FreeRTOS\9.0.0\Source\portable\GCC\CM4F/port.c ****     }
 757:Generated_Source\PSoC6\pdl\rtos\FreeRTOS\9.0.0\Source\portable\GCC\CM4F/port.c **** 
 758:Generated_Source\PSoC6\pdl\rtos\FreeRTOS\9.0.0\Source\portable\GCC\CM4F/port.c **** #endif /* configASSERT_DEFINED */
 759:Generated_Source\PSoC6\pdl\rtos\FreeRTOS\9.0.0\Source\portable\GCC\CM4F/port.c **** 
 760:Generated_Source\PSoC6\pdl\rtos\FreeRTOS\9.0.0\Source\portable\GCC\CM4F/port.c **** #if configUSE_MALLOC_FAILED_HOOK == 1
 761:Generated_Source\PSoC6\pdl\rtos\FreeRTOS\9.0.0\Source\portable\GCC\CM4F/port.c ****     __WEAK void vApplicationMallocFailedHook( void )
 762:Generated_Source\PSoC6\pdl\rtos\FreeRTOS\9.0.0\Source\portable\GCC\CM4F/port.c ****     {
 685              		.loc 1 762 0 is_stmt 1
 686              		.cfi_startproc
 687              		@ args = 0, pretend = 0, frame = 0
 688              		@ frame_needed = 0, uses_anonymous_args = 0
 689 0000 08B5     		push	{r3, lr}
 690              		.cfi_def_cfa_offset 8
 691              		.cfi_offset 3, -8
 692              		.cfi_offset 14, -4
 763:Generated_Source\PSoC6\pdl\rtos\FreeRTOS\9.0.0\Source\portable\GCC\CM4F/port.c ****         /* The heap space has been exceeded. */
 764:Generated_Source\PSoC6\pdl\rtos\FreeRTOS\9.0.0\Source\portable\GCC\CM4F/port.c ****         taskDISABLE_INTERRUPTS();
 693              		.loc 1 764 0
 694              		.syntax unified
 695              	@ 764 "Generated_Source\PSoC6\pdl\rtos\FreeRTOS\9.0.0\Source\portable\GCC\CM4F\port.c" 1
 696 0002 72B6     		 cpsid i 
 697              	@ 0 "" 2
 765:Generated_Source\PSoC6\pdl\rtos\FreeRTOS\9.0.0\Source\portable\GCC\CM4F/port.c ****         CY_ASSERT(0U != 0U);
 698              		.loc 1 765 0
 699              		.thumb
 700              		.syntax unified
 701 0004 40F2FD21 		movw	r1, #765
 702 0008 0148     		ldr	r0, .L54
 703 000a FFF7FEFF 		bl	Cy_SysLib_AssertFailed
 704              	.LVL18:
 705              	.L52:
 706 000e FEE7     		b	.L52
 707              	.L55:
 708              		.align	2
 709              	.L54:
 710 0010 00000000 		.word	.LC0
 711              		.cfi_endproc
 712              	.LFE530:
 713              		.size	vApplicationMallocFailedHook, .-vApplicationMallocFailedHook
 714              		.section	.text.vApplicationStackOverflowHook,"ax",%progbits
 715              		.align	2
 716              		.weak	vApplicationStackOverflowHook
ARM GAS  C:\Users\Agentos\AppData\Local\Temp\ccomwea8.s 			page 28


 717              		.thumb
 718              		.thumb_func
 719              		.type	vApplicationStackOverflowHook, %function
 720              	vApplicationStackOverflowHook:
 721              	.LFB531:
 766:Generated_Source\PSoC6\pdl\rtos\FreeRTOS\9.0.0\Source\portable\GCC\CM4F/port.c ****         for( ;; )
 767:Generated_Source\PSoC6\pdl\rtos\FreeRTOS\9.0.0\Source\portable\GCC\CM4F/port.c ****         {
 768:Generated_Source\PSoC6\pdl\rtos\FreeRTOS\9.0.0\Source\portable\GCC\CM4F/port.c ****         }
 769:Generated_Source\PSoC6\pdl\rtos\FreeRTOS\9.0.0\Source\portable\GCC\CM4F/port.c ****     }
 770:Generated_Source\PSoC6\pdl\rtos\FreeRTOS\9.0.0\Source\portable\GCC\CM4F/port.c **** #endif
 771:Generated_Source\PSoC6\pdl\rtos\FreeRTOS\9.0.0\Source\portable\GCC\CM4F/port.c **** 
 772:Generated_Source\PSoC6\pdl\rtos\FreeRTOS\9.0.0\Source\portable\GCC\CM4F/port.c **** #if configCHECK_FOR_STACK_OVERFLOW  != 0
 773:Generated_Source\PSoC6\pdl\rtos\FreeRTOS\9.0.0\Source\portable\GCC\CM4F/port.c ****     __WEAK void vApplicationStackOverflowHook( TaskHandle_t xTask, signed char *pcTaskName )
 774:Generated_Source\PSoC6\pdl\rtos\FreeRTOS\9.0.0\Source\portable\GCC\CM4F/port.c ****     {
 722              		.loc 1 774 0
 723              		.cfi_startproc
 724              		@ args = 0, pretend = 0, frame = 0
 725              		@ frame_needed = 0, uses_anonymous_args = 0
 726              	.LVL19:
 727 0000 08B5     		push	{r3, lr}
 728              		.cfi_def_cfa_offset 8
 729              		.cfi_offset 3, -8
 730              		.cfi_offset 14, -4
 775:Generated_Source\PSoC6\pdl\rtos\FreeRTOS\9.0.0\Source\portable\GCC\CM4F/port.c ****         (void)xTask;
 776:Generated_Source\PSoC6\pdl\rtos\FreeRTOS\9.0.0\Source\portable\GCC\CM4F/port.c ****         (void)pcTaskName;
 777:Generated_Source\PSoC6\pdl\rtos\FreeRTOS\9.0.0\Source\portable\GCC\CM4F/port.c ****         /* The stack space has been exceeded for a task, considering allocating more. */
 778:Generated_Source\PSoC6\pdl\rtos\FreeRTOS\9.0.0\Source\portable\GCC\CM4F/port.c ****         taskDISABLE_INTERRUPTS();
 731              		.loc 1 778 0
 732              		.syntax unified
 733              	@ 778 "Generated_Source\PSoC6\pdl\rtos\FreeRTOS\9.0.0\Source\portable\GCC\CM4F\port.c" 1
 734 0002 72B6     		 cpsid i 
 735              	@ 0 "" 2
 779:Generated_Source\PSoC6\pdl\rtos\FreeRTOS\9.0.0\Source\portable\GCC\CM4F/port.c ****         CY_ASSERT(0U != 0U);
 736              		.loc 1 779 0
 737              		.thumb
 738              		.syntax unified
 739 0004 40F20B31 		movw	r1, #779
 740              	.LVL20:
 741 0008 0148     		ldr	r0, .L59
 742              	.LVL21:
 743 000a FFF7FEFF 		bl	Cy_SysLib_AssertFailed
 744              	.LVL22:
 745              	.L57:
 746 000e FEE7     		b	.L57
 747              	.L60:
 748              		.align	2
 749              	.L59:
 750 0010 00000000 		.word	.LC0
 751              		.cfi_endproc
 752              	.LFE531:
 753              		.size	vApplicationStackOverflowHook, .-vApplicationStackOverflowHook
 754              		.data
 755              		.align	2
 756              		.set	.LANCHOR0,. + 0
 757              		.type	uxCriticalNesting, %object
 758              		.size	uxCriticalNesting, 4
 759              	uxCriticalNesting:
ARM GAS  C:\Users\Agentos\AppData\Local\Temp\ccomwea8.s 			page 29


 760 0000 AAAAAAAA 		.word	-1431655766
 761              		.section	.rodata.str1.4,"aMS",%progbits,1
 762              		.align	2
 763              	.LC0:
 764 0000 47656E65 		.ascii	"Generated_Source\\PSoC6\\pdl\\rtos\\FreeRTOS\\9.0.0"
 764      72617465 
 764      645F536F 
 764      75726365 
 764      5C50536F 
 765 002e 5C536F75 		.ascii	"\\Source\\portable\\GCC\\CM4F\\port.c\000"
 765      7263655C 
 765      706F7274 
 765      61626C65 
 765      5C474343 
 766              		.bss
 767              		.align	2
 768              		.set	.LANCHOR1,. + 0
 769              		.type	ucMaxSysCallPriority, %object
 770              		.size	ucMaxSysCallPriority, 1
 771              	ucMaxSysCallPriority:
 772 0000 00       		.space	1
 773 0001 000000   		.space	3
 774              		.type	ulMaxPRIGROUPValue, %object
 775              		.size	ulMaxPRIGROUPValue, 4
 776              	ulMaxPRIGROUPValue:
 777 0004 00000000 		.space	4
 778              		.text
 779              	.Letext0:
 780              		.file 2 "c:\\program files (x86)\\cypress\\psoc creator\\4.2\\psoc creator\\import\\gnu\\arm\\5.4.
 781              		.file 3 "c:\\program files (x86)\\cypress\\psoc creator\\4.2\\psoc creator\\import\\gnu\\arm\\5.4.
 782              		.file 4 "Generated_Source\\PSoC6\\pdl\\drivers/peripheral/syslib/cy_syslib.h"
 783              		.file 5 "Generated_Source\\PSoC6\\pdl\\drivers/peripheral/scb/cy_scb_spi.h"
 784              		.file 6 "Generated_Source\\PSoC6\\pdl\\drivers/peripheral/sar/cy_sar.h"
 785              		.file 7 "Generated_Source\\PSoC6/ADC.h"
 786              		.file 8 "Generated_Source\\PSoC6\\pdl\\rtos/FreeRTOS/9.0.0/Source/include/projdefs.h"
 787              		.file 9 "Generated_Source\\PSoC6\\pdl\\rtos/FreeRTOS/9.0.0/Source/portable/GCC/CM4F/portmacro.h"
 788              		.file 10 "Generated_Source\\PSoC6\\pdl\\rtos/FreeRTOS/9.0.0/Source/include/task.h"
 789              		.file 11 "Generated_Source\\PSoC6\\pdl\\cmsis/include/core_cm4.h"
 790              		.file 12 "./system_psoc63.h"
 791              		.file 13 "Generated_Source\\PSoC6/CY_EINK_SPIM.h"